; Listing generated by Microsoft (R) Optimizing Compiler Version 19.00.23026.0 

include listing.inc

INCLUDELIB LIBCMT
INCLUDELIB OLDNAMES

PUBLIC	jmpenv
EXTRN	omf_init:PROC
EXTRN	coff_init:PROC
EXTRN	elf_init:PROC
EXTRN	bin_init:PROC
_BSS	SEGMENT
jmpenv	DB	0100H DUP (?)
_BSS	ENDS
_DATA	SEGMENT
COMM	LinnumQueue:BYTE:010H
COMM	decoflags:BYTE
COMM	broadflags:BYTE
COMM	evex:BYTE
COMM	ZEROLOCALS:BYTE
COMM	ModuleInfo:BYTE:0308H
COMM	Parse_Pass:DWORD
COMM	write_to_file:BYTE
_DATA	ENDS
_DATA	SEGMENT
$SG11726 DB	'_TEXT', 00H
	ORG $+2
$SG11727 DB	'.text', 00H
	ORG $+2
$SG11728 DB	'_DATA', 00H
	ORG $+2
$SG11729 DB	'.data', 00H
	ORG $+2
$SG11730 DB	'CONST', 00H
	ORG $+2
$SG11731 DB	'.rdata', 00H
	ORG $+1
$SG11732 DB	'_BSS', 00H
	ORG $+3
$SG11733 DB	'.bss', 00H
	ORG $+3
$SG11846 DB	'w', 00H
	ORG $+2
$SG11910 DB	'%s', 0aH, 00H
$SG11850 DB	'import ''%s''  %s.%s', 0aH, 00H
$SG11912 DB	0aH, 00H
	ORG $+2
$SG11898 DB	'INCLUDE', 00H
$SG11936 DB	'%r %s', 00H
	ORG $+2
$SG12036 DB	'rb', 00H
	ORG $+1
$SG12039 DB	'wb', 00H
	ORG $+1
$SG12042 DB	'wb', 00H
	ORG $+1
$SG12075 DB	'EXE', 00H
$SG12076 DB	'BIN', 00H
$SG12077 DB	'obj', 00H
$SG12079 DB	'lst', 00H
$SG12081 DB	'err', 00H
$SG12148 DB	'%s', 0aH, 00H
_DATA	ENDS
CONST	SEGMENT
formatoptions DQ FLAT:bin_init
	DW	00H
	DB	'BIN', 00H
	ORG $+2
	DQ	FLAT:omf_init
	DW	00H
	DB	'OMF', 00H
	ORG $+2
	DQ	FLAT:coff_init
	DW	0e12H
	DB	'COFF', 00H
	ORG $+1
	DQ	FLAT:elf_init
	DW	0f00H
	DB	'ELF', 00H
	ORG $+2
cst	DB	05H
	DB	01H
	ORG $+6
	DQ	FLAT:$SG11726
	DQ	FLAT:$SG11727
	DB	05H
	DB	01H
	ORG $+6
	DQ	FLAT:$SG11728
	DQ	FLAT:$SG11729
	DB	05H
	DB	01H
	ORG $+6
	DQ	FLAT:$SG11730
	DQ	FLAT:$SG11731
	DB	04H
	DB	00H
	ORG $+6
	DQ	FLAT:$SG11732
	DQ	FLAT:$SG11733
CONST	ENDS
PUBLIC	__local_stdio_printf_options
PUBLIC	printf
PUBLIC	sprintf
PUBLIC	OutputByte
PUBLIC	OutputBinBytes
PUBLIC	FillDataBytes
PUBLIC	OutputBytes
PUBLIC	AssembleModule
PUBLIC	SetMasm510
PUBLIC	close_files
PUBLIC	ConvertSectionName
PUBLIC	WritePreprocessedLine
PUBLIC	SetCurrOffset
EXTRN	isalpha:PROC
EXTRN	isdigit:PROC
EXTRN	isspace:PROC
EXTRN	isalnum:PROC
EXTRN	clock:PROC
EXTRN	__acrt_iob_func:PROC
EXTRN	fclose:PROC
EXTRN	fopen:PROC
EXTRN	fwrite:PROC
EXTRN	remove:PROC
EXTRN	rewind:PROC
EXTRN	__stdio_common_vfprintf:PROC
EXTRN	__stdio_common_vsprintf:PROC
EXTRN	_errno:PROC
EXTRN	getenv:PROC
EXTRN	strchr:PROC
EXTRN	strncpy:PROC
EXTRN	_strupr:PROC
EXTRN	Fatal:PROC
EXTRN	EmitError:PROC
EXTRN	EmitErr:PROC
EXTRN	EmitWarn:PROC
EXTRN	ErrnoStr:PROC
EXTRN	WriteError:PROC
EXTRN	MemInit:PROC
EXTRN	MemFini:PROC
EXTRN	LclAlloc:PROC
EXTRN	GetLineNumber:PROC
EXTRN	GetFNamePart:PROC
EXTRN	GetExtPart:PROC
EXTRN	SearchFile:PROC
EXTRN	AddStringToIncludePath:PROC
EXTRN	InputInit:PROC
EXTRN	InputPassInit:PROC
EXTRN	InputFini:PROC
EXTRN	ClearSrcStack:PROC
EXTRN	set_curr_srcfile:PROC
EXTRN	GetFName:PROC
EXTRN	SymCreate:PROC
EXTRN	SymFind:PROC
EXTRN	SymInit:PROC
EXTRN	SymFini:PROC
EXTRN	SymPassInit:PROC
EXTRN	SymMakeAllSymbolsPublic:PROC
EXTRN	SymSetCmpFunc:PROC
EXTRN	sym_remove_table:PROC
EXTRN	ParseLine:PROC
EXTRN	ProcessFile:PROC
EXTRN	DisableKeyword:PROC
EXTRN	ResWordsInit:PROC
EXTRN	ResWordsFini:PROC
EXTRN	Tokenize:PROC
EXTRN	CondCheckOpen:PROC
EXTRN	CondInit:PROC
EXTRN	SegmentInit:PROC
EXTRN	SegmentFini:PROC
EXTRN	AssumeInit:PROC
EXTRN	ProcInit:PROC
EXTRN	ExprEvalInit:PROC
EXTRN	HllInit:PROC
EXTRN	HllCheckOpen:PROC
EXTRN	ContextInit:PROC
EXTRN	TypesInit:PROC
EXTRN	LabelInit:PROC
EXTRN	MacroInit:PROC
EXTRN	FreePubQueue:PROC
EXTRN	store_fixup:PROC
EXTRN	omf_set_filepos:PROC
EXTRN	omf_OutSelect:PROC
EXTRN	omf_FlushCurrSeg:PROC
EXTRN	FastpassInit:PROC
EXTRN	SkipSavedState:PROC
EXTRN	RestoreState:PROC
EXTRN	LstInit:PROC
EXTRN	LstWriteCRef:PROC
EXTRN	LstPrintf:PROC
EXTRN	LstNL:PROC
EXTRN	MsgGetEx:PROC
EXTRN	LinnumInit:PROC
EXTRN	LinnumFini:PROC
EXTRN	QueueDeleteLinnum:PROC
EXTRN	SetCPU:PROC
EXTRN	AddLineQueueX:PROC
EXTRN	RunLineQueue:PROC
EXTRN	Mangle:PROC
EXTRN	__chkstk:PROC
EXTRN	_setjmp:PROC
EXTRN	memcmp:PROC
EXTRN	memcpy:PROC
EXTRN	memset:PROC
EXTRN	Options:BYTE
EXTRN	MacroLevel:BYTE
EXTRN	SymTables:BYTE
EXTRN	LineStoreCurr:QWORD
EXTRN	StoreState:BYTE
EXTRN	UseSavedState:BYTE
EXTRN	LastCodeBufSize:DWORD
EXTRN	DefaultDir:BYTE
EXTRN	ModelToken:BYTE
EXTRN	__ImageBase:BYTE
_DATA	SEGMENT
COMM	?_OptionsStorage@?1??__local_stdio_printf_options@@9@9:QWORD							; `__local_stdio_printf_options'::`2'::_OptionsStorage
_DATA	ENDS
;	COMDAT pdata
pdata	SEGMENT
$pdata$_vfprintf_l DD imagerel $LN4
	DD	imagerel $LN4+80
	DD	imagerel $unwind$_vfprintf_l
pdata	ENDS
;	COMDAT pdata
pdata	SEGMENT
$pdata$printf DD imagerel $LN6
	DD	imagerel $LN6+83
	DD	imagerel $unwind$printf
pdata	ENDS
;	COMDAT pdata
pdata	SEGMENT
$pdata$_vsnprintf_l DD imagerel $LN4
	DD	imagerel $LN4+102
	DD	imagerel $unwind$_vsnprintf_l
pdata	ENDS
;	COMDAT pdata
pdata	SEGMENT
$pdata$_vsprintf_l DD imagerel $LN6
	DD	imagerel $LN6+98
	DD	imagerel $unwind$_vsprintf_l
pdata	ENDS
;	COMDAT pdata
pdata	SEGMENT
$pdata$sprintf DD imagerel $LN8
	DD	imagerel $LN8+90
	DD	imagerel $unwind$sprintf
pdata	ENDS
pdata	SEGMENT
$pdata$OutputByte DD imagerel $LN9
	DD	imagerel $LN9+185
	DD	imagerel $unwind$OutputByte
$pdata$OutputBinBytes DD imagerel $LN20
	DD	imagerel $LN20+225
	DD	imagerel $unwind$OutputBinBytes
$pdata$FillDataBytes DD imagerel $LN20
	DD	imagerel $LN20+233
	DD	imagerel $unwind$FillDataBytes
$pdata$OutputBytes DD imagerel $LN10
	DD	imagerel $LN10+11
	DD	imagerel $unwind$OutputBytes
$pdata$2$OutputBytes DD imagerel $LN10+11
	DD	imagerel $LN10+44
	DD	imagerel $chain$2$OutputBytes
$pdata$3$OutputBytes DD imagerel $LN10+44
	DD	imagerel $LN10+151
	DD	imagerel $chain$3$OutputBytes
$pdata$4$OutputBytes DD imagerel $LN10+151
	DD	imagerel $LN10+250
	DD	imagerel $chain$4$OutputBytes
$pdata$5$OutputBytes DD imagerel $LN10+250
	DD	imagerel $LN10+258
	DD	imagerel $chain$5$OutputBytes
$pdata$AssembleModule DD imagerel $LN59
	DD	imagerel $LN59+730
	DD	imagerel $unwind$AssembleModule
$pdata$close_files DD imagerel $LN13
	DD	imagerel $LN13+222
	DD	imagerel $unwind$close_files
$pdata$ConvertSectionName DD imagerel $LN25
	DD	imagerel $LN25+328
	DD	imagerel $unwind$ConvertSectionName
$pdata$WritePreprocessedLine DD imagerel $LN16
	DD	imagerel $LN16+18
	DD	imagerel $unwind$WritePreprocessedLine
$pdata$0$WritePreprocessedLine DD imagerel $LN16+18
	DD	imagerel $LN16+106
	DD	imagerel $chain$0$WritePreprocessedLine
$pdata$1$WritePreprocessedLine DD imagerel $LN16+106
	DD	imagerel $LN16+145
	DD	imagerel $chain$1$WritePreprocessedLine
$pdata$SetCurrOffset DD imagerel $LN18
	DD	imagerel $LN18+176
	DD	imagerel $unwind$SetCurrOffset
pdata	ENDS
;	COMDAT pdata
pdata	SEGMENT
$pdata$WriteModule DD imagerel WriteModule
	DD	imagerel WriteModule+374
	DD	imagerel $unwind$WriteModule
pdata	ENDS
;	COMDAT pdata
pdata	SEGMENT
$pdata$is_valid_identifier DD imagerel is_valid_identifier
	DD	imagerel is_valid_identifier+66
	DD	imagerel $unwind$is_valid_identifier
pdata	ENDS
;	COMDAT pdata
pdata	SEGMENT
$pdata$0$is_valid_identifier DD imagerel is_valid_identifier+66
	DD	imagerel is_valid_identifier+149
	DD	imagerel $chain$0$is_valid_identifier
pdata	ENDS
;	COMDAT pdata
pdata	SEGMENT
$pdata$2$is_valid_identifier DD imagerel is_valid_identifier+149
	DD	imagerel is_valid_identifier+163
	DD	imagerel $chain$2$is_valid_identifier
pdata	ENDS
;	COMDAT pdata
pdata	SEGMENT
$pdata$add_cmdline_tmacros DD imagerel add_cmdline_tmacros
	DD	imagerel add_cmdline_tmacros+401
	DD	imagerel $unwind$add_cmdline_tmacros
pdata	ENDS
;	COMDAT pdata
pdata	SEGMENT
$pdata$add_incpaths DD imagerel add_incpaths
	DD	imagerel add_incpaths+41
	DD	imagerel $unwind$add_incpaths
pdata	ENDS
;	COMDAT pdata
pdata	SEGMENT
$pdata$CmdlParamsInit DD imagerel CmdlParamsInit
	DD	imagerel CmdlParamsInit+8
	DD	imagerel $unwind$CmdlParamsInit
pdata	ENDS
;	COMDAT pdata
pdata	SEGMENT
$pdata$0$CmdlParamsInit DD imagerel CmdlParamsInit+8
	DD	imagerel CmdlParamsInit+63
	DD	imagerel $chain$0$CmdlParamsInit
pdata	ENDS
;	COMDAT pdata
pdata	SEGMENT
$pdata$1$CmdlParamsInit DD imagerel CmdlParamsInit+63
	DD	imagerel CmdlParamsInit+97
	DD	imagerel $chain$1$CmdlParamsInit
pdata	ENDS
;	COMDAT pdata
pdata	SEGMENT
$pdata$ModulePassInit DD imagerel ModulePassInit
	DD	imagerel ModulePassInit+531
	DD	imagerel $unwind$ModulePassInit
pdata	ENDS
;	COMDAT pdata
pdata	SEGMENT
$pdata$PassOneChecks DD imagerel PassOneChecks
	DD	imagerel PassOneChecks+293
	DD	imagerel $unwind$PassOneChecks
pdata	ENDS
;	COMDAT pdata
pdata	SEGMENT
$pdata$0$PassOneChecks DD imagerel PassOneChecks+293
	DD	imagerel PassOneChecks+419
	DD	imagerel $chain$0$PassOneChecks
pdata	ENDS
;	COMDAT pdata
pdata	SEGMENT
$pdata$1$PassOneChecks DD imagerel PassOneChecks+419
	DD	imagerel PassOneChecks+501
	DD	imagerel $chain$1$PassOneChecks
pdata	ENDS
;	COMDAT pdata
pdata	SEGMENT
$pdata$OnePass DD imagerel OnePass
	DD	imagerel OnePass+4
	DD	imagerel $unwind$OnePass
pdata	ENDS
;	COMDAT pdata
pdata	SEGMENT
$pdata$0$OnePass DD imagerel OnePass+4
	DD	imagerel OnePass+499
	DD	imagerel $chain$0$OnePass
pdata	ENDS
;	COMDAT pdata
pdata	SEGMENT
$pdata$1$OnePass DD imagerel OnePass+499
	DD	imagerel OnePass+519
	DD	imagerel $chain$1$OnePass
pdata	ENDS
;	COMDAT pdata
pdata	SEGMENT
$pdata$get_module_name DD imagerel get_module_name
	DD	imagerel get_module_name+226
	DD	imagerel $unwind$get_module_name
pdata	ENDS
;	COMDAT pdata
pdata	SEGMENT
$pdata$ModuleInit DD imagerel ModuleInit
	DD	imagerel ModuleInit+174
	DD	imagerel $unwind$ModuleInit
pdata	ENDS
;	COMDAT pdata
pdata	SEGMENT
$pdata$ReswTableInit DD imagerel ReswTableInit
	DD	imagerel ReswTableInit+76
	DD	imagerel $unwind$ReswTableInit
pdata	ENDS
;	COMDAT pdata
pdata	SEGMENT
$pdata$open_files DD imagerel open_files
	DD	imagerel open_files+199
	DD	imagerel $unwind$open_files
pdata	ENDS
;	COMDAT pdata
pdata	SEGMENT
$pdata$SetFilenames DD imagerel SetFilenames
	DD	imagerel SetFilenames+654
	DD	imagerel $unwind$SetFilenames
pdata	ENDS
;	COMDAT pdata
pdata	SEGMENT
$pdata$AssembleInit DD imagerel AssembleInit
	DD	imagerel AssembleInit+148
	DD	imagerel $unwind$AssembleInit
pdata	ENDS
;	COMDAT pdata
pdata	SEGMENT
$pdata$AssembleFini DD imagerel AssembleFini
	DD	imagerel AssembleFini+65
	DD	imagerel $unwind$AssembleFini
pdata	ENDS
_DATA	SEGMENT
?PrintEmptyLine@?1??WritePreprocessedLine@@9@9 DB 01H	; `WritePreprocessedLine'::`2'::PrintEmptyLine
_DATA	ENDS
CONST	SEGMENT
stt	DD	01H
	DD	02H
	DD	02H
	DD	03H
CONST	ENDS
;	COMDAT xdata
xdata	SEGMENT
$unwind$AssembleFini DD 010401H
	DD	04204H
xdata	ENDS
;	COMDAT xdata
xdata	SEGMENT
$unwind$AssembleInit DD 020601H
	DD	030023206H
xdata	ENDS
;	COMDAT xdata
xdata	SEGMENT
$unwind$SetFilenames DD 0b1d01H
	DD	02b741dH
	DD	02a641dH
	DD	029541dH
	DD	028341dH
	DD	026011dH
	DD	0e016H
xdata	ENDS
;	COMDAT xdata
xdata	SEGMENT
$unwind$open_files DD 010401H
	DD	04204H
xdata	ENDS
;	COMDAT xdata
xdata	SEGMENT
$unwind$ReswTableInit DD 010401H
	DD	04204H
xdata	ENDS
;	COMDAT xdata
xdata	SEGMENT
$unwind$ModuleInit DD 010401H
	DD	04204H
xdata	ENDS
;	COMDAT xdata
xdata	SEGMENT
$unwind$get_module_name DD 040a01H
	DD	06340aH
	DD	07006320aH
xdata	ENDS
;	COMDAT xdata
xdata	SEGMENT
$chain$1$OnePass DD 021H
	DD	imagerel OnePass
	DD	imagerel OnePass+4
	DD	imagerel $unwind$OnePass
xdata	ENDS
;	COMDAT xdata
xdata	SEGMENT
$chain$0$OnePass DD 020521H
	DD	043405H
	DD	imagerel OnePass
	DD	imagerel OnePass+4
	DD	imagerel $unwind$OnePass
xdata	ENDS
;	COMDAT xdata
xdata	SEGMENT
$unwind$OnePass DD 010401H
	DD	04204H
xdata	ENDS
;	COMDAT xdata
xdata	SEGMENT
$chain$1$PassOneChecks DD 021H
	DD	imagerel PassOneChecks
	DD	imagerel PassOneChecks+293
	DD	imagerel $unwind$PassOneChecks
xdata	ENDS
;	COMDAT xdata
xdata	SEGMENT
$chain$0$PassOneChecks DD 020521H
	DD	043405H
	DD	imagerel PassOneChecks
	DD	imagerel PassOneChecks+293
	DD	imagerel $unwind$PassOneChecks
xdata	ENDS
;	COMDAT xdata
xdata	SEGMENT
$unwind$PassOneChecks DD 010401H
	DD	04204H
xdata	ENDS
;	COMDAT xdata
xdata	SEGMENT
$unwind$ModulePassInit DD 020601H
	DD	030023206H
xdata	ENDS
;	COMDAT xdata
xdata	SEGMENT
$chain$1$CmdlParamsInit DD 021H
	DD	imagerel CmdlParamsInit
	DD	imagerel CmdlParamsInit+8
	DD	imagerel $unwind$CmdlParamsInit
xdata	ENDS
;	COMDAT xdata
xdata	SEGMENT
$chain$0$CmdlParamsInit DD 020521H
	DD	043405H
	DD	imagerel CmdlParamsInit
	DD	imagerel CmdlParamsInit+8
	DD	imagerel $unwind$CmdlParamsInit
xdata	ENDS
;	COMDAT xdata
xdata	SEGMENT
$unwind$CmdlParamsInit DD 010401H
	DD	04204H
xdata	ENDS
;	COMDAT xdata
xdata	SEGMENT
$unwind$add_incpaths DD 020601H
	DD	030023206H
xdata	ENDS
;	COMDAT xdata
xdata	SEGMENT
$unwind$add_cmdline_tmacros DD 0250d2601H
	DD	0c7426H
	DD	0b6422H
	DD	0a341eH
	DD	0320e2313H
	DD	0e008f00aH
	DD	0c004d006H
	DD	05002H
xdata	ENDS
;	COMDAT xdata
xdata	SEGMENT
$chain$2$is_valid_identifier DD 020021H
	DD	067400H
	DD	imagerel is_valid_identifier
	DD	imagerel is_valid_identifier+66
	DD	imagerel $unwind$is_valid_identifier
xdata	ENDS
;	COMDAT xdata
xdata	SEGMENT
$chain$0$is_valid_identifier DD 020521H
	DD	067405H
	DD	imagerel is_valid_identifier
	DD	imagerel is_valid_identifier+66
	DD	imagerel $unwind$is_valid_identifier
xdata	ENDS
;	COMDAT xdata
xdata	SEGMENT
$unwind$is_valid_identifier DD 020601H
	DD	030023206H
xdata	ENDS
;	COMDAT xdata
xdata	SEGMENT
$unwind$WriteModule DD 067001H
	DD	086470H
	DD	09340aH
	DD	07006520aH
xdata	ENDS
xdata	SEGMENT
$unwind$OutputByte DD 020601H
	DD	030023206H
$unwind$OutputBinBytes DD 040a01H
	DD	06340aH
	DD	07006320aH
$unwind$FillDataBytes DD 040a01H
	DD	06340aH
	DD	07006320aH
$unwind$OutputBytes DD 010401H
	DD	04204H
$chain$2$OutputBytes DD 061521H
	DD	047415H
	DD	08640dH
	DD	075405H
	DD	imagerel $LN10
	DD	imagerel $LN10+11
	DD	imagerel $unwind$OutputBytes
$chain$3$OutputBytes DD 020521H
	DD	063405H
	DD	imagerel $LN10+11
	DD	imagerel $LN10+44
	DD	imagerel $chain$2$OutputBytes
$chain$4$OutputBytes DD 021H
	DD	imagerel $LN10+11
	DD	imagerel $LN10+44
	DD	imagerel $chain$2$OutputBytes
$chain$5$OutputBytes DD 021H
	DD	imagerel $LN10
	DD	imagerel $LN10+11
	DD	imagerel $unwind$OutputBytes
$unwind$AssembleModule DD 0a1d01H
	DD	011641dH
	DD	010541dH
	DD	0f341dH
	DD	0f019921dH
	DD	07015e017H
$unwind$close_files DD 020601H
	DD	030023206H
$unwind$ConvertSectionName DD 0c1e01H
	DD	0b741eH
	DD	0a641eH
	DD	09541eH
	DD	08341eH
	DD	0f01a321eH
	DD	0c016e018H
$unwind$WritePreprocessedLine DD 020601H
	DD	070023206H
$chain$0$WritePreprocessedLine DD 020521H
	DD	063405H
	DD	imagerel $LN16
	DD	imagerel $LN16+18
	DD	imagerel $unwind$WritePreprocessedLine
$chain$1$WritePreprocessedLine DD 021H
	DD	imagerel $LN16
	DD	imagerel $LN16+18
	DD	imagerel $unwind$WritePreprocessedLine
$unwind$SetCurrOffset DD 060f01H
	DD	07640fH
	DD	06340fH
	DD	0700b320fH
xdata	ENDS
;	COMDAT xdata
xdata	SEGMENT
$unwind$sprintf DD 041601H
	DD	070125216H
	DD	030106011H
xdata	ENDS
;	COMDAT xdata
xdata	SEGMENT
$unwind$_vsprintf_l DD 081401H
	DD	0a6414H
	DD	095414H
	DD	083414H
	DD	070105214H
xdata	ENDS
;	COMDAT xdata
xdata	SEGMENT
$unwind$_vsnprintf_l DD 081401H
	DD	0a6414H
	DD	095414H
	DD	083414H
	DD	070105214H
xdata	ENDS
;	COMDAT xdata
xdata	SEGMENT
$unwind$printf DD 041b01H
	DD	07017521bH
	DD	030156016H
xdata	ENDS
;	COMDAT xdata
xdata	SEGMENT
$unwind$_vfprintf_l DD 081401H
	DD	0a6414H
	DD	095414H
	DD	083414H
	DD	070105214H
xdata	ENDS
; Function compile flags: /Ogtpy
; File d:\hjwasm\hjwasm2.13.1s\hjwasm2.13.1s\assemble.c
;	COMDAT AssembleFini
_TEXT	SEGMENT
AssembleFini PROC					; COMDAT

; 1400 : {

	sub	rsp, 40					; 00000028H

; 1401 :     int i;
; 1402 :     SegmentFini();

	call	SegmentFini

; 1403 :     SymFini();

	call	SymFini

; 1404 :     ResWordsFini();

	call	ResWordsFini

; 1405 : #ifdef DEBUG_OUT
; 1406 :     DumpInstrStats();
; 1407 :     MacroFini();
; 1408 : #endif
; 1409 :     FreePubQueue();

	call	FreePubQueue

; 1410 : #if FASTMEM==0
; 1411 :     FreeLibQueue();
; 1412 :     ContextFini();
; 1413 :     HllFini();
; 1414 : #endif
; 1415 :     InputFini();

	call	InputFini

; 1416 :     close_files();

	call	close_files
	xorps	xmm0, xmm0
	xorps	xmm1, xmm1
	movdqu	XMMWORD PTR ModuleInfo+128, xmm0
	movdqu	XMMWORD PTR ModuleInfo+144, xmm1

; 1430 :     return;
; 1431 : }

	add	rsp, 40					; 00000028H

; 1417 : 
; 1418 : #if FASTPASS
; 1419 : #if FASTMEM==0
; 1420 :     FreeLineStore();
; 1421 : #endif
; 1422 : #endif
; 1423 : 
; 1424 :     for ( i = 0; i < NUM_FILE_TYPES; i++ ) {
; 1425 :         LclFree( CurrFName[i] );
; 1426 :         /* v2.05: make sure the pointer for ERR is cleared */
; 1427 :         CurrFName[i] = NULL;
; 1428 :     }
; 1429 :     MemFini();

	jmp	MemFini
AssembleFini ENDP
_TEXT	ENDS
; Function compile flags: /Ogtpy
; File d:\hjwasm\hjwasm2.13.1s\hjwasm2.13.1s\assemble.c
;	COMDAT AssembleInit
_TEXT	SEGMENT
source$ = 48
AssembleInit PROC					; COMDAT

; 1360 : {

	push	rbx
	sub	rsp, 32					; 00000020H
	mov	rbx, rcx

; 1361 :     DebugMsg(("AssembleInit(\"%s\") enter\n", source ));
; 1362 : 
; 1363 :     MemInit();

	call	MemInit

; 1364 :     //start_label   = NULL;
; 1365 :     //start_displ   = 0;
; 1366 :     write_to_file = FALSE;
; 1367 :     //GeneratedCode = 0;
; 1368 :     LinnumQueue.head = NULL;
; 1369 : 
; 1370 :     SetFilenames( source );

	mov	rcx, rbx
	mov	BYTE PTR write_to_file, 0
	mov	QWORD PTR LinnumQueue, 0
	call	SetFilenames

; 1371 : 
; 1372 : #if FASTPASS
; 1373 :     FastpassInit();

	call	FastpassInit

; 1374 : #endif
; 1375 :     open_files();

	call	open_files

; 1376 : #if BUILD_TARGET
; 1377 :     get_os_include();
; 1378 : #endif
; 1379 :     ReswTableInit();

	call	ResWordsInit
	cmp	DWORD PTR Options+144, 1
	jne	SHORT $LN4@AssembleIn
	mov	ecx, 233				; 000000e9H
	call	DisableKeyword
	mov	ecx, 243				; 000000f3H
	call	DisableKeyword
$LN4@AssembleIn:
	cmp	BYTE PTR Options+127, 1
	jne	SHORT $LN5@AssembleIn
	mov	ecx, 448				; 000001c0H
	call	DisableKeyword
	mov	ecx, 270				; 0000010eH
	call	DisableKeyword
$LN5@AssembleIn:

; 1380 :     SymInit();

	call	SymInit

; 1381 :     InputInit();

	call	InputInit

; 1382 : 
; 1383 :     ModuleInit();

	call	ModuleInit

; 1384 :     CondInit();

	call	CondInit

; 1385 :     ExprEvalInit();

	call	ExprEvalInit

; 1387 : 
; 1388 :     DebugMsg(("AssembleInit() exit\n"));
; 1389 :     return;
; 1390 : }

	add	rsp, 32					; 00000020H
	pop	rbx

; 1386 :     LstInit();

	jmp	LstInit
AssembleInit ENDP
_TEXT	ENDS
; Function compile flags: /Ogtpy
; File d:\hjwasm\hjwasm2.13.1s\hjwasm2.13.1s\assemble.c
;	COMDAT SetFilenames
_TEXT	SEGMENT
path$ = 32
name$ = 320
SetFilenames PROC					; COMDAT

; 1312 : {

	mov	QWORD PTR [rsp+8], rbx
	mov	QWORD PTR [rsp+16], rbp
	mov	QWORD PTR [rsp+24], rsi
	mov	QWORD PTR [rsp+32], rdi
	push	r14
	sub	rsp, 304				; 00000130H
	mov	rbx, rcx

; 1313 :     int i;
; 1314 :     const char *fn;
; 1315 :     char *ext;
; 1316 :     char path[ FILENAME_MAX ];
; 1317 : 
; 1318 :     DebugMsg(("SetFilenames(\"%s\") enter\n", name ));
; 1319 : 
; 1320 :     /* set CurrFName[ASM] */
; 1321 :     CurrFName[ASM] = LclAlloc( strlen( name ) + 1 );

	or	rcx, -1
$LL70@SetFilenam:
	inc	rcx
	cmp	BYTE PTR [rbx+rcx], 0
	jne	SHORT $LL70@SetFilenam
	inc	rcx
	call	LclAlloc
	mov	QWORD PTR ModuleInfo+128, rax

; 1322 :     strcpy( CurrFName[ASM], name );

	mov	rdx, rbx
	npad	1
$LL11@SetFilenam:
	movzx	ecx, BYTE PTR [rdx]
	lea	rdx, QWORD PTR [rdx+1]
	mov	BYTE PTR [rax], cl
	lea	rax, QWORD PTR [rax+1]
	test	cl, cl
	jne	SHORT $LL11@SetFilenam

; 1323 : 
; 1324 :     /* set [OBJ], [ERR], [LST] */
; 1325 :     fn = GetFNamePart( name );

	mov	rcx, rbx
	call	GetFNamePart
	mov	rdi, rax

; 1326 :     for ( i = ASM+1; i < NUM_FILE_TYPES; i++ ) {

	lea	rbp, OFFSET FLAT:__ImageBase
	xor	esi, esi
	lea	r14, OFFSET FLAT:$SG12075
	mov	ebx, 1
$LL4@SetFilenam:

; 1327 :         if( Options.names[i] == NULL ) {

	mov	rcx, QWORD PTR Options[rsi+rbp+24]
	test	rcx, rcx
	jne	$LN5@SetFilenam

; 1328 :             path[0] = NULLC;

	mov	BYTE PTR path$[rsp], cl
	mov	rcx, QWORD PTR DefaultDir[rsi+rbp+8]

; 1329 :             if ( DefaultDir[i])

	test	rcx, rcx
	je	SHORT $LN7@SetFilenam

; 1330 :                 strcpy( path, DefaultDir[i] );

	lea	rdx, QWORD PTR path$[rsp]
	sub	rdx, rcx
	npad	5
$LL12@SetFilenam:
	movzx	eax, BYTE PTR [rcx]
	mov	BYTE PTR [rdx+rcx], al
	lea	rcx, QWORD PTR [rcx+1]
	test	al, al
	jne	SHORT $LL12@SetFilenam
$LN7@SetFilenam:

; 1331 :             strcat( path, fn );

	lea	rcx, QWORD PTR path$[rsp]
	dec	rcx
$LL68@SetFilenam:
	cmp	BYTE PTR [rcx+1], 0
	lea	rcx, QWORD PTR [rcx+1]
	jne	SHORT $LL68@SetFilenam
	xor	edx, edx
	npad	14
$LL69@SetFilenam:
	movzx	eax, BYTE PTR [rdi+rdx]
	mov	BYTE PTR [rcx+rdx], al
	lea	rdx, QWORD PTR [rdx+1]
	test	al, al
	jne	SHORT $LL69@SetFilenam

; 1332 :             ext = GetExtPart( path );

	lea	rcx, QWORD PTR path$[rsp]
	call	GetExtPart

; 1333 :             *ext++  = '.';

	mov	BYTE PTR [rax], 46			; 0000002eH
	lea	rdx, QWORD PTR [rax+1]

; 1334 :             strcpy( ext, GetExt( i ) );

	mov	eax, ebx
	sub	eax, 1
	je	SHORT $LN21@SetFilenam
	sub	eax, 1
	je	SHORT $LN26@SetFilenam
	cmp	eax, 1
	je	SHORT $LN27@SetFilenam
	xor	ecx, ecx
	jmp	SHORT $LN18@SetFilenam
$LN27@SetFilenam:
	lea	rcx, OFFSET FLAT:$SG12081
	jmp	SHORT $LN18@SetFilenam
$LN26@SetFilenam:
	lea	rcx, OFFSET FLAT:$SG12079
	jmp	SHORT $LN18@SetFilenam
$LN21@SetFilenam:
	cmp	DWORD PTR Options+144, 0
	jne	SHORT $LN24@SetFilenam
	mov	eax, DWORD PTR Options+148
	lea	rcx, OFFSET FLAT:$SG12076
	dec	eax
	cmp	eax, 1
	cmovbe	rcx, r14
	jmp	SHORT $LN18@SetFilenam
$LN24@SetFilenam:
	lea	rcx, OFFSET FLAT:$SG12077
$LN18@SetFilenam:
	sub	rdx, rcx
$LL13@SetFilenam:
	movzx	eax, BYTE PTR [rcx]
	mov	BYTE PTR [rdx+rcx], al
	lea	rcx, QWORD PTR [rcx+1]
	test	al, al
	jne	SHORT $LL13@SetFilenam

; 1335 : 
; 1336 :         } else {

	jmp	$LN9@SetFilenam
$LN5@SetFilenam:

; 1337 :             /* filename has been set by cmdline option -Fo, -Fl or -Fr */
; 1338 :             const char *fn2;
; 1339 :             strcpy( path, Options.names[i] );

	lea	rdx, QWORD PTR path$[rsp]
	sub	rdx, rcx
	npad	3
$LL14@SetFilenam:
	movzx	eax, BYTE PTR [rcx]
	mov	BYTE PTR [rdx+rcx], al
	lea	rcx, QWORD PTR [rcx+1]
	test	al, al
	jne	SHORT $LL14@SetFilenam

; 1340 :             fn2 = GetFNamePart( path );

	lea	rcx, QWORD PTR path$[rsp]
	call	GetFNamePart

; 1341 :             if( *fn2 == NULLC )

	cmp	BYTE PTR [rax], 0
	jne	SHORT $LN8@SetFilenam

; 1342 :                 strcpy( (char *)fn2, fn );

	mov	r8, rax
	mov	rdx, rdi
	sub	r8, rdi
	npad	10
$LL15@SetFilenam:
	movzx	ecx, BYTE PTR [rdx]
	mov	BYTE PTR [r8+rdx], cl
	lea	rdx, QWORD PTR [rdx+1]
	test	cl, cl
	jne	SHORT $LL15@SetFilenam
$LN8@SetFilenam:

; 1343 :             ext = GetExtPart( fn2 );

	mov	rcx, rax
	call	GetExtPart
	mov	rdx, rax

; 1344 :             if( *ext == NULLC ) {

	cmp	BYTE PTR [rax], 0
	jne	SHORT $LN9@SetFilenam

; 1345 :                 *ext++  = '.';

	mov	BYTE PTR [rax], 46			; 0000002eH
	inc	rdx

; 1346 :                 strcpy( ext, GetExt( i ) );

	mov	eax, ebx
	sub	eax, 1
	je	SHORT $LN32@SetFilenam
	sub	eax, 1
	je	SHORT $LN37@SetFilenam
	cmp	eax, 1
	je	SHORT $LN38@SetFilenam
	xor	eax, eax
	jmp	SHORT $LN29@SetFilenam
$LN38@SetFilenam:
	lea	rax, OFFSET FLAT:$SG12081
	jmp	SHORT $LN29@SetFilenam
$LN37@SetFilenam:
	lea	rax, OFFSET FLAT:$SG12079
	jmp	SHORT $LN29@SetFilenam
$LN32@SetFilenam:
	cmp	DWORD PTR Options+144, 0
	jne	SHORT $LN35@SetFilenam
	mov	ecx, DWORD PTR Options+148
	lea	rax, OFFSET FLAT:$SG12076
	dec	ecx
	cmp	ecx, 1
	cmovbe	rax, r14
	jmp	SHORT $LN29@SetFilenam
$LN35@SetFilenam:
	lea	rax, OFFSET FLAT:$SG12077
$LN29@SetFilenam:
	sub	rdx, rax
	npad	9
$LL16@SetFilenam:
	movzx	ecx, BYTE PTR [rax]
	mov	BYTE PTR [rdx+rax], cl
	lea	rax, QWORD PTR [rax+1]
	test	cl, cl
	jne	SHORT $LL16@SetFilenam
$LN9@SetFilenam:

; 1347 :             }
; 1348 :         }
; 1349 :         DebugMsg(("SetFilenames: i=%u >%s<\n", i, path ));
; 1350 :         CurrFName[i] = LclAlloc( strlen( path ) + 1 );

	lea	rax, QWORD PTR path$[rsp]
	or	rcx, -1
$LL67@SetFilenam:
	inc	rcx
	cmp	BYTE PTR [rax+rcx], 0
	jne	SHORT $LL67@SetFilenam
	inc	rcx
	call	LclAlloc
	mov	QWORD PTR ModuleInfo[rsi+rbp+136], rax

; 1351 :         strcpy( CurrFName[i], path );

	lea	rdx, QWORD PTR path$[rsp]
	npad	11
$LL17@SetFilenam:
	movzx	ecx, BYTE PTR [rdx]
	lea	rdx, QWORD PTR [rdx+1]
	mov	BYTE PTR [rax], cl
	lea	rax, QWORD PTR [rax+1]
	test	cl, cl
	jne	SHORT $LL17@SetFilenam

; 1326 :     for ( i = ASM+1; i < NUM_FILE_TYPES; i++ ) {

	inc	ebx
	add	rsi, 8
	cmp	ebx, 4
	jl	$LL4@SetFilenam

; 1352 :     }
; 1353 :     return;
; 1354 : }

	lea	r11, QWORD PTR [rsp+304]
	mov	rbx, QWORD PTR [r11+16]
	mov	rbp, QWORD PTR [r11+24]
	mov	rsi, QWORD PTR [r11+32]
	mov	rdi, QWORD PTR [r11+40]
	mov	rsp, r11
	pop	r14
	ret	0
SetFilenames ENDP
_TEXT	ENDS
; Function compile flags: /Ogtpy
; File d:\hjwasm\hjwasm2.13.1s\hjwasm2.13.1s\assemble.c
;	COMDAT GetExt
_TEXT	SEGMENT
type$ = 8
GetExt	PROC						; COMDAT

; 1277 :     switch ( type ) {

	sub	ecx, 1
	je	SHORT $LN4@GetExt
	sub	ecx, 1
	je	SHORT $LN9@GetExt
	cmp	ecx, 1
	je	SHORT $LN10@GetExt

; 1297 :     }
; 1298 :     return( NULL );

	xor	eax, eax

; 1299 : }

	ret	0
$LN10@GetExt:

; 1295 :     case ERR:
; 1296 :         return( ERR_EXT );

	lea	rax, OFFSET FLAT:$SG12081

; 1299 : }

	ret	0
$LN9@GetExt:

; 1293 :     case LST:
; 1294 :         return( LST_EXT );

	lea	rax, OFFSET FLAT:$SG12079

; 1299 : }

	ret	0
$LN4@GetExt:

; 1278 :     case OBJ:
; 1279 : #if BIN_SUPPORT
; 1280 :         if ( Options.output_format == OFORMAT_BIN )

	cmp	DWORD PTR Options+144, 0
	jne	SHORT $LN7@GetExt
	mov	eax, DWORD PTR Options+148
	dec	eax
	cmp	eax, 1
	jbe	SHORT $LN8@GetExt

; 1288 :             else
; 1289 : #endif
; 1290 :                 return( BIN_EXT );

	lea	rax, OFFSET FLAT:$SG12076

; 1299 : }

	ret	0
$LN8@GetExt:

; 1281 : #if MZ_SUPPORT || PE_SUPPORT
; 1282 :             if ( Options.sub_format == SFORMAT_MZ
; 1283 : #if PE_SUPPORT
; 1284 :                 || Options.sub_format == SFORMAT_PE
; 1285 : #endif
; 1286 :                )
; 1287 :                 return( EXE_EXT );

	lea	rax, OFFSET FLAT:$SG12075

; 1299 : }

	ret	0
$LN7@GetExt:

; 1291 : #endif
; 1292 :         return( OBJ_EXT );

	lea	rax, OFFSET FLAT:$SG12077

; 1299 : }

	ret	0
GetExt	ENDP
_TEXT	ENDS
; Function compile flags: /Ogtpy
; File d:\hjwasm\hjwasm2.13.1s\hjwasm2.13.1s\assemble.c
;	COMDAT open_files
_TEXT	SEGMENT
open_files PROC						; COMDAT

; 1200 : {

	sub	rsp, 40					; 00000028H

; 1201 :     /* open ASM file */
; 1202 :     DebugMsg(("open_files() enter\n" ));
; 1203 : 
; 1204 :     //memset( CurrFile, 0, sizeof( CurrFile ) );
; 1205 :     /* CurrFile[ASM] = fopen( CurrFName[ASM], "r" ); */
; 1206 :     CurrFile[ASM] = fopen( CurrFName[ASM], "rb" );

	mov	rcx, QWORD PTR ModuleInfo+128
	lea	rdx, OFFSET FLAT:$SG12036
	call	fopen
	mov	QWORD PTR ModuleInfo+96, rax

; 1207 :     if( CurrFile[ASM] == NULL ) {

	test	rax, rax
	jne	SHORT $LN2@open_files

; 1208 :         DebugMsg(("open_files(): cannot open source file, fopen(\"%s\") failed\n", CurrFName[ASM] ));
; 1209 :         Fatal( CANNOT_OPEN_FILE, CurrFName[ASM], ErrnoStr() );

	call	ErrnoStr
	mov	rdx, QWORD PTR ModuleInfo+128
	mov	r8, rax
	mov	ecx, 106				; 0000006aH
	call	Fatal
$LN2@open_files:

; 1210 :     }
; 1211 : 
; 1212 :     /* open OBJ file */
; 1213 :     if ( Options.syntax_check_only == FALSE ) {

	cmp	BYTE PTR Options+172, 0
	jne	SHORT $LN4@open_files

; 1214 :         CurrFile[OBJ] = fopen( CurrFName[OBJ], "wb" );

	mov	rcx, QWORD PTR ModuleInfo+136
	lea	rdx, OFFSET FLAT:$SG12039
	call	fopen
	mov	QWORD PTR ModuleInfo+104, rax

; 1215 :         if( CurrFile[OBJ] == NULL ) {

	test	rax, rax
	jne	SHORT $LN4@open_files

; 1216 :             DebugMsg(("open_files(): cannot open object file, fopen(\"%s\") failed\n", CurrFName[OBJ] ));
; 1217 :             Fatal( CANNOT_OPEN_FILE, CurrFName[OBJ], ErrnoStr() );

	call	ErrnoStr
	mov	rdx, QWORD PTR ModuleInfo+136
	mov	r8, rax
	mov	ecx, 106				; 0000006aH
	call	Fatal
$LN4@open_files:

; 1218 :         }
; 1219 :         DebugMsg(("open_files(): output, fopen(\"%s\") ok\n", CurrFName[OBJ] ));
; 1220 :     }
; 1221 : 
; 1222 :     if( Options.write_listing ) {

	cmp	BYTE PTR Options+121, 0
	je	SHORT $LN6@open_files

; 1223 :         CurrFile[LST] = fopen( CurrFName[LST], "wb" );

	mov	rcx, QWORD PTR ModuleInfo+144
	lea	rdx, OFFSET FLAT:$SG12042
	call	fopen
	mov	QWORD PTR ModuleInfo+112, rax

; 1224 :         if ( CurrFile[LST] == NULL )

	test	rax, rax
	jne	SHORT $LN6@open_files

; 1225 :             Fatal( CANNOT_OPEN_FILE, CurrFName[LST], ErrnoStr() );

	call	ErrnoStr
	mov	rdx, QWORD PTR ModuleInfo+144
	mov	r8, rax
	mov	ecx, 106				; 0000006aH

; 1226 :     }
; 1227 :     return;
; 1228 : }

	add	rsp, 40					; 00000028H

; 1225 :             Fatal( CANNOT_OPEN_FILE, CurrFName[LST], ErrnoStr() );

	jmp	Fatal
$LN6@open_files:

; 1226 :     }
; 1227 :     return;
; 1228 : }

	add	rsp, 40					; 00000028H
	ret	0
open_files ENDP
_TEXT	ENDS
; Function compile flags: /Ogtpy
; File d:\hjwasm\hjwasm2.13.1s\hjwasm2.13.1s\assemble.c
;	COMDAT ReswTableInit
_TEXT	SEGMENT
ReswTableInit PROC					; COMDAT

; 1176 : {

	sub	rsp, 40					; 00000028H

; 1177 :     ResWordsInit();

	call	ResWordsInit

; 1178 :     if ( Options.output_format == OFORMAT_OMF ) {

	cmp	DWORD PTR Options+144, 1
	jne	SHORT $LN2@ReswTableI

; 1179 :         /* DebugMsg(("InitAsm: disable IMAGEREL+SECTIONREL\n")); */
; 1180 :         /* for OMF, IMAGEREL and SECTIONREL are disabled */
; 1181 : #if IMAGERELSUPP
; 1182 :         DisableKeyword( T_IMAGEREL );

	mov	ecx, 233				; 000000e9H
	call	DisableKeyword

; 1183 : #endif
; 1184 : #if SECTIONRELSUPP
; 1185 :         DisableKeyword( T_SECTIONREL );

	mov	ecx, 243				; 000000f3H
	call	DisableKeyword
$LN2@ReswTableI:

; 1186 : #endif
; 1187 :     }
; 1188 : 
; 1189 :     if ( Options.strict_masm_compat == TRUE ) {

	cmp	BYTE PTR Options+127, 1
	jne	SHORT $LN3@ReswTableI

; 1190 :         DebugMsg(("ReswTableInit: disable INCBIN + FASTCALL keywords\n"));
; 1191 :         DisableKeyword( T_INCBIN );

	mov	ecx, 448				; 000001c0H
	call	DisableKeyword

; 1192 :         DisableKeyword( T_FASTCALL );

	mov	ecx, 270				; 0000010eH

; 1193 :     }
; 1194 : 
; 1195 :     return;
; 1196 : }

	add	rsp, 40					; 00000028H

; 1192 :         DisableKeyword( T_FASTCALL );

	jmp	DisableKeyword
$LN3@ReswTableI:

; 1193 :     }
; 1194 : 
; 1195 :     return;
; 1196 : }

	add	rsp, 40					; 00000028H
	ret	0
ReswTableInit ENDP
_TEXT	ENDS
; Function compile flags: /Ogtpy
; File d:\hjwasm\hjwasm2.13.1s\hjwasm2.13.1s\assemble.c
;	COMDAT ModuleInit
_TEXT	SEGMENT
ModuleInit PROC						; COMDAT

; 1150 : {

	sub	rsp, 40					; 00000028H

; 1151 :     ModuleInfo.sub_format = Options.sub_format;

	mov	eax, DWORD PTR Options+148

; 1152 :     ModuleInfo.fmtopt = &formatoptions[Options.output_format];

	lea	rdx, OFFSET FLAT:formatoptions
	movsxd	rcx, DWORD PTR Options+144
	mov	DWORD PTR ModuleInfo+372, eax
	mov	rax, rcx
	shl	rax, 4
	add	rax, rdx
	mov	QWORD PTR ModuleInfo+344, rax

; 1153 :     ModuleInfo.CommentDataInCode = (Options.output_format == OFORMAT_OMF &&

	cmp	ecx, 1
	jne	SHORT $LN3@ModuleInit
	cmp	BYTE PTR Options+112, 0
	mov	BYTE PTR ModuleInfo+423, cl
	je	SHORT $LN4@ModuleInit
$LN3@ModuleInit:
	mov	BYTE PTR ModuleInfo+423, 0
$LN4@ModuleInit:

; 1154 :                          Options.no_comment_data_in_code_records == FALSE);
; 1155 :     ModuleInfo.g.error_count = 0;
; 1156 :     ModuleInfo.g.warning_count = 0;
; 1157 :     ModuleInfo.model = MODEL_NONE;
; 1158 :     /* ModuleInfo.distance = STACK_NONE; */
; 1159 :     ModuleInfo.ostype = OPSYS_DOS;
; 1160 :     ModuleInfo.emulator = (Options.floating_point == FPO_EMULATION);

	mov	eax, DWORD PTR ModuleInfo+408
	xor	ecx, ecx
	cmp	DWORD PTR Options+4, 1
	mov	QWORD PTR ModuleInfo, rcx
	mov	DWORD PTR ModuleInfo+360, ecx
	mov	DWORD PTR ModuleInfo+368, ecx
	sete	cl
	shl	ecx, 9
	xor	ecx, eax
	and	ecx, 512				; 00000200H
	xor	eax, ecx
	mov	DWORD PTR ModuleInfo+408, eax

; 1161 :     //ModuleInfo.flatgrp_idx = 0;
; 1162 : 
; 1163 :     get_module_name(); /* set ModuleInfo.name */

	call	get_module_name

; 1164 : 
; 1165 :     /* v2.06: ST_PROC has been removed */
; 1166 :     //SimpleType[ST_PROC].mem_type = MT_NEAR;
; 1167 : 
; 1168 :     memset( SymTables, 0, sizeof( SymTables[0] ) * TAB_LAST );

	xor	edx, edx
	lea	rcx, OFFSET FLAT:SymTables
	lea	r8d, QWORD PTR [rdx+96]
	call	memset

; 1169 :     ModuleInfo.fmtopt->init( &ModuleInfo );

	mov	rax, QWORD PTR ModuleInfo+344
	lea	rcx, OFFSET FLAT:ModuleInfo

; 1170 : 
; 1171 :     return;
; 1172 : }

	add	rsp, 40					; 00000028H

; 1169 :     ModuleInfo.fmtopt->init( &ModuleInfo );

	rex_jmp	QWORD PTR [rax]
ModuleInit ENDP
_TEXT	ENDS
; Function compile flags: /Ogtpy
; File d:\hjwasm\hjwasm2.13.1s\hjwasm2.13.1s\assemble.c
;	COMDAT get_module_name
_TEXT	SEGMENT
get_module_name PROC					; COMDAT

; 1111 : {

	mov	QWORD PTR [rsp+8], rbx
	push	rdi
	sub	rsp, 32					; 00000020H

; 1112 :     //char dummy[_MAX_EXT];
; 1113 :     char        *p;
; 1114 : 
; 1115 :     /* v2.08: prefer name given by -nm option */
; 1116 :     if ( Options.names[OPTN_MODULE_NAME] ) {

	mov	rdx, QWORD PTR Options+56
	test	rdx, rdx
	je	SHORT $LN5@get_module

; 1117 :         strncpy( ModuleInfo.name, Options.names[OPTN_MODULE_NAME], sizeof( ModuleInfo.name ) );

	lea	rbx, OFFSET FLAT:ModuleInfo+512
	mov	r8d, 260				; 00000104H
	mov	rcx, rbx
	call	strncpy

; 1118 :         ModuleInfo.name[ sizeof( ModuleInfo.name ) - 1] = NULLC;

	mov	BYTE PTR ModuleInfo+771, 0

; 1119 :     } else {

	jmp	SHORT $LN6@get_module
$LN5@get_module:

; 1120 :         /* v2.12: _splitpath()/_makepath() removed */
; 1121 :         const char *fn = GetFNamePart( CurrFName[ASM] );

	mov	rcx, QWORD PTR ModuleInfo+128
	call	GetFNamePart

; 1122 :         char *ext = GetExtPart( fn );

	mov	rcx, rax
	mov	rbx, rax
	call	GetExtPart
	mov	rdi, rax

; 1123 :         memcpy( ModuleInfo.name, fn, ext - fn );

	mov	rdx, rbx
	sub	rdi, rbx
	lea	rbx, OFFSET FLAT:ModuleInfo+512
	mov	rcx, rbx
	mov	r8, rdi
	call	memcpy

; 1124 :         ModuleInfo.name[ ext - fn ] = NULLC;

	mov	BYTE PTR [rdi+rbx], 0
$LN6@get_module:

; 1125 :         //_splitpath( CurrFName[ASM], NULL, NULL, ModuleInfo.name, dummy );
; 1126 :     }
; 1127 : 
; 1128 :     _strupr( ModuleInfo.name );

	mov	rcx, rbx
	call	_strupr

; 1129 :     /* the module name must be a valid identifier, because it's used
; 1130 :      * as part of a segment name in certain memory models.
; 1131 :      */
; 1132 :     for( p = ModuleInfo.name; *p; ++p ) {

	movzx	eax, BYTE PTR ModuleInfo+512
	test	al, al
	je	SHORT $LN3@get_module
	mov	rdi, 576460752706076673			; 0800000018000001H
$LL4@get_module:

; 1133 :         if( !( isalnum( *p ) || ( *p == '_' ) || ( *p == '$' )

	movsx	ecx, BYTE PTR [rbx]
	call	isalnum
	test	eax, eax
	jne	SHORT $LN2@get_module
	movzx	eax, BYTE PTR [rbx]
	sub	al, 36					; 00000024H
	cmp	al, 59					; 0000003bH
	ja	SHORT $LN14@get_module
	movsx	rax, al
	bt	rdi, rax
	jb	SHORT $LN2@get_module
$LN14@get_module:

; 1134 :             || ( *p == '@' ) || ( *p == '?') ) ) {
; 1135 :             /* it's not a legal character for a symbol name */
; 1136 :             *p = '_';

	mov	BYTE PTR [rbx], 95			; 0000005fH
$LN2@get_module:

; 1129 :     /* the module name must be a valid identifier, because it's used
; 1130 :      * as part of a segment name in certain memory models.
; 1131 :      */
; 1132 :     for( p = ModuleInfo.name; *p; ++p ) {

	inc	rbx
	cmp	BYTE PTR [rbx], 0
	jne	SHORT $LL4@get_module
	movzx	eax, BYTE PTR ModuleInfo+512
$LN3@get_module:

; 1137 :         }
; 1138 :     }
; 1139 :     /* first character can't be a digit either */
; 1140 :     if( isdigit( ModuleInfo.name[0] ) ) {

	movsx	ecx, al
	call	isdigit
	movzx	ecx, BYTE PTR ModuleInfo+512
	test	eax, eax

; 1141 :         ModuleInfo.name[0] = '_';
; 1142 :     }
; 1143 : }

	mov	rbx, QWORD PTR [rsp+48]
	mov	edx, 95					; 0000005fH
	cmovne	ecx, edx
	mov	BYTE PTR ModuleInfo+512, cl
	add	rsp, 32					; 00000020H
	pop	rdi
	ret	0
get_module_name ENDP
_TEXT	ENDS
; Function compile flags: /Ogtpy
; File d:\hjwasm\hjwasm2.13.1s\hjwasm2.13.1s\assemble.c
;	COMDAT OnePass
_TEXT	SEGMENT
OnePass	PROC						; COMDAT

; 1001 : {

	sub	rsp, 40					; 00000028H
	mov	QWORD PTR [rsp+32], rbx

; 1002 : 
; 1003 :     InputPassInit();

	call	InputPassInit

; 1004 :     ModulePassInit();

	call	ModulePassInit

; 1005 :     SymPassInit( Parse_Pass );

	mov	ecx, DWORD PTR Parse_Pass
	call	SymPassInit

; 1006 :     LabelInit();

	call	LabelInit

; 1007 :     SegmentInit( Parse_Pass );

	mov	ecx, DWORD PTR Parse_Pass
	call	SegmentInit

; 1008 :     ContextInit( Parse_Pass );

	mov	ecx, DWORD PTR Parse_Pass
	call	ContextInit

; 1009 :     ProcInit();

	call	ProcInit

; 1010 :     TypesInit();

	call	TypesInit

; 1011 :     HllInit( Parse_Pass );

	mov	ecx, DWORD PTR Parse_Pass
	call	HllInit

; 1012 :     MacroInit( Parse_Pass ); /* insert predefined macros */

	mov	ecx, DWORD PTR Parse_Pass
	call	MacroInit

; 1013 :     AssumeInit( Parse_Pass );

	mov	ecx, DWORD PTR Parse_Pass
	call	AssumeInit

; 1014 :     CmdlParamsInit( Parse_Pass );

	cmp	DWORD PTR Parse_Pass, 0
	jne	SHORT $LN17@OnePass
	call	add_cmdline_tmacros
	mov	rbx, QWORD PTR Options+104
	test	rbx, rbx
	je	SHORT $LN21@OnePass
	npad	2
$LL22@OnePass:
	lea	rcx, QWORD PTR [rbx+8]
	call	AddStringToIncludePath
	mov	rbx, QWORD PTR [rbx]
	test	rbx, rbx
	jne	SHORT $LL22@OnePass
$LN21@OnePass:
	cmp	BYTE PTR Options+140, 0
	jne	SHORT $LN17@OnePass
	lea	rcx, OFFSET FLAT:$SG11898
	call	getenv
	test	rax, rax
	je	SHORT $LN17@OnePass
	mov	rcx, rax
	call	AddStringToIncludePath
$LN17@OnePass:

; 1015 : 
; 1016 :     ModuleInfo.EndDirFound = FALSE;

	and	DWORD PTR ModuleInfo+408, -65537	; fffeffffH

; 1017 :     ModuleInfo.PhaseError = FALSE;

	mov	BYTE PTR ModuleInfo+422, 0

; 1018 :     //Modend = FALSE;
; 1019 :     /* LineNumber = 0; */
; 1020 :     LinnumInit();

	call	LinnumInit

; 1021 : 
; 1022 : #ifdef DEBUG_OUT
; 1023 :     if ( Parse_Pass > PASS_1 ) {
; 1024 :         DebugMsg(("OnePass(%u) segments (current=%s):\n", Parse_Pass + 1, CurrSeg ? CurrSeg->sym.name : "NULL" ));
; 1025 :         {
; 1026 :             struct dsym *dir;
; 1027 :             for( dir = SymTables[TAB_SEG].head; dir; dir = dir->next ) {
; 1028 :                 DebugMsg(("OnePass(%u): segm=%-8s typ=%X start=%8X max_ofs=%8X\n", Parse_Pass + 1,
; 1029 :                           dir->sym.name, dir->e.seginfo->segtype, dir->e.seginfo->start_loc, dir->sym.max_offset ));
; 1030 :             }
; 1031 :         }
; 1032 :     }
; 1033 : #endif
; 1034 :     /* the functions above might have written something to the line queue */
; 1035 :     if ( is_linequeue_populated() )

	cmp	QWORD PTR ModuleInfo+184, 0
	je	SHORT $LN7@OnePass

; 1036 :         RunLineQueue();

	call	RunLineQueue
$LN7@OnePass:

; 1037 : #if FASTPASS
; 1038 :     StoreState = FALSE;
; 1039 :     if ( Parse_Pass > PASS_1 && UseSavedState == TRUE ) {

	cmp	DWORD PTR Parse_Pass, 0
	mov	BYTE PTR StoreState, 0
	jbe	$LN8@OnePass
	cmp	BYTE PTR UseSavedState, 1
	jne	$LN8@OnePass

; 1040 :         LineStoreCurr = RestoreState();

	call	RestoreState
	mov	QWORD PTR LineStoreCurr, rax

; 1041 :         while ( LineStoreCurr && ModuleInfo.EndDirFound == FALSE ) {

	test	rax, rax
	je	$LN9@OnePass
	xor	ebx, ebx
$LL2@OnePass:
	test	BYTE PTR ModuleInfo+410, 1
	jne	$LN9@OnePass

; 1042 :             /* the source line is modified in Tokenize() if it contains a comment! */
; 1043 : #if USELSLINE==0
; 1044 :             strcpy( CurrSource, LineStoreCurr->line );
; 1045 : #endif
; 1046 :             set_curr_srcfile( LineStoreCurr->srcfile, LineStoreCurr->lineno );

	mov	ecx, DWORD PTR [rax+8]
	mov	edx, ecx
	and	edx, 1048575				; 000fffffH
	shr	ecx, 20
	call	set_curr_srcfile

; 1047 :             /* v2.06: list flags now initialized on the top level */
; 1048 :             ModuleInfo.line_flags = 0;
; 1049 :             MacroLevel = ( LineStoreCurr->srcfile == 0xFFF ? 1 : 0 );

	mov	rcx, QWORD PTR LineStoreCurr

; 1050 :             DebugMsg1(("OnePass(%u) cur/nxt=%X/%X src=%X.%u mlvl=%u: >%s<\n", Parse_Pass+1, LineStoreCurr, LineStoreCurr->next, LineStoreCurr->srcfile, LineStoreCurr->lineno, MacroLevel, LineStoreCurr->line ));
; 1051 :             ModuleInfo.CurrComment = NULL; /* v2.08: added (var is never reset because GetTextLine() isn't called) */
; 1052 : #if USELSLINE
; 1053 :             if ( Token_Count = Tokenize( LineStoreCurr->line, 0, ModuleInfo.tokenarray, TOK_DEFAULT ) )

	mov	r8, QWORD PTR ModuleInfo+480
	mov	BYTE PTR ModuleInfo+398, bl
	mov	eax, DWORD PTR [rcx+8]
	and	eax, -1048576				; fff00000H
	mov	QWORD PTR ModuleInfo+472, rbx
	cmp	eax, -1048576				; fff00000H
	sete	BYTE PTR MacroLevel
	add	rcx, 16
	xor	r9d, r9d
	xor	edx, edx
	call	Tokenize
	mov	DWORD PTR ModuleInfo+496, eax
	test	eax, eax
	je	SHORT $LN10@OnePass

; 1054 : #else
; 1055 :             if ( Token_Count = Tokenize( CurrSource, 0, ModuleInfo.tokenarray, TOK_DEFAULT ) )
; 1056 : #endif
; 1057 :                 ParseLine( ModuleInfo.tokenarray );

	mov	rcx, QWORD PTR ModuleInfo+480
	call	ParseLine
$LN10@OnePass:

; 1058 :             LineStoreCurr = LineStoreCurr->next;

	mov	rax, QWORD PTR LineStoreCurr
	mov	rax, QWORD PTR [rax]
	mov	QWORD PTR LineStoreCurr, rax
	test	rax, rax
	jne	$LL2@OnePass

; 1059 :         }
; 1060 :     } else

	jmp	SHORT $LN9@OnePass
$LN8@OnePass:

; 1061 : #endif
; 1062 :     {
; 1063 :         struct qitem *pq;
; 1064 :         /* v2.11: handle -Fi files here ( previously in CmdlParamsInit ) */
; 1065 :         for ( pq = Options.queues[OPTQ_FINCLUDE]; pq; pq = pq->next ) {

	mov	rbx, QWORD PTR Options+88
	test	rbx, rbx
	je	SHORT $LN5@OnePass
	npad	5
$LL6@OnePass:

; 1066 :             DebugMsg(("OnePass: force include of file: %s\n", pq->value ));
; 1067 :             if ( SearchFile( pq->value, TRUE ) )

	lea	rcx, QWORD PTR [rbx+8]
	mov	dl, 1
	call	SearchFile
	test	rax, rax
	je	SHORT $LN4@OnePass

; 1068 :                 ProcessFile( ModuleInfo.tokenarray );

	mov	rcx, QWORD PTR ModuleInfo+480
	call	ProcessFile
$LN4@OnePass:

; 1061 : #endif
; 1062 :     {
; 1063 :         struct qitem *pq;
; 1064 :         /* v2.11: handle -Fi files here ( previously in CmdlParamsInit ) */
; 1065 :         for ( pq = Options.queues[OPTQ_FINCLUDE]; pq; pq = pq->next ) {

	mov	rbx, QWORD PTR [rbx]
	test	rbx, rbx
	jne	SHORT $LL6@OnePass
$LN5@OnePass:

; 1069 :         }
; 1070 :         ProcessFile( ModuleInfo.tokenarray ); /* process the main source file */

	mov	rcx, QWORD PTR ModuleInfo+480
	call	ProcessFile
$LN9@OnePass:

; 1071 :     }
; 1072 : 
; 1073 :     LinnumFini();

	call	LinnumFini

; 1074 : 
; 1075 :     if ( Parse_Pass == PASS_1 )

	cmp	DWORD PTR Parse_Pass, 0
	mov	rbx, QWORD PTR [rsp+32]
	jne	SHORT $LN12@OnePass

; 1076 :         PassOneChecks();

	call	PassOneChecks
$LN12@OnePass:

; 1077 : 
; 1078 :     ClearSrcStack();

	call	ClearSrcStack

; 1079 : 
; 1080 :     return( 1 );

	mov	eax, 1

; 1081 : }

	add	rsp, 40					; 00000028H
	ret	0
OnePass	ENDP
_TEXT	ENDS
; Function compile flags: /Ogtpy
; File d:\hjwasm\hjwasm2.13.1s\hjwasm2.13.1s\assemble.c
;	COMDAT PassOneChecks
_TEXT	SEGMENT
PassOneChecks PROC					; COMDAT

; 775  : {

	sub	rsp, 40					; 00000028H

; 776  :     struct dsym *curr;
; 777  :     struct dsym *next;
; 778  :     struct qnode *q;
; 779  :     struct qnode *qn;
; 780  : #ifdef DEBUG_OUT
; 781  :     int cntUnusedExt = 0;
; 782  : #endif
; 783  : 
; 784  :     /* check for open structures and segments has been done inside the
; 785  :      * END directive handling already
; 786  :      * v2.10: now done for PROCs as well, since procedures
; 787  :      * must be closed BEFORE segments are to be closed.
; 788  :      */
; 789  :     //ProcCheckOpen();
; 790  :     HllCheckOpen();

	call	HllCheckOpen

; 791  :     CondCheckOpen();

	call	CondCheckOpen

; 792  : 
; 793  :     if( ModuleInfo.EndDirFound == FALSE )

	test	BYTE PTR ModuleInfo+410, 1
	jne	SHORT $LN17@PassOneChe

; 794  :         EmitError( END_DIRECTIVE_REQUIRED );

	mov	ecx, 99					; 00000063H
	call	EmitError
$LN17@PassOneChe:

; 795  : 
; 796  : #ifdef DEBUG_OUT
; 797  :     for ( curr = SymTables[TAB_UNDEF].head; curr; curr = curr->next ) {
; 798  :         DebugMsg(("PassOneChecks: undefined symbol %s\n", curr->sym.name ));
; 799  :     }
; 800  : #endif
; 801  :     /* v2.04: check the publics queue.
; 802  :      * - only internal symbols can be public.
; 803  :      * - weak external symbols are filtered ( since v2.11 )
; 804  :      * - anything else is an error
; 805  :      * v2.11: moved here ( from inside the "#if FASTPASS"-block )
; 806  :      * because the loop will now filter weak externals [ this
; 807  :      * was previously done in GetPublicSymbols() ]
; 808  :      */
; 809  :     for( q = ModuleInfo.g.PubQueue.head, qn = (struct qnode *)&ModuleInfo.g.PubQueue ; q; q = q->next ) {

	mov	rax, QWORD PTR ModuleInfo+16
	lea	rcx, OFFSET FLAT:ModuleInfo+16
	test	rax, rax
	je	SHORT $LN3@PassOneChe
	npad	12
$LL4@PassOneChe:

; 810  : 
; 811  :         if ( q->sym->state == SYM_INTERNAL )

	mov	r8, QWORD PTR [rax+8]
	mov	edx, DWORD PTR [r8+32]
	cmp	edx, 1
	jne	SHORT $LN18@PassOneChe

; 812  :             qn = q;

	mov	rcx, rax
	jmp	SHORT $LN2@PassOneChe
$LN18@PassOneChe:

; 813  :         else if ( q->sym->state == SYM_EXTERNAL && q->sym->weak == TRUE ) {

	cmp	edx, 2
	jne	SHORT $LN20@PassOneChe
	test	BYTE PTR [r8+47], 8
	je	SHORT $LN20@PassOneChe

; 814  :             DebugMsg(("PassOneChecks: public for weak external skipped: %s\n", q->sym->name ));
; 815  :             qn->next = q->next;

	mov	rax, QWORD PTR [rax]
	mov	QWORD PTR [rcx], rax

; 816  :             LclFree( q );
; 817  :             q = qn;

	mov	rax, rcx
$LN2@PassOneChe:

; 795  : 
; 796  : #ifdef DEBUG_OUT
; 797  :     for ( curr = SymTables[TAB_UNDEF].head; curr; curr = curr->next ) {
; 798  :         DebugMsg(("PassOneChecks: undefined symbol %s\n", curr->sym.name ));
; 799  :     }
; 800  : #endif
; 801  :     /* v2.04: check the publics queue.
; 802  :      * - only internal symbols can be public.
; 803  :      * - weak external symbols are filtered ( since v2.11 )
; 804  :      * - anything else is an error
; 805  :      * v2.11: moved here ( from inside the "#if FASTPASS"-block )
; 806  :      * because the loop will now filter weak externals [ this
; 807  :      * was previously done in GetPublicSymbols() ]
; 808  :      */
; 809  :     for( q = ModuleInfo.g.PubQueue.head, qn = (struct qnode *)&ModuleInfo.g.PubQueue ; q; q = q->next ) {

	mov	rax, QWORD PTR [rax]
	test	rax, rax
	jne	SHORT $LL4@PassOneChe

; 873  :             /* check if symbol is external or public */
; 874  :             if ( sym == NULL ||

	jmp	SHORT $LN3@PassOneChe
$LN20@PassOneChe:

; 818  :         } else {
; 819  :             DebugMsg(("PassOneChecks: invalid public attribute for %s [state=%u weak=%u]\n", q->sym->name, q->sym->state, q->sym->weak ));
; 820  : #if FASTPASS
; 821  :             SkipSavedState();

	call	SkipSavedState
$LN3@PassOneChe:

; 822  : #endif
; 823  :             break;
; 824  :         }
; 825  :     }
; 826  : #if FASTPASS
; 827  :     if ( SymTables[TAB_UNDEF].head ) {
; 828  :         /* to force a full second pass in case of missing symbols,
; 829  :          * activate the next line. It was implemented to have proper
; 830  :          * error displays if a forward reference wasn't found.
; 831  :          * However, v1.95 final won't need this anymore, because both
; 832  :          * filename + lineno for every line is known now in pass 2.
; 833  :          */
; 834  :         /* SkipSavedState(); */
; 835  :     }
; 836  : 
; 837  :     /* check if there's an undefined segment reference.
; 838  :      * This segment was an argument to a group definition then.
; 839  :      * Just do a full second pass, the GROUP directive will report
; 840  :      * the error.
; 841  :      */
; 842  :     for( curr = SymTables[TAB_SEG].head; curr; curr = curr->next ) {

	mov	rax, QWORD PTR SymTables+32
	test	rax, rax
	je	SHORT $LN6@PassOneChe
$LL7@PassOneChe:

; 843  :         if( curr->sym.segment == NULL ) {

	cmp	QWORD PTR [rax+24], 0
	je	SHORT $LN51@PassOneChe

; 822  : #endif
; 823  :             break;
; 824  :         }
; 825  :     }
; 826  : #if FASTPASS
; 827  :     if ( SymTables[TAB_UNDEF].head ) {
; 828  :         /* to force a full second pass in case of missing symbols,
; 829  :          * activate the next line. It was implemented to have proper
; 830  :          * error displays if a forward reference wasn't found.
; 831  :          * However, v1.95 final won't need this anymore, because both
; 832  :          * filename + lineno for every line is known now in pass 2.
; 833  :          */
; 834  :         /* SkipSavedState(); */
; 835  :     }
; 836  : 
; 837  :     /* check if there's an undefined segment reference.
; 838  :      * This segment was an argument to a group definition then.
; 839  :      * Just do a full second pass, the GROUP directive will report
; 840  :      * the error.
; 841  :      */
; 842  :     for( curr = SymTables[TAB_SEG].head; curr; curr = curr->next ) {

	mov	rax, QWORD PTR [rax+104]
	test	rax, rax
	jne	SHORT $LL7@PassOneChe

; 873  :             /* check if symbol is external or public */
; 874  :             if ( sym == NULL ||

	jmp	SHORT $LN6@PassOneChe
$LN51@PassOneChe:

; 844  :             DebugMsg(("PassOneChecks: undefined segment %s\n", curr->sym.name ));
; 845  :             SkipSavedState();

	call	SkipSavedState
$LN6@PassOneChe:

; 846  :             break;
; 847  :         }
; 848  :     }
; 849  : #if COFF_SUPPORT
; 850  :     /* if there's an item in the safeseh list which is not an
; 851  :      * internal proc, make a full second pass to emit a proper
; 852  :      * error msg at the .SAFESEH directive
; 853  :      */
; 854  :     for ( q = ModuleInfo.g.SafeSEHQueue.head; q; q = q->next ) {

	mov	rax, QWORD PTR ModuleInfo+48
	test	rax, rax
	je	SHORT $LN9@PassOneChe
$LL10@PassOneChe:

; 855  :         if ( q->sym->state != SYM_INTERNAL || q->sym->isproc == FALSE ) {

	mov	rcx, QWORD PTR [rax+8]
	cmp	DWORD PTR [rcx+32], 1
	jne	SHORT $LN52@PassOneChe
	test	BYTE PTR [rcx+41], 8
	je	SHORT $LN52@PassOneChe

; 846  :             break;
; 847  :         }
; 848  :     }
; 849  : #if COFF_SUPPORT
; 850  :     /* if there's an item in the safeseh list which is not an
; 851  :      * internal proc, make a full second pass to emit a proper
; 852  :      * error msg at the .SAFESEH directive
; 853  :      */
; 854  :     for ( q = ModuleInfo.g.SafeSEHQueue.head; q; q = q->next ) {

	mov	rax, QWORD PTR [rax]
	test	rax, rax
	jne	SHORT $LL10@PassOneChe

; 873  :             /* check if symbol is external or public */
; 874  :             if ( sym == NULL ||

	jmp	SHORT $LN9@PassOneChe
$LN52@PassOneChe:

; 856  :             SkipSavedState();

	call	SkipSavedState
$LN9@PassOneChe:
	mov	eax, DWORD PTR Options+144
	add	eax, -2					; fffffffeH
	cmp	eax, 1
	ja	SHORT $LN12@PassOneChe

; 857  :             break;
; 858  :         }
; 859  :     }
; 860  : #endif
; 861  : 
; 862  :     /* scan ALIASes for COFF/ELF */
; 863  : 
; 864  : #if COFF_SUPPORT || ELF_SUPPORT
; 865  :     if ( Options.output_format == OFORMAT_COFF
; 866  : #if ELF_SUPPORT
; 867  :         || Options.output_format == OFORMAT_ELF
; 868  : #endif
; 869  :        ) {
; 870  :         for( curr = SymTables[TAB_ALIAS].head ; curr != NULL ;curr = curr->next ) {

	mov	rcx, QWORD PTR SymTables+80
	test	rcx, rcx
	je	SHORT $LN12@PassOneChe
	npad	2
$LL13@PassOneChe:

; 871  :             struct asym *sym;
; 872  :             sym = curr->sym.substitute;

	mov	rax, QWORD PTR [rcx+16]

; 873  :             /* check if symbol is external or public */
; 874  :             if ( sym == NULL ||

	test	rax, rax
	je	SHORT $LN53@PassOneChe
	mov	edx, DWORD PTR [rax+32]
	cmp	edx, 2
	je	SHORT $LN72@PassOneChe
	cmp	edx, 1
	jne	SHORT $LN53@PassOneChe
	test	BYTE PTR [rax+40], 128			; 00000080H
	je	SHORT $LN53@PassOneChe

; 878  :                 break;
; 879  :             }
; 880  :             /* make sure it becomes a strong external */
; 881  :             if ( sym->state == SYM_EXTERNAL )

	cmp	edx, 2
	jne	SHORT $LN11@PassOneChe
$LN72@PassOneChe:

; 882  :                 sym->used = TRUE;

	or	BYTE PTR [rax+40], 1
$LN11@PassOneChe:

; 857  :             break;
; 858  :         }
; 859  :     }
; 860  : #endif
; 861  : 
; 862  :     /* scan ALIASes for COFF/ELF */
; 863  : 
; 864  : #if COFF_SUPPORT || ELF_SUPPORT
; 865  :     if ( Options.output_format == OFORMAT_COFF
; 866  : #if ELF_SUPPORT
; 867  :         || Options.output_format == OFORMAT_ELF
; 868  : #endif
; 869  :        ) {
; 870  :         for( curr = SymTables[TAB_ALIAS].head ; curr != NULL ;curr = curr->next ) {

	mov	rcx, QWORD PTR [rcx+104]
	test	rcx, rcx
	jne	SHORT $LL13@PassOneChe

; 873  :             /* check if symbol is external or public */
; 874  :             if ( sym == NULL ||

	jmp	SHORT $LN12@PassOneChe
$LN53@PassOneChe:

; 875  :                 ( sym->state != SYM_EXTERNAL &&
; 876  :                  ( sym->state != SYM_INTERNAL || sym->ispublic == FALSE ))) {
; 877  :                 SkipSavedState();

	call	SkipSavedState
$LN12@PassOneChe:

; 883  :         }
; 884  :     }
; 885  : #endif
; 886  : 
; 887  : #endif /* FASTPASS */
; 888  : 
; 889  :     /* scan the EXTERN/EXTERNDEF items */
; 890  : 
; 891  :     for( curr = SymTables[TAB_EXT].head ; curr; curr = next ) {

	mov	rax, QWORD PTR SymTables+16
	test	rax, rax
	je	$LN15@PassOneChe
	mov	QWORD PTR [rsp+32], rbx
	npad	6
$LL16@PassOneChe:

; 892  :         next = curr->next;
; 893  :         /* v2.01: externdefs which have been "used" become "strong" */
; 894  :         if ( curr->sym.used )

	movzx	ecx, BYTE PTR [rax+40]
	mov	rbx, QWORD PTR [rax+104]
	test	cl, 1
	je	SHORT $LN32@PassOneChe

; 895  :             curr->sym.weak = FALSE;

	and	BYTE PTR [rax+47], 247			; 000000f7H
$LN32@PassOneChe:

; 896  :         /* remove unused EXTERNDEF/PROTO items from queue. */
; 897  :         if ( curr->sym.weak == TRUE
; 898  : #if DLLIMPORT
; 899  :             && curr->sym.iat_used == FALSE

	movzx	edx, BYTE PTR [rax+47]
	test	dl, 8
	je	SHORT $LN33@PassOneChe
	test	cl, 8
	jne	SHORT $LN33@PassOneChe

; 900  : #endif
; 901  :            ) {
; 902  :             sym_remove_table( &SymTables[TAB_EXT], curr );

	mov	rdx, rax
	lea	rcx, OFFSET FLAT:SymTables+16
	call	sym_remove_table

; 903  : #ifdef DEBUG_OUT
; 904  :             cntUnusedExt++;
; 905  : #endif
; 906  :             continue;

	jmp	SHORT $LN14@PassOneChe
$LN33@PassOneChe:

; 907  :         }
; 908  : 
; 909  : #if FASTMEM==0
; 910  :         /* v2.05: clear fixup list (used for backpatching in pass one) */
; 911  :         if ( curr->sym.bp_fixup ) {
; 912  :             struct fixup *c;
; 913  :             struct fixup *n;
; 914  :             for( c = curr->sym.bp_fixup ; c; ) {
; 915  :                 n = c->nextbp;
; 916  :                 LclFree( c );
; 917  :                 c = n;
; 918  :             }
; 919  :             curr->sym.bp_fixup = NULL;
; 920  :         }
; 921  : #endif
; 922  : 
; 923  :         if ( curr->sym.iscomm == TRUE )

	test	dl, 4
	jne	SHORT $LN14@PassOneChe

; 924  :             continue;
; 925  :         /* optional alternate symbol must be INTERNAL or EXTERNAL.
; 926  :          * COFF ( and ELF? ) also wants internal symbols to be public
; 927  :          * ( which is reasonable, since the linker won't know private
; 928  :          * symbols and hence will search for a symbol of that name
; 929  :          * "elsewhere" ).
; 930  :          */
; 931  : #if FASTPASS
; 932  :         if ( curr->sym.altname ) {

	mov	rcx, QWORD PTR [rax+64]
	test	rcx, rcx
	je	SHORT $LN14@PassOneChe

; 933  :             if ( curr->sym.altname->state == SYM_INTERNAL ) {

	mov	eax, DWORD PTR [rcx+32]
	cmp	eax, 1
	jne	SHORT $LN36@PassOneChe

; 934  : #if COFF_SUPPORT || ELF_SUPPORT
; 935  :                 /* for COFF/ELF, the altname must be public or external */
; 936  :                 if ( curr->sym.altname->ispublic == FALSE &&

	test	BYTE PTR [rcx+40], 128			; 00000080H
	jne	SHORT $LN14@PassOneChe
	mov	eax, DWORD PTR Options+144
	add	eax, -2					; fffffffeH
	cmp	eax, 1
	ja	SHORT $LN14@PassOneChe

; 937  :                     ( Options.output_format == OFORMAT_COFF
; 938  : #if ELF_SUPPORT
; 939  :                      || Options.output_format == OFORMAT_ELF
; 940  : #endif
; 941  :                     ) ) {
; 942  :                     SkipSavedState();
; 943  :                 }

	jmp	SHORT $LN73@PassOneChe
$LN36@PassOneChe:

; 944  : #endif
; 945  :             } else if ( curr->sym.altname->state != SYM_EXTERNAL ) {

	cmp	eax, 2
	je	SHORT $LN14@PassOneChe
$LN73@PassOneChe:

; 946  :                 /* do not use saved state, scan full source in second pass */
; 947  :                 SkipSavedState();

	call	SkipSavedState
$LN14@PassOneChe:

; 883  :         }
; 884  :     }
; 885  : #endif
; 886  : 
; 887  : #endif /* FASTPASS */
; 888  : 
; 889  :     /* scan the EXTERN/EXTERNDEF items */
; 890  : 
; 891  :     for( curr = SymTables[TAB_EXT].head ; curr; curr = next ) {

	mov	rax, rbx
	test	rbx, rbx
	jne	SHORT $LL16@PassOneChe
	mov	rbx, QWORD PTR [rsp+32]
$LN15@PassOneChe:

; 948  :             }
; 949  :         }
; 950  : #endif
; 951  :     }
; 952  : 
; 953  : #ifdef DEBUG_OUT
; 954  :     DebugMsg(("PassOneChecks: removed unused externals: %u\n", cntUnusedExt ));
; 955  :     DebugMsg(("PassOneChecks: forward references:\n"));
; 956  :     for( curr = SymTables[TAB_SEG].head; curr; curr = curr->next ) {
; 957  :         int i;
; 958  :         int j;
; 959  :         struct asym * sym;
; 960  :         struct fixup * fix;
; 961  :         for ( i = 0, j = 0, sym = curr->e.seginfo->label_list; sym; sym = (struct asym *)((struct dsym *)sym)->next ) {
; 962  :             i++;
; 963  :             for ( fix = sym->bp_fixup; fix ; fix = fix->nextbp, j++ );
; 964  :         }
; 965  :         DebugMsg(("PassOneChecks: segm=%s, labels=%u forward refs=%u\n", curr->sym.name, i, j));
; 966  :     }
; 967  : #endif
; 968  : 
; 969  :     if ( ModuleInfo.g.error_count == 0 ) {

	cmp	DWORD PTR ModuleInfo, 0
	jne	SHORT $LN44@PassOneChe

; 970  : 
; 971  :         /* make all symbols of type SYM_INTERNAL, which aren't
; 972  :          a constant, public.  */
; 973  :         if ( Options.all_symbols_public )

	cmp	BYTE PTR Options+138, 0
	je	SHORT $LN42@PassOneChe

; 974  :             SymMakeAllSymbolsPublic();

	call	SymMakeAllSymbolsPublic
$LN42@PassOneChe:

; 975  : 
; 976  :         if ( Options.syntax_check_only == FALSE )

	movzx	eax, BYTE PTR write_to_file
	mov	ecx, 1
	cmp	BYTE PTR Options+172, 0
	cmove	eax, ecx
	mov	BYTE PTR write_to_file, al

; 977  :             write_to_file = TRUE;
; 978  : 
; 979  :         if ( ModuleInfo.g.Pass1Checks )

	mov	rax, QWORD PTR ModuleInfo+304
	test	rax, rax
	je	SHORT $LN44@PassOneChe

; 980  :             ModuleInfo.g.Pass1Checks( &ModuleInfo );

	lea	rcx, OFFSET FLAT:ModuleInfo

; 981  :     }
; 982  : 
; 983  : 
; 984  :     return;
; 985  : }

	add	rsp, 40					; 00000028H

; 980  :             ModuleInfo.g.Pass1Checks( &ModuleInfo );

	rex_jmp	rax
$LN44@PassOneChe:

; 981  :     }
; 982  : 
; 983  : 
; 984  :     return;
; 985  : }

	add	rsp, 40					; 00000028H
	ret	0
PassOneChecks ENDP
_TEXT	ENDS
; Function compile flags: /Ogtpy
; File d:\hjwasm\hjwasm2.13.1s\hjwasm2.13.1s\assemble.c
;	COMDAT ModulePassInit
_TEXT	SEGMENT
ModulePassInit PROC					; COMDAT

; 642  : {

	push	rbx
	sub	rsp, 32					; 00000020H

; 643  :     enum cpu_info cpu = Options.cpu;
; 644  :     enum model_type model = Options.model;
; 645  : #if DLLIMPORT
; 646  :     struct dsym *curr;
; 647  : #endif
; 648  : 
; 649  :     DebugMsg(( "ModulePassInit() enter\n" ));
; 650  :     /* set default values not affected by the masm 5.1 compat switch */
; 651  :     ModuleInfo.procs_private = FALSE;
; 652  :     ModuleInfo.procs_export = FALSE;

	mov	edx, DWORD PTR ModuleInfo+408
	mov	ecx, DWORD PTR Options+164
	and	edx, -13				; fffffff3H
	mov	ebx, DWORD PTR Options+160

; 653  :     ModuleInfo.offsettype = OT_GROUP;
; 654  :     ModuleInfo.scoped = TRUE;

	bts	edx, 7

; 655  : 
; 656  : 
; 657  : #if FASTPASS
; 658  :     /* v2.03: don't generate the code if fastpass is active */
; 659  :     /* v2.08: query UseSavedState instead of StoreState */
; 660  :     //if ( StoreState == FALSE ) {
; 661  :     if ( UseSavedState == FALSE ) {

	cmp	BYTE PTR UseSavedState, 0
	mov	DWORD PTR ModuleInfo+384, 0
	mov	DWORD PTR ModuleInfo+408, edx
	jne	$LN12@ModulePass

; 662  : #endif
; 663  :         ModuleInfo.langtype = Options.langtype;
; 664  :         ModuleInfo.fctype = Options.fctype;
; 665  : 
; 666  : 		#if AMD64_SUPPORT
; 667  : 		if (Options.output_format == OFORMAT_ELF)

	mov	edx, DWORD PTR Options+144
	mov	r8d, DWORD PTR Options+156
	mov	eax, DWORD PTR Options+168
	mov	DWORD PTR ModuleInfo+364, r8d
	mov	DWORD PTR ModuleInfo+376, eax
	cmp	edx, 3
	jne	SHORT $LN6@ModulePass

; 668  : 		{
; 669  : 			ModuleInfo.fctype = FCT_WIN64;

	mov	DWORD PTR ModuleInfo+376, 2

; 670  : 			Options.fctype = FCT_WIN64;

	mov	DWORD PTR Options+168, 2
$LN6@ModulePass:

; 671  : 		}
; 672  : 		#endif /* John Hankinson 2016-02-10 force elf64 to use win64 abi */
; 673  : 
; 674  : #if AMD64_SUPPORT
; 675  :         if ( ModuleInfo.sub_format == SFORMAT_64BIT ) {

	cmp	DWORD PTR ModuleInfo+372, 3
	jne	SHORT $LN7@ModulePass

; 676  :             /* v2.06: force cpu to be at least P_64, without side effect to Options.cpu */
; 677  :             if ( ( cpu &  P_CPU_MASK ) < P_64 ) /* enforce cpu to be 64-bit */

	mov	r9d, 112				; 00000070H
	mov	eax, ecx
	and	eax, 240				; 000000f0H
	cmp	eax, r9d
	cmovl	ecx, r9d

; 678  :                 cpu = P_64;
; 679  :             /* ignore -m switch for 64-bit formats.
; 680  :              * there's no other model than FLAT possible.
; 681  :              */
; 682  :             model = MODEL_FLAT;

	lea	ebx, QWORD PTR [r9-105]

; 683  :             if ( ModuleInfo.langtype == LANG_NONE && Options.output_format == OFORMAT_COFF )

	test	r8d, r8d
	jne	SHORT $LN11@ModulePass
	cmp	edx, 2
	jne	SHORT $LN11@ModulePass

; 684  :                 ModuleInfo.langtype = LANG_FASTCALL;

	mov	DWORD PTR ModuleInfo+364, ebx

; 685  :         } else

	jmp	SHORT $LN11@ModulePass
$LN7@ModulePass:

; 686  : #endif
; 687  :             /* if model FLAT is to be set, ensure that cpu is compat. */
; 688  :             if ( model == MODEL_FLAT && ( cpu & P_CPU_MASK ) < P_386 ) /* cpu < 386? */

	cmp	ebx, 7
	jne	SHORT $LN11@ModulePass
	mov	eax, ecx
	mov	edx, 48					; 00000030H
	and	eax, 240				; 000000f0H
	cmp	eax, edx
	cmovl	ecx, edx
$LN11@ModulePass:

; 689  :                 cpu = P_386;
; 690  : 
; 691  :         SetCPU( cpu );

	call	SetCPU

; 692  :         /* table ModelToken starts with MODEL_TINY, which is index 1" */
; 693  :         if ( model != MODEL_NONE )

	test	ebx, ebx
	je	SHORT $LN24@ModulePass

; 694  :             AddLineQueueX( "%r %s", T_DOT_MODEL, ModelToken[model - 1] );

	lea	rax, OFFSET FLAT:ModelToken
	movsxd	r8, ebx
	mov	edx, 346				; 0000015aH
	lea	rcx, OFFSET FLAT:$SG11936
	mov	r8, QWORD PTR [rax+r8*8-8]
	call	AddLineQueueX
$LN24@ModulePass:
	mov	edx, DWORD PTR ModuleInfo+408
$LN12@ModulePass:

; 695  : 
; 696  : #if FASTPASS
; 697  :     }
; 698  : #endif
; 699  : 
; 700  :     SetMasm510( Options.masm51_compat );

	movzx	ecx, BYTE PTR Options+126
	and	edx, -1361				; fffffaafH
	mov	eax, ecx
	and	eax, 1
	lea	r8d, DWORD PTR [rax*4]
	or	r8d, eax
	shl	r8d, 2
	or	r8d, eax
	shl	r8d, 2
	or	r8d, eax
	shl	r8d, 4
	or	r8d, edx
	test	cl, cl
	je	SHORT $LN18@ModulePass
	cmp	DWORD PTR ModuleInfo+360, 0
	jne	SHORT $LN18@ModulePass
	cmp	DWORD PTR ModuleInfo+364, 0
	mov	DWORD PTR ModuleInfo+384, 2
	jne	SHORT $LN18@ModulePass
	btr	r8d, 7
	or	r8d, 4
$LN18@ModulePass:

; 701  :     ModuleInfo.defOfssize = USE16;
; 702  :     ModuleInfo.ljmp     = TRUE;
; 703  : 
; 704  :     ModuleInfo.list   = Options.write_listing;
; 705  :     ModuleInfo.cref   = TRUE;
; 706  :     ModuleInfo.listif = Options.listif;
; 707  :     ModuleInfo.list_generated_code = Options.list_generated_code;

	movzx	edx, BYTE PTR Options+131
	and	r8d, -26625				; ffff97ffH
	movzx	eax, BYTE PTR Options+130
	and	edx, 1

; 708  :     ModuleInfo.list_macro = Options.list_macro;
; 709  : 
; 710  :     ModuleInfo.case_sensitive = Options.case_sensitive;
; 711  :     ModuleInfo.convert_uppercase = Options.convert_uppercase;

	movzx	ecx, BYTE PTR Options+124
	add	edx, edx
	and	eax, 1
	mov	BYTE PTR ModuleInfo+405, 0
	or	edx, eax
	and	ecx, 1
	movzx	eax, BYTE PTR Options+121
	add	ecx, ecx
	shl	edx, 2
	and	eax, 1
	or	edx, eax
	mov	eax, DWORD PTR Options+132
	shl	edx, 11
	mov	DWORD PTR ModuleInfo+400, eax
	or	edx, r8d
	movzx	eax, BYTE PTR Options+123
	or	edx, 4128				; 00001020H
	and	eax, 1
	and	edx, -4					; fffffffcH
	or	ecx, eax
	or	ecx, edx
	mov	DWORD PTR ModuleInfo+408, ecx

; 712  :     SymSetCmpFunc();

	call	SymSetCmpFunc

; 713  : 
; 714  :     ModuleInfo.segorder = SEGORDER_SEQ;
; 715  :     ModuleInfo.radix = 10;
; 716  :     ModuleInfo.fieldalign = Options.fieldalign;
; 717  : #if PROCALIGN
; 718  :     ModuleInfo.procalign = 0;
; 719  : #endif
; 720  : #if DLLIMPORT
; 721  :     /* if OPTION DLLIMPORT was used, reset all iat_used flags */
; 722  :     if ( ModuleInfo.g.DllQueue )

	cmp	QWORD PTR ModuleInfo+80, 0
	movzx	eax, BYTE PTR Options+152
	mov	BYTE PTR ModuleInfo+397, al
	mov	DWORD PTR ModuleInfo+380, 0
	mov	BYTE PTR ModuleInfo+396, 10
	mov	BYTE PTR ModuleInfo+399, 0
	je	SHORT $LN3@ModulePass

; 723  :         for ( curr = SymTables[TAB_EXT].head; curr; curr = curr->next )

	mov	rax, QWORD PTR SymTables+16
	test	rax, rax
	je	SHORT $LN3@ModulePass
	npad	8
$LL4@ModulePass:

; 724  :             curr->sym.iat_used = FALSE;

	and	BYTE PTR [rax+40], 247			; 000000f7H
	mov	rax, QWORD PTR [rax+104]
	test	rax, rax
	jne	SHORT $LL4@ModulePass
$LN3@ModulePass:

; 725  : #endif
; 726  : }

	add	rsp, 32					; 00000020H
	pop	rbx
	ret	0
ModulePassInit ENDP
_TEXT	ENDS
; Function compile flags: /Ogtpy
; File d:\hjwasm\hjwasm2.13.1s\hjwasm2.13.1s\assemble.c
;	COMDAT CmdlParamsInit
_TEXT	SEGMENT
pass$ = 48
CmdlParamsInit PROC					; COMDAT

; 522  : {

	sub	rsp, 40					; 00000028H

; 523  :     DebugMsg(("CmdlParamsInit(%u) enter\n", pass));
; 524  : 
; 525  : #if BUILD_TARGET
; 526  :     if ( pass == PASS_1 ) {
; 527  :         struct asym *sym;
; 528  :         char *tmp;
; 529  :         char *p;
; 530  : 
; 531  :         _strupr( Options.build_target );
; 532  :         tmp = myalloca( strlen( Options.build_target ) + 5 ); /* null + 4 uscores */
; 533  :         strcpy( tmp, uscores );
; 534  :         strcat( tmp, Options.build_target );
; 535  :         strcat( tmp, uscores );
; 536  : 
; 537  :         /* define target */
; 538  :         sym = CreateVariable( tmp, 0 );
; 539  :         sym->predefined = TRUE;
; 540  : 
; 541  :         p = NULL;
; 542  :         if( _stricmp( Options.build_target, "DOS" ) == 0 ) {
; 543  :             p = "__MSDOS__";
; 544  :         } else if( _stricmp( Options.build_target, "NETWARE" ) == 0 ) {
; 545  :             if( ( ModuleInfo.curr_cpu & P_CPU_MASK ) >= P_386 ) {
; 546  :                 p = "__NETWARE_386__";
; 547  :             } else {
; 548  :                 /* do nothing ... __NETWARE__ already defined */
; 549  :             }
; 550  :         } else if( _stricmp( Options.build_target, "WINDOWS" ) == 0 ) {
; 551  :             if( ( ModuleInfo.curr_cpu & P_CPU_MASK ) >= P_386 ) {
; 552  :                 p = "__WINDOWS_386__";
; 553  :             } else {
; 554  :                 /* do nothing ... __WINDOWS__ already defined */
; 555  :             }
; 556  :         } else if( _stricmp( Options.build_target, "QNX" ) == 0 ) {
; 557  :             p = "__UNIX__";
; 558  :         } else if( _stricmp( Options.build_target, "LINUX" ) == 0 ) {
; 559  :             p = "__UNIX__";
; 560  :         }
; 561  :         if ( p ) {
; 562  :             sym = CreateVariable( p, 0 );
; 563  :             sym->predefined = TRUE;
; 564  :         }
; 565  :     }
; 566  : #endif
; 567  : 
; 568  :     if ( pass == PASS_1 ) {

	test	ecx, ecx
	jne	SHORT $LN4@CmdlParams

; 569  :         char *env;
; 570  :         /* v2.06: this is done in ModulePassInit now */
; 571  :         //SetCPU( Options.cpu );
; 572  :         add_cmdline_tmacros();

	mov	QWORD PTR [rsp+32], rbx
	call	add_cmdline_tmacros

; 573  :         add_incpaths();

	mov	rbx, QWORD PTR Options+104
	test	rbx, rbx
	je	SHORT $LN8@CmdlParams
	npad	2
$LL9@CmdlParams:
	lea	rcx, QWORD PTR [rbx+8]
	call	AddStringToIncludePath
	mov	rbx, QWORD PTR [rbx]
	test	rbx, rbx
	jne	SHORT $LL9@CmdlParams
$LN8@CmdlParams:

; 574  :         if ( Options.ignore_include == FALSE )

	cmp	BYTE PTR Options+140, 0
	mov	rbx, QWORD PTR [rsp+32]
	jne	SHORT $LN4@CmdlParams

; 575  :             if ( env = getenv( "INCLUDE" ) )

	lea	rcx, OFFSET FLAT:$SG11898
	call	getenv
	test	rax, rax
	je	SHORT $LN4@CmdlParams

; 576  :                 AddStringToIncludePath( env );

	mov	rcx, rax

; 577  :     }
; 578  :     DebugMsg(("CmdlParamsInit exit\n"));
; 579  :     return;
; 580  : }

	add	rsp, 40					; 00000028H

; 576  :                 AddStringToIncludePath( env );

	jmp	AddStringToIncludePath
$LN4@CmdlParams:

; 577  :     }
; 578  :     DebugMsg(("CmdlParamsInit exit\n"));
; 579  :     return;
; 580  : }

	add	rsp, 40					; 00000028H
	ret	0
CmdlParamsInit ENDP
_TEXT	ENDS
; Function compile flags: /Ogtpy
; File d:\hjwasm\hjwasm2.13.1s\hjwasm2.13.1s\assemble.c
;	COMDAT add_incpaths
_TEXT	SEGMENT
add_incpaths PROC					; COMDAT

; 509  : {

	push	rbx
	sub	rsp, 32					; 00000020H

; 510  :     struct qitem *p;
; 511  :     DebugMsg(("add_incpaths: enter\n"));
; 512  :     for ( p = Options.queues[OPTQ_INCPATH]; p; p = p->next ) {

	mov	rbx, QWORD PTR Options+104
	test	rbx, rbx
	je	SHORT $LN3@add_incpat
$LL4@add_incpat:

; 513  :         AddStringToIncludePath( p->value );

	lea	rcx, QWORD PTR [rbx+8]
	call	AddStringToIncludePath
	mov	rbx, QWORD PTR [rbx]
	test	rbx, rbx
	jne	SHORT $LL4@add_incpat
$LN3@add_incpat:

; 514  :     }
; 515  : }

	add	rsp, 32					; 00000020H
	pop	rbx
	ret	0
add_incpaths ENDP
_TEXT	ENDS
; Function compile flags: /Ogtpy
; File d:\hjwasm\hjwasm2.13.1s\hjwasm2.13.1s\assemble.c
;	COMDAT add_cmdline_tmacros
_TEXT	SEGMENT
add_cmdline_tmacros PROC				; COMDAT

; 459  : {

	push	rbp
	push	r12
	push	r13
	push	r14
	push	r15
	sub	rsp, 32					; 00000020H
	lea	rbp, QWORD PTR [rsp+32]

; 460  :     struct qitem *p;
; 461  :     char *name;
; 462  :     char *value;
; 463  :     int len;
; 464  :     struct asym *sym;
; 465  : 
; 466  :     DebugMsg(("add_cmdline_tmacros enter\n"));
; 467  :     for ( p = Options.queues[OPTQ_MACRO]; p; p = p->next ) {

	mov	r15, QWORD PTR Options+96
	mov	QWORD PTR [rbp+48], rbx
	mov	QWORD PTR [rbp+56], rsi
	mov	QWORD PTR [rbp+64], rdi
	test	r15, r15
	je	$LN3@add_cmdlin
	mov	rbx, 576460752706077697			; 0800000018000401H
	mov	r13, 1152921504606846960		; 0ffffffffffffff0H
	mov	r12, 576460752706076673			; 0800000018000001H
	npad	3
$LL4@add_cmdlin:

; 468  :         DebugMsg(("add_cmdline_tmacros: found >%s<\n", p->value));
; 469  :         name = p->value;

	lea	r14, QWORD PTR [r15+8]

; 470  :         value = strchr( name, '=' );

	mov	edx, 61					; 0000003dH
	mov	rcx, r14
	mov	rsi, r14
	call	strchr
	mov	rdi, rax

; 471  :         if( value == NULL ) {

	test	rax, rax
	jne	SHORT $LN5@add_cmdlin

; 472  :             /* v2.06: ensure that 'value' doesn't point to r/o space */
; 473  :             //value = "";
; 474  :             value = name + strlen( name ); /* use the terminating NULL */

	or	rdi, -1
$LL42@add_cmdlin:
	inc	rdi
	cmp	BYTE PTR [r14+rdi], 0
	jne	SHORT $LL42@add_cmdlin
	add	rdi, r14

; 475  :         } else {

	jmp	SHORT $LN6@add_cmdlin
$LN5@add_cmdlin:

; 476  :             len = value - name;

	mov	r8d, eax
	sub	r8d, r14d

; 477  :             name = (char *)myalloca( len + 1 );

	lea	eax, DWORD PTR [r8+1]
	movsxd	rcx, eax
	lea	rax, QWORD PTR [rcx+15]
	cmp	rax, rcx
	ja	SHORT $LN41@add_cmdlin
	mov	rax, r13
$LN41@add_cmdlin:
	and	rax, -16
	call	__chkstk
	sub	rsp, rax

; 478  :             memcpy( name, p->value, len );

	movsxd	rbx, r8d
	mov	r8, rbx
	mov	rdx, r14
	lea	rsi, QWORD PTR [rsp+32]
	mov	rcx, rsi
	call	memcpy

; 479  :             *(name + len) = NULLC;

	mov	BYTE PTR [rbx+rsi], 0

; 480  :             value++;

	inc	rdi
	mov	rbx, 576460752706077697			; 0800000018000401H
$LN6@add_cmdlin:

; 481  :         }
; 482  : 
; 483  :         /* there's no check whether the name is a reserved word!
; 484  :          */
; 485  :         if( is_valid_identifier( name ) == ERROR ) {

	movsx	ecx, BYTE PTR [rsi]
	call	isalpha
	test	eax, eax
	jne	SHORT $LN17@add_cmdlin
	movzx	eax, BYTE PTR [rsi]
	sub	al, 36					; 00000024H
	cmp	al, 59					; 0000003bH
	ja	SHORT $LN35@add_cmdlin
	movsx	rax, al
	bt	rbx, rax
	jae	SHORT $LN35@add_cmdlin
$LN17@add_cmdlin:
	movzx	eax, BYTE PTR [rsi+1]
	lea	rbx, QWORD PTR [rsi+1]
	test	al, al
	je	SHORT $LN15@add_cmdlin
$LL16@add_cmdlin:
	movsx	ecx, al
	call	isalnum
	test	eax, eax
	jne	SHORT $LN23@add_cmdlin
	movzx	eax, BYTE PTR [rbx]
	sub	al, 36					; 00000024H
	cmp	al, 59					; 0000003bH
	ja	SHORT $LN35@add_cmdlin
	bt	r12, rax
	jae	SHORT $LN35@add_cmdlin
$LN23@add_cmdlin:
	movzx	eax, BYTE PTR [rbx+1]
	inc	rbx
	test	al, al
	jne	SHORT $LL16@add_cmdlin
$LN15@add_cmdlin:
	cmp	BYTE PTR [rbx-1], 46			; 0000002eH
	jne	SHORT $LN7@add_cmdlin
$LN35@add_cmdlin:

; 486  :             DebugMsg(("add_cmdline_tmacros: name >%s< invalid\n", name ));
; 487  :             EmitErr( SYNTAX_ERROR_EX, name );

	mov	ecx, 209				; 000000d1H

; 488  :         } else {

	jmp	SHORT $LN43@add_cmdlin
$LN7@add_cmdlin:

; 489  :             sym = SymSearch( name );

	mov	rcx, rsi
	call	SymFind

; 490  :             if ( sym == NULL ) {

	test	rax, rax
	jne	SHORT $LN9@add_cmdlin

; 491  :                 sym = SymCreate( name );

	mov	rcx, rsi
	call	SymCreate

; 492  :                 sym->state = SYM_TMACRO;

	mov	DWORD PTR [rax+32], 10
$LN9@add_cmdlin:

; 493  :             }
; 494  :             if ( sym->state == SYM_TMACRO ) {

	cmp	DWORD PTR [rax+32], 10
	jne	SHORT $LN10@add_cmdlin

; 495  :                 sym->isdefined = TRUE;
; 496  :                 sym->predefined = TRUE;

	or	BYTE PTR [rax+40], 34			; 00000022H

; 497  :                 sym->string_ptr = value;

	mov	QWORD PTR [rax+16], rdi

; 498  :             } else

	jmp	SHORT $LN2@add_cmdlin
$LN10@add_cmdlin:

; 499  :                 EmitErr( SYMBOL_ALREADY_DEFINED, name );

	mov	ecx, 56					; 00000038H
$LN43@add_cmdlin:
	mov	rdx, rsi
	call	EmitErr
$LN2@add_cmdlin:

; 460  :     struct qitem *p;
; 461  :     char *name;
; 462  :     char *value;
; 463  :     int len;
; 464  :     struct asym *sym;
; 465  : 
; 466  :     DebugMsg(("add_cmdline_tmacros enter\n"));
; 467  :     for ( p = Options.queues[OPTQ_MACRO]; p; p = p->next ) {

	mov	r15, QWORD PTR [r15]
	mov	rbx, 576460752706077697			; 0800000018000401H
	test	r15, r15
	jne	$LL4@add_cmdlin
$LN3@add_cmdlin:

; 500  :         }
; 501  :     }
; 502  :     return;
; 503  : }

	mov	rbx, QWORD PTR [rbp+48]
	mov	rsi, QWORD PTR [rbp+56]
	mov	rdi, QWORD PTR [rbp+64]
	mov	rsp, rbp
	pop	r15
	pop	r14
	pop	r13
	pop	r12
	pop	rbp
	ret	0
add_cmdline_tmacros ENDP
_TEXT	ENDS
; Function compile flags: /Ogtpy
; File d:\hjwasm\hjwasm2.13.1s\hjwasm2.13.1s\assemble.c
;	COMDAT is_valid_identifier
_TEXT	SEGMENT
id$ = 48
is_valid_identifier PROC				; COMDAT

; 437  : {

	push	rbx
	sub	rsp, 32					; 00000020H
	mov	rbx, rcx

; 438  :     /* special handling of first char of an id: it can't be a digit,
; 439  :      but can be a dot (don't care about ModuleInfo.dotname!). */
; 440  : 
; 441  :     if( is_valid_first_char( *id ) == 0 )

	movsx	ecx, BYTE PTR [rcx]
	call	isalpha
	test	eax, eax
	jne	SHORT $LN5@is_valid_i
	movzx	eax, BYTE PTR [rbx]
	sub	al, 36					; 00000024H
	cmp	al, 59					; 0000003bH
	ja	SHORT $LN18@is_valid_i
	movsx	rax, al
	mov	rcx, 576460752706077697			; 0800000018000401H
	bt	rcx, rax
	jb	SHORT $LN5@is_valid_i
$LN18@is_valid_i:

; 442  :         return( ERROR );

	or	eax, -1

; 450  :         return( ERROR );
; 451  : 
; 452  :     return( NOT_ERROR );
; 453  : }

	add	rsp, 32					; 00000020H
	pop	rbx
	ret	0
$LN5@is_valid_i:

; 443  :     id++;
; 444  :     for( ; *id != NULLC; id++ ) {

	movzx	eax, BYTE PTR [rbx+1]
	inc	rbx
	mov	QWORD PTR [rsp+48], rdi
	test	al, al
	je	SHORT $LN3@is_valid_i
	mov	rdi, 576460752706076673			; 0800000018000001H
$LL4@is_valid_i:

; 445  :         if ( is_valid_id_char( *id ) == FALSE )

	movsx	ecx, al
	call	isalnum
	test	eax, eax
	jne	SHORT $LN11@is_valid_i
	movzx	eax, BYTE PTR [rbx]
	sub	al, 36					; 00000024H
	cmp	al, 59					; 0000003bH
	ja	SHORT $LN14@is_valid_i
	movsx	rax, al
	bt	rdi, rax
	jae	SHORT $LN14@is_valid_i
$LN11@is_valid_i:

; 443  :     id++;
; 444  :     for( ; *id != NULLC; id++ ) {

	movzx	eax, BYTE PTR [rbx+1]
	inc	rbx
	test	al, al
	jne	SHORT $LL4@is_valid_i
$LN3@is_valid_i:
	mov	rdi, QWORD PTR [rsp+48]

; 447  :     }
; 448  :     /* don't allow a single dot! */
; 449  :     if ( *(id-1) == '.' )

	xor	eax, eax
	cmp	BYTE PTR [rbx-1], 46			; 0000002eH
	setne	al
	dec	eax

; 450  :         return( ERROR );
; 451  : 
; 452  :     return( NOT_ERROR );
; 453  : }

	add	rsp, 32					; 00000020H
	pop	rbx
	ret	0
$LN14@is_valid_i:

; 446  :             return( ERROR );

	or	eax, -1
	mov	rdi, QWORD PTR [rsp+48]

; 450  :         return( ERROR );
; 451  : 
; 452  :     return( NOT_ERROR );
; 453  : }

	add	rsp, 32					; 00000020H
	pop	rbx
	ret	0
is_valid_identifier ENDP
_TEXT	ENDS
; Function compile flags: /Ogtpy
; File d:\hjwasm\hjwasm2.13.1s\hjwasm2.13.1s\assemble.c
;	COMDAT WriteModule
_TEXT	SEGMENT
modinfo$ = 64
WriteModule PROC					; COMDAT

; 387  : {

	mov	QWORD PTR [rsp+16], rbx
	push	rdi
	sub	rsp, 48					; 00000030H

; 388  :     struct dsym *curr;
; 389  : 
; 390  :     DebugMsg(("WriteModule enter\n"));
; 391  : 
; 392  :     /* final checks */
; 393  :     /* check limit of segments */
; 394  :     for( curr = SymTables[TAB_SEG].head; curr; curr = curr->next ) {

	mov	rbx, QWORD PTR SymTables+32
	mov	rdi, rcx
	test	rbx, rbx
	je	SHORT $LN3@WriteModul
	npad	7
$LL4@WriteModul:

; 395  :         if ( curr->e.seginfo->Ofssize == USE16 && curr->sym.max_offset > 0x10000 ) {

	mov	rax, QWORD PTR [rbx+96]
	cmp	BYTE PTR [rax+104], 0
	jne	SHORT $LN2@WriteModul
	cmp	DWORD PTR [rbx+56], 65536		; 00010000H
	jle	SHORT $LN2@WriteModul

; 396  :             if ( Options.output_format == OFORMAT_OMF )

	cmp	DWORD PTR Options+144, 1
	jne	SHORT $LN9@WriteModul

; 397  :                 EmitErr( SEGMENT_EXCEEDS_64K_LIMIT, curr->sym.name );

	mov	rdx, QWORD PTR [rbx+8]
	mov	ecx, 222				; 000000deH
	call	EmitErr
	jmp	SHORT $LN2@WriteModul
$LN9@WriteModul:

; 398  :             else
; 399  :                 EmitWarn( 2, SEGMENT_EXCEEDS_64K_LIMIT, curr->sym.name );

	mov	r8, QWORD PTR [rbx+8]
	mov	edx, 222				; 000000deH
	mov	ecx, 2
	call	EmitWarn
$LN2@WriteModul:

; 388  :     struct dsym *curr;
; 389  : 
; 390  :     DebugMsg(("WriteModule enter\n"));
; 391  : 
; 392  :     /* final checks */
; 393  :     /* check limit of segments */
; 394  :     for( curr = SymTables[TAB_SEG].head; curr; curr = curr->next ) {

	mov	rbx, QWORD PTR [rbx+104]
	test	rbx, rbx
	jne	SHORT $LL4@WriteModul
$LN3@WriteModul:

; 400  :         }
; 401  :     }
; 402  : 
; 403  :     modinfo->g.WriteModule( modinfo );

	mov	rcx, rdi
	mov	QWORD PTR [rsp+64], rsi
	call	QWORD PTR [rdi+288]

; 404  : 
; 405  : #if DLLIMPORT
; 406  :     /* is the -Fd option given with a file name? */
; 407  :     if ( Options.names[OPTN_LNKDEF_FN] ) {

	mov	rcx, QWORD PTR Options+48
	test	rcx, rcx
	je	$LN11@WriteModul

; 408  :         FILE *ld;
; 409  :         ld = fopen( Options.names[OPTN_LNKDEF_FN], "w" );

	lea	rdx, OFFSET FLAT:$SG11846
	call	fopen
	mov	rsi, rax

; 410  :         if ( ld == NULL ) {

	test	rax, rax
	jne	SHORT $LN12@WriteModul

; 411  :             return( EmitErr( CANNOT_OPEN_FILE, Options.names[OPTN_LNKDEF_FN], ErrnoStr() ) );

	call	ErrnoStr
	mov	rdx, QWORD PTR Options+48
	lea	ecx, QWORD PTR [rsi+106]
	mov	r8, rax
	mov	rsi, QWORD PTR [rsp+64]

; 429  : }

	mov	rbx, QWORD PTR [rsp+72]
	add	rsp, 48					; 00000030H
	pop	rdi

; 411  :             return( EmitErr( CANNOT_OPEN_FILE, Options.names[OPTN_LNKDEF_FN], ErrnoStr() ) );

	jmp	EmitErr
$LN12@WriteModul:

; 412  :         }
; 413  :         for ( curr = SymTables[TAB_EXT].head; curr != NULL ; curr = curr->next ) {

	mov	rbx, QWORD PTR SymTables+16
	test	rbx, rbx
	je	$LN6@WriteModul
$LL7@WriteModul:

; 414  :             DebugMsg(("WriteModule: ext=%s, isproc=%u, weak=%u\n", curr->sym.name, curr->sym.isproc, curr->sym.weak ));
; 415  :             if ( curr->sym.isproc && ( curr->sym.weak == FALSE || curr->sym.iat_used ) &&
; 416  :                 curr->sym.dll && *(curr->sym.dll->name) != NULLC ) {

	test	BYTE PTR [rbx+41], 8
	je	SHORT $LN5@WriteModul
	test	BYTE PTR [rbx+47], 8
	je	SHORT $LN14@WriteModul
	test	BYTE PTR [rbx+40], 8
	je	SHORT $LN5@WriteModul
$LN14@WriteModul:
	mov	rax, QWORD PTR [rbx+56]
	test	rax, rax
	je	SHORT $LN5@WriteModul
	cmp	BYTE PTR [rax+12], 0
	je	SHORT $LN5@WriteModul

; 417  :                 int size;
; 418  :                 Mangle( &curr->sym, StringBufferEnd );

	mov	rdx, QWORD PTR ModuleInfo+488
	mov	rcx, rbx
	call	Mangle

; 419  :                 size = sprintf( CurrSource, "import '%s'  %s.%s\n", StringBufferEnd, curr->sym.dll->name, curr->sym.name );

	mov	r9, QWORD PTR [rbx+56]
	lea	rdx, OFFSET FLAT:$SG11850
	mov	rax, QWORD PTR [rbx+8]
	add	r9, 12
	mov	r8, QWORD PTR ModuleInfo+488
	mov	rcx, QWORD PTR ModuleInfo+464
	mov	QWORD PTR [rsp+32], rax
	call	sprintf

; 420  :                 if ( fwrite( CurrSource, 1, size, ld ) != size )

	mov	rcx, QWORD PTR ModuleInfo+464
	mov	r9, rsi
	movsxd	rdi, eax
	mov	edx, 1
	mov	r8, rdi
	call	fwrite
	cmp	rax, rdi
	je	SHORT $LN5@WriteModul

; 421  :                     WriteError();

	call	WriteError
$LN5@WriteModul:

; 412  :         }
; 413  :         for ( curr = SymTables[TAB_EXT].head; curr != NULL ; curr = curr->next ) {

	mov	rbx, QWORD PTR [rbx+104]
	test	rbx, rbx
	jne	$LL7@WriteModul
$LN6@WriteModul:

; 422  :             }
; 423  :         }
; 424  :         fclose( ld );

	mov	rcx, rsi
	call	fclose
$LN11@WriteModul:

; 425  :     }
; 426  : #endif
; 427  :     DebugMsg(("WriteModule exit\n"));
; 428  :     return( NOT_ERROR );

	mov	rsi, QWORD PTR [rsp+64]
	xor	eax, eax

; 429  : }

	mov	rbx, QWORD PTR [rsp+72]
	add	rsp, 48					; 00000030H
	pop	rdi
	ret	0
WriteModule ENDP
_TEXT	ENDS
; Function compile flags: /Ogtpy
; File d:\hjwasm\hjwasm2.13.1s\hjwasm2.13.1s\assemble.c
_TEXT	SEGMENT
seg$ = 48
value$ = 56
relative$ = 64
select_data$ = 72
SetCurrOffset PROC

; 339  : {

$LN18:
	mov	QWORD PTR [rsp+8], rbx
	mov	QWORD PTR [rsp+16], rsi
	push	rdi
	sub	rsp, 32					; 00000020H
	movzx	esi, r9b
	mov	edi, edx
	mov	rbx, rcx

; 340  :     if( relative )

	test	r8b, r8b
	je	SHORT $LN2@SetCurrOff

; 341  :         value += seg->e.seginfo->current_loc;

	mov	rax, QWORD PTR [rcx+96]
	add	edi, DWORD PTR [rax+12]
$LN2@SetCurrOff:

; 342  : 
; 343  :     if ( Options.output_format == OFORMAT_OMF ) {

	cmp	DWORD PTR Options+144, 1
	jne	SHORT $LN3@SetCurrOff

; 344  :         if ( seg == CurrSeg ) {

	cmp	rcx, QWORD PTR ModuleInfo+432
	jne	SHORT $LN5@SetCurrOff

; 345  :             if ( write_to_file == TRUE )

	cmp	BYTE PTR write_to_file, 1
	jne	SHORT $LN6@SetCurrOff

; 346  :                 omf_FlushCurrSeg();

	call	omf_FlushCurrSeg
$LN6@SetCurrOff:

; 347  : 
; 348  :         /* for debugging, tell if data is located in code sections*/
; 349  :             if( select_data )

	test	sil, sil
	je	SHORT $LN8@SetCurrOff

; 350  :                 if ( ModuleInfo.CommentDataInCode )

	cmp	BYTE PTR ModuleInfo+423, 0
	je	SHORT $LN8@SetCurrOff

; 351  :                     omf_OutSelect( TRUE );

	mov	cl, 1
	call	omf_OutSelect
$LN8@SetCurrOff:

; 352  :             LastCodeBufSize = value;

	mov	DWORD PTR LastCodeBufSize, edi
$LN5@SetCurrOff:

; 353  :         }
; 354  :         seg->e.seginfo->start_loc = value;

	mov	rax, QWORD PTR [rbx+96]

; 355  :     /* for -bin, if there's an ORG (relative==false) and no initialized data
; 356  :      * has been set yet, set start_loc!
; 357  :      * v1.96: this is now also done for COFF and ELF
; 358  :      */
; 359  :     /* else if ( Options.output_format == OFORMAT_BIN && relative == FALSE ) { */
; 360  :     } else {

	jmp	SHORT $LN16@SetCurrOff
$LN3@SetCurrOff:

; 361  :         if ( write_to_file == FALSE ) {

	cmp	BYTE PTR write_to_file, 0
	jne	SHORT $LN12@SetCurrOff

; 362  :             if ( relative ) {

	test	r8b, r8b
	jne	SHORT $LN12@SetCurrOff

; 363  : #if 0 /* don't include "preceding" uninitialized data */
; 364  :                 if( seg->e.seginfo->current_loc < seg->e.seginfo->start_loc )
; 365  :                     seg->e.seginfo->start_loc = seg->e.seginfo->current_loc;
; 366  : #endif
; 367  :             } else {
; 368  :                 if ( seg->e.seginfo->bytes_written == 0 )

	mov	rax, QWORD PTR [rcx+96]
	cmp	DWORD PTR [rax+24], 0
	jne	SHORT $LN12@SetCurrOff
$LN16@SetCurrOff:

; 369  :                     seg->e.seginfo->start_loc = value;

	mov	DWORD PTR [rax+8], edi
$LN12@SetCurrOff:

; 370  :             }
; 371  :         }
; 372  :     }
; 373  : 
; 374  :     seg->e.seginfo->current_loc = value;

	mov	rax, QWORD PTR [rbx+96]
	mov	DWORD PTR [rax+12], edi

; 375  :     seg->e.seginfo->written = FALSE;

	mov	rax, QWORD PTR [rbx+96]
	and	BYTE PTR [rax+107], 223			; 000000dfH

; 376  : 
; 377  :     if( seg->e.seginfo->current_loc > seg->sym.max_offset )

	mov	rax, QWORD PTR [rbx+96]
	mov	ecx, DWORD PTR [rax+12]

; 379  : 
; 380  :     return( NOT_ERROR );

	xor	eax, eax
	cmp	ecx, DWORD PTR [rbx+56]
	jbe	SHORT $LN13@SetCurrOff

; 378  :         seg->sym.max_offset = seg->e.seginfo->current_loc;

	mov	DWORD PTR [rbx+56], ecx
$LN13@SetCurrOff:

; 381  : }

	mov	rbx, QWORD PTR [rsp+48]
	mov	rsi, QWORD PTR [rsp+56]
	add	rsp, 32					; 00000020H
	pop	rdi
	ret	0
SetCurrOffset ENDP
_TEXT	ENDS
; Function compile flags: /Ogtpy
; File d:\hjwasm\hjwasm2.13.1s\hjwasm2.13.1s\assemble.c
_TEXT	SEGMENT
string$ = 48
WritePreprocessedLine PROC

; 586  : {

$LN16:
	push	rdi
	sub	rsp, 32					; 00000020H

; 587  :     static bool PrintEmptyLine = TRUE;
; 588  :     const char *p;
; 589  : 
; 590  : #if 0 /* v2.08: removed, obsolete */
; 591  :     /* filter some macro specific directives */
; 592  :     if ( tokenarray[0].token == T_DIRECTIVE &&
; 593  :          ( tokenarray[0].tokval == T_ENDM ||
; 594  :            tokenarray[0].tokval == T_EXITM))
; 595  :         return;
; 596  :     /* don't print generated code - with one exception:
; 597  :      if the code was generated as a result of structure initialization,
; 598  :      then do!
; 599  :      */
; 600  :     if ( GeneratedCode )
; 601  :         return;
; 602  : #endif
; 603  :     if ( Token_Count > 0 ) {

	cmp	DWORD PTR ModuleInfo+496, 0
	mov	rdi, rcx
	jle	SHORT $LN5@WritePrepr

; 604  :         /* v2.08: don't print a leading % (this char is no longer filtered) */
; 605  :         for ( p = string; isspace( *p ); p++ );

	mov	QWORD PTR [rsp+48], rbx
	mov	rbx, rcx
	movsx	ecx, BYTE PTR [rcx]
	call	isspace
	test	eax, eax
	je	SHORT $LN3@WritePrepr
	npad	10
$LL4@WritePrepr:
	movsx	ecx, BYTE PTR [rbx+1]
	inc	rbx
	call	isspace
	test	eax, eax
	jne	SHORT $LL4@WritePrepr
$LN3@WritePrepr:

; 606  :         printf("%s\n", *p == '%' ? p+1 : string );

	cmp	BYTE PTR [rbx], 37			; 00000025H
	jne	SHORT $LN9@WritePrepr
	lea	rdi, QWORD PTR [rbx+1]
$LN9@WritePrepr:
	mov	rdx, rdi
	lea	rcx, OFFSET FLAT:$SG11910
	call	printf
	mov	rbx, QWORD PTR [rsp+48]

; 607  :         PrintEmptyLine = TRUE;

	mov	BYTE PTR ?PrintEmptyLine@?1??WritePreprocessedLine@@9@9, 1

; 611  :     }
; 612  : }

	add	rsp, 32					; 00000020H
	pop	rdi
	ret	0
$LN5@WritePrepr:

; 608  :     } else if ( PrintEmptyLine ) {

	cmp	BYTE PTR ?PrintEmptyLine@?1??WritePreprocessedLine@@9@9, 0
	je	SHORT $LN7@WritePrepr

; 609  :         PrintEmptyLine = FALSE;
; 610  :         printf("\n");

	lea	rcx, OFFSET FLAT:$SG11912
	mov	BYTE PTR ?PrintEmptyLine@?1??WritePreprocessedLine@@9@9, 0

; 611  :     }
; 612  : }

	add	rsp, 32					; 00000020H
	pop	rdi

; 609  :         PrintEmptyLine = FALSE;
; 610  :         printf("\n");

	jmp	printf
$LN7@WritePrepr:

; 611  :     }
; 612  : }

	add	rsp, 32					; 00000020H
	pop	rdi
	ret	0
WritePreprocessedLine ENDP
_TEXT	ENDS
; Function compile flags: /Ogtpy
; File d:\hjwasm\hjwasm2.13.1s\hjwasm2.13.1s\assemble.c
_TEXT	SEGMENT
sym$ = 64
pst$ = 72
buffer$ = 80
ConvertSectionName PROC

; 166  : {

$LN25:
	mov	QWORD PTR [rsp+8], rbx
	mov	QWORD PTR [rsp+16], rbp
	mov	QWORD PTR [rsp+24], rsi
	mov	QWORD PTR [rsp+32], rdi
	push	r12
	push	r14
	push	r15
	sub	rsp, 32					; 00000020H

; 170  :         if ( memcmp( sym->name, cst[i].src, cst[i].len ) == 0 ) {

	mov	rbp, QWORD PTR [rcx+8]
	lea	rbx, OFFSET FLAT:cst+8
	mov	r15, r8
	mov	r12, rdx
	mov	r14, rcx
	xor	edi, edi
	npad	12
$LL4@ConvertSec:
	movzx	esi, BYTE PTR [rbx-8]
	mov	rcx, rbp
	mov	rdx, QWORD PTR [rbx]
	mov	r8d, esi
	call	memcmp
	test	eax, eax
	jne	SHORT $LN2@ConvertSec

; 171  :             if ( sym->name[cst[i].len] == NULLC || ( sym->name[cst[i].len] == '$' && ( cst[i].flags & CSF_GRPCHK ) ) ) {

	movzx	eax, BYTE PTR [rsi+rbp]
	test	al, al
	je	SHORT $LN7@ConvertSec
	cmp	al, 36					; 00000024H
	jne	SHORT $LN2@ConvertSec
	test	BYTE PTR [rbx-7], 1
	jne	SHORT $LN7@ConvertSec
$LN2@ConvertSec:

; 167  :     int i;
; 168  : 
; 169  :     for ( i = 0; i < sizeof( cst ) / sizeof( cst[0] ); i++ ) {

	inc	edi
	add	rbx, 24
	movsxd	rax, edi
	cmp	rax, 4
	jb	SHORT $LL4@ConvertSec

; 192  :             }
; 193  :         }
; 194  :     }
; 195  :     return( sym->name );

	mov	rax, rbp
$LN1@ConvertSec:

; 196  : }

	mov	rbx, QWORD PTR [rsp+64]
	mov	rbp, QWORD PTR [rsp+72]
	mov	rsi, QWORD PTR [rsp+80]
	mov	rdi, QWORD PTR [rsp+88]
	add	rsp, 32					; 00000020H
	pop	r15
	pop	r14
	pop	r12
	ret	0
$LN7@ConvertSec:

; 172  : 
; 173  :                 if ( pst ) {

	lea	r9, OFFSET FLAT:__ImageBase
	test	r12, r12
	je	SHORT $LN10@ConvertSec

; 174  :                     if ( i == CSI_BSS && ( (struct dsym *)sym)->e.seginfo->bytes_written != 0 )

	cmp	edi, 3
	jne	SHORT $LN9@ConvertSec
	mov	rax, QWORD PTR [r14+96]
	cmp	DWORD PTR [rax+24], 0
	jne	SHORT $LN10@ConvertSec
$LN9@ConvertSec:

; 175  :                         ; /* don't set segment type to BSS if the segment contains initialized data */
; 176  :                     else
; 177  :                         *pst = stt[i];

	movsxd	rax, edi
	mov	eax, DWORD PTR stt[r9+rax*4]
	mov	DWORD PTR [r12], eax
$LN10@ConvertSec:

; 178  :                 }
; 179  : 
; 180  :                 if ( sym->name[cst[i].len] == NULLC ) {

	movsxd	rax, edi
	lea	r8, QWORD PTR cst[r9]
	lea	rcx, QWORD PTR [rax+rax*2]
	lea	rax, QWORD PTR [rcx*8]
	mov	rcx, QWORD PTR [r14+8]
	add	r8, rax
	movzx	edx, BYTE PTR [r8]
	cmp	BYTE PTR [rdx+rcx], 0
	jne	SHORT $LN11@ConvertSec

; 181  : #if DJGPP_SUPPORT
; 182  :                     /* DJGPP won't be happy with .rdata segment name */
; 183  :                     if( ModuleInfo.sub_format == SFORMAT_DJGPP && i == CSI_CONST )
; 184  :                         return( ".const" );
; 185  : #endif
; 186  :                     return( (char *)cst[i].dst );

	mov	rax, QWORD PTR cst[rax+r9+16]
	jmp	SHORT $LN1@ConvertSec
$LN11@ConvertSec:

; 187  :                 }
; 188  : 
; 189  :                 strcpy( buffer, cst[i].dst );

	mov	rcx, QWORD PTR cst[rax+r9+16]
	mov	rdx, r15
	npad	1
$LL13@ConvertSec:
	movzx	eax, BYTE PTR [rcx]
	lea	rcx, QWORD PTR [rcx+1]
	mov	BYTE PTR [rdx], al
	lea	rdx, QWORD PTR [rdx+1]
	test	al, al
	jne	SHORT $LL13@ConvertSec

; 190  :                 strcat( buffer, sym->name+cst[i].len );

	movzx	r8d, BYTE PTR [r8]
	lea	rcx, QWORD PTR [r15-1]
	add	r8, QWORD PTR [r14+8]
	npad	3
$LL22@ConvertSec:
	cmp	BYTE PTR [rcx+1], 0
	lea	rcx, QWORD PTR [rcx+1]
	jne	SHORT $LL22@ConvertSec
	xor	edx, edx
	npad	4
$LL23@ConvertSec:
	movzx	eax, BYTE PTR [r8+rdx]
	mov	BYTE PTR [rcx+rdx], al
	lea	rdx, QWORD PTR [rdx+1]
	test	al, al
	jne	SHORT $LL23@ConvertSec

; 191  :                 return( buffer );

	mov	rax, r15
	jmp	$LN1@ConvertSec
ConvertSectionName ENDP
_TEXT	ENDS
; Function compile flags: /Ogtpy
; File d:\hjwasm\hjwasm2.13.1s\hjwasm2.13.1s\assemble.c
_TEXT	SEGMENT
close_files PROC

; 1232 : {

$LN13:
	push	rbx
	sub	rsp, 32					; 00000020H

; 1233 :     /* v2.11: no fatal errors anymore if fclose() fails.
; 1234 :      * That's because Fatal() may cause close_files() to be
; 1235 :      * reentered and thus cause an endless loop.
; 1236 :      */
; 1237 : 
; 1238 :     /* close ASM file */
; 1239 :     if( CurrFile[ASM] != NULL ) {

	mov	rcx, QWORD PTR ModuleInfo+96
	xor	ebx, ebx
	test	rcx, rcx
	je	SHORT $LN2@close_file

; 1240 :         if( fclose( CurrFile[ASM] ) != 0 )

	call	fclose
	test	eax, eax
	je	SHORT $LN3@close_file

; 1241 :             EmitErr( CANNOT_CLOSE_FILE, CurrFName[ASM], errno );

	call	_errno
	mov	rdx, QWORD PTR ModuleInfo+128
	lea	ecx, QWORD PTR [rbx+107]
	mov	r8d, DWORD PTR [rax]
	call	EmitErr
$LN3@close_file:

; 1242 :         CurrFile[ASM] = NULL;

	mov	QWORD PTR ModuleInfo+96, rbx
$LN2@close_file:

; 1243 :     }
; 1244 : 
; 1245 :     /* close OBJ file */
; 1246 :     if ( CurrFile[OBJ] != NULL ) {

	mov	rcx, QWORD PTR ModuleInfo+104
	test	rcx, rcx
	je	SHORT $LN4@close_file

; 1247 :         if ( fclose( CurrFile[OBJ] ) != 0 )

	call	fclose
	test	eax, eax
	je	SHORT $LN5@close_file

; 1248 :             EmitErr( CANNOT_CLOSE_FILE, CurrFName[OBJ], errno );

	call	_errno
	mov	rdx, QWORD PTR ModuleInfo+136
	mov	ecx, 107				; 0000006bH
	mov	r8d, DWORD PTR [rax]
	call	EmitErr
$LN5@close_file:

; 1249 :         CurrFile[OBJ] = NULL;

	mov	QWORD PTR ModuleInfo+104, rbx
$LN4@close_file:

; 1250 :     }
; 1251 :     /* delete the object module if errors occured */
; 1252 :     if ( Options.syntax_check_only == FALSE &&

	cmp	BYTE PTR Options+172, bl
	jne	SHORT $LN6@close_file
	cmp	DWORD PTR ModuleInfo, ebx
	jbe	SHORT $LN6@close_file

; 1253 :         ModuleInfo.g.error_count > 0 ) {
; 1254 :         remove( CurrFName[OBJ] );

	mov	rcx, QWORD PTR ModuleInfo+136
	call	remove
$LN6@close_file:

; 1255 :     }
; 1256 : 
; 1257 :     if( CurrFile[LST] != NULL ) {

	mov	rcx, QWORD PTR ModuleInfo+112
	test	rcx, rcx
	je	SHORT $LN7@close_file

; 1258 :         fclose( CurrFile[LST] );

	call	fclose

; 1259 :         CurrFile[LST] = NULL;

	mov	QWORD PTR ModuleInfo+112, rbx
$LN7@close_file:

; 1260 :     }
; 1261 : 
; 1262 :     /* close ERR file */
; 1263 :     if ( CurrFile[ERR] != NULL ) {

	mov	rcx, QWORD PTR ModuleInfo+120
	test	rcx, rcx
	je	SHORT $LN8@close_file

; 1264 :         fclose( CurrFile[ERR] );

	call	fclose

; 1265 :         CurrFile[ERR] = NULL;

	mov	QWORD PTR ModuleInfo+120, rbx

; 1269 :     return;
; 1270 : }

	add	rsp, 32					; 00000020H
	pop	rbx
	ret	0
$LN8@close_file:

; 1266 :     } else if ( CurrFName[ERR] )

	mov	rcx, QWORD PTR ModuleInfo+152
	test	rcx, rcx
	je	SHORT $LN10@close_file

; 1269 :     return;
; 1270 : }

	add	rsp, 32					; 00000020H
	pop	rbx

; 1267 :         /* nothing written, delete any existing ERR file */
; 1268 :         remove( CurrFName[ERR] );

	jmp	remove
$LN10@close_file:

; 1269 :     return;
; 1270 : }

	add	rsp, 32					; 00000020H
	pop	rbx
	ret	0
close_files ENDP
_TEXT	ENDS
; Function compile flags: /Ogtpy
; File d:\hjwasm\hjwasm2.13.1s\hjwasm2.13.1s\assemble.c
_TEXT	SEGMENT
value$ = 8
SetMasm510 PROC

; 619  :     ModuleInfo.m510 = value;
; 620  :     ModuleInfo.oldstructs = value;
; 621  :     /* ModuleInfo.oldmacros = value; not implemented yet */
; 622  :     ModuleInfo.dotname = value;
; 623  :     ModuleInfo.setif2 = value;

	movzx	eax, cl
	and	eax, 1
	lea	edx, DWORD PTR [rax*4]
	or	edx, eax
	shl	edx, 2
	or	edx, eax
	shl	edx, 2
	or	edx, eax
	mov	eax, DWORD PTR ModuleInfo+408
	and	eax, -1361				; fffffaafH
	shl	edx, 4
	or	edx, eax
	mov	DWORD PTR ModuleInfo+408, edx

; 624  : 
; 625  :     if ( value ) {

	test	cl, cl
	je	SHORT $LN4@SetMasm510

; 626  :         if ( ModuleInfo.model == MODEL_NONE ) {

	cmp	DWORD PTR ModuleInfo+360, 0
	jne	SHORT $LN4@SetMasm510

; 627  :             /* if no model is specified, set OFFSET:SEGMENT */
; 628  :             ModuleInfo.offsettype = OT_SEGMENT;
; 629  :             if ( ModuleInfo.langtype == LANG_NONE ) {

	cmp	DWORD PTR ModuleInfo+364, 0
	mov	DWORD PTR ModuleInfo+384, 2
	jne	SHORT $LN4@SetMasm510

; 630  :                 ModuleInfo.scoped = FALSE;

	btr	edx, 7

; 631  :                 ModuleInfo.procs_private = TRUE;

	or	edx, 4
	mov	DWORD PTR ModuleInfo+408, edx
$LN4@SetMasm510:

; 632  :             }
; 633  :         }
; 634  :     }
; 635  :     return;
; 636  : }

	ret	0
SetMasm510 ENDP
_TEXT	ENDS
; Function compile flags: /Ogtpy
; File d:\hjwasm\hjwasm2.13.1s\hjwasm2.13.1s\assemble.c
_TEXT	SEGMENT
prev_written$ = 64
source$ = 112
AssembleModule PROC

; 1437 : {

$LN59:
	mov	QWORD PTR [rsp+16], rbx
	mov	QWORD PTR [rsp+24], rbp
	mov	QWORD PTR [rsp+32], rsi
	mov	QWORD PTR [rsp+8], rcx
	push	rdi
	push	r14
	push	r15
	sub	rsp, 80					; 00000050H

; 1438 :     uint_32       prev_written = -1;
; 1439 :     uint_32       curr_written;
; 1440 :     int           starttime;
; 1441 :     int           endtime;
; 1442 :     struct dsym   *seg;
; 1443 : 
; 1444 :     DebugMsg(("AssembleModule(\"%s\") enter\n", source ));
; 1445 : 
; 1446 :     memset( &ModuleInfo, 0, sizeof(ModuleInfo) );

	xor	edx, edx
	mov	DWORD PTR prev_written$[rsp], -1	; ffffffffH
	mov	r8d, 776				; 00000308H
	lea	rcx, OFFSET FLAT:ModuleInfo
	call	memset

; 1447 :     DebugCmd( ModuleInfo.cref = TRUE ); /* enable debug displays */
; 1448 : 
; 1449 : #if 1 //def __SW_BD
; 1450 :     /* fatal errors during assembly won't terminate the program,
; 1451 :      * just the assembly step.!
; 1452 :      */
; 1453 :     if ( setjmp( jmpenv ) ) {

	lea	rcx, OFFSET FLAT:jmpenv
	mov	rdx, rsp
	call	_setjmp
	xor	ebp, ebp
	test	eax, eax
	je	SHORT $LN11@AssembleMo

; 1454 :         if ( ModuleInfo.g.src_stack )

	cmp	QWORD PTR ModuleInfo+200, rbp
	je	$done$60

; 1455 :             ClearSrcStack(); /* avoid memory leaks! */

	call	ClearSrcStack

; 1456 :         goto done;

	jmp	$done$60
$LN11@AssembleMo:

; 1457 :     }
; 1458 : #endif
; 1459 : 
; 1460 :     AssembleInit( source );

	mov	rcx, QWORD PTR source$[rsp]
	call	AssembleInit

; 1461 : 
; 1462 :     starttime = clock();

	call	clock
	mov	r15d, eax

; 1463 : 
; 1464 : #if 0 /* 1=trigger a protection fault */
; 1465 :     seg = NULL;
; 1466 :     seg->sym.state = SYM_UNDEFINED;
; 1467 : #endif
; 1468 : 
; 1469 :     for( Parse_Pass = PASS_1; ; Parse_Pass++ ) {

	mov	DWORD PTR Parse_Pass, ebp

; 1470 : 
; 1471 :         DebugMsg(( "*************\npass %u\n*************\n", Parse_Pass + 1 ));
; 1472 :         OnePass();

	call	OnePass

; 1473 : 
; 1474 :         if( ModuleInfo.g.error_count > 0 ) {

	cmp	DWORD PTR ModuleInfo, ebp
	ja	$LN37@AssembleMo
	mov	edi, DWORD PTR prev_written$[rsp]
	npad	14
$LL4@AssembleMo:

; 1475 :             DebugMsg(("AssembleModule(%u): errorcnt=%u\n", Parse_Pass + 1, ModuleInfo.g.error_count ));
; 1476 :             break;
; 1477 :         }
; 1478 : 
; 1479 :         /* calculate total size of segments */
; 1480 :         for ( curr_written = 0, seg = SymTables[TAB_SEG].head; seg ; seg = seg->next ) {

	mov	rbx, QWORD PTR SymTables+32
	mov	ecx, ebp
	mov	rax, rbx
	test	rbx, rbx
	je	SHORT $LN6@AssembleMo
$LL7@AssembleMo:

; 1481 :             /* v2.04: use <max_offset> instead of <bytes_written>
; 1482 :              * (the latter is not always reliable due to backpatching).
; 1483 :              */
; 1484 :             //curr_written += seg->e.seginfo->bytes_written;
; 1485 :             curr_written += seg->sym.max_offset;

	add	ecx, DWORD PTR [rax+56]
	mov	rax, QWORD PTR [rax+104]
	test	rax, rax
	jne	SHORT $LL7@AssembleMo
$LN6@AssembleMo:

; 1486 :             DebugMsg(("AssembleModule(%u): segm=%-8s start=%8" I32_SPEC "X max_ofs=%8" I32_SPEC "X written=%" I32_SPEC "X\n",
; 1487 :                       Parse_Pass + 1, seg->sym.name, seg->e.seginfo->start_loc, seg->sym.max_offset,
; 1488 :                       seg->e.seginfo->bytes_written ));
; 1489 :         }
; 1490 : 
; 1491 :         /* if there's no phase error and size of segments didn't change, we're done */
; 1492 :         DebugMsg(("AssembleModule(%u): PhaseError=%u, prev_written=%" I32_SPEC "X, curr_written=%" I32_SPEC "X\n", Parse_Pass + 1, ModuleInfo.PhaseError, prev_written, curr_written));
; 1493 :         if( !ModuleInfo.PhaseError && prev_written == curr_written )

	cmp	BYTE PTR ModuleInfo+422, bpl
	jne	SHORT $LN14@AssembleMo
	cmp	edi, ecx
	je	$LN37@AssembleMo
$LN14@AssembleMo:

; 1494 :             break;
; 1495 : 
; 1496 : #ifdef DEBUG_OUT
; 1497 :         if ( curr_written < prev_written && prev_written != -1 ) {
; 1498 :             printf( "size shrank from %" I32_SPEC "X to %" I32_SPEC "X in pass %u\n", prev_written, curr_written, Parse_Pass + 1 );
; 1499 :         }
; 1500 : #endif
; 1501 : 
; 1502 :         DebugMsg(("AssembleModule(%u): prepare for next pass\n", Parse_Pass + 1));
; 1503 :         prev_written = curr_written;
; 1504 : 
; 1505 :         if ( Parse_Pass % 200 == 199 )

	mov	r8d, DWORD PTR Parse_Pass
	mov	edi, ecx
	mov	DWORD PTR prev_written$[rsp], ecx
	mov	eax, 1374389535				; 51eb851fH
	mul	r8d
	mov	ecx, r8d
	shr	edx, 6
	imul	eax, edx, 200				; 000000c8H
	sub	ecx, eax
	cmp	ecx, 199				; 000000c7H
	jne	SHORT $LN15@AssembleMo

; 1506 :             EmitWarn( 2, ASSEMBLY_PASSES, Parse_Pass+1 );

	lea	edx, QWORD PTR [rcx+41]
	inc	r8d
	mov	ecx, 2
	call	EmitWarn
	mov	rbx, QWORD PTR SymTables+32
$LN15@AssembleMo:

; 1507 : #ifdef DEBUG_OUT
; 1508 :         if ( Options.max_passes && Parse_Pass == (Options.max_passes - 1) )
; 1509 :             break;
; 1510 : #endif
; 1511 :         if ( Options.line_numbers ) {

	cmp	BYTE PTR Options+1, bpl
	je	SHORT $LN18@AssembleMo

; 1512 : #if COFF_SUPPORT
; 1513 :             if ( Options.output_format == OFORMAT_COFF ) {

	cmp	DWORD PTR Options+144, 2
	jne	SHORT $LN17@AssembleMo

; 1514 :                 for( seg = SymTables[TAB_SEG].head; seg; seg = seg->next ) {

	test	rbx, rbx
	je	SHORT $LN18@AssembleMo
	npad	9
$LL10@AssembleMo:

; 1515 :                     if ( seg->e.seginfo->LinnumQueue )

	mov	rax, QWORD PTR [rbx+96]
	mov	rcx, QWORD PTR [rax+56]
	test	rcx, rcx
	je	SHORT $LN19@AssembleMo

; 1516 :                         QueueDeleteLinnum( seg->e.seginfo->LinnumQueue );

	call	QueueDeleteLinnum
$LN19@AssembleMo:

; 1517 :                     seg->e.seginfo->LinnumQueue = NULL;

	mov	rax, QWORD PTR [rbx+96]
	mov	QWORD PTR [rax+56], rbp
	mov	rbx, QWORD PTR [rbx+104]
	test	rbx, rbx
	jne	SHORT $LL10@AssembleMo

; 1518 :                 }
; 1519 :             } else {

	jmp	SHORT $LN18@AssembleMo
$LN17@AssembleMo:

; 1520 : #endif
; 1521 :                 QueueDeleteLinnum( &LinnumQueue );

	lea	rcx, OFFSET FLAT:LinnumQueue
	call	QueueDeleteLinnum

; 1522 :                 LinnumQueue.head = NULL;

	mov	QWORD PTR LinnumQueue, rbp
$LN18@AssembleMo:

; 1523 : #if COFF_SUPPORT
; 1524 :             }
; 1525 : #endif
; 1526 :         }
; 1527 : 
; 1528 :         /* set file position of ASM and LST files for next pass */
; 1529 : 
; 1530 :         rewind( CurrFile[ASM] );

	mov	rcx, QWORD PTR ModuleInfo+96
	call	rewind

; 1531 :         if ( write_to_file && Options.output_format == OFORMAT_OMF )

	cmp	BYTE PTR write_to_file, bpl
	je	SHORT $LN20@AssembleMo
	cmp	DWORD PTR Options+144, 1
	jne	SHORT $LN20@AssembleMo

; 1532 :             omf_set_filepos();

	call	omf_set_filepos
$LN20@AssembleMo:

; 1533 : 
; 1534 : #if FASTPASS
; 1535 :         if ( UseSavedState == FALSE && CurrFile[LST] ) {

	cmp	BYTE PTR UseSavedState, bpl
	jne	SHORT $LN2@AssembleMo
	mov	rcx, QWORD PTR ModuleInfo+112
	test	rcx, rcx
	je	SHORT $LN2@AssembleMo

; 1536 : #else
; 1537 :         if ( CurrFile[LST] ) {
; 1538 : #endif
; 1539 :             rewind( CurrFile[LST] );

	call	rewind

; 1540 :             LstInit();

	call	LstInit
$LN2@AssembleMo:

; 1470 : 
; 1471 :         DebugMsg(( "*************\npass %u\n*************\n", Parse_Pass + 1 ));
; 1472 :         OnePass();

	inc	DWORD PTR Parse_Pass
	call	OnePass

; 1473 : 
; 1474 :         if( ModuleInfo.g.error_count > 0 ) {

	cmp	DWORD PTR ModuleInfo, ebp
	jbe	$LL4@AssembleMo
$LN37@AssembleMo:

; 1541 :         }
; 1542 :     } /* end for() */
; 1543 : 
; 1544 :     if ( ( Parse_Pass > PASS_1 ) && write_to_file )

	cmp	DWORD PTR Parse_Pass, ebp
	jbe	SHORT $LN22@AssembleMo
	cmp	BYTE PTR write_to_file, bpl
	je	SHORT $LN22@AssembleMo

; 1545 :         WriteModule( &ModuleInfo );

	lea	rcx, OFFSET FLAT:ModuleInfo
	call	WriteModule
$LN22@AssembleMo:

; 1546 : 
; 1547 :     if ( ModuleInfo.pCodeBuff ) {
; 1548 :         LclFree( ModuleInfo.pCodeBuff );
; 1549 :     }
; 1550 :     DebugMsg(("AssembleModule: finished, cleanup\n"));
; 1551 : 
; 1552 :     /* Write a symbol listing file (if requested) */
; 1553 :     LstWriteCRef();

	call	LstWriteCRef

; 1554 : 
; 1555 :     endtime = clock(); /* is in ms already */

	call	clock

; 1556 : 
; 1557 :     sprintf( CurrSource, MsgGetEx( MSG_ASSEMBLY_RESULTS ),

	mov	ecx, DWORD PTR ModuleInfo+428
	mov	esi, eax
	call	GetFName
	mov	edi, DWORD PTR Parse_Pass
	mov	r14, rax
	inc	edi
	sub	esi, r15d
	call	GetLineNumber
	mov	ecx, 1
	mov	ebx, eax
	call	MsgGetEx
	mov	ecx, DWORD PTR ModuleInfo
	mov	rdx, rax
	mov	r8, QWORD PTR [r14]
	mov	r9d, ebx
	mov	DWORD PTR [rsp+56], ecx
	mov	ecx, DWORD PTR ModuleInfo+4
	mov	DWORD PTR [rsp+48], ecx
	mov	rcx, QWORD PTR ModuleInfo+464
	mov	DWORD PTR [rsp+40], esi
	mov	DWORD PTR [rsp+32], edi
	call	sprintf

; 1558 :              GetFName( ModuleInfo.srcfile )->fname,
; 1559 :              GetLineNumber(),
; 1560 :              Parse_Pass + 1,
; 1561 :              endtime - starttime,
; 1562 :              ModuleInfo.g.warning_count,
; 1563 :              ModuleInfo.g.error_count);
; 1564 :     if ( Options.quiet == FALSE )

	cmp	BYTE PTR Options, bpl
	jne	SHORT $LN24@AssembleMo

; 1565 :         printf( "%s\n", CurrSource );

	mov	rdx, QWORD PTR ModuleInfo+464
	lea	rcx, OFFSET FLAT:$SG12148
	call	printf
$LN24@AssembleMo:

; 1566 : 
; 1567 :     if ( CurrFile[LST] ) {

	cmp	QWORD PTR ModuleInfo+112, rbp
	je	SHORT $done$60

; 1568 :         LstPrintf( CurrSource );

	mov	rcx, QWORD PTR ModuleInfo+464
	call	LstPrintf

; 1569 :         LstNL();

	call	LstNL
$done$60:

; 1570 :     }
; 1571 : #if 1 //def __SW_BD
; 1572 : done:
; 1573 : #endif
; 1574 :     AssembleFini();

	call	SegmentFini
	call	SymFini
	call	ResWordsFini
	call	FreePubQueue
	call	InputFini
	call	close_files
	xorps	xmm0, xmm0
	xorps	xmm1, xmm1
	movdqu	XMMWORD PTR ModuleInfo+128, xmm0
	movdqu	XMMWORD PTR ModuleInfo+144, xmm1
	call	MemFini

; 1575 :     DebugMsg(("AssembleModule exit\n"));
; 1576 :     return( ModuleInfo.g.error_count == 0 );

	cmp	DWORD PTR ModuleInfo, ebp

; 1577 : }

	lea	r11, QWORD PTR [rsp+80]
	mov	rbx, QWORD PTR [r11+40]
	mov	rsi, QWORD PTR [r11+56]
	sete	bpl
	mov	eax, ebp
	mov	rbp, QWORD PTR [r11+48]
	mov	rsp, r11
	pop	r15
	pop	r14
	pop	rdi
	ret	0
AssembleModule ENDP
_TEXT	ENDS
; Function compile flags: /Ogtpy
; File d:\hjwasm\hjwasm2.13.1s\hjwasm2.13.1s\assemble.c
_TEXT	SEGMENT
pbytes$ = 48
len$ = 56
fixup$ = 64
OutputBytes PROC

; 302  : {

$LN10:
	sub	rsp, 40					; 00000028H

; 303  :     if( write_to_file == TRUE ) {

	cmp	BYTE PTR write_to_file, 1
	mov	QWORD PTR [rsp+56], rbp
	mov	rbp, rcx
	mov	QWORD PTR [rsp+64], rsi
	mov	rsi, r8
	mov	QWORD PTR [rsp+32], rdi
	movsxd	rdi, edx
	jne	SHORT $LN2@OutputByte

; 304  :         uint_32 idx = CurrSeg->e.seginfo->current_loc - CurrSeg->e.seginfo->start_loc;

	mov	rdx, QWORD PTR ModuleInfo+432
	mov	QWORD PTR [rsp+48], rbx
	mov	rax, QWORD PTR [rdx+96]
	mov	ebx, DWORD PTR [rax+12]
	sub	ebx, DWORD PTR [rax+8]

; 305  : #if 0 /* def DEBUG_OUT */
; 306  :         if ( CurrSeg->e.seginfo->current_loc < CurrSeg->e.seginfo->start_loc )
; 307  :             _asm int 3;
; 308  : #endif
; 309  :         /**/myassert( CurrSeg->e.seginfo->current_loc >= CurrSeg->e.seginfo->start_loc );
; 310  :         if( Options.output_format == OFORMAT_OMF && ((idx + len) > MAX_LEDATA_THRESHOLD ) ) {

	cmp	DWORD PTR Options+144, 1
	jne	SHORT $LN4@OutputByte
	lea	eax, DWORD PTR [rbx+rdi]
	cmp	eax, 1014				; 000003f6H
	jbe	SHORT $LN4@OutputByte

; 311  :             omf_FlushCurrSeg();

	call	omf_FlushCurrSeg

; 312  :             idx = CurrSeg->e.seginfo->current_loc - CurrSeg->e.seginfo->start_loc;

	mov	rdx, QWORD PTR ModuleInfo+432
	mov	rax, QWORD PTR [rdx+96]
	mov	ebx, DWORD PTR [rax+12]
	sub	ebx, DWORD PTR [rax+8]
$LN4@OutputByte:

; 313  :         }
; 314  :         if ( fixup )

	test	rsi, rsi
	je	SHORT $LN5@OutputByte

; 315  :             store_fixup( fixup, CurrSeg, (int_32 *)pbytes );

	mov	r8, rbp
	mov	rcx, rsi
	call	store_fixup
	mov	rdx, QWORD PTR ModuleInfo+432
$LN5@OutputByte:

; 316  :         //DebugMsg(("OutputBytes: buff=%p, idx=%" I32_SPEC "X, byte=%X\n", CurrSeg->e.seginfo->CodeBuffer, idx, *pbytes ));
; 317  :         memcpy( &CurrSeg->e.seginfo->CodeBuffer[idx], pbytes, len );

	mov	rax, QWORD PTR [rdx+96]
	mov	r8, rdi
	mov	ecx, ebx
	mov	rdx, rbp
	add	rcx, QWORD PTR [rax+16]
	call	memcpy
	mov	rbx, QWORD PTR [rsp+48]

; 318  :     }

	jmp	SHORT $LN6@OutputByte
$LN2@OutputByte:

; 319  : #if 1
; 320  :     /* check this in pass 1 only */
; 321  :     else if( CurrSeg->e.seginfo->current_loc < CurrSeg->e.seginfo->start_loc ) {

	mov	rax, QWORD PTR ModuleInfo+432
	mov	rcx, QWORD PTR [rax+96]
	mov	eax, DWORD PTR [rcx+12]
	cmp	eax, DWORD PTR [rcx+8]
	jae	SHORT $LN6@OutputByte

; 322  :         DebugMsg(("OutputBytes: segment start loc changed from %" I32_SPEC "Xh to %" I32_SPEC "Xh\n",
; 323  :                   CurrSeg->e.seginfo->start_loc,
; 324  :                   CurrSeg->e.seginfo->current_loc));
; 325  :         CurrSeg->e.seginfo->start_loc = CurrSeg->e.seginfo->current_loc;

	mov	DWORD PTR [rcx+8], eax
$LN6@OutputByte:

; 326  :     }
; 327  : #endif
; 328  :     CurrSeg->e.seginfo->current_loc += len;

	mov	rax, QWORD PTR ModuleInfo+432
	mov	rsi, QWORD PTR [rsp+64]
	mov	rbp, QWORD PTR [rsp+56]
	mov	rcx, QWORD PTR [rax+96]
	add	DWORD PTR [rcx+12], edi

; 329  :     CurrSeg->e.seginfo->bytes_written += len;

	mov	rax, QWORD PTR ModuleInfo+432
	mov	rcx, QWORD PTR [rax+96]
	add	DWORD PTR [rcx+24], edi

; 330  :     CurrSeg->e.seginfo->written = TRUE;

	mov	rax, QWORD PTR ModuleInfo+432
	mov	rdi, QWORD PTR [rsp+32]
	mov	rcx, QWORD PTR [rax+96]
	or	BYTE PTR [rcx+107], 32			; 00000020H

; 331  :     if( CurrSeg->e.seginfo->current_loc > CurrSeg->sym.max_offset )

	mov	rcx, QWORD PTR ModuleInfo+432
	mov	rax, QWORD PTR [rcx+96]
	mov	edx, DWORD PTR [rax+12]
	cmp	edx, DWORD PTR [rcx+56]
	jbe	SHORT $LN7@OutputByte

; 332  :         CurrSeg->sym.max_offset = CurrSeg->e.seginfo->current_loc;

	mov	DWORD PTR [rcx+56], edx
$LN7@OutputByte:

; 333  : }

	add	rsp, 40					; 00000028H
	ret	0
OutputBytes ENDP
_TEXT	ENDS
; Function compile flags: /Ogtpy
; File d:\hjwasm\hjwasm2.13.1s\hjwasm2.13.1s\assemble.c
_TEXT	SEGMENT
byte$ = 48
len$ = 56
FillDataBytes PROC

; 288  : {

$LN20:
	mov	QWORD PTR [rsp+8], rbx
	push	rdi
	sub	rsp, 32					; 00000020H

; 289  :     if ( ModuleInfo.CommentDataInCode )

	cmp	BYTE PTR ModuleInfo+423, 0
	mov	ebx, edx
	movzx	edi, cl
	je	SHORT $LN5@FillDataBy

; 290  :         omf_OutSelect( TRUE );

	mov	cl, 1
	call	omf_OutSelect
$LN5@FillDataBy:

; 291  :     for( ; len; len-- )

	test	ebx, ebx
	je	$LN3@FillDataBy
	mov	rax, QWORD PTR ModuleInfo+432
	npad	2
$LL4@FillDataBy:

; 292  :         OutputByte( byte );

	cmp	BYTE PTR write_to_file, 1
	jne	SHORT $LN8@FillDataBy
	lea	rdx, QWORD PTR [rax+96]
	mov	rax, QWORD PTR [rax+96]
	mov	ecx, DWORD PTR [rax+12]
	sub	ecx, DWORD PTR [rax+8]
	cmp	DWORD PTR Options+144, 1
	jne	SHORT $LN10@FillDataBy
	cmp	ecx, 1014				; 000003f6H
	jb	SHORT $LN10@FillDataBy
	call	omf_FlushCurrSeg
	mov	rdx, QWORD PTR ModuleInfo+432
	add	rdx, 96					; 00000060H
	mov	rax, QWORD PTR [rdx]
	mov	ecx, DWORD PTR [rax+12]
	sub	ecx, DWORD PTR [rax+8]
$LN10@FillDataBy:
	mov	rax, QWORD PTR [rdx]
	mov	rax, QWORD PTR [rax+16]
	mov	BYTE PTR [rcx+rax], dil
	jmp	SHORT $LN18@FillDataBy
$LN8@FillDataBy:
	mov	rcx, QWORD PTR [rax+96]
	mov	edx, DWORD PTR [rcx+12]
	cmp	edx, DWORD PTR [rcx+8]
	jae	SHORT $LN11@FillDataBy
	mov	DWORD PTR [rcx+8], edx
$LN18@FillDataBy:
	mov	rax, QWORD PTR ModuleInfo+432
$LN11@FillDataBy:
	mov	rcx, QWORD PTR [rax+96]
	inc	DWORD PTR [rcx+12]
	mov	rax, QWORD PTR ModuleInfo+432
	mov	rcx, QWORD PTR [rax+96]
	inc	DWORD PTR [rcx+24]
	mov	rax, QWORD PTR ModuleInfo+432
	mov	rcx, QWORD PTR [rax+96]
	or	BYTE PTR [rcx+107], 32			; 00000020H
	mov	rax, QWORD PTR ModuleInfo+432
	mov	rcx, QWORD PTR [rax+96]
	mov	edx, DWORD PTR [rcx+12]
	cmp	edx, DWORD PTR [rax+56]
	jbe	SHORT $LN2@FillDataBy
	mov	DWORD PTR [rax+56], edx
	mov	rax, QWORD PTR ModuleInfo+432
$LN2@FillDataBy:

; 291  :     for( ; len; len-- )

	sub	ebx, 1
	jne	$LL4@FillDataBy
$LN3@FillDataBy:

; 293  : }

	mov	rbx, QWORD PTR [rsp+48]
	add	rsp, 32					; 00000020H
	pop	rdi
	ret	0
FillDataBytes ENDP
_TEXT	ENDS
; Function compile flags: /Ogtpy
; File d:\hjwasm\hjwasm2.13.1s\hjwasm2.13.1s\assemble.c
_TEXT	SEGMENT
pBytes$ = 48
len$ = 56
OutputBinBytes PROC

; 238  : {

$LN20:
	mov	QWORD PTR [rsp+8], rbx
	push	rdi
	sub	rsp, 32					; 00000020H

; 239  : 	int i;
; 240  : 
; 241  : 	if (write_to_file == TRUE) {

	cmp	BYTE PTR write_to_file, 1
	mov	rbx, rcx

; 242  : 		uint_32 idx = CurrSeg->e.seginfo->current_loc - CurrSeg->e.seginfo->start_loc;

	mov	rax, QWORD PTR ModuleInfo+432
	mov	edi, edx
	jne	SHORT $LN5@OutputBinB
	mov	r8, QWORD PTR [rax+96]
	mov	eax, DWORD PTR [r8+12]
	sub	eax, DWORD PTR [r8+8]

; 243  : #ifdef DEBUG_OUT
; 244  : 		if (CurrSeg->e.seginfo->current_loc < CurrSeg->e.seginfo->start_loc) {
; 245  : 			;//_asm int 3;
; 246  : 		}
; 247  : #endif
; 248  : 		/**/myassert(CurrSeg->e.seginfo->current_loc >= CurrSeg->e.seginfo->start_loc);
; 249  : 		if (Options.output_format == OFORMAT_OMF && idx >= MAX_LEDATA_THRESHOLD) {

	cmp	DWORD PTR Options+144, 1
	jne	SHORT $LN7@OutputBinB
	cmp	eax, 1014				; 000003f6H
	jb	SHORT $LN7@OutputBinB

; 250  : 			omf_FlushCurrSeg();

	call	omf_FlushCurrSeg

; 251  : 			idx = CurrSeg->e.seginfo->current_loc - CurrSeg->e.seginfo->start_loc;

	mov	rax, QWORD PTR ModuleInfo+432
	mov	rcx, QWORD PTR [rax+96]
	mov	eax, DWORD PTR [rcx+12]
	sub	eax, DWORD PTR [rcx+8]
$LN7@OutputBinB:

; 252  : 		}
; 253  : 		//DebugMsg(("OutputByte: buff=%p, idx=%" I32_SPEC "X, byte=%X, codebuff[0]=%X\n", CurrSeg->e.seginfo->CodeBuffer, idx, byte, *CurrSeg->e.seginfo->CodeBuffer ));
; 254  : 		for (i = 0; i < len; i++)

	test	edi, edi
	je	SHORT $LN8@OutputBinB
	mov	r10, rdi
	npad	8
$LL4@OutputBinB:

; 255  : 		{
; 256  : 			CurrSeg->e.seginfo->CodeBuffer[idx++] = *(pBytes++);

	mov	rcx, QWORD PTR ModuleInfo+432
	lea	rbx, QWORD PTR [rbx+1]
	mov	rdx, QWORD PTR [rcx+96]
	movzx	ecx, BYTE PTR [rbx-1]
	mov	r8, QWORD PTR [rdx+16]
	mov	BYTE PTR [rax+r8], cl
	lea	eax, DWORD PTR [rax+1]
	sub	r10, 1
	jne	SHORT $LL4@OutputBinB

; 257  : 		}
; 258  : 
; 259  : 	}

	jmp	SHORT $LN8@OutputBinB
$LN5@OutputBinB:

; 260  : #if 1
; 261  : 	/* check this in pass 1 only */
; 262  : 	else if (CurrSeg->e.seginfo->current_loc < CurrSeg->e.seginfo->start_loc) {

	mov	rcx, QWORD PTR [rax+96]
	mov	eax, DWORD PTR [rcx+12]
	cmp	eax, DWORD PTR [rcx+8]
	jae	SHORT $LN8@OutputBinB

; 263  : 		DebugMsg(("OutputByte: segment start loc changed from %" I32_SPEC "Xh to %" I32_SPEC "Xh\n",
; 264  : 			CurrSeg->e.seginfo->start_loc,
; 265  : 			CurrSeg->e.seginfo->current_loc));
; 266  : 		CurrSeg->e.seginfo->start_loc = CurrSeg->e.seginfo->current_loc;

	mov	DWORD PTR [rcx+8], eax
$LN8@OutputBinB:

; 267  : 	}
; 268  : #endif
; 269  : 	CurrSeg->e.seginfo->current_loc+=len;

	mov	rax, QWORD PTR ModuleInfo+432
	mov	rcx, QWORD PTR [rax+96]
	add	DWORD PTR [rcx+12], edi

; 270  : 	CurrSeg->e.seginfo->bytes_written+=len;

	mov	rax, QWORD PTR ModuleInfo+432
	mov	rcx, QWORD PTR [rax+96]
	add	DWORD PTR [rcx+24], edi

; 271  : 	CurrSeg->e.seginfo->written = TRUE;

	mov	rax, QWORD PTR ModuleInfo+432
	mov	rcx, QWORD PTR [rax+96]
	or	BYTE PTR [rcx+107], 32			; 00000020H

; 272  : 	if (CurrSeg->e.seginfo->current_loc > CurrSeg->sym.max_offset)

	mov	rcx, QWORD PTR ModuleInfo+432
	mov	rax, QWORD PTR [rcx+96]
	mov	edx, DWORD PTR [rax+12]
	cmp	edx, DWORD PTR [rcx+56]
	jbe	SHORT $LN9@OutputBinB

; 273  : 		CurrSeg->sym.max_offset = CurrSeg->e.seginfo->current_loc;

	mov	DWORD PTR [rcx+56], edx
$LN9@OutputBinB:

; 274  : }

	mov	rbx, QWORD PTR [rsp+48]
	add	rsp, 32					; 00000020H
	pop	rdi
	ret	0
OutputBinBytes ENDP
_TEXT	ENDS
; Function compile flags: /Ogtpy
; File d:\hjwasm\hjwasm2.13.1s\hjwasm2.13.1s\assemble.c
_TEXT	SEGMENT
byte$ = 48
OutputByte PROC

; 204  : {

$LN9:
	push	rbx
	sub	rsp, 32					; 00000020H

; 205  :     if( write_to_file == TRUE ) {

	cmp	BYTE PTR write_to_file, 1
	movzx	ebx, cl
	jne	SHORT $LN2@OutputByte

; 206  :         uint_32 idx = CurrSeg->e.seginfo->current_loc - CurrSeg->e.seginfo->start_loc;

	mov	r8, QWORD PTR ModuleInfo+432
	add	r8, 96					; 00000060H
	mov	rax, QWORD PTR [r8]
	mov	edx, DWORD PTR [rax+12]
	sub	edx, DWORD PTR [rax+8]

; 207  : #ifdef DEBUG_OUT
; 208  :         if ( CurrSeg->e.seginfo->current_loc < CurrSeg->e.seginfo->start_loc ) {
; 209  :             ;//_asm int 3;
; 210  :         }
; 211  : #endif
; 212  :         /**/myassert( CurrSeg->e.seginfo->current_loc >= CurrSeg->e.seginfo->start_loc );
; 213  :         if( Options.output_format == OFORMAT_OMF && idx >= MAX_LEDATA_THRESHOLD ) {

	cmp	DWORD PTR Options+144, 1
	jne	SHORT $LN4@OutputByte
	cmp	edx, 1014				; 000003f6H
	jb	SHORT $LN4@OutputByte

; 214  :             omf_FlushCurrSeg();

	call	omf_FlushCurrSeg

; 215  :             idx = CurrSeg->e.seginfo->current_loc - CurrSeg->e.seginfo->start_loc;

	mov	r8, QWORD PTR ModuleInfo+432
	add	r8, 96					; 00000060H
	mov	rax, QWORD PTR [r8]
	mov	edx, DWORD PTR [rax+12]
	sub	edx, DWORD PTR [rax+8]
$LN4@OutputByte:

; 216  :         }
; 217  :         //DebugMsg(("OutputByte: buff=%p, idx=%" I32_SPEC "X, byte=%X, codebuff[0]=%X\n", CurrSeg->e.seginfo->CodeBuffer, idx, byte, *CurrSeg->e.seginfo->CodeBuffer ));
; 218  :         CurrSeg->e.seginfo->CodeBuffer[idx] = byte;

	mov	rax, QWORD PTR [r8]
	mov	rax, QWORD PTR [rax+16]
	mov	BYTE PTR [rdx+rax], bl

; 219  :     }

	jmp	SHORT $LN5@OutputByte
$LN2@OutputByte:

; 220  : #if 1
; 221  :     /* check this in pass 1 only */
; 222  :     else if( CurrSeg->e.seginfo->current_loc < CurrSeg->e.seginfo->start_loc ) {

	mov	rax, QWORD PTR ModuleInfo+432
	mov	rcx, QWORD PTR [rax+96]
	mov	eax, DWORD PTR [rcx+12]
	cmp	eax, DWORD PTR [rcx+8]
	jae	SHORT $LN5@OutputByte

; 223  :         DebugMsg(("OutputByte: segment start loc changed from %" I32_SPEC "Xh to %" I32_SPEC "Xh\n",
; 224  :                   CurrSeg->e.seginfo->start_loc,
; 225  :                   CurrSeg->e.seginfo->current_loc));
; 226  :         CurrSeg->e.seginfo->start_loc = CurrSeg->e.seginfo->current_loc;

	mov	DWORD PTR [rcx+8], eax
$LN5@OutputByte:

; 227  :     }
; 228  : #endif
; 229  :     CurrSeg->e.seginfo->current_loc++;

	mov	rax, QWORD PTR ModuleInfo+432
	mov	rcx, QWORD PTR [rax+96]
	inc	DWORD PTR [rcx+12]

; 230  :     CurrSeg->e.seginfo->bytes_written++;

	mov	rax, QWORD PTR ModuleInfo+432
	mov	rcx, QWORD PTR [rax+96]
	inc	DWORD PTR [rcx+24]

; 231  :     CurrSeg->e.seginfo->written = TRUE;

	mov	rax, QWORD PTR ModuleInfo+432
	mov	rcx, QWORD PTR [rax+96]
	or	BYTE PTR [rcx+107], 32			; 00000020H

; 232  :     if( CurrSeg->e.seginfo->current_loc > CurrSeg->sym.max_offset )

	mov	rcx, QWORD PTR ModuleInfo+432
	mov	rax, QWORD PTR [rcx+96]
	mov	edx, DWORD PTR [rax+12]
	cmp	edx, DWORD PTR [rcx+56]
	jbe	SHORT $LN6@OutputByte

; 233  :         CurrSeg->sym.max_offset = CurrSeg->e.seginfo->current_loc;

	mov	DWORD PTR [rcx+56], edx
$LN6@OutputByte:

; 234  : }

	add	rsp, 32					; 00000020H
	pop	rbx
	ret	0
OutputByte ENDP
_TEXT	ENDS
; Function compile flags: /Ogtpy
; File c:\program files (x86)\windows kits\10\include\10.0.10150.0\ucrt\stdio.h
;	COMDAT sprintf
_TEXT	SEGMENT
_Buffer$ = 80
_Format$ = 88
sprintf	PROC						; COMDAT

; 1776 : {

$LN8:
	mov	QWORD PTR [rsp+16], rdx
	mov	QWORD PTR [rsp+24], r8
	mov	QWORD PTR [rsp+32], r9
	push	rbx
	push	rsi
	push	rdi
	sub	rsp, 48					; 00000030H
	mov	rbx, rdx

; 1777 :     int _Result;
; 1778 :     va_list _ArgList;
; 1779 :     __crt_va_start(_ArgList, _Format);

	lea	rsi, QWORD PTR _Format$[rsp+8]
	mov	rdi, rcx

; 1780 : 
; 1781 :     #pragma warning(push)
; 1782 :     #pragma warning(disable: 4996) // Deprecation
; 1783 :     _Result = _vsprintf_l(_Buffer, _Format, NULL, _ArgList);

	call	__local_stdio_printf_options
	mov	r9, rbx
	mov	QWORD PTR [rsp+40], rsi
	or	rbx, -1
	mov	QWORD PTR [rsp+32], 0
	mov	r8, rbx
	mov	rdx, rdi
	mov	rcx, QWORD PTR [rax]
	or	rcx, 1
	call	__stdio_common_vsprintf
	test	eax, eax
	cmovs	eax, ebx

; 1784 :     #pragma warning(pop)
; 1785 : 
; 1786 :     __crt_va_end(_ArgList);
; 1787 :     return _Result;
; 1788 : }

	add	rsp, 48					; 00000030H
	pop	rdi
	pop	rsi
	pop	rbx
	ret	0
sprintf	ENDP
_TEXT	ENDS
; Function compile flags: /Ogtpy
; File c:\program files (x86)\windows kits\10\include\10.0.10150.0\ucrt\stdio.h
;	COMDAT _vsprintf_l
_TEXT	SEGMENT
_Buffer$ = 64
_Format$ = 72
_Locale$ = 80
_ArgList$ = 88
_vsprintf_l PROC					; COMDAT

; 1455 : {

$LN6:
	mov	QWORD PTR [rsp+8], rbx
	mov	QWORD PTR [rsp+16], rbp
	mov	QWORD PTR [rsp+24], rsi
	push	rdi
	sub	rsp, 48					; 00000030H
	mov	rbx, r9
	mov	rdi, r8
	mov	rsi, rdx
	mov	rbp, rcx

; 1456 :     #pragma warning(push)
; 1457 :     #pragma warning(disable: 4996) // Deprecation
; 1458 :     return _vsnprintf_l(_Buffer, (size_t)-1, _Format, _Locale, _ArgList);

	call	__local_stdio_printf_options
	mov	QWORD PTR [rsp+40], rbx
	mov	r9, rsi
	or	rbx, -1
	mov	QWORD PTR [rsp+32], rdi
	mov	r8, rbx
	mov	rdx, rbp
	mov	rcx, QWORD PTR [rax]
	or	rcx, 1
	call	__stdio_common_vsprintf

; 1459 :     #pragma warning(pop)
; 1460 : }

	mov	rbp, QWORD PTR [rsp+72]
	test	eax, eax
	mov	rsi, QWORD PTR [rsp+80]
	cmovs	eax, ebx
	mov	rbx, QWORD PTR [rsp+64]
	add	rsp, 48					; 00000030H
	pop	rdi
	ret	0
_vsprintf_l ENDP
_TEXT	ENDS
; Function compile flags: /Ogtpy
; File c:\program files (x86)\windows kits\10\include\10.0.10150.0\ucrt\stdio.h
;	COMDAT _vsnprintf_l
_TEXT	SEGMENT
_Buffer$ = 64
_BufferCount$ = 72
_Format$ = 80
_Locale$ = 88
_ArgList$ = 96
_vsnprintf_l PROC					; COMDAT

; 1385 : {

$LN4:
	mov	QWORD PTR [rsp+8], rbx
	mov	QWORD PTR [rsp+16], rbp
	mov	QWORD PTR [rsp+24], rsi
	push	rdi
	sub	rsp, 48					; 00000030H
	mov	rbx, r9
	mov	rdi, r8
	mov	rsi, rdx
	mov	rbp, rcx

; 1386 :     int const _Result = __stdio_common_vsprintf(

	call	__local_stdio_printf_options
	mov	r9, rdi
	mov	r8, rsi
	mov	rdx, rbp
	mov	rcx, QWORD PTR [rax]
	mov	rax, QWORD PTR _ArgList$[rsp]
	or	rcx, 1
	mov	QWORD PTR [rsp+40], rax
	mov	QWORD PTR [rsp+32], rbx
	call	__stdio_common_vsprintf

; 1387 :         _CRT_INTERNAL_LOCAL_PRINTF_OPTIONS | _CRT_INTERNAL_PRINTF_LEGACY_VSPRINTF_NULL_TERMINATION,
; 1388 :         _Buffer, _BufferCount, _Format, _Locale, _ArgList);
; 1389 : 
; 1390 :     return _Result < 0 ? -1 : _Result;
; 1391 : }

	mov	rbx, QWORD PTR [rsp+64]
	or	ecx, -1
	mov	rbp, QWORD PTR [rsp+72]
	test	eax, eax
	mov	rsi, QWORD PTR [rsp+80]
	cmovs	eax, ecx
	add	rsp, 48					; 00000030H
	pop	rdi
	ret	0
_vsnprintf_l ENDP
_TEXT	ENDS
; Function compile flags: /Ogtpy
; File c:\program files (x86)\windows kits\10\include\10.0.10150.0\ucrt\stdio.h
;	COMDAT printf
_TEXT	SEGMENT
_Format$ = 80
printf	PROC						; COMDAT

; 950  : {

$LN6:
	mov	QWORD PTR [rsp+8], rcx
	mov	QWORD PTR [rsp+16], rdx
	mov	QWORD PTR [rsp+24], r8
	mov	QWORD PTR [rsp+32], r9
	push	rbx
	push	rsi
	push	rdi
	sub	rsp, 48					; 00000030H
	mov	rdi, rcx

; 951  :     int _Result;
; 952  :     va_list _ArgList;
; 953  :     __crt_va_start(_ArgList, _Format);

	lea	rsi, QWORD PTR _Format$[rsp+8]

; 954  :     _Result = _vfprintf_l(stdout, _Format, NULL, _ArgList);

	mov	ecx, 1
	call	__acrt_iob_func
	mov	rbx, rax
	call	__local_stdio_printf_options
	xor	r9d, r9d
	mov	QWORD PTR [rsp+32], rsi
	mov	r8, rdi
	mov	rdx, rbx
	mov	rcx, QWORD PTR [rax]
	call	__stdio_common_vfprintf

; 955  :     __crt_va_end(_ArgList);
; 956  :     return _Result;
; 957  : }

	add	rsp, 48					; 00000030H
	pop	rdi
	pop	rsi
	pop	rbx
	ret	0
printf	ENDP
_TEXT	ENDS
; Function compile flags: /Ogtpy
; File c:\program files (x86)\windows kits\10\include\10.0.10150.0\ucrt\stdio.h
;	COMDAT _vfprintf_l
_TEXT	SEGMENT
_Stream$ = 64
_Format$ = 72
_Locale$ = 80
_ArgList$ = 88
_vfprintf_l PROC					; COMDAT

; 638  : {

$LN4:
	mov	QWORD PTR [rsp+8], rbx
	mov	QWORD PTR [rsp+16], rbp
	mov	QWORD PTR [rsp+24], rsi
	push	rdi
	sub	rsp, 48					; 00000030H
	mov	rbx, r9
	mov	rdi, r8
	mov	rsi, rdx
	mov	rbp, rcx

; 639  :     return __stdio_common_vfprintf(_CRT_INTERNAL_LOCAL_PRINTF_OPTIONS, _Stream, _Format, _Locale, _ArgList);

	call	__local_stdio_printf_options
	mov	r9, rdi
	mov	QWORD PTR [rsp+32], rbx
	mov	r8, rsi
	mov	rdx, rbp
	mov	rcx, QWORD PTR [rax]
	call	__stdio_common_vfprintf

; 640  : }

	mov	rbx, QWORD PTR [rsp+64]
	mov	rbp, QWORD PTR [rsp+72]
	mov	rsi, QWORD PTR [rsp+80]
	add	rsp, 48					; 00000030H
	pop	rdi
	ret	0
_vfprintf_l ENDP
_TEXT	ENDS
; Function compile flags: /Ogtpy
; File c:\program files (x86)\windows kits\10\include\10.0.10150.0\ucrt\corecrt_stdio_config.h
;	COMDAT __local_stdio_printf_options
_TEXT	SEGMENT
__local_stdio_printf_options PROC			; COMDAT

; 74   :     static unsigned __int64 _OptionsStorage;
; 75   :     return &_OptionsStorage;

	lea	rax, OFFSET FLAT:?_OptionsStorage@?1??__local_stdio_printf_options@@9@9 ; `__local_stdio_printf_options'::`2'::_OptionsStorage

; 76   : }

	ret	0
__local_stdio_printf_options ENDP
_TEXT	ENDS
END
