; Listing generated by Microsoft (R) Optimizing Compiler Version 19.00.23026.0 

include listing.inc

INCLUDELIB LIBCMT
INCLUDELIB OLDNAMES

PUBLIC	szNull
_DATA	SEGMENT
COMM	decoflags:BYTE
COMM	broadflags:BYTE
_DATA	ENDS
CONST	SEGMENT
szNull	DB	'<NULL>', 00H
CONST	ENDS
PUBLIC	codegen
PUBLIC	GetByteDisp
PUBLIC	Check4CompDisp8
EXTRN	EmitError:PROC
EXTRN	EmitErr:PROC
EXTRN	OutputByte:PROC
EXTRN	OutputBytes:PROC
EXTRN	AddLinnumDataRef:PROC
EXTRN	OperandSize:PROC
EXTRN	AddFloatingPointEmulationFixup:PROC
EXTRN	GetCurrOffset:PROC
EXTRN	GetLineNumber:PROC
EXTRN	get_curr_srcfile:PROC
EXTRN	LstWrite:PROC
EXTRN	Options:BYTE
EXTRN	ModuleInfo:BYTE
EXTRN	Parse_Pass:DWORD
EXTRN	write_to_file:BYTE
EXTRN	InstrTable:BYTE
EXTRN	optable_idx:BYTE
EXTRN	opnd_clstab:BYTE
EXTRN	ResWordTable:BYTE
EXTRN	vex_flags:BYTE
EXTRN	__ImageBase:BYTE
pdata	SEGMENT
$pdata$codegen DD imagerel $LN64
	DD	imagerel $LN64+71
	DD	imagerel $unwind$codegen
$pdata$1$codegen DD imagerel $LN64+71
	DD	imagerel $LN64+482
	DD	imagerel $chain$1$codegen
$pdata$3$codegen DD imagerel $LN64+482
	DD	imagerel $LN64+518
	DD	imagerel $chain$3$codegen
$pdata$GetByteDisp DD imagerel $LN20
	DD	imagerel $LN20+121
	DD	imagerel $unwind$GetByteDisp
$pdata$0$GetByteDisp DD imagerel $LN20+121
	DD	imagerel $LN20+152
	DD	imagerel $chain$0$GetByteDisp
$pdata$1$GetByteDisp DD imagerel $LN20+152
	DD	imagerel $LN20+500
	DD	imagerel $chain$1$GetByteDisp
$pdata$Check4CompDisp8 DD imagerel $LN6
	DD	imagerel $LN6+105
	DD	imagerel $unwind$Check4CompDisp8
pdata	ENDS
;	COMDAT pdata
pdata	SEGMENT
$pdata$output_opc DD imagerel output_opc
	DD	imagerel output_opc+5210
	DD	imagerel $unwind$output_opc
pdata	ENDS
;	COMDAT pdata
pdata	SEGMENT
$pdata$0$output_opc DD imagerel output_opc+5210
	DD	imagerel output_opc+6030
	DD	imagerel $chain$0$output_opc
pdata	ENDS
;	COMDAT pdata
pdata	SEGMENT
$pdata$1$output_opc DD imagerel output_opc+6030
	DD	imagerel output_opc+6400
	DD	imagerel $chain$1$output_opc
pdata	ENDS
;	COMDAT pdata
pdata	SEGMENT
$pdata$output_data DD imagerel output_data
	DD	imagerel output_data+197
	DD	imagerel $unwind$output_data
pdata	ENDS
;	COMDAT pdata
pdata	SEGMENT
$pdata$1$output_data DD imagerel output_data+197
	DD	imagerel output_data+703
	DD	imagerel $chain$1$output_data
pdata	ENDS
;	COMDAT pdata
pdata	SEGMENT
$pdata$2$output_data DD imagerel output_data+703
	DD	imagerel output_data+719
	DD	imagerel $chain$2$output_data
pdata	ENDS
;	COMDAT pdata
pdata	SEGMENT
$pdata$match_phase_3 DD imagerel match_phase_3
	DD	imagerel match_phase_3+1018
	DD	imagerel $unwind$match_phase_3
pdata	ENDS
;	COMDAT pdata
pdata	SEGMENT
$pdata$check_operand_2 DD imagerel check_operand_2
	DD	imagerel check_operand_2+272
	DD	imagerel $unwind$check_operand_2
pdata	ENDS
CONST	SEGMENT
	ORG $+1
sr_prefix DB	026H
	DB	02eH
	DB	036H
	DB	03eH
	DB	064H
	DB	065H
CONST	ENDS
;	COMDAT xdata
xdata	SEGMENT
$unwind$check_operand_2 DD 040a01H
	DD	06340aH
	DD	07006320aH
xdata	ENDS
;	COMDAT xdata
xdata	SEGMENT
$unwind$match_phase_3 DD 081501H
	DD	087415H
	DD	076415H
	DD	063415H
	DD	0e0113215H
xdata	ENDS
;	COMDAT xdata
xdata	SEGMENT
$chain$2$output_data DD 021H
	DD	imagerel output_data
	DD	imagerel output_data+197
	DD	imagerel $unwind$output_data
xdata	ENDS
;	COMDAT xdata
xdata	SEGMENT
$chain$1$output_data DD 040a21H
	DD	07e40aH
	DD	066405H
	DD	imagerel output_data
	DD	imagerel output_data+197
	DD	imagerel $unwind$output_data
xdata	ENDS
;	COMDAT xdata
xdata	SEGMENT
$unwind$output_data DD 060f01H
	DD	09540fH
	DD	08340fH
	DD	0700b320fH
xdata	ENDS
;	COMDAT xdata
xdata	SEGMENT
$chain$1$output_opc DD 021H
	DD	imagerel output_opc
	DD	imagerel output_opc+5210
	DD	imagerel $unwind$output_opc
xdata	ENDS
;	COMDAT xdata
xdata	SEGMENT
$chain$0$output_opc DD 020521H
	DD	0be405H
	DD	imagerel output_opc
	DD	imagerel output_opc+5210
	DD	imagerel $unwind$output_opc
xdata	ENDS
;	COMDAT xdata
xdata	SEGMENT
$unwind$output_opc DD 0a1601H
	DD	0d5416H
	DD	0c3416H
	DD	0f0123216H
	DD	0c00ed010H
	DD	0600b700cH
xdata	ENDS
xdata	SEGMENT
$unwind$codegen DD 040a01H
	DD	08340aH
	DD	06006320aH
$chain$1$codegen DD 040d21H
	DD	07e40dH
	DD	067405H
	DD	imagerel $LN64
	DD	imagerel $LN64+71
	DD	imagerel $unwind$codegen
$chain$3$codegen DD 040021H
	DD	07e400H
	DD	067400H
	DD	imagerel $LN64
	DD	imagerel $LN64+71
	DD	imagerel $unwind$codegen
$unwind$GetByteDisp DD 020901H
	DD	050021209H
$chain$0$GetByteDisp DD 020521H
	DD	063405H
	DD	imagerel $LN20
	DD	imagerel $LN20+121
	DD	imagerel $unwind$GetByteDisp
$chain$1$GetByteDisp DD 021H
	DD	imagerel $LN20
	DD	imagerel $LN20+121
	DD	imagerel $unwind$GetByteDisp
$unwind$Check4CompDisp8 DD 060f01H
	DD	07640fH
	DD	06340fH
	DD	0700b320fH
xdata	ENDS
; Function compile flags: /Ogtpy
; File d:\hjwasm\hjwasm2.13.1s\hjwasm2.13.1s\codegen.c
;	COMDAT check_operand_2
_TEXT	SEGMENT
CodeInfo$ = 48
opnd1$ = 56
check_operand_2 PROC					; COMDAT

; 1803 : {

	mov	QWORD PTR [rsp+8], rbx
	push	rdi
	sub	rsp, 32					; 00000020H

; 1804 :     if( CodeInfo->opnd[OPND2].type == OP_NONE ) {

	cmp	DWORD PTR [rcx+56], 0
	mov	ebx, edx
	mov	rdi, rcx
	jne	$LN2@check_oper

; 1805 :       if (opnd_clstab[CodeInfo->pinstr->opclsidx].opnd_type[OPND2] != OP_NONE){

	mov	rdx, QWORD PTR [rcx+16]
	lea	r9, OFFSET FLAT:opnd_clstab
	movzx	eax, BYTE PTR [rdx]
	lea	r8, QWORD PTR [rax+rax*2]
	cmp	DWORD PTR [r9+r8*4+4], 0
	je	SHORT $LN6@check_oper

; 1806 :         if (CodeInfo->token == T_VGETEXPPD || CodeInfo->token == T_VGETEXPPS)
; 1807 :           ;
; 1808 :         else
; 1809 :         return(ERROR); /* doesn't match */

	mov	eax, DWORD PTR [rcx+24]
	sub	eax, 1423				; 0000058fH
	cmp	eax, 1
	ja	$LN12@check_oper
$LN6@check_oper:

; 1810 :       }
; 1811 :         /* 1 opnd instruction found */
; 1812 : 
; 1813 :         /* v2.06: added check for unspecified size of mem op */
; 1814 :         if ( opnd1 == OP_M ) {

	cmp	ebx, -1887436800			; ffffffff8f800000H
	jne	SHORT $LN9@check_oper

; 1815 :             const struct instr_item *next = CodeInfo->pinstr+1;
; 1816 :             if ( ( opnd_clstab[next->opclsidx].opnd_type[OPND1] & OP_M ) &&

	movzx	eax, BYTE PTR [rdx+10]
	lea	rcx, QWORD PTR [rax+rax*2]
	test	DWORD PTR [r9+rcx*4], ebx
	je	SHORT $LN9@check_oper
	test	BYTE PTR [rdx+12], 8
	jne	SHORT $LN9@check_oper

; 1817 :                 next->first == FALSE )
; 1818 :                 /* skip error if mem op is a forward reference */
; 1819 :                 /* v2.06b: added "undefined" check */
; 1820 :                 if ( CodeInfo->undef_sym == FALSE &&

	test	BYTE PTR [rdi+142], 64			; 00000040H
	jne	SHORT $LN9@check_oper
	mov	rax, QWORD PTR [rdi+48]
	test	rax, rax
	je	SHORT $LN10@check_oper
	mov	rcx, QWORD PTR [rax+56]
	test	rcx, rcx
	je	SHORT $LN10@check_oper
	cmp	DWORD PTR [rcx+32], 0
	je	SHORT $LN9@check_oper
$LN10@check_oper:

; 1821 :                     ( CodeInfo->opnd[OPND1].InsFixup == NULL ||
; 1822 :                      CodeInfo->opnd[OPND1].InsFixup->sym == NULL ||
; 1823 :                      CodeInfo->opnd[OPND1].InsFixup->sym->state != SYM_UNDEFINED ) ) {
; 1824 :                     DebugMsg(("check_operand_2: error: undef_sym=%u Fixup[0]=%X [%s]\n",
; 1825 :                               CodeInfo->undef_sym, CodeInfo->opnd[OPND1].InsFixup,
; 1826 :                               CodeInfo->opnd[OPND1].InsFixup ? CodeInfo->opnd[OPND1].InsFixup->sym ? CodeInfo->opnd[OPND1].InsFixup->sym->name : "NULL" : "NULL" ));
; 1827 :                     EmitErr( INSTRUCTION_OPERAND_MUST_HAVE_SIZE );

	mov	ecx, 182				; 000000b6H
	call	EmitErr
$LN9@check_oper:

; 1828 :                 }
; 1829 :         }
; 1830 : 
; 1831 :         output_opc( CodeInfo );

	mov	rcx, rdi
	call	output_opc

; 1832 :         output_data( CodeInfo, opnd1, OPND1 );

	xor	r8d, r8d
	mov	edx, ebx
	mov	rcx, rdi
	call	output_data

; 1833 : #if AMD64_SUPPORT
; 1834 :         if ( CodeInfo->Ofssize == USE64 && CodeInfo->opnd[OPND1].InsFixup && CodeInfo->opnd[OPND1].InsFixup->type == FIX_RELOFF32 )

	cmp	BYTE PTR [rdi+106], 2
	jne	SHORT $LN11@check_oper
	mov	rax, QWORD PTR [rdi+48]
$LN18@check_oper:
	test	rax, rax
	je	SHORT $LN11@check_oper
	cmp	DWORD PTR [rax+24], 3
	jne	SHORT $LN11@check_oper

; 1835 :             CodeInfo->opnd[OPND1].InsFixup->addbytes = GetCurrOffset() - CodeInfo->opnd[OPND1].InsFixup->locofs;

	mov	rbx, rax
	call	GetCurrOffset
	sub	al, BYTE PTR [rbx+20]
	mov	BYTE PTR [rbx+32], al
$LN11@check_oper:

; 1836 : #endif
; 1837 :         return( NOT_ERROR );

	xor	eax, eax

; 1854 : }

	mov	rbx, QWORD PTR [rsp+48]
	add	rsp, 32					; 00000020H
	pop	rdi
	ret	0
$LN2@check_oper:

; 1838 :     }
; 1839 : 
; 1840 :     /* check second operand */
; 1841 :     if ( match_phase_3( CodeInfo, opnd1 ) == NOT_ERROR ) {

	call	match_phase_3
	test	eax, eax
	jne	SHORT $LN12@check_oper

; 1842 : #if AMD64_SUPPORT
; 1843 :         /* for rip-relative fixups, the instruction end is needed */
; 1844 :         if ( CodeInfo->Ofssize == USE64 ) {

	cmp	BYTE PTR [rdi+106], 2
	jne	SHORT $LN11@check_oper

; 1845 :             if ( CodeInfo->opnd[OPND1].InsFixup && CodeInfo->opnd[OPND1].InsFixup->type == FIX_RELOFF32 )

	mov	rax, QWORD PTR [rdi+48]
	test	rax, rax
	je	SHORT $LN14@check_oper
	cmp	DWORD PTR [rax+24], 3
	jne	SHORT $LN14@check_oper

; 1846 :                 CodeInfo->opnd[OPND1].InsFixup->addbytes = GetCurrOffset() - CodeInfo->opnd[OPND1].InsFixup->locofs;

	mov	rbx, rax
	call	GetCurrOffset
	sub	al, BYTE PTR [rbx+20]
	mov	BYTE PTR [rbx+32], al
$LN14@check_oper:

; 1847 :             if ( CodeInfo->opnd[OPND2].InsFixup && CodeInfo->opnd[OPND2].InsFixup->type == FIX_RELOFF32 )

	mov	rax, QWORD PTR [rdi+72]

; 1848 :                 CodeInfo->opnd[OPND2].InsFixup->addbytes = GetCurrOffset() - CodeInfo->opnd[OPND2].InsFixup->locofs;
; 1849 :         }
; 1850 : #endif
; 1851 :         return( NOT_ERROR );

	jmp	SHORT $LN18@check_oper
$LN12@check_oper:

; 1852 :     }
; 1853 :     return( ERROR );

	or	eax, -1

; 1854 : }

	mov	rbx, QWORD PTR [rsp+48]
	add	rsp, 32					; 00000020H
	pop	rdi
	ret	0
check_operand_2 ENDP
_TEXT	ENDS
; Function compile flags: /Ogtpy
; File d:\hjwasm\hjwasm2.13.1s\hjwasm2.13.1s\codegen.c
;	COMDAT match_phase_3
_TEXT	SEGMENT
CodeInfo$ = 48
opnd1$ = 56
match_phase_3 PROC					; COMDAT

; 1596 : {

	mov	QWORD PTR [rsp+8], rbx
	mov	QWORD PTR [rsp+16], rsi
	mov	QWORD PTR [rsp+24], rdi
	push	r14
	sub	rsp, 32					; 00000020H

; 1597 :     enum operand_type    determinant = opnd_clstab[CodeInfo->pinstr->opclsidx].opnd_type[OPND1]; /* remember first op type */

	mov	rax, QWORD PTR [rcx+16]
	lea	r14, OFFSET FLAT:__ImageBase
	mov	rbx, rcx
	mov	esi, edx
	movzx	ecx, BYTE PTR [rax]

; 1598 :     enum operand_type    opnd2 = CodeInfo->opnd[OPND2].type;

	mov	edi, DWORD PTR [rbx+56]
	lea	rax, QWORD PTR [rcx+rcx*2]
	mov	r8d, DWORD PTR opnd_clstab[r14+rax*4]

; 1599 :     enum operand_type    tbl_op2;
; 1600 : 
; 1601 :     DebugMsg1(("match_phase_3 enter, opnd1=%" I32_SPEC "X, searching op2=%" I32_SPEC "X\n", opnd1, opnd2 ));
; 1602 :     
; 1603 : #if AVXSUPP 
; 1604 :                                
; 1605 :     if ( CodeInfo->token >= VEX_START && ( vex_flags[ CodeInfo->token - VEX_START ] & VX_L ) ) {

	movsxd	rax, DWORD PTR [rbx+24]
	cmp	eax, 1291				; 0000050bH
	jl	SHORT $LN86@match_phas
	movzx	ecx, BYTE PTR vex_flags[rax+r14-1291]
	test	cl, 1
	je	SHORT $LN86@match_phas

; 1606 :         if ( CodeInfo->opnd[OPND1].type & (OP_K | OP_YMM | OP_ZMM | OP_M256) ) {

	mov	eax, DWORD PTR [rbx+32]
	test	eax, 268435904				; 100001c0H
	je	SHORT $LN10@match_phas
	test	edi, 448				; 000001c0H

; 1607 :             if ( opnd2 & OP_ZMM || opnd2 & OP_YMM || opnd2 & OP_K)

	jne	SHORT $LN14@match_phas

; 1608 :                 opnd2 |= OP_XMM;
; 1609 :             else if ( opnd2 & OP_M256 )

	bt	edi, 28
	jae	SHORT $LN15@match_phas

; 1610 :                 opnd2 |= OP_M128;

	bts	edi, 27
	jmp	SHORT $LN86@match_phas
$LN15@match_phas:

; 1611 :             else if ( opnd2 & OP_M128 )

	bt	edi, 27
	jae	SHORT $LN17@match_phas

; 1612 :                 opnd2 |= OP_M64;               //should be: ins->prefix & VX_HALF)

	bts	edi, 26
	jmp	SHORT $LN86@match_phas
$LN17@match_phas:

; 1613 :             else if ( ( opnd2 & OP_XMM ) && !( vex_flags[ CodeInfo->token - VEX_START ] & VX_HALF ) ) {

	test	dil, 32					; 00000020H
	je	SHORT $LN86@match_phas
	test	cl, 32					; 00000020H
	jne	SHORT $LN86@match_phas

; 1614 :                 EmitError( INSTRUCTION_OR_REGISTER_NOT_ACCEPTED_IN_CURRENT_CPU_MODE );

	mov	ecx, 30
	call	EmitError

; 1615 :                 return( ERROR );

	or	eax, -1
	jmp	$LN1@match_phas
$LN10@match_phas:

; 1616 :             }
; 1617 :         }
; 1618 : #if 1
; 1619 :         /* may be necessary to cover the cases where the first operand is a memory operand
; 1620 :          * "without size" and the second operand is a ymm register
; 1621 :          */
; 1622 :         else if ( CodeInfo->opnd[OPND1].type == OP_M ) {

	cmp	eax, -1887436800			; ffffffff8f800000H
	jne	SHORT $LN86@match_phas
	test	edi, 384				; 00000180H

; 1623 :             if ( opnd2 & OP_YMM || opnd2 & OP_ZMM)

	je	SHORT $LN86@match_phas
$LN14@match_phas:

; 1624 :                 opnd2 |= OP_XMM;

	or	edi, 32					; 00000020H
$LN86@match_phas:
	mov	r9d, 41					; 00000029H
	mov	r10d, 655360				; 000a0000H
$LL4@match_phas:

; 1625 :         }
; 1626 : #endif
; 1627 :     }
; 1628 : #endif
; 1629 :     do  {
; 1630 :         tbl_op2 = opnd_clstab[CodeInfo->pinstr->opclsidx].opnd_type[OPND2];

	mov	rax, QWORD PTR [rbx+16]
	movzx	ecx, BYTE PTR [rax]
	lea	rax, QWORD PTR [rcx+rcx*2]
	mov	ecx, DWORD PTR opnd_clstab[r14+rax*4+4]

; 1631 :         DebugMsg1(("match_phase_3: instr table op2=%" I32_SPEC "X\n", tbl_op2 ));
; 1632 :         switch( tbl_op2 ) {

	cmp	ecx, 131072				; 00020000H
	je	$LN45@match_phas
	cmp	ecx, 917504				; 000e0000H
	je	$LN23@match_phas
	cmp	ecx, 4325376				; 00420000H
	je	$LN54@match_phas
	cmp	ecx, 5111808				; 004e0000H
	je	$LN38@match_phas

; 1764 :                }
; 1765 :             }
; 1766 :             break;
; 1767 :         default:
; 1768 :             /* v2.06: condition made more restrictive */
; 1769 :             if (CodeInfo->token < T_VBROADCASTSS)(CodeInfo->evex_flag = 0);

	mov	eax, DWORD PTR [rbx+24]
	cmp	eax, 1291				; 0000050bH
	jge	SHORT $LN58@match_phas
	mov	BYTE PTR [rbx+136], 0
$LN58@match_phas:

; 1770 :             //if( ( opnd2 & tbl_op2 ) || (CodeInfo->mem_type == MT_EMPTY && (opnd2 & OP_M_ANY) && (tbl_op2 & OP_M_ANY) )) {
; 1771 :               if ((opnd2 & tbl_op2) || ((CodeInfo->evex_flag)&&(CodeInfo->token < T_VPBROADCASTB) || (CodeInfo->token > T_VPBROADCASTQ))) {     // 

	test	ecx, edi
	jne	SHORT $LN61@match_phas
	cmp	BYTE PTR [rbx+136], 0
	je	SHORT $LN62@match_phas
	cmp	eax, 1294				; 0000050eH
	jl	SHORT $LN61@match_phas
$LN62@match_phas:
	cmp	eax, 1297				; 00000511H
	jle	$LN53@match_phas
$LN61@match_phas:

; 1772 :                 if( check_3rd_operand( CodeInfo ) == ERROR )

	mov	rcx, rbx
	call	check_3rd_operand
	cmp	eax, -1
	je	$LN53@match_phas

; 1773 :                     break;
; 1774 :                 DebugMsg1(("match_phase_3: matched opnd2\n" ));
; 1775 :                 output_opc( CodeInfo );

	call	output_opc

; 1776 :                 if ( opnd1 & (OP_I_ANY | OP_M_ANY ) )

	test	esi, -4325376				; ffffffffffbe0000H
	je	SHORT $LN64@match_phas

; 1777 :                     output_data( CodeInfo, opnd1, OPND1 );

	xor	r8d, r8d
	mov	edx, esi
	mov	rcx, rbx
	call	output_data
$LN64@match_phas:

; 1778 :                 if ( opnd2 & (OP_I_ANY | OP_M_ANY ) )

	test	edi, -4325376				; ffffffffffbe0000H
	je	SHORT $LN65@match_phas

; 1779 :                     output_data( CodeInfo, opnd2, OPND2 );

	mov	r8d, 1
	mov	edx, edi
	mov	rcx, rbx
	call	output_data
$LN65@match_phas:

; 1780 :                 //if( CodeInfo->pinstr->opnd_type_3rd != OP3_NONE )
; 1781 :                 if( opnd_clstab[CodeInfo->pinstr->opclsidx].opnd_type_3rd != OP3_NONE )

	mov	rax, QWORD PTR [rbx+16]
	movzx	ecx, BYTE PTR [rax]
	lea	rax, QWORD PTR [rcx+rcx*2]
	cmp	BYTE PTR opnd_clstab[r14+rax*4+8], 0
	je	SHORT $LN66@match_phas

; 1782 :                     output_3rd_operand( CodeInfo );

	mov	rcx, rbx
	call	output_3rd_operand
$LN66@match_phas:

; 1783 :                 if( CodeInfo->pinstr->byte1_info == F_0F0F ) /* output 3dNow opcode? */

	mov	rax, QWORD PTR [rbx+16]
	cmp	BYTE PTR [rax+1], 17
	jne	$LN67@match_phas

; 1784 :                     OutputCodeByte( CodeInfo->pinstr->opcode | CodeInfo->iswide );

	movzx	ecx, BYTE PTR [rbx+142]
	and	cl, 1
	or	cl, BYTE PTR [rax+8]
	call	OutputByte

; 1785 :                 return( NOT_ERROR );

	jmp	SHORT $LN67@match_phas
$LN38@match_phas:

; 1699 :             }
; 1700 :             break;
; 1701 :         case OP_I8_U: /* shift+rotate, ENTER, BTx, IN, PSxx[D|Q|W] */
; 1702 :             if( opnd2 & tbl_op2 ) {

	test	edi, 5111808				; 004e0000H
	je	$LN53@match_phas

; 1703 :                 DebugMsg1(("match_phase_3: matched OP_I8_U\n"));
; 1704 :                 if ( CodeInfo->const_size_fixed && opnd2 != OP_I8 )

	test	BYTE PTR [rbx+142], 8
	je	SHORT $LN40@match_phas
	cmp	edi, 131072				; 00020000H
	jne	$LN53@match_phas
$LN40@match_phas:
	mov	eax, DWORD PTR [rbx+64]
	sub	eax, -128				; ffffffffffffff80H
	cmp	eax, 383				; 0000017fH
	ja	$LN53@match_phas

; 1705 :                     break;
; 1706 :                 /* v2.03: lower bound wasn't checked */
; 1707 :                 /* range of unsigned 8-bit is -128 - +255 */
; 1708 :                 if( CodeInfo->opnd[OPND2].data32l <= UCHAR_MAX && CodeInfo->opnd[OPND2].data32l >= SCHAR_MIN ) {
; 1709 :                     /* v2.06: if there's an external, adjust the fixup if it is > 8-bit */
; 1710 :                     if ( CodeInfo->opnd[OPND2].InsFixup != NULL ) {

	mov	rcx, QWORD PTR [rbx+72]
	test	rcx, rcx
	je	SHORT $LN74@match_phas
	mov	eax, DWORD PTR [rcx+24]
	sub	eax, 5
	cmp	eax, 1
	ja	SHORT $LN74@match_phas

; 1711 :                         if ( CodeInfo->opnd[OPND2].InsFixup->type == FIX_OFF16 ||
; 1712 :                             CodeInfo->opnd[OPND2].InsFixup->type == FIX_OFF32 )
; 1713 :                             CodeInfo->opnd[OPND2].InsFixup->type = FIX_OFF8;

	mov	DWORD PTR [rcx+24], 4
$LN74@match_phas:

; 1749 :                 DebugMsg1(("match_phase_3: matched OP_I8\n"));
; 1750 :                 output_opc( CodeInfo );

	mov	rcx, rbx
	call	output_opc

; 1751 :                 output_data( CodeInfo, opnd1, OPND1 );

	xor	r8d, r8d
	mov	edx, esi
	mov	rcx, rbx
	call	output_data

; 1752 :                 output_data( CodeInfo, OP_I8, OPND2 );

	mov	edx, 131072				; 00020000H
$LN88@match_phas:
	mov	r8d, 1
$LN87@match_phas:
	mov	rcx, rbx
	call	output_data
$LN67@match_phas:

; 1753 :                 return( NOT_ERROR );

	xor	eax, eax
$LN1@match_phas:

; 1794 : }

	mov	rbx, QWORD PTR [rsp+48]
	mov	rsi, QWORD PTR [rsp+56]
	mov	rdi, QWORD PTR [rsp+64]
	add	rsp, 32					; 00000020H
	pop	r14
	ret	0
$LN54@match_phas:

; 1754 :             }
; 1755 :             break;
; 1756 :         case OP_I_1: /* shift ops */
; 1757 :             if( opnd2 & tbl_op2 ) {

	test	edi, 4325376				; 00420000H
	je	$LN53@match_phas

; 1758 :                if ( CodeInfo->opnd[OPND2].data32l == 1 ) {

	cmp	DWORD PTR [rbx+64], 1
	jne	$LN53@match_phas

; 1759 :                    DebugMsg1(("match_phase_3: matched OP_I_1\n"));
; 1760 :                    output_opc( CodeInfo );

	mov	rcx, rbx
	call	output_opc

; 1761 :                    output_data( CodeInfo, opnd1, OPND1 );

	xor	r8d, r8d
	mov	edx, esi

; 1762 :                    /* the immediate is "implicite" */
; 1763 :                    return( NOT_ERROR );

	jmp	SHORT $LN87@match_phas
$LN23@match_phas:

; 1633 :         case OP_I: /* arith, MOV, IMUL, TEST */
; 1634 :             if( opnd2 & tbl_op2 ) {

	test	edi, 917504				; 000e0000H
	je	$LN53@match_phas

; 1635 :                 DebugMsg1(("match_phase_3: matched OP_I\n"));
; 1636 :                 /* This branch exits with either ERROR or NOT_ERROR.
; 1637 :                  * So it can modify the CodeInfo fields without harm.
; 1638 :                  */
; 1639 :                 if( opnd1 & OP_R8 ) {

	test	sil, 1
	je	$LN25@match_phas

; 1640 :                     /* 8-bit register, so output 8-bit data */
; 1641 :                     /* v2.04: the check has already happened in check_size() or idata_xxx() */
; 1642 :                     //if( Parse_Pass == PASS_1 && !InRange( operand, 1 ) ) {
; 1643 :                     //    DebugMsg(("imm const too large (08): %X\n", operand));
; 1644 :                     //    EmitWarn( 1, IMMEDIATE_CONSTANT_TOO_LARGE );
; 1645 :                     //}
; 1646 :                     CodeInfo->prefix.opsiz = FALSE;

	and	BYTE PTR [rbx+9], 253			; 000000fdH

; 1647 :                     opnd2 = OP_I8;

	mov	edi, 131072				; 00020000H

; 1648 :                     if( CodeInfo->opnd[OPND2].InsFixup != NULL ) {

	mov	rax, QWORD PTR [rbx+72]
	test	rax, rax
	je	$LN7@match_phas

; 1649 :                     /* v1.96: make sure FIX_HIBYTE isn't overwritten! */
; 1650 :                         if ( CodeInfo->opnd[OPND2].InsFixup->type != FIX_HIBYTE )

	cmp	DWORD PTR [rax+24], 11
	je	$LN7@match_phas

; 1651 :                             CodeInfo->opnd[OPND2].InsFixup->type = FIX_OFF8;

	mov	DWORD PTR [rax+24], 4

; 1652 :                     }

	jmp	$LN7@match_phas
$LN45@match_phas:

; 1714 :                     }
; 1715 :                     /* the SSE4A EXTRQ instruction will need this! */
; 1716 :                     //if( check_3rd_operand( CodeInfo ) == ERROR )
; 1717 :                     //  break;
; 1718 :                     output_opc( CodeInfo );
; 1719 :                     output_data( CodeInfo, opnd1, OPND1 );
; 1720 :                     output_data( CodeInfo, OP_I8, OPND2 );
; 1721 :                     //if( CodeInfo->pinstr->opnd_type_3rd != OP3_NONE )
; 1722 :                     //output_3rd_operand( CodeInfo );
; 1723 :                     return( NOT_ERROR );
; 1724 :                 }
; 1725 :             }
; 1726 :             break;
; 1727 :         case OP_I8: /* arith, IMUL */
; 1728 :             /* v2.06: this case has been rewritten */
; 1729 : 
; 1730 :             /* v2.04: added */
; 1731 :             if( ModuleInfo.NoSignExtend &&

	test	DWORD PTR ModuleInfo+408, 262144	; 00040000H
	je	SHORT $LN46@match_phas
	mov	eax, DWORD PTR [rbx+24]
	add	eax, -501				; fffffffffffffe0bH
	cmp	eax, 5
	ja	SHORT $LN46@match_phas
	bt	r9d, eax
	jb	SHORT $LN53@match_phas
$LN46@match_phas:

; 1732 :                ( CodeInfo->token == T_AND ||
; 1733 :                 CodeInfo->token == T_OR ||
; 1734 :                 CodeInfo->token == T_XOR ) )
; 1735 :                 break;
; 1736 : 
; 1737 :             /* v2.11: skip externals - but don't skip undefines; forward8.asm */
; 1738 :             //if ( CodeInfo->opnd[OPND2].InsFixup != NULL ) /* external? then skip */
; 1739 :             if ( CodeInfo->opnd[OPND2].InsFixup != NULL && CodeInfo->opnd[OPND2].InsFixup->sym->state != SYM_UNDEFINED ) /* external? then skip */

	mov	rax, QWORD PTR [rbx+72]
	test	rax, rax
	je	SHORT $LN48@match_phas
	mov	rax, QWORD PTR [rax+56]
	cmp	DWORD PTR [rax+32], 0
	jne	SHORT $LN53@match_phas
$LN48@match_phas:

; 1740 :                 break;
; 1741 : 
; 1742 :             if ( CodeInfo->const_size_fixed == FALSE )

	test	BYTE PTR [rbx+142], 8
	jne	SHORT $LN52@match_phas

; 1743 :                 if ( ( opnd1 & ( OP_R16 | OP_M16 ) ) && (int_8)CodeInfo->opnd[OPND2].data32l == (int_16)CodeInfo->opnd[OPND2].data32l )

	test	esi, 16777218				; 01000002H
	je	SHORT $LN50@match_phas
	movsx	eax, BYTE PTR [rbx+64]
	cmp	ax, WORD PTR [rbx+64]
	jne	SHORT $LN50@match_phas

; 1744 :                     tbl_op2 |= OP_I16;

	mov	ecx, 393216				; 00060000H
	jmp	SHORT $LN52@match_phas
$LN50@match_phas:

; 1745 :                 else if ( ( opnd1 & ( OP_RGT16 | OP_MGT16 ) ) && (int_8)CodeInfo->opnd[OPND2].data32l == (int_32)CodeInfo->opnd[OPND2].data32l )

	test	esi, 100663308				; 0600000cH
	je	SHORT $LN52@match_phas
	movsx	eax, BYTE PTR [rbx+64]
	cmp	eax, DWORD PTR [rbx+64]
	cmove	ecx, r10d
$LN52@match_phas:

; 1746 :                     tbl_op2 |= OP_I32;
; 1747 : 
; 1748 :             if( opnd2 & tbl_op2 ) {

	test	ecx, edi
	jne	$LN74@match_phas
$LN53@match_phas:

; 1786 :             }
; 1787 :             break;
; 1788 :         }
; 1789 :         CodeInfo->pinstr++;

	add	QWORD PTR [rbx+16], 10
	mov	rdx, QWORD PTR [rbx+16]

; 1790 :     } while ( opnd_clstab[CodeInfo->pinstr->opclsidx].opnd_type[OPND1] == determinant && CodeInfo->pinstr->first == FALSE );

	movzx	eax, BYTE PTR [rdx]
	lea	rcx, QWORD PTR [rax+rax*2]
	cmp	DWORD PTR opnd_clstab[r14+rcx*4], r8d
	jne	SHORT $LN68@match_phas
	test	BYTE PTR [rdx+2], 8
	je	$LL4@match_phas
$LN68@match_phas:

; 1791 :     CodeInfo->pinstr--; /* pointer will be increased in codegen() */

	lea	rax, QWORD PTR [rdx-10]
	mov	QWORD PTR [rbx+16], rax

; 1792 :     DebugMsg(("match_phase_3: returns EMPTY\n"));
; 1793 :     return( ERROR );

	or	eax, -1
	jmp	$LN1@match_phas
$LN25@match_phas:

; 1653 :                 } else if( opnd1 & OP_R16 ) {

	test	sil, 2
	je	SHORT $LN29@match_phas

; 1654 :                     /* v2.04: the check has already happened in check_size() or idata_xxx() */
; 1655 :                     //if( Parse_Pass == PASS_1 && !InRange( operand, 2 ) ) {
; 1656 :                     //    DebugMsg(("imm const too large (16): %X\n", operand));
; 1657 :                     //    EmitWarn( 1, IMMEDIATE_CONSTANT_TOO_LARGE );
; 1658 :                     //}
; 1659 :                     /* 16-bit register, so output 16-bit data */
; 1660 :                     opnd2 = OP_I16;

	mov	edi, 262144				; 00040000H
	jmp	$LN7@match_phas
$LN29@match_phas:

; 1661 : #if AMD64_SUPPORT
; 1662 :                 } else if( opnd1 & (OP_R32 | OP_R64 ) ) {

	test	sil, 12
	je	SHORT $LN31@match_phas

; 1663 : #else
; 1664 :                 } else if( opnd1 & OP_R32 ) {
; 1665 : #endif
; 1666 :                     /* 32- or 64-bit register, so output 32-bit data */
; 1667 :                     CodeInfo->prefix.opsiz = CodeInfo->Ofssize ? 0 : 1;/* 12-feb-92 */

	and	BYTE PTR [rbx+9], 253			; 000000fdH

; 1668 :                     opnd2 = OP_I32;

	mov	edi, 524288				; 00080000H
	cmp	BYTE PTR [rbx+106], 0
	sete	al
	and	al, 1
	add	al, al
	or	BYTE PTR [rbx+9], al
	jmp	SHORT $LN7@match_phas
$LN31@match_phas:

; 1669 :                 } else if( opnd1 & OP_M ) {

	test	esi, -1887436800			; ffffffff8f800000H
	je	SHORT $LN7@match_phas

; 1670 :                     /* there is no reason this should be only for T_MOV */
; 1671 :                     switch( OperandSize( opnd1, CodeInfo ) ) {

	mov	rdx, rbx
	mov	ecx, esi
	call	OperandSize
	sub	eax, 1
	je	SHORT $LN34@match_phas
	sub	eax, 1
	je	SHORT $LN35@match_phas
	sub	eax, 2
	je	SHORT $LN36@match_phas
	cmp	eax, 4
	je	SHORT $LN36@match_phas

; 1690 :                     default:
; 1691 :                         EmitError( INVALID_COMBINATION_OF_OPCODE_AND_OPERANDS );

	mov	ecx, 14
	call	EmitError
	jmp	SHORT $LN7@match_phas
$LN36@match_phas:

; 1680 : #if AMD64_SUPPORT
; 1681 :                         /* mov [mem], imm64 doesn't exist. It's ensured that
; 1682 :                          * immediate data is 32bit only
; 1683 :                          */
; 1684 :                     case 8:
; 1685 : #endif
; 1686 :                     case 4:
; 1687 :                         opnd2 = OP_I32;
; 1688 :                         CodeInfo->prefix.opsiz = CodeInfo->Ofssize ? 0 : 1;

	and	BYTE PTR [rbx+9], 253			; 000000fdH
	mov	edi, 524288				; 00080000H
	cmp	BYTE PTR [rbx+106], 0
	sete	al
	and	al, 1
	add	al, al
	or	BYTE PTR [rbx+9], al

; 1689 :                         break;

	jmp	SHORT $LN7@match_phas
$LN35@match_phas:

; 1675 :                         break;
; 1676 :                     case 2:
; 1677 :                         opnd2 = OP_I16;
; 1678 :                         CodeInfo->prefix.opsiz = CodeInfo->Ofssize ? 1 : 0;

	and	BYTE PTR [rbx+9], 253			; 000000fdH
	mov	edi, 262144				; 00040000H
	cmp	BYTE PTR [rbx+106], 0
	setne	al
	and	al, 1
	add	al, al
	or	BYTE PTR [rbx+9], al

; 1679 :                         break;

	jmp	SHORT $LN7@match_phas
$LN34@match_phas:

; 1672 :                     case 1:
; 1673 :                         opnd2 = OP_I8;
; 1674 :                         CodeInfo->prefix.opsiz = FALSE;

	and	BYTE PTR [rbx+9], 253			; 000000fdH
	mov	edi, 131072				; 00020000H
$LN7@match_phas:

; 1692 :                         //return( ERROR ); /* v2.06: don't exit */
; 1693 :                     }
; 1694 :                 }
; 1695 :                 output_opc( CodeInfo );

	mov	rcx, rbx
	call	output_opc

; 1696 :                 output_data( CodeInfo, opnd1, OPND1 );

	xor	r8d, r8d
	mov	edx, esi
	mov	rcx, rbx
	call	output_data

; 1697 :                 output_data( CodeInfo, opnd2, OPND2 );

	mov	edx, edi

; 1698 :                 return( NOT_ERROR );

	jmp	$LN88@match_phas
match_phase_3 ENDP
_TEXT	ENDS
; Function compile flags: /Ogtpy
; File d:\hjwasm\hjwasm2.13.1s\hjwasm2.13.1s\codegen.c
;	COMDAT output_3rd_operand
_TEXT	SEGMENT
CodeInfo$ = 8
output_3rd_operand PROC					; COMDAT

; 1501 :     if( opnd_clstab[CodeInfo->pinstr->opclsidx].opnd_type_3rd == OP3_I8_U ) {

	mov	rax, QWORD PTR [rcx+16]
	movzx	edx, BYTE PTR [rax]
	lea	rax, QWORD PTR [rdx+rdx*2]
	lea	rdx, OFFSET FLAT:opnd_clstab+8
	movzx	edx, BYTE PTR [rdx+rax*4]
	cmp	dl, 2
	je	$LN43@output_3rd

; 1502 :         DebugMsg1(("output_3rd_operand, expected I8, op3=%" I32_SPEC "X\n", CodeInfo->opnd[OPND3].type ));
; 1503 :         /* v2.06: the type has been checked already! */
; 1504 :         //if( CodeInfo->opnd_type[OPND3] & OP_I ) {
; 1505 :         output_data( CodeInfo, OP_I8, OPND3 );
; 1506 :         //} else {
; 1507 :         //    EmitError( INVALID_INSTRUCTION_OPERANDS );
; 1508 :         //    return;
; 1509 :         //}
; 1510 :     } else if( opnd_clstab[CodeInfo->pinstr->opclsidx].opnd_type_3rd == OP3_I ) {

	cmp	dl, 4
	jne	SHORT $LN4@output_3rd

; 1511 :         output_data( CodeInfo, CodeInfo->opnd[OPND3].type, OPND3 );

	mov	edx, DWORD PTR [rcx+80]

; 1582 :         output_data( CodeInfo, OP_I8, OPND3 );

	mov	r8d, 2
	jmp	output_data
$LN4@output_3rd:

; 1512 :     }
; 1513 :     else if (opnd_clstab[CodeInfo->pinstr->opclsidx].opnd_type_3rd == OP3_HID) {

	cmp	dl, 5
	jne	$LN6@output_3rd

; 1514 :       DebugMsg1(("output_3rd_operand, expected OP3_HID, op3=%" I32_SPEC "X\n", CodeInfo->opnd[OPND3].type));
; 1515 :       /* v2.06: to avoid having to add 3*8 operand categories there's a
; 1516 :        * hard-wired peculiarity for the "hidden" 3rd operand: it's calculated
; 1517 :        * directly from the instruction token. in instruct.h, CMPEQPD must
; 1518 :        * be first and the order of the following CMP entries must not be
; 1519 :        * changed.
; 1520 :        */
; 1521 :       //CodeInfo->data[OPND3] = opnd_clstab[CodeInfo->pinstr->opclsidx].opnd_type_3rd & ~OP3_HID;
; 1522 : #if AVXSUPP
; 1523 :       if (CodeInfo->token >= VEX_START){

	mov	edx, DWORD PTR [rcx+24]
	cmp	edx, 1291				; 0000050bH
	jl	$LN8@output_3rd
	lea	eax, DWORD PTR [rdx-1761]
	cmp	eax, 127				; 0000007fH
	ja	SHORT $LN10@output_3rd

; 1524 :         if (CodeInfo->token >= T_VCMPEQPD && CodeInfo->token <= T_VCMPTRUE_USSS){
; 1525 :           CodeInfo->opnd[OPND3].InsFixup = NULL;

	mov	QWORD PTR [rcx+96], 0

; 1526 :           OutputCodeByte((CodeInfo->token - T_VCMPEQPD) & 0x1F);

	lea	ecx, DWORD PTR [rdx-1]
	and	cl, 31
	jmp	OutputByte
$LN10@output_3rd:
	lea	eax, DWORD PTR [rdx-1454]
	cmp	eax, 7

; 1527 :           return;
; 1528 :         }
; 1529 :         else if (CodeInfo->token >= T_VPCMPEQD && CodeInfo->token <= T_VPCMPTRUED){
; 1530 :           CodeInfo->opnd[OPND3].InsFixup = NULL;
; 1531 :           OutputCodeByte((CodeInfo->token - T_VPCMPEQD) & 0x07);
; 1532 :           return;

	jbe	SHORT $LN45@output_3rd

; 1533 :         }
; 1534 :         else if (CodeInfo->token >= T_VPCMPEQUD && CodeInfo->token <= T_VPCMPTRUEUD){
; 1535 :           CodeInfo->opnd[OPND3].InsFixup = NULL;
; 1536 :           OutputCodeByte((CodeInfo->token - T_VPCMPEQUD) & 0x07);
; 1537 :           return;

	lea	eax, DWORD PTR [rdx-1462]
	cmp	eax, 7
	jbe	SHORT $LN45@output_3rd

; 1538 :         }
; 1539 :         else if (CodeInfo->token >= T_VPCMPEQQ && CodeInfo->token <= T_VPCMPTRUEQ){
; 1540 :           CodeInfo->opnd[OPND3].InsFixup = NULL;
; 1541 :           OutputCodeByte((CodeInfo->token - T_VPCMPEQQ) & 0x07);
; 1542 :           return;

	lea	eax, DWORD PTR [rdx-1470]
	cmp	eax, 7
	jbe	SHORT $LN45@output_3rd

; 1543 :         }
; 1544 :         else if (CodeInfo->token >= T_VPCMPEQUQ && CodeInfo->token <= T_VPCMPTRUEUQ){
; 1545 :           CodeInfo->opnd[OPND3].InsFixup = NULL;
; 1546 :           OutputCodeByte((CodeInfo->token - T_VPCMPEQUQ) & 0x07);
; 1547 :           return;

	lea	eax, DWORD PTR [rdx-1478]
	cmp	eax, 7
	jbe	SHORT $LN45@output_3rd

; 1548 :         }
; 1549 :         else if (CodeInfo->token >= T_VPCMPEQW && CodeInfo->token <= T_VPCMPTRUEW){
; 1550 :           CodeInfo->opnd[OPND3].InsFixup = NULL;
; 1551 :           OutputCodeByte((CodeInfo->token - T_VPCMPEQW) & 0x07);
; 1552 :           return;

	lea	eax, DWORD PTR [rdx-1486]
	cmp	eax, 7
	jbe	SHORT $LN45@output_3rd

; 1553 :         }
; 1554 :         else if (CodeInfo->token >= T_VPCMPEQUW && CodeInfo->token <= T_VPCMPTRUEUW){
; 1555 :           CodeInfo->opnd[OPND3].InsFixup = NULL;
; 1556 :           OutputCodeByte((CodeInfo->token - T_VPCMPEQUW) & 0x07);
; 1557 :           return;

	lea	eax, DWORD PTR [rdx-1494]
	cmp	eax, 7
	jbe	SHORT $LN45@output_3rd

; 1558 :         }
; 1559 :         else if (CodeInfo->token >= T_VPCMPEQB && CodeInfo->token <= T_VPCMPTRUEB){
; 1560 :           CodeInfo->opnd[OPND3].InsFixup = NULL;
; 1561 :           OutputCodeByte((CodeInfo->token - T_VPCMPEQB) & 0x07);
; 1562 :           return;

	lea	eax, DWORD PTR [rdx-1502]
	cmp	eax, 7
	jbe	SHORT $LN45@output_3rd
	lea	eax, DWORD PTR [rdx-1510]
	cmp	eax, 7
	ja	SHORT $LN9@output_3rd
$LN45@output_3rd:

; 1563 :         }
; 1564 :         else if (CodeInfo->token >= T_VPCMPEQUB && CodeInfo->token <= T_VPCMPTRUEUB){
; 1565 :           CodeInfo->opnd[OPND3].InsFixup = NULL;

	mov	QWORD PTR [rcx+96], 0

; 1566 :           OutputCodeByte((CodeInfo->token - T_VPCMPEQUB) & 0x07);

	lea	ecx, DWORD PTR [rdx+2]
	and	cl, 7
	jmp	OutputByte
$LN8@output_3rd:

; 1567 :           return;
; 1568 :       }
; 1569 :     }
; 1570 :     else
; 1571 : #endif
; 1572 :           CodeInfo->opnd[OPND3].data32l = ( CodeInfo->token - T_CMPEQPD ) % 8;

	add	edx, -879				; fffffffffffffc91H
	and	edx, -2147483641			; ffffffff80000007H
	jge	SHORT $LN42@output_3rd
	dec	edx
	or	edx, -8
	inc	edx
$LN42@output_3rd:
	mov	DWORD PTR [rcx+88], edx
$LN9@output_3rd:

; 1573 :           CodeInfo->opnd[OPND3].InsFixup = NULL;

	mov	QWORD PTR [rcx+96], 0

; 1574 :           output_data( CodeInfo, OP_I8, OPND3 );
; 1575 :     }

	jmp	SHORT $LN43@output_3rd
$LN6@output_3rd:

; 1576 : #if AVXSUPP
; 1577 :     else if( ((CodeInfo->token >= VEX_START) && (CodeInfo->token < T_VPGATHERDD)|| 
; 1578 :       (CodeInfo->token > T_VGATHERQPS))&&

	mov	r8d, DWORD PTR [rcx+24]
	lea	eax, DWORD PTR [r8-1291]
	cmp	eax, 48					; 00000030H
	jbe	SHORT $LN28@output_3rd
	cmp	r8d, 1348				; 00000544H
	jl	SHORT $LN30@output_3rd
$LN28@output_3rd:
	cmp	dl, 3
	jne	SHORT $LN30@output_3rd

; 1579 :        opnd_clstab[CodeInfo->pinstr->opclsidx].opnd_type_3rd == OP3_XMM0 ) {
; 1580 :         CodeInfo->opnd[OPND3].data32l = ( CodeInfo->opnd[OPND3].data32l << 4 );

	shl	DWORD PTR [rcx+88], 4

; 1581 :         if (CodeInfo->opnd[OPND3].type != OP_K)

	cmp	DWORD PTR [rcx+80], 64			; 00000040H
	je	SHORT $LN30@output_3rd
$LN43@output_3rd:

; 1582 :         output_data( CodeInfo, OP_I8, OPND3 );

	mov	edx, 131072				; 00020000H
	mov	r8d, 2
	jmp	output_data
$LN30@output_3rd:

; 1583 :     }
; 1584 : #endif
; 1585 :     return;
; 1586 : }

	ret	0
output_3rd_operand ENDP
_TEXT	ENDS
; Function compile flags: /Ogtpy
; File d:\hjwasm\hjwasm2.13.1s\hjwasm2.13.1s\codegen.c
;	COMDAT check_3rd_operand
_TEXT	SEGMENT
CodeInfo$ = 8
check_3rd_operand PROC					; COMDAT

; 1457 :     if( ( opnd_clstab[CodeInfo->pinstr->opclsidx].opnd_type_3rd == OP3_NONE ) ||

	mov	rax, QWORD PTR [rcx+16]
	movzx	edx, BYTE PTR [rax]
	lea	rax, QWORD PTR [rdx+rdx*2]
	lea	rdx, OFFSET FLAT:opnd_clstab+8
	movzx	edx, BYTE PTR [rdx+rax*4]
	test	dl, dl
	je	$LN5@check_3rd_
	cmp	dl, 5
	je	$LN5@check_3rd_

; 1460 :     
; 1461 :     /* current variant needs a 3rd operand */
; 1462 :     DebugMsg1(("check_3rd_operand: tab=%X <-> codeinfo=%X\n", opnd_clstab[CodeInfo->pinstr->opclsidx].opnd_type_3rd, CodeInfo->opnd[OPND3].type ));
; 1463 : 
; 1464 :     switch ( opnd_clstab[CodeInfo->pinstr->opclsidx].opnd_type_3rd ) {

	movzx	edx, dl
	sub	edx, 1
	je	SHORT $LN6@check_3rd_
	sub	edx, 1
	je	SHORT $LN8@check_3rd_
	sub	edx, 1
	je	SHORT $LN15@check_3rd_
	cmp	edx, 1
	jne	SHORT $LN7@check_3rd_

; 1476 :             }
; 1477 :         }
; 1478 :         break;
; 1479 :     case OP3_I: /* IMUL */
; 1480 :         if ( CodeInfo->opnd[OPND3].type & OP_I )

	test	DWORD PTR [rcx+80], 917504		; 000e0000H
	je	SHORT $LN7@check_3rd_

; 1481 :             return( NOT_ERROR );

	xor	eax, eax

; 1496 : }

	ret	0
$LN15@check_3rd_:

; 1482 :         break;
; 1483 :     case OP3_XMM0:
; 1484 : #if AVXSUPP
; 1485 :         /* for VEX encoding, XMM0 has the meaning: any K/XMM/YMM/ZMM register */
; 1486 :         if ( CodeInfo->token >= VEX_START ) {

	cmp	DWORD PTR [rcx+24], 1291		; 0000050bH
	jge	SHORT $LN22@check_3rd_

; 1487 :                return( NOT_ERROR );
; 1488 :         } else
; 1489 : #endif
; 1490 :         if ( CodeInfo->opnd[OPND3].type == OP_XMM &&

	cmp	DWORD PTR [rcx+80], 32			; 00000020H
	jne	SHORT $LN7@check_3rd_
	cmp	DWORD PTR [rcx+88], 0
	jne	SHORT $LN7@check_3rd_

; 1491 :             CodeInfo->opnd[OPND3].data32l == 0 )
; 1492 :             return( NOT_ERROR );

	xor	eax, eax

; 1496 : }

	ret	0
$LN8@check_3rd_:

; 1467 :             return( NOT_ERROR );
; 1468 :         break;
; 1469 :     case OP3_I8_U: /* IMUL, SHxD, a few MMX/SSE */
; 1470 :         /* for IMUL, the operand is signed! */
; 1471 :         if ( ( CodeInfo->opnd[OPND3].type & OP_I ) && CodeInfo->opnd[OPND3].data32l >= -128 ) {

	test	DWORD PTR [rcx+80], 917504		; 000e0000H
	je	SHORT $LN7@check_3rd_
	mov	eax, DWORD PTR [rcx+88]
	cmp	eax, -128				; ffffffffffffff80H
	jl	SHORT $LN7@check_3rd_

; 1472 :             if ( ( CodeInfo->token == T_IMUL && CodeInfo->opnd[OPND3].data32l < 128 ) ||

	mov	edx, DWORD PTR [rcx+24]
	cmp	edx, 616				; 00000268H
	jne	SHORT $LN21@check_3rd_
	cmp	eax, 128				; 00000080H
	jl	SHORT $LN11@check_3rd_
	cmp	edx, edx
	je	SHORT $LN7@check_3rd_
$LN21@check_3rd_:
	cmp	eax, 256				; 00000100H
	jge	SHORT $LN7@check_3rd_
$LN11@check_3rd_:

; 1473 :                 ( CodeInfo->token != T_IMUL && CodeInfo->opnd[OPND3].data32l < 256 ) ) {
; 1474 :                 CodeInfo->opnd[OPND3].type = OP_I8;

	mov	DWORD PTR [rcx+80], 131072		; 00020000H
$LN22@check_3rd_:

; 1475 :                 return( NOT_ERROR );

	xor	eax, eax

; 1496 : }

	ret	0
$LN6@check_3rd_:

; 1465 :     case OP3_CL:
; 1466 :         if ( CodeInfo->opnd[OPND3].type == OP_CL )

	cmp	DWORD PTR [rcx+80], 1025		; 00000401H
	je	SHORT $LN22@check_3rd_
$LN7@check_3rd_:

; 1493 :         break;
; 1494 :     }
; 1495 :     return( ERROR );

	or	eax, -1

; 1496 : }

	ret	0
$LN5@check_3rd_:

; 1458 :        ( opnd_clstab[CodeInfo->pinstr->opclsidx].opnd_type_3rd == OP3_HID ) )
; 1459 :         return( ( CodeInfo->opnd[OPND3].type == OP_NONE ) ? NOT_ERROR : ERROR );

	mov	eax, DWORD PTR [rcx+80]
	neg	eax
	sbb	eax, eax

; 1496 : }

	ret	0
check_3rd_operand ENDP
_TEXT	ENDS
; Function compile flags: /Ogtpy
; File d:\hjwasm\hjwasm2.13.1s\hjwasm2.13.1s\codegen.c
;	COMDAT output_data
_TEXT	SEGMENT
CodeInfo$ = 48
determinant$ = 56
index$ = 64
output_data PROC					; COMDAT

; 1315 : {

	mov	QWORD PTR [rsp+24], rbx
	mov	QWORD PTR [rsp+32], rbp
	push	rdi
	sub	rsp, 32					; 00000020H

; 1316 :   int       size = 0;

	xor	ebx, ebx
	movsxd	rbp, r8d
	mov	rdi, rcx

; 1317 : #if AVXSUPP
; 1318 :     if (CodeInfo->token >= VEX_START){

	mov	ecx, DWORD PTR [rcx+24]
	lea	r8d, QWORD PTR [rbx+2]
	cmp	ecx, 1291				; 0000050bH
	jl	$LN6@output_dat
	lea	eax, DWORD PTR [rcx-1669]
	cmp	eax, 1
	jbe	SHORT $LN9@output_dat
	lea	eax, DWORD PTR [rcx-1679]
	cmp	eax, 1
	ja	SHORT $LN10@output_dat
$LN9@output_dat:

; 1319 :       if ((CodeInfo->token == T_ANDN) || (CodeInfo->token == T_MULX) ||
; 1320 :         (CodeInfo->token == T_PDEP) || (CodeInfo->token == T_PEXT)){
; 1321 :         if ((CodeInfo->opnd[OPND2].data32l == 0) || (index == 2))

	cmp	DWORD PTR [rdi+64], ebx
	je	$LN63@output_dat
	cmp	ebp, r8d
	je	$LN63@output_dat
$LN10@output_dat:
	lea	eax, DWORD PTR [rcx-1671]
	cmp	eax, 3
	jbe	SHORT $LN13@output_dat
	cmp	ecx, 1678				; 0000068eH
	jne	SHORT $LN16@output_dat
$LN13@output_dat:

; 1322 :           return;
; 1323 :       }
; 1324 :       if ((CodeInfo->token >= T_BEXTR) && (CodeInfo->token <= T_SHRX) || (CodeInfo->token == T_BZHI)) {
; 1325 :         if (CodeInfo->opnd[OPND2].data32l == 0) return;

	cmp	DWORD PTR [rdi+64], ebx
	je	$LN63@output_dat
	test	ebp, -3					; fffffffdH
	je	$LN63@output_dat
$LN16@output_dat:

; 1326 :         if ((index == 0) || (index == 2))
; 1327 :           return;
; 1328 :       }
; 1329 :       if (CodeInfo->opnd[OPND2].type == OP_I8 && CodeInfo->evex_flag){

	cmp	DWORD PTR [rdi+56], 131072		; 00020000H
	jne	SHORT $LN6@output_dat
	cmp	BYTE PTR [rdi+136], bl
	je	SHORT $LN6@output_dat
	lea	eax, DWORD PTR [rcx-2039]
	cmp	eax, 7
	jbe	SHORT $LN20@output_dat
	lea	eax, DWORD PTR [rcx-1529]
	cmp	eax, 17
	jbe	SHORT $LN20@output_dat
	lea	eax, DWORD PTR [rcx-1610]
	cmp	eax, 1
	ja	SHORT $LN6@output_dat
$LN20@output_dat:

; 1330 :         if ((CodeInfo->token >= T_VPSLLW) && (CodeInfo->token <= T_VPSRLQ) ||
; 1331 :           (CodeInfo->token >= T_VPSLLVD) && (CodeInfo->token <= T_VPSRLVW) ||
; 1332 :           (CodeInfo->token == T_VRNDSCALEPD) || (CodeInfo->token == T_VRNDSCALEPS))
; 1333 :         {
; 1334 :           if (((CodeInfo->rm_byte) >> 6) == 2)size = 4;

	movzx	eax, BYTE PTR [rdi+104]
	shr	al, 6
	cmp	al, r8b
	jne	SHORT $LN23@output_dat
	mov	ebx, 4
	jmp	SHORT $LN6@output_dat
$LN23@output_dat:

; 1335 :           else if (((CodeInfo->rm_byte) >> 6) == 1)size = 2;

	cmp	al, 1
	cmove	ebx, r8d
$LN6@output_dat:

; 1336 :         }
; 1337 :       }
; 1338 :     } 
; 1339 :     else
; 1340 : #endif
; 1341 :     /* skip the memory operand for XLAT/XLATB and string instructions! */
; 1342 :     if ( CodeInfo->token == T_XLAT || CodeInfo->token == T_XLATB ||
; 1343 :         CodeInfo->pinstr->allowed_prefix == AP_REP ||
; 1344 :         CodeInfo->pinstr->allowed_prefix == AP_REPxx ) {
; 1345 :         /* v2.06: no need anymore to modify the fixup field, it's
; 1346 :          * used inside OutputBytes() only.
; 1347 :          */
; 1348 :         //CodeInfo->InsFixup[index] = NULL;
; 1349 : 
; 1350 :         ;//return;
; 1351 :     }
; 1352 : #ifdef DEBUG_OUT
; 1353 :     if ( CodeInfo->opnd[index].InsFixup )
; 1354 :         DebugMsg1(("output_data(idx=%u, op=%" I32_SPEC "X [data=%" I32_SPEC "X fixup=%p typ=%u] ) enter [rm=%X]\n", index, determinant, CodeInfo->opnd[index].data32l, CodeInfo->opnd[index].InsFixup, CodeInfo->opnd[index].InsFixup->type ,CodeInfo->rm_byte ));
; 1355 :     else
; 1356 :         DebugMsg1(("output_data(idx=%u, op=%" I32_SPEC "X [data=%" I32_SPEC "X fixup=NULL] ) enter [rm=%X]\n", index, determinant, CodeInfo->opnd[index].data32l, CodeInfo->rm_byte ));
; 1357 : #endif
; 1358 : 
; 1359 :     /* determine size */
; 1360 : 
; 1361 :     if( determinant & OP_I8 ) {

	mov	QWORD PTR [rsp+48], rsi
	mov	QWORD PTR [rsp+56], r14
	bt	edx, 17
	jae	SHORT $LN28@output_dat
$LN39@output_dat:

; 1362 :         size = 1;

	mov	ebx, 1
	jmp	$LN67@output_dat
$LN28@output_dat:

; 1363 :     } else if( determinant & OP_I16 ) {

	bt	edx, 18
	jae	SHORT $LN30@output_dat

; 1364 :         size = 2;

	mov	ebx, r8d
	jmp	$LN67@output_dat
$LN30@output_dat:

; 1365 :     } else if( determinant & OP_I32 ) {

	bt	edx, 19
	jae	SHORT $LN32@output_dat
$LN53@output_dat:

; 1366 :         size = 4;

	mov	ebx, 4
	jmp	$LN67@output_dat
$LN32@output_dat:

; 1367 :     } else if( determinant & OP_I48 ) {

	bt	edx, 21
	jae	SHORT $LN34@output_dat

; 1368 :         size = 6;

	mov	ebx, 6
	jmp	$LN67@output_dat
$LN34@output_dat:

; 1369 : #if AMD64_SUPPORT
; 1370 :     } else if( determinant & OP_I64 ) {

	bt	edx, 20
	jae	SHORT $LN36@output_dat

; 1371 :         size = 8;

	mov	ebx, 8
	jmp	$LN67@output_dat
$LN36@output_dat:

; 1372 : #endif
; 1373 :     } else if( determinant & OP_M_ANY ) {

	test	edx, -8388608				; ffffffffff800000H
	je	$LN51@output_dat

; 1374 :         /* switch on the mode ( the leftmost 2 bits ) */
; 1375 :         switch( CodeInfo->rm_byte & BIT_67 ) {

	movzx	ecx, BYTE PTR [rdi+104]
	mov	edx, ecx
	and	edx, 192				; 000000c0H
	je	SHORT $LN40@output_dat
	sub	edx, 64					; 00000040H
	je	SHORT $LN39@output_dat
	cmp	edx, 64					; 00000040H
	jne	SHORT $LN51@output_dat

; 1404 : 
; 1405 : #endif
; 1406 :                 }
; 1407 :             }
; 1408 :             break;
; 1409 :         case MOD_10:  /* 16- or 32-bit displacement */
; 1410 :             if( ( CodeInfo->Ofssize == USE16 && CodeInfo->prefix.adrsiz == 0 ) ||

	movzx	eax, BYTE PTR [rdi+106]
	test	al, al
	jne	SHORT $LN56@output_dat
	test	BYTE PTR [rdi+9], 1
	je	SHORT $LN55@output_dat
$LN56@output_dat:
	cmp	al, 1
	jne	SHORT $LN53@output_dat
	test	BYTE PTR [rdi+9], al
	je	SHORT $LN53@output_dat
$LN55@output_dat:

; 1411 :                ( CodeInfo->Ofssize == USE32 && CodeInfo->prefix.adrsiz == 1 ) ) {
; 1412 :                 size = 2;

	mov	ebx, r8d

; 1413 :             } else {

	jmp	SHORT $LN67@output_dat
$LN40@output_dat:

; 1376 :         case MOD_01:  /* 8-bit displacement */
; 1377 :             size = 1;
; 1378 :             break;
; 1379 :         case MOD_00: /* direct; base and/or index with no disp */
; 1380 :             if( ( CodeInfo->Ofssize == USE16 && CodeInfo->prefix.adrsiz == 0 ) ||

	movzx	edx, BYTE PTR [rdi+106]
	test	dl, dl
	jne	SHORT $LN44@output_dat
	test	BYTE PTR [rdi+9], 1
	je	SHORT $LN43@output_dat
$LN44@output_dat:
	cmp	dl, 1
	jne	SHORT $LN41@output_dat
	test	BYTE PTR [rdi+9], dl
	je	SHORT $LN41@output_dat
$LN43@output_dat:

; 1381 :                ( CodeInfo->Ofssize == USE32 && CodeInfo->prefix.adrsiz == 1 ) ) {
; 1382 :                 if( ( CodeInfo->rm_byte & BIT_012 ) == RM_D16 ) {

	and	cl, 7
	cmp	cl, 6
	jne	SHORT $LN51@output_dat

; 1383 :                      size = 2; /* = size of displacement */

	mov	ebx, r8d

; 1384 :                 }
; 1385 :             } else {

	jmp	SHORT $LN67@output_dat
$LN41@output_dat:

; 1386 : #if AMD64_SUPPORT
; 1387 :                 /* v2.11: special case, 64-bit direct memory addressing, opcodes 0xA0 - 0xA3 */
; 1388 :                 if( CodeInfo->Ofssize == USE64 && ( CodeInfo->pinstr->opcode & 0xFC ) == 0xA0 && CodeInfo->pinstr->byte1_info == 0 )

	cmp	dl, r8b
	jne	SHORT $LN46@output_dat
	mov	r8, QWORD PTR [rdi+16]
	movzx	eax, BYTE PTR [r8+8]
	and	al, 252					; 000000fcH
	cmp	al, 160					; 000000a0H
	jne	SHORT $LN46@output_dat
	cmp	BYTE PTR [r8+1], 0
	jne	SHORT $LN46@output_dat

; 1389 :                     size = 8;

	mov	ebx, 8
	jmp	SHORT $LN67@output_dat
$LN46@output_dat:

; 1390 :                 else
; 1391 : #endif
; 1392 :                 switch( CodeInfo->rm_byte & BIT_012 ) {

	and	ecx, 7
	sub	ecx, 4
	je	SHORT $LN48@output_dat
	cmp	ecx, 1
	je	SHORT $LN49@output_dat
$LN51@output_dat:

; 1414 :                 size = 4;
; 1415 :             }
; 1416 :         }
; 1417 :     }
; 1418 : #ifdef DEBUG_OUT
; 1419 :     if ( size > 4 )
; 1420 :         DebugMsg1(( "output_data: size=%u cont=%" I64_SPEC "X\n", size, CodeInfo->opnd[index].data64 ));
; 1421 :     else if ( size )
; 1422 :         DebugMsg1(( "output_data: size=%u cont=%" I32_SPEC "X\n", size, CodeInfo->opnd[index].data32l ));
; 1423 :     else
; 1424 :         DebugMsg1(( "output_data: size=0\n" ));
; 1425 : #endif
; 1426 :     if (size) {

	test	ebx, ebx
	je	$LN61@output_dat
$LN67@output_dat:

; 1427 :       if (CodeInfo->opnd[index].InsFixup) {

	lea	rax, QWORD PTR [rbp+2]
	lea	rax, QWORD PTR [rax+rax*2]
	mov	rdx, QWORD PTR [rdi+rax*8]
	lea	r14, QWORD PTR [rdi+rax*8]
	test	rdx, rdx
	je	$LN61@output_dat

; 1428 :         /* v2.07: fixup type check moved here */
; 1429 :         if (Parse_Pass > PASS_1)

	cmp	DWORD PTR Parse_Pass, 0
	jbe	$LN60@output_dat

; 1430 :           if ((1 << CodeInfo->opnd[index].InsFixup->type) & ModuleInfo.fmtopt->invalid_fixup_type) {

	mov	r9, QWORD PTR ModuleInfo+344
	mov	ecx, DWORD PTR [rdx+24]
	movsx	eax, WORD PTR [r9+8]
	bt	eax, ecx
	jae	SHORT $LN60@output_dat

; 1431 :             EmitErr(UNSUPPORTED_FIXUP_TYPE,

	mov	rax, QWORD PTR [rdx+56]
	test	rax, rax
	je	SHORT $LN65@output_dat
	mov	r8, QWORD PTR [rax+8]
	jmp	SHORT $LN66@output_dat
$LN48@output_dat:

; 1393 :                 case RM_SIB: /* 0x04 (equals register # for ESP) */
; 1394 :                     if( ( CodeInfo->sib & BIT_012 ) != RM_D32 ) {

	movzx	eax, BYTE PTR [rdi+105]
	and	al, 7
	cmp	al, 5
	jne	SHORT $LN51@output_dat
$LN49@output_dat:

; 1395 :                         break;  /* size = 0 */
; 1396 :                     }
; 1397 :                     /* no break */
; 1398 :                 case RM_D32: /* 0x05 (equals register # for EBP) */
; 1399 :                     size = 4; /* = size of displacement */

	mov	ebx, 4

; 1400 : #if AMD64_SUPPORT
; 1401 :                     /* v2.11: overflow check for 64-bit added */
; 1402 :                       if ( CodeInfo->Ofssize == USE64 && CodeInfo->opnd[index].data64 >= 0x80000000 && CodeInfo->opnd[index].data64 < 0xffffffff80000000 )

	cmp	dl, 2
	jne	SHORT $LN67@output_dat
	lea	rcx, QWORD PTR [rbp*2]
	add	rcx, rbp
	mov	rax, QWORD PTR [rdi+rcx*8+40]
	mov	ecx, -2147483648			; 80000000H
	sub	rax, rcx
	mov	rcx, -4294967297			; fffffffeffffffffH
	cmp	rax, rcx
	ja	$LN67@output_dat

; 1403 :                         EmitErr( INVALID_COMBINATION_OF_OPCODE_AND_OPERANDS );  // proveri

	lea	ecx, QWORD PTR [rbx+10]
	call	EmitErr

; 1414 :                 size = 4;
; 1415 :             }
; 1416 :         }
; 1417 :     }
; 1418 : #ifdef DEBUG_OUT
; 1419 :     if ( size > 4 )
; 1420 :         DebugMsg1(( "output_data: size=%u cont=%" I64_SPEC "X\n", size, CodeInfo->opnd[index].data64 ));
; 1421 :     else if ( size )
; 1422 :         DebugMsg1(( "output_data: size=%u cont=%" I32_SPEC "X\n", size, CodeInfo->opnd[index].data32l ));
; 1423 :     else
; 1424 :         DebugMsg1(( "output_data: size=0\n" ));
; 1425 : #endif
; 1426 :     if (size) {

	jmp	$LN67@output_dat
$LN65@output_dat:

; 1431 :             EmitErr(UNSUPPORTED_FIXUP_TYPE,

	lea	r8, OFFSET FLAT:szNull
$LN66@output_dat:
	lea	rdx, QWORD PTR [r9+10]
	mov	ecx, 197				; 000000c5H
	call	EmitErr
$LN60@output_dat:

; 1432 :               ModuleInfo.fmtopt->formatname,
; 1433 :               CodeInfo->opnd[index].InsFixup->sym ? CodeInfo->opnd[index].InsFixup->sym->name : szNull);
; 1434 :             /* don't exit! */
; 1435 :           }
; 1436 :         if (write_to_file) {

	cmp	BYTE PTR write_to_file, 0
	je	SHORT $LN61@output_dat

; 1437 :           CodeInfo->opnd[index].InsFixup->locofs = GetCurrOffset();

	call	GetCurrOffset
	mov	rcx, QWORD PTR [r14]
	mov	DWORD PTR [rcx+20], eax

; 1438 :           OutputBytes((unsigned char *)&CodeInfo->opnd[index].data32l,

	mov	r8, QWORD PTR [r14]

; 1439 :             size, CodeInfo->opnd[index].InsFixup);
; 1440 :           return;

	jmp	SHORT $LN75@output_dat
$LN61@output_dat:

; 1441 :         }
; 1442 :       }
; 1443 :     }
; 1444 :         /* if the TypleType is present output only 1 byte for the multiplier */
; 1445 :         if (CodeInfo->tuple){

	cmp	BYTE PTR [rdi+140], 0
	je	SHORT $LN62@output_dat

; 1446 :           OutputByte(CodeInfo->opnd[index].data32l);

	lea	rcx, QWORD PTR [rbp*2]
	add	rcx, rbp
	movzx	ecx, BYTE PTR [rdi+rcx*8+40]
	call	OutputByte

; 1447 :         }

	jmp	SHORT $LN74@output_dat
$LN62@output_dat:

; 1448 :         else
; 1449 :           OutputBytes( (unsigned char *)&CodeInfo->opnd[index].data32l, size, NULL );

	xor	r8d, r8d
$LN75@output_dat:
	lea	rcx, QWORD PTR [rbp*2+5]
	mov	edx, ebx
	add	rcx, rbp
	lea	rcx, QWORD PTR [rdi+rcx*8]
	call	OutputBytes
$LN74@output_dat:
	mov	rsi, QWORD PTR [rsp+48]
	mov	r14, QWORD PTR [rsp+56]
$LN63@output_dat:

; 1450 :        
; 1451 :     return;
; 1452 : }

	mov	rbx, QWORD PTR [rsp+64]
	mov	rbp, QWORD PTR [rsp+72]
	add	rsp, 32					; 00000020H
	pop	rdi
	ret	0
output_data ENDP
_TEXT	ENDS
; Function compile flags: /Ogtpy
; File d:\hjwasm\hjwasm2.13.1s\hjwasm2.13.1s\codegen.c
;	COMDAT output_opc
_TEXT	SEGMENT
tv4280 = 80
tv3947 = 80
comprdsp$1 = 80
CodeInfo$ = 80
output_opc PROC						; COMDAT

; 168  : {

	mov	QWORD PTR [rsp+24], rbx
	mov	QWORD PTR [rsp+32], rbp
	push	rsi
	push	rdi
	push	r12
	push	r13
	push	r15
	sub	rsp, 32					; 00000020H

; 169  :   const struct instr_item *ins = CodeInfo->pinstr;

	mov	r15, QWORD PTR [rcx+16]

; 170  :   uint_8           tmp;
; 171  :   uint_8           fpfix = FALSE;

	xor	sil, sil

; 172  :   int              rn;
; 173  :   unsigned char    c;
; 174  :   DebugMsg1(("output_opc enter, ins.opc/rm=%X/%X, byte1_info=%X CodeInfo->rm=%X opsiz=%u\n", ins->opcode, ins->rm_byte, ins->byte1_info, CodeInfo->rm_byte, CodeInfo->prefix.opsiz));
; 175  :   /*
; 176  :    * Output debug info - line numbers
; 177  :    */
; 178  :   if (Options.line_numbers)

	cmp	BYTE PTR Options+1, sil
	mov	rdi, rcx
	je	SHORT $LN21@output_opc

; 179  :     AddLinnumDataRef(get_curr_srcfile(), GetLineNumber());

	call	GetLineNumber
	mov	ebx, eax
	call	get_curr_srcfile
	mov	ecx, eax
	mov	edx, ebx
	call	AddLinnumDataRef
$LN21@output_opc:

; 180  :   /* if it's a FPU instr, reset opsiz */
; 181  :   //if( ins->cpu & P_FPU_MASK ) {
; 182  :   /* v2.02: if it's a FPU or MMX/SSE instr, reset opsiz!
; 183  :    * [this code has been moved here from codegen()]
; 184  :    */
; 185  :   if (ins->cpu & (P_FPU_MASK | P_MMX | P_SSEALL)) {

	mov	eax, 64775				; 0000fd07H
	test	WORD PTR [r15+6], ax
	je	SHORT $LN23@output_opc

; 186  : #if SSE4SUPP
; 187  :     /* there are 2 exceptions. how to avoid this ugly hack? */
; 188  :     if (CodeInfo->token != T_CRC32 &&

	mov	eax, DWORD PTR [rdi+24]
	cmp	eax, 1262				; 000004eeH
	je	SHORT $LN23@output_opc
	cmp	eax, 1268				; 000004f4H
	je	SHORT $LN23@output_opc

; 189  :       CodeInfo->token != T_POPCNT)
; 190  : #endif
; 191  :       CodeInfo->prefix.opsiz = FALSE;

	and	BYTE PTR [rdi+9], 253			; 000000fdH
$LN23@output_opc:

; 192  :   }
; 193  :   if ((CodeInfo->token == T_RDRAND) || (CodeInfo->token == T_RDSEED)){

	movsxd	r9, DWORD PTR [rdi+24]
	lea	eax, DWORD PTR [r9-1269]
	cmp	eax, 1
	ja	SHORT $LN26@output_opc
	mov	eax, DWORD PTR [rdi+32]
	sub	eax, 2
	test	eax, -513				; fffffdffH
	jne	SHORT $LN26@output_opc

; 194  :     if ((CodeInfo->opnd[OPND1].type == OP_R16) || (CodeInfo->opnd[OPND1].type == OP_AX))
; 195  :       CodeInfo->prefix.opsiz = TRUE;

	or	BYTE PTR [rdi+9], 2
$LN26@output_opc:

; 196  :   }
; 197  :   /*
; 198  :    * Check if CPU, FPU and extensions are within the limits
; 199  :    */
; 200  :   if ((ins->cpu & P_CPU_MASK) > (ModuleInfo.curr_cpu & P_CPU_MASK)
; 201  :     || (ins->cpu & P_FPU_MASK) > (ModuleInfo.curr_cpu & P_FPU_MASK)
; 202  :     || (ins->cpu & P_EXT_MASK) > (ModuleInfo.curr_cpu & P_EXT_MASK)) {

	movzx	r8d, WORD PTR [r15+6]
	lea	r12, OFFSET FLAT:__ImageBase
	mov	edx, DWORD PTR ModuleInfo+392
	mov	ebx, 240				; 000000f0H
	mov	ecx, r8d
	mov	eax, edx
	and	ecx, ebx
	and	eax, ebx
	cmp	ecx, eax
	jg	SHORT $LN29@output_opc
	mov	ecx, r8d
	mov	eax, edx
	and	ecx, 7
	and	eax, 7
	cmp	cl, al
	jg	SHORT $LN29@output_opc
	mov	eax, r8d
	and	edx, 65280				; 0000ff00H
	and	eax, 65280				; 0000ff00H
	cmp	eax, edx
	jle	SHORT $LN31@output_opc
$LN29@output_opc:

; 203  :     DebugMsg(("output_opc: wrong cpu setting: instr.cpu=%X, ModuleInfo.cpu=%X\n",
; 204  :       ins->cpu, ModuleInfo.curr_cpu));
; 205  :     /* if instruction is valid for 16bit cpu, but operands aren't,
; 206  :      then display a more specific error message! */
; 207  :     if (ins->cpu == P_386 &&

	cmp	r8d, 48					; 00000030H
	jne	SHORT $LN30@output_opc
	movzx	eax, WORD PTR optable_idx[r12+r9*2-900]
	lea	rcx, QWORD PTR [rax+rax*4]
	movzx	eax, WORD PTR InstrTable[r12+rcx*2+6]

; 208  :       ((InstrTable[IndexFromToken(CodeInfo->token)].cpu & P_CPU_MASK) <= P_386))
; 209  :       EmitError(INSTRUCTION_FORM_REQUIRES_80386);

	mov	ecx, 238				; 000000eeH
	and	ax, bx
	cmp	ax, r8w
	jbe	SHORT $LN645@output_opc
$LN30@output_opc:

; 210  :     else
; 211  :       EmitError(INSTRUCTION_OR_REGISTER_NOT_ACCEPTED_IN_CURRENT_CPU_MODE);

	mov	ecx, 30
$LN645@output_opc:
	call	EmitError
$LN31@output_opc:

; 212  :     //return( ERROR );
; 213  :   }
; 214  : 
; 215  :   /*
; 216  :    * Output FP fixup if required
; 217  :    * the OPs with NOWAIT are the instructions beginning with
; 218  :    * FN, except FNOP.
; 219  :    * the OPs with WAIT are the instructions:
; 220  :    * FCLEX, FDISI, FENI, FINIT, FSAVEx, FSTCW, FSTENVx, FSTSW
; 221  :    */
; 222  :   if ((ModuleInfo.emulator == TRUE) &&
; 223  :     (CodeInfo->Ofssize == USE16) &&
; 224  :     (ins->cpu & P_FPU_MASK) &&

	mov	edx, DWORD PTR ModuleInfo+408
	bt	edx, 9
	jae	SHORT $LN32@output_opc
	cmp	BYTE PTR [rdi+106], 0
	jne	SHORT $LN32@output_opc
	test	BYTE PTR [r15+6], 7
	je	SHORT $LN32@output_opc
	movzx	eax, BYTE PTR [r15+2]
	and	al, 7
	cmp	al, 5
	je	SHORT $LN32@output_opc

; 225  :     (ins->allowed_prefix != AP_NO_FWAIT)) {
; 226  :     fpfix = TRUE;
; 227  :     /* v2.04: no error is returned */
; 228  :     AddFloatingPointEmulationFixup(CodeInfo);

	mov	rcx, rdi
	mov	sil, 1
	call	AddFloatingPointEmulationFixup
	mov	edx, DWORD PTR ModuleInfo+408
$LN32@output_opc:

; 229  :   }
; 230  : 
; 231  :   /*
; 232  :    * Output instruction prefix LOCK, REP or REP[N]E|Z
; 233  :    */
; 234  :   if (CodeInfo->prefix.ins != EMPTY && (CodeInfo->token < T_VPGATHERDD || CodeInfo->token > T_VGATHERQPS)) {

	movsxd	rcx, DWORD PTR [rdi]
	mov	ebp, 3
	cmp	ecx, -2
	je	SHORT $LN37@output_opc
	mov	eax, DWORD PTR [rdi+24]
	sub	eax, 1340				; 0000053cH
	cmp	eax, 7
	jbe	SHORT $LN37@output_opc

; 235  :     tmp = InstrTable[IndexFromToken(CodeInfo->prefix.ins)].allowed_prefix;

	movzx	eax, WORD PTR optable_idx[r12+rcx*2-900]
	lea	rcx, QWORD PTR [rax+rax*4]
	lea	r8, QWORD PTR [rcx+rcx]
	movzx	ecx, BYTE PTR InstrTable[r8+r12+2]
	and	cl, 7

; 236  :     /* instruction prefix must be ok. However, with -Zm, the plain REP
; 237  :      * is also ok for instructions which expect REPxx.
; 238  :      */
; 239  :     if (ModuleInfo.m510 == TRUE &&
; 240  :       tmp == AP_REP &&

	test	dl, 64					; 00000040H
	je	SHORT $LN35@output_opc
	cmp	cl, 2
	jne	SHORT $LN35@output_opc
	movzx	eax, BYTE PTR [r15+2]
	and	al, 7
	movzx	ecx, cl
	cmp	al, bpl
	cmove	ecx, ebp
$LN35@output_opc:

; 241  :       ins->allowed_prefix == AP_REPxx)
; 242  :       tmp = AP_REPxx;
; 243  : 
; 244  :     if (ins->allowed_prefix != tmp) {

	movzx	eax, BYTE PTR [r15+2]
	and	al, 7
	cmp	al, cl
	je	SHORT $LN36@output_opc

; 245  :       EmitError(INSTRUCTION_PREFIX_NOT_ALLOWED);

	mov	ecx, 28
	call	EmitError

; 246  :     }

	jmp	SHORT $LN37@output_opc
$LN36@output_opc:

; 247  :     else
; 248  :       OutputCodeByte(InstrTable[IndexFromToken(CodeInfo->prefix.ins)].opcode);

	movzx	ecx, BYTE PTR InstrTable[r8+r12+8]
	call	OutputByte
$LN37@output_opc:

; 249  :   }
; 250  :   /*
; 251  :    * Output FP FWAIT if required
; 252  :    */
; 253  :   if (ins->cpu & P_FPU_MASK) {

	test	BYTE PTR [r15+6], 7
	je	SHORT $LN46@output_opc

; 254  :     if (CodeInfo->token == T_FWAIT) {

	cmp	DWORD PTR [rdi+24], 828			; 0000033cH
	jne	SHORT $LN39@output_opc

; 255  :       /* v2.04: Masm will always insert a NOP if emulation is active,
; 256  :        * no matter what the current cpu is. The reason is simple: the
; 257  :        * nop is needed because of the fixup which was inserted.
; 258  :        */
; 259  :       //if(( ModuleInfo.curr_cpu & P_CPU_MASK ) < P_386 ) {
; 260  :       //    if(( ModuleInfo.emulator == TRUE ) && ( CodeInfo->Ofssize == USE16 )) {
; 261  :       if (fpfix) {

	test	sil, sil
	je	SHORT $LN46@output_opc

; 262  :         OutputCodeByte(OP_NOP);

	mov	cl, 144					; 00000090H

; 263  :       }
; 264  :     }

	jmp	SHORT $LN646@output_opc
$LN39@output_opc:

; 265  :     else if (fpfix || ins->allowed_prefix == AP_FWAIT) {

	test	sil, sil
	jne	SHORT $LN44@output_opc
	movzx	eax, BYTE PTR [r15+2]
	and	al, 7
	cmp	al, 4
	je	SHORT $LN44@output_opc

; 267  :     }
; 268  :     else if (ins->allowed_prefix != AP_NO_FWAIT) {

	cmp	al, 5
	je	SHORT $LN46@output_opc

; 269  :       /* implicit FWAIT synchronization for 8087 (CPU 8086/80186) */
; 270  :       if ((ModuleInfo.curr_cpu & P_CPU_MASK) < P_286)

	mov	eax, DWORD PTR ModuleInfo+392
	and	eax, ebx
	cmp	eax, 32					; 00000020H
	jge	SHORT $LN46@output_opc
$LN44@output_opc:

; 266  :       OutputCodeByte(OP_WAIT);

	mov	cl, 155					; 0000009bH
$LN646@output_opc:
	call	OutputByte
$LN46@output_opc:

; 271  :         OutputCodeByte(OP_WAIT);
; 272  :     }
; 273  :   }
; 274  :   /*
; 275  :    * check if address/operand size prefix is to be set
; 276  :    */
; 277  :   switch (ins->byte1_info) {

	movzx	eax, BYTE PTR [r15+1]
	dec	eax
	cmp	eax, 21
	ja	SHORT $LN2@output_opc
	cdqe
	movzx	eax, BYTE PTR $LN641@output_opc[r12+rax]
	mov	ecx, DWORD PTR $LN642@output_opc[r12+rax*4]
	add	rcx, r12
	jmp	rcx
$LN47@output_opc:

; 278  :   case F_16:
; 279  :     if (CodeInfo->Ofssize >= USE32) CodeInfo->prefix.opsiz = TRUE;

	cmp	BYTE PTR [rdi+106], 1
	jb	SHORT $LN2@output_opc
	or	BYTE PTR [rdi+9], 2

; 280  :     break;

	jmp	SHORT $LN2@output_opc
$LN49@output_opc:

; 281  :   case F_32:
; 282  :     if (CodeInfo->Ofssize == USE16) CodeInfo->prefix.opsiz = TRUE;

	cmp	BYTE PTR [rdi+106], 0
	jne	SHORT $LN2@output_opc
	or	BYTE PTR [rdi+9], 2

; 283  :     break;

	jmp	SHORT $LN2@output_opc
$LN51@output_opc:

; 284  :   case F_16A: /* 16-bit JCXZ and LOOPcc */
; 285  :     /* doesnt exist for IA32+ */
; 286  :     if (CodeInfo->Ofssize == USE32) CodeInfo->prefix.adrsiz = TRUE;

	cmp	BYTE PTR [rdi+106], 1
	jne	SHORT $LN2@output_opc
	or	BYTE PTR [rdi+9], 1

; 287  :     break;

	jmp	SHORT $LN2@output_opc
$LN53@output_opc:

; 288  :   case F_32A: /* 32-bit JECXZ and LOOPcc */
; 289  : #if AMD64_SUPPORT
; 290  :     /* in IA32+, the 32bit version gets an 0x67 prefix */
; 291  :     if (CodeInfo->Ofssize != USE32)  CodeInfo->prefix.adrsiz = TRUE;

	cmp	BYTE PTR [rdi+106], 1
	je	SHORT $LN2@output_opc
	or	BYTE PTR [rdi+9], 1

; 292  : #else
; 293  :     if( CodeInfo->Ofssize == USE16 ) CodeInfo->prefix.adrsiz = TRUE;
; 294  : #endif
; 295  :     break;

	jmp	SHORT $LN2@output_opc
$LN55@output_opc:

; 296  :   case F_0FNO66:
; 297  :     CodeInfo->prefix.opsiz = FALSE;

	and	BYTE PTR [rdi+9], 253			; 000000fdH

; 298  :     break;

	jmp	SHORT $LN2@output_opc
$LN56@output_opc:

; 299  : #if AMD64_SUPPORT
; 300  :   case F_48:
; 301  :   case F_480F:
; 302  :     CodeInfo->prefix.rex |= REX_W;

	or	BYTE PTR [rdi+8], 8
$LN2@output_opc:

; 303  :     break;
; 304  : #endif
; 305  :   }
; 306  : 
; 307  : 
; 308  : #if AVXSUPP                                                      
; 309  :   if (ResWordTable[CodeInfo->token].flags & RWF_EVEX)

	movsxd	rcx, DWORD PTR [rdi+24]
	mov	rax, rcx
	add	rax, rax
	test	BYTE PTR ResWordTable[r12+rax*8+3], 16
	je	SHORT $LN57@output_opc

; 310  : 	  CodeInfo->evex_flag = TRUE;

	mov	BYTE PTR [rdi+136], 1
$LN57@output_opc:

; 311  :   if (CodeInfo->evex_flag == TRUE) {

	cmp	BYTE PTR [rdi+136], 1
	jne	SHORT $LN59@output_opc

; 312  : 	  if (!(vex_flags[CodeInfo->token - VEX_START] & VX_LL))

	test	BYTE PTR vex_flags[rcx+r12-1291], 64	; 00000040H
	jne	SHORT $LN59@output_opc

; 313  : 		  EmitError(INVALID_COMBINATION_OF_OPCODE_AND_OPERANDS);

	mov	ecx, 14
	call	EmitError
$LN59@output_opc:

; 314  :   }
; 315  : 
; 316  :   if (!(ResWordTable[CodeInfo->token].flags & RWF_VEX)) {

	movsxd	rax, DWORD PTR [rdi+24]
	add	rax, rax
	test	BYTE PTR ResWordTable[r12+rax*8+3], 8
	jne	SHORT $LN4@output_opc

; 317  : #endif
; 318  :     switch (ins->byte1_info) {

	movzx	eax, BYTE PTR [r15+1]
	add	eax, -5
	cmp	eax, 22
	ja	SHORT $LN4@output_opc
	cdqe
	movzx	eax, BYTE PTR $LN639@output_opc[r12+rax]
	mov	ecx, DWORD PTR $LN640@output_opc[r12+rax*4]
	add	rcx, r12
	jmp	rcx
$LN61@output_opc:

; 319  :     case F_660F:
; 320  :     case F_660F38:
; 321  :     case F_660F3A:
; 322  :       CodeInfo->prefix.opsiz = TRUE;

	or	BYTE PTR [rdi+9], 2

; 323  :       break;

	jmp	SHORT $LN4@output_opc
$LN62@output_opc:

; 324  :     case F_F20F:
; 325  :     case F_F20F38: OutputCodeByte(0xF2); break;

	mov	cl, 242					; 000000f2H
	jmp	SHORT $LN647@output_opc
$LN63@output_opc:

; 326  :     case F_F3: /* PAUSE instruction */
; 327  :     case F_F30F:   OutputCodeByte(0xF3); break;

	mov	cl, 243					; 000000f3H
$LN647@output_opc:
	call	OutputByte
$LN4@output_opc:

; 328  :     }
; 329  : #if AVXSUPP
; 330  :   }
; 331  : #endif
; 332  :   /*
; 333  :    * Output address and operand size prefixes.
; 334  :    * These bytes are NOT compatible with FP emulation fixups,
; 335  :    * which expect that the FWAIT/NOP first "prefix" byte is followed
; 336  :    * by either a segment prefix or the opcode byte.
; 337  :    * Neither Masm nor HJWasm emit a warning, though.
; 338  :    */
; 339  :   if (CodeInfo->prefix.adrsiz == TRUE && (CodeInfo->token < T_VPGATHERDD || CodeInfo->token > T_VSCATTERQPD)) {

	test	BYTE PTR [rdi+9], 1
	je	SHORT $LN64@output_opc
	mov	eax, DWORD PTR [rdi+24]
	sub	eax, 1340				; 0000053cH
	cmp	eax, 15
	jbe	SHORT $LN64@output_opc

; 340  :     OutputCodeByte(ADRSIZ);

	mov	cl, 103					; 00000067H
	call	OutputByte
$LN64@output_opc:

; 341  : #ifdef DEBUG_OUT
; 342  :     if (fpfix)
; 343  :       DebugMsg(("output_opc: ERROR: FP emulation byte sequence destroyed by 32-bit address prefix!\n"));
; 344  : #endif
; 345  :   }
; 346  :   if (CodeInfo->prefix.opsiz == TRUE) {

	test	BYTE PTR [rdi+9], 2
	je	SHORT $LN66@output_opc

; 347  : #if 1
; 348  :     if ((ModuleInfo.curr_cpu & P_CPU_MASK) < P_386) {

	mov	eax, DWORD PTR ModuleInfo+392
	and	eax, ebx
	cmp	eax, 48					; 00000030H
	jge	SHORT $LN67@output_opc

; 349  :       DebugMsg(("output_opc: instruction form requires 386\n"));
; 350  :       EmitError(INSTRUCTION_FORM_REQUIRES_80386);

	mov	ecx, 238				; 000000eeH
	call	EmitError
$LN67@output_opc:

; 351  :       //return( ERROR ); /* v2.06: don't skip instruction */
; 352  :     }
; 353  : #endif
; 354  :     OutputCodeByte(OPSIZ);

	mov	cl, 102					; 00000066H
	call	OutputByte
$LN66@output_opc:

; 355  :   }
; 356  :   /*
; 357  :    * Output segment prefix
; 358  :    */
; 359  :   if (CodeInfo->prefix.RegOverride != EMPTY) {

	movsxd	rax, DWORD PTR [rdi+4]
	cmp	eax, -2
	je	SHORT $LN68@output_opc

; 360  :     OutputCodeByte(sr_prefix[CodeInfo->prefix.RegOverride]);

	movzx	ecx, BYTE PTR sr_prefix[rax+r12]
	call	OutputByte
$LN68@output_opc:

; 361  :   }
; 362  :   if (ins->opnd_dir) {

	test	BYTE PTR [r15+2], 128			; 00000080H
	je	SHORT $LN69@output_opc

; 363  :     /* The reg and r/m fields are backwards */
; 364  :     tmp = CodeInfo->rm_byte;

	movzx	ecx, BYTE PTR [rdi+104]

; 365  :     CodeInfo->rm_byte = (tmp & 0xc0) | ((tmp >> 3) & 0x7) | ((tmp << 3) & 0x38);

	movzx	edx, cl
	movzx	eax, cl
	shr	dl, 3
	and	al, 7
	and	dl, 7
	shl	al, 3
	or	dl, al
	and	cl, 192					; 000000c0H
	or	dl, cl

; 366  : #if AMD64_SUPPORT
; 367  :     tmp = CodeInfo->prefix.rex;

	movzx	ecx, BYTE PTR [rdi+8]
	mov	BYTE PTR [rdi+104], dl

; 368  :     CodeInfo->prefix.rex = (tmp & 0xFA) | ((tmp & REX_R) >> 2) | ((tmp & REX_B) << 2);

	movzx	eax, cl
	movzx	edx, cl
	and	al, 1
	shr	dl, 2
	and	cl, 250					; 000000faH
	and	dl, 1
	shl	al, 2
	or	dl, al
	or	dl, cl
	mov	BYTE PTR [rdi+8], dl
$LN69@output_opc:

; 369  : #endif
; 370  :   }
; 371  : #if AVXSUPP
; 372  :   if (ResWordTable[CodeInfo->token].flags & RWF_VEX) {

	movsxd	rdx, DWORD PTR [rdi+24]
	mov	r13d, 1
	mov	rax, rdx
	add	rax, rax
	test	BYTE PTR ResWordTable[r12+rax*8+3], 8
	je	$LN70@output_opc

; 373  :     uint_8 lbyte = 0;

	xor	al, al

; 374  :     if (CodeInfo->evex_flag){

	cmp	BYTE PTR [rdi+136], 0
	movzx	ebx, al
	mov	eax, 4
	cmovne	ebx, eax

; 375  :       lbyte |= 0x4;              //bite 3 must be set in P2 WVVVV1PP 
; 376  :     }
; 377  :     switch (ins->byte1_info) {

	movzx	eax, BYTE PTR [r15+1]
	add	eax, -18
	cmp	eax, 10
	ja	SHORT $LN6@output_opc
	cdqe
	mov	ecx, DWORD PTR $LN638@output_opc[r12+rax*4]
	add	rcx, r12
	jmp	rcx
$LN73@output_opc:

; 378  :     case F_660F:
; 379  :     case F_660F38:
; 380  :     case F_660F3A:
; 381  :       lbyte |= 0x01;

	or	bl, r13b

; 382  :       break;

	jmp	SHORT $LN6@output_opc
$LN74@output_opc:

; 383  :     case F_F30F:
; 384  :     case F_F30F38:
; 385  :       lbyte |= 0x02;

	or	bl, 2

; 386  :       break;

	jmp	SHORT $LN6@output_opc
$LN75@output_opc:

; 387  :     case F_F20F:
; 388  :     case F_F20F38:
; 389  :       lbyte |= 0x03;

	or	bl, bpl
$LN6@output_opc:
	lea	eax, DWORD PTR [rdx-1589]
	cmp	eax, ebp
	ja	SHORT $LN76@output_opc

; 390  :       break;
; 391  :     }
; 392  :     if ((CodeInfo->token >= T_VSHUFF32X4) && (CodeInfo->token <= T_VSHUFI64X2) &&

	test	BYTE PTR [rdi+32], 32			; 00000020H
	jne	SHORT $LN77@output_opc
	test	BYTE PTR [rdi+56], 32			; 00000020H
	je	SHORT $LN76@output_opc
$LN77@output_opc:

; 393  :       ((CodeInfo->opnd[OPND1].type & OP_XMM) || (CodeInfo->opnd[OPND2].type & OP_XMM)))
; 394  :       EmitError(INVALID_COMBINATION_OF_OPCODE_AND_OPERANDS); //Only YMM and ZMM alowed    

	mov	ecx, 14
	call	EmitError
$LN76@output_opc:

; 395  :     if (CodeInfo->vexregop)

	movzx	ecx, BYTE PTR [rdi+128]
	test	cl, cl
	je	SHORT $LN78@output_opc

; 396  :       lbyte |= ((16 - CodeInfo->vexregop) << 3);

	shl	cl, 3
	mov	eax, 128				; 00000080H
	sub	al, cl
	or	bl, al
	jmp	SHORT $LN79@output_opc
$LN78@output_opc:

; 397  :     else {
; 398  :       lbyte |= EVEX_P1VVVV;

	or	bl, 120					; 00000078H

; 399  :       CodeInfo->evex_p2 |= EVEX_P2VMASK;

	or	BYTE PTR [rdi+139], 8
$LN79@output_opc:

; 400  :     }
; 401  :         /* emit 4 byte (0x62), 3 (0xC4) or 2 (0xC5) byte VEX prefix */
; 402  :         if ((CodeInfo->token ==  T_VMOVMSKPD )||(CodeInfo->token ==  T_VMOVMSKPS )) 

	mov	edx, DWORD PTR [rdi+24]
	lea	eax, DWORD PTR [rdx-1941]
	cmp	eax, r13d
	ja	SHORT $LN80@output_opc

; 403  :           CodeInfo->prefix.rex &= ~REX_W;

	and	BYTE PTR [rdi+8], 247			; 000000f7H
$LN80@output_opc:

; 404  :         if (( ins->byte1_info >= F_0F38) || ( CodeInfo->prefix.rex & ( REX_B | REX_X | REX_W ) )|| 
; 405  :           (( ins->byte1_info == F_0F) && (CodeInfo->token ==  T_KMOVQ )) || (ins->byte1_info == F_660F) && 

	movzx	ecx, BYTE PTR [r15+1]
	cmp	cl, 23
	jae	$LN84@output_opc
	movzx	eax, BYTE PTR [rdi+8]
	test	al, 11
	jne	$LN84@output_opc
	cmp	cl, 16
	jne	SHORT $LN85@output_opc
	cmp	edx, 1727				; 000006bfH
	je	$LN84@output_opc
$LN85@output_opc:
	cmp	cl, 18
	jne	SHORT $LN82@output_opc
	cmp	edx, 1726				; 000006beH
	je	$LN84@output_opc
$LN82@output_opc:

; 772  :                 }
; 773  :             }
; 774  :         } else {
; 775  :             lbyte |= ( ( CodeInfo->prefix.rex & REX_R ) ? 0 : EVEX_P1WMASK );

	shl	al, 5
	not	al
	and	al, 128					; 00000080H
	or	bl, al

; 776  :             /* first byte is 0xC5  in 2 byte version  */
; 777  :             if (CodeInfo->evex_flag) {

	cmp	BYTE PTR [rdi+136], 0
	je	$LN284@output_opc

; 778  :               OutputCodeByte(0x62);

	mov	cl, 98					; 00000062H
	call	OutputByte

; 779  :               if ((CodeInfo->opnd[OPND1].type & OP_M_ANY)|| (CodeInfo->opnd[OPND2].type & OP_M_ANY)||

	test	DWORD PTR [rdi+32], -8388608		; ffffffffff800000H
	jne	SHORT $LN287@output_opc
	test	DWORD PTR [rdi+56], -8388608		; ffffffffff800000H
	jne	SHORT $LN287@output_opc
	test	DWORD PTR [rdi+80], -8388608		; ffffffffff800000H
	je	SHORT $LN286@output_opc
$LN287@output_opc:

; 780  :                 (CodeInfo->opnd[OPND3].type & OP_M_ANY)) CodeInfo->tuple = TRUE;

	mov	BYTE PTR [rdi+140], r13b
$LN286@output_opc:

; 781  :               lbyte &= ~EVEX_P1WMASK;
; 782  :               lbyte |=  ((CodeInfo->pinstr->prefix)>>8 & EVEX_P1WMASK);

	mov	rax, QWORD PTR [rdi+16]
	xor	bl, BYTE PTR [rax+5]
	and	bl, 127					; 0000007fH
	xor	bl, BYTE PTR [rax+5]

; 783  :               if ((CodeInfo->opnd[OPND2].type == OP_M64)||(CodeInfo->opnd[OPND1].type == OP_M64)) 

	mov	eax, DWORD PTR [rdi+56]
	cmp	eax, 67108864				; 04000000H
	je	SHORT $LN289@output_opc
	cmp	DWORD PTR [rdi+32], 67108864		; 04000000H
	jne	SHORT $LN288@output_opc
$LN289@output_opc:

; 784  :                 lbyte |= EVEX_P1WMASK;

	or	bl, 128					; 00000080H
$LN288@output_opc:
	add	eax, -4					; fffffffcH
	test	eax, -513				; fffffdffH
	je	SHORT $LN291@output_opc
	mov	eax, DWORD PTR [rdi+32]
	sub	eax, 4
	test	eax, -513				; fffffdffH
	jne	SHORT $LN290@output_opc
$LN291@output_opc:

; 785  :               if ((CodeInfo->opnd[OPND2].type == OP_R32) || (CodeInfo->opnd[OPND2].type == OP_EAX)||
; 786  :                 (CodeInfo->opnd[OPND1].type == OP_R32) || (CodeInfo->opnd[OPND1].type == OP_EAX)){
; 787  :                 lbyte &= ~EVEX_P1WMASK;

	and	bl, 127					; 0000007fH
$LN290@output_opc:

; 788  :               }
; 789  :               switch ( ins->byte1_info ) {                     

	movzx	edx, BYTE PTR [r15+1]
	mov	ecx, edx
	sub	ecx, 23
	je	SHORT $LN292@output_opc
	sub	ecx, r13d
	je	SHORT $LN293@output_opc
	sub	ecx, r13d
	je	SHORT $LN292@output_opc
	sub	ecx, r13d
	je	SHORT $LN293@output_opc
	sub	ecx, r13d
	je	SHORT $LN292@output_opc

; 799  :               default:
; 800  :                 if (ins->byte1_info >= F_0F){

	cmp	dl, 16
	jb	SHORT $LN295@output_opc

; 801  :                   CodeInfo->evex_p0 |= 0x01;

	or	BYTE PTR [rdi+137], r13b
	jmp	SHORT $LN295@output_opc
$LN293@output_opc:

; 794  :                   break;
; 795  :               case F_0F3A:
; 796  :               case F_660F3A:
; 797  :                   CodeInfo->evex_p0 |= 0x03;

	or	BYTE PTR [rdi+137], bpl

; 798  :                   break;

	jmp	SHORT $LN295@output_opc
$LN292@output_opc:

; 790  :               case F_0F38:                                     
; 791  :               case F_660F38:                                   
; 792  :               case F_F20F38:                                   
; 793  :                   CodeInfo->evex_p0 |= 0x02;

	or	BYTE PTR [rdi+137], 2
$LN295@output_opc:

; 802  :                 }
; 803  :               }
; 804  :               CodeInfo->evex_p0 |= EVEX_P0XMASK;
; 805  :               CodeInfo->evex_p0 |= EVEX_P0BMASK;

	or	BYTE PTR [rdi+137], 96			; 00000060H

; 806  :                if ((CodeInfo->token >= T_VMOVLHPS)&&(CodeInfo->token <= T_VMOVLPS)||         
; 807  :                  (CodeInfo->token == T_VMOVNTDQ)||                                           
; 808  :                (CodeInfo->token == T_VMOVUPD)||(CodeInfo->token == T_VMOVAPD)||              
; 809  :                (CodeInfo->token >= T_VMOVDQA32)&&(CodeInfo->token <= T_VMOVDQU64)||          
; 810  :                (CodeInfo->token == T_VMOVAPS)||(CodeInfo->token == T_VMOVUPS)){              

	mov	edx, DWORD PTR [rdi+24]
	movzx	ecx, BYTE PTR [rdi+137]
	lea	eax, DWORD PTR [rdx-1927]
	cmp	eax, 23
	ja	SHORT $LN559@output_opc
	mov	r8d, 12652419				; 00c10f83H
	bt	r8d, eax
	jb	SHORT $LN298@output_opc
$LN559@output_opc:
	lea	eax, DWORD PTR [rdx-1638]
	cmp	eax, ebp
	jbe	SHORT $LN298@output_opc

; 831  :                 } 
; 832  :               }
; 833  :               else{
; 834  :                 if (CodeInfo->reg1 <= 15) CodeInfo->evex_p0 |= EVEX_P0R1MASK;

	movzx	eax, BYTE PTR [rdi+109]
	cmp	al, 15
	ja	SHORT $LN320@output_opc
	or	cl, 16
	jmp	SHORT $LN648@output_opc
$LN320@output_opc:

; 835  :                 else CodeInfo->evex_p0 &= ~EVEX_P0R1MASK;

	and	cl, 239					; 000000efH
$LN648@output_opc:
	mov	BYTE PTR [rdi+137], cl
	test	al, 232					; 000000e8H
	je	SHORT $LN324@output_opc

; 838  :                 else CodeInfo->evex_p0 &= ~EVEX_P0RMASK;

	and	BYTE PTR [rdi+137], 127			; 0000007fH
	jmp	$LN310@output_opc
$LN324@output_opc:

; 836  :                 if ((CodeInfo->reg1 <= 7) || (CodeInfo->reg1 >= 16 && CodeInfo->reg1 <= 23))
; 837  :                   CodeInfo->evex_p0 |= EVEX_P0RMASK;

	or	BYTE PTR [rdi+137], 128			; 00000080H
	jmp	$LN310@output_opc
$LN298@output_opc:
	test	DWORD PTR [rdi+32], 416			; 000001a0H

; 811  :                 if ((CodeInfo->opnd[OPND1].type & OP_XMM)||(CodeInfo->opnd[OPND1].type & OP_YMM)||

	jne	SHORT $LN303@output_opc
	test	DWORD PTR [rdi+56], 416			; 000001a0H

; 820  :                 }
; 821  :               else if ((CodeInfo->opnd[OPND2].type & OP_XMM)||(CodeInfo->opnd[OPND2].type & OP_YMM)||

	je	SHORT $LN310@output_opc
	test	BYTE PTR [rdi+110], 232			; 000000e8H
	je	SHORT $LN315@output_opc

; 825  :                   else CodeInfo->evex_p0 &= ~EVEX_P0RMASK;

	and	cl, 127					; 0000007fH
	jmp	SHORT $LN649@output_opc
$LN315@output_opc:

; 822  :                 (CodeInfo->opnd[OPND2].type & OP_ZMM)){
; 823  :                   if ((CodeInfo->reg2 <= 7) || (CodeInfo->reg2 >= 16 && CodeInfo->reg2 <= 23))
; 824  :                     CodeInfo->evex_p0 |= EVEX_P0RMASK;

	or	cl, 128					; 00000080H
$LN649@output_opc:
	mov	BYTE PTR [rdi+137], cl

; 826  :                   if (CodeInfo->reg1 > 0x07)
; 827  :                     CodeInfo->evex_p0 &= ~EVEX_P0R1MASK;

	and	BYTE PTR [rdi+137], 239			; 000000efH

; 828  :                   else CodeInfo->evex_p0 &= ~EVEX_P0R1MASK;  
; 829  :                   if (CodeInfo->opnd[OPND2].type & OP_YMM) CodeInfo->evex_p2 |= EVEX_P2LMASK;

	test	BYTE PTR [rdi+56], -128			; ffffffffffffff80H
	je	SHORT $LN318@output_opc
	or	BYTE PTR [rdi+139], 32			; 00000020H
$LN318@output_opc:

; 830  :                   if (CodeInfo->opnd[OPND2].type & OP_ZMM) CodeInfo->evex_p2 |= EVEX_P2L1MASK;

	test	DWORD PTR [rdi+56], 256			; 00000100H
	jmp	SHORT $LN650@output_opc
$LN303@output_opc:

; 812  :                 (CodeInfo->opnd[OPND1].type & OP_ZMM)){
; 813  :                   if ((CodeInfo->reg1 <= 7) || (CodeInfo->reg1 >= 16 && CodeInfo->reg1 <= 23))

	movzx	eax, BYTE PTR [rdi+109]
	test	al, 232					; 000000e8H
	je	SHORT $LN306@output_opc

; 815  :                   else CodeInfo->evex_p0 &= ~EVEX_P0RMASK;

	and	cl, 127					; 0000007fH
	jmp	SHORT $LN651@output_opc
$LN306@output_opc:

; 814  :                     CodeInfo->evex_p0 |= EVEX_P0RMASK;

	or	cl, 128					; 00000080H
$LN651@output_opc:
	mov	BYTE PTR [rdi+137], cl

; 816  :                   if (CodeInfo->reg1 <= 15) CodeInfo->evex_p0 |= EVEX_P0R1MASK;

	cmp	al, 15
	ja	SHORT $LN307@output_opc
	or	BYTE PTR [rdi+137], 16
	jmp	SHORT $LN308@output_opc
$LN307@output_opc:

; 817  :                   else CodeInfo->evex_p0 &= ~EVEX_P0R1MASK;

	and	BYTE PTR [rdi+137], 239			; 000000efH
$LN308@output_opc:

; 818  :                   if (CodeInfo->opnd[OPND1].type & OP_YMM) CodeInfo->evex_p2 |= EVEX_P2LMASK;

	test	BYTE PTR [rdi+32], -128			; ffffffffffffff80H
	je	SHORT $LN309@output_opc
	or	BYTE PTR [rdi+139], 32			; 00000020H
$LN309@output_opc:

; 819  :                   if (CodeInfo->opnd[OPND1].type & OP_ZMM) CodeInfo->evex_p2 |= EVEX_P2L1MASK;

	test	DWORD PTR [rdi+32], 256			; 00000100H
$LN650@output_opc:
	je	SHORT $LN310@output_opc
	or	BYTE PTR [rdi+139], 64			; 00000040H
$LN310@output_opc:
	lea	eax, DWORD PTR [rdx-1945]
	cmp	eax, r13d
	ja	SHORT $LN330@output_opc

; 839  :               }
; 840  :               if ((CodeInfo->token == T_VMOVNTPD)||(CodeInfo->token == T_VMOVNTPS)){
; 841  :                 if (CodeInfo->reg2 <= 15) CodeInfo->evex_p0 |= EVEX_P0R1MASK;

	movzx	eax, BYTE PTR [rdi+110]
	cmp	al, 15
	ja	SHORT $LN327@output_opc
	or	BYTE PTR [rdi+137], 16
	jmp	SHORT $LN328@output_opc
$LN327@output_opc:

; 842  :                 else CodeInfo->evex_p0 &= ~EVEX_P0R1MASK;

	and	BYTE PTR [rdi+137], 239			; 000000efH
$LN328@output_opc:
	test	al, 232					; 000000e8H
	je	SHORT $LN331@output_opc

; 845  :                 else CodeInfo->evex_p0 &= ~EVEX_P0RMASK;

	and	BYTE PTR [rdi+137], 127			; 0000007fH
	jmp	SHORT $LN330@output_opc
$LN331@output_opc:

; 843  :                 if ((CodeInfo->reg2 <= 7) || (CodeInfo->reg2 >= 16 && CodeInfo->reg2 <= 23))
; 844  :                   CodeInfo->evex_p0 |= EVEX_P0RMASK;

	or	BYTE PTR [rdi+137], 128			; 00000080H
$LN330@output_opc:
	lea	eax, DWORD PTR [rdx-1934]
	cmp	eax, 4
	ja	SHORT $LN333@output_opc

; 846  :               }
; 847  :               if ((CodeInfo->token >= T_VMOVLHPS)&&(CodeInfo->token <= T_VMOVLPS)){
; 848  :                 if ((CodeInfo->opnd[OPND1].type == OP_YMM)||(CodeInfo->opnd[OPND2].type == OP_YMM)||
; 849  :                 (CodeInfo->opnd[OPND1].type == OP_ZMM)||(CodeInfo->opnd[OPND2].type == OP_ZMM))

	mov	ecx, DWORD PTR [rdi+32]
	cmp	ecx, 128				; 00000080H
	je	SHORT $LN334@output_opc
	mov	eax, DWORD PTR [rdi+56]
	cmp	eax, 128				; 00000080H
	je	SHORT $LN334@output_opc
	cmp	ecx, 256				; 00000100H
	je	SHORT $LN334@output_opc
	cmp	eax, 256				; 00000100H
	jne	SHORT $LN333@output_opc
$LN334@output_opc:

; 850  :                 EmitError( INVALID_INSTRUCTION_OPERANDS );

	mov	ecx, 49					; 00000031H
	call	EmitError
$LN333@output_opc:

; 851  :               }
; 852  :               OutputCodeByte( CodeInfo->evex_p0 );

	movzx	ecx, BYTE PTR [rdi+137]
	call	OutputByte

; 853  :             }

	jmp	SHORT $LN285@output_opc
$LN284@output_opc:

; 854  :             else{
; 855  :               OutputCodeByte(0xC5);

	mov	cl, 197					; 000000c5H
	call	OutputByte

; 856  :               if (CodeInfo->opnd[OPND1].type == OP_YMM || CodeInfo->opnd[OPND2].type == OP_YMM)

	cmp	DWORD PTR [rdi+32], 128			; 00000080H
	je	SHORT $LN337@output_opc
	cmp	DWORD PTR [rdi+56], 128			; 00000080H
	je	SHORT $LN337@output_opc

; 858  :               else
; 859  :                 lbyte &= ~0x04;

	and	bl, 251					; 000000fbH
	jmp	SHORT $LN336@output_opc
$LN337@output_opc:

; 857  :                  lbyte |= 0x04;

	or	bl, 4
$LN336@output_opc:

; 860  :               CodeInfo->tuple = 0;

	mov	BYTE PTR [rdi+140], 0
$LN285@output_opc:

; 861  :             }
; 862  :             /* second byte R vvvv Lpp   */
; 863  :             if ((CodeInfo->token == T_LZCNT) || (CodeInfo->token == T_TZCNT))

	movsxd	rcx, DWORD PTR [rdi+24]
	lea	eax, DWORD PTR [rcx-1271]
	cmp	eax, r13d
	ja	SHORT $LN338@output_opc

; 864  :                lbyte |= 0x80;

	or	bl, 128					; 00000080H
$LN338@output_opc:

; 865  :             if (CodeInfo->token == T_VMASKMOVDQU) {

	cmp	ecx, 1926				; 00000786H
	jne	SHORT $LN343@output_opc

; 866  :               /*  1 1111 0pp */
; 867  :               /*  R vvvv Lpp */
; 868  :               lbyte |= 0xF8;
; 869  :               if (ins->byte1_info == F_660F) lbyte |= 0x01;

	movzx	eax, BYTE PTR [r15+1]
	or	bl, 248					; 000000f8H
	cmp	al, 18
	jne	SHORT $LN341@output_opc
	or	bl, r13b
	jmp	SHORT $LN343@output_opc
$LN341@output_opc:

; 870  :               else if (ins->byte1_info == F_0F) lbyte |= 0x3;

	cmp	al, 16
	jne	SHORT $LN343@output_opc
	or	bl, bpl
$LN343@output_opc:
	lea	eax, DWORD PTR [rcx-1342]
	cmp	eax, ebp
	ja	SHORT $LN344@output_opc

; 871  :             }  //WVVVV1PP
; 872  :             /* if broadflags are prezent W = 0  in WVVVV1PP */
; 873  :               if (CodeInfo->token == T_VPGATHERDQ || CodeInfo->token == T_VPGATHERQQ ||
; 874  :                 CodeInfo->token == T_VGATHERDPD || CodeInfo->token == T_VGATHERQPD){
; 875  :                   lbyte |= 0x80;

	or	bl, 128					; 00000080H
$LN344@output_opc:

; 876  :                 }
; 877  :               if (CodeInfo->token == T_VGATHERDPS)lbyte &= ~0x80;

	cmp	ecx, 1346				; 00000542H
	jne	SHORT $LN346@output_opc
	and	bl, 127					; 0000007fH
$LN346@output_opc:

; 878  :               if (CodeInfo->evex_flag){

	movzx	r8d, BYTE PTR [rdi+136]
	test	r8b, r8b
	je	SHORT $LN348@output_opc
	mov	eax, DWORD PTR [rdi+56]
	sub	eax, 4
	test	eax, -513				; fffffdffH
	jne	SHORT $LN348@output_opc

; 879  :                 if ((CodeInfo->opnd[OPND2].type == OP_R32) || (CodeInfo->opnd[OPND2].type == OP_EAX))
; 880  :                   lbyte &= ~EVEX_P1WMASK;

	and	bl, 127					; 0000007fH
$LN348@output_opc:
	lea	eax, DWORD PTR [rcx-1682]
	cmp	eax, 26
	ja	SHORT $LN350@output_opc

; 881  :               }
; 882  :             if ((CodeInfo->token >= T_KADDB) && (CodeInfo->token <= T_KUNPCKDQ)) {       //here pay atention
; 883  :               c = CodeInfo->reg2;
; 884  :               lbyte &= 0x83;
; 885  :               c = (c << 3);

	movzx	edx, BYTE PTR [rdi+110]
	and	bl, 131					; 00000083H
	shl	dl, 3

; 886  :               c = ~c;

	not	dl

; 887  :               c &= EVEX_P1VVVV;

	and	dl, 120					; 00000078H

; 888  :               lbyte |= c;

	or	bl, dl

; 889  :               if (vex_flags[ CodeInfo->token - VEX_START ] & VX_L ) lbyte |= c;

	test	BYTE PTR vex_flags[rcx+r12-1291], r13b
	je	SHORT $LN359@output_opc
	or	bl, dl

; 890  :             }

	jmp	SHORT $LN359@output_opc
$LN350@output_opc:
	lea	eax, DWORD PTR [rcx-1709]
	cmp	eax, 7
	ja	SHORT $LN353@output_opc

; 891  :             else if ((CodeInfo->token >= T_KNOTB) && (CodeInfo->token <= T_KORTESTQ)) {
; 892  :               /*  1 1111 0pp */
; 893  :               /*  R vvvv Lpp */
; 894  :               lbyte = 0xF8;
; 895  :               if (ins->byte1_info == F_660F) lbyte |= 0x01;

	cmp	BYTE PTR [r15+1], 18
	mov	bl, 248					; 000000f8H
	jne	SHORT $LN359@output_opc
	mov	bl, 249					; 000000f9H

; 896  :             }

	jmp	SHORT $LN359@output_opc
$LN353@output_opc:
	lea	eax, DWORD PTR [rcx-1725]
	cmp	eax, ebp
	ja	SHORT $LN359@output_opc

; 897  :             else if ((CodeInfo->token >= T_KMOVB) && (CodeInfo->token <= T_KMOVW)) {
; 898  :               /*  1 1111 0pp */
; 899  :               /*  R vvvv Lpp */
; 900  :               lbyte = 0xF8;
; 901  :               if (ins->byte1_info == F_660F) lbyte |= 0x01;

	movzx	edx, BYTE PTR [r15+1]
	mov	al, 248					; 000000f8H
	cmp	dl, 18
	jne	SHORT $LN357@output_opc
	mov	bl, 249					; 000000f9H
	jmp	SHORT $LN359@output_opc
$LN357@output_opc:

; 902  :               else if (ins->byte1_info == F_F20F) lbyte |= 0x3;

	mov	ebx, 251				; 000000fbH
	movzx	eax, al
	cmp	dl, 19
	cmove	eax, ebx
	movzx	ebx, al
$LN359@output_opc:
	cmp	ecx, 1935				; 0000078fH
	je	SHORT $LN361@output_opc
	cmp	ecx, 1943				; 00000797H
	je	SHORT $LN361@output_opc
	lea	eax, DWORD PTR [rcx-1643]
	cmp	eax, ebp
	ja	SHORT $LN363@output_opc
$LN361@output_opc:

; 903  :             }  //WVVVV1PP
; 904  :               if ((CodeInfo->token == T_VMOVHPD)||(CodeInfo->token == T_VMOVNTDQ)||
; 905  :                 (CodeInfo->token >= T_VFPCLASSPD)&&(CodeInfo->token <= T_VFPCLASSSS)){
; 906  :                 if (CodeInfo->vexregop){

	movzx	edx, BYTE PTR [rdi+128]
	test	dl, dl
	je	SHORT $LN362@output_opc

; 907  :                   lbyte &= ~0x78;
; 908  :                   lbyte |= ((16 - CodeInfo->vexregop) << 3);

	shl	dl, 3
	mov	eax, 128				; 00000080H
	sub	al, dl
	and	bl, 135					; 00000087H
	or	bl, al

; 909  :                 }

	jmp	SHORT $LN363@output_opc
$LN362@output_opc:

; 910  :                 else lbyte |= 0x78;

	or	bl, 120					; 00000078H
$LN363@output_opc:

; 911  :               }
; 912  :               if (CodeInfo->evex_flag){

	test	r8b, r8b
	je	SHORT $LN365@output_opc
	lea	eax, DWORD PTR [rcx-1936]
	test	eax, -3					; fffffffdH
	jne	SHORT $LN365@output_opc

; 913  :                 if ((CodeInfo->token == T_VMOVHPS) || (CodeInfo->token == T_VMOVLPS))
; 914  :                   lbyte &= ~EVEX_P1WMASK;

	and	bl, 127					; 0000007fH
$LN365@output_opc:
	cmp	ecx, 2041				; 000007f9H
	je	SHORT $LN368@output_opc
	cmp	ecx, 2046				; 000007feH
	je	SHORT $LN368@output_opc
	lea	edx, DWORD PTR [rcx-1534]
	cmp	edx, 6
	ja	SHORT $LN367@output_opc
	mov	eax, 81					; 00000051H
	bt	eax, edx
	jae	SHORT $LN367@output_opc
$LN368@output_opc:

; 915  :               }
; 916  :              if ((CodeInfo->token == T_VPSLLQ)||(CodeInfo->token == T_VPSRLQ)||
; 917  :                (CodeInfo->token == T_VPSRAQ)|| (CodeInfo->token == T_VPROLQ)||
; 918  :                (CodeInfo->token == T_VPRORQ))
; 919  :                lbyte |= EVEX_P1WMASK;

	or	bl, 128					; 00000080H
$LN367@output_opc:
	lea	eax, DWORD PTR [rcx-1694]
	cmp	eax, r13d
	jbe	SHORT $LN370@output_opc
	cmp	ecx, 1708				; 000006acH
	jne	SHORT $LN369@output_opc
$LN370@output_opc:

; 920  :             //if first byte is VEX 0xC5 then there is two byte folowing 
; 921  :             if ((CodeInfo->token == T_KUNPCKBW)||(CodeInfo->token == T_KUNPCKWD)||(CodeInfo->token == T_KUNPCKDQ))
; 922  :                   lbyte |=  0x04; 

	or	bl, 4
$LN369@output_opc:

; 923  :             CodeInfo->evex_p1 = lbyte;
; 924  :             OutputCodeByte( lbyte );

	movzx	ecx, bl
	mov	BYTE PTR [rdi+138], bl
	call	OutputByte

; 925  :             if (CodeInfo->evex_flag) {

	cmp	BYTE PTR [rdi+136], 0
	je	$LN12@output_opc

; 926  :               if (broadflags >= 0x10 && broadflags <= 0x47){         

	movzx	eax, BYTE PTR broadflags
	sub	al, 16
	cmp	al, 55					; 00000037H
	ja	$LN372@output_opc

; 927  :                 CodeInfo->evex_p2 |= 0x10;

	or	BYTE PTR [rdi+139], 16

; 928  :                 if (CodeInfo->vexregop){                 

	cmp	BYTE PTR [rdi+128], 0
	movzx	eax, BYTE PTR [rdi+139]
	je	SHORT $LN374@output_opc

; 929  :                   if (CodeInfo->reg2 <= 15) CodeInfo->evex_p2 |= EVEX_P2VMASK;

	cmp	BYTE PTR [rdi+110], 15
	jbe	SHORT $LN374@output_opc

; 930  :                   else CodeInfo->evex_p2 &= ~EVEX_P2VMASK;

	and	al, 247					; 000000f7H

; 931  :                 }

	jmp	SHORT $LN652@output_opc
$LN374@output_opc:

; 932  :                 else CodeInfo->evex_p2 |= EVEX_P2VMASK;

	or	al, 8
$LN652@output_opc:

; 933  :                 if (CodeInfo->r2type == OP_XMM && (broadflags & ~EVEX_P2AAAMASK) == 0x10){   //{1to2}

	mov	edx, DWORD PTR [rdi+120]
	mov	BYTE PTR [rdi+139], al
	movzx	ecx, BYTE PTR broadflags
	cmp	edx, 32					; 00000020H
	jne	$LN383@output_opc
	movzx	eax, cl
	and	al, -8
	cmp	al, 16
	jne	SHORT $LN378@output_opc

; 934  :                    if ((CodeInfo->mem_type != MT_QWORD) && (CodeInfo->mem_type != MT_EMPTY))

	mov	eax, DWORD PTR [rdi+28]
	cmp	eax, 7
	je	SHORT $LN380@output_opc
	cmp	eax, 192				; 000000c0H
	je	SHORT $LN380@output_opc

; 935  :                      EmitError( INVALID_OPERAND_SIZE );

	lea	ecx, QWORD PTR [rdx+39]
	call	EmitError
$LN380@output_opc:

; 936  :                    if ((CodeInfo->pinstr->prefix & 0xE0) == QSIZE)

	mov	rax, QWORD PTR [rdi+16]
	movzx	ecx, BYTE PTR [rax+4]
	and	cl, 224					; 000000e0H
	cmp	cl, 96					; 00000060H
	jne	$LN405@output_opc

; 937  :                      CodeInfo->mem_type = MT_QWORD;

	mov	DWORD PTR [rdi+28], 7
	jmp	$LN439@output_opc
$LN378@output_opc:

; 938  :                    else
; 939  :                      EmitError( MISMATCH_IN_THE_NUMBER_OF_BROADCASTING_ELEMENTS );
; 940  :                 }
; 941  :                 else if (CodeInfo->r2type == OP_XMM && (broadflags & ~EVEX_P2AAAMASK) == 0x20){ //{1to4} 

	cmp	edx, 32					; 00000020H
	jne	SHORT $LN383@output_opc
	movzx	eax, cl
	and	al, -8
	cmp	al, dl
	jne	SHORT $LN383@output_opc

; 942  :                    if ((CodeInfo->mem_type != MT_DWORD) && (CodeInfo->mem_type != MT_EMPTY))

	mov	eax, DWORD PTR [rdi+28]
	cmp	eax, ebp
	je	SHORT $LN385@output_opc
	cmp	eax, 192				; 000000c0H
	je	SHORT $LN385@output_opc

; 943  :                      EmitError( INVALID_OPERAND_SIZE );

	lea	ecx, QWORD PTR [rdx+39]
	call	EmitError
$LN385@output_opc:

; 944  :                    if ((CodeInfo->pinstr->prefix & 0xE0) == DSIZE)

	mov	rax, QWORD PTR [rdi+16]
	movzx	ecx, BYTE PTR [rax+4]
	and	cl, 224					; 000000e0H
	cmp	cl, 64					; 00000040H
	jne	$LN405@output_opc

; 945  :                      CodeInfo->mem_type = MT_DWORD;

	mov	DWORD PTR [rdi+28], ebp
	jmp	$LN439@output_opc
$LN383@output_opc:

; 946  :                    else
; 947  :                      EmitError( MISMATCH_IN_THE_NUMBER_OF_BROADCASTING_ELEMENTS );
; 948  :                 }
; 949  :                 else if (CodeInfo->r2type == OP_YMM && (broadflags & ~EVEX_P2AAAMASK) == 0x20){ //{1to4}

	cmp	edx, 128				; 00000080H
	jne	$LN393@output_opc
	movzx	eax, cl
	and	al, -8
	cmp	al, 32					; 00000020H
	jne	SHORT $LN388@output_opc

; 950  :                    if ((CodeInfo->mem_type != MT_QWORD) && (CodeInfo->mem_type != MT_EMPTY))

	mov	eax, DWORD PTR [rdi+28]
	cmp	eax, 7
	je	SHORT $LN390@output_opc
	cmp	eax, 192				; 000000c0H
	je	SHORT $LN390@output_opc

; 951  :                      EmitError( INVALID_OPERAND_SIZE );

	lea	ecx, QWORD PTR [rdx-57]
	call	EmitError
$LN390@output_opc:

; 952  :                    if ((CodeInfo->pinstr->prefix & 0xE0) == QSIZE){

	mov	rax, QWORD PTR [rdi+16]
	movzx	ecx, BYTE PTR [rax+4]
	and	cl, 224					; 000000e0H
	cmp	cl, 96					; 00000060H
	jne	$LN405@output_opc

; 953  :                      CodeInfo->mem_type = MT_QWORD;
; 954  :                      CodeInfo->evex_p2 |= 0x20;

	or	BYTE PTR [rdi+139], 32			; 00000020H
	mov	DWORD PTR [rdi+28], 7

; 955  :                    }

	jmp	$LN439@output_opc
$LN388@output_opc:

; 956  :                    else 
; 957  :                      EmitError( MISMATCH_IN_THE_NUMBER_OF_BROADCASTING_ELEMENTS );
; 958  :                 }
; 959  :                 else if (CodeInfo->r2type == OP_YMM && (broadflags & ~EVEX_P2AAAMASK) == 0x30){ //{1to8}

	cmp	edx, 128				; 00000080H
	jne	SHORT $LN393@output_opc
	movzx	eax, cl
	and	eax, -8
	cmp	al, 48					; 00000030H
	jne	SHORT $LN393@output_opc

; 960  :                    if ((CodeInfo->mem_type != MT_DWORD) && (CodeInfo->mem_type != MT_EMPTY)||
; 961  :                      (CodeInfo->mem_type != MT_OWORD))
; 962  :                      EmitError( INVALID_OPERAND_SIZE );

	lea	ecx, QWORD PTR [rdx-57]
	call	EmitError

; 963  :                    if ((CodeInfo->pinstr->prefix & 0xE0) == DSIZE){

	mov	rax, QWORD PTR [rdi+16]
	movzx	ecx, BYTE PTR [rax+4]
	and	cl, 224					; 000000e0H
	cmp	cl, 64					; 00000040H
	jne	SHORT $LN405@output_opc

; 964  :                      CodeInfo->mem_type = MT_DWORD;
; 965  :                      CodeInfo->evex_p2 |= 0x20;

	or	BYTE PTR [rdi+139], 32			; 00000020H
	mov	DWORD PTR [rdi+28], ebp

; 966  :                    }

	jmp	$LN439@output_opc
$LN393@output_opc:

; 967  :                    else 
; 968  :                      EmitError( MISMATCH_IN_THE_NUMBER_OF_BROADCASTING_ELEMENTS );
; 969  :                 }
; 970  :                 else if ( CodeInfo->r2type == OP_ZMM && (broadflags & ~EVEX_P2AAAMASK) == 0x30){ //{1to8}

	cmp	edx, 256				; 00000100H
	jne	$LN439@output_opc
	movzx	eax, cl
	and	eax, -8
	cmp	al, 48					; 00000030H
	jne	SHORT $LN400@output_opc

; 971  :                    if ((CodeInfo->pinstr->prefix & 0xE0) == QSIZE){

	mov	rax, QWORD PTR [rdi+16]
	movzx	ecx, BYTE PTR [rax+4]
	and	cl, 224					; 000000e0H
	cmp	cl, 96					; 00000060H
	jne	SHORT $LN405@output_opc

; 972  :                      CodeInfo->mem_type = MT_QWORD;
; 973  :                      CodeInfo->evex_p2 |= 0x40;

	or	BYTE PTR [rdi+139], 64			; 00000040H
	mov	DWORD PTR [rdi+28], 7

; 974  :                    }

	jmp	$LN439@output_opc
$LN400@output_opc:

; 975  :                    else 
; 976  :                      EmitError( MISMATCH_IN_THE_NUMBER_OF_BROADCASTING_ELEMENTS );
; 977  :                 }
; 978  :                 else if (CodeInfo->r2type == OP_ZMM && (broadflags & ~EVEX_P2AAAMASK) == 0x40){ //{1to16}

	cmp	edx, 256				; 00000100H
	jne	$LN439@output_opc
	and	cl, -8
	cmp	cl, 64					; 00000040H
	jne	$LN439@output_opc

; 979  :                    if ((CodeInfo->pinstr->prefix & 0xE0) == DSIZE){

	mov	rax, QWORD PTR [rdi+16]
	movzx	ecx, BYTE PTR [rax+4]
	and	cl, 224					; 000000e0H
	cmp	cl, 64					; 00000040H
	jne	SHORT $LN405@output_opc

; 980  :                      CodeInfo->mem_type = MT_DWORD;
; 981  :                      CodeInfo->evex_p2 |= 0x40;

	or	BYTE PTR [rdi+139], cl
	mov	DWORD PTR [rdi+28], ebp

; 982  :                    }

	jmp	$LN439@output_opc
$LN405@output_opc:

; 983  :                    else 
; 984  :                      EmitError(MISMATCH_IN_THE_NUMBER_OF_BROADCASTING_ELEMENTS);

	mov	ecx, 18
	call	EmitError

; 985  :                 }
; 986  :               }

	jmp	$LN439@output_opc
$LN372@output_opc:

; 987  :               else{   //check all for size
; 988  :                 if (CodeInfo->r2type == OP_YMM){              

	mov	eax, DWORD PTR [rdi+120]
	cmp	eax, 128				; 00000080H
	jne	SHORT $LN407@output_opc

; 989  :                   if (CodeInfo->mem_type == MT_YMMWORD || (CodeInfo->mem_type == MT_EMPTY)){

	mov	eax, DWORD PTR [rdi+28]
	cmp	eax, 31
	je	SHORT $LN411@output_opc
	cmp	eax, 192				; 000000c0H
	je	SHORT $LN411@output_opc
$LN426@output_opc:

; 991  :                     if ((CodeInfo->opnd[OPND3].data32h > 0x20)||(CodeInfo->opnd[OPND3].data32h > ~0x20)) 
; 992  :                       CodeInfo->tuple = TRUE;  
; 993  :                   }
; 994  :                   else EmitError(INVALID_OPERAND_SIZE);

	mov	ecx, 71					; 00000047H
	call	EmitError
	jmp	SHORT $LN434@output_opc
$LN411@output_opc:

; 990  :                     CodeInfo->evex_p2 |= 0x20;

	or	BYTE PTR [rdi+139], 32			; 00000020H
	cmp	DWORD PTR [rdi+92], -32			; ffffffffffffffe0H

; 995  :                 }

	jmp	SHORT $LN656@output_opc
$LN407@output_opc:

; 996  :                 else if (CodeInfo->r2type == OP_XMM){

	cmp	eax, 32					; 00000020H
	jne	SHORT $LN414@output_opc

; 997  :                   if ((CodeInfo->mem_type == MT_OWORD || CodeInfo->mem_type == MT_EMPTY)){

	mov	ecx, DWORD PTR [rdi+28]
	cmp	ecx, 15
	je	SHORT $LN418@output_opc
	cmp	ecx, 192				; 000000c0H
	je	SHORT $LN418@output_opc

; 998  :                     if ((CodeInfo->opnd[OPND3].data32h > 0x10)||(CodeInfo->opnd[OPND3].data32h > ~0x10))
; 999  :                       CodeInfo->tuple = TRUE;
; 1000 :                   }
; 1001 :                   else if ((CodeInfo->token >= T_VCMPEQSD || CodeInfo->token <= T_VCMPTRUE_USSD) &&

	cmp	ecx, 7
	jne	SHORT $LN421@output_opc
	cmp	DWORD PTR [rdi+92], -8

; 1002 :                     (CodeInfo->mem_type == MT_QWORD)){
; 1003 :                       if ((CodeInfo->opnd[OPND3].data32h > 8)||(CodeInfo->opnd[OPND3].data32h > ~8))
; 1004 :                       CodeInfo->tuple = TRUE;
; 1005 :                   }

	jmp	SHORT $LN656@output_opc
$LN421@output_opc:

; 1006 :                   else if ((CodeInfo->token >= T_VCMPEQSS || CodeInfo->token <= T_VCMPTRUE_USSS) &&

	cmp	ecx, ebp
	jne	SHORT $LN426@output_opc
	cmp	DWORD PTR [rdi+92], -4

; 1007 :                     (CodeInfo->mem_type == MT_DWORD)){
; 1008 :                       if ((CodeInfo->opnd[OPND3].data32h > 4)||(CodeInfo->opnd[OPND3].data32h > ~4))
; 1009 :                       CodeInfo->tuple = TRUE;
; 1010 :                   }

	jmp	SHORT $LN656@output_opc
$LN418@output_opc:
	cmp	DWORD PTR [rdi+92], -16

; 1011 :                   else EmitError(INVALID_OPERAND_SIZE);
; 1012 :                 }

	jmp	SHORT $LN656@output_opc
$LN414@output_opc:

; 1013 :                 else if (CodeInfo->r2type == OP_ZMM){

	cmp	eax, 256				; 00000100H
	jne	SHORT $LN434@output_opc

; 1014 :                   if (CodeInfo->mem_type == MT_ZMMWORD || (CodeInfo->mem_type == MT_EMPTY)){

	mov	eax, DWORD PTR [rdi+28]
	cmp	eax, 63					; 0000003fH
	je	SHORT $LN433@output_opc
	cmp	eax, 192				; 000000c0H
	jne	SHORT $LN434@output_opc
$LN433@output_opc:

; 1015 :                     CodeInfo->evex_p2 |= 0x40;

	or	BYTE PTR [rdi+139], 64			; 00000040H
	cmp	DWORD PTR [rdi+92], -64			; ffffffffffffffc0H
$LN656@output_opc:
	jl	SHORT $LN434@output_opc

; 1016 :                     if ((CodeInfo->opnd[OPND3].data32h > 0x40)||(CodeInfo->opnd[OPND3].data32h > ~0x40))
; 1017 :                       CodeInfo->tuple = TRUE;

	mov	BYTE PTR [rdi+140], r13b
$LN434@output_opc:

; 1018 :                   }
; 1019 :                 }
; 1020 :                 if (CodeInfo->opnd[OPND3].data32l != -1){

	cmp	DWORD PTR [rdi+88], -1
	je	SHORT $LN439@output_opc

; 1021 :                   if ((CodeInfo->r2type == OP_YMM) && (CodeInfo->opnd[OPND3].type != OP_ZMM)){

	cmp	DWORD PTR [rdi+120], 128		; 00000080H
	jne	SHORT $LN439@output_opc
	cmp	DWORD PTR [rdi+80], 256			; 00000100H
	je	SHORT $LN439@output_opc
	mov	eax, DWORD PTR [rdi+24]
	sub	eax, 1761				; 000006e1H
	cmp	eax, 127				; 0000007fH
	ja	SHORT $LN438@output_opc

; 1022 :                     if ((CodeInfo->token >= T_VCMPEQPD) && (CodeInfo->token <= T_VCMPTRUE_USSS))
; 1023 :                       CodeInfo->evex_p2 |= 0x40;

	or	BYTE PTR [rdi+139], 64			; 00000040H
$LN438@output_opc:

; 1024 :                     if (CodeInfo->opnd[OPND3].data32l >= 0x20)

	cmp	DWORD PTR [rdi+88], 32			; 00000020H
	jl	SHORT $LN439@output_opc

; 1025 :                       CodeInfo->tuple = TRUE;

	mov	BYTE PTR [rdi+140], r13b
$LN439@output_opc:

; 1026 :                   }
; 1027 :                 }
; 1028 :               }
; 1029 :               if (CodeInfo->evex_sae){

	movzx	edx, BYTE PTR [rdi+141]
	test	dl, dl
	je	SHORT $LN440@output_opc

; 1030 :                 CodeInfo->evex_p2 &= ~0x70;     //clear bites 6,5,4

	and	BYTE PTR [rdi+139], 143			; 0000008fH

; 1031 :                 c = CodeInfo->evex_sae - 0x10;  //subtract SAE to get a proper decorator
; 1032 :                 /* here we need to test for corect use of decorators  
; 1033 :                  * if it is {sae} c will be zero, in that case we need to add 0x10 to c
; 1034 :                  * if we need {sae}
; 1035 :                 */  
; 1036 :                 if (c == 0) c = 0x10;

	mov	r9d, 16
	sub	dl, 16
	movzx	eax, dl
	cmove	eax, r9d

; 1037 :                 CodeInfo->evex_p2 |= c;

	or	BYTE PTR [rdi+139], al
$LN440@output_opc:

; 1038 :               }
; 1039 :                 if (CodeInfo->r2type == OP_YMM) CodeInfo->evex_p2 |= EVEX_P2LMASK;

	cmp	DWORD PTR [rdi+120], 128		; 00000080H
	jne	SHORT $LN442@output_opc
	or	BYTE PTR [rdi+139], 32			; 00000020H
	jmp	SHORT $LN444@output_opc
$LN442@output_opc:

; 1040 :                 else if (CodeInfo->opnd[OPND3].type == OP_ZMM)CodeInfo->evex_p2 |= EVEX_P2L1MASK; 

	cmp	DWORD PTR [rdi+80], 256			; 00000100H
	jne	SHORT $LN444@output_opc
	or	BYTE PTR [rdi+139], 64			; 00000040H
$LN444@output_opc:

; 1041 :                 if ((CodeInfo->token >= T_VPGATHERDD && CodeInfo->token <= T_VGATHERQPS )||

	mov	ecx, DWORD PTR [rdi+24]
	lea	eax, DWORD PTR [rcx-1340]
	cmp	eax, 7
	jbe	SHORT $LN446@output_opc
	cmp	ecx, 1334				; 00000536H
	jne	SHORT $LN445@output_opc
$LN446@output_opc:

; 1042 :                   CodeInfo->token == T_VCVTPD2DQ)
; 1043 :                   CodeInfo->evex_p2 |= EVEX_P2L1MASK;

	or	BYTE PTR [rdi+139], 64			; 00000040H
$LN445@output_opc:
	cmp	ecx, 1917				; 0000077dH
	je	SHORT $LN449@output_opc
	lea	eax, DWORD PTR [rcx-1598]
	cmp	eax, r13d
	jbe	SHORT $LN449@output_opc
	lea	eax, DWORD PTR [rcx-1935]
	cmp	eax, 5
	ja	SHORT $LN448@output_opc
$LN449@output_opc:

; 1044 :                   if ((CodeInfo->token == T_VEXTRACTPS)||      // 1914    1932
; 1045 :                     //(CodeInfo->token == T_VMOVHPS)||(CodeInfo->token == T_VMOVLPS)||           // 1933    1935  
; 1046 :                     (CodeInfo->token == T_VCVTSD2USI)||(CodeInfo->token == T_VCVTSS2USI)||     // 1598    1599
; 1047 :                     (CodeInfo->token >= T_VMOVHPD)&&(CodeInfo->token <= T_VMOVSS))              // 1936    1937
; 1048 :                     CodeInfo->evex_p2 &= ~EVEX_P2L1MASK;

	and	BYTE PTR [rdi+139], 191			; 000000bfH
$LN448@output_opc:

; 1049 :                 if (CodeInfo->evex_flag){

	cmp	BYTE PTR [rdi+136], 0
	je	$LN12@output_opc

; 1050 :                   if (CodeInfo->vexregop){

	cmp	BYTE PTR [rdi+128], 0
	je	SHORT $LN451@output_opc

; 1051 :                     if (CodeInfo->reg2 <= 15) CodeInfo->evex_p2 |= EVEX_P2VMASK;

	cmp	BYTE PTR [rdi+110], 15
	jbe	SHORT $LN451@output_opc

; 1052 :                     else CodeInfo->evex_p2 &= ~EVEX_P2VMASK;

	and	BYTE PTR [rdi+139], 247			; 000000f7H

; 1053 :                   }

	jmp	SHORT $LN452@output_opc
$LN451@output_opc:

; 1054 :                   else CodeInfo->evex_p2 |= EVEX_P2VMASK;

	or	BYTE PTR [rdi+139], 8
$LN452@output_opc:

; 1055 :                   CodeInfo->tuple = TRUE;

	mov	BYTE PTR [rdi+140], r13b

; 1056 :                   CodeInfo->evex_p2 |= decoflags;

	movzx	eax, BYTE PTR decoflags
	or	BYTE PTR [rdi+139], al
	movzx	eax, BYTE PTR [rdi+139]

; 1057 :                   if (CodeInfo->token == T_VCVTDQ2PD || CodeInfo->token == T_VCVTPS2PD ||

	cmp	ecx, 1899				; 0000076bH
	je	SHORT $LN456@output_opc
	cmp	ecx, 1903				; 0000076fH
	je	SHORT $LN456@output_opc
	cmp	ecx, 1442				; 000005a2H
	jne	SHORT $LN459@output_opc
$LN456@output_opc:

; 1058 :                     CodeInfo->token == T_VCVTUDQ2PD){       
; 1059 :                      CodeInfo->evex_p2 &= ~EVEX_P2LMASK;
; 1060 :                      CodeInfo->evex_p2 &= ~EVEX_P2L1MASK;
; 1061 :                     if (CodeInfo->r1type == OP_YMM)CodeInfo->evex_p2 |= EVEX_P2LMASK;

	mov	ecx, DWORD PTR [rdi+116]
	and	al, 159					; 0000009fH
	mov	BYTE PTR [rdi+139], al
	cmp	ecx, 128				; 00000080H
	jne	SHORT $LN457@output_opc
	or	al, 32					; 00000020H

; 1062 :                     else if (CodeInfo->r1type == OP_ZMM)CodeInfo->evex_p2 |= EVEX_P2L1MASK;

	mov	BYTE PTR [rdi+139], al

; 1063 :                   }
; 1064 :                   OutputCodeByte(CodeInfo->evex_p2);

	movzx	ecx, al
	jmp	$LN658@output_opc
$LN457@output_opc:

; 1062 :                     else if (CodeInfo->r1type == OP_ZMM)CodeInfo->evex_p2 |= EVEX_P2L1MASK;

	cmp	ecx, 256				; 00000100H
	jne	SHORT $LN459@output_opc
	or	al, 64					; 00000040H
	mov	BYTE PTR [rdi+139], al
$LN459@output_opc:

; 1063 :                   }
; 1064 :                   OutputCodeByte(CodeInfo->evex_p2);

	movzx	ecx, BYTE PTR [rdi+139]
	jmp	$LN658@output_opc
$LN84@output_opc:

; 406  :            (CodeInfo->token ==  T_KMOVD )){
; 407  :             uint_8 byte1 = 0;      //RXBR00MM

	xor	sil, sil

; 408  :             /* first byte is 0xC4  in 3 byte VEX prefix */  
; 409  :             if (CodeInfo->evex_flag) 

	cmp	BYTE PTR [rdi+136], sil
	je	SHORT $LN86@output_opc

; 410  :               OutputCodeByte( 0x62 ); //AVX512 EVEX first byte

	mov	cl, 98					; 00000062H
	call	OutputByte
	jmp	SHORT $LN87@output_opc
$LN86@output_opc:

; 411  :             else{
; 412  :               OutputCodeByte(0xC4);

	mov	cl, 196					; 000000c4H
	call	OutputByte

; 413  :               if (CodeInfo->opnd[OPND1].type == OP_YMM || CodeInfo->opnd[OPND2].type == OP_YMM)

	cmp	DWORD PTR [rdi+32], 128			; 00000080H
	je	SHORT $LN90@output_opc
	cmp	DWORD PTR [rdi+56], 128			; 00000080H
	je	SHORT $LN90@output_opc

; 415  :               else
; 416  :                 lbyte &= ~0x04;

	and	bl, 251					; 000000fbH
	jmp	SHORT $LN89@output_opc
$LN90@output_opc:

; 414  :                  lbyte |= 0x04;

	or	bl, 4
$LN89@output_opc:

; 417  :               CodeInfo->tuple = 0;
; 418  :               /* This fixes AVX  REX_W wide 32 <-> 64 instructions third byte bit W*/
; 419  :               lbyte &= ~EVEX_P1WMASK;        //make sure it is not set if not 64 bit
; 420  :               lbyte |= ((CodeInfo->pinstr->prefix) >> 8 & 0x80); // set only W bit if 64 bit

	mov	rax, QWORD PTR [rdi+16]
	mov	BYTE PTR [rdi+140], 0
	xor	bl, BYTE PTR [rax+5]
	and	bl, 127					; 0000007fH
	xor	bl, BYTE PTR [rax+5]
$LN87@output_opc:

; 421  :             }
; 422  :             switch ( ins->byte1_info ) {                     

	movzx	r8d, BYTE PTR [r15+1]
	lea	eax, DWORD PTR [r8-23]
	cmp	eax, 6
	ja	SHORT $LN93@output_opc
	cdqe
	mov	ecx, DWORD PTR $LN637@output_opc[r12+rax*4]
	add	rcx, r12
	jmp	rcx
$LN91@output_opc:

; 423  :             case F_0F38:                                     
; 424  :             case F_660F38:                                   
; 425  :             case F_F20F38:
; 426  :             case F_F30F38:
; 427  :                 byte1 |= 0x02;

	mov	dl, 2

; 428  :                 break;

	jmp	SHORT $LN94@output_opc
$LN92@output_opc:

; 429  :             case F_0F3A:
; 430  :             case F_660F3A:
; 431  :             case F_F20F3A:
; 432  :                 byte1 |= 0x03;

	movzx	edx, bpl

; 433  :                 break;

	jmp	SHORT $LN94@output_opc
$LN93@output_opc:

; 434  :             default:
; 435  :                 if ( ins->byte1_info >= F_0F )

	cmp	r8b, 16
	movzx	edx, sil
	cmovae	edx, r13d
$LN94@output_opc:

; 436  :                     byte1 |= 0x01;
; 437  :             }
; 438  :               byte1 |= ((CodeInfo->prefix.rex & REX_B) ? 0 : 0x20);/*  REX_B regno 0-7 <-> 8-15 of ModR/M or SIB base */
; 439  :               byte1 |= ((CodeInfo->prefix.rex & REX_X) ? 0 : 0x40);/*  REX_X regno 0-7 <-> 8-15 of SIB index */
; 440  :               byte1 |= ((CodeInfo->prefix.rex & REX_R) ? 0 : 0x80);/*  REX_R regno 0-7 <-> 8-15 of ModR/M REG */

	movzx	eax, BYTE PTR [rdi+8]

; 441  :               //this still needs to be checked
; 442  :               if ((CodeInfo->evex_flag)&& (CodeInfo->reg2 <= 15))byte1 |= EVEX_P0R1MASK;

	movzx	r9d, BYTE PTR [rdi+136]
	shl	al, 5
	not	al
	and	al, 224					; 000000e0H
	or	dl, al
	test	r9b, r9b
	je	$LN115@output_opc
	cmp	BYTE PTR [rdi+110], 15
	ja	SHORT $LN95@output_opc
	or	dl, 16
$LN95@output_opc:

; 443  :             /* second byte is RXBm mmmm of 3 byte  VEX prefix */    /*  REX_W wide 32 <-> 64 */
; 444  :                if ((CodeInfo->evex_flag) && (CodeInfo->token != T_VEXTRACTPS)){ 

	test	r9b, r9b
	je	$LN115@output_opc
	mov	r8d, DWORD PTR [rdi+24]
	cmp	r8d, 1917				; 0000077dH
	je	$LN115@output_opc

; 445  :                  if ((CodeInfo->opnd[OPND1].type & OP_M_ANY) || (CodeInfo->opnd[OPND2].type & OP_M_ANY) ||

	test	DWORD PTR [rdi+32], -8388608		; ffffffffff800000H
	jne	SHORT $LN98@output_opc
	test	DWORD PTR [rdi+56], -8388608		; ffffffffff800000H
	jne	SHORT $LN98@output_opc
	test	DWORD PTR [rdi+80], -8388608		; ffffffffff800000H
	je	SHORT $LN97@output_opc
$LN98@output_opc:

; 446  :                    (CodeInfo->opnd[OPND3].type & OP_M_ANY)) CodeInfo->tuple = TRUE;

	mov	BYTE PTR [rdi+140], r13b
$LN97@output_opc:

; 447  :                  lbyte &= ~EVEX_P1WMASK;
; 448  :                  lbyte |= ((CodeInfo->pinstr->prefix) >> 8 & 0x80);

	mov	rax, QWORD PTR [rdi+16]
	xor	bl, BYTE PTR [rax+5]
	and	bl, 127					; 0000007fH
	xor	bl, BYTE PTR [rax+5]

; 449  :                  if ((CodeInfo->opnd[OPND2].type == OP_M64)||(CodeInfo->opnd[OPND1].type == OP_M64)) 

	mov	eax, DWORD PTR [rdi+56]
	cmp	eax, 67108864				; 04000000H
	je	SHORT $LN100@output_opc
	cmp	DWORD PTR [rdi+32], 67108864		; 04000000H
	jne	SHORT $LN99@output_opc
$LN100@output_opc:

; 450  :                    lbyte |= EVEX_P1WMASK;

	or	bl, 128					; 00000080H
$LN99@output_opc:
	add	eax, -4					; fffffffcH
	test	eax, -513				; fffffdffH
	je	SHORT $LN102@output_opc
	mov	eax, DWORD PTR [rdi+32]
	sub	eax, 4
	test	eax, -513				; fffffdffH
	jne	SHORT $LN101@output_opc
$LN102@output_opc:

; 451  :                  if ((CodeInfo->opnd[OPND2].type == OP_R32) || (CodeInfo->opnd[OPND2].type == OP_EAX)||
; 452  :                     (CodeInfo->opnd[OPND1].type == OP_R32) || (CodeInfo->opnd[OPND1].type == OP_EAX)){
; 453  :                    lbyte &= ~EVEX_P1WMASK;

	and	bl, 127					; 0000007fH
$LN101@output_opc:

; 454  :                  }
; 455  :                  if (((CodeInfo->opnd[OPND1].type & OP_M_ANY) == 0)&&

	test	DWORD PTR [rdi+32], -8388608		; ffffffffff800000H
	jne	SHORT $LN115@output_opc
	cmp	r8d, 1428				; 00000594H
	je	SHORT $LN115@output_opc
	cmp	r8d, 1571				; 00000623H
	je	SHORT $LN115@output_opc

; 456  :                    ((CodeInfo->token != T_VCVTPS2PH) && CodeInfo->token != T_VPMOVQB)) {
; 457  :                    if (CodeInfo->reg1 <= 15)

	movzx	eax, BYTE PTR [rdi+109]
	cmp	al, 15
	ja	SHORT $LN104@output_opc

; 458  :                      byte1 |= EVEX_P0R1MASK;

	or	dl, 16
	jmp	SHORT $LN105@output_opc
$LN104@output_opc:

; 459  :                    else
; 460  :                      byte1 &= ~EVEX_P0R1MASK;

	and	dl, 239					; 000000efH
$LN105@output_opc:
	test	al, 232					; 000000e8H
	je	SHORT $LN108@output_opc

; 463  :                    else
; 464  :                      byte1 &= ~EVEX_P0RMASK;

	and	dl, 127					; 0000007fH
	jmp	SHORT $LN107@output_opc
$LN108@output_opc:

; 461  :                    if ((CodeInfo->reg1 <= 7) || (CodeInfo->reg1 >= 16 && CodeInfo->reg1 <= 23))
; 462  :                      byte1 |= EVEX_P0RMASK;

	or	dl, 128					; 00000080H
$LN107@output_opc:

; 465  :                    if (CodeInfo->reg3 != 0xff)     

	movzx	eax, BYTE PTR [rdi+111]
	cmp	al, 255					; 000000ffH
	je	SHORT $LN109@output_opc

; 466  :                      rn = CodeInfo->reg3;

	movzx	eax, al
	jmp	SHORT $LN112@output_opc
$LN109@output_opc:

; 467  :                    else if (CodeInfo->basereg != 0xff)

	movzx	eax, BYTE PTR [rdi+113]
	cmp	al, 255					; 000000ffH

; 468  :                      rn = CodeInfo->basereg;

	movzx	eax, al
	jne	SHORT $LN112@output_opc

; 469  :                    else rn = CodeInfo->reg2;

	movzx	eax, BYTE PTR [rdi+110]
$LN112@output_opc:

; 470  :                    if (rn > 15){

	cmp	eax, 15
	jle	SHORT $LN113@output_opc

; 471  :                      rn -= 15;

	sub	eax, 15

; 472  :                      byte1 &= ~EVEX_P0XMASK;

	and	dl, 191					; 000000bfH
$LN113@output_opc:

; 473  :                    }
; 474  :                    if (rn <= 7)byte1 |= EVEX_P0BMASK;

	cmp	eax, 7
	jg	SHORT $LN114@output_opc
	or	dl, 32					; 00000020H
	jmp	SHORT $LN115@output_opc
$LN114@output_opc:

; 475  :                    else byte1 &= ~EVEX_P0BMASK;

	and	dl, 223					; 000000dfH
$LN115@output_opc:

; 476  :                  }
; 477  :                }
; 478  :             if (CodeInfo->token >= T_VPSCATTERDD && CodeInfo->token <= T_VSCATTERQPD){

	mov	ecx, DWORD PTR [rdi+24]
	lea	eax, DWORD PTR [rcx-1348]
	cmp	eax, 7
	ja	SHORT $LN122@output_opc

; 479  :               if (CodeInfo->reg2 <= 15) byte1 |= EVEX_P0R1MASK;

	movzx	eax, BYTE PTR [rdi+110]
	cmp	al, 15
	ja	SHORT $LN117@output_opc
	or	dl, 16
	jmp	SHORT $LN118@output_opc
$LN117@output_opc:

; 480  :               else byte1 &= ~EVEX_P0R1MASK;

	and	dl, 239					; 000000efH
$LN118@output_opc:

; 481  :               if (CodeInfo->reg2 <= 7 )  byte1 |= EVEX_P0RMASK;

	cmp	al, 7
	ja	SHORT $LN119@output_opc
	or	dl, 128					; 00000080H
	jmp	SHORT $LN122@output_opc
$LN119@output_opc:
	sub	al, 16
	cmp	al, 7
	ja	SHORT $LN121@output_opc

; 482  :               else if (CodeInfo->reg2 >= 16 && CodeInfo->reg2 <= 23) byte1 |= EVEX_P0RMASK;

	or	dl, 128					; 00000080H
	jmp	SHORT $LN122@output_opc
$LN121@output_opc:

; 483  :               else byte1 &= ~EVEX_P0RMASK;

	and	dl, 127					; 0000007fH
$LN122@output_opc:
	lea	eax, DWORD PTR [rcx-1936]
	test	eax, -3					; fffffffdH
	jne	SHORT $LN123@output_opc

; 484  :             }
; 485  :               if (((CodeInfo->token == T_VMOVHPS)||(CodeInfo->token == T_VMOVLPS)) && (CodeInfo->opnd[OPND2].type & OP_XMM)){

	test	BYTE PTR [rdi+56], 32			; 00000020H
	je	SHORT $LN123@output_opc

; 486  :                 if ((CodeInfo->reg2 > 7))

	cmp	BYTE PTR [rdi+110], 7
	jbe	SHORT $LN125@output_opc

; 487  :                     byte1 &= ~EVEX_P0RMASK;

	and	dl, 127					; 0000007fH
$LN125@output_opc:

; 488  :                     lbyte &= ~EVEX_P1WMASK;

	and	bl, 127					; 0000007fH
$LN123@output_opc:
	lea	eax, DWORD PTR [rcx-1945]
	cmp	eax, r13d
	jbe	SHORT $LN127@output_opc
	lea	eax, DWORD PTR [rcx-1571]
	cmp	eax, 14
	ja	SHORT $LN136@output_opc
$LN127@output_opc:

; 489  :               }
; 490  :               if ((CodeInfo->token == T_VMOVNTPD)||(CodeInfo->token == T_VMOVNTPS)||                                
; 491  :                 (CodeInfo->token >= T_VPMOVQB)&&(CodeInfo->token <= T_VPMOVUSDW)){
; 492  :                 if (CodeInfo->reg2 <= 15) byte1 |= EVEX_P0R1MASK;

	movzx	eax, BYTE PTR [rdi+110]
	cmp	al, 15
	ja	SHORT $LN128@output_opc
	or	dl, 16
	jmp	SHORT $LN129@output_opc
$LN128@output_opc:

; 493  :                 else byte1 &= ~EVEX_P0R1MASK;

	and	dl, 239					; 000000efH
$LN129@output_opc:
	test	al, 232					; 000000e8H
	je	SHORT $LN132@output_opc

; 496  :                 else byte1 &= ~EVEX_P0RMASK;

	and	dl, 127					; 0000007fH
	jmp	SHORT $LN131@output_opc
$LN132@output_opc:

; 494  :                 if ((CodeInfo->reg2 <= 7) || (CodeInfo->reg2 >= 16 && CodeInfo->reg2 <= 23))
; 495  :                   byte1 |= EVEX_P0RMASK;

	or	dl, 128					; 00000080H
$LN131@output_opc:

; 497  :                 if (CodeInfo->reg1 <= 15) byte1 |= EVEX_P0XMASK;

	movzx	eax, BYTE PTR [rdi+109]
	cmp	al, 15
	ja	SHORT $LN133@output_opc
	or	dl, 64					; 00000040H
	jmp	SHORT $LN134@output_opc
$LN133@output_opc:

; 498  :                 else byte1 &= ~EVEX_P0XMASK;

	and	dl, 191					; 000000bfH
$LN134@output_opc:
	test	al, 232					; 000000e8H
	je	SHORT $LN137@output_opc

; 501  :                 else byte1 &= ~EVEX_P0BMASK;

	and	dl, 223					; 000000dfH
	jmp	SHORT $LN136@output_opc
$LN137@output_opc:

; 499  :                 if ((CodeInfo->reg1 <= 7) || (CodeInfo->reg1 >= 16 && CodeInfo->reg1 <= 23))
; 500  :                   byte1 |= EVEX_P0BMASK;

	or	dl, 32					; 00000020H
$LN136@output_opc:

; 502  :               }
; 503  :               if (CodeInfo->opnd[OPND2].type == OP_I8){

	cmp	DWORD PTR [rdi+56], 131072		; 00020000H
	jne	SHORT $LN150@output_opc
	lea	eax, DWORD PTR [rcx-2039]
	cmp	eax, 7
	jbe	SHORT $LN140@output_opc
	lea	eax, DWORD PTR [rcx-1529]
	cmp	eax, 17
	ja	SHORT $LN150@output_opc
$LN140@output_opc:
	mov	eax, DWORD PTR [rdi+32]

; 504  :                 if ((CodeInfo->token >= T_VPSLLW) && (CodeInfo->token <= T_VPSRLQ) ||
; 505  :                   (CodeInfo->token >= T_VPSLLVD) && (CodeInfo->token <= T_VPSRLVW)){
; 506  :                   byte1 |= EVEX_P0R1MASK;
; 507  :                   byte1 |= EVEX_P0RMASK;

	or	dl, 144					; 00000090H
	sub	eax, 4
	test	eax, -517				; fffffdfbH
	je	SHORT $LN144@output_opc

; 521  :                     }
; 522  :                   }
; 523  :                   else if (!CodeInfo->evex_flag)

	test	r9b, r9b
	jne	SHORT $LN150@output_opc

; 524  :                     byte1 &= ~EVEX_P0R1MASK;

	and	dl, 239					; 000000efH
	jmp	SHORT $LN150@output_opc
$LN144@output_opc:

; 508  :                   if ((CodeInfo->opnd[OPND1].type == OP_R64) || (CodeInfo->opnd[OPND1].type == OP_RAX) ||
; 509  :                     (CodeInfo->opnd[OPND1].type == OP_R32) || (CodeInfo->opnd[OPND1].type == OP_EAX)){
; 510  :                       if (CodeInfo->basereg != 0xFF){

	movzx	eax, BYTE PTR [rdi+113]
	cmp	al, 255					; 000000ffH
	je	SHORT $LN147@output_opc

; 511  :                         if (CodeInfo->basereg <= 7)   

	cmp	al, 7
	ja	SHORT $LN146@output_opc

; 512  :                           byte1 |= EVEX_P0BMASK;

	or	dl, 32					; 00000020H
	jmp	SHORT $LN147@output_opc
$LN146@output_opc:

; 513  :                         else
; 514  :                           byte1 &= ~EVEX_P0BMASK;

	and	dl, 223					; 000000dfH
$LN147@output_opc:

; 515  :                       }
; 516  :                     if (CodeInfo->indexreg != 0xFF){

	movzx	eax, BYTE PTR [rdi+112]
	cmp	al, 255					; 000000ffH
	je	SHORT $LN150@output_opc

; 517  :                       if (CodeInfo->indexreg <= 7)   

	cmp	al, 7
	ja	SHORT $LN149@output_opc

; 518  :                         byte1 |= EVEX_P0XMASK;

	or	dl, 64					; 00000040H
	jmp	SHORT $LN150@output_opc
$LN149@output_opc:

; 519  :                       else
; 520  :                         byte1 &= ~EVEX_P0XMASK;

	and	dl, 191					; 000000bfH
$LN150@output_opc:
	lea	eax, DWORD PTR [rcx-1610]
	cmp	eax, r13d
	ja	SHORT $LN158@output_opc

; 525  :                 }
; 526  :               }
; 527  :               if ((CodeInfo->token == T_VRNDSCALEPD) || (CodeInfo->token == T_VRNDSCALEPS)){
; 528  :                 if (((CodeInfo->r2type &= OP_R64)||(CodeInfo->r2type &= OP_R32))&&

	and	DWORD PTR [rdi+120], 8
	jne	SHORT $LN155@output_opc
	and	DWORD PTR [rdi+120], 4
	je	SHORT $LN158@output_opc
$LN155@output_opc:
	cmp	DWORD PTR [rdi+124], 0
	je	SHORT $LN158@output_opc

; 529  :                   (CodeInfo->vexconst)) { 
; 530  :                   if (CodeInfo->indexreg != 0xff){

	cmp	BYTE PTR [rdi+112], 255			; 000000ffH
	je	SHORT $LN158@output_opc

; 531  :                     if (CodeInfo->reg1 <= 7)

	cmp	BYTE PTR [rdi+109], 7
	ja	SHORT $LN157@output_opc

; 532  :                       byte1 |= EVEX_P0XMASK;

	or	dl, 64					; 00000040H
	jmp	SHORT $LN158@output_opc
$LN157@output_opc:

; 533  :                     else
; 534  :                       byte1 &= ~EVEX_P0XMASK;

	and	dl, 191					; 000000bfH
$LN158@output_opc:
	lea	eax, DWORD PTR [rcx-1314]
	cmp	eax, r13d
	ja	SHORT $LN167@output_opc

; 535  :                   }
; 536  :                 }
; 537  :               }
; 538  :               if (((CodeInfo->token == T_VEXTRACTF32x8)||(CodeInfo->token == T_VEXTRACTF64x4))
; 539  :                 && !(CodeInfo->opnd[OPND1].type & OP_M_ANY)) {

	test	DWORD PTR [rdi+32], -8388608		; ffffffffff800000H
	jne	SHORT $LN167@output_opc

; 540  :                 if (CodeInfo->reg2 <= 15) byte1 |= EVEX_P0R1MASK;

	movzx	eax, BYTE PTR [rdi+110]
	cmp	al, 15
	ja	SHORT $LN161@output_opc
	or	dl, 16
	jmp	SHORT $LN162@output_opc
$LN161@output_opc:

; 541  :                 else byte1 &= ~EVEX_P0R1MASK;

	and	dl, 239					; 000000efH
$LN162@output_opc:
	test	al, 232					; 000000e8H
	je	SHORT $LN165@output_opc

; 544  :                 else
; 545  :                   byte1 &= ~EVEX_P0RMASK;

	and	dl, 127					; 0000007fH
	jmp	SHORT $LN164@output_opc
$LN165@output_opc:

; 542  :                 if ((CodeInfo->reg2 <= 7) || (CodeInfo->reg2 >= 16 && CodeInfo->reg2 <= 23))
; 543  :                   byte1 |= EVEX_P0RMASK;

	or	dl, 128					; 00000080H
$LN164@output_opc:

; 546  :                 if (CodeInfo->reg1 <= 15) byte1 |= EVEX_P0XMASK;

	cmp	BYTE PTR [rdi+109], 15
	ja	SHORT $LN166@output_opc
	or	dl, 64					; 00000040H
	jmp	SHORT $LN167@output_opc
$LN166@output_opc:

; 547  :                 else byte1 &= ~EVEX_P0XMASK;

	and	dl, 191					; 000000bfH
$LN167@output_opc:
	lea	eax, DWORD PTR [rcx-1671]
	cmp	eax, ebp
	jbe	SHORT $LN169@output_opc

; 548  :               }
; 549  :               if (((CodeInfo->token >= T_BEXTR)&&(CodeInfo->token <= T_SHRX)||(CodeInfo->token == T_BZHI)&&

	cmp	ecx, 1678				; 0000068eH
	jne	SHORT $LN171@output_opc
	cmp	BYTE PTR [rdi+112], 255			; 000000ffH
	je	SHORT $LN171@output_opc
$LN169@output_opc:

; 550  :                 (CodeInfo->indexreg != 0xFF))){
; 551  :                 byte1 &= 0xE3;

	and	dl, 227					; 000000e3H

; 552  :                 if (CodeInfo->indexreg > 0x07)byte1 &= ~0x10;

	cmp	BYTE PTR [rdi+112], 7
	jbe	SHORT $LN171@output_opc
	and	dl, 239					; 000000efH
$LN171@output_opc:
	cmp	ecx, 1427				; 00000593H
	je	SHORT $LN173@output_opc
	lea	eax, DWORD PTR [rcx-1334]
	cmp	eax, r13d
	jbe	SHORT $LN173@output_opc
	cmp	ecx, 1899				; 0000076bH
	jne	SHORT $LN179@output_opc
$LN173@output_opc:
	test	BYTE PTR [rdi+109], 232			; 000000e8H
	je	SHORT $LN176@output_opc

; 558  :                 else
; 559  :                   byte1 &= ~EVEX_P0RMASK;

	and	dl, 127					; 0000007fH
	jmp	SHORT $LN175@output_opc
$LN176@output_opc:

; 553  :               }
; 554  :               if (CodeInfo->token == T_VCVTPH2PS || CodeInfo->token == T_VCVTPD2UDQ||
; 555  :                 CodeInfo->token == T_VCVTPD2DQ || CodeInfo->token == T_VCVTDQ2PD){
; 556  :                 if ((CodeInfo->reg1 <= 7) || (CodeInfo->reg1 >= 16 && CodeInfo->reg1 <= 23))
; 557  :                   byte1 |= EVEX_P0RMASK;

	or	dl, 128					; 00000080H
$LN175@output_opc:

; 560  :                 if (CodeInfo->reg2 <= 15) byte1 |= EVEX_P0XMASK;

	cmp	BYTE PTR [rdi+110], 15
	ja	SHORT $LN177@output_opc
	or	dl, 64					; 00000040H
	jmp	SHORT $LN178@output_opc
$LN177@output_opc:

; 561  :                 else byte1 &= ~EVEX_P0XMASK;

	and	dl, 191					; 000000bfH
$LN178@output_opc:

; 562  :                 if (CodeInfo->token == T_VCVTDQ2PD)

	cmp	ecx, 1899				; 0000076bH
	jne	SHORT $LN179@output_opc

; 563  :                 CodeInfo->evex_p2 &= ~EVEX_P2L1MASK;

	and	BYTE PTR [rdi+139], 191			; 000000bfH
$LN179@output_opc:

; 564  :               }
; 565  : 
; 566  :               OutputCodeByte( byte1 );

	movzx	ecx, dl
	call	OutputByte

; 567  :               if (CodeInfo->opnd[OPND2].type == OP_I8){

	cmp	DWORD PTR [rdi+56], 131072		; 00020000H
	jne	SHORT $LN180@output_opc

; 568  :                 if ((CodeInfo->token >= T_VPSLLW) && (CodeInfo->token <= T_VPSRLQ) ||

	mov	ecx, DWORD PTR [rdi+24]
	lea	eax, DWORD PTR [rcx-2039]
	cmp	eax, 7
	jbe	SHORT $LN183@output_opc
	lea	eax, DWORD PTR [rcx-1529]
	cmp	eax, 17
	ja	SHORT $LN181@output_opc
$LN183@output_opc:

; 569  :                   (CodeInfo->token >= T_VPSLLVD) && (CodeInfo->token <= T_VPSRLVW))
; 570  :                   CodeInfo->tuple = TRUE;

	mov	BYTE PTR [rdi+140], r13b

; 571  :               }

	jmp	SHORT $LN181@output_opc
$LN180@output_opc:

; 572  :             else
; 573  :             lbyte |= ( ( CodeInfo->prefix.rex & REX_W ) ? 0x80 : 0 );

	movzx	eax, BYTE PTR [rdi+8]
	and	al, 248					; 000000f8H
	shl	al, 4
	or	bl, al
$LN181@output_opc:

; 574  :             /* KSHIFTLW KSHIFTLQ KSHIFTRW KSHIFTRQ */
; 575  :             if ((CodeInfo->token == T_KSHIFTLW) || (CodeInfo->token == T_KSHIFTLQ)||
; 576  :               (CodeInfo->token == T_KSHIFTRW) || (CodeInfo->token == T_KSHIFTRQ)){

	mov	ecx, DWORD PTR [rdi+24]
	lea	eax, DWORD PTR [rcx-1718]
	test	eax, -7					; fffffff9H
	jne	SHORT $LN185@output_opc

; 577  :               lbyte |= 0x80;

	or	bl, 128					; 00000080H
$LN185@output_opc:
	lea	eax, DWORD PTR [rcx-1340]
	cmp	eax, 7
	ja	SHORT $LN192@output_opc

; 578  :             }
; 579  :             //HJWasm13.1 VPGATHERDD, VPGATHERQD, VPGATHERDQ, VPGATHERQQ
; 580  :             if (CodeInfo->token >= T_VPGATHERDD && CodeInfo->token <= T_VGATHERQPS){
; 581  :               if ((CodeInfo->opnd[OPND3].type != CodeInfo->opnd[OPND1].type)&& 

	mov	eax, DWORD PTR [rdi+32]
	cmp	DWORD PTR [rdi+80], eax
	je	SHORT $LN188@output_opc
	cmp	BYTE PTR [rdi+136], 0
	jne	SHORT $LN188@output_opc

; 582  :                 (CodeInfo->evex_flag == 0))
; 583  :                 EmitError( INVALID_USE_OF_REGISTER );

	mov	ecx, 170				; 000000aaH
	call	EmitError
$LN188@output_opc:

; 584  :               CodeInfo->tuple = TRUE;       
; 585  :               lbyte &= ~EVEX_P1VVVV;      // clear EVEX_P1VVVV

	and	bl, 135					; 00000087H
	mov	BYTE PTR [rdi+140], r13b

; 586  :               if (CodeInfo->evex_flag){

	cmp	BYTE PTR [rdi+136], 0
	je	SHORT $LN189@output_opc

; 587  :                 c = EVEX_P1VVVV;          // set all to ones : VVVV = 1111, we are not using it

	mov	al, 120					; 00000078H

; 588  :               }

	jmp	SHORT $LN190@output_opc
$LN189@output_opc:

; 589  :               else {
; 590  :                 c = CodeInfo->reg3 + 1;
; 591  :                 c = ((16 - c) << 3);

	mov	eax, 15
	sub	al, BYTE PTR [rdi+111]
	shl	al, 3
$LN190@output_opc:

; 592  :                 //c = ~c;
; 593  :               }
; 594  :               c &= EVEX_P1VVVV;

	and	al, 120					; 00000078H

; 595  :               lbyte |= c;  

	or	bl, al

; 596  :               if (CodeInfo->indextype == OP_YMM)    lbyte |= 4;

	cmp	DWORD PTR [rdi+132], 128		; 00000080H
	jne	SHORT $LN191@output_opc
	or	bl, 4
$LN191@output_opc:

; 597  :               if (( CodeInfo->prefix.rex & REX_W )) lbyte |= 8;

	test	BYTE PTR [rdi+8], 8
	je	SHORT $LN192@output_opc
	or	bl, 8
$LN192@output_opc:

; 598  :             }
; 599  :             if ((CodeInfo->token >= T_KADDB) && (CodeInfo->token <= T_KUNPCKDQ)) {       //here pay atention

	mov	ecx, DWORD PTR [rdi+24]
	lea	eax, DWORD PTR [rcx-1682]
	cmp	eax, 26
	ja	SHORT $LN193@output_opc

; 600  :               /* third byte W vvvv Lpp   */
; 601  :               c = CodeInfo->reg2;
; 602  :               lbyte &= 0xc0;
; 603  :               c = (c << 3);

	movzx	eax, BYTE PTR [rdi+110]
	and	bl, 196					; 000000c4H
	shl	al, 3

; 604  :               c = ~c;

	not	al

; 605  :               c &= EVEX_P1VVVV;

	and	al, 120					; 00000078H

; 606  :               lbyte |= c;
; 607  :               lbyte |= 4;    

	or	bl, al
	or	bl, 4

; 608  :                if (ins->byte1_info == F_660F) lbyte |= 0x1;

	cmp	BYTE PTR [r15+1], 18
	jne	SHORT $LN200@output_opc
	or	bl, r13b

; 609  :             }

	jmp	SHORT $LN200@output_opc
$LN193@output_opc:
	lea	eax, DWORD PTR [rcx-1709]
	cmp	eax, 7
	ja	SHORT $LN196@output_opc

; 610  :             else if ((CodeInfo->token >= T_KNOTB) && (CodeInfo->token <= T_KORTESTQ)) {
; 611  :               /*  1 1111 0pp */
; 612  :               /*  R vvvv Lpp */
; 613  :               lbyte = 0xF8;
; 614  :               if (ins->byte1_info == F_660F) lbyte |= 0x01;

	cmp	BYTE PTR [r15+1], 18
	mov	bl, 248					; 000000f8H
	jne	SHORT $LN200@output_opc
	mov	bl, 249					; 000000f9H

; 615  :             }

	jmp	SHORT $LN200@output_opc
$LN196@output_opc:
	lea	eax, DWORD PTR [rcx-1725]
	cmp	eax, ebp
	ja	SHORT $LN200@output_opc

; 616  :             else if ((CodeInfo->token >= T_KMOVB) && (CodeInfo->token <= T_KMOVW)) {
; 617  :               /*  1 1111 0pp */
; 618  :               /*  R vvvv Lpp */
; 619  :               lbyte = 0xF8;
; 620  :               if (ins->byte1_info == F_660F) lbyte |= 0x01;

	cmp	BYTE PTR [r15+1], 18
	mov	ebx, 251				; 000000fbH
	mov	eax, 249				; 000000f9H
	cmove	ebx, eax
$LN200@output_opc:
	lea	eax, DWORD PTR [rcx-1349]
	test	eax, -7					; fffffff9H
	jne	SHORT $LN204@output_opc

; 621  :               else  lbyte |= 0x3;
; 622  :             }
; 623  :             if (CodeInfo->token < T_VCVTDQ2PD && CodeInfo->token > T_VCVTTSS2SI){
; 624  :               if (CodeInfo->reg2 > 15)lbyte |= EVEX_P1WMASK;
; 625  :             }
; 626  :             if (CodeInfo->token == T_VPSCATTERDQ || CodeInfo->token == T_VPSCATTERQQ ||
; 627  :               CodeInfo->token == T_VSCATTERDPD || CodeInfo->token == T_VSCATTERQPD){
; 628  :               lbyte |= 0x80;

	or	bl, 128					; 00000080H
$LN204@output_opc:
	lea	eax, DWORD PTR [rcx-1342]
	cmp	eax, ebp
	ja	SHORT $LN206@output_opc

; 629  :             }
; 630  :             /* if broadflags are prezent W = 0  in WVVVV1PP */
; 631  :               if (CodeInfo->token == T_VPGATHERDQ || CodeInfo->token == T_VPGATHERQQ ||
; 632  :                 CodeInfo->token == T_VGATHERDPD || CodeInfo->token == T_VGATHERQPD){
; 633  :                   lbyte |= 0x80;

	or	bl, 128					; 00000080H
$LN206@output_opc:

; 634  :                 }
; 635  :             if (CodeInfo->token == T_VGATHERDPS)lbyte &= ~0x80;

	cmp	ecx, 1346				; 00000542H
	jne	SHORT $LN208@output_opc
	and	bl, 127					; 0000007fH
$LN208@output_opc:
	cmp	ecx, 1438				; 0000059eH
	jle	SHORT $LN210@output_opc
	lea	eax, DWORD PTR [rcx-1899]
	cmp	eax, 11
	ja	SHORT $LN209@output_opc
$LN210@output_opc:

; 636  :             if (((CodeInfo->token <= T_VCOMPRESSPS))||((CodeInfo->token >= T_VCVTDQ2PD) &&
; 637  :               (CodeInfo->token <= T_VCVTTSS2SI))|| (CodeInfo->token == T_VCVTPD2DQ)) 
; 638  :               CodeInfo->evex_p2 &= ~EVEX_P1PPMASK;

	and	BYTE PTR [rdi+139], 252			; 000000fcH
$LN209@output_opc:
	lea	eax, DWORD PTR [rcx-1452]
	cmp	eax, r13d
	ja	SHORT $LN212@output_opc

; 639  :             if ((CodeInfo->token == T_VPCMPB) || (CodeInfo->token == T_VPCMPUB ))lbyte &= ~EVEX_P1WMASK;

	and	bl, 127					; 0000007fH
$LN212@output_opc:

; 640  :             if (CodeInfo->evex_flag){

	cmp	BYTE PTR [rdi+136], 0
	je	SHORT $LN217@output_opc

; 641  :               if ((CodeInfo->opnd[OPND2].type == OP_M64) || (CodeInfo->opnd[OPND1].type == OP_M64))

	mov	eax, DWORD PTR [rdi+56]
	cmp	eax, 67108864				; 04000000H
	je	SHORT $LN216@output_opc
	cmp	DWORD PTR [rdi+32], 67108864		; 04000000H
	jne	SHORT $LN215@output_opc
$LN216@output_opc:

; 642  :                 lbyte |= EVEX_P1WMASK;

	or	bl, 128					; 00000080H
$LN215@output_opc:
	add	eax, -4					; fffffffcH
	test	eax, -513				; fffffdffH
	je	SHORT $LN218@output_opc
	mov	eax, DWORD PTR [rdi+32]
	sub	eax, 4
	test	eax, -513				; fffffdffH
	jne	SHORT $LN217@output_opc
$LN218@output_opc:

; 643  :                if ((CodeInfo->opnd[OPND2].type == OP_R32) || (CodeInfo->opnd[OPND2].type == OP_EAX) ||
; 644  :                  (CodeInfo->opnd[OPND1].type == OP_R32) || (CodeInfo->opnd[OPND1].type == OP_EAX)){
; 645  :                  lbyte &= ~EVEX_P1WMASK;

	and	bl, 127					; 0000007fH
$LN217@output_opc:
	cmp	ecx, 1936				; 00000790H
	je	SHORT $LN220@output_opc
	cmp	ecx, 1938				; 00000792H
	je	SHORT $LN220@output_opc
	lea	eax, DWORD PTR [rcx-1571]
	cmp	eax, 2
	ja	SHORT $LN219@output_opc
$LN220@output_opc:

; 646  :                }
; 647  :              }
; 648  :             if ((CodeInfo->token == T_VMOVHPS)||(CodeInfo->token == T_VMOVLPS)||
; 649  :               (CodeInfo->token == T_VPMOVQB)||(CodeInfo->token == T_VPMOVSQB)||
; 650  :               (CodeInfo->token == T_VPMOVUSQB)){  
; 651  :                   lbyte &= ~EVEX_P1WMASK;

	and	bl, 127					; 0000007fH
$LN219@output_opc:
	cmp	ecx, 2041				; 000007f9H
	je	SHORT $LN222@output_opc
	cmp	ecx, 2046				; 000007feH
	je	SHORT $LN222@output_opc
	lea	edx, DWORD PTR [rcx-1534]
	cmp	edx, 6
	ja	SHORT $LN221@output_opc
	mov	eax, 81					; 00000051H
	bt	eax, edx
	jae	SHORT $LN221@output_opc
$LN222@output_opc:

; 652  :             }
; 653  :              if ((CodeInfo->token == T_VPSLLQ)||(CodeInfo->token == T_VPSRLQ)||
; 654  :                (CodeInfo->token == T_VPSRAQ)|| (CodeInfo->token == T_VPROLQ)||
; 655  :                (CodeInfo->token == T_VPRORQ))
; 656  :                lbyte |= EVEX_P1WMASK;

	or	bl, 128					; 00000080H
$LN221@output_opc:
	lea	eax, DWORD PTR [rcx-1671]
	cmp	eax, ebp
	jbe	SHORT $LN224@output_opc
	cmp	ecx, 1678				; 0000068eH
	jne	SHORT $LN232@output_opc
$LN224@output_opc:

; 657  :              if ((CodeInfo->token >= T_BEXTR)&&(CodeInfo->token <= T_SHRX)||(CodeInfo->token == T_BZHI)){
; 658  :               c = CodeInfo->reg3;
; 659  :               lbyte &= 0x80;
; 660  :               c = (c << 3);

	movzx	ebx, BYTE PTR [rdi+111]

; 661  :               c = ~c;
; 662  :               c &= EVEX_P1VVVV;
; 663  :               lbyte |= c;
; 664  : #if AMD64_SUPPORT
; 665  :               lbyte |=0x80;
; 666  : #endif
; 667  :                if (ins->byte1_info == F_660F) lbyte |= 0x1;

	movzx	eax, BYTE PTR [r15+1]
	shl	bl, 3
	not	bl
	and	bl, 248					; 000000f8H
	or	bl, 128					; 00000080H
	cmp	al, 18
	jne	SHORT $LN226@output_opc
	or	bl, r13b
	jmp	SHORT $LN232@output_opc
$LN226@output_opc:

; 668  :                else if (ins->byte1_info == F_F30F38) lbyte |= 0x02;//SARX

	cmp	al, 28
	jne	SHORT $LN228@output_opc
	or	bl, 2
	jmp	SHORT $LN232@output_opc
$LN228@output_opc:

; 669  :                else if (ins->byte1_info == F_660F38) lbyte |= 0x01;//SHLX

	cmp	al, 25
	jne	SHORT $LN230@output_opc
	or	bl, r13b
	jmp	SHORT $LN232@output_opc
$LN230@output_opc:

; 670  :                else if (ins->byte1_info == F_F20F38) lbyte |= 0x03;//SHRX

	cmp	al, 27
	jne	SHORT $LN232@output_opc
	or	bl, bpl
$LN232@output_opc:
	lea	eax, DWORD PTR [rcx-1675]
	cmp	eax, 2
	ja	SHORT $LN237@output_opc

; 671  :              }
; 672  :              if ((CodeInfo->token == T_BLSMSK)||(CodeInfo->token == T_BLSI)||
; 673  :                (CodeInfo->token == T_BLSR)){
; 674  :               c = CodeInfo->reg1;
; 675  :               lbyte &= 0x80;
; 676  :               c = (c << 3);

	movzx	eax, BYTE PTR [rdi+109]
	and	bl, 128					; 00000080H
	shl	al, 3

; 677  :               c = ~c;

	not	al

; 678  :               c &= EVEX_P1VVVV;

	and	al, 120					; 00000078H

; 679  :               lbyte |= c;

	or	bl, al

; 680  :                if (ins->byte1_info == F_660F) lbyte |= 0x1;

	movzx	eax, BYTE PTR [r15+1]
	cmp	al, 18
	jne	SHORT $LN235@output_opc
	or	bl, r13b
	jmp	SHORT $LN237@output_opc
$LN235@output_opc:

; 681  :                else if (ins->byte1_info == F_F20F38) lbyte |= 0x3;

	cmp	al, 27
	jne	SHORT $LN237@output_opc
	or	bl, bpl
$LN237@output_opc:
	lea	eax, DWORD PTR [rcx-1679]
	cmp	eax, r13d
	ja	SHORT $LN242@output_opc

; 682  :              }
; 683  :              if ((CodeInfo->token == T_PDEP)||(CodeInfo->token == T_PEXT)){ 
; 684  :               c = CodeInfo->reg2;
; 685  :               lbyte &= 0x80;
; 686  :               c = (c << 3);

	movzx	eax, BYTE PTR [rdi+110]
	and	bl, 128					; 00000080H
	shl	al, 3

; 687  :               c = ~c;

	not	al

; 688  :               c &= EVEX_P1VVVV;

	and	al, 120					; 00000078H

; 689  :               lbyte |= c;

	or	bl, al

; 690  :                if (ins->byte1_info == F_F20F38) lbyte |= 0x3;

	movzx	eax, BYTE PTR [r15+1]
	cmp	al, 27
	jne	SHORT $LN240@output_opc
	or	bl, bpl
	jmp	SHORT $LN242@output_opc
$LN240@output_opc:

; 691  :                else if (ins->byte1_info == F_F30F38)

	cmp	al, 28
	jne	SHORT $LN242@output_opc

; 692  :                  lbyte |= 0x2;

	or	bl, 2
$LN242@output_opc:

; 693  :              }
; 694  :             if (CodeInfo->token == T_RORX)lbyte |= 0x3;

	cmp	ecx, 1681				; 00000691H
	jne	SHORT $LN243@output_opc
	or	bl, bpl
$LN243@output_opc:

; 695  :             if (CodeInfo->token == T_VEXTRACTF128){

	cmp	ecx, 1311				; 0000051fH
	jne	SHORT $LN245@output_opc

; 696  :               if (CodeInfo->r2type == OP_YMM)

	cmp	DWORD PTR [rdi+120], 128		; 00000080H
	jne	SHORT $LN245@output_opc

; 697  :                 lbyte |= 0x04;

	or	bl, 4
$LN245@output_opc:

; 698  :             }
; 699  :             CodeInfo->evex_p1 = lbyte;
; 700  :             OutputCodeByte( lbyte );

	movzx	ecx, bl
	mov	BYTE PTR [rdi+138], bl
	call	OutputByte

; 701  :             if (CodeInfo->evex_flag  ){

	cmp	BYTE PTR [rdi+136], 0
	je	$LN12@output_opc

; 702  :               CodeInfo->evex_p2 |= decoflags;

	movzx	eax, BYTE PTR decoflags
	or	BYTE PTR [rdi+139], al

; 703  :             if ((CodeInfo->opnd[OPND1].type  & OP_ZMM)|| (CodeInfo->r2type & OP_ZMM))

	mov	edx, DWORD PTR [rdi+32]
	movzx	eax, BYTE PTR [rdi+139]
	bt	edx, 8
	jb	SHORT $LN249@output_opc
	mov	ecx, DWORD PTR [rdi+120]
	bt	ecx, 8
	jb	SHORT $LN249@output_opc

; 705  :             else if ((CodeInfo->opnd[OPND1].type & OP_YMM) || (CodeInfo->r2type & OP_YMM)) 

	test	dl, dl
	js	SHORT $LN251@output_opc
	test	cl, cl
	jns	SHORT $LN250@output_opc
$LN251@output_opc:

; 706  :               CodeInfo->evex_p2 |= EVEX_P2LMASK;

	or	al, 32					; 00000020H
	jmp	SHORT $LN660@output_opc
$LN249@output_opc:

; 704  :               CodeInfo->evex_p2 |= EVEX_P2L1MASK;

	or	al, 64					; 00000040H
$LN660@output_opc:
	mov	BYTE PTR [rdi+139], al
$LN250@output_opc:

; 707  :               /* here is Static Rounding Mode inserted */
; 708  :             if (CodeInfo->evex_sae){

	movzx	r8d, BYTE PTR [rdi+141]
	test	r8b, r8b
	je	SHORT $LN252@output_opc

; 709  :                 CodeInfo->evex_p2 &= ~0x70;     //clear bites 6,5,4

	and	BYTE PTR [rdi+139], 143			; 0000008fH

; 710  :                 c = CodeInfo->evex_sae - 0x10;  //subtract SAE to get a proper decorator

	movzx	eax, r8b
	sub	al, 16

; 711  :                 /* here we need to test for corect use of decorators  
; 712  :                  * if it is {sae} c will be zero, in that case we need to add 0x10 to c
; 713  :                  * if we need {sae}
; 714  :                 */   
; 715  :                 if (c == 0) c += 0x10;

	mov	r9d, 16
	movzx	ecx, al
	cmove	ecx, r9d

; 716  :                 CodeInfo->evex_p2 |= c;

	or	BYTE PTR [rdi+139], cl
$LN252@output_opc:

; 717  :               }
; 718  :               if (broadflags >= 0x10 && broadflags <= 0x47) CodeInfo->evex_p2 |= 0x10;

	movzx	eax, BYTE PTR broadflags
	sub	al, 16
	cmp	al, 55					; 00000037H
	ja	SHORT $LN254@output_opc
	or	BYTE PTR [rdi+139], 16
$LN254@output_opc:
	mov	eax, DWORD PTR [rdi+24]
	sub	eax, 1899				; 0000076bH
	cmp	eax, 11
	ja	SHORT $LN269@output_opc

; 719  :                 if ((CodeInfo->token >= T_VCVTDQ2PD && CodeInfo->token <= T_VCVTTSS2SI)||
; 720  :                 (CodeInfo->token == T_VCVTSD2SS)){
; 721  :                   if (!CodeInfo->evex_sae)

	test	r8b, r8b
	jne	SHORT $LN258@output_opc

; 722  :                   CodeInfo->evex_p2 &= ~0x60;   //clear bits 6 and 5

	and	BYTE PTR [rdi+139], 159			; 0000009fH
$LN258@output_opc:

; 723  :                   if (CodeInfo->opnd[OPND1].type & OP_XMM){

	mov	eax, DWORD PTR [rdi+32]
	test	al, 32					; 00000020H
	je	SHORT $LN259@output_opc

; 724  :                     if (CodeInfo->r2type & (OP_XMM | OP_M64 | OP_M))

	test	DWORD PTR [rdi+120], -1887436768	; 8f800020H
	jne	SHORT $LN269@output_opc
$LN265@output_opc:

; 725  :                       ;
; 726  :                     else EmitError(INVALID_COMBINATION_OF_OPCODE_AND_OPERANDS);

	mov	ecx, 14
	call	EmitError

; 727  :                   }

	jmp	SHORT $LN269@output_opc
$LN259@output_opc:

; 728  :                   else if (CodeInfo->opnd[OPND1].type & OP_YMM){

	test	al, al
	jns	SHORT $LN263@output_opc

; 729  :                     if (CodeInfo->r2type & (OP_XMM | OP_M128 | OP_M))

	test	DWORD PTR [rdi+120], -1887436768	; 8f800020H
	je	SHORT $LN265@output_opc

; 730  :                       CodeInfo->evex_p2 |= EVEX_P2LMASK;

	or	BYTE PTR [rdi+139], 32			; 00000020H
	jmp	SHORT $LN269@output_opc
$LN263@output_opc:

; 731  :                     else EmitError(INVALID_COMBINATION_OF_OPCODE_AND_OPERANDS);
; 732  :                   }
; 733  :                   else if (CodeInfo->opnd[OPND1].type & OP_ZMM){

	bt	eax, 8
	jae	SHORT $LN269@output_opc

; 734  :                     if (CodeInfo->r2type & OP_YMM | OP_M256 | OP_M)
; 735  :                       CodeInfo->evex_p2 |= EVEX_P2L1MASK;

	or	BYTE PTR [rdi+139], 64			; 00000040H
$LN269@output_opc:

; 736  :                     else EmitError(INVALID_COMBINATION_OF_OPCODE_AND_OPERANDS);
; 737  :                   }
; 738  :                 }
; 739  :                 if (CodeInfo->token >= T_VPGATHERDD && CodeInfo->token <= T_VGATHERQPS){

	mov	ecx, DWORD PTR [rdi+24]
	lea	eax, DWORD PTR [rcx-1340]
	cmp	eax, 7
	ja	SHORT $LN270@output_opc

; 740  :                   CodeInfo->evex_p2 |= EVEX_P2L1MASK;

	or	BYTE PTR [rdi+139], 64			; 00000040H

; 741  :                   CodeInfo->tuple = TRUE;

	mov	BYTE PTR [rdi+140], r13b
$LN270@output_opc:
	lea	eax, DWORD PTR [rcx-1348]
	cmp	eax, 7
	ja	SHORT $LN271@output_opc

; 742  :                 }
; 743  :                 if (CodeInfo->token >= T_VPSCATTERDD && CodeInfo->token <= T_VSCATTERQPD){
; 744  :                   CodeInfo->evex_p2 &= ~EVEX_P2LMASK;

	and	BYTE PTR [rdi+139], 223			; 000000dfH

; 745  :                   CodeInfo->evex_p2 |= EVEX_P2L1MASK;

	or	BYTE PTR [rdi+139], 64			; 00000040H

; 746  :                 CodeInfo->tuple = TRUE;

	mov	BYTE PTR [rdi+140], r13b
$LN271@output_opc:
	cmp	ecx, 1917				; 0000077dH
	je	SHORT $LN273@output_opc
	lea	eax, DWORD PTR [rcx-1598]
	cmp	eax, r13d
	jbe	SHORT $LN273@output_opc
	cmp	ecx, 1618				; 00000652H
	jne	SHORT $LN272@output_opc
$LN273@output_opc:

; 747  :                 }
; 748  :                 if ((CodeInfo->token == T_VEXTRACTPS)||(CodeInfo->token == T_VCVTSD2USI)||
; 749  :                   (CodeInfo->token == T_VCVTSS2USI)||(CodeInfo->token == T_VCVTTSD2USI))
; 750  :                   CodeInfo->evex_p2 &= ~EVEX_P2L1MASK;

	and	BYTE PTR [rdi+139], 191			; 000000bfH
$LN272@output_opc:
	lea	eax, DWORD PTR [rcx-1312]
	cmp	eax, 8
	ja	SHORT $LN623@output_opc
	mov	edx, 495				; 000001efH
	bt	edx, eax
	jb	SHORT $LN275@output_opc
$LN623@output_opc:
	cmp	ecx, 1917				; 0000077dH
	jne	SHORT $LN274@output_opc
$LN275@output_opc:

; 751  :                   if ((CodeInfo->token == T_VEXTRACTF32x4) || (CodeInfo->token == T_VEXTRACTF64x2)||
; 752  :                     (CodeInfo->token == T_VEXTRACTF64x4)|| (CodeInfo->token == T_VEXTRACTF32x8)||
; 753  :                     (CodeInfo->token == T_VEXTRACTI32x4)||(CodeInfo->token == T_VEXTRACTI64x4)||
; 754  :                     (CodeInfo->token == T_VEXTRACTI64x2)|| (CodeInfo->token == T_VEXTRACTI32x8)||
; 755  :                   (CodeInfo->token == T_VEXTRACTPS)|| (CodeInfo->token == T_VEXTRACTPS)){
; 756  :                     CodeInfo->evex_p2 &= ~EVEX_P2BMASK;
; 757  :                     CodeInfo->evex_p2 &= ~EVEX_P2LMASK;

	and	BYTE PTR [rdi+139], 207			; 000000cfH
$LN274@output_opc:

; 758  :                   }
; 759  :                 if (CodeInfo->evex_flag){

	cmp	BYTE PTR [rdi+136], 0
	je	$LN12@output_opc

; 760  :                   if (CodeInfo->vexregop){

	cmp	BYTE PTR [rdi+128], 0
	je	SHORT $LN277@output_opc

; 761  :                     if (CodeInfo->reg2 <= 15) CodeInfo->evex_p2 |= EVEX_P2VMASK;

	cmp	BYTE PTR [rdi+110], 15
	jbe	SHORT $LN277@output_opc

; 762  :                     else CodeInfo->evex_p2 &= ~EVEX_P2VMASK;

	and	BYTE PTR [rdi+139], 247			; 000000f7H

; 763  :                   }

	jmp	SHORT $LN278@output_opc
$LN277@output_opc:

; 764  :                   else CodeInfo->evex_p2 |= EVEX_P2VMASK;

	or	BYTE PTR [rdi+139], 8
$LN278@output_opc:
	lea	eax, DWORD PTR [rcx-1610]
	cmp	eax, r13d
	jbe	SHORT $LN282@output_opc
	cmp	ecx, 1428				; 00000594H
	jne	SHORT $LN281@output_opc
$LN282@output_opc:

; 765  :               if ((CodeInfo->token == T_VRNDSCALEPD) || (CodeInfo->token == T_VRNDSCALEPS)||
; 766  :                    (CodeInfo->token ==  T_VCVTPS2PH))
; 767  :                     CodeInfo->evex_p2 |= EVEX_P2VMASK;

	or	BYTE PTR [rdi+139], 8
$LN281@output_opc:

; 768  :                 CodeInfo->evex_p2 |= decoflags;

	movzx	eax, BYTE PTR decoflags
	or	BYTE PTR [rdi+139], al
	movzx	eax, BYTE PTR [rdi+139]

; 769  :               if (CodeInfo->token == T_VCVTDQ2PD)

	cmp	ecx, 1899				; 0000076bH
	jne	SHORT $LN283@output_opc

; 770  :                 CodeInfo->evex_p2 &= ~EVEX_P2L1MASK;

	and	al, 191					; 000000bfH
	mov	BYTE PTR [rdi+139], al
$LN283@output_opc:

; 771  :                 OutputCodeByte(CodeInfo->evex_p2);

	movzx	ecx, BYTE PTR [rdi+139]

; 1065 :                 }
; 1066 :             }
; 1067 :         }
; 1068 :     } else {

	jmp	SHORT $LN658@output_opc
$LN70@output_opc:

; 1069 : #endif
; 1070 : 
; 1071 : #if AMD64_SUPPORT
; 1072 :     /* the REX prefix must be located after the other prefixes */
; 1073 :     if( CodeInfo->prefix.rex != 0 ) {

	cmp	BYTE PTR [rdi+8], 0
	je	SHORT $LN460@output_opc

; 1074 :         if ( CodeInfo->Ofssize != USE64 ) {

	cmp	BYTE PTR [rdi+106], 2
	je	SHORT $LN461@output_opc

; 1075 :             EmitError( INVALID_OPERAND_SIZE );

	mov	ecx, 71					; 00000047H
	call	EmitError
$LN461@output_opc:

; 1076 :         }
; 1077 :         OutputCodeByte( CodeInfo->prefix.rex | 0x40 );

	movzx	ecx, BYTE PTR [rdi+8]
	or	cl, 64					; 00000040H
	call	OutputByte
$LN460@output_opc:

; 1078 :     }
; 1079 : #endif
; 1080 : 
; 1081 :     /*
; 1082 :      * Output extended opcode
; 1083 :      * special case for some 286 and 386 instructions
; 1084 :      * or 3DNow!, MMX and SSEx instructions
; 1085 :      */
; 1086 :     if ( ins->byte1_info >= F_0F ) {

	cmp	BYTE PTR [r15+1], 16
	jb	SHORT $LN12@output_opc

; 1087 :         OutputCodeByte( EXTENDED_OPCODE );

	mov	cl, 15
	call	OutputByte

; 1088 :         switch ( ins->byte1_info ) {

	movzx	eax, BYTE PTR [r15+1]
	add	eax, -17
	cmp	eax, 10
	ja	SHORT $LN12@output_opc
	cdqe
	mov	ecx, DWORD PTR $LN636@output_opc[r12+rax*4]
	add	rcx, r12
	jmp	rcx
$LN463@output_opc:

; 1089 :         case F_0F0F:   OutputCodeByte( EXTENDED_OPCODE ); break;

	mov	cl, 15
	jmp	SHORT $LN658@output_opc
$LN464@output_opc:

; 1090 :         case F_0F38:
; 1091 :         case F_F20F38:
; 1092 :         case F_660F38: OutputCodeByte( 0x38 );            break;

	mov	cl, 56					; 00000038H
	jmp	SHORT $LN658@output_opc
$LN465@output_opc:

; 1093 :         case F_0F3A:
; 1094 :         case F_660F3A: OutputCodeByte( 0x3A );            break;

	mov	cl, 58					; 0000003aH
$LN658@output_opc:
	call	OutputByte
$LN12@output_opc:

; 1095 :         }
; 1096 :     }
; 1097 : 
; 1098 : #if AVXSUPP
; 1099 :     }
; 1100 : #endif
; 1101 : 
; 1102 :     switch( ins->rm_info) {

	movzx	ecx, BYTE PTR [r15+2]
	shr	ecx, 4
	and	ecx, 7
	sub	ecx, r13d
	je	$LN467@output_opc
	sub	ecx, r13d
	je	SHORT $LN468@output_opc
	sub	ecx, r13d
	jne	SHORT $LN469@output_opc

; 1103 :     case R_in_OP:
; 1104 :         OutputCodeByte( ins->opcode | ( CodeInfo->rm_byte & NOT_BIT_67 ) );

	movzx	ecx, BYTE PTR [rdi+104]
	and	cl, 63					; 0000003fH

; 1105 :         break;

	jmp	$LN661@output_opc
$LN468@output_opc:

; 1108 :         break;
; 1109 :     case no_WDS:
; 1110 :         CodeInfo->iswide = 0;

	and	BYTE PTR [rdi+142], 254			; 000000feH
$LN469@output_opc:
	mov	QWORD PTR [rsp+88], r14

; 1111 :         /* no break */
; 1112 :     default: /* opcode (with w d s bits), rm-byte */
; 1113 :            if( ins->byte1_info != F_0F0F ) {

	xor	r14d, r14d
	cmp	BYTE PTR [r15+1], 17
	je	$LN472@output_opc

; 1114 :              if ((CodeInfo->token >= T_KADDB) && (CodeInfo->token <= T_KMOVW)){

	mov	edx, DWORD PTR [rdi+24]
	lea	eax, DWORD PTR [rdx-1682]
	cmp	eax, 46					; 0000002eH
	ja	SHORT $LN471@output_opc

; 1115 :                if ((CodeInfo->token >= T_KMOVB) && (CodeInfo->token <= T_KMOVW)){

	cmp	edx, 1725				; 000006bdH
	jl	SHORT $LN635@output_opc

; 1116 :                 const  struct instr_item *p = CodeInfo->pinstr;
; 1117 :                  int cnt;
; 1118 :                  int type1 = CodeInfo->opnd[OPND1].type;

	mov	ebp, DWORD PTR [rdi+32]

; 1119 :                  int type2 = CodeInfo->opnd[OPND2].type;

	mov	esi, DWORD PTR [rdi+56]
	mov	rbx, QWORD PTR [rdi+16]

; 1120 :                  CodeInfo->tuple = 0;

	mov	BYTE PTR [rdi+140], r14b

; 1121 :                  /* at least one operand must be K register */
; 1122 :                  if (type1 == OP_K || type2 == OP_K)

	cmp	ebp, 64					; 00000040H
	je	SHORT $LN477@output_opc
	cmp	esi, 64					; 00000040H
	je	SHORT $LN477@output_opc

; 1123 :                    ;    //OK
; 1124 :                  else
; 1125 :                  EmitError(INVALID_COMBINATION_OF_OPCODE_AND_OPERANDS);

	lea	ecx, QWORD PTR [r14+14]
	call	EmitError
$LN477@output_opc:

; 1126 :                  /* find the proper opcode for the command movw KREG,GP_REG */
; 1127 :                  for (cnt = 0; cnt < 5; cnt++,p++){

	mov	edx, r14d
	npad	6
$LL18@output_opc:

; 1128 :                    if ((opnd_clstab[p->opclsidx].opnd_type[OPND1] == type1) && 

	movzx	eax, BYTE PTR [rbx]
	lea	rcx, QWORD PTR [rax+rax*2]
	cmp	DWORD PTR opnd_clstab[r12+rcx*4], ebp
	jne	SHORT $LN16@output_opc
	cmp	DWORD PTR opnd_clstab[r12+rcx*4+4], esi
	je	SHORT $LN544@output_opc
$LN16@output_opc:

; 1126 :                  /* find the proper opcode for the command movw KREG,GP_REG */
; 1127 :                  for (cnt = 0; cnt < 5; cnt++,p++){

	inc	edx
	add	rbx, 10
	cmp	edx, 5
	jl	SHORT $LL18@output_opc
$LN635@output_opc:

; 1135 :                  else
; 1136 :                    OutputCodeByte(ins->opcode);

	movzx	ecx, BYTE PTR [r15+8]

; 1137 :               }else

	jmp	SHORT $LN662@output_opc
$LN544@output_opc:

; 1129 :                      (opnd_clstab[p->opclsidx].opnd_type[OPND2] == type2))
; 1130 :                      break;
; 1131 :                  }
; 1132 :                  if (cnt < 5) {   //there are 5 combinations

	cmp	edx, 5
	jge	SHORT $LN635@output_opc

; 1133 :                    OutputCodeByte(p->opcode);

	movzx	ecx, BYTE PTR [rbx+8]

; 1134 :                  }

	jmp	SHORT $LN662@output_opc
$LN471@output_opc:

; 1138 :                 OutputCodeByte(ins->opcode);
; 1139 :              }
; 1140 :              else{
; 1141 :                OutputCodeByte(ins->opcode | CodeInfo->iswide | CodeInfo->opc_or);

	movzx	ecx, BYTE PTR [rdi+142]
	and	cl, r13b
	or	cl, BYTE PTR [rdi+107]
	or	cl, BYTE PTR [r15+8]
$LN662@output_opc:
	call	OutputByte
$LN472@output_opc:

; 1142 :              }
; 1143 :         }
; 1144 :        int_8 comprdsp;
; 1145 :         /* emit ModRM byte; bits 7-6 = Mod, bits 5-3 = Reg, bits 2-0 = R/M */
; 1146 :            if ((CodeInfo->token == T_VRNDSCALEPD) || (CodeInfo->token == T_VRNDSCALEPS))CodeInfo->tuple = TRUE;

	mov	ebp, DWORD PTR [rdi+24]
	lea	eax, DWORD PTR [rbp-1610]
	cmp	eax, r13d
	ja	SHORT $LN481@output_opc
	mov	BYTE PTR [rdi+140], r13b
$LN481@output_opc:
	lea	eax, DWORD PTR [rbp-1682]
	cmp	eax, 26
	ja	SHORT $LN483@output_opc

; 1147 :             if ((CodeInfo->token >= T_KADDB) && (CodeInfo->token <= T_KUNPCKDQ)) {       //here pay atention
; 1148 :               c = CodeInfo->reg1;
; 1149 :               tmp = MOD_11;           //bits 7-6 = Mod
; 1150 :               c = (c << 3);           //bits 5-3 = Reg,
; 1151 :               tmp |= c;            
; 1152 :               tmp |= CodeInfo->reg3;  //bits 2-0 = R/M

	movzx	ebx, BYTE PTR [rdi+109]
	or	bl, 248					; 000000f8H
	shl	bl, 3
	or	bl, BYTE PTR [rdi+111]

; 1153 :             }

	jmp	SHORT $LN486@output_opc
$LN483@output_opc:
	lea	eax, DWORD PTR [rbp-1709]
	cmp	eax, 7
	ja	SHORT $LN485@output_opc

; 1154 :             else if ((CodeInfo->token >= T_KNOTB) && (CodeInfo->token <= T_KORTESTQ)) {
; 1155 :                 tmp = MOD_11;                 //bits 7-6 = Mod
; 1156 :                 tmp |= (CodeInfo->reg1 << 3); //bits 5-3 = Reg,
; 1157 :                 tmp |= CodeInfo->reg2;        //bits 2-0 = R/M

	movzx	ebx, BYTE PTR [rdi+109]
	or	bl, 248					; 000000f8H
	shl	bl, 3
	or	bl, BYTE PTR [rdi+110]

; 1158 :             }

	jmp	SHORT $LN486@output_opc
$LN485@output_opc:

; 1159 :         else
; 1160 :         tmp = ins->rm_byte | CodeInfo->rm_byte;

	movzx	ebx, BYTE PTR [rdi+104]
	or	bl, BYTE PTR [r15+9]
$LN486@output_opc:

; 1161 :             if (CodeInfo->token == T_VCVTPS2PH){//(!CodeInfo->evex_flag) && 

	cmp	ebp, 1428				; 00000594H
	jne	SHORT $LN487@output_opc

; 1162 :               //tmp &= 0xC0;
; 1163 :               c = CodeInfo->reg2;

	movzx	eax, BYTE PTR [rdi+110]

; 1164 :               if (c > 15)c -= 16 ;

	cmp	al, 15
	jbe	SHORT $LN488@output_opc
	add	al, 240					; 000000f0H
$LN488@output_opc:

; 1165 :               if (c > 7)c -= 8;

	cmp	al, 7
	jbe	SHORT $LN489@output_opc
	add	al, 248					; 000000f8H
$LN489@output_opc:

; 1166 :               c = (c << 3);

	shl	al, 3

; 1167 :               tmp |= c;

	or	bl, al
$LN487@output_opc:

; 1168 :             }
; 1169 :         if (CodeInfo->basetype == T_RIP) tmp &= ~MOD_10;

	cmp	BYTE PTR [rdi+108], 131			; 00000083H
	jne	SHORT $LN490@output_opc
	and	bl, 127					; 0000007fH
$LN490@output_opc:

; 1170 :         /* use only if TypleType is present  */
; 1171 :         if (CodeInfo->tuple){

	cmp	BYTE PTR [rdi+140], r14b
	je	$LN644@output_opc

; 1172 :           int index = -1;
; 1173 :           int d;
; 1174 :           if ((CodeInfo->opnd[OPND1].type & OP_M_ANY) &&

	test	DWORD PTR [rdi+32], -8388608		; ffffffffff800000H
	je	SHORT $LN492@output_opc
	cmp	DWORD PTR [rdi+40], -1
	jne	SHORT $LN548@output_opc
$LN492@output_opc:

; 1175 :             (CodeInfo->opnd[OPND1].data32l != -1))  index = OPND1;
; 1176 :           else if ((CodeInfo->opnd[OPND2].type & OP_M_ANY) &&

	test	DWORD PTR [rdi+56], -8388608		; ffffffffff800000H
	je	SHORT $LN643@output_opc
	cmp	DWORD PTR [rdi+40], -1
	je	SHORT $LN643@output_opc

; 1177 :             (CodeInfo->opnd[OPND1].data32l != -1))
; 1178 :             index = OPND2;

	mov	r14d, r13d
$LN548@output_opc:

; 1179 :           if ((index != -1) && ((Check4CompDisp8(CodeInfo, &comprdsp, &d, CodeInfo->opnd[index].data32l)) && comprdsp)){

	movsxd	rax, r14d
	lea	rcx, QWORD PTR [rax+rax*2]
	mov	esi, DWORD PTR [rdi+rcx*8+40]
	lea	r14, QWORD PTR [rdi+rcx*8]
	mov	rcx, rdi
	call	GetByteDisp
	test	al, al
	je	SHORT $LN537@output_opc
	movzx	r8d, al
	lea	ecx, DWORD PTR [r8-1]
	test	ecx, esi
	jne	SHORT $LN537@output_opc
	mov	eax, esi
	cdq
	idiv	r8d
	mov	r8d, eax
	lea	ecx, DWORD PTR [rax+128]
	cmp	ecx, 255				; 000000ffH
	ja	SHORT $LN537@output_opc
	test	al, al
	je	SHORT $LN495@output_opc

; 1180 :             CodeInfo->opnd[index].data32l = comprdsp;

	movsx	ecx, al

; 1181 :             tmp &= ~MOD_10;     /* if        mod = 10, r/m = 100, s-i-b is present */

	and	bl, 63					; 0000003fH
	mov	DWORD PTR [r14+40], ecx

; 1182 :             tmp |= MOD_01;      /* change to mod = 01, r/m = 100, s-i-b is present */

	or	bl, 64					; 00000040H

; 1183 :           }

	jmp	$LN524@output_opc

; 1179 :           if ((index != -1) && ((Check4CompDisp8(CodeInfo, &comprdsp, &d, CodeInfo->opnd[index].data32l)) && comprdsp)){

$LN537@output_opc:
	xor	r8b, r8b
	jmp	SHORT $LN495@output_opc
$LN643@output_opc:
	movzx	r8d, BYTE PTR comprdsp$1[rsp]
$LN495@output_opc:

; 1184 :           else if (CodeInfo->opnd[OPND2].type == OP_I8 ){

	cmp	DWORD PTR [rdi+56], 131072		; 00020000H
	jne	$LN497@output_opc
	lea	eax, DWORD PTR [rbp-2039]
	cmp	eax, 7
	jbe	SHORT $LN500@output_opc
	lea	eax, DWORD PTR [rbp-1610]
	cmp	eax, r13d
	jbe	SHORT $LN500@output_opc
	lea	eax, DWORD PTR [rbp-1529]
	cmp	eax, 17
	ja	$LN524@output_opc
$LN500@output_opc:

; 1185 :             if ((CodeInfo->token >= T_VPSLLW) && (CodeInfo->token <= T_VPSRLQ) ||
; 1186 :               (CodeInfo->token == T_VRNDSCALEPD) || (CodeInfo->token == T_VRNDSCALEPS)||
; 1187 :               (CodeInfo->token >= T_VPSLLVD) && (CodeInfo->token <= T_VPSRLVW)){
; 1188 :               if ((CodeInfo->vexconst) && ((Check4CompDisp8(CodeInfo, &comprdsp, &d, CodeInfo->vexconst)) && comprdsp)){

	mov	esi, DWORD PTR [rdi+124]
	test	esi, esi
	je	SHORT $LN502@output_opc
	mov	rcx, rdi
	call	GetByteDisp
	test	al, al
	je	SHORT $LN541@output_opc
	movzx	ecx, al
	lea	eax, DWORD PTR [rcx-1]
	test	eax, esi
	jne	SHORT $LN541@output_opc
	mov	eax, esi
	cdq
	idiv	ecx
	lea	ecx, DWORD PTR [rax+128]
	cmp	ecx, 255				; 000000ffH
	ja	SHORT $LN541@output_opc
	movzx	r8d, al
	test	al, al
	je	SHORT $LN502@output_opc

; 1189 :                 CodeInfo->opnd[OPND1].data32l = comprdsp;                tmp &= ~MOD_10;     /* if        mod = 10, r/m = 100, s-i-b is present */

	movsx	eax, al
	and	bl, 63					; 0000003fH
	mov	DWORD PTR [rdi+40], eax

; 1190 :                 tmp |= MOD_01;      /* change to mod = 01, r/m = 100, s-i-b is present */

	or	bl, 64					; 00000040H
	mov	eax, DWORD PTR [rdi+24]
	sub	eax, 1610				; 0000064aH
	cmp	eax, r13d
	ja	$LN524@output_opc

; 1191 :                 if ((CodeInfo->token == T_VRNDSCALEPD) || (CodeInfo->token == T_VRNDSCALEPS)){                   
; 1192 :                      c = CodeInfo->reg2;

	movzx	eax, BYTE PTR [rdi+110]

; 1193 :                      if (c > 15) c -= 16;

	cmp	al, 15
	jbe	SHORT $LN506@output_opc
	add	al, 240					; 000000f0H
$LN506@output_opc:

; 1194 :                      if (c > 7) c -= 8;

	cmp	al, 7
	jbe	$LN523@output_opc
	add	al, 248					; 000000f8H

; 1195 :                      tmp |= c;

	or	bl, al

; 1196 :                  }
; 1197 :               }

	jmp	$LN524@output_opc

; 1185 :             if ((CodeInfo->token >= T_VPSLLW) && (CodeInfo->token <= T_VPSRLQ) ||
; 1186 :               (CodeInfo->token == T_VRNDSCALEPD) || (CodeInfo->token == T_VRNDSCALEPS)||
; 1187 :               (CodeInfo->token >= T_VPSLLVD) && (CodeInfo->token <= T_VPSRLVW)){
; 1188 :               if ((CodeInfo->vexconst) && ((Check4CompDisp8(CodeInfo, &comprdsp, &d, CodeInfo->vexconst)) && comprdsp)){

$LN541@output_opc:
	xor	r8b, r8b
$LN502@output_opc:

; 1198 :               else{
; 1199 :                 CodeInfo->tuple = 0;
; 1200 :                 if (CodeInfo->indexreg != 0xff){

	movzx	ecx, BYTE PTR [rdi+112]
	mov	BYTE PTR [rdi+140], 0
	cmp	cl, 255					; 000000ffH
	je	SHORT $LN508@output_opc

; 1201 :                   tmp &= ~NOT_BIT_345;
; 1202 :                   tmp &= ~BIT_012;
; 1203 :                   tmp |= MOD_10;
; 1204 :                   tmp |= RM_SIB;
; 1205 :                   c = CodeInfo->indexreg;
; 1206 :                   c = (c &= 0x7) << 3;
; 1207 :                   CodeInfo->sib |= c;
; 1208 :                   c = CodeInfo->basereg;
; 1209 :                   c &= 0x7;

	movzx	eax, BYTE PTR [rdi+113]

; 1210 :                   CodeInfo->sib |= c;
; 1211 :                   CodeInfo->rm_byte = tmp;
; 1212 :                   CodeInfo->sib |= MOD_11;

	or	cl, 248					; 000000f8H
	shl	cl, 3
	and	al, 7
	and	bl, 56					; 00000038H
	or	cl, al
	or	bl, 132					; 00000084H
	or	BYTE PTR [rdi+105], cl
	mov	BYTE PTR [rdi+104], bl

; 1213 :                   CodeInfo->opnd[OPND1].data32l = CodeInfo->vexconst;

	mov	DWORD PTR [rdi+40], esi

; 1214 :                 }

	jmp	$LN524@output_opc
$LN508@output_opc:

; 1215 :                 else {
; 1216 :                   if ((CodeInfo->opnd[OPND1].type == OP_R64) || (CodeInfo->opnd[OPND1].type == OP_RAX) ||
; 1217 :                     (CodeInfo->opnd[OPND1].type == OP_R32) || (CodeInfo->opnd[OPND1].type == OP_EAX)){

	mov	ecx, DWORD PTR [rdi+32]
	lea	eax, DWORD PTR [rcx-4]
	test	eax, -517				; fffffdfbH
	je	SHORT $LN512@output_opc

; 1223 :                     }
; 1224 :                   }
; 1225 :                   else if ((CodeInfo->opnd[OPND1].type == OP_XMM) || (CodeInfo->opnd[OPND1].type == OP_YMM) ||

	cmp	ecx, 32					; 00000020H
	je	SHORT $LN515@output_opc
	cmp	ecx, 128				; 00000080H
	je	SHORT $LN515@output_opc
	cmp	ecx, 256				; 00000100H
	jne	$LN524@output_opc
$LN515@output_opc:

; 1226 :                     (CodeInfo->opnd[OPND1].type == OP_ZMM)){
; 1227 :                 CodeInfo->tuple = 0;

	mov	BYTE PTR [rdi+140], 0

; 1228 :                 if (CodeInfo->vexconst){

	test	esi, esi
	je	SHORT $LN516@output_opc

; 1229 :                   tmp &= ~NOT_BIT_345;
; 1230 :                   tmp &= ~BIT_012;
; 1231 :                   tmp |= MOD_10;
; 1232 :                   tmp |= RM_SIB;
; 1233 :                   if (CodeInfo->indexreg != 0xFF){
; 1234 :                     c = CodeInfo->indexreg;
; 1235 :                     c = (c &= 0x07) << 3;
; 1236 :                     CodeInfo->sib |= c;
; 1237 :                     c = CodeInfo->basereg;
; 1238 :                     c &= 0x7;
; 1239 :                     CodeInfo->sib |= c;
; 1240 :                     CodeInfo->sib = 0xf0;
; 1241 :                   }
; 1242 :                   else{
; 1243 :                     tmp &= ~0x07;
; 1244 :                     tmp |= (CodeInfo->reg2 & 0x07);

	movzx	eax, BYTE PTR [rdi+110]
	and	bl, 56					; 00000038H
	or	bl, 132					; 00000084H
	xor	al, bl
	and	al, 7
	xor	bl, al

; 1245 :                   }
; 1246 :                   CodeInfo->rm_byte = tmp;

	mov	BYTE PTR [rdi+104], bl

; 1247 :                   CodeInfo->opnd[OPND1].data32l = CodeInfo->vexconst;

	mov	DWORD PTR [rdi+40], esi

; 1248 :                 }

	jmp	SHORT $LN524@output_opc
$LN516@output_opc:

; 1249 :                    else {
; 1250 :                      if ((CodeInfo->r2type)&&((CodeInfo->token == T_VRNDSCALEPD) || (CodeInfo->token == T_VRNDSCALEPS)))

	cmp	DWORD PTR [rdi+120], 0
	je	SHORT $LN520@output_opc
	lea	eax, DWORD PTR [rbp-1610]
	cmp	eax, r13d
	ja	SHORT $LN520@output_opc

; 1251 :                        tmp &= ~0xc0;

	and	bl, 63					; 0000003fH
$LN520@output_opc:

; 1252 :                      c = CodeInfo->reg2;

	movzx	eax, BYTE PTR [rdi+110]

; 1253 :                      if (c > 15) c -= 16;

	cmp	al, 15
	jbe	SHORT $LN522@output_opc
	add	al, 240					; 000000f0H
$LN522@output_opc:

; 1254 :                      if (c > 7) c -= 8;

	cmp	al, 7
	jbe	SHORT $LN523@output_opc
	add	al, 248					; 000000f8H
$LN523@output_opc:

; 1255 :                      tmp |= c;

	or	bl, al
	jmp	SHORT $LN524@output_opc
$LN512@output_opc:

; 1218 :                     tmp &= ~MOD_11;

	and	bl, 63					; 0000003fH

; 1219 :                     if (CodeInfo->vexconst){

	test	esi, esi
	je	SHORT $LN524@output_opc

; 1220 :                       tmp |= MOD_10;

	or	bl, 128					; 00000080H

; 1221 :                       CodeInfo->rm_byte = tmp;

	mov	BYTE PTR [rdi+104], bl

; 1222 :                       CodeInfo->opnd[OPND1].data32l = CodeInfo->vexconst;

	mov	DWORD PTR [rdi+40], esi

; 1256 :                    }
; 1257 :                   }
; 1258 :                 }
; 1259 :               }
; 1260 :             }
; 1261 :           }

	jmp	SHORT $LN524@output_opc
$LN497@output_opc:
	lea	eax, DWORD PTR [rbp-1340]

; 1262 :           else{
; 1263 :             CodeInfo->tuple = 0;

	mov	BYTE PTR [rdi+140], 0
	cmp	eax, 15
	ja	SHORT $LN524@output_opc

; 1264 :            if (CodeInfo->token >= T_VPGATHERDD && CodeInfo->token <= T_VSCATTERQPD){
; 1265 :               tmp &= ~0xc0;

	and	bl, 63					; 0000003fH

; 1266 :               tmp |= MOD_10;

	or	bl, 128					; 00000080H

; 1267 :               CodeInfo->rm_byte = tmp;

	mov	BYTE PTR [rdi+104], bl
	jmp	SHORT $LN524@output_opc
$LN644@output_opc:
	movzx	r8d, BYTE PTR comprdsp$1[rsp]
$LN524@output_opc:

; 1268 :             }
; 1269 :           }
; 1270 :         }
; 1271 :         if (CodeInfo->token == T_VCVTPS2PH){

	mov	eax, DWORD PTR [rdi+24]
	mov	r14, QWORD PTR [rsp+88]
	cmp	eax, 1428				; 00000594H
	jne	SHORT $LN525@output_opc

; 1272 :           if (!comprdsp) CodeInfo->tuple = 0;

	test	r8b, r8b
	jne	SHORT $LN526@output_opc
	mov	BYTE PTR [rdi+140], r8b
$LN526@output_opc:

; 1273 :           if (CodeInfo->indexreg != 0xFF){

	cmp	BYTE PTR [rdi+112], 255			; 000000ffH
	je	SHORT $LN527@output_opc

; 1274 :             c = CodeInfo->indexreg;
; 1275 :             c = (c &= 0x07) << 3;
; 1276 :             CodeInfo->sib |= c;
; 1277 :             c = CodeInfo->basereg;
; 1278 :             c &= 0x7;
; 1279 :             CodeInfo->sib |= c;
; 1280 :             CodeInfo->sib = 0xf0;

	mov	BYTE PTR [rdi+105], 240			; 000000f0H

; 1281 :             tmp |= RM_SIB;

	or	bl, 4
$LN527@output_opc:

; 1282 :           }
; 1283 :           CodeInfo->rm_byte = tmp;

	mov	BYTE PTR [rdi+104], bl
$LN525@output_opc:

; 1284 :         }
; 1285 :         if (CodeInfo->token == T_BLSMSK){

	cmp	eax, 1676				; 0000068cH
	jne	SHORT $LN528@output_opc

; 1286 :               tmp &= ~0x38;

	and	bl, 215					; 000000d7H

; 1287 :               tmp |= 0x10;

	or	bl, 16
$LN528@output_opc:

; 1288 :             }
; 1289 :         if (CodeInfo->token == T_BLSR){

	cmp	eax, 1677				; 0000068dH
	jne	SHORT $LN529@output_opc

; 1290 :               tmp &= ~0x38;

	and	bl, 207					; 000000cfH

; 1291 :               tmp |= 0x08;

	or	bl, 8
$LN529@output_opc:

; 1292 :             }
; 1293 :         OutputCodeByte( tmp );

	movzx	ecx, bl
	call	OutputByte

; 1294 :         if( ( CodeInfo->Ofssize == USE16 && CodeInfo->prefix.adrsiz == 0 ) ||

	movzx	eax, BYTE PTR [rdi+106]
	test	al, al
	jne	SHORT $LN532@output_opc
	test	BYTE PTR [rdi+9], r13b
	je	SHORT $LN19@output_opc
$LN532@output_opc:
	cmp	al, r13b
	jne	SHORT $LN530@output_opc
	test	BYTE PTR [rdi+9], r13b
	jne	SHORT $LN19@output_opc
$LN530@output_opc:

; 1295 :            ( CodeInfo->Ofssize == USE32 && CodeInfo->prefix.adrsiz == 1 ) )
; 1296 :             return; /* no SIB for 16bit */
; 1297 : 
; 1298 :         switch ( tmp & NOT_BIT_345 ) {

	movzx	ecx, bl
	and	ecx, 199				; 000000c7H
	sub	ecx, 4
	je	SHORT $LN533@output_opc
	sub	ecx, 64					; 00000040H
	je	SHORT $LN533@output_opc
	cmp	ecx, 64					; 00000040H
	jne	SHORT $LN19@output_opc
$LN533@output_opc:

; 1299 :         case 0x04: /* mod = 00, r/m = 100, s-i-b is present */
; 1300 :         case 0x44: /* mod = 01, r/m = 100, s-i-b is present */
; 1301 :         case 0x84: /* mod = 10, r/m = 100, s-i-b is present */
; 1302 :             /* emit SIB byte; bits 7-6 = Scale, bits 5-3 = Index, bits 2-0 = Base */
; 1303 :           OutputCodeByte( CodeInfo->sib );

	movzx	ecx, BYTE PTR [rdi+105]
	jmp	SHORT $LN663@output_opc
$LN467@output_opc:

; 1106 :     case no_RM:
; 1107 :         OutputCodeByte( ins->opcode | CodeInfo->iswide );

	movzx	ecx, BYTE PTR [rdi+142]
	and	cl, r13b
$LN661@output_opc:
	or	cl, BYTE PTR [r15+8]
$LN663@output_opc:
	call	OutputByte
$LN19@output_opc:

; 1304 :         }
; 1305 :     }
; 1306 : 
; 1307 :     return;
; 1308 : }

	mov	rbx, QWORD PTR [rsp+96]
	mov	rbp, QWORD PTR [rsp+104]
	add	rsp, 32					; 00000020H
	pop	r15
	pop	r13
	pop	r12
	pop	rdi
	pop	rsi
	ret	0
	npad	3
$LN642@output_opc:
	DD	$LN47@output_opc
	DD	$LN49@output_opc
	DD	$LN51@output_opc
	DD	$LN53@output_opc
	DD	$LN56@output_opc
	DD	$LN55@output_opc
	DD	$LN2@output_opc
$LN641@output_opc:
	DB	0
	DB	1
	DB	2
	DB	3
	DB	6
	DB	4
	DB	6
	DB	6
	DB	6
	DB	6
	DB	6
	DB	6
	DB	6
	DB	6
	DB	6
	DB	6
	DB	6
	DB	6
	DB	6
	DB	6
	DB	5
	DB	4
	npad	2
$LN640@output_opc:
	DD	$LN63@output_opc
	DD	$LN61@output_opc
	DD	$LN62@output_opc
	DD	$LN4@output_opc
$LN639@output_opc:
	DB	0
	DB	3
	DB	3
	DB	3
	DB	3
	DB	3
	DB	3
	DB	3
	DB	3
	DB	3
	DB	3
	DB	3
	DB	3
	DB	1
	DB	2
	DB	0
	DB	3
	DB	3
	DB	3
	DB	3
	DB	1
	DB	1
	DB	2
	npad	1
$LN638@output_opc:
	DD	$LN73@output_opc
	DD	$LN75@output_opc
	DD	$LN74@output_opc
	DD	$LN6@output_opc
	DD	$LN6@output_opc
	DD	$LN6@output_opc
	DD	$LN6@output_opc
	DD	$LN73@output_opc
	DD	$LN73@output_opc
	DD	$LN75@output_opc
	DD	$LN74@output_opc
$LN637@output_opc:
	DD	$LN91@output_opc
	DD	$LN92@output_opc
	DD	$LN91@output_opc
	DD	$LN92@output_opc
	DD	$LN91@output_opc
	DD	$LN91@output_opc
	DD	$LN92@output_opc
$LN636@output_opc:
	DD	$LN463@output_opc
	DD	$LN12@output_opc
	DD	$LN12@output_opc
	DD	$LN12@output_opc
	DD	$LN12@output_opc
	DD	$LN12@output_opc
	DD	$LN464@output_opc
	DD	$LN465@output_opc
	DD	$LN464@output_opc
	DD	$LN465@output_opc
	DD	$LN464@output_opc
output_opc ENDP
_TEXT	ENDS
; Function compile flags: /Ogtpy
; File d:\hjwasm\hjwasm2.13.1s\hjwasm2.13.1s\codegen.c
_TEXT	SEGMENT
CodeInfo$ = 48
comprdsp$ = 56
d$ = 64
disp$ = 72
Check4CompDisp8 PROC

; 129  : {

$LN6:
	mov	QWORD PTR [rsp+8], rbx
	mov	QWORD PTR [rsp+16], rsi
	push	rdi
	sub	rsp, 32					; 00000020H
	mov	esi, r9d
	mov	rbx, r8
	mov	rdi, rdx

; 130  :     int_32 disp32           = disp;
; 131  :     uint_8 n;
; 132  :     int_32 disp8;
; 133  : 
; 134  :     n = GetByteDisp(CodeInfo);

	call	GetByteDisp

; 135  :     *d = n;

	movzx	ecx, al
	mov	DWORD PTR [rbx], ecx

; 136  :     if (n && !(disp32 & (n - 1))) {

	test	al, al
	je	SHORT $LN3@Check4Comp
	lea	eax, DWORD PTR [rcx-1]
	test	eax, esi
	jne	SHORT $LN3@Check4Comp

; 137  :         disp8 = disp32 / n;

	mov	eax, esi
	cdq
	idiv	ecx

; 138  :         /* if it fits in Disp8 */
; 139  :         if (disp8 >= -128 && disp8 <= 127) {

	lea	ecx, DWORD PTR [rax+128]
	cmp	ecx, 255				; 000000ffH
	ja	SHORT $LN3@Check4Comp

; 140  :             *comprdsp = disp8;

	mov	BYTE PTR [rdi], al

; 141  :             return TRUE;

	mov	al, 1

; 142  :         }
; 143  :     }
; 144  :     *comprdsp = 0;
; 145  :     return FALSE;
; 146  : }

	mov	rbx, QWORD PTR [rsp+48]
	mov	rsi, QWORD PTR [rsp+56]
	add	rsp, 32					; 00000020H
	pop	rdi
	ret	0
$LN3@Check4Comp:
	mov	rbx, QWORD PTR [rsp+48]
	xor	al, al
	mov	rsi, QWORD PTR [rsp+56]
	mov	BYTE PTR [rdi], 0
	add	rsp, 32					; 00000020H
	pop	rdi
	ret	0
Check4CompDisp8 ENDP
_TEXT	ENDS
; Function compile flags: /Ogtpy
; File d:\hjwasm\hjwasm2.13.1s\hjwasm2.13.1s\codegen.c
_TEXT	SEGMENT
fvarr$ = 0
duparr$ = 32
CodeInfo$ = 32
hvarr$ = 40
GetByteDisp PROC

; 67   : {

$LN20:
	push	rbp
	mov	rbp, rsp
	sub	rsp, 16

; 68   :     const uint_8 fvarr[2][2][3] = {{{16, 32, 64}, {4, 4, 4}},    // Full Vector (FV)
; 69   :                                   {{16, 32, 64}, {8, 8, 8}}};
; 70   :     const uint_8 hvarr[2][3]    =  {{8, 16, 32}, {4, 4, 4}};     // Half Vector (HV) 
; 71   :     const uint_8 duparr[3]      =   {8, 32, 64};                 // VMOVDDUP    (DUP)
; 72   :                                                   //RXBR00MM
; 73   :     uint_8 n = 0;
; 74   :     bool evexW            = (CodeInfo->evex_p1 & EVEX_P1WMASK) >> 7;
; 75   :     enum ttypes   tuple   = CodeInfo->pinstr->prefix & 0x1F;

	mov	rax, QWORD PTR [rcx+16]
	xor	dl, dl

; 76   :     bool evexB            = (CodeInfo->evex_p2 & EVEX_P2BMASK) >> 4;

	movzx	r9d, BYTE PTR [rcx+139]
	movzx	r10d, BYTE PTR [rcx+138]
	movzx	r11d, r9b
	shr	r11b, 4
	movzx	r8d, WORD PTR [rax+4]
	and	r11b, 1
	and	r8d, 31

; 77   :     uint_8  vctln         = (CodeInfo->evex_p2 & EVEX_P2LLMASK) >> 5;

	shr	r9b, 5
	shr	r10b, 7
	and	r9b, 3
	mov	DWORD PTR fvarr$[rbp-16], 71311376	; 04402010H
	mov	DWORD PTR fvarr$[rbp-12], 537920516	; 20100404H

; 78   :     
; 79   : 
; 80   :     switch(tuple) {

	lea	eax, DWORD PTR [r8-1]
	mov	DWORD PTR fvarr$[rbp-8], 134744128	; 08080840H
	mov	DWORD PTR hvarr$[rbp-16], 69210120	; 04201008H
	mov	WORD PTR hvarr$[rbp-12], 1028		; 00000404H
	mov	WORD PTR duparr$[rbp-16], 8200		; 00002008H
	mov	BYTE PTR duparr$[rbp-14], 64		; 00000040H
	cmp	eax, 19
	ja	$LN16@GetByteDis
	mov	QWORD PTR [rsp+48], rbx
	lea	rbx, OFFSET FLAT:__ImageBase
	cdqe
	mov	ecx, DWORD PTR $LN18@GetByteDis[rbx+rax*4]
	add	rcx, rbx
	mov	rbx, QWORD PTR [rsp+48]
	jmp	rcx
$LN4@GetByteDis:

; 81   :     case FV:         // Full Vector 
; 82   :         n = fvarr[evexW][evexB][vctln];

	movzx	eax, r11b
	movzx	ecx, r10b
	lea	rcx, QWORD PTR [rax+rcx*2]
	movzx	eax, r9b
	lea	rdx, QWORD PTR [rcx+rcx*2]
	lea	rcx, QWORD PTR fvarr$[rbp-16]
	add	rcx, rax
	movzx	edx, BYTE PTR [rcx+rdx]

; 119  :         break;
; 120  : 
; 121  :     default:
; 122  :         break;
; 123  :     }
; 124  :     return n;

	movzx	eax, dl

; 125  : }

	add	rsp, 16
	pop	rbp
	ret	0
$LN5@GetByteDis:

; 83   :         break;
; 84   :     case HV:        // Half Vector 
; 85   :         n = hvarr[evexB][vctln];

	movzx	eax, r11b
	lea	rcx, QWORD PTR hvarr$[rbp-16]
	lea	rdx, QWORD PTR [rax+rax*2]
	movzx	eax, r9b
	add	rcx, rax
	movzx	edx, BYTE PTR [rcx+rdx]

; 119  :         break;
; 120  : 
; 121  :     default:
; 122  :         break;
; 123  :     }
; 124  :     return n;

	movzx	eax, dl

; 125  : }

	add	rsp, 16
	pop	rbp
	ret	0
$LN6@GetByteDis:

; 86   :         break;
; 87   :     case FVM:       // Full Vector Mem
; 88   :         n = 1 << (vctln + 4);

	movzx	ecx, r9b
	mov	edx, 1
	add	ecx, 4
	shl	dl, cl

; 119  :         break;
; 120  : 
; 121  :     default:
; 122  :         break;
; 123  :     }
; 124  :     return n;

	movzx	eax, dl

; 125  : }

	add	rsp, 16
	pop	rbp
	ret	0
$LN7@GetByteDis:

; 89   :         break;
; 90   :     case T1S8:      // Tuple1 Scalar
; 91   :     case T1S16: 
; 92   :         n = tuple - T1S8 + 1;

	lea	edx, DWORD PTR [r8-3]

; 119  :         break;
; 120  : 
; 121  :     default:
; 122  :         break;
; 123  :     }
; 124  :     return n;

	movzx	eax, dl

; 125  : }

	add	rsp, 16
	pop	rbp
	ret	0
$LN8@GetByteDis:

; 93   :         break;
; 94   :     case T1S:
; 95   :         n = evexW ? 8 : 4;

	mov	edx, 8
	test	r10b, r10b
	mov	eax, 4
	cmovne	eax, edx
	movzx	edx, al

; 125  : }

	add	rsp, 16
	pop	rbp
	ret	0
$LN9@GetByteDis:

; 96   :         break;
; 97   :     case T1F32:    // Tuple1 Fixed
; 98   :     case T1F64:
; 99   :         n = (tuple == T1F32 ? 4 : 8);

	mov	eax, 4
	cmp	r8d, 7
	mov	edx, 8
	cmove	edx, eax

; 119  :         break;
; 120  : 
; 121  :     default:
; 122  :         break;
; 123  :     }
; 124  :     return n;

	movzx	eax, dl

; 125  : }

	add	rsp, 16
	pop	rbp
	ret	0
$LN10@GetByteDis:

; 100  :         break;
; 101  :     case T2:       // Tuple2
; 102  :     case T4:       // Tuple4
; 103  :     case T8:       // Tuple8
; 104  :         if (vctln + 7 <= (evexW + 5) + (tuple - T2 + 1))

	movzx	edx, r10b
	add	edx, r8d
	movzx	ecx, r9b
	add	ecx, 7
	lea	eax, DWORD PTR [rdx-5]
	cmp	ecx, eax
	jg	SHORT $LN11@GetByteDis

; 105  :             n = 0;

	xor	dl, dl

; 119  :         break;
; 120  : 
; 121  :     default:
; 122  :         break;
; 123  :     }
; 124  :     return n;

	movzx	eax, dl

; 125  : }

	add	rsp, 16
	pop	rbp
	ret	0
$LN11@GetByteDis:

; 106  :         else
; 107  :             n = 1 << (tuple - T2 + evexW + 3);

	lea	ecx, DWORD PTR [rdx-8]
	mov	edx, 1
	shl	dl, cl

; 119  :         break;
; 120  : 
; 121  :     default:
; 122  :         break;
; 123  :     }
; 124  :     return n;

	movzx	eax, dl

; 125  : }

	add	rsp, 16
	pop	rbp
	ret	0
$LN13@GetByteDis:

; 108  :         break;
; 109  :     case HVM:      // Half Mem
; 110  :     case QVM:      // QuarterMem
; 111  :     case OVM:      // OctMem
; 112  :         n = 1 << (OVM - tuple + vctln + 1);

	movzx	ecx, r9b
	mov	edx, 1
	sub	ecx, r8d
	add	ecx, 17
	shl	dl, cl

; 119  :         break;
; 120  : 
; 121  :     default:
; 122  :         break;
; 123  :     }
; 124  :     return n;

	movzx	eax, dl

; 125  : }

	add	rsp, 16
	pop	rbp
	ret	0
$LN14@GetByteDis:

; 113  :         break;
; 114  :     case T128:     // Mem128
; 115  :         n = 16;

	mov	dl, 16

; 119  :         break;
; 120  : 
; 121  :     default:
; 122  :         break;
; 123  :     }
; 124  :     return n;

	movzx	eax, dl

; 125  : }

	add	rsp, 16
	pop	rbp
	ret	0
$LN15@GetByteDis:

; 116  :         break;
; 117  :     case DUP:      // MOVDDUP
; 118  :         n = duparr[vctln];

	movzx	eax, r9b
	movzx	edx, BYTE PTR duparr$[rbp+rax-16]
$LN16@GetByteDis:

; 119  :         break;
; 120  : 
; 121  :     default:
; 122  :         break;
; 123  :     }
; 124  :     return n;

	movzx	eax, dl

; 125  : }

	add	rsp, 16
	pop	rbp
	ret	0
	npad	3
$LN18@GetByteDis:
	DD	$LN4@GetByteDis
	DD	$LN5@GetByteDis
	DD	$LN6@GetByteDis
	DD	$LN7@GetByteDis
	DD	$LN7@GetByteDis
	DD	$LN8@GetByteDis
	DD	$LN9@GetByteDis
	DD	$LN16@GetByteDis
	DD	$LN16@GetByteDis
	DD	$LN9@GetByteDis
	DD	$LN10@GetByteDis
	DD	$LN10@GetByteDis
	DD	$LN10@GetByteDis
	DD	$LN13@GetByteDis
	DD	$LN13@GetByteDis
	DD	$LN13@GetByteDis
	DD	$LN14@GetByteDis
	DD	$LN16@GetByteDis
	DD	$LN16@GetByteDis
	DD	$LN15@GetByteDis
GetByteDisp ENDP
_TEXT	ENDS
; Function compile flags: /Ogtpy
; File d:\hjwasm\hjwasm2.13.1s\hjwasm2.13.1s\codegen.c
_TEXT	SEGMENT
CodeInfo$ = 48
oldofs$ = 56
codegen	PROC

; 1863 : {

$LN64:
	mov	QWORD PTR [rsp+24], rbx
	push	rsi
	sub	rsp, 32					; 00000020H

; 1864 :     ret_code           retcode = ERROR;
; 1865 :     enum operand_type  opnd1;
; 1866 :     enum operand_type  tbl_op1;
; 1867 :     /* privileged instructions ok? */
; 1868 :     if( ( CodeInfo->pinstr->cpu & P_PM ) > ( ModuleInfo.curr_cpu & P_PM ) ) {

	mov	r8, QWORD PTR [rcx+16]
	or	r10d, -1
	mov	esi, edx
	mov	rbx, rcx
	movzx	r9d, WORD PTR [r8+6]
	mov	r8d, DWORD PTR ModuleInfo+392
	and	r9d, 8
	and	r8d, 8
	cmp	r9b, r8b
	jle	SHORT $LN7@codegen

; 1869 :         EmitError( INSTRUCTION_OR_REGISTER_NOT_ACCEPTED_IN_CURRENT_CPU_MODE );

	lea	ecx, QWORD PTR [r10+31]
	call	EmitError

; 1870 :         return( ERROR );

	or	eax, -1

; 1964 : }

	mov	rbx, QWORD PTR [rsp+64]
	add	rsp, 32					; 00000020H
	pop	rsi
	ret	0
$LN7@codegen:
	mov	QWORD PTR [rsp+48], rdi

; 1871 :     }
; 1872 :     opnd1 = CodeInfo->opnd[OPND1].type;

	mov	edi, DWORD PTR [rcx+32]
	mov	QWORD PTR [rsp+56], r14

; 1873 :     /* if first operand is immediate data, set compatible flags */
; 1874 :     if( opnd1 & OP_I ) {

	test	edi, 917504				; 000e0000H
	je	SHORT $LN11@codegen

; 1875 :         if( opnd1 == OP_I8 ) {

	cmp	edi, 131072				; 00020000H
	jne	SHORT $LN9@codegen

; 1876 :             opnd1 = OP_IGE8;

	mov	edi, 917504				; 000e0000H
	jmp	SHORT $LN11@codegen
$LN9@codegen:

; 1877 :         } else if( opnd1 == OP_I16 ) {

	cmp	edi, 262144				; 00040000H
	mov	eax, 786432				; 000c0000H
	cmove	edi, eax
$LN11@codegen:

; 1878 :             opnd1 = OP_IGE16;
; 1879 :         }
; 1880 :     }
; 1881 : 
; 1882 : #if AVXSUPP 
; 1883 :     if (CodeInfo->token >= VEX_START){

	movsxd	rdx, DWORD PTR [rcx+24]
	lea	r14, OFFSET FLAT:__ImageBase
	cmp	edx, 1291				; 0000050bH
	jl	$LL4@codegen

; 1884 :       if (vex_flags[CodeInfo->token - VEX_START] & VX_L)  {

	movzx	ecx, BYTE PTR vex_flags[rdx+r14-1291]
	test	cl, 1
	je	SHORT $LN19@codegen

; 1885 :       if (opnd1 & (OP_K | OP_ZMM | OP_YMM | OP_M256 | OP_M512)) {

	test	edi, 805306816				; 300001c0H
	je	SHORT $LN19@codegen

; 1886 :         if (CodeInfo->opnd[OPND2].type & OP_XMM && !(vex_flags[CodeInfo->token - VEX_START] & VX_HALF)) {

	test	BYTE PTR [rbx+56], 32			; 00000020H
	je	SHORT $LN15@codegen
	test	cl, 32					; 00000020H
	jne	SHORT $LN15@codegen

; 1887 :           EmitErr(INVALID_INSTRUCTION_OPERANDS);

	mov	ecx, 49					; 00000031H
	call	EmitErr

; 1888 :           return(ERROR);

	jmp	$LN62@codegen
$LN15@codegen:
	lea	eax, DWORD PTR [rdx-1294]
	cmp	eax, 3
	jbe	SHORT $LN19@codegen
	mov	ecx, edi
	mov	eax, edi

; 1889 :         }
; 1890 :         if ((CodeInfo->token >= T_VPBROADCASTB) && (CodeInfo->token <= T_VPBROADCASTQ))
; 1891 :           ;
; 1892 :         else if (opnd1 & OP_YMM || opnd1 & OP_K || opnd1 & OP_ZMM)
; 1893 :           opnd1 |= OP_XMM;
; 1894 :         else
; 1895 :           opnd1 |= OP_M128;

	bts	ecx, 27
	or	edi, 32					; 00000020H
	test	eax, 448				; 000001c0H
	cmove	edi, ecx
$LN19@codegen:
	lea	eax, DWORD PTR [rdx-1757]
	cmp	eax, 131				; 00000083H
	jbe	SHORT $LN22@codegen
	lea	eax, DWORD PTR [rdx-1446]
	cmp	eax, 189				; 000000bdH
	jbe	SHORT $LN22@codegen
	lea	eax, DWORD PTR [rdx-2010]
	cmp	eax, 70					; 00000046H
	jbe	SHORT $LN22@codegen
	lea	eax, DWORD PTR [rdx-1294]
	cmp	eax, 45					; 0000002dH
	ja	SHORT $LN51@codegen
	mov	rcx, 69269232558079			; 00003f0000001fffH
	bt	rcx, rax
	jb	SHORT $LN22@codegen
$LN51@codegen:
	lea	eax, DWORD PTR [rdx-1427]
	cmp	eax, 1
	jbe	SHORT $LN22@codegen
	lea	eax, DWORD PTR [rdx-1642]
	cmp	eax, 4
	ja	SHORT $LL4@codegen
$LN22@codegen:

; 1896 :       }
; 1897 :       }
; 1898 :       /* Here is probably possible to find better solution     */
; 1899 :       if ((CodeInfo->token >= T_VCMPPD && CodeInfo->token <= T_VCMPTRUE_USSS) ||     //1754        1885                  
; 1900 :         (CodeInfo->token >= T_VPCMPD) && (CodeInfo->token <= T_VINSERTI64x4) ||          //1446        1635         
; 1901 :         (CodeInfo->token >= T_VPMOVSXBD) && (CodeInfo->token <= T_VUNPCKLPS) ||        //2007        2077            
; 1902 :         (CodeInfo->token >= T_VPBROADCASTB && CodeInfo->token <= T_VBROADCASTF64x4) || //1294        1306
; 1903 :         (CodeInfo->token == T_VCVTPS2PH) || (CodeInfo->token == T_VCVTPH2PS) ||          //1428        1427
; 1904 :         (CodeInfo->token == T_VMOVDDUP) ||                                             //1339        
; 1905 :         (CodeInfo->token >= T_VDBPSADBW) && (CodeInfo->token <= T_VFPCLASSSS) ||         //1642        1646
; 1906 :         (CodeInfo->token >= T_VCVTPD2DQ) && (CodeInfo->token <= T_VMOVDDUP))            //1334        1339 
; 1907 :         opnd1 |= OP_XMM;

	or	edi, 32					; 00000020H
	npad	9
$LL4@codegen:

; 1908 :     }
; 1909 : #endif
; 1910 : 
; 1911 : #if AMD64_SUPPORT
; 1912 :     DebugMsg1(("codegen(ofs=%X): %s opnd1=%X codeinfo: ofssize=%u wide=%u rm=%Xh sib=%Xh rex=%Xh opsiz=%u\n",
; 1913 :                CurrSeg->sym.offset, GetResWName( CodeInfo->token, NULL ),
; 1914 :                opnd1, CodeInfo->Ofssize, CodeInfo->iswide,
; 1915 :                CodeInfo->rm_byte, CodeInfo->sib,
; 1916 :                CodeInfo->prefix.rex, CodeInfo->prefix.opsiz ));
; 1917 : #endif
; 1918 :     /* scan the instruction table for a matching first operand */
; 1919 :     do  {
; 1920 :         tbl_op1 = opnd_clstab[CodeInfo->pinstr->opclsidx].opnd_type[OPND1];

	mov	rax, QWORD PTR [rbx+16]
	movzx	ecx, BYTE PTR [rax]
	lea	rax, QWORD PTR [rcx+rcx*2]
	mov	edx, DWORD PTR opnd_clstab[r14+rax*4]

; 1921 : 
; 1922 :         //DebugMsg1(("codegen: table.op1=%X\n", tbl_op1 ));
; 1923 :         /* v2.06: simplified */
; 1924 :         if ( tbl_op1 == OP_NONE && opnd1 == OP_NONE ) {

	test	edx, edx
	jne	SHORT $LN28@codegen
	test	edi, edi
	je	$LN42@codegen
$LN28@codegen:

; 1929 :         } else if ( opnd1 & tbl_op1 ) {

	test	edx, edi
	je	SHORT $LN38@codegen
	lea	eax, DWORD PTR [rdx-262144]
	test	eax, -262145				; fffbffffH
	je	SHORT $LN32@codegen

; 1930 :             /* for immediate operands, the idata type has sometimes
; 1931 :              * to be modified in opnd_type[OPND1], to make output_data()
; 1932 :              * emit the correct number of bytes. */
; 1933 :             switch( tbl_op1 ) {

	cmp	edx, 4325377				; 00420001H
	je	SHORT $LN35@codegen
	cmp	edx, 5111808				; 004e0000H
	je	SHORT $LN33@codegen

; 1946 :                 }
; 1947 :                 break;
; 1948 :             default:
; 1949 :                 retcode = check_operand_2( CodeInfo, CodeInfo->opnd[OPND1].type );

	mov	edx, DWORD PTR [rbx+32]
	jmp	SHORT $LN32@codegen
$LN33@codegen:
	mov	eax, DWORD PTR [rbx+40]
	sub	eax, -128				; ffffffffffffff80H
	cmp	eax, 383				; 0000017fH
	ja	SHORT $LN5@codegen

; 1937 :                 break;
; 1938 :             case OP_I8_U: /* INT xx; OUT xx, AL */
; 1939 :                 if( CodeInfo->opnd[OPND1].data32l <= UCHAR_MAX && CodeInfo->opnd[OPND1].data32l >= SCHAR_MIN ) {
; 1940 :                     retcode = check_operand_2( CodeInfo, OP_I8 );

	mov	edx, 131072				; 00020000H

; 1941 :                 }
; 1942 :                 break;

	jmp	SHORT $LN32@codegen
$LN35@codegen:

; 1943 :             case OP_I_3: /* INT 3 */
; 1944 :                 if ( CodeInfo->opnd[OPND1].data32l == 3 ) {

	cmp	DWORD PTR [rbx+40], 3
	jne	SHORT $LN5@codegen

; 1945 :                     retcode = check_operand_2( CodeInfo, OP_NONE );

	xor	edx, edx
$LN32@codegen:

; 1934 :             case OP_I32: /* CALL, JMP, PUSHD */
; 1935 :             case OP_I16: /* CALL, JMP, RETx, ENTER, PUSHW */
; 1936 :                 retcode = check_operand_2( CodeInfo, tbl_op1 );

	mov	rcx, rbx
	call	check_operand_2
	mov	r10d, eax
$LN5@codegen:

; 1950 :                 break;
; 1951 :             }
; 1952 :             if( retcode == NOT_ERROR) {

	test	r10d, r10d
	je	SHORT $LN44@codegen
$LN38@codegen:

; 1953 :                 if ( CurrFile[LST] )
; 1954 :                     LstWrite( LSTTYPE_CODE, oldofs, NULL );
; 1955 :                 return( NOT_ERROR );
; 1956 :             }
; 1957 :         }
; 1958 :         CodeInfo->pinstr++;

	add	QWORD PTR [rbx+16], 10
	mov	rax, QWORD PTR [rbx+16]

; 1959 :     } while ( CodeInfo->pinstr->first == FALSE );

	test	BYTE PTR [rax+2], 8
	je	SHORT $LL4@codegen

; 1960 : 
; 1961 :     DebugMsg(("codegen: no matching format found\n"));
; 1962 :     EmitError( INVALID_INSTRUCTION_OPERANDS );

	mov	ecx, 49					; 00000031H
	call	EmitError
$LN62@codegen:

; 1963 :     return( ERROR );

	or	eax, -1
$LN61@codegen:
	mov	rdi, QWORD PTR [rsp+48]
	mov	r14, QWORD PTR [rsp+56]

; 1964 : }

	mov	rbx, QWORD PTR [rsp+64]
	add	rsp, 32					; 00000020H
	pop	rsi
	ret	0
$LN42@codegen:

; 1925 :             output_opc( CodeInfo );

	mov	rcx, rbx
	call	output_opc
$LN44@codegen:

; 1926 :             if ( CurrFile[LST] )

	cmp	QWORD PTR ModuleInfo+112, 0
	je	SHORT $LN39@codegen

; 1927 :                 LstWrite( LSTTYPE_CODE, oldofs, NULL );

	xor	r8d, r8d
	mov	edx, esi
	lea	ecx, QWORD PTR [r8+1]
	call	LstWrite
$LN39@codegen:

; 1928 :             return( NOT_ERROR );

	xor	eax, eax
	jmp	SHORT $LN61@codegen
codegen	ENDP
_TEXT	ENDS
END
