; Listing generated by Microsoft (R) Optimizing Compiler Version 19.00.23026.0 

include listing.inc

INCLUDELIB LIBCMT
INCLUDELIB OLDNAMES

_BSS	SEGMENT
$SG11609 DB	01H DUP (?)
$SG11760 DB	01H DUP (?)
_BSS	ENDS
_DATA	SEGMENT
COMM	decoflags:BYTE
COMM	broadflags:BYTE
_DATA	ENDS
_BSS	SEGMENT
$SG11143 DB	01H DUP (?)
_BSS	ENDS
_DATA	SEGMENT
$SG11074 DB	'rn-sae', 00H
	ORG $+1
$SG11077 DB	'rd-sae', 00H
	ORG $+1
$SG11080 DB	'ru-sae', 00H
	ORG $+1
$SG11083 DB	'rz-sae', 00H
	ORG $+1
$SG11086 DB	'sae', 00H
$SG11146 DB	'@@', 00H
_DATA	ENDS
PUBLIC	EvalOperand
PUBLIC	ExprEvalInit
PUBLIC	EmitConstError
PUBLIC	myatoi128
EXTRN	isalpha:PROC
EXTRN	_strupr:PROC
EXTRN	EmitErr:PROC
EXTRN	SymAlloc:PROC
EXTRN	SymLookup:PROC
EXTRN	SymFind:PROC
EXTRN	SizeFromMemtype:PROC
EXTRN	MemtypeFromSize:PROC
EXTRN	SizeFromRegister:PROC
EXTRN	sym_add_table:PROC
EXTRN	GetResWName:PROC
EXTRN	SetSymSegOfs:PROC
EXTRN	GetSymOfssize:PROC
EXTRN	DefineFlatGroup:PROC
EXTRN	GetStdAssumeEx:PROC
EXTRN	CreateTypeSymbol:PROC
EXTRN	SearchNameInStruct:PROC
EXTRN	GetAnonymousLabel:PROC
EXTRN	atofloat:PROC
EXTRN	Options:BYTE
EXTRN	ModuleInfo:BYTE
EXTRN	Parse_Pass:DWORD
EXTRN	SymTables:BYTE
EXTRN	SpecialTable:BYTE
EXTRN	CurrProc:QWORD
EXTRN	CurrStruct:QWORD
EXTRN	__ImageBase:BYTE
_BSS	SEGMENT
	ALIGN	8

thissym	DQ	01H DUP (?)
nullstruct DQ	01H DUP (?)
nullmbr	DQ	01H DUP (?)
fnEmitErr DQ	01H DUP (?)
_BSS	ENDS
pdata	SEGMENT
$pdata$EvalOperand DD imagerel $LN15
	DD	imagerel $LN15+220
	DD	imagerel $unwind$EvalOperand
$pdata$EmitConstError DD imagerel $LN7
	DD	imagerel $LN7+55
	DD	imagerel $unwind$EmitConstError
pdata	ENDS
;	COMDAT pdata
pdata	SEGMENT
$pdata$get_precedence DD imagerel get_precedence
	DD	imagerel get_precedence+268
	DD	imagerel $unwind$get_precedence
pdata	ENDS
pdata	SEGMENT
$pdata$myatoi128 DD imagerel $LN37
	DD	imagerel $LN37+104
	DD	imagerel $unwind$myatoi128
pdata	ENDS
;	COMDAT pdata
pdata	SEGMENT
$pdata$get_operand DD imagerel get_operand
	DD	imagerel get_operand+2316
	DD	imagerel $unwind$get_operand
pdata	ENDS
;	COMDAT pdata
pdata	SEGMENT
$pdata$ConstError DD imagerel ConstError
	DD	imagerel ConstError+53
	DD	imagerel $unwind$ConstError
pdata	ENDS
;	COMDAT pdata
pdata	SEGMENT
$pdata$invalid_operand DD imagerel invalid_operand
	DD	imagerel invalid_operand+49
	DD	imagerel $unwind$invalid_operand
pdata	ENDS
pdata	SEGMENT
$pdata$sizlen_op DD imagerel sizlen_op
	DD	imagerel sizlen_op+544
	DD	imagerel $unwind$sizlen_op
$pdata$type_op DD imagerel type_op
	DD	imagerel type_op+880
	DD	imagerel $unwind$type_op
$pdata$offset_op DD imagerel offset_op
	DD	imagerel offset_op+246
	DD	imagerel $unwind$offset_op
$pdata$low32_op DD imagerel low32_op
	DD	imagerel low32_op+222
	DD	imagerel $unwind$low32_op
$pdata$high32_op DD imagerel high32_op
	DD	imagerel high32_op+219
	DD	imagerel $unwind$high32_op
$pdata$this_op DD imagerel this_op
	DD	imagerel this_op+227
	DD	imagerel $unwind$this_op
$pdata$wimask_op DD imagerel wimask_op
	DD	imagerel wimask_op+239
	DD	imagerel $unwind$wimask_op
pdata	ENDS
;	COMDAT pdata
pdata	SEGMENT
$pdata$plus_op DD imagerel plus_op
	DD	imagerel plus_op+699
	DD	imagerel $unwind$plus_op
pdata	ENDS
;	COMDAT pdata
pdata	SEGMENT
$pdata$minus_op DD imagerel minus_op
	DD	imagerel minus_op+690
	DD	imagerel $unwind$minus_op
pdata	ENDS
;	COMDAT pdata
pdata	SEGMENT
$pdata$dot_op DD imagerel dot_op
	DD	imagerel dot_op+64
	DD	imagerel $unwind$dot_op
pdata	ENDS
;	COMDAT pdata
pdata	SEGMENT
$pdata$0$dot_op DD imagerel dot_op+64
	DD	imagerel dot_op+246
	DD	imagerel $chain$0$dot_op
pdata	ENDS
;	COMDAT pdata
pdata	SEGMENT
$pdata$2$dot_op DD imagerel dot_op+246
	DD	imagerel dot_op+301
	DD	imagerel $chain$2$dot_op
pdata	ENDS
;	COMDAT pdata
pdata	SEGMENT
$pdata$4$dot_op DD imagerel dot_op+301
	DD	imagerel dot_op+381
	DD	imagerel $chain$4$dot_op
pdata	ENDS
;	COMDAT pdata
pdata	SEGMENT
$pdata$6$dot_op DD imagerel dot_op+381
	DD	imagerel dot_op+476
	DD	imagerel $chain$6$dot_op
pdata	ENDS
;	COMDAT pdata
pdata	SEGMENT
$pdata$8$dot_op DD imagerel dot_op+476
	DD	imagerel dot_op+591
	DD	imagerel $chain$8$dot_op
pdata	ENDS
;	COMDAT pdata
pdata	SEGMENT
$pdata$10$dot_op DD imagerel dot_op+591
	DD	imagerel dot_op+731
	DD	imagerel $chain$10$dot_op
pdata	ENDS
;	COMDAT pdata
pdata	SEGMENT
$pdata$12$dot_op DD imagerel dot_op+731
	DD	imagerel dot_op+849
	DD	imagerel $chain$12$dot_op
pdata	ENDS
;	COMDAT pdata
pdata	SEGMENT
$pdata$14$dot_op DD imagerel dot_op+849
	DD	imagerel dot_op+884
	DD	imagerel $chain$14$dot_op
pdata	ENDS
;	COMDAT pdata
pdata	SEGMENT
$pdata$16$dot_op DD imagerel dot_op+884
	DD	imagerel dot_op+915
	DD	imagerel $chain$16$dot_op
pdata	ENDS
;	COMDAT pdata
pdata	SEGMENT
$pdata$18$dot_op DD imagerel dot_op+915
	DD	imagerel dot_op+944
	DD	imagerel $chain$18$dot_op
pdata	ENDS
;	COMDAT pdata
pdata	SEGMENT
$pdata$positive_op DD imagerel positive_op
	DD	imagerel positive_op+105
	DD	imagerel $unwind$positive_op
pdata	ENDS
;	COMDAT pdata
pdata	SEGMENT
$pdata$negative_op DD imagerel negative_op
	DD	imagerel negative_op+129
	DD	imagerel $unwind$negative_op
pdata	ENDS
;	COMDAT pdata
pdata	SEGMENT
$pdata$CheckAssume DD imagerel CheckAssume
	DD	imagerel CheckAssume+183
	DD	imagerel $unwind$CheckAssume
pdata	ENDS
;	COMDAT pdata
pdata	SEGMENT
$pdata$cmp_types DD imagerel cmp_types
	DD	imagerel cmp_types+42
	DD	imagerel $unwind$cmp_types
pdata	ENDS
;	COMDAT pdata
pdata	SEGMENT
$pdata$0$cmp_types DD imagerel cmp_types+42
	DD	imagerel cmp_types+131
	DD	imagerel $chain$0$cmp_types
pdata	ENDS
;	COMDAT pdata
pdata	SEGMENT
$pdata$1$cmp_types DD imagerel cmp_types+131
	DD	imagerel cmp_types+223
	DD	imagerel $chain$1$cmp_types
pdata	ENDS
;	COMDAT pdata
pdata	SEGMENT
$pdata$calculate DD imagerel calculate
	DD	imagerel calculate+94
	DD	imagerel $unwind$calculate
pdata	ENDS
;	COMDAT pdata
pdata	SEGMENT
$pdata$0$calculate DD imagerel calculate+94
	DD	imagerel calculate+2032
	DD	imagerel $chain$0$calculate
pdata	ENDS
;	COMDAT pdata
pdata	SEGMENT
$pdata$1$calculate DD imagerel calculate+2032
	DD	imagerel calculate+2200
	DD	imagerel $chain$1$calculate
pdata	ENDS
;	COMDAT pdata
pdata	SEGMENT
$pdata$2$calculate DD imagerel calculate+2200
	DD	imagerel calculate+2219
	DD	imagerel $chain$2$calculate
pdata	ENDS
;	COMDAT pdata
pdata	SEGMENT
$pdata$4$calculate DD imagerel calculate+2219
	DD	imagerel calculate+2354
	DD	imagerel $chain$4$calculate
pdata	ENDS
;	COMDAT pdata
pdata	SEGMENT
$pdata$5$calculate DD imagerel calculate+2354
	DD	imagerel calculate+2536
	DD	imagerel $chain$5$calculate
pdata	ENDS
;	COMDAT pdata
pdata	SEGMENT
$pdata$evaluate DD imagerel evaluate
	DD	imagerel evaluate+1100
	DD	imagerel $unwind$evaluate
pdata	ENDS
CONST	SEGMENT
unaryop	DQ	FLAT:low_op
	DQ	FLAT:high_op
	DQ	FLAT:lowword_op
	DQ	FLAT:highword_op
	DQ	FLAT:low32_op
	DQ	FLAT:high32_op
	DQ	FLAT:offset_op
	DQ	FLAT:offset_op
	DQ	FLAT:offset_op
	DQ	FLAT:offset_op
	DQ	FLAT:seg_op
	DQ	FLAT:opattr_op
	DQ	FLAT:opattr_op
	DQ	FLAT:sizlen_op
	DQ	FLAT:sizlen_op
	DQ	FLAT:sizlen_op
	DQ	FLAT:sizlen_op
	DQ	FLAT:short_op
	DQ	FLAT:this_op
	DQ	FLAT:type_op
	DQ	FLAT:wimask_op
	DQ	FLAT:wimask_op
CONST	ENDS
;	COMDAT xdata
xdata	SEGMENT
$unwind$evaluate DD 072301H
	DD	01b3423H
	DD	0160123H
	DD	060167017H
	DD	05015H
xdata	ENDS
;	COMDAT xdata
xdata	SEGMENT
$chain$5$calculate DD 020021H
	DD	0a5400H
	DD	imagerel calculate
	DD	imagerel calculate+94
	DD	imagerel $unwind$calculate
xdata	ENDS
;	COMDAT xdata
xdata	SEGMENT
$chain$4$calculate DD 040021H
	DD	0bf400H
	DD	0a5400H
	DD	imagerel calculate
	DD	imagerel calculate+94
	DD	imagerel $unwind$calculate
xdata	ENDS
;	COMDAT xdata
xdata	SEGMENT
$chain$2$calculate DD 021H
	DD	imagerel calculate+94
	DD	imagerel calculate+2032
	DD	imagerel $chain$0$calculate
xdata	ENDS
;	COMDAT xdata
xdata	SEGMENT
$chain$1$calculate DD 020521H
	DD	0bf405H
	DD	imagerel calculate+94
	DD	imagerel calculate+2032
	DD	imagerel $chain$0$calculate
xdata	ENDS
;	COMDAT xdata
xdata	SEGMENT
$chain$0$calculate DD 020521H
	DD	0a5405H
	DD	imagerel calculate
	DD	imagerel calculate+94
	DD	imagerel $unwind$calculate
xdata	ENDS
;	COMDAT xdata
xdata	SEGMENT
$unwind$calculate DD 060d01H
	DD	0c340dH
	DD	0e009520dH
	DD	060067007H
xdata	ENDS
;	COMDAT xdata
xdata	SEGMENT
$chain$1$cmp_types DD 021H
	DD	imagerel cmp_types
	DD	imagerel cmp_types+42
	DD	imagerel $unwind$cmp_types
xdata	ENDS
;	COMDAT xdata
xdata	SEGMENT
$chain$0$cmp_types DD 020521H
	DD	066405H
	DD	imagerel cmp_types
	DD	imagerel cmp_types+42
	DD	imagerel $unwind$cmp_types
xdata	ENDS
;	COMDAT xdata
xdata	SEGMENT
$unwind$cmp_types DD 060f01H
	DD	08540fH
	DD	07340fH
	DD	0700b320fH
xdata	ENDS
;	COMDAT xdata
xdata	SEGMENT
$unwind$CheckAssume DD 020601H
	DD	030023206H
xdata	ENDS
;	COMDAT xdata
xdata	SEGMENT
$unwind$negative_op DD 010401H
	DD	04204H
xdata	ENDS
;	COMDAT xdata
xdata	SEGMENT
$unwind$positive_op DD 010401H
	DD	04204H
xdata	ENDS
;	COMDAT xdata
xdata	SEGMENT
$chain$18$dot_op DD 020021H
	DD	066400H
	DD	imagerel dot_op
	DD	imagerel dot_op+64
	DD	imagerel $unwind$dot_op
xdata	ENDS
;	COMDAT xdata
xdata	SEGMENT
$chain$16$dot_op DD 020021H
	DD	066400H
	DD	imagerel dot_op
	DD	imagerel dot_op+64
	DD	imagerel $unwind$dot_op
xdata	ENDS
;	COMDAT xdata
xdata	SEGMENT
$chain$14$dot_op DD 020021H
	DD	066400H
	DD	imagerel dot_op
	DD	imagerel dot_op+64
	DD	imagerel $unwind$dot_op
xdata	ENDS
;	COMDAT xdata
xdata	SEGMENT
$chain$12$dot_op DD 020021H
	DD	066400H
	DD	imagerel dot_op
	DD	imagerel dot_op+64
	DD	imagerel $unwind$dot_op
xdata	ENDS
;	COMDAT xdata
xdata	SEGMENT
$chain$10$dot_op DD 020021H
	DD	066400H
	DD	imagerel dot_op
	DD	imagerel dot_op+64
	DD	imagerel $unwind$dot_op
xdata	ENDS
;	COMDAT xdata
xdata	SEGMENT
$chain$8$dot_op DD 020021H
	DD	066400H
	DD	imagerel dot_op
	DD	imagerel dot_op+64
	DD	imagerel $unwind$dot_op
xdata	ENDS
;	COMDAT xdata
xdata	SEGMENT
$chain$6$dot_op DD 020021H
	DD	066400H
	DD	imagerel dot_op
	DD	imagerel dot_op+64
	DD	imagerel $unwind$dot_op
xdata	ENDS
;	COMDAT xdata
xdata	SEGMENT
$chain$4$dot_op DD 020021H
	DD	066400H
	DD	imagerel dot_op
	DD	imagerel dot_op+64
	DD	imagerel $unwind$dot_op
xdata	ENDS
;	COMDAT xdata
xdata	SEGMENT
$chain$2$dot_op DD 020021H
	DD	066400H
	DD	imagerel dot_op
	DD	imagerel dot_op+64
	DD	imagerel $unwind$dot_op
xdata	ENDS
;	COMDAT xdata
xdata	SEGMENT
$chain$0$dot_op DD 020521H
	DD	066405H
	DD	imagerel dot_op
	DD	imagerel dot_op+64
	DD	imagerel $unwind$dot_op
xdata	ENDS
;	COMDAT xdata
xdata	SEGMENT
$unwind$dot_op DD 040a01H
	DD	07340aH
	DD	07006320aH
xdata	ENDS
;	COMDAT xdata
xdata	SEGMENT
$unwind$minus_op DD 010401H
	DD	04204H
xdata	ENDS
;	COMDAT xdata
xdata	SEGMENT
$unwind$plus_op DD 040a01H
	DD	06340aH
	DD	07006320aH
xdata	ENDS
;	COMDAT xdata
xdata	SEGMENT
$unwind$invalid_operand DD 020601H
	DD	030023206H
xdata	ENDS
;	COMDAT xdata
xdata	SEGMENT
$unwind$ConstError DD 010401H
	DD	04204H
xdata	ENDS
;	COMDAT xdata
xdata	SEGMENT
$unwind$get_operand DD 0c1c01H
	DD	0e641cH
	DD	0d541cH
	DD	0c341cH
	DD	0f018521cH
	DD	0d014e016H
	DD	07010c012H
xdata	ENDS
;	COMDAT xdata
xdata	SEGMENT
$unwind$get_precedence DD 010401H
	DD	04204H
xdata	ENDS
xdata	SEGMENT
$unwind$EvalOperand DD 040a01H
	DD	08340aH
	DD	07006520aH
$unwind$EmitConstError DD 010401H
	DD	04204H
$unwind$myatoi128 DD 020501H
	DD	013405H
$unwind$sizlen_op DD 040a01H
	DD	06340aH
	DD	07006320aH
$unwind$type_op DD 081401H
	DD	086414H
	DD	075414H
	DD	063414H
	DD	070103214H
$unwind$offset_op DD 020601H
	DD	030023206H
$unwind$low32_op DD 060f01H
	DD	09640fH
	DD	08340fH
	DD	0700b520fH
$unwind$high32_op DD 040a01H
	DD	08340aH
	DD	07006520aH
$unwind$this_op DD 040a01H
	DD	06340aH
	DD	07006320aH
$unwind$wimask_op DD 010401H
	DD	04204H
xdata	ENDS
; Function compile flags: /Ogtpy
; File d:\hjwasm\hjwasm2.13.1s\hjwasm2.13.1s\expreval.c
;	COMDAT is_expr_item
_TEXT	SEGMENT
item$ = 8
is_expr_item PROC					; COMDAT

; 3403 : {

	mov	rdx, rcx

; 3404 :     switch( item->token ) {

	movzx	ecx, BYTE PTR [rcx]
	sub	ecx, 1
	je	SHORT $LN6@is_expr_it
	sub	ecx, 2
	je	SHORT $LN13@is_expr_it
	sub	ecx, 4
	je	SHORT $LN11@is_expr_it
	cmp	ecx, 37					; 00000025H
	jne	$LN19@is_expr_it
$LN4@is_expr_it:

; 3425 :         }
; 3426 :         return( FALSE );

	xor	al, al

; 3447 : }

	ret	0
$LN11@is_expr_it:

; 3427 :     case T_RES_ID:
; 3428 :         if ( item->tokval == T_DUP ) /* DUP must terminate the expression */

	cmp	DWORD PTR [rdx+16], 259			; 00000103H
	je	SHORT $LN4@is_expr_it

; 3438 :             return( TRUE );
; 3439 :         }
; 3440 :         /* fall through. Other directives will end the expression */
; 3441 :     case T_COMMA:
; 3442 :     //case T_FLOAT: /* v2.05: floats are now handled */
; 3443 :     //case T_QUESTION_MARK: /* v2.08: no need to be handled here */
; 3444 :         return( FALSE );
; 3445 :     }
; 3446 :     return( TRUE );

	mov	al, 1

; 3447 : }

	ret	0
$LN13@is_expr_it:

; 3429 :             return( FALSE );
; 3430 :         break;
; 3431 :     case T_DIRECTIVE:
; 3432 :         /* PROC is converted to a type */
; 3433 :         if ( item->tokval == T_PROC ) {

	cmp	DWORD PTR [rdx+16], 428			; 000001acH
	jne	SHORT $LN4@is_expr_it

; 3434 :             item->token = T_STYPE;

	mov	BYTE PTR [rdx], 6

; 3435 :             /* v2.06: avoid to use ST_PROC */
; 3436 :             //item->bytval = ST_PROC;
; 3437 :             item->tokval = ( ( SIZE_CODEPTR & ( 1 << ModuleInfo.model ) ) ? T_FAR : T_NEAR );

	mov	eax, 1
	mov	ecx, DWORD PTR ModuleInfo+360
	shl	eax, cl
	test	al, 112					; 00000070H
	mov	eax, 0
	setne	al
	add	eax, 221				; 000000ddH
	mov	DWORD PTR [rdx+16], eax
	mov	al, 1

; 3447 : }

	ret	0
$LN6@is_expr_it:

; 3405 :     case T_INSTRUCTION:
; 3406 :         switch( item->tokval ) {

	mov	eax, DWORD PTR [rdx+16]
	add	eax, -501				; fffffe0bH
	cmp	eax, 75					; 0000004bH
	ja	SHORT $LN4@is_expr_it
	lea	r8, OFFSET FLAT:__ImageBase
	movzx	eax, BYTE PTR $LN17@is_expr_it[r8+rax]
	mov	ecx, DWORD PTR $LN18@is_expr_it[r8+rax*4]
	add	rcx, r8
	jmp	rcx
$LN7@is_expr_it:

; 3407 :         case T_SHL:
; 3408 :         case T_SHR:
; 3409 :             item->token = T_BINARY_OPERATOR;

	mov	WORD PTR [rdx], 2053			; 00000805H

; 3410 :             item->precedence = 8;
; 3411 :             return( TRUE );

	mov	al, 1

; 3447 : }

	ret	0
$LN8@is_expr_it:

; 3412 :         case T_NOT:
; 3413 :             item->token = T_UNARY_OPERATOR;

	mov	WORD PTR [rdx], 2820			; 00000b04H

; 3414 :             item->precedence = 11;
; 3415 :             return( TRUE );

	mov	al, 1

; 3447 : }

	ret	0
$LN9@is_expr_it:

; 3416 :         case T_AND:
; 3417 :             item->token = T_BINARY_OPERATOR;

	mov	WORD PTR [rdx], 3077			; 00000c05H

; 3418 :             item->precedence = 12;
; 3419 :             return( TRUE );

	mov	al, 1

; 3447 : }

	ret	0
$LN10@is_expr_it:

; 3420 :         case T_OR:
; 3421 :         case T_XOR:
; 3422 :             item->token = T_BINARY_OPERATOR;

	mov	WORD PTR [rdx], 3333			; 00000d05H
$LN19@is_expr_it:

; 3423 :             item->precedence = 13;
; 3424 :             return( TRUE );

	mov	al, 1

; 3447 : }

	ret	0
	npad	3
$LN18@is_expr_it:
	DD	$LN10@is_expr_it
	DD	$LN9@is_expr_it
	DD	$LN7@is_expr_it
	DD	$LN8@is_expr_it
	DD	$LN4@is_expr_it
$LN17@is_expr_it:
	DB	0
	DB	4
	DB	4
	DB	1
	DB	4
	DB	0
	DB	4
	DB	4
	DB	4
	DB	4
	DB	4
	DB	4
	DB	4
	DB	2
	DB	2
	DB	4
	DB	4
	DB	4
	DB	4
	DB	4
	DB	4
	DB	4
	DB	4
	DB	4
	DB	4
	DB	4
	DB	4
	DB	4
	DB	4
	DB	4
	DB	4
	DB	4
	DB	4
	DB	4
	DB	4
	DB	4
	DB	4
	DB	4
	DB	4
	DB	4
	DB	4
	DB	4
	DB	4
	DB	4
	DB	4
	DB	4
	DB	4
	DB	4
	DB	4
	DB	4
	DB	4
	DB	4
	DB	4
	DB	4
	DB	4
	DB	4
	DB	4
	DB	4
	DB	4
	DB	4
	DB	4
	DB	4
	DB	4
	DB	4
	DB	4
	DB	4
	DB	4
	DB	4
	DB	4
	DB	4
	DB	4
	DB	4
	DB	4
	DB	4
	DB	4
	DB	3
is_expr_item ENDP
_TEXT	ENDS
; Function compile flags: /Ogtpy
; File d:\hjwasm\hjwasm2.13.1s\hjwasm2.13.1s\expreval.c
;	COMDAT evaluate
_TEXT	SEGMENT
exp_token$1$ = 48
oper$1$ = 56
opnd2$1 = 64
opnd1$ = 208
i$ = 216
tokenarray$ = 224
end$ = 232
flags$ = 240
evaluate PROC						; COMDAT

; 3237 : {

	mov	QWORD PTR [rsp+16], rbx
	mov	DWORD PTR [rsp+32], r9d
	mov	QWORD PTR [rsp+24], r8
	mov	QWORD PTR [rsp+8], rcx
	push	rbp
	push	rsi
	push	rdi
	lea	rbp, QWORD PTR [rsp-63]
	sub	rsp, 176				; 000000b0H
	mov	r11, rcx

; 3238 :     ret_code rc = NOT_ERROR;

	xor	esi, esi

; 3239 :     unsigned char c;
; 3240 :     char *p;
; 3241 :     DebugMsg1(("%u evaluate(i=%d, end=%d, flags=%X) enter [opnd1: kind=%d type=%s]\n",
; 3242 :                ++evallvl, *i, end, flags, opnd1->kind, opnd1->type ? opnd1->type->name : "NULL" ));
; 3243 : 
; 3244 :     /* v2.07: this function has been "simplified".
; 3245 :      * it's ensured now that if any operator is involved
; 3246 :      * - including () and [] - then calculate() will be called.
; 3247 :      * v2.10: removed the 'return( ERROR )' branches, to make
; 3248 :      * OPATTR work better.
; 3249 :      * v2.10: loop changed from 'do {} while' to 'while () {}'.
; 3250 :      * v2.10: 'flags' argument contains "inside []" information.
; 3251 :      */
; 3252 : 
; 3253 :     /*
; 3254 :      * First token may be either an unary operator or an operand
; 3255 :      */
; 3256 :     if ( opnd1->kind == EXPR_EMPTY &&  !is_unary_op( tokenarray[*i].token ) ) {

	movzx	ecx, BYTE PTR flags$[rbp-113]
	mov	rbx, r8
	mov	rdi, rdx
	mov	r8, 45079976738832			; 0000290000000010H
	cmp	DWORD PTR [r11+60], -2
	jne	SHORT $LL2@evaluate
	movsxd	rax, DWORD PTR [rdx]
	shl	rax, 5
	movzx	edx, BYTE PTR [rax+rbx]
	cmp	dl, 45					; 0000002dH
	ja	SHORT $LN86@evaluate
	bt	r8, rdx
	jb	SHORT $LL2@evaluate
$LN86@evaluate:
	cmp	dl, 91					; 0000005bH
	je	SHORT $LL2@evaluate

; 3257 :         rc = get_operand( opnd1, i, tokenarray, flags );

	movzx	r9d, cl
	mov	r8, rbx
	mov	rcx, r11
	mov	rdx, rdi
	call	get_operand
	mov	esi, eax

; 3258 :     }
; 3259 :     /* now handle operators. */
; 3260 :     while ( rc == NOT_ERROR && *i < end && !IsCurrToken( T_CL_BRACKET ) && !IsCurrToken( T_CL_SQ_BRACKET ) ) {

	test	eax, eax
$LN119@evaluate:
	jne	$LN103@evaluate
	mov	r11, QWORD PTR opnd1$[rbp-113]
	mov	r9d, DWORD PTR end$[rbp-113]
$LL2@evaluate:
	movsxd	rdx, DWORD PTR [rdi]
	cmp	edx, r9d
	jge	$LN103@evaluate
	mov	rax, rdx
	shl	rax, 5
	movzx	ecx, BYTE PTR [rax+rbx]
	cmp	cl, 41					; 00000029H
	je	$LN103@evaluate
	cmp	cl, 93					; 0000005dH
	je	$LN103@evaluate

; 3261 : 
; 3262 :         int curr_operator;
; 3263 :         struct expr opnd2;
; 3264 : 
; 3265 :         curr_operator = *i;
; 3266 :         DebugMsg1(("%u evaluate loop, operator=>%s< opnd1->sym=%X, type=%s\n",
; 3267 :                    evallvl, tokenarray[curr_operator].string_ptr, opnd1->sym, (opnd1->type ? opnd1->type->name : "NULL") ));
; 3268 : 
; 3269 :         if ( opnd1->kind != EXPR_EMPTY ) {

	cmp	DWORD PTR [r11+60], -2
	je	SHORT $LN13@evaluate

; 3270 :             /* check operator behind operand. Must be binary or open bracket */
; 3271 :             if ( tokenarray[curr_operator].token == '+' || tokenarray[curr_operator].token == '-' )

	mov	r8, rdx
	shl	r8, 5
	movzx	ecx, BYTE PTR [r8+rbx]
	lea	eax, DWORD PTR [rcx-43]
	test	al, 253					; 000000fdH
	je	SHORT $LN12@evaluate
	cmp	cl, 5
	je	SHORT $LN13@evaluate
	cmp	cl, 40					; 00000028H
	jae	SHORT $LN13@evaluate

; 3273 :             else if( !is_operator( tokenarray[curr_operator].token ) || tokenarray[curr_operator].token == T_UNARY_OPERATOR ) {
; 3274 :                 DebugMsg(("%u evaluate: unexpected token at idx=%u, token=%X >%s<\n", evallvl, curr_operator, tokenarray[curr_operator].token, tokenarray[curr_operator].tokpos ));
; 3275 :                 rc = ERROR;

	or	esi, -1

; 3276 :                 //if ( !opnd2.is_opattr )  /* v2.11: opnd2 was accessed before initialization */
; 3277 :                 
; 3278 :                 if ( !opnd1->is_opattr )

	test	BYTE PTR [r11+76], 16
	jne	$LN103@evaluate

; 3279 :                     OperErr( curr_operator, tokenarray );

	cmp	cl, 12
	ja	$LN43@evaluate
	mov	ecx, 150				; 00000096H
	call	QWORD PTR fnEmitErr
	jmp	$LN103@evaluate
$LN12@evaluate:

; 3272 :                 tokenarray[curr_operator].specval = BINARY_PLUSMINUS;

	mov	BYTE PTR [r8+rbx+1], 1
$LN13@evaluate:

; 3280 :                 break;
; 3281 :             }
; 3282 :         }
; 3283 : 
; 3284 :         (*i)++;

	inc	DWORD PTR [rdi]

; 3285 : 
; 3286 :         init_expr( &opnd2 );

	xor	esi, esi

; 3287 :         PrepareOp( &opnd2, opnd1, &tokenarray[curr_operator] );

	mov	r8d, DWORD PTR [r11+76]
	xorps	xmm0, xmm0
	mov	BYTE PTR opnd2$1[rbp-37], sil
	mov	eax, r8d
	mov	ecx, DWORD PTR opnd2$1[rbp-37]
	mov	r10, rdx
	xor	eax, ecx
	shl	r10, 5
	and	eax, 16
	mov	QWORD PTR opnd2$1[rbp-113], rsi
	add	r10, rbx
	mov	QWORD PTR opnd2$1[rbp-105], rsi
	xor	ecx, eax
	movdqa	XMMWORD PTR opnd2$1[rbp-97], xmm0
	xorps	xmm1, xmm1
	mov	DWORD PTR opnd2$1[rbp-37], ecx
	movdqa	XMMWORD PTR opnd2$1[rbp-81], xmm1
	mov	QWORD PTR opnd2$1[rbp-65], rsi
	mov	DWORD PTR opnd2$1[rbp-57], -2
	mov	DWORD PTR opnd2$1[rbp-53], -2
	mov	DWORD PTR opnd2$1[rbp-49], 192		; 000000c0H
	mov	WORD PTR opnd2$1[rbp-45], 65024		; 0000fe00H
	movdqa	XMMWORD PTR opnd2$1[rbp-33], xmm0
	mov	QWORD PTR opnd2$1[rbp-17], rsi
	movzx	eax, BYTE PTR [r10]
	mov	QWORD PTR oper$1$[rbp-113], r10
	cmp	al, 4
	je	SHORT $LN57@evaluate
	cmp	al, 46					; 0000002eH
	jne	SHORT $LN51@evaluate
	mov	rax, QWORD PTR [r11+96]
	test	rax, rax
	je	SHORT $LN54@evaluate
	mov	QWORD PTR opnd2$1[rbp-17], rax
	bts	ecx, 7
	jmp	SHORT $LN116@evaluate
$LN54@evaluate:
	test	DWORD PTR ModuleInfo+408, 256		; 00000100H
	jne	SHORT $LN51@evaluate
	mov	rax, QWORD PTR [r11+80]
	test	rax, rax
	je	SHORT $LN51@evaluate
	cmp	DWORD PTR [rax+32], esi
	jne	SHORT $LN51@evaluate
	mov	QWORD PTR opnd2$1[rbp-17], rsi
	bts	ecx, 7
	jmp	SHORT $LN116@evaluate
$LN57@evaluate:
	mov	edx, DWORD PTR [r10+16]
	sub	edx, 229				; 000000e5H
	je	SHORT $LN58@evaluate
	cmp	edx, 13
	jne	SHORT $LN51@evaluate
$LN58@evaluate:
	or	ecx, 16
$LN116@evaluate:
	mov	DWORD PTR opnd2$1[rbp-37], ecx
$LN51@evaluate:

; 3288 : 
; 3289 :         /* read the (next) operand.
; 3290 :          */
; 3291 : 
; 3292 :         if( tokenarray[curr_operator].token == T_OP_BRACKET ||

	movzx	eax, BYTE PTR [r10]
	cmp	al, 40					; 00000028H
	je	SHORT $LN19@evaluate
	cmp	al, 91					; 0000005bH
	je	SHORT $LN19@evaluate

; 3322 :             }
; 3323 : 
; 3324 :         } else if( is_unary_op( tokenarray[*i].token ) ) { /* brackets, +, -, T_UNARY_OPERATOR? */

	movsxd	rax, DWORD PTR [rdi]
	shl	rax, 5
	movzx	ecx, BYTE PTR [rax+rbx]
	cmp	cl, 45					; 0000002dH
	ja	SHORT $LN91@evaluate
	mov	rdx, 45079976738832			; 0000290000000010H
	bt	rdx, rcx
	jb	SHORT $LN29@evaluate
$LN91@evaluate:
	cmp	cl, 91					; 0000005bH
	je	SHORT $LN29@evaluate

; 3327 :             /* get either:
; 3328 :              * - operand of unary operator OR
; 3329 :              * - 2. operand of binary operator
; 3330 :              */
; 3331 :             rc = get_operand( &opnd2, i, tokenarray, flags );

	movzx	r9d, BYTE PTR flags$[rbp-113]
	lea	rcx, QWORD PTR opnd2$1[rbp-113]
	mov	r8, rbx
	mov	rdx, rdi
	call	get_operand
	mov	esi, eax
	jmp	$LN24@evaluate
$LN29@evaluate:

; 3325 :             rc = evaluate( &opnd2, i, tokenarray, end, flags | EXPF_ONEOPND );

	movzx	eax, BYTE PTR flags$[rbp-113]
	lea	rcx, QWORD PTR opnd2$1[rbp-113]
	or	al, 4
	mov	r8, rbx
	mov	rdx, rdi
	mov	BYTE PTR [rsp+32], al
	call	evaluate
	mov	esi, eax

; 3326 :         } else {

	jmp	$LN24@evaluate
$LN19@evaluate:

; 3293 :            tokenarray[curr_operator].token == T_OP_SQ_BRACKET ) {
; 3294 :             int exp_token = T_CL_BRACKET;

	mov	edx, 41					; 00000029H
	mov	DWORD PTR exp_token$1$[rbp-113], edx

; 3295 :             if( tokenarray[curr_operator].token == T_OP_SQ_BRACKET ) {

	cmp	al, 91					; 0000005bH
	jne	SHORT $LN20@evaluate

; 3296 :                 exp_token = T_CL_SQ_BRACKET;

	mov	edx, 93					; 0000005dH
	mov	DWORD PTR exp_token$1$[rbp-113], edx
	jmp	SHORT $LN22@evaluate
$LN20@evaluate:

; 3297 : #if 1 /* v2.10: slightly hackish; see regression test dotop5.asm */
; 3298 :             } else if ( opnd1->is_dot ) {

	test	r8b, r8b
	jns	SHORT $LN22@evaluate

; 3299 :                 opnd2.type = opnd1->type;

	mov	rax, QWORD PTR [r11+96]

; 3300 :                 opnd2.is_dot = TRUE;

	bts	ecx, 7
	mov	QWORD PTR opnd2$1[rbp-17], rax
	mov	DWORD PTR opnd2$1[rbp-37], ecx
$LN22@evaluate:

; 3301 : #endif
; 3302 :             }
; 3303 : 
; 3304 :             rc = evaluate( &opnd2, i, tokenarray, end, ( flags | ( exp_token == T_CL_SQ_BRACKET ? EXPF_IN_SQBR : 0 ) ) & ~EXPF_ONEOPND );

	cmp	edx, 93					; 0000005dH
	mov	eax, esi
	mov	ecx, 8
	mov	r8, rbx
	cmove	eax, ecx
	mov	rdx, rdi
	or	al, BYTE PTR flags$[rbp-113]
	lea	rcx, QWORD PTR opnd2$1[rbp-113]
	and	al, 251					; 000000fbH
	mov	BYTE PTR [rsp+32], al
	call	evaluate

; 3305 : 
; 3306 :             if( !IsCurrToken( exp_token ) ) {

	movsxd	rcx, DWORD PTR [rdi]
	mov	esi, eax
	mov	rax, rcx
	shl	rax, 5
	movzx	eax, BYTE PTR [rax+rbx]
	cmp	eax, DWORD PTR exp_token$1$[rbp-113]
	je	SHORT $LN23@evaluate

; 3307 :                 DebugMsg(("%u evaluate: error, missing '%c', i=%u\n", evallvl, exp_token, *i ));
; 3308 :                 if ( rc != ERROR ) {

	cmp	esi, -1
	je	SHORT $LN26@evaluate

; 3309 :                     fnEmitErr( MISSING_RIGHT_PARENTHESIS_IN_EXPRESSION );

	mov	ecx, 227				; 000000e3H
	call	QWORD PTR fnEmitErr

; 3310 :                     /* v2.12: if curr token is a comma, the intention might be to call a macro function
; 3311 :                      * - using an undefined ( or not yet defined ) macro. The problem is that the name
; 3312 :                      * of this undefined macro isn't displayed in pass one, making it hard to see the
; 3313 :                      * reason for the error msg. However, if a comma is found, then it's surely no valid
; 3314 :                      * expression - in this case an "undefined symbol" err msg may be helpful.
; 3315 :                      */
; 3316 :                     if ( IsCurrToken( T_COMMA ) && opnd1->sym && opnd1->sym->state == SYM_UNDEFINED )

	movsxd	rax, DWORD PTR [rdi]
	shl	rax, 5
	cmp	BYTE PTR [rax+rbx], 44			; 0000002cH
	jne	SHORT $LN26@evaluate
	mov	rdx, QWORD PTR opnd1$[rbp-113]
	mov	rdx, QWORD PTR [rdx+80]
	test	rdx, rdx
	je	SHORT $LN26@evaluate
	cmp	DWORD PTR [rdx+32], 0
	jne	SHORT $LN26@evaluate

; 3317 :                         fnEmitErr( SYMBOL_NOT_DEFINED, opnd1->sym->name );

	mov	rdx, QWORD PTR [rdx+8]
	mov	ecx, 102				; 00000066H
	call	QWORD PTR fnEmitErr
$LN26@evaluate:

; 3318 :                 }
; 3319 :                 rc = ERROR;

	or	esi, -1

; 3320 :             } else {

	jmp	$LN110@evaluate
$LN23@evaluate:

; 3321 :                 (*i)++;

	lea	eax, DWORD PTR [rcx+1]
	mov	DWORD PTR [rdi], eax
$LN24@evaluate:

; 3332 :         }
; 3333 : 
; 3334 :         /*
; 3335 :          * parse expression until either the end or an operator with a higher priority is found.
; 3336 :          */
; 3337 : 
; 3338 :         while( rc != ERROR && *i < end && !IsCurrToken( T_CL_BRACKET ) && !IsCurrToken( T_CL_SQ_BRACKET ) ) {

	cmp	esi, -1
	je	$LN110@evaluate
	npad	11
$LL4@evaluate:
	movsxd	rax, DWORD PTR [rdi]
	cmp	eax, DWORD PTR end$[rbp-113]
	jge	$LN62@evaluate
	shl	rax, 5
	lea	rdx, QWORD PTR [rax+rbx]
	movzx	eax, BYTE PTR [rax+rbx]
	cmp	al, 41					; 00000029H
	je	$LN62@evaluate
	cmp	al, 93					; 0000005dH
	je	$LN62@evaluate
	lea	ecx, DWORD PTR [rax-43]
	test	cl, 253					; 000000fdH
	je	SHORT $LN32@evaluate
	cmp	al, 5
	je	SHORT $LN33@evaluate
	cmp	al, 40					; 00000028H
	jae	SHORT $LN33@evaluate

; 3342 :             else if( !is_operator( tokenarray[*i].token ) || tokenarray[*i].token == T_UNARY_OPERATOR ) {
; 3343 :                 DebugMsg(("%u evaluate: unexpected token at %u, token=%X >%s<\n", evallvl, *i, tokenarray[*i].token, tokenarray[*i].tokpos ));
; 3344 :                 rc = ERROR;

	or	esi, -1

; 3345 :                 if ( !opnd2.is_opattr ) /* don't emit error if expression is OPATTR operand */

	test	BYTE PTR opnd2$1[rbp-37], 16
	jne	$LN118@evaluate

; 3346 :                     OperErr( *i, tokenarray );

	movsxd	rdx, DWORD PTR [rdi]
	shl	rdx, 5
	cmp	BYTE PTR [rdx+rbx], 12
	ja	SHORT $LN61@evaluate
	mov	ecx, 150				; 00000096H
	call	QWORD PTR fnEmitErr
	jmp	SHORT $LN110@evaluate
$LN32@evaluate:

; 3339 :             
; 3340 :             if ( tokenarray[*i].token == '+' || tokenarray[*i].token == '-' )
; 3341 :                 tokenarray[*i].specval = BINARY_PLUSMINUS;

	mov	BYTE PTR [rdx+1], 1
$LN33@evaluate:

; 3347 :                 break;
; 3348 :             }
; 3349 : 
; 3350 :             if( get_precedence( &tokenarray[*i] ) >= get_precedence( &tokenarray[curr_operator] ) )

	movsxd	rcx, DWORD PTR [rdi]
	shl	rcx, 5
	add	rcx, rbx
	call	get_precedence
	mov	rcx, QWORD PTR oper$1$[rbp-113]
	mov	ebx, eax
	call	get_precedence
	cmp	ebx, eax

; 3351 :                 break;
; 3352 : 
; 3353 :             rc = evaluate( &opnd2, i, tokenarray, end, flags | EXPF_ONEOPND );

	mov	rbx, QWORD PTR tokenarray$[rbp-113]
	jge	SHORT $LN62@evaluate
	movzx	eax, BYTE PTR flags$[rbp-113]
	lea	rcx, QWORD PTR opnd2$1[rbp-113]
	mov	r9d, DWORD PTR end$[rbp-113]
	or	al, 4
	mov	r8, rbx
	mov	BYTE PTR [rsp+32], al
	mov	rdx, rdi
	call	evaluate
	mov	esi, eax
	cmp	eax, -1
	jne	$LL4@evaluate

; 3332 :         }
; 3333 : 
; 3334 :         /*
; 3335 :          * parse expression until either the end or an operator with a higher priority is found.
; 3336 :          */
; 3337 : 
; 3338 :         while( rc != ERROR && *i < end && !IsCurrToken( T_CL_BRACKET ) && !IsCurrToken( T_CL_SQ_BRACKET ) ) {

	jmp	SHORT $LN110@evaluate

; 3346 :                     OperErr( *i, tokenarray );

$LN61@evaluate:
	mov	rdx, QWORD PTR [rdx+rbx+8]
	mov	ecx, 209				; 000000d1H
	call	QWORD PTR fnEmitErr

; 3354 : 
; 3355 :         }
; 3356 : 
; 3357 :         /* v2.10: OPATTR special handling */
; 3358 :         if ( rc == ERROR && opnd2.is_opattr ) {

	jmp	SHORT $LN110@evaluate

; 3346 :                     OperErr( *i, tokenarray );

$LN62@evaluate:

; 3354 : 
; 3355 :         }
; 3356 : 
; 3357 :         /* v2.10: OPATTR special handling */
; 3358 :         if ( rc == ERROR && opnd2.is_opattr ) {

	cmp	esi, -1
	jne	SHORT $LN77@evaluate
$LN110@evaluate:
	test	BYTE PTR opnd2$1[rbp-37], 16
	je	SHORT $LN38@evaluate
$LN118@evaluate:

; 3359 :             /* skip tokens until the end */
; 3360 :             while( *i < end && !IsCurrToken( T_CL_BRACKET ) && !IsCurrToken( T_CL_SQ_BRACKET ) ) {

	mov	r8d, DWORD PTR end$[rbp-113]
	cmp	DWORD PTR [rdi], r8d
	jge	SHORT $LN111@evaluate
	npad	11
$LL6@evaluate:
	movsxd	rdx, DWORD PTR [rdi]
	mov	rax, rdx
	shl	rax, 5
	movzx	ecx, BYTE PTR [rax+rbx]
	cmp	cl, 41					; 00000029H
	je	SHORT $LN111@evaluate
	cmp	cl, 93					; 0000005dH
	je	SHORT $LN111@evaluate

; 3361 :                 (*i)++;

	lea	eax, DWORD PTR [rdx+1]
	mov	DWORD PTR [rdi], eax
	cmp	eax, r8d
	jl	SHORT $LL6@evaluate
$LN111@evaluate:

; 3362 :             }
; 3363 :             opnd2.kind = EXPR_EMPTY;

	mov	DWORD PTR opnd2$1[rbp-53], -2

; 3364 :             rc = NOT_ERROR;
; 3365 :         }
; 3366 :         if( rc != ERROR )

	jmp	SHORT $LN77@evaluate
$LN38@evaluate:
	cmp	esi, -1
	je	SHORT $LN39@evaluate
$LN77@evaluate:

; 3367 :             rc = calculate( opnd1, &opnd2, &tokenarray[curr_operator] );

	mov	r8, QWORD PTR oper$1$[rbp-113]
	lea	rdx, QWORD PTR opnd2$1[rbp-113]
	mov	rcx, QWORD PTR opnd1$[rbp-113]
	call	calculate
	mov	esi, eax
$LN39@evaluate:

; 3368 : 
; 3369 :         if( flags & EXPF_ONEOPND ) /* stop after one operand? */

	movzx	ecx, BYTE PTR flags$[rbp-113]
	test	cl, 4
	jne	SHORT $LN103@evaluate

; 3258 :     }
; 3259 :     /* now handle operators. */
; 3260 :     while ( rc == NOT_ERROR && *i < end && !IsCurrToken( T_CL_BRACKET ) && !IsCurrToken( T_CL_SQ_BRACKET ) ) {

	test	esi, esi
	jmp	$LN119@evaluate

; 3279 :                     OperErr( curr_operator, tokenarray );

$LN43@evaluate:
	shl	rdx, 5
	mov	ecx, 209				; 000000d1H
	mov	rdx, QWORD PTR [rdx+rbx+8]
	call	QWORD PTR fnEmitErr
$LN103@evaluate:

; 3370 :             break;
; 3371 :     }
; 3372 : 
; 3373 : #ifdef DEBUG_OUT
; 3374 :     if ( opnd1->hvalue != -1 && opnd1->hvalue != 0 ) {
; 3375 :         DebugMsg1(("%u evaluate exit, rc=%d, kind=%d value=%" I64_SPEC "d(0x%" I64_SPEC "X) memtype=%Xh string=%s indirect=%u type=>%s<\n",
; 3376 :                    evallvl--, rc, opnd1->kind, opnd1->llvalue, opnd1->llvalue, opnd1->mem_type,
; 3377 :                    opnd1->quoted_string ? opnd1->quoted_string->string_ptr : "NULL",
; 3378 :                    opnd1->indirect,
; 3379 :                    opnd1->type ? opnd1->type->name : "NULL" ));
; 3380 :     } else {
; 3381 :         DebugMsg1(("%u evaluate exit, rc=%d, kind=%d value=%" I32_SPEC "d(0x%" I32_SPEC "X) memtype=%Xh string=%s ind=%u exp=%u ofssiz=%d instr=%s type=>%s<\n",
; 3382 :                    evallvl--, rc, opnd1->kind, opnd1->value, opnd1->value, opnd1->mem_type,
; 3383 :                    opnd1->quoted_string ? opnd1->quoted_string->string_ptr : "NULL",
; 3384 :                    opnd1->indirect, opnd1->explicit, opnd1->Ofssize,
; 3385 :                    opnd1->instr == EMPTY ? "" : GetResWName( opnd1->instr, NULL ),
; 3386 :                    opnd1->type ? opnd1->type->name : "NULL" ));
; 3387 :     }
; 3388 : #endif
; 3389 :     return( rc );

	mov	eax, esi

; 3390 : }

	mov	rbx, QWORD PTR [rsp+216]
	add	rsp, 176				; 000000b0H
	pop	rdi
	pop	rsi
	pop	rbp
	ret	0
evaluate ENDP
_TEXT	ENDS
; Function compile flags: /Ogtpy
; File d:\hjwasm\hjwasm2.13.1s\hjwasm2.13.1s\expreval.c
;	COMDAT OperErr
_TEXT	SEGMENT
i$ = 8
tokenarray$ = 16
OperErr	PROC						; COMDAT

; 3225 :     if ( tokenarray[i].token <= T_BAD_NUM ) {

	movsxd	rax, ecx
	shl	rax, 5
	cmp	BYTE PTR [rdx+rax], 12
	ja	SHORT $LN2@OperErr

; 3226 :         fnEmitErr( MISSING_OPERATOR_IN_EXPRESSION ); ERRLOC(i);

	mov	ecx, 150				; 00000096H
	rex_jmp	QWORD PTR fnEmitErr
$LN2@OperErr:

; 3227 :     } else
; 3228 :         fnEmitErr( SYNTAX_ERROR_EX, tokenarray[i].string_ptr );

	mov	rdx, QWORD PTR [rdx+rax+8]
	mov	ecx, 209				; 000000d1H
	rex_jmp	QWORD PTR fnEmitErr
OperErr	ENDP
_TEXT	ENDS
; Function compile flags: /Ogtpy
; File d:\hjwasm\hjwasm2.13.1s\hjwasm2.13.1s\expreval.c
;	COMDAT PrepareOp
_TEXT	SEGMENT
opnd$ = 8
old$ = 16
oper$ = 24
PrepareOp PROC						; COMDAT

; 3178 :     opnd->is_opattr = old->is_opattr;

	mov	eax, DWORD PTR [rdx+76]
	xor	eax, DWORD PTR [rcx+76]
	and	eax, 16
	xor	DWORD PTR [rcx+76], eax

; 3179 : 
; 3180 :     switch ( oper->token ) {

	movzx	eax, BYTE PTR [r8]
	cmp	al, 4
	je	SHORT $LN10@PrepareOp
	cmp	al, 46					; 0000002eH
	jne	SHORT $LN4@PrepareOp

; 3181 :     case T_DOT:
; 3182 :         DebugMsg(("PrepareOp: DOT operator found, old.sym=%X, old.type=%s, expr=%s\n", old->sym, (old->type ? old->type->name : "NULL" ), oper->tokpos + strlen( oper->string_ptr ) ));
; 3183 :         if ( old->type ) {

	mov	rax, QWORD PTR [rdx+96]
	test	rax, rax
	je	SHORT $LN7@PrepareOp

; 3184 :             DebugMsg1(("PrepareOp: implicit type: %s\n", old->type->name));
; 3185 :             opnd->type = old->type;

	mov	QWORD PTR [rcx+96], rax

; 3186 :             opnd->is_dot = TRUE;

	or	DWORD PTR [rcx+76], 128			; 00000080H

; 3216 :             break;
; 3217 :         }
; 3218 :         break;
; 3219 :     }
; 3220 : }

	ret	0
$LN7@PrepareOp:

; 3187 : #if 0
; 3188 :         /* v2.09 (type field is now set in get_operand();
; 3189 :          * it's problematic to use old->sym here, because this field
; 3190 :          * is not necessarily set by the operand just before the dot.
; 3191 :          */
; 3192 :         //} else if ( old->sym && old->sym->mem_type == MT_TYPE ) {
; 3193 :         } else if ( old->sym && old->sym->mem_type == MT_TYPE && old->instr == EMPTY ) {
; 3194 :             DebugMsg1(("PrepareOp: label %s, implicit type: %s\n", old->sym->name, old->sym->type->name));
; 3195 :             for ( opnd->type = old->sym->type; opnd->type->type; opnd->type = opnd->type->type );
; 3196 : #endif
; 3197 :         /* v2.07: changed */
; 3198 :         //} else if ( !ModuleInfo.oldstructs ) {
; 3199 :         /* v2.08: reverted, replaced by changes in dot_op() and get_operand(), case T_STYPE */
; 3200 :         //} else if ( old->sym && old->sym->mem_type == MT_EMPTY && !ModuleInfo.oldstructs ) {
; 3201 :         /* v2.11: nullstruct not used here. Set type to NULL and is_dot==TRUE */
; 3202 :         //} else if ( !ModuleInfo.oldstructs ) {
; 3203 :         } else if ( !ModuleInfo.oldstructs && old->sym && old->sym->state == SYM_UNDEFINED ) {

	test	DWORD PTR ModuleInfo+408, 256		; 00000100H
	jne	SHORT $LN4@PrepareOp
	mov	rax, QWORD PTR [rdx+80]
	test	rax, rax
	je	SHORT $LN4@PrepareOp
	cmp	DWORD PTR [rax+32], 0
	jne	SHORT $LN4@PrepareOp

; 3204 :             DebugMsg1(("PrepareOp: forward ref to %s, type will be NULL\n", old->sym->name ));
; 3205 :             opnd->type = NULL;

	mov	QWORD PTR [rcx+96], 0

; 3206 :             opnd->is_dot = TRUE;

	or	DWORD PTR [rcx+76], 128			; 00000080H

; 3216 :             break;
; 3217 :         }
; 3218 :         break;
; 3219 :     }
; 3220 : }

	ret	0
$LN10@PrepareOp:

; 3207 :         }
; 3208 :         break;
; 3209 :     case T_UNARY_OPERATOR:
; 3210 :         switch ( oper->tokval ) {

	mov	edx, DWORD PTR [r8+16]
	sub	edx, 229				; 000000e5H
	je	SHORT $LN11@PrepareOp
	cmp	edx, 13
	jne	SHORT $LN4@PrepareOp
$LN11@PrepareOp:

; 3211 :         case T_OPATTR:
; 3212 :         case T_DOT_TYPE:
; 3213 :             DebugMsg(("PrepareOp: OPATTR operator found, old.sym=%X, old.type=%s, expr=%s\n",
; 3214 :                       old->sym, (old->type ? old->type->name : "NULL" ), oper->tokpos + strlen( oper->string_ptr ) ));
; 3215 :             opnd->is_opattr = TRUE;

	or	DWORD PTR [rcx+76], 16
$LN4@PrepareOp:

; 3216 :             break;
; 3217 :         }
; 3218 :         break;
; 3219 :     }
; 3220 : }

	ret	0
PrepareOp ENDP
_TEXT	ENDS
; Function compile flags: /Ogtpy
; File d:\hjwasm\hjwasm2.13.1s\hjwasm2.13.1s\expreval.c
;	COMDAT calculate
_TEXT	SEGMENT
opnd1$ = 80
opnd2$ = 88
oper$ = 96
calculate PROC						; COMDAT

; 2579 : {

	mov	QWORD PTR [rsp+24], rbx
	push	rsi
	push	rdi
	push	r14
	sub	rsp, 48					; 00000030H

; 2580 :     int_32              temp;
; 2581 :     struct asym         *sym;
; 2582 :     char                *name;
; 2583 : 
; 2584 :     /* avoid to use the <string> member once it's part of an expression!
; 2585 :      * the <value> member is the one to be used then.
; 2586 :      * test case: db "a"+80h
; 2587 :      * v2.08: first: this is too early; second: the current operand is opnd2.
; 2588 :      * third: the space is also used by float_tok member, which cannot be cleared.
; 2589 :      * probably the best solution - at calculate()'s end:
; 2590 :      * if ( opnd1->kind == EXPR_CONST ) opnd1->quoted_string = NULL;
; 2591 :      */
; 2592 :     opnd1->quoted_string = NULL;

	xor	esi, esi
	mov	rdi, rdx
	mov	QWORD PTR [rcx+16], rsi
	mov	r14, r8

; 2593 : 
; 2594 :     /* v2.11: added check to ensure constant fits in 64-bits */
; 2595 :     if ( opnd2->hlvalue ) {

	mov	rdx, QWORD PTR [rdx+8]
	mov	rbx, rcx
	test	rdx, rdx
	je	SHORT $LN11@calculate

; 2596 :         /* opattr and unary +/- are ok, they can handle 128-bits */
; 2597 :         if ( opnd2->is_opattr || ( ( oper->token == '+' || oper->token == '-' ) && oper->specval == UNARY_PLUSMINUS ) )

	test	BYTE PTR [rdi+76], 16
	jne	SHORT $LN11@calculate
	movzx	eax, BYTE PTR [r8]
	sub	al, 43					; 0000002bH
	test	al, 253					; 000000fdH
	jne	SHORT $LN9@calculate
	cmp	BYTE PTR [r8+1], sil
	je	SHORT $LN11@calculate
$LN9@calculate:

; 2598 :             ;
; 2599 :         else {
; 2600 :             DebugMsg(("%u calculate(%s): value too large\n", evallvl, oper->string_ptr ));
; 2601 :             return( fnEmitErr( CONSTANT_VALUE_TOO_LARGE_EX, opnd2->hlvalue, opnd2->value64 ) );

	mov	r8, QWORD PTR [rdi]
	mov	ecx, 272				; 00000110H

; 3171 : }

	mov	rbx, QWORD PTR [rsp+96]
	add	rsp, 48					; 00000030H
	pop	r14
	pop	rdi
	pop	rsi

; 2598 :             ;
; 2599 :         else {
; 2600 :             DebugMsg(("%u calculate(%s): value too large\n", evallvl, oper->string_ptr ));
; 2601 :             return( fnEmitErr( CONSTANT_VALUE_TOO_LARGE_EX, opnd2->hlvalue, opnd2->value64 ) );

	rex_jmp	QWORD PTR fnEmitErr
$LN11@calculate:

; 2602 :         }
; 2603 :     }
; 2604 : 
; 2605 :     switch( oper->token ) {

	movzx	eax, BYTE PTR [r8]
	add	eax, -4
	mov	QWORD PTR [rsp+80], rbp
	cmp	eax, 87					; 00000057H
	ja	$LN126@calculate
	lea	rbp, OFFSET FLAT:__ImageBase
	cdqe
	movzx	eax, BYTE PTR $LN178@calculate[rax+rbp]
	mov	ecx, DWORD PTR $LN179@calculate[rbp+rax*4]
	add	rcx, rbp
	jmp	rcx
$LN13@calculate:

; 2606 :     case T_OP_SQ_BRACKET:
; 2607 :         /* v2.07: the ASSUMEs are now checked only when operator [] is done.
; 2608 :          * this is compatible with Masm:
; 2609 :          *   assume ebx:ptr <struct>
; 2610 :          *   mov eax, [ebx.<member>]             ;is to fail
; 2611 :          *   mov eax, [ebx.<struct>.<member>]    ;is to be ok
; 2612 :          * previously both variants were accepted by jwasm.
; 2613 :          */
; 2614 :         if ( opnd2->assumecheck == TRUE ) {

	mov	eax, DWORD PTR [rdi+76]
	test	al, 64					; 00000040H
	je	SHORT $LN15@calculate

; 2615 :             opnd2->assumecheck = FALSE;   /* check ONE time only! */

	and	eax, -65				; ffffffbfH
	mov	DWORD PTR [rdi+76], eax

; 2616 :             if ( opnd1->sym == NULL ) /* v2.10: added; see assume10.asm */

	cmp	QWORD PTR [rbx+80], rsi
	jne	SHORT $LN15@calculate

; 2617 :                 CheckAssume( opnd2 );

	mov	rcx, rdi
	call	CheckAssume
$LN15@calculate:

; 2618 :         }
; 2619 : 
; 2620 :         if ( opnd1->kind == EXPR_EMPTY ) {

	cmp	DWORD PTR [rbx+60], -2
	jne	SHORT $LN16@calculate

; 2621 :             DebugMsg1(("%u calculate(%s): single item\n", evallvl, oper->string_ptr ));
; 2622 :             TokenAssign( opnd1, opnd2 );

	movups	xmm0, XMMWORD PTR [rdi]
	movups	XMMWORD PTR [rbx], xmm0
	movups	xmm1, XMMWORD PTR [rdi+16]
	movups	XMMWORD PTR [rbx+16], xmm1
	movups	xmm0, XMMWORD PTR [rdi+32]
	movups	XMMWORD PTR [rbx+32], xmm0
	movups	xmm1, XMMWORD PTR [rdi+48]
	movups	XMMWORD PTR [rbx+48], xmm1
	movups	xmm0, XMMWORD PTR [rdi+64]
	movups	XMMWORD PTR [rbx+64], xmm0
	movups	xmm1, XMMWORD PTR [rdi+80]
	movups	XMMWORD PTR [rbx+80], xmm1

; 2623 :             opnd1->type = opnd2->type;

	mov	rax, QWORD PTR [rdi+96]
	mov	QWORD PTR [rbx+96], rax

; 2624 :             if ( opnd1->is_type && opnd1->kind == EXPR_CONST )

	mov	eax, DWORD PTR [rbx+76]
	test	al, 8
	je	$LN2@calculate
	cmp	DWORD PTR [rbx+60], esi
	jne	$LN2@calculate

; 2625 :                 opnd1->is_type = 0;

	and	eax, -9					; fffffff7H
	mov	DWORD PTR [rbx+76], eax

; 3139 :     } /* end switch( oper->token ) */
; 3140 : 
; 3141 : #ifdef DEBUG_OUT
; 3142 :     if ( opnd1->hlvalue ) {
; 3143 :         DebugMsg1(("%u calculate(%s) exit, ok kind=%d value=0x%" I64_SPEC "X_%016" I64_SPEC "X memtype=0x%X indirect=%u type=>%s<\n",
; 3144 :                    evallvl,
; 3145 :                    oper->string_ptr,
; 3146 :                    opnd1->kind,
; 3147 :                    opnd1->hlvalue, opnd1->llvalue,
; 3148 :                    opnd1->mem_type,
; 3149 :                    opnd1->indirect, opnd1->type ? opnd1->type->name : "NULL" ));
; 3150 :     } else if ( opnd1->hvalue ) {
; 3151 :         DebugMsg1(("%u calculate(%s) exit, ok kind=%d value=%" I64_SPEC"d(0x%" I64_SPEC "X) memtype=0x%X indirect=%u type=>%s<\n",
; 3152 :                    evallvl,
; 3153 :                    oper->string_ptr,
; 3154 :                    opnd1->kind,
; 3155 :                    opnd1->llvalue, opnd1->llvalue,
; 3156 :                    opnd1->mem_type,
; 3157 :                    opnd1->indirect, opnd1->type ? opnd1->type->name : "NULL" ));
; 3158 :     } else {
; 3159 :         DebugMsg1(("%u calculate(%s) exit, ok kind=%d value=%d(0x%X) memtype=0x%X ind=%u exp=%u type=%s mbr=%s\n",
; 3160 :                    evallvl,
; 3161 :                    oper->string_ptr,
; 3162 :                    opnd1->kind,
; 3163 :                    opnd1->value, opnd1->value,
; 3164 :                    opnd1->mem_type,
; 3165 :                    opnd1->indirect, opnd1->explicit,
; 3166 :                    opnd1->type ? opnd1->type->name : "NULL",
; 3167 :                    opnd1->mbr ? opnd1->mbr->name : "NULL" ));
; 3168 :     }
; 3169 : #endif
; 3170 :     return( NOT_ERROR );

	xor	eax, eax
	jmp	$LN180@calculate
$LN16@calculate:

; 2626 :             break;
; 2627 :         }
; 2628 : 
; 2629 :         /* v2.03: make HJWasm reject syntax variants
; 2630 :          * "mov eax, DWORD [EBX]"
; 2631 :          * "mov eax, DWORD [var_name]"
; 2632 :          * variants still valid:
; 2633 :          * "mov eax, DWORD [WORD]"
; 2634 :          * "mov eax, DWORD [4]"
; 2635 :          * "mov eax, [DWORD][EBX]"
; 2636 :          */
; 2637 :         /* v2.08: structure/union names are ok: mov eax, S1[ebx] */
; 2638 :         //if ( opnd1->is_type == TRUE &&
; 2639 :         if ( opnd1->is_type == TRUE && opnd1->type == NULL &&

	test	BYTE PTR [rbx+76], 8
	je	SHORT $LN23@calculate
	cmp	QWORD PTR [rbx+96], rsi
	jne	SHORT $LN23@calculate

; 2640 :             (opnd2->kind == EXPR_ADDR || opnd2->kind == EXPR_REG ) ) {
; 2641 :             DebugMsg(("calculate(%s): incompatible usage of (simple) type\n", oper->string_ptr ));
; 2642 :             return( fnEmitErr( SYNTAX_ERROR_IN_EXPRESSION ) );

	mov	eax, DWORD PTR [rdi+60]
	dec	eax
	cmp	eax, 1
	jbe	$LN192@calculate
$LN23@calculate:

; 2670 :         }
; 2671 : 
; 2672 :         /* v2.08: moved here from get_operand() */
; 2673 :         if ( opnd1->base_reg && opnd1->base_reg->tokval == T_ST )

	mov	rax, QWORD PTR [rbx+24]
	test	rax, rax
	je	$LN26@calculate
	cmp	DWORD PTR [rax+16], 31
	jne	$LN26@calculate

; 2674 :             return( check_streg( opnd1, opnd2 ) );

	movzx	eax, BYTE PTR [rbx+68]
	test	al, al
	je	SHORT $LN140@calculate
	mov	ecx, 170				; 000000aaH
	call	QWORD PTR fnEmitErr
	mov	esi, eax
	jmp	$LN180@calculate
$LN21@calculate:

; 2643 :         }
; 2644 : 
; 2645 :         /* v2.08: moved here from get_operand() */
; 2646 :         if ( opnd1->base_reg && opnd1->base_reg->tokval == T_ST )
; 2647 :             return( check_streg( opnd1, opnd2 ) );
; 2648 : 
; 2649 : #ifdef DEBUG_OUT
; 2650 :         if ( plus_op( opnd1, opnd2 ) == ERROR )
; 2651 :             return( ERROR );
; 2652 :         break;
; 2653 : #else
; 2654 :         return( plus_op( opnd1, opnd2 ) );
; 2655 : #endif
; 2656 :     case T_OP_BRACKET:
; 2657 : 
; 2658 :         if ( opnd1->kind == EXPR_EMPTY ) {

	cmp	DWORD PTR [rbx+60], -2
	jne	SHORT $LN22@calculate

; 2659 :             DebugMsg1(("%u calculate(%s): single item\n", evallvl, oper->string_ptr ));
; 2660 :             TokenAssign( opnd1, opnd2 );

	movups	xmm0, XMMWORD PTR [rdi]
	movups	XMMWORD PTR [rbx], xmm0
	movups	xmm1, XMMWORD PTR [rdi+16]
	movups	XMMWORD PTR [rbx+16], xmm1
	movups	xmm0, XMMWORD PTR [rdi+32]
	movups	XMMWORD PTR [rbx+32], xmm0
	movups	xmm1, XMMWORD PTR [rdi+48]
	movups	XMMWORD PTR [rbx+48], xmm1
	movups	xmm0, XMMWORD PTR [rdi+64]
	movups	XMMWORD PTR [rbx+64], xmm0
	movups	xmm1, XMMWORD PTR [rdi+80]
	movups	XMMWORD PTR [rbx+80], xmm1

; 2661 :             opnd1->type = opnd2->type;

	mov	rax, QWORD PTR [rdi+96]
	mov	QWORD PTR [rbx+96], rax

; 3139 :     } /* end switch( oper->token ) */
; 3140 : 
; 3141 : #ifdef DEBUG_OUT
; 3142 :     if ( opnd1->hlvalue ) {
; 3143 :         DebugMsg1(("%u calculate(%s) exit, ok kind=%d value=0x%" I64_SPEC "X_%016" I64_SPEC "X memtype=0x%X indirect=%u type=>%s<\n",
; 3144 :                    evallvl,
; 3145 :                    oper->string_ptr,
; 3146 :                    opnd1->kind,
; 3147 :                    opnd1->hlvalue, opnd1->llvalue,
; 3148 :                    opnd1->mem_type,
; 3149 :                    opnd1->indirect, opnd1->type ? opnd1->type->name : "NULL" ));
; 3150 :     } else if ( opnd1->hvalue ) {
; 3151 :         DebugMsg1(("%u calculate(%s) exit, ok kind=%d value=%" I64_SPEC"d(0x%" I64_SPEC "X) memtype=0x%X indirect=%u type=>%s<\n",
; 3152 :                    evallvl,
; 3153 :                    oper->string_ptr,
; 3154 :                    opnd1->kind,
; 3155 :                    opnd1->llvalue, opnd1->llvalue,
; 3156 :                    opnd1->mem_type,
; 3157 :                    opnd1->indirect, opnd1->type ? opnd1->type->name : "NULL" ));
; 3158 :     } else {
; 3159 :         DebugMsg1(("%u calculate(%s) exit, ok kind=%d value=%d(0x%X) memtype=0x%X ind=%u exp=%u type=%s mbr=%s\n",
; 3160 :                    evallvl,
; 3161 :                    oper->string_ptr,
; 3162 :                    opnd1->kind,
; 3163 :                    opnd1->value, opnd1->value,
; 3164 :                    opnd1->mem_type,
; 3165 :                    opnd1->indirect, opnd1->explicit,
; 3166 :                    opnd1->type ? opnd1->type->name : "NULL",
; 3167 :                    opnd1->mbr ? opnd1->mbr->name : "NULL" ));
; 3168 :     }
; 3169 : #endif
; 3170 :     return( NOT_ERROR );

	xor	eax, eax
	jmp	$LN180@calculate
$LN22@calculate:

; 2662 :             break;
; 2663 :         }
; 2664 :         /* v2.03: make HJWasm reject syntax variants
; 2665 :          * "mov eax, DWORD (<label>)"
; 2666 :          */
; 2667 :         if ( opnd1->is_type == TRUE && opnd2->kind == EXPR_ADDR ) {

	test	BYTE PTR [rbx+76], 8
	je	SHORT $LN23@calculate
	cmp	DWORD PTR [rdi+60], 1
	jne	SHORT $LN23@calculate
$LN192@calculate:

; 2668 :             DebugMsg(("calculate(%s): incompatible usage of (simple) type\n", oper->string_ptr ));
; 2669 :             return( fnEmitErr( SYNTAX_ERROR_IN_EXPRESSION ) );

	mov	ecx, 263				; 00000107H

; 2833 :                     DebugMsg(("calculate(PTR): register size doesn't match type size; %u != %u\n", SizeFromRegister( temp ), opnd1->value ));
; 2834 :                     return( fnEmitErr( INVALID_USE_OF_REGISTER ) );

	call	QWORD PTR fnEmitErr
	jmp	$LN180@calculate

; 2674 :             return( check_streg( opnd1, opnd2 ) );

$LN140@calculate:
	inc	al
	mov	BYTE PTR [rbx+68], al
	cmp	DWORD PTR [rdi+60], esi
	je	SHORT $LN141@calculate
	mov	ecx, 252				; 000000fcH
	call	QWORD PTR fnEmitErr
	mov	esi, eax
	jmp	$LN180@calculate
$LN141@calculate:
	mov	eax, DWORD PTR [rdi]
	mov	DWORD PTR [rbx], eax
	mov	eax, esi
	jmp	$LN180@calculate
$LN25@calculate:

; 2675 : 
; 2676 :         DebugMsg1(("calculate(%s): calling plus_op()\n", oper->string_ptr ));
; 2677 : #ifdef DEBUG_OUT
; 2678 :         if ( plus_op( opnd1, opnd2 ) == ERROR )
; 2679 :             return( ERROR );
; 2680 :         break;
; 2681 : #else
; 2682 :         return( plus_op( opnd1, opnd2 ) );
; 2683 : #endif
; 2684 :     case '+':
; 2685 :         if ( oper->specval == UNARY_PLUSMINUS ) /* unary op? */

	cmp	BYTE PTR [r8+1], sil
	jne	SHORT $LN26@calculate

; 2686 :             return( positive_op( opnd1, opnd2 ) );

	mov	rcx, rdi
	call	MakeConst
	mov	ecx, DWORD PTR [rdi+60]
	test	ecx, ecx
	jne	SHORT $LN144@calculate
	mov	DWORD PTR [rbx+60], esi
	mov	rax, QWORD PTR [rdi]
	mov	QWORD PTR [rbx], rax
	mov	rax, QWORD PTR [rdi+8]
	mov	QWORD PTR [rbx+8], rax
	mov	eax, esi
	jmp	$LN180@calculate
$LN144@calculate:
	cmp	ecx, 3
	jne	SHORT $LN146@calculate
	mov	DWORD PTR [rbx+60], ecx
	mov	rax, QWORD PTR [rdi+16]
	mov	QWORD PTR [rbx+16], rax
	mov	eax, DWORD PTR [rdi+76]
	xor	eax, DWORD PTR [rbx+76]
	and	eax, 32					; 00000020H
	xor	DWORD PTR [rbx+76], eax
	mov	eax, esi
	jmp	$LN180@calculate
$LN146@calculate:
	mov	ecx, 65					; 00000041H
	call	QWORD PTR fnEmitErr
	mov	esi, eax
	jmp	$LN180@calculate
$LN26@calculate:

; 2687 : #ifdef DEBUG_OUT
; 2688 :         if ( plus_op( opnd1, opnd2 ) == ERROR )
; 2689 :             return( ERROR );
; 2690 :         break;
; 2691 : #else
; 2692 :         return( plus_op( opnd1, opnd2 ) );

	mov	rdx, rdi
	mov	rcx, rbx
	call	plus_op
	jmp	$LN180@calculate
$LN27@calculate:

; 2693 : #endif
; 2694 :     case '-':
; 2695 :         if ( oper->specval == UNARY_PLUSMINUS ) /* unary op? */
; 2696 :             return( negative_op( opnd1, opnd2 ) );

	mov	rdx, rdi
	mov	rcx, rbx
	cmp	BYTE PTR [r8+1], sil
	jne	SHORT $LN28@calculate
	call	negative_op
	jmp	$LN180@calculate
$LN28@calculate:

; 2697 : #ifdef DEBUG_OUT
; 2698 :         if ( minus_op( opnd1, opnd2 ) == ERROR )
; 2699 :             return( ERROR );
; 2700 :         break;
; 2701 : #else
; 2702 :         return( minus_op( opnd1, opnd2 ) );

	call	minus_op
	jmp	$LN180@calculate
$LN29@calculate:

; 2703 : #endif
; 2704 :     case T_DOT:
; 2705 : #ifdef DEBUG_OUT
; 2706 :         if ( dot_op( opnd1, opnd2 ) == ERROR )
; 2707 :             return( ERROR );
; 2708 :         break;
; 2709 : #else
; 2710 :         return( dot_op( opnd1, opnd2 ) );

	mov	rdx, rdi
	mov	rcx, rbx
	call	dot_op
	jmp	$LN180@calculate
$LN30@calculate:

; 2711 : #endif
; 2712 :     case T_COLON:
; 2713 : #ifdef DEBUG_OUT
; 2714 :         if ( colon_op( opnd1, opnd2 ) == ERROR )
; 2715 :             return( ERROR );
; 2716 :         break;
; 2717 : #else
; 2718 :         return( colon_op( opnd1, opnd2 ) );

	mov	rdx, rdi
	mov	rcx, rbx
	call	colon_op
	jmp	$LN180@calculate
$LN31@calculate:

; 2719 : #endif
; 2720 :     case '*':
; 2721 :         /*
; 2722 :          * The only formats allowed are:
; 2723 :          *        constant * constant
; 2724 :          *        register * scaling factor ( 1, 2, 4 or 8 )
; 2725 :          *                   386 only
; 2726 :          */
; 2727 :         DebugMsg1(("calculate(*): kind=%d/%d value=%" I64_SPEC "d-%" I64_SPEC "d mbr=%X-%X\n",
; 2728 :                    opnd1->kind,    opnd2->kind,
; 2729 :                    opnd1->value64, opnd2->value64,
; 2730 :                    opnd1->mbr,     opnd2->mbr ));
; 2731 : 
; 2732 :         MakeConst( opnd1 );

	mov	rcx, rbx
	call	MakeConst

; 2733 :         MakeConst( opnd2 );

	mov	rcx, rdi
	call	MakeConst

; 2734 : 
; 2735 :         if( check_same( opnd1, opnd2, EXPR_CONST ) ) {

	mov	ecx, DWORD PTR [rbx+60]
	test	ecx, ecx
	jne	SHORT $LN32@calculate
	cmp	DWORD PTR [rdi+60], esi
	jne	SHORT $LN32@calculate

; 2736 :             opnd1->llvalue *= opnd2->llvalue;

	mov	rax, QWORD PTR [rbx]
	imul	rax, QWORD PTR [rdi]

; 3007 :             opnd1->llvalue = ~(opnd2->llvalue);

	mov	QWORD PTR [rbx], rax

; 3139 :     } /* end switch( oper->token ) */
; 3140 : 
; 3141 : #ifdef DEBUG_OUT
; 3142 :     if ( opnd1->hlvalue ) {
; 3143 :         DebugMsg1(("%u calculate(%s) exit, ok kind=%d value=0x%" I64_SPEC "X_%016" I64_SPEC "X memtype=0x%X indirect=%u type=>%s<\n",
; 3144 :                    evallvl,
; 3145 :                    oper->string_ptr,
; 3146 :                    opnd1->kind,
; 3147 :                    opnd1->hlvalue, opnd1->llvalue,
; 3148 :                    opnd1->mem_type,
; 3149 :                    opnd1->indirect, opnd1->type ? opnd1->type->name : "NULL" ));
; 3150 :     } else if ( opnd1->hvalue ) {
; 3151 :         DebugMsg1(("%u calculate(%s) exit, ok kind=%d value=%" I64_SPEC"d(0x%" I64_SPEC "X) memtype=0x%X indirect=%u type=>%s<\n",
; 3152 :                    evallvl,
; 3153 :                    oper->string_ptr,
; 3154 :                    opnd1->kind,
; 3155 :                    opnd1->llvalue, opnd1->llvalue,
; 3156 :                    opnd1->mem_type,
; 3157 :                    opnd1->indirect, opnd1->type ? opnd1->type->name : "NULL" ));
; 3158 :     } else {
; 3159 :         DebugMsg1(("%u calculate(%s) exit, ok kind=%d value=%d(0x%X) memtype=0x%X ind=%u exp=%u type=%s mbr=%s\n",
; 3160 :                    evallvl,
; 3161 :                    oper->string_ptr,
; 3162 :                    opnd1->kind,
; 3163 :                    opnd1->value, opnd1->value,
; 3164 :                    opnd1->mem_type,
; 3165 :                    opnd1->indirect, opnd1->explicit,
; 3166 :                    opnd1->type ? opnd1->type->name : "NULL",
; 3167 :                    opnd1->mbr ? opnd1->mbr->name : "NULL" ));
; 3168 :     }
; 3169 : #endif
; 3170 :     return( NOT_ERROR );

	xor	eax, eax
	jmp	$LN180@calculate
$LN32@calculate:

; 2737 :         } else if( check_both( opnd1, opnd2, EXPR_REG, EXPR_CONST ) ) {

	cmp	ecx, 2
	jne	SHORT $LN150@calculate
	mov	eax, DWORD PTR [rdi+60]
	test	eax, eax
	je	SHORT $LN169@calculate
$LN150@calculate:
	test	ecx, ecx
	jne	$LN62@calculate
	mov	eax, DWORD PTR [rdi+60]
	cmp	eax, 2
	jne	$LN62@calculate
$LN169@calculate:

; 2738 :             if( check_direct_reg( opnd1, opnd2 ) == ERROR ) {

	cmp	ecx, 2
	jne	SHORT $LN156@calculate
	test	BYTE PTR [rbx+76], 1
	je	$LN170@calculate
$LN156@calculate:
	cmp	eax, 2
	jne	SHORT $LN37@calculate
	test	BYTE PTR [rdi+76], 1
	je	$LN170@calculate

; 2739 :                 DebugMsg(("calculate(*) error direct register\n"));
; 2740 :                 return( fnEmitErr( INVALID_USE_OF_REGISTER ) );
; 2741 :             }
; 2742 :             /* scaling factor */
; 2743 :             if( opnd2->kind == EXPR_REG ) {

	cmp	eax, eax
	jne	SHORT $LN37@calculate

; 2744 :                 /* scale * reg */
; 2745 :                 opnd1->idx_reg = opnd2->base_reg;

	mov	rax, QWORD PTR [rdi+24]
	mov	QWORD PTR [rbx+32], rax

; 2746 :                 opnd1->scale = opnd1->value;

	movzx	eax, BYTE PTR [rbx]

; 2747 :                 opnd1->value = 0;

	mov	DWORD PTR [rbx], esi

; 2748 :                 //opnd2->base_reg = NULL;
; 2749 :             } else {

	jmp	SHORT $LN184@calculate
$LN37@calculate:

; 2750 :                 /* reg * scale */
; 2751 :                 opnd1->idx_reg = opnd1->base_reg;

	mov	rax, QWORD PTR [rbx+24]
	mov	QWORD PTR [rbx+32], rax

; 2752 :                 opnd1->scale = opnd2->value;

	movzx	eax, BYTE PTR [rdi]
$LN184@calculate:
	mov	BYTE PTR [rbx+68], al

; 2753 :             }
; 2754 :             /* v2.08: check 0 (the default value) here */
; 2755 :             if ( opnd1->scale == 0 ) {

	cmp	al, sil
	jne	SHORT $LN39@calculate

; 2756 :                 return( fnEmitErr( SCALE_FACTOR_MUST_BE_1_2_4_OR_8 ) );

	mov	ecx, 36					; 00000024H

; 2833 :                     DebugMsg(("calculate(PTR): register size doesn't match type size; %u != %u\n", SizeFromRegister( temp ), opnd1->value ));
; 2834 :                     return( fnEmitErr( INVALID_USE_OF_REGISTER ) );

	call	QWORD PTR fnEmitErr
	jmp	$LN180@calculate
$LN39@calculate:

; 2757 :             }
; 2758 : 
; 2759 :             opnd1->base_reg = NULL;
; 2760 :             opnd1->indirect = TRUE;

	or	DWORD PTR [rbx+76], 1

; 3139 :     } /* end switch( oper->token ) */
; 3140 : 
; 3141 : #ifdef DEBUG_OUT
; 3142 :     if ( opnd1->hlvalue ) {
; 3143 :         DebugMsg1(("%u calculate(%s) exit, ok kind=%d value=0x%" I64_SPEC "X_%016" I64_SPEC "X memtype=0x%X indirect=%u type=>%s<\n",
; 3144 :                    evallvl,
; 3145 :                    oper->string_ptr,
; 3146 :                    opnd1->kind,
; 3147 :                    opnd1->hlvalue, opnd1->llvalue,
; 3148 :                    opnd1->mem_type,
; 3149 :                    opnd1->indirect, opnd1->type ? opnd1->type->name : "NULL" ));
; 3150 :     } else if ( opnd1->hvalue ) {
; 3151 :         DebugMsg1(("%u calculate(%s) exit, ok kind=%d value=%" I64_SPEC"d(0x%" I64_SPEC "X) memtype=0x%X indirect=%u type=>%s<\n",
; 3152 :                    evallvl,
; 3153 :                    oper->string_ptr,
; 3154 :                    opnd1->kind,
; 3155 :                    opnd1->llvalue, opnd1->llvalue,
; 3156 :                    opnd1->mem_type,
; 3157 :                    opnd1->indirect, opnd1->type ? opnd1->type->name : "NULL" ));
; 3158 :     } else {
; 3159 :         DebugMsg1(("%u calculate(%s) exit, ok kind=%d value=%d(0x%X) memtype=0x%X ind=%u exp=%u type=%s mbr=%s\n",
; 3160 :                    evallvl,
; 3161 :                    oper->string_ptr,
; 3162 :                    opnd1->kind,
; 3163 :                    opnd1->value, opnd1->value,
; 3164 :                    opnd1->mem_type,
; 3165 :                    opnd1->indirect, opnd1->explicit,
; 3166 :                    opnd1->type ? opnd1->type->name : "NULL",
; 3167 :                    opnd1->mbr ? opnd1->mbr->name : "NULL" ));
; 3168 :     }
; 3169 : #endif
; 3170 :     return( NOT_ERROR );

	xor	eax, eax
	mov	QWORD PTR [rbx+24], rsi
	mov	DWORD PTR [rbx+60], 1
	jmp	$LN180@calculate
$LN40@calculate:

; 2761 :             opnd1->kind = EXPR_ADDR;
; 2762 :         } else {
; 2763 :             DebugMsg(("calculate(*) error 2\n"));
; 2764 :             return( ConstError( opnd1, opnd2 ) );
; 2765 :         }
; 2766 :         break;
; 2767 :     case '/':
; 2768 :         /*
; 2769 :          * The only formats allowed are:
; 2770 :          *        constant / constant
; 2771 :          */
; 2772 :         DebugMsg1(("calculate(/): t1-t2 kind %u-%u values %" I64_SPEC "d-%" I64_SPEC "d\n",
; 2773 :                    opnd1->kind,    opnd2->kind,
; 2774 :                    opnd1->value64, opnd2->value64 ));
; 2775 :         MakeConst( opnd1 );

	mov	rcx, rbx
	call	MakeConst

; 2776 :         MakeConst( opnd2 );

	mov	rcx, rdi
	call	MakeConst

; 2777 : 
; 2778 :         if( check_same( opnd1, opnd2, EXPR_CONST ) == FALSE ) {

	cmp	DWORD PTR [rbx+60], esi
	jne	$LN62@calculate
	cmp	DWORD PTR [rdi+60], esi
	jne	$LN62@calculate

; 2779 :             DebugMsg(("calculate(/) error 1\n"));
; 2780 :             return( ConstError( opnd1, opnd2 ) );
; 2781 :         }
; 2782 : 
; 2783 :         if ( opnd2->llvalue == 0 ) {

	mov	rcx, QWORD PTR [rdi]
	test	rcx, rcx
	je	$LN188@calculate

; 2784 :             DebugMsg(("calculate(/) error 2\n"));
; 2785 :             return( fnEmitErr( DIVIDE_BY_ZERO_IN_EXPR ) );
; 2786 :         }
; 2787 : 
; 2788 :         opnd1->value64 /= opnd2->value64;

	mov	rax, QWORD PTR [rbx]
	cdq
	idiv	rcx

; 3007 :             opnd1->llvalue = ~(opnd2->llvalue);

	mov	QWORD PTR [rbx], rax

; 3139 :     } /* end switch( oper->token ) */
; 3140 : 
; 3141 : #ifdef DEBUG_OUT
; 3142 :     if ( opnd1->hlvalue ) {
; 3143 :         DebugMsg1(("%u calculate(%s) exit, ok kind=%d value=0x%" I64_SPEC "X_%016" I64_SPEC "X memtype=0x%X indirect=%u type=>%s<\n",
; 3144 :                    evallvl,
; 3145 :                    oper->string_ptr,
; 3146 :                    opnd1->kind,
; 3147 :                    opnd1->hlvalue, opnd1->llvalue,
; 3148 :                    opnd1->mem_type,
; 3149 :                    opnd1->indirect, opnd1->type ? opnd1->type->name : "NULL" ));
; 3150 :     } else if ( opnd1->hvalue ) {
; 3151 :         DebugMsg1(("%u calculate(%s) exit, ok kind=%d value=%" I64_SPEC"d(0x%" I64_SPEC "X) memtype=0x%X indirect=%u type=>%s<\n",
; 3152 :                    evallvl,
; 3153 :                    oper->string_ptr,
; 3154 :                    opnd1->kind,
; 3155 :                    opnd1->llvalue, opnd1->llvalue,
; 3156 :                    opnd1->mem_type,
; 3157 :                    opnd1->indirect, opnd1->type ? opnd1->type->name : "NULL" ));
; 3158 :     } else {
; 3159 :         DebugMsg1(("%u calculate(%s) exit, ok kind=%d value=%d(0x%X) memtype=0x%X ind=%u exp=%u type=%s mbr=%s\n",
; 3160 :                    evallvl,
; 3161 :                    oper->string_ptr,
; 3162 :                    opnd1->kind,
; 3163 :                    opnd1->value, opnd1->value,
; 3164 :                    opnd1->mem_type,
; 3165 :                    opnd1->indirect, opnd1->explicit,
; 3166 :                    opnd1->type ? opnd1->type->name : "NULL",
; 3167 :                    opnd1->mbr ? opnd1->mbr->name : "NULL" ));
; 3168 :     }
; 3169 : #endif
; 3170 :     return( NOT_ERROR );

	xor	eax, eax
	jmp	$LN180@calculate
$LN43@calculate:

; 2789 :         break;
; 2790 :     case T_BINARY_OPERATOR:
; 2791 :         DebugMsg1(("calculate(%s [T_BINARY_OPERATOR] ): t1-t2 kind %d/%d memtype %X-%X sym %s-%s type %s-%s\n",
; 2792 :                    oper->string_ptr,
; 2793 :                    opnd1->kind, opnd2->kind,
; 2794 :                    opnd1->mem_type, opnd2->mem_type,
; 2795 :                    opnd1->sym  ? opnd1->sym->name  : "NULL",
; 2796 :                    opnd2->sym  ? opnd2->sym->name  : "NULL",
; 2797 :                    opnd1->type ? opnd1->type->name : "NULL",
; 2798 :                    opnd2->type ? opnd2->type->name : "NULL" ));
; 2799 : 
; 2800 :         if ( oper->tokval == T_PTR ) {

	cmp	DWORD PTR [r8+16], 258			; 00000102H
	jne	$LN44@calculate

; 2801 :             if ( opnd1->is_type == FALSE ) {

	test	BYTE PTR [rbx+76], 8
	jne	SHORT $LN47@calculate

; 2802 :                 if ( opnd1->sym && opnd1->sym->state == SYM_UNDEFINED ) {

	mov	rcx, QWORD PTR [rbx+80]
	test	rcx, rcx
	je	SHORT $LN46@calculate
	cmp	DWORD PTR [rcx+32], esi
	jne	SHORT $LN46@calculate

; 2803 :                     CreateTypeSymbol( opnd1->sym, NULL, TRUE );

	mov	r8b, 1
	xor	edx, edx
	call	CreateTypeSymbol

; 2804 :                     opnd1->type = opnd1->sym;

	mov	rax, QWORD PTR [rbx+80]

; 2805 :                     opnd1->sym = NULL;
; 2806 :                     opnd1->is_type = TRUE;

	or	DWORD PTR [rbx+76], 8
	mov	QWORD PTR [rbx+96], rax
	mov	QWORD PTR [rbx+80], rsi
$LN47@calculate:

; 2810 :                 }
; 2811 :             }
; 2812 :             opnd2->explicit = TRUE;

	mov	eax, DWORD PTR [rdi+76]

; 2813 :             /* v2.02: if operand is a register, make sure
; 2814 :              * that invalid combinations ("DWORD PTR AX") are flagged.
; 2815 :              *
; 2816 :              * v2.10: must also be checked inside []. However, it's
; 2817 :              * a problem to properly handle this case, since opnd->indirect
; 2818 :              * is just a flag.
; 2819 :              * Curr. hackish fix: to query state of assumecheck if indirect==TRUE.
; 2820 :              * Proposed "good" fix: change EXPR_REG to EXPR_ADDR in
; 2821 :              * CheckAssume(), that is, when the terminating  ']' was found.
; 2822 :              */
; 2823 :             //if ( opnd2->kind == EXPR_REG && opnd2->indirect == FALSE ) {
; 2824 :             if ( opnd2->kind == EXPR_REG && ( opnd2->indirect == FALSE || opnd2->assumecheck == TRUE ) ) {

	mov	ecx, DWORD PTR [rdi+60]
	or	eax, 2
	mov	DWORD PTR [rdi+76], eax
	cmp	ecx, 2
	jne	SHORT $LN48@calculate
	and	al, 65					; 00000041H
	cmp	al, 1
	je	SHORT $LN48@calculate

; 2825 :                 temp = opnd2->base_reg->tokval;

	mov	rax, QWORD PTR [rdi+24]
	movsxd	rdx, DWORD PTR [rax+16]

; 2826 :                 /* for segment registers, both size 2 and 4 is ok.*/
; 2827 :                 if ( GetValueSp( temp ) & OP_SR ) {

	lea	rcx, QWORD PTR [rdx+rdx*2]
	test	DWORD PTR SpecialTable[rbp+rcx*4], 24576 ; 00006000H
	je	SHORT $LN51@calculate

; 2828 :                     if ( opnd1->value != 2 && opnd1->value != 4 ) {
; 2829 :                         DebugMsg(("calculate(PTR): segment register size (=2/4) doesn't match type size (=%u)\n", opnd1->value ));
; 2830 :                         return( fnEmitErr( INVALID_USE_OF_REGISTER ) );

	mov	eax, DWORD PTR [rbx]
	sub	eax, 2
	test	eax, -3					; fffffffdH
	jmp	SHORT $LN189@calculate
$LN46@calculate:

; 2807 :                 } else {
; 2808 :                     DebugMsg(("calculate(PTR), error 1: t1 is_type == FALSE\n"));
; 2809 :                     return( fnEmitErr( INVALID_TYPE_EXPRESSION ) );

	mov	ecx, 179				; 000000b3H

; 2833 :                     DebugMsg(("calculate(PTR): register size doesn't match type size; %u != %u\n", SizeFromRegister( temp ), opnd1->value ));
; 2834 :                     return( fnEmitErr( INVALID_USE_OF_REGISTER ) );

	call	QWORD PTR fnEmitErr
	jmp	$LN180@calculate
$LN51@calculate:

; 2831 :                     }
; 2832 :                 } else if ( opnd1->value != SizeFromRegister( temp ) ) {

	mov	ecx, edx
	call	SizeFromRegister
	cmp	DWORD PTR [rbx], eax
$LN189@calculate:
	je	SHORT $LN56@calculate
$LN170@calculate:

; 2833 :                     DebugMsg(("calculate(PTR): register size doesn't match type size; %u != %u\n", SizeFromRegister( temp ), opnd1->value ));
; 2834 :                     return( fnEmitErr( INVALID_USE_OF_REGISTER ) );

	mov	ecx, 170				; 000000aaH
	call	QWORD PTR fnEmitErr
	jmp	$LN180@calculate
$LN48@calculate:

; 2835 :                 }
; 2836 :             } else if ( opnd2->kind == EXPR_FLOAT ) {

	cmp	ecx, 3
	jne	SHORT $LN56@calculate

; 2837 :                 if ( !( opnd1->mem_type & MT_FLOAT ) ) {

	test	BYTE PTR [rbx+64], 32			; 00000020H
	jne	SHORT $LN56@calculate

; 2838 :                     DebugMsg(("calculate(PTR): type memtype=%Xh ( MT_FLOAT not set, although right op is FLOAT )\n", opnd1->mem_type ));
; 2839 :                     return( fnEmitErr( REAL_OR_BCD_NUMBER_NOT_ALLOWED ) );

	mov	ecx, 270				; 0000010eH
	call	QWORD PTR fnEmitErr
	jmp	$LN180@calculate
$LN56@calculate:

; 2840 :                 }
; 2841 :             }
; 2842 :             opnd2->mem_type = opnd1->mem_type;
; 2843 :             opnd2->Ofssize  = opnd1->Ofssize;
; 2844 :             /* v2.04: added */
; 2845 :             if ( opnd2->is_type )

	test	BYTE PTR [rdi+76], 8
	mov	eax, DWORD PTR [rbx+64]
	mov	DWORD PTR [rdi+64], eax
	movzx	eax, BYTE PTR [rbx+69]
	mov	BYTE PTR [rdi+69], al
	je	SHORT $LN57@calculate

; 2846 :                 opnd2->value  = opnd1->value;

	mov	eax, DWORD PTR [rbx]
	mov	DWORD PTR [rdi], eax
$LN57@calculate:

; 2847 : 
; 2848 :             /* todo: describe which case is handled here. How is the left
; 2849 :              * operand of PTR supposed to get an override? And why is
; 2850 :              * it necessary to change kind to EXPR_ADDR here? */
; 2851 :             if ( opnd1->override != NULL ) {

	mov	rax, QWORD PTR [rbx+48]
	test	rax, rax
	je	SHORT $LN58@calculate

; 2852 :                 if ( opnd2->override == NULL )

	cmp	QWORD PTR [rdi+48], rsi
	jne	SHORT $LN59@calculate

; 2853 :                     opnd2->override = opnd1->override;

	mov	QWORD PTR [rdi+48], rax
$LN59@calculate:

; 2854 :                 opnd2->kind = EXPR_ADDR;

	mov	DWORD PTR [rdi+60], 1
$LN58@calculate:

; 2855 :             }
; 2856 :             //if ( opnd1->mbr )
; 2857 :             //    opnd2->mbr = opnd1->mbr;
; 2858 :             //if ( opnd1->sym )
; 2859 :             //    opnd2->sym = opnd1->sym;
; 2860 :             //opnd2->instr = opnd1->instr;
; 2861 : 
; 2862 :             /* note: member type isn't copied, IOW: value of opnd1->type is kept. */
; 2863 :             TokenAssign( opnd1, opnd2 );

	movups	xmm0, XMMWORD PTR [rdi]

; 3139 :     } /* end switch( oper->token ) */
; 3140 : 
; 3141 : #ifdef DEBUG_OUT
; 3142 :     if ( opnd1->hlvalue ) {
; 3143 :         DebugMsg1(("%u calculate(%s) exit, ok kind=%d value=0x%" I64_SPEC "X_%016" I64_SPEC "X memtype=0x%X indirect=%u type=>%s<\n",
; 3144 :                    evallvl,
; 3145 :                    oper->string_ptr,
; 3146 :                    opnd1->kind,
; 3147 :                    opnd1->hlvalue, opnd1->llvalue,
; 3148 :                    opnd1->mem_type,
; 3149 :                    opnd1->indirect, opnd1->type ? opnd1->type->name : "NULL" ));
; 3150 :     } else if ( opnd1->hvalue ) {
; 3151 :         DebugMsg1(("%u calculate(%s) exit, ok kind=%d value=%" I64_SPEC"d(0x%" I64_SPEC "X) memtype=0x%X indirect=%u type=>%s<\n",
; 3152 :                    evallvl,
; 3153 :                    oper->string_ptr,
; 3154 :                    opnd1->kind,
; 3155 :                    opnd1->llvalue, opnd1->llvalue,
; 3156 :                    opnd1->mem_type,
; 3157 :                    opnd1->indirect, opnd1->type ? opnd1->type->name : "NULL" ));
; 3158 :     } else {
; 3159 :         DebugMsg1(("%u calculate(%s) exit, ok kind=%d value=%d(0x%X) memtype=0x%X ind=%u exp=%u type=%s mbr=%s\n",
; 3160 :                    evallvl,
; 3161 :                    oper->string_ptr,
; 3162 :                    opnd1->kind,
; 3163 :                    opnd1->value, opnd1->value,
; 3164 :                    opnd1->mem_type,
; 3165 :                    opnd1->indirect, opnd1->explicit,
; 3166 :                    opnd1->type ? opnd1->type->name : "NULL",
; 3167 :                    opnd1->mbr ? opnd1->mbr->name : "NULL" ));
; 3168 :     }
; 3169 : #endif
; 3170 :     return( NOT_ERROR );

	xor	eax, eax
	movups	XMMWORD PTR [rbx], xmm0
	movups	xmm1, XMMWORD PTR [rdi+16]
	movups	XMMWORD PTR [rbx+16], xmm1
	movups	xmm0, XMMWORD PTR [rdi+32]
	movups	XMMWORD PTR [rbx+32], xmm0
	movups	xmm1, XMMWORD PTR [rdi+48]
	movups	XMMWORD PTR [rbx+48], xmm1
	movups	xmm0, XMMWORD PTR [rdi+64]
	movups	XMMWORD PTR [rbx+64], xmm0
	movups	xmm1, XMMWORD PTR [rdi+80]
	movups	XMMWORD PTR [rbx+80], xmm1
	jmp	$LN180@calculate
$LN44@calculate:

; 2864 :             break;
; 2865 :         }
; 2866 : 
; 2867 :         MakeConst( opnd1 );

	mov	rcx, rbx
	call	MakeConst

; 2868 :         MakeConst( opnd2 );

	mov	rcx, rdi
	call	MakeConst

; 2869 : 
; 2870 :         if ( check_same( opnd1, opnd2, EXPR_CONST ) )

	mov	eax, DWORD PTR [rbx+60]
	test	eax, eax
	jne	SHORT $LN60@calculate
	cmp	DWORD PTR [rdi+60], esi
	je	$LN68@calculate
$LN60@calculate:

; 2871 :             ;
; 2872 :         /* if it's EQ, NE, LE [, ...], operands may be either constants
; 2873 :          or relocatable labels */
; 2874 :         else if ( oper->precedence == CMP_PRECEDENCE &&

	cmp	BYTE PTR [r14+1], 10
	jne	$LN62@calculate
	test	eax, eax
	je	$LN62@calculate

; 2875 :                  opnd1->kind != EXPR_CONST ) {
; 2876 :             if ( opnd1->kind == EXPR_ADDR && opnd1->indirect == FALSE && opnd1->sym )

	cmp	eax, 1
	jne	$LN64@calculate
	test	BYTE PTR [rbx+76], al
	jne	$LN64@calculate
	mov	rcx, QWORD PTR [rbx+80]
	test	rcx, rcx
	je	$LN64@calculate

; 2877 :                 if ( opnd2->kind == EXPR_ADDR && opnd2->indirect == FALSE && opnd2->sym ) {

	cmp	DWORD PTR [rdi+60], eax
	jne	$LN66@calculate
	test	BYTE PTR [rdi+76], al
	jne	$LN66@calculate
	mov	rdx, QWORD PTR [rdi+80]
	test	rdx, rdx
	je	$LN66@calculate

; 2878 :                     if ( MakeConst2( opnd1, opnd2 ) == ERROR ) {

	mov	r8d, DWORD PTR [rcx+32]
	cmp	r8d, 2
	jne	SHORT $LN161@calculate
	mov	rdx, QWORD PTR [rcx+8]
	mov	ecx, 193				; 000000c1H
	call	QWORD PTR fnEmitErr
	jmp	SHORT $LN160@calculate
$LN161@calculate:
	mov	rax, QWORD PTR [rdx+24]
	cmp	QWORD PTR [rcx+24], rax
	je	SHORT $LN165@calculate
	test	r8d, r8d
	je	SHORT $LN165@calculate
	cmp	DWORD PTR [rdx+32], esi
	jne	SHORT $LN164@calculate
$LN165@calculate:
	cmp	DWORD PTR [rdx+32], 2
	jne	SHORT $LN163@calculate
$LN164@calculate:
	mov	ecx, 192				; 000000c0H
	call	QWORD PTR fnEmitErr
$LN160@calculate:
	cmp	eax, -1
	jne	SHORT $LN68@calculate

; 2879 :                         DebugMsg(("calculate(%s) error 1\n", oper->string_ptr ));
; 2880 :                         return( ERROR );

	or	rax, -1
	jmp	$LN180@calculate

; 2878 :                     if ( MakeConst2( opnd1, opnd2 ) == ERROR ) {

$LN163@calculate:
	mov	DWORD PTR [rbx+60], esi
	mov	eax, DWORD PTR [rcx+16]
	add	DWORD PTR [rbx], eax
	mov	rax, QWORD PTR [rdi+80]
	mov	DWORD PTR [rdi+60], esi
	mov	ecx, DWORD PTR [rax+16]
	add	DWORD PTR [rdi], ecx
$LN68@calculate:

; 2895 :         }
; 2896 : 
; 2897 :         DebugMsg1(("calculate(%s): values=%" I64_SPEC "d/%" I64_SPEC "d is_type=%u/%u memtypes=%X/%X\n", oper->string_ptr,
; 2898 :                    opnd1->value64, opnd2->value64, opnd1->is_type, opnd2->is_type, opnd1->mem_type, opnd2->mem_type  ));
; 2899 :         switch( oper->tokval ) {

	mov	eax, DWORD PTR [r14+16]
	cmp	eax, 501				; 000001f5H
	ja	$LN130@calculate
	je	$LN94@calculate
	add	eax, -251				; ffffff05H
	cmp	eax, 6
	ja	$LN2@calculate
	mov	ecx, DWORD PTR $LN177@calculate[rbp+rax*4]
	add	rcx, rbp
	jmp	rcx
$LN69@calculate:

; 2900 :         case T_EQ:
; 2901 : #if 1 /* v2.03: added */
; 2902 :             /* if both operands are types, do a more comprehensive comparison! */
; 2903 :             if ( opnd1->is_type && opnd2->is_type ) {

	test	BYTE PTR [rbx+76], 8
	je	SHORT $LN70@calculate
	test	BYTE PTR [rdi+76], 8
	je	SHORT $LN70@calculate

; 2904 :                 cmp_types( opnd1, opnd2, -1 );

	or	r8, -1
	mov	rdx, rdi
	mov	rcx, rbx
	call	cmp_types

; 3139 :     } /* end switch( oper->token ) */
; 3140 : 
; 3141 : #ifdef DEBUG_OUT
; 3142 :     if ( opnd1->hlvalue ) {
; 3143 :         DebugMsg1(("%u calculate(%s) exit, ok kind=%d value=0x%" I64_SPEC "X_%016" I64_SPEC "X memtype=0x%X indirect=%u type=>%s<\n",
; 3144 :                    evallvl,
; 3145 :                    oper->string_ptr,
; 3146 :                    opnd1->kind,
; 3147 :                    opnd1->hlvalue, opnd1->llvalue,
; 3148 :                    opnd1->mem_type,
; 3149 :                    opnd1->indirect, opnd1->type ? opnd1->type->name : "NULL" ));
; 3150 :     } else if ( opnd1->hvalue ) {
; 3151 :         DebugMsg1(("%u calculate(%s) exit, ok kind=%d value=%" I64_SPEC"d(0x%" I64_SPEC "X) memtype=0x%X indirect=%u type=>%s<\n",
; 3152 :                    evallvl,
; 3153 :                    oper->string_ptr,
; 3154 :                    opnd1->kind,
; 3155 :                    opnd1->llvalue, opnd1->llvalue,
; 3156 :                    opnd1->mem_type,
; 3157 :                    opnd1->indirect, opnd1->type ? opnd1->type->name : "NULL" ));
; 3158 :     } else {
; 3159 :         DebugMsg1(("%u calculate(%s) exit, ok kind=%d value=%d(0x%X) memtype=0x%X ind=%u exp=%u type=%s mbr=%s\n",
; 3160 :                    evallvl,
; 3161 :                    oper->string_ptr,
; 3162 :                    opnd1->kind,
; 3163 :                    opnd1->value, opnd1->value,
; 3164 :                    opnd1->mem_type,
; 3165 :                    opnd1->indirect, opnd1->explicit,
; 3166 :                    opnd1->type ? opnd1->type->name : "NULL",
; 3167 :                    opnd1->mbr ? opnd1->mbr->name : "NULL" ));
; 3168 :     }
; 3169 : #endif
; 3170 :     return( NOT_ERROR );

	xor	eax, eax
	jmp	$LN180@calculate
$LN70@calculate:

; 2905 :             } else
; 2906 : #endif
; 2907 :             opnd1->value64 = ( opnd1->value64 == opnd2->value64 ? -1:0 );

	mov	rax, QWORD PTR [rdi]
	cmp	QWORD PTR [rbx], rax
	setne	sil
	dec	rsi
$LN185@calculate:
	mov	QWORD PTR [rbx], rsi

; 3139 :     } /* end switch( oper->token ) */
; 3140 : 
; 3141 : #ifdef DEBUG_OUT
; 3142 :     if ( opnd1->hlvalue ) {
; 3143 :         DebugMsg1(("%u calculate(%s) exit, ok kind=%d value=0x%" I64_SPEC "X_%016" I64_SPEC "X memtype=0x%X indirect=%u type=>%s<\n",
; 3144 :                    evallvl,
; 3145 :                    oper->string_ptr,
; 3146 :                    opnd1->kind,
; 3147 :                    opnd1->hlvalue, opnd1->llvalue,
; 3148 :                    opnd1->mem_type,
; 3149 :                    opnd1->indirect, opnd1->type ? opnd1->type->name : "NULL" ));
; 3150 :     } else if ( opnd1->hvalue ) {
; 3151 :         DebugMsg1(("%u calculate(%s) exit, ok kind=%d value=%" I64_SPEC"d(0x%" I64_SPEC "X) memtype=0x%X indirect=%u type=>%s<\n",
; 3152 :                    evallvl,
; 3153 :                    oper->string_ptr,
; 3154 :                    opnd1->kind,
; 3155 :                    opnd1->llvalue, opnd1->llvalue,
; 3156 :                    opnd1->mem_type,
; 3157 :                    opnd1->indirect, opnd1->type ? opnd1->type->name : "NULL" ));
; 3158 :     } else {
; 3159 :         DebugMsg1(("%u calculate(%s) exit, ok kind=%d value=%d(0x%X) memtype=0x%X ind=%u exp=%u type=%s mbr=%s\n",
; 3160 :                    evallvl,
; 3161 :                    oper->string_ptr,
; 3162 :                    opnd1->kind,
; 3163 :                    opnd1->value, opnd1->value,
; 3164 :                    opnd1->mem_type,
; 3165 :                    opnd1->indirect, opnd1->explicit,
; 3166 :                    opnd1->type ? opnd1->type->name : "NULL",
; 3167 :                    opnd1->mbr ? opnd1->mbr->name : "NULL" ));
; 3168 :     }
; 3169 : #endif
; 3170 :     return( NOT_ERROR );

	xor	eax, eax
	jmp	$LN180@calculate
$LN72@calculate:

; 2908 :             break;
; 2909 :         case T_NE:
; 2910 : #if 1 /* v2.03: added */
; 2911 :             /* if both operands are types, do a more comprehensive comparison! */
; 2912 :             if ( opnd1->is_type && opnd2->is_type ) {

	test	BYTE PTR [rbx+76], 8
	je	SHORT $LN73@calculate
	test	BYTE PTR [rdi+76], 8
	je	SHORT $LN73@calculate

; 2913 :                 cmp_types( opnd1, opnd2, 0 );

	xor	r8d, r8d
	mov	rdx, rdi
	mov	rcx, rbx
	call	cmp_types

; 3139 :     } /* end switch( oper->token ) */
; 3140 : 
; 3141 : #ifdef DEBUG_OUT
; 3142 :     if ( opnd1->hlvalue ) {
; 3143 :         DebugMsg1(("%u calculate(%s) exit, ok kind=%d value=0x%" I64_SPEC "X_%016" I64_SPEC "X memtype=0x%X indirect=%u type=>%s<\n",
; 3144 :                    evallvl,
; 3145 :                    oper->string_ptr,
; 3146 :                    opnd1->kind,
; 3147 :                    opnd1->hlvalue, opnd1->llvalue,
; 3148 :                    opnd1->mem_type,
; 3149 :                    opnd1->indirect, opnd1->type ? opnd1->type->name : "NULL" ));
; 3150 :     } else if ( opnd1->hvalue ) {
; 3151 :         DebugMsg1(("%u calculate(%s) exit, ok kind=%d value=%" I64_SPEC"d(0x%" I64_SPEC "X) memtype=0x%X indirect=%u type=>%s<\n",
; 3152 :                    evallvl,
; 3153 :                    oper->string_ptr,
; 3154 :                    opnd1->kind,
; 3155 :                    opnd1->llvalue, opnd1->llvalue,
; 3156 :                    opnd1->mem_type,
; 3157 :                    opnd1->indirect, opnd1->type ? opnd1->type->name : "NULL" ));
; 3158 :     } else {
; 3159 :         DebugMsg1(("%u calculate(%s) exit, ok kind=%d value=%d(0x%X) memtype=0x%X ind=%u exp=%u type=%s mbr=%s\n",
; 3160 :                    evallvl,
; 3161 :                    oper->string_ptr,
; 3162 :                    opnd1->kind,
; 3163 :                    opnd1->value, opnd1->value,
; 3164 :                    opnd1->mem_type,
; 3165 :                    opnd1->indirect, opnd1->explicit,
; 3166 :                    opnd1->type ? opnd1->type->name : "NULL",
; 3167 :                    opnd1->mbr ? opnd1->mbr->name : "NULL" ));
; 3168 :     }
; 3169 : #endif
; 3170 :     return( NOT_ERROR );

	xor	eax, eax
	jmp	$LN180@calculate
$LN73@calculate:

; 2914 :             } else
; 2915 : #endif
; 2916 :             opnd1->value64 = ( opnd1->value64 != opnd2->value64 ? -1:0 );

	mov	rax, QWORD PTR [rbx]
	sub	rax, QWORD PTR [rdi]
	neg	rax
	sbb	rax, rax

; 3007 :             opnd1->llvalue = ~(opnd2->llvalue);

	mov	QWORD PTR [rbx], rax

; 3139 :     } /* end switch( oper->token ) */
; 3140 : 
; 3141 : #ifdef DEBUG_OUT
; 3142 :     if ( opnd1->hlvalue ) {
; 3143 :         DebugMsg1(("%u calculate(%s) exit, ok kind=%d value=0x%" I64_SPEC "X_%016" I64_SPEC "X memtype=0x%X indirect=%u type=>%s<\n",
; 3144 :                    evallvl,
; 3145 :                    oper->string_ptr,
; 3146 :                    opnd1->kind,
; 3147 :                    opnd1->hlvalue, opnd1->llvalue,
; 3148 :                    opnd1->mem_type,
; 3149 :                    opnd1->indirect, opnd1->type ? opnd1->type->name : "NULL" ));
; 3150 :     } else if ( opnd1->hvalue ) {
; 3151 :         DebugMsg1(("%u calculate(%s) exit, ok kind=%d value=%" I64_SPEC"d(0x%" I64_SPEC "X) memtype=0x%X indirect=%u type=>%s<\n",
; 3152 :                    evallvl,
; 3153 :                    oper->string_ptr,
; 3154 :                    opnd1->kind,
; 3155 :                    opnd1->llvalue, opnd1->llvalue,
; 3156 :                    opnd1->mem_type,
; 3157 :                    opnd1->indirect, opnd1->type ? opnd1->type->name : "NULL" ));
; 3158 :     } else {
; 3159 :         DebugMsg1(("%u calculate(%s) exit, ok kind=%d value=%d(0x%X) memtype=0x%X ind=%u exp=%u type=%s mbr=%s\n",
; 3160 :                    evallvl,
; 3161 :                    oper->string_ptr,
; 3162 :                    opnd1->kind,
; 3163 :                    opnd1->value, opnd1->value,
; 3164 :                    opnd1->mem_type,
; 3165 :                    opnd1->indirect, opnd1->explicit,
; 3166 :                    opnd1->type ? opnd1->type->name : "NULL",
; 3167 :                    opnd1->mbr ? opnd1->mbr->name : "NULL" ));
; 3168 :     }
; 3169 : #endif
; 3170 :     return( NOT_ERROR );

	xor	eax, eax
	jmp	$LN180@calculate
$LN75@calculate:

; 2917 :             break;
; 2918 :         case T_LT:
; 2919 :             opnd1->value64 = ( opnd1->value64 <  opnd2->value64 ? -1:0 );

	mov	rax, QWORD PTR [rdi]
	cmp	QWORD PTR [rbx], rax
	setge	sil
	dec	rsi
	mov	QWORD PTR [rbx], rsi

; 3139 :     } /* end switch( oper->token ) */
; 3140 : 
; 3141 : #ifdef DEBUG_OUT
; 3142 :     if ( opnd1->hlvalue ) {
; 3143 :         DebugMsg1(("%u calculate(%s) exit, ok kind=%d value=0x%" I64_SPEC "X_%016" I64_SPEC "X memtype=0x%X indirect=%u type=>%s<\n",
; 3144 :                    evallvl,
; 3145 :                    oper->string_ptr,
; 3146 :                    opnd1->kind,
; 3147 :                    opnd1->hlvalue, opnd1->llvalue,
; 3148 :                    opnd1->mem_type,
; 3149 :                    opnd1->indirect, opnd1->type ? opnd1->type->name : "NULL" ));
; 3150 :     } else if ( opnd1->hvalue ) {
; 3151 :         DebugMsg1(("%u calculate(%s) exit, ok kind=%d value=%" I64_SPEC"d(0x%" I64_SPEC "X) memtype=0x%X indirect=%u type=>%s<\n",
; 3152 :                    evallvl,
; 3153 :                    oper->string_ptr,
; 3154 :                    opnd1->kind,
; 3155 :                    opnd1->llvalue, opnd1->llvalue,
; 3156 :                    opnd1->mem_type,
; 3157 :                    opnd1->indirect, opnd1->type ? opnd1->type->name : "NULL" ));
; 3158 :     } else {
; 3159 :         DebugMsg1(("%u calculate(%s) exit, ok kind=%d value=%d(0x%X) memtype=0x%X ind=%u exp=%u type=%s mbr=%s\n",
; 3160 :                    evallvl,
; 3161 :                    oper->string_ptr,
; 3162 :                    opnd1->kind,
; 3163 :                    opnd1->value, opnd1->value,
; 3164 :                    opnd1->mem_type,
; 3165 :                    opnd1->indirect, opnd1->explicit,
; 3166 :                    opnd1->type ? opnd1->type->name : "NULL",
; 3167 :                    opnd1->mbr ? opnd1->mbr->name : "NULL" ));
; 3168 :     }
; 3169 : #endif
; 3170 :     return( NOT_ERROR );

	xor	eax, eax
	jmp	$LN180@calculate
$LN76@calculate:

; 2920 :             break;
; 2921 :         case T_LE:
; 2922 :             opnd1->value64 = ( opnd1->value64 <= opnd2->value64 ? -1:0 );

	mov	rax, QWORD PTR [rdi]
	cmp	QWORD PTR [rbx], rax
	setg	sil
	dec	rsi
	mov	QWORD PTR [rbx], rsi

; 3139 :     } /* end switch( oper->token ) */
; 3140 : 
; 3141 : #ifdef DEBUG_OUT
; 3142 :     if ( opnd1->hlvalue ) {
; 3143 :         DebugMsg1(("%u calculate(%s) exit, ok kind=%d value=0x%" I64_SPEC "X_%016" I64_SPEC "X memtype=0x%X indirect=%u type=>%s<\n",
; 3144 :                    evallvl,
; 3145 :                    oper->string_ptr,
; 3146 :                    opnd1->kind,
; 3147 :                    opnd1->hlvalue, opnd1->llvalue,
; 3148 :                    opnd1->mem_type,
; 3149 :                    opnd1->indirect, opnd1->type ? opnd1->type->name : "NULL" ));
; 3150 :     } else if ( opnd1->hvalue ) {
; 3151 :         DebugMsg1(("%u calculate(%s) exit, ok kind=%d value=%" I64_SPEC"d(0x%" I64_SPEC "X) memtype=0x%X indirect=%u type=>%s<\n",
; 3152 :                    evallvl,
; 3153 :                    oper->string_ptr,
; 3154 :                    opnd1->kind,
; 3155 :                    opnd1->llvalue, opnd1->llvalue,
; 3156 :                    opnd1->mem_type,
; 3157 :                    opnd1->indirect, opnd1->type ? opnd1->type->name : "NULL" ));
; 3158 :     } else {
; 3159 :         DebugMsg1(("%u calculate(%s) exit, ok kind=%d value=%d(0x%X) memtype=0x%X ind=%u exp=%u type=%s mbr=%s\n",
; 3160 :                    evallvl,
; 3161 :                    oper->string_ptr,
; 3162 :                    opnd1->kind,
; 3163 :                    opnd1->value, opnd1->value,
; 3164 :                    opnd1->mem_type,
; 3165 :                    opnd1->indirect, opnd1->explicit,
; 3166 :                    opnd1->type ? opnd1->type->name : "NULL",
; 3167 :                    opnd1->mbr ? opnd1->mbr->name : "NULL" ));
; 3168 :     }
; 3169 : #endif
; 3170 :     return( NOT_ERROR );

	xor	eax, eax
	jmp	$LN180@calculate
$LN77@calculate:

; 2923 :             break;
; 2924 :         case T_GT:
; 2925 :             opnd1->value64 = ( opnd1->value64 >  opnd2->value64 ? -1:0 );

	mov	rax, QWORD PTR [rdi]
	cmp	QWORD PTR [rbx], rax
	setle	sil
	dec	rsi
	mov	QWORD PTR [rbx], rsi

; 3139 :     } /* end switch( oper->token ) */
; 3140 : 
; 3141 : #ifdef DEBUG_OUT
; 3142 :     if ( opnd1->hlvalue ) {
; 3143 :         DebugMsg1(("%u calculate(%s) exit, ok kind=%d value=0x%" I64_SPEC "X_%016" I64_SPEC "X memtype=0x%X indirect=%u type=>%s<\n",
; 3144 :                    evallvl,
; 3145 :                    oper->string_ptr,
; 3146 :                    opnd1->kind,
; 3147 :                    opnd1->hlvalue, opnd1->llvalue,
; 3148 :                    opnd1->mem_type,
; 3149 :                    opnd1->indirect, opnd1->type ? opnd1->type->name : "NULL" ));
; 3150 :     } else if ( opnd1->hvalue ) {
; 3151 :         DebugMsg1(("%u calculate(%s) exit, ok kind=%d value=%" I64_SPEC"d(0x%" I64_SPEC "X) memtype=0x%X indirect=%u type=>%s<\n",
; 3152 :                    evallvl,
; 3153 :                    oper->string_ptr,
; 3154 :                    opnd1->kind,
; 3155 :                    opnd1->llvalue, opnd1->llvalue,
; 3156 :                    opnd1->mem_type,
; 3157 :                    opnd1->indirect, opnd1->type ? opnd1->type->name : "NULL" ));
; 3158 :     } else {
; 3159 :         DebugMsg1(("%u calculate(%s) exit, ok kind=%d value=%d(0x%X) memtype=0x%X ind=%u exp=%u type=%s mbr=%s\n",
; 3160 :                    evallvl,
; 3161 :                    oper->string_ptr,
; 3162 :                    opnd1->kind,
; 3163 :                    opnd1->value, opnd1->value,
; 3164 :                    opnd1->mem_type,
; 3165 :                    opnd1->indirect, opnd1->explicit,
; 3166 :                    opnd1->type ? opnd1->type->name : "NULL",
; 3167 :                    opnd1->mbr ? opnd1->mbr->name : "NULL" ));
; 3168 :     }
; 3169 : #endif
; 3170 :     return( NOT_ERROR );

	xor	eax, eax
	jmp	$LN180@calculate
$LN78@calculate:

; 2926 :             break;
; 2927 :         case T_GE:
; 2928 :             opnd1->value64 = ( opnd1->value64 >= opnd2->value64 ? -1:0 );

	mov	rax, QWORD PTR [rdi]
	cmp	QWORD PTR [rbx], rax
	setl	sil
	dec	rsi
	mov	QWORD PTR [rbx], rsi

; 3139 :     } /* end switch( oper->token ) */
; 3140 : 
; 3141 : #ifdef DEBUG_OUT
; 3142 :     if ( opnd1->hlvalue ) {
; 3143 :         DebugMsg1(("%u calculate(%s) exit, ok kind=%d value=0x%" I64_SPEC "X_%016" I64_SPEC "X memtype=0x%X indirect=%u type=>%s<\n",
; 3144 :                    evallvl,
; 3145 :                    oper->string_ptr,
; 3146 :                    opnd1->kind,
; 3147 :                    opnd1->hlvalue, opnd1->llvalue,
; 3148 :                    opnd1->mem_type,
; 3149 :                    opnd1->indirect, opnd1->type ? opnd1->type->name : "NULL" ));
; 3150 :     } else if ( opnd1->hvalue ) {
; 3151 :         DebugMsg1(("%u calculate(%s) exit, ok kind=%d value=%" I64_SPEC"d(0x%" I64_SPEC "X) memtype=0x%X indirect=%u type=>%s<\n",
; 3152 :                    evallvl,
; 3153 :                    oper->string_ptr,
; 3154 :                    opnd1->kind,
; 3155 :                    opnd1->llvalue, opnd1->llvalue,
; 3156 :                    opnd1->mem_type,
; 3157 :                    opnd1->indirect, opnd1->type ? opnd1->type->name : "NULL" ));
; 3158 :     } else {
; 3159 :         DebugMsg1(("%u calculate(%s) exit, ok kind=%d value=%d(0x%X) memtype=0x%X ind=%u exp=%u type=%s mbr=%s\n",
; 3160 :                    evallvl,
; 3161 :                    oper->string_ptr,
; 3162 :                    opnd1->kind,
; 3163 :                    opnd1->value, opnd1->value,
; 3164 :                    opnd1->mem_type,
; 3165 :                    opnd1->indirect, opnd1->explicit,
; 3166 :                    opnd1->type ? opnd1->type->name : "NULL",
; 3167 :                    opnd1->mbr ? opnd1->mbr->name : "NULL" ));
; 3168 :     }
; 3169 : #endif
; 3170 :     return( NOT_ERROR );

	xor	eax, eax
	jmp	$LN180@calculate
$LN79@calculate:

; 2929 :             break;
; 2930 :         case T_MOD:
; 2931 :             if ( opnd2->llvalue == 0 ) {

	mov	rcx, QWORD PTR [rdi]
	test	rcx, rcx
	jne	SHORT $LN80@calculate
$LN188@calculate:

; 2932 :                 return( fnEmitErr( DIVIDE_BY_ZERO_IN_EXPR ) );

	mov	ecx, 167				; 000000a7H
	call	QWORD PTR fnEmitErr
	jmp	$LN180@calculate
$LN80@calculate:

; 2933 :             } else
; 2934 :                 opnd1->llvalue %= opnd2->llvalue;

	mov	rax, QWORD PTR [rbx]
	xor	edx, edx
	div	rcx

; 3139 :     } /* end switch( oper->token ) */
; 3140 : 
; 3141 : #ifdef DEBUG_OUT
; 3142 :     if ( opnd1->hlvalue ) {
; 3143 :         DebugMsg1(("%u calculate(%s) exit, ok kind=%d value=0x%" I64_SPEC "X_%016" I64_SPEC "X memtype=0x%X indirect=%u type=>%s<\n",
; 3144 :                    evallvl,
; 3145 :                    oper->string_ptr,
; 3146 :                    opnd1->kind,
; 3147 :                    opnd1->hlvalue, opnd1->llvalue,
; 3148 :                    opnd1->mem_type,
; 3149 :                    opnd1->indirect, opnd1->type ? opnd1->type->name : "NULL" ));
; 3150 :     } else if ( opnd1->hvalue ) {
; 3151 :         DebugMsg1(("%u calculate(%s) exit, ok kind=%d value=%" I64_SPEC"d(0x%" I64_SPEC "X) memtype=0x%X indirect=%u type=>%s<\n",
; 3152 :                    evallvl,
; 3153 :                    oper->string_ptr,
; 3154 :                    opnd1->kind,
; 3155 :                    opnd1->llvalue, opnd1->llvalue,
; 3156 :                    opnd1->mem_type,
; 3157 :                    opnd1->indirect, opnd1->type ? opnd1->type->name : "NULL" ));
; 3158 :     } else {
; 3159 :         DebugMsg1(("%u calculate(%s) exit, ok kind=%d value=%d(0x%X) memtype=0x%X ind=%u exp=%u type=%s mbr=%s\n",
; 3160 :                    evallvl,
; 3161 :                    oper->string_ptr,
; 3162 :                    opnd1->kind,
; 3163 :                    opnd1->value, opnd1->value,
; 3164 :                    opnd1->mem_type,
; 3165 :                    opnd1->indirect, opnd1->explicit,
; 3166 :                    opnd1->type ? opnd1->type->name : "NULL",
; 3167 :                    opnd1->mbr ? opnd1->mbr->name : "NULL" ));
; 3168 :     }
; 3169 : #endif
; 3170 :     return( NOT_ERROR );

	xor	eax, eax
	mov	QWORD PTR [rbx], rdx
	jmp	$LN180@calculate
$LN94@calculate:

; 2980 :             break;
; 2981 :         case T_OR:
; 2982 :             opnd1->llvalue |= opnd2->llvalue;

	mov	rax, QWORD PTR [rdi]
	or	QWORD PTR [rbx], rax

; 3139 :     } /* end switch( oper->token ) */
; 3140 : 
; 3141 : #ifdef DEBUG_OUT
; 3142 :     if ( opnd1->hlvalue ) {
; 3143 :         DebugMsg1(("%u calculate(%s) exit, ok kind=%d value=0x%" I64_SPEC "X_%016" I64_SPEC "X memtype=0x%X indirect=%u type=>%s<\n",
; 3144 :                    evallvl,
; 3145 :                    oper->string_ptr,
; 3146 :                    opnd1->kind,
; 3147 :                    opnd1->hlvalue, opnd1->llvalue,
; 3148 :                    opnd1->mem_type,
; 3149 :                    opnd1->indirect, opnd1->type ? opnd1->type->name : "NULL" ));
; 3150 :     } else if ( opnd1->hvalue ) {
; 3151 :         DebugMsg1(("%u calculate(%s) exit, ok kind=%d value=%" I64_SPEC"d(0x%" I64_SPEC "X) memtype=0x%X indirect=%u type=>%s<\n",
; 3152 :                    evallvl,
; 3153 :                    oper->string_ptr,
; 3154 :                    opnd1->kind,
; 3155 :                    opnd1->llvalue, opnd1->llvalue,
; 3156 :                    opnd1->mem_type,
; 3157 :                    opnd1->indirect, opnd1->type ? opnd1->type->name : "NULL" ));
; 3158 :     } else {
; 3159 :         DebugMsg1(("%u calculate(%s) exit, ok kind=%d value=%d(0x%X) memtype=0x%X ind=%u exp=%u type=%s mbr=%s\n",
; 3160 :                    evallvl,
; 3161 :                    oper->string_ptr,
; 3162 :                    opnd1->kind,
; 3163 :                    opnd1->value, opnd1->value,
; 3164 :                    opnd1->mem_type,
; 3165 :                    opnd1->indirect, opnd1->explicit,
; 3166 :                    opnd1->type ? opnd1->type->name : "NULL",
; 3167 :                    opnd1->mbr ? opnd1->mbr->name : "NULL" ));
; 3168 :     }
; 3169 : #endif
; 3170 :     return( NOT_ERROR );

	xor	eax, eax
	jmp	$LN180@calculate
$LN130@calculate:

; 2895 :         }
; 2896 : 
; 2897 :         DebugMsg1(("calculate(%s): values=%" I64_SPEC "d/%" I64_SPEC "d is_type=%u/%u memtypes=%X/%X\n", oper->string_ptr,
; 2898 :                    opnd1->value64, opnd2->value64, opnd1->is_type, opnd2->is_type, opnd1->mem_type, opnd2->mem_type  ));
; 2899 :         switch( oper->tokval ) {

	sub	eax, 504				; 000001f8H
	je	$LN93@calculate
	sub	eax, 2
	je	SHORT $LN95@calculate
	sub	eax, 8
	je	SHORT $LN82@calculate
	cmp	eax, 1
	jne	$LN2@calculate

; 2954 :                 opnd1->hlvalue = 0;
; 2955 :             }
; 2956 :             break;
; 2957 :         case T_SHR:
; 2958 :             /* Masm v8 works with unsigned 64-bit,
; 2959 :              * Masm v6 masks shift count with 0x3F.
; 2960 :              * v2.04: does behave like Masm v8+.
; 2961 :              * there is a problem with some compilers if shift
; 2962 :              * count is >= 64. So in this case the result is zeroed manually
; 2963 :              */
; 2964 : #if 0
; 2965 :             if ( opnd1->hvalue == -1 ) {
; 2966 :                 opnd1->hvalue = 0;
; 2967 :                 opnd1->hlvalue = 0;
; 2968 :             }
; 2969 : #endif
; 2970 :             /* v2.04: check for shift count < 0 */
; 2971 :             if ( opnd2->value < 0 )

	movsxd	rcx, DWORD PTR [rdi]
	test	ecx, ecx
	jns	SHORT $LN89@calculate

; 2972 :                 fnEmitErr( COUNT_MUST_BE_POSITIVE_OR_ZERO );

	mov	ecx, 208				; 000000d0H
	call	QWORD PTR fnEmitErr

; 3139 :     } /* end switch( oper->token ) */
; 3140 : 
; 3141 : #ifdef DEBUG_OUT
; 3142 :     if ( opnd1->hlvalue ) {
; 3143 :         DebugMsg1(("%u calculate(%s) exit, ok kind=%d value=0x%" I64_SPEC "X_%016" I64_SPEC "X memtype=0x%X indirect=%u type=>%s<\n",
; 3144 :                    evallvl,
; 3145 :                    oper->string_ptr,
; 3146 :                    opnd1->kind,
; 3147 :                    opnd1->hlvalue, opnd1->llvalue,
; 3148 :                    opnd1->mem_type,
; 3149 :                    opnd1->indirect, opnd1->type ? opnd1->type->name : "NULL" ));
; 3150 :     } else if ( opnd1->hvalue ) {
; 3151 :         DebugMsg1(("%u calculate(%s) exit, ok kind=%d value=%" I64_SPEC"d(0x%" I64_SPEC "X) memtype=0x%X indirect=%u type=>%s<\n",
; 3152 :                    evallvl,
; 3153 :                    oper->string_ptr,
; 3154 :                    opnd1->kind,
; 3155 :                    opnd1->llvalue, opnd1->llvalue,
; 3156 :                    opnd1->mem_type,
; 3157 :                    opnd1->indirect, opnd1->type ? opnd1->type->name : "NULL" ));
; 3158 :     } else {
; 3159 :         DebugMsg1(("%u calculate(%s) exit, ok kind=%d value=%d(0x%X) memtype=0x%X ind=%u exp=%u type=%s mbr=%s\n",
; 3160 :                    evallvl,
; 3161 :                    oper->string_ptr,
; 3162 :                    opnd1->kind,
; 3163 :                    opnd1->value, opnd1->value,
; 3164 :                    opnd1->mem_type,
; 3165 :                    opnd1->indirect, opnd1->explicit,
; 3166 :                    opnd1->type ? opnd1->type->name : "NULL",
; 3167 :                    opnd1->mbr ? opnd1->mbr->name : "NULL" ));
; 3168 :     }
; 3169 : #endif
; 3170 :     return( NOT_ERROR );

	xor	eax, eax
	jmp	$LN180@calculate
$LN89@calculate:

; 2973 :             else if ( opnd2->value >= ( 8 * sizeof( opnd1->llvalue ) ) )

	cmp	rcx, 64					; 00000040H
	jae	$LN185@calculate

; 2974 :                 opnd1->llvalue = 0;
; 2975 :             else
; 2976 :                 opnd1->llvalue = opnd1->llvalue >> opnd2->value;

	shr	QWORD PTR [rbx], cl

; 3139 :     } /* end switch( oper->token ) */
; 3140 : 
; 3141 : #ifdef DEBUG_OUT
; 3142 :     if ( opnd1->hlvalue ) {
; 3143 :         DebugMsg1(("%u calculate(%s) exit, ok kind=%d value=0x%" I64_SPEC "X_%016" I64_SPEC "X memtype=0x%X indirect=%u type=>%s<\n",
; 3144 :                    evallvl,
; 3145 :                    oper->string_ptr,
; 3146 :                    opnd1->kind,
; 3147 :                    opnd1->hlvalue, opnd1->llvalue,
; 3148 :                    opnd1->mem_type,
; 3149 :                    opnd1->indirect, opnd1->type ? opnd1->type->name : "NULL" ));
; 3150 :     } else if ( opnd1->hvalue ) {
; 3151 :         DebugMsg1(("%u calculate(%s) exit, ok kind=%d value=%" I64_SPEC"d(0x%" I64_SPEC "X) memtype=0x%X indirect=%u type=>%s<\n",
; 3152 :                    evallvl,
; 3153 :                    oper->string_ptr,
; 3154 :                    opnd1->kind,
; 3155 :                    opnd1->llvalue, opnd1->llvalue,
; 3156 :                    opnd1->mem_type,
; 3157 :                    opnd1->indirect, opnd1->type ? opnd1->type->name : "NULL" ));
; 3158 :     } else {
; 3159 :         DebugMsg1(("%u calculate(%s) exit, ok kind=%d value=%d(0x%X) memtype=0x%X ind=%u exp=%u type=%s mbr=%s\n",
; 3160 :                    evallvl,
; 3161 :                    oper->string_ptr,
; 3162 :                    opnd1->kind,
; 3163 :                    opnd1->value, opnd1->value,
; 3164 :                    opnd1->mem_type,
; 3165 :                    opnd1->indirect, opnd1->explicit,
; 3166 :                    opnd1->type ? opnd1->type->name : "NULL",
; 3167 :                    opnd1->mbr ? opnd1->mbr->name : "NULL" ));
; 3168 :     }
; 3169 : #endif
; 3170 :     return( NOT_ERROR );

	xor	eax, eax
	jmp	$LN180@calculate
$LN82@calculate:

; 2935 :             break;
; 2936 :         case T_SHL:
; 2937 :             /* v2.04: check for shift count < 0 */
; 2938 :             DebugMsg1(("calculate(SHL): value=%" I64_SPEC "X << %" I32_SPEC "u (max=%u)\n", opnd1->llvalue, opnd2->value, 8 * sizeof( opnd1->llvalue ) ));
; 2939 :             if ( opnd2->value < 0 )

	movsxd	rcx, DWORD PTR [rdi]
	test	ecx, ecx
	jns	SHORT $LN83@calculate

; 2940 :                 fnEmitErr( COUNT_MUST_BE_POSITIVE_OR_ZERO );

	mov	ecx, 208				; 000000d0H
	call	QWORD PTR fnEmitErr
	jmp	SHORT $LN86@calculate
$LN83@calculate:

; 2941 :             else if ( opnd2->value >= ( 8 * sizeof( opnd1->llvalue ) ) )

	cmp	rcx, 64					; 00000040H
	jb	SHORT $LN85@calculate

; 2942 :                 opnd1->llvalue = 0;

	mov	QWORD PTR [rbx], rsi
	jmp	SHORT $LN86@calculate
$LN85@calculate:

; 2943 :             else
; 2944 :                 opnd1->llvalue = opnd1->llvalue << opnd2->value;

	shl	QWORD PTR [rbx], cl
$LN86@calculate:

; 2945 :             /* v2.01: result is 64-bit only if mode is USE64 */
; 2946 :             /* v2.06: for -Zm only. This is not entirely correct,
; 2947 :              * since Masm v6x also does 32-bit shifts, but since v2.06
; 2948 :              * HJWasm intends to behave like Masm v8+.
; 2949 :              * Might be better to implement OPTION EXPR16|32|64.
; 2950 :              */
; 2951 :             //if ( ModuleInfo.Ofssize <= USE32 ) {
; 2952 :             if ( ModuleInfo.m510 ) {

	test	BYTE PTR ModuleInfo+408, 64		; 00000040H
	je	$LN2@calculate

; 2953 :                 opnd1->hvalue = 0;

	mov	DWORD PTR [rbx+4], esi

; 3139 :     } /* end switch( oper->token ) */
; 3140 : 
; 3141 : #ifdef DEBUG_OUT
; 3142 :     if ( opnd1->hlvalue ) {
; 3143 :         DebugMsg1(("%u calculate(%s) exit, ok kind=%d value=0x%" I64_SPEC "X_%016" I64_SPEC "X memtype=0x%X indirect=%u type=>%s<\n",
; 3144 :                    evallvl,
; 3145 :                    oper->string_ptr,
; 3146 :                    opnd1->kind,
; 3147 :                    opnd1->hlvalue, opnd1->llvalue,
; 3148 :                    opnd1->mem_type,
; 3149 :                    opnd1->indirect, opnd1->type ? opnd1->type->name : "NULL" ));
; 3150 :     } else if ( opnd1->hvalue ) {
; 3151 :         DebugMsg1(("%u calculate(%s) exit, ok kind=%d value=%" I64_SPEC"d(0x%" I64_SPEC "X) memtype=0x%X indirect=%u type=>%s<\n",
; 3152 :                    evallvl,
; 3153 :                    oper->string_ptr,
; 3154 :                    opnd1->kind,
; 3155 :                    opnd1->llvalue, opnd1->llvalue,
; 3156 :                    opnd1->mem_type,
; 3157 :                    opnd1->indirect, opnd1->type ? opnd1->type->name : "NULL" ));
; 3158 :     } else {
; 3159 :         DebugMsg1(("%u calculate(%s) exit, ok kind=%d value=%d(0x%X) memtype=0x%X ind=%u exp=%u type=%s mbr=%s\n",
; 3160 :                    evallvl,
; 3161 :                    oper->string_ptr,
; 3162 :                    opnd1->kind,
; 3163 :                    opnd1->value, opnd1->value,
; 3164 :                    opnd1->mem_type,
; 3165 :                    opnd1->indirect, opnd1->explicit,
; 3166 :                    opnd1->type ? opnd1->type->name : "NULL",
; 3167 :                    opnd1->mbr ? opnd1->mbr->name : "NULL" ));
; 3168 :     }
; 3169 : #endif
; 3170 :     return( NOT_ERROR );

	xor	eax, eax
	mov	QWORD PTR [rbx+8], rsi
	jmp	$LN180@calculate
$LN95@calculate:

; 2983 :             break;
; 2984 :         case T_XOR:
; 2985 :             opnd1->llvalue ^= opnd2->llvalue;

	mov	rax, QWORD PTR [rdi]
	xor	QWORD PTR [rbx], rax

; 3139 :     } /* end switch( oper->token ) */
; 3140 : 
; 3141 : #ifdef DEBUG_OUT
; 3142 :     if ( opnd1->hlvalue ) {
; 3143 :         DebugMsg1(("%u calculate(%s) exit, ok kind=%d value=0x%" I64_SPEC "X_%016" I64_SPEC "X memtype=0x%X indirect=%u type=>%s<\n",
; 3144 :                    evallvl,
; 3145 :                    oper->string_ptr,
; 3146 :                    opnd1->kind,
; 3147 :                    opnd1->hlvalue, opnd1->llvalue,
; 3148 :                    opnd1->mem_type,
; 3149 :                    opnd1->indirect, opnd1->type ? opnd1->type->name : "NULL" ));
; 3150 :     } else if ( opnd1->hvalue ) {
; 3151 :         DebugMsg1(("%u calculate(%s) exit, ok kind=%d value=%" I64_SPEC"d(0x%" I64_SPEC "X) memtype=0x%X indirect=%u type=>%s<\n",
; 3152 :                    evallvl,
; 3153 :                    oper->string_ptr,
; 3154 :                    opnd1->kind,
; 3155 :                    opnd1->llvalue, opnd1->llvalue,
; 3156 :                    opnd1->mem_type,
; 3157 :                    opnd1->indirect, opnd1->type ? opnd1->type->name : "NULL" ));
; 3158 :     } else {
; 3159 :         DebugMsg1(("%u calculate(%s) exit, ok kind=%d value=%d(0x%X) memtype=0x%X ind=%u exp=%u type=%s mbr=%s\n",
; 3160 :                    evallvl,
; 3161 :                    oper->string_ptr,
; 3162 :                    opnd1->kind,
; 3163 :                    opnd1->value, opnd1->value,
; 3164 :                    opnd1->mem_type,
; 3165 :                    opnd1->indirect, opnd1->explicit,
; 3166 :                    opnd1->type ? opnd1->type->name : "NULL",
; 3167 :                    opnd1->mbr ? opnd1->mbr->name : "NULL" ));
; 3168 :     }
; 3169 : #endif
; 3170 :     return( NOT_ERROR );

	xor	eax, eax
	jmp	$LN180@calculate
$LN93@calculate:

; 2977 :             break;
; 2978 :         case T_AND:
; 2979 :             opnd1->llvalue &= opnd2->llvalue;

	mov	rax, QWORD PTR [rdi]
	and	QWORD PTR [rbx], rax

; 3139 :     } /* end switch( oper->token ) */
; 3140 : 
; 3141 : #ifdef DEBUG_OUT
; 3142 :     if ( opnd1->hlvalue ) {
; 3143 :         DebugMsg1(("%u calculate(%s) exit, ok kind=%d value=0x%" I64_SPEC "X_%016" I64_SPEC "X memtype=0x%X indirect=%u type=>%s<\n",
; 3144 :                    evallvl,
; 3145 :                    oper->string_ptr,
; 3146 :                    opnd1->kind,
; 3147 :                    opnd1->hlvalue, opnd1->llvalue,
; 3148 :                    opnd1->mem_type,
; 3149 :                    opnd1->indirect, opnd1->type ? opnd1->type->name : "NULL" ));
; 3150 :     } else if ( opnd1->hvalue ) {
; 3151 :         DebugMsg1(("%u calculate(%s) exit, ok kind=%d value=%" I64_SPEC"d(0x%" I64_SPEC "X) memtype=0x%X indirect=%u type=>%s<\n",
; 3152 :                    evallvl,
; 3153 :                    oper->string_ptr,
; 3154 :                    opnd1->kind,
; 3155 :                    opnd1->llvalue, opnd1->llvalue,
; 3156 :                    opnd1->mem_type,
; 3157 :                    opnd1->indirect, opnd1->type ? opnd1->type->name : "NULL" ));
; 3158 :     } else {
; 3159 :         DebugMsg1(("%u calculate(%s) exit, ok kind=%d value=%d(0x%X) memtype=0x%X ind=%u exp=%u type=%s mbr=%s\n",
; 3160 :                    evallvl,
; 3161 :                    oper->string_ptr,
; 3162 :                    opnd1->kind,
; 3163 :                    opnd1->value, opnd1->value,
; 3164 :                    opnd1->mem_type,
; 3165 :                    opnd1->indirect, opnd1->explicit,
; 3166 :                    opnd1->type ? opnd1->type->name : "NULL",
; 3167 :                    opnd1->mbr ? opnd1->mbr->name : "NULL" ));
; 3168 :     }
; 3169 : #endif
; 3170 :     return( NOT_ERROR );

	xor	eax, eax
	jmp	$LN180@calculate
$LN66@calculate:

; 2881 :                     }
; 2882 :                 } else {
; 2883 :                     DebugMsg(("calculate(%s) error 2, token2.kind=%d indirect=%u sym=%s\n",
; 2884 :                               oper->string_ptr, opnd2->kind, opnd2->indirect,
; 2885 :                               opnd2->sym ? opnd2->sym->name : "NULL" ));
; 2886 :                     return( fnEmitErr( OPERAND_MUST_BE_RELOCATABLE ) );

	mov	ecx, 188				; 000000bcH
	call	QWORD PTR fnEmitErr
	jmp	$LN180@calculate
$LN64@calculate:

; 2887 :                 }
; 2888 :             else {
; 2889 :                 DebugMsg(("calculate(%s) error 3\n", oper->string_ptr ));
; 2890 :                 return( fnEmitErr( CONSTANT_OR_RELOCATABLE_LABEL_EXPECTED ) );

	mov	ecx, 189				; 000000bdH
	call	QWORD PTR fnEmitErr
	jmp	$LN180@calculate
$LN62@calculate:

; 2891 :             }
; 2892 :         } else {
; 2893 :             DebugMsg(("calculate(%s) error 4\n", oper->string_ptr ));
; 2894 :             return( ConstError( opnd1, opnd2 ) );

	mov	rdx, rdi
	mov	rcx, rbx
	call	ConstError
	jmp	$LN180@calculate
$LN96@calculate:

; 2986 :             break;
; 2987 :         }
; 2988 :         break; /* end case T_BINARY_OPERATOR */
; 2989 :     case T_UNARY_OPERATOR:
; 2990 :         DebugMsg1(("calculate(%s [T_UNARY_OPERATOR]): opnd2 kind=%d sym=%s mbr=%s type=%s memtype=%X is_type=%u indirect=%u\n",
; 2991 :                    oper->string_ptr,
; 2992 :                    opnd2->kind,
; 2993 :                    opnd2->sym ? opnd2->sym->name : "NULL",
; 2994 :                    opnd2->mbr ? opnd2->mbr->name : "NULL",
; 2995 :                    opnd2->type ? opnd2->type->name : "NULL",
; 2996 :                    opnd2->mem_type, opnd2->is_type, opnd2->indirect ));
; 2997 :         /* NOT is an instruction and hence has no valid
; 2998 :          * value to be returned by GetValueSp() or GetSflagsSp()!
; 2999 :          */
; 3000 :         if( oper->tokval == T_NOT ) {

	mov	r11d, DWORD PTR [r8+16]
	cmp	r11d, 576				; 00000240H
	jne	SHORT $LN97@calculate

; 3001 :             MakeConst( opnd2 );

	mov	rcx, rdi
	call	MakeConst

; 3002 :             if( opnd2->kind != EXPR_CONST ) {

	cmp	DWORD PTR [rdi+60], esi
	je	SHORT $LN98@calculate

; 3003 :                 DebugMsg(("calculate(%s) error 1\n", oper->string_ptr ));
; 3004 :                 return( fnEmitErr( CONSTANT_OPERAND_EXPECTED ) );

	mov	ecx, 66					; 00000042H
	call	QWORD PTR fnEmitErr
	jmp	$LN180@calculate
$LN98@calculate:

; 3005 :             }
; 3006 :             TokenAssign( opnd1, opnd2 );

	movups	xmm0, XMMWORD PTR [rdi]
	movups	XMMWORD PTR [rbx], xmm0
	movups	xmm1, XMMWORD PTR [rdi+16]
	movups	XMMWORD PTR [rbx+16], xmm1
	movups	xmm0, XMMWORD PTR [rdi+32]
	movups	XMMWORD PTR [rbx+32], xmm0
	movups	xmm1, XMMWORD PTR [rdi+48]
	movups	XMMWORD PTR [rbx+48], xmm1
	movups	xmm0, XMMWORD PTR [rdi+64]
	movups	XMMWORD PTR [rbx+64], xmm0
	movups	xmm1, XMMWORD PTR [rdi+80]
	movups	XMMWORD PTR [rbx+80], xmm1

; 3007 :             opnd1->llvalue = ~(opnd2->llvalue);

	mov	rax, QWORD PTR [rdi]
	not	rax
	mov	QWORD PTR [rbx], rax
$LN2@calculate:

; 3139 :     } /* end switch( oper->token ) */
; 3140 : 
; 3141 : #ifdef DEBUG_OUT
; 3142 :     if ( opnd1->hlvalue ) {
; 3143 :         DebugMsg1(("%u calculate(%s) exit, ok kind=%d value=0x%" I64_SPEC "X_%016" I64_SPEC "X memtype=0x%X indirect=%u type=>%s<\n",
; 3144 :                    evallvl,
; 3145 :                    oper->string_ptr,
; 3146 :                    opnd1->kind,
; 3147 :                    opnd1->hlvalue, opnd1->llvalue,
; 3148 :                    opnd1->mem_type,
; 3149 :                    opnd1->indirect, opnd1->type ? opnd1->type->name : "NULL" ));
; 3150 :     } else if ( opnd1->hvalue ) {
; 3151 :         DebugMsg1(("%u calculate(%s) exit, ok kind=%d value=%" I64_SPEC"d(0x%" I64_SPEC "X) memtype=0x%X indirect=%u type=>%s<\n",
; 3152 :                    evallvl,
; 3153 :                    oper->string_ptr,
; 3154 :                    opnd1->kind,
; 3155 :                    opnd1->llvalue, opnd1->llvalue,
; 3156 :                    opnd1->mem_type,
; 3157 :                    opnd1->indirect, opnd1->type ? opnd1->type->name : "NULL" ));
; 3158 :     } else {
; 3159 :         DebugMsg1(("%u calculate(%s) exit, ok kind=%d value=%d(0x%X) memtype=0x%X ind=%u exp=%u type=%s mbr=%s\n",
; 3160 :                    evallvl,
; 3161 :                    oper->string_ptr,
; 3162 :                    opnd1->kind,
; 3163 :                    opnd1->value, opnd1->value,
; 3164 :                    opnd1->mem_type,
; 3165 :                    opnd1->indirect, opnd1->explicit,
; 3166 :                    opnd1->type ? opnd1->type->name : "NULL",
; 3167 :                    opnd1->mbr ? opnd1->mbr->name : "NULL" ));
; 3168 :     }
; 3169 : #endif
; 3170 :     return( NOT_ERROR );

	xor	eax, eax
	jmp	$LN180@calculate
$LN97@calculate:

; 3008 :             break;
; 3009 :         }
; 3010 : 
; 3011 :         /* operator         accepts
; 3012 :          ----------------------------------------------
; 3013 :          SIZEOF/SIZE        label, type, struct field
; 3014 :          LENGTHOF/LENGTH    label, struct field
; 3015 :          TYPE               label, type, struct field, register, number
; 3016 :          LOW                constant, label (OMF+BIN only)
; 3017 :          HIGH               constant, label (OMF+BIN only)
; 3018 :          LOWWORD            constant, label
; 3019 :          HIGHWORD           constant
; 3020 :          LOW32              constant, label, float
; 3021 :          HIGH32             constant, float
; 3022 :          THIS               type
; 3023 :          OPATTR/.TYPE       label, type, struct field, register, number
; 3024 :          SHORT              label
; 3025 :          SEG                label
; 3026 :          OFFSET/LROFFSET    label, struct field, number
; 3027 :          IMAGEREL           label
; 3028 :          SECTIONREL         label
; 3029 :          WIDTH/MASK         bitfields or RECORD type
; 3030 :          */
; 3031 : 
; 3032 :         temp = GetValueSp( oper->tokval );
; 3033 : 
; 3034 :         sym = opnd2->sym;
; 3035 :         if( opnd2->mbr != NULL )

	mov	r9, QWORD PTR [rdi+88]
	lea	rcx, QWORD PTR [r11+r11*2]
	mov	rsi, QWORD PTR [rdi+80]
	test	r9, r9
	mov	r10, rsi
	mov	QWORD PTR [rsp+88], r15
	cmovne	r10, r9
	lea	r15, QWORD PTR [rcx*4]

; 3036 :             sym = opnd2->mbr;
; 3037 : 
; 3038 :         /* for error displays, get the position of the operand that
; 3039 :          * caused the trouble.
; 3040 :          */
; 3041 :         if ( opnd2->instr != EMPTY )

	cmp	DWORD PTR [rdi+56], -2
	mov	r8d, DWORD PTR SpecialTable[r15+rbp]
	je	SHORT $LN100@calculate

; 3042 :             name = oper->tokpos + strlen( oper->string_ptr ) + 1;

	mov	rax, QWORD PTR [r14+8]
	or	rcx, -1
$LL176@calculate:
	inc	rcx
	cmp	BYTE PTR [rax+rcx], 0
	jne	SHORT $LL176@calculate
	jmp	SHORT $LN186@calculate
$LN100@calculate:

; 3043 :         else if ( sym )

	test	r10, r10
	je	SHORT $LN102@calculate

; 3044 :             name = sym->name;

	mov	rdx, QWORD PTR [r10+8]
	jmp	SHORT $LN105@calculate
$LN102@calculate:

; 3045 :         else if ( opnd2->base_reg != NULL && opnd2->indirect == FALSE )

	mov	rdx, QWORD PTR [rdi+24]
	test	rdx, rdx
	je	SHORT $LN104@calculate
	test	BYTE PTR [rdi+76], 1
	jne	SHORT $LN104@calculate

; 3046 :             name = opnd2->base_reg->string_ptr;

	mov	rdx, QWORD PTR [rdx+8]
	jmp	SHORT $LN105@calculate
$LN104@calculate:

; 3047 :         else
; 3048 :             name = oper->tokpos + strlen( oper->string_ptr ) + 1;

	mov	rax, QWORD PTR [r14+8]
	or	rcx, -1
	npad	6
$LL175@calculate:
	inc	rcx
	cmp	BYTE PTR [rax+rcx], 0
	jne	SHORT $LL175@calculate
$LN186@calculate:
	mov	rdx, QWORD PTR [r14+24]
	inc	rdx
	add	rdx, rcx
$LN105@calculate:

; 3049 : 
; 3050 :         switch ( opnd2->kind ) {

	mov	ecx, DWORD PTR [rdi+60]
	test	ecx, ecx
	je	SHORT $LN106@calculate
	sub	ecx, 1
	je	SHORT $LN117@calculate
	sub	ecx, 1
	je	SHORT $LN122@calculate
	cmp	ecx, 1
	jne	$LN116@calculate

; 3119 :             }
; 3120 :             break;
; 3121 :         case EXPR_FLOAT: /* v2.05: added */
; 3122 :             if ( ( temp & AT_FLOAT ) == 0 ) {

	bt	r8d, 8
	jb	$LN116@calculate

; 3123 :                 DebugMsg(("calculate %s 'float' error\n", oper->string_ptr ));
; 3124 :                 return( fnEmitErr( REAL_OR_BCD_NUMBER_NOT_ALLOWED ) );

	mov	ecx, 270				; 0000010eH
	call	QWORD PTR fnEmitErr
$LN181@calculate:
	mov	r15, QWORD PTR [rsp+88]
$LN180@calculate:
	mov	rbp, QWORD PTR [rsp+80]

; 3171 : }

	mov	rbx, QWORD PTR [rsp+96]
	add	rsp, 48					; 00000030H
	pop	r14
	pop	rdi
	pop	rsi
	ret	0
$LN122@calculate:

; 3084 :                 }
; 3085 :             }
; 3086 : #if 0 /* v2.08: this if() obsolete? */
; 3087 :             if( opnd2->instr != EMPTY ) {
; 3088 :                 /* if instr is set, it's not a full address */
; 3089 :                 switch ( oper->tokval ) {
; 3090 :                 case T_LOW:
; 3091 :                 case T_HIGH:
; 3092 :                 case T_LOWWORD:
; 3093 :                 case T_HIGHWORD:
; 3094 : #if LOHI32
; 3095 :                 case T_LOW32:
; 3096 :                 case T_HIGH32:
; 3097 : #endif
; 3098 :                 case T_TYPE:
; 3099 :                 case T_OPATTR:
; 3100 :                 case T_DOT_TYPE:
; 3101 :                 case T_OFFSET: /* v2.08: added, to allow OFFSET OFFSET <addr> */
; 3102 :                     break;
; 3103 :                 default:
; 3104 :                     /* remaining: OFFSET, LROFFSET, IMAGEREL, SECTIONREL, SEG,
; 3105 :                      * SHORT
; 3106 :                      * THIS (won't set opnd.instr)
; 3107 :                      * (SIZE, SIZEOF, LENGTH, LENGHTOF, MASK, WIDTH) -> EXPR_CONST
; 3108 :                      *
; 3109 :                      */
; 3110 :                     DebugMsg(("calculate %s error 2\n", oper->string_ptr ));
; 3111 :                     return( fnEmitErr( LABEL_EXPECTED ) );
; 3112 :                 }
; 3113 :             }
; 3114 : #endif
; 3115 :             break;
; 3116 :         case EXPR_REG:
; 3117 :             if ( ( temp & AT_REG ) == 0 ) {

	test	r8b, 8

; 3118 :                 return( invalid_operand( opnd2, oper->string_ptr, name ) );

	jmp	SHORT $LN187@calculate
$LN117@calculate:

; 3072 :                 }
; 3073 :             }
; 3074 :             break;
; 3075 :         case EXPR_ADDR:
; 3076 :             /* an indirect memory operand? (not an auto variable) */
; 3077 :             if ( opnd2->indirect == TRUE && opnd2->sym == NULL ) {

	test	BYTE PTR [rdi+76], 1
	je	SHORT $LN118@calculate
	test	rsi, rsi
	jne	SHORT $LN118@calculate

; 3078 :                 if ( ( temp & AT_IND ) == 0 ) {

	test	r8b, 4

; 3079 :                     return( invalid_operand( opnd2, oper->string_ptr, name ) );

	jmp	SHORT $LN187@calculate
$LN118@calculate:

; 3080 :                 }
; 3081 :             } else {
; 3082 :                 if ( ( temp & AT_LABEL ) == 0 ) {

	test	r8b, 2

; 3083 :                     return( invalid_operand( opnd2, oper->string_ptr, name ) );

	jmp	SHORT $LN187@calculate
$LN106@calculate:

; 3051 :         case EXPR_CONST:
; 3052 :             /* v2.05: conditions "struct-field" and "istype" exchanged */
; 3053 :             /* is item a struct field? */
; 3054 :             /* v2.10: fixme: EXPR_CONST & mbr!=NULL - what's that supposed to be? */
; 3055 :             if ( opnd2->mbr != NULL && opnd2->mbr->state != SYM_TYPE ) {

	test	r9, r9
	je	SHORT $LN107@calculate
	cmp	DWORD PTR [r9+32], 7
	je	SHORT $LN107@calculate

; 3056 :                 if ( opnd2->mbr->mem_type == MT_BITS ) { /* bitfield? */

	cmp	DWORD PTR [r9+36], 193			; 000000c1H
	jne	SHORT $LN109@calculate

; 3057 :                     if ( ( temp & AT_BF ) == 0 ) {

	test	r8b, 64					; 00000040H

; 3058 :                         return( invalid_operand( opnd2, oper->string_ptr, name ) );

	jmp	SHORT $LN187@calculate
$LN109@calculate:

; 3059 :                     }
; 3060 :                 } else {
; 3061 :                     if ( ( temp & AT_FIELD ) == 0 ) {

	test	r8b, 16

; 3062 :                         return( invalid_operand( opnd2, oper->string_ptr, name ) );

	jmp	SHORT $LN187@calculate
$LN107@calculate:

; 3063 :                     }
; 3064 :                 }
; 3065 :             } else if ( opnd2->is_type ) { /* is item a type? */

	test	BYTE PTR [rdi+76], 8
	je	SHORT $LN113@calculate

; 3066 :                 if ( ( temp & AT_TYPE ) == 0 ) {

	test	r8b, 1

; 3067 :                     return( invalid_operand( opnd2, oper->string_ptr, name ) );

	jmp	SHORT $LN187@calculate
$LN113@calculate:

; 3068 :                 }
; 3069 :             } else { /*  or is it a number? */
; 3070 :                 if ( ( temp & AT_NUM ) == 0 ) {

	test	r8b, 32					; 00000020H
$LN187@calculate:
	jne	SHORT $LN116@calculate

; 3071 :                     return( invalid_operand( opnd2, oper->string_ptr, name ) );

	mov	r8, rdx
	mov	rcx, rdi
	mov	rdx, QWORD PTR [r14+8]
	call	invalid_operand
	jmp	SHORT $LN181@calculate
$LN116@calculate:

; 3125 :             }
; 3126 :             break;
; 3127 :         }
; 3128 : #ifdef DEBUG_OUT
; 3129 :         if ( unaryop[ GetSflagsSp( oper->tokval ) ]( oper->tokval, opnd1, opnd2, sym, name ) == ERROR )
; 3130 :             return( ERROR );
; 3131 :         break;
; 3132 : #else
; 3133 :         return( unaryop[ GetSflagsSp( oper->tokval ) ]( oper->tokval, opnd1, opnd2, sym, name ) );

	mov	eax, DWORD PTR SpecialTable[r15+rbp+4]
	mov	r9, r10
	mov	QWORD PTR [rsp+32], rdx
	mov	r8, rdi
	mov	rdx, rbx
	mov	ecx, r11d
	call	QWORD PTR unaryop[rbp+rax*8]
	jmp	$LN181@calculate
$LN126@calculate:

; 3134 : #endif
; 3135 :     //case T_RES_ID:
; 3136 :     default: /* shouldn't happen */
; 3137 :         DebugMsg(("calculate(%s): unknown operator\n", oper->string_ptr ));
; 3138 :         return( fnEmitErr( SYNTAX_ERROR_EX, oper->string_ptr ) );

	mov	rdx, QWORD PTR [r8+8]
	mov	ecx, 209				; 000000d1H
	call	QWORD PTR fnEmitErr
	jmp	$LN180@calculate
	npad	2
$LN179@calculate:

; 3171 : }

	DD	$LN96@calculate
	DD	$LN43@calculate
	DD	$LN21@calculate
	DD	$LN31@calculate
	DD	$LN25@calculate
	DD	$LN27@calculate
	DD	$LN29@calculate
	DD	$LN40@calculate
	DD	$LN30@calculate
	DD	$LN13@calculate
	DD	$LN126@calculate
$LN178@calculate:
	DB	0
	DB	1
	DB	10
	DB	10
	DB	10
	DB	10
	DB	10
	DB	10
	DB	10
	DB	10
	DB	10
	DB	10
	DB	10
	DB	10
	DB	10
	DB	10
	DB	10
	DB	10
	DB	10
	DB	10
	DB	10
	DB	10
	DB	10
	DB	10
	DB	10
	DB	10
	DB	10
	DB	10
	DB	10
	DB	10
	DB	10
	DB	10
	DB	10
	DB	10
	DB	10
	DB	10
	DB	2
	DB	10
	DB	3
	DB	4
	DB	10
	DB	5
	DB	6
	DB	7
	DB	10
	DB	10
	DB	10
	DB	10
	DB	10
	DB	10
	DB	10
	DB	10
	DB	10
	DB	10
	DB	8
	DB	10
	DB	10
	DB	10
	DB	10
	DB	10
	DB	10
	DB	10
	DB	10
	DB	10
	DB	10
	DB	10
	DB	10
	DB	10
	DB	10
	DB	10
	DB	10
	DB	10
	DB	10
	DB	10
	DB	10
	DB	10
	DB	10
	DB	10
	DB	10
	DB	10
	DB	10
	DB	10
	DB	10
	DB	10
	DB	10
	DB	10
	DB	10
	DB	9
$LN177@calculate:
	DD	$LN69@calculate
	DD	$LN72@calculate
	DD	$LN78@calculate
	DD	$LN77@calculate
	DD	$LN76@calculate
	DD	$LN75@calculate
	DD	$LN79@calculate
calculate ENDP
_TEXT	ENDS
; Function compile flags: /Ogtpy
; File d:\hjwasm\hjwasm2.13.1s\hjwasm2.13.1s\expreval.c
;	COMDAT cmp_types
_TEXT	SEGMENT
opnd1$ = 48
opnd2$ = 56
trueval$ = 64
cmp_types PROC						; COMDAT

; 2526 : {

	mov	QWORD PTR [rsp+16], rbx
	mov	QWORD PTR [rsp+24], rbp
	push	rdi
	sub	rsp, 32					; 00000020H

; 2527 :     struct asym *type1;
; 2528 :     struct asym *type2;
; 2529 : 
; 2530 :     /* v2.10: special handling of pointer types. */
; 2531 :     //if ( opnd1->mem_type == MT_PTR && opnd2->mem_type == MT_PTR && opnd1->type && opnd2->type ) {
; 2532 :     if ( opnd1->mem_type == MT_PTR && opnd2->mem_type == MT_PTR ) {

	cmp	DWORD PTR [rcx+64], 195			; 000000c3H
	mov	ebx, r8d
	mov	rbp, rdx
	mov	rdi, rcx
	jne	SHORT $LN2@cmp_types
	cmp	DWORD PTR [rdx+64], 195			; 000000c3H
	jne	SHORT $LN2@cmp_types

; 2533 :         /**/myassert( ( opnd1->type || opnd1->type_tok ) && ( opnd2->type || opnd2->type_tok ) );
; 2534 :         type1 = ( opnd1->type ? opnd1->type : SymSearch( opnd1->type_tok->string_ptr ) );

	mov	QWORD PTR [rsp+48], rsi
	mov	rsi, QWORD PTR [rcx+96]
	test	rsi, rsi
	jne	SHORT $LN8@cmp_types
	mov	rcx, QWORD PTR [rcx+40]
	mov	rcx, QWORD PTR [rcx+8]
	call	SymFind
	mov	rsi, rax
$LN8@cmp_types:

; 2535 :         type2 = ( opnd2->type ? opnd2->type : SymSearch( opnd2->type_tok->string_ptr ) );

	mov	rax, QWORD PTR [rbp+96]
	test	rax, rax
	jne	SHORT $LN10@cmp_types
	mov	rcx, QWORD PTR [rbp+40]
	mov	rcx, QWORD PTR [rcx+8]
	call	SymFind
$LN10@cmp_types:

; 2536 :         //opnd1->value64 = ( ( type1->is_ptr == type2->is_ptr &&
; 2537 :         opnd1->value64 = ( ( type1->is_ptr == type2->is_ptr &&

	movzx	ecx, BYTE PTR [rax+45]
	cmp	BYTE PTR [rsi+45], cl
	jne	SHORT $LN11@cmp_types
	movzx	ecx, BYTE PTR [rax+46]
	cmp	BYTE PTR [rsi+46], cl
	jne	SHORT $LN11@cmp_types
	mov	rax, QWORD PTR [rax+48]
	cmp	QWORD PTR [rsi+48], rax
	je	SHORT $LN12@cmp_types
$LN11@cmp_types:
	not	ebx
$LN12@cmp_types:
	mov	rsi, QWORD PTR [rsp+48]

; 2538 :                             type1->ptr_memtype == type2->ptr_memtype &&
; 2539 :                             type1->target_type == type2->target_type ) ? trueval : ~trueval );
; 2540 :         DebugMsg1(("cmp_types: MT_PTR-MT_PTR is_ptr=%u-%u ptr_memtype=%X-%X target_type=%X-%X\n",
; 2541 :                    type1->is_ptr, type2->is_ptr,
; 2542 :                    type1->ptr_memtype, type2->ptr_memtype,
; 2543 :                    type1->target_type, type2->target_type ));
; 2544 :     } else {

	jmp	SHORT $LN14@cmp_types
$LN2@cmp_types:

; 2545 :         DebugMsg1(("cmp_types: memtype=%X-%X type=%X-%X\n",
; 2546 :                    opnd1->mem_type, opnd2->mem_type, opnd1->type, opnd2->type ));
; 2547 :         /* v2.09: include type member in comparison, but ignore typedef types */
; 2548 :         if ( opnd1->type && opnd1->type->typekind == TYPE_TYPEDEF && opnd1->type->is_ptr == 0 )

	mov	rax, QWORD PTR [rcx+96]
	xor	ecx, ecx
	test	rax, rax
	je	SHORT $LN4@cmp_types
	cmp	BYTE PTR [rax+66], 3
	jne	SHORT $LN4@cmp_types
	cmp	BYTE PTR [rax+45], cl
	jne	SHORT $LN4@cmp_types

; 2549 :             opnd1->type = NULL;

	mov	QWORD PTR [rdi+96], rcx
$LN4@cmp_types:

; 2550 :         if ( opnd2->type && opnd2->type->typekind == TYPE_TYPEDEF && opnd2->type->is_ptr == 0 )

	mov	rax, QWORD PTR [rdx+96]
	test	rax, rax
	je	SHORT $LN5@cmp_types
	cmp	BYTE PTR [rax+66], 3
	jne	SHORT $LN5@cmp_types
	cmp	BYTE PTR [rax+45], cl
	jne	SHORT $LN5@cmp_types

; 2551 :             opnd2->type = NULL;

	mov	QWORD PTR [rdx+96], rcx
$LN5@cmp_types:

; 2552 :         opnd1->value64 = ( ( opnd1->mem_type == opnd2->mem_type &&

	mov	eax, DWORD PTR [rdx+64]
	cmp	DWORD PTR [rdi+64], eax
	jne	SHORT $LN13@cmp_types
	mov	rax, QWORD PTR [rdx+96]
	cmp	QWORD PTR [rdi+96], rax
	je	SHORT $LN14@cmp_types
$LN13@cmp_types:
	not	ebx
$LN14@cmp_types:

; 2553 :                             opnd1->type == opnd2->type ) ? trueval : ~trueval );
; 2554 :     }
; 2555 : }

	mov	rbp, QWORD PTR [rsp+64]
	movsxd	rax, ebx
	mov	rbx, QWORD PTR [rsp+56]
	mov	QWORD PTR [rdi], rax
	add	rsp, 32					; 00000020H
	pop	rdi
	ret	0
cmp_types ENDP
_TEXT	ENDS
; Function compile flags: /Ogtpy
; File d:\hjwasm\hjwasm2.13.1s\hjwasm2.13.1s\expreval.c
;	COMDAT check_streg
_TEXT	SEGMENT
opnd1$ = 8
opnd2$ = 16
check_streg PROC					; COMDAT

; 2511 :     if ( opnd1->scale > 0 ) {

	movzx	eax, BYTE PTR [rcx+68]
	test	al, al
	je	SHORT $LN2@check_stre

; 2512 :         return( fnEmitErr( INVALID_USE_OF_REGISTER ) );

	mov	ecx, 170				; 000000aaH
	rex_jmp	QWORD PTR fnEmitErr
$LN2@check_stre:

; 2513 :     }
; 2514 :     opnd1->scale++; /* make sure there's only ONE bracket pair */

	inc	al
	mov	BYTE PTR [rcx+68], al

; 2515 :     if ( opnd2->kind != EXPR_CONST ) {

	cmp	DWORD PTR [rdx+60], 0
	je	SHORT $LN3@check_stre

; 2516 :         return( fnEmitErr( INVALID_COPROCESSOR_REGISTER ) );

	mov	ecx, 252				; 000000fcH
	rex_jmp	QWORD PTR fnEmitErr
$LN3@check_stre:

; 2517 :     }
; 2518 :     opnd1->st_idx = opnd2->value;

	mov	eax, DWORD PTR [rdx]
	mov	DWORD PTR [rcx], eax

; 2519 :     return( NOT_ERROR );

	xor	eax, eax

; 2520 : }

	ret	0
check_streg ENDP
_TEXT	ENDS
; Function compile flags: /Ogtpy
; File d:\hjwasm\hjwasm2.13.1s\hjwasm2.13.1s\expreval.c
;	COMDAT CheckAssume
_TEXT	SEGMENT
opnd$ = 48
CheckAssume PROC					; COMDAT

; 2448 : {

	push	rbx
	sub	rsp, 32					; 00000020H

; 2449 :     struct asym *sym = NULL;
; 2450 : 
; 2451 : #if 1 /* v2.10: see regression test ptr2.asm */
; 2452 :     if ( opnd->explicit ) { /* perhaps check mem_type instead of explicit */

	test	BYTE PTR [rcx+76], 2
	mov	rbx, rcx
	je	SHORT $LN4@CheckAssum

; 2453 :         if ( opnd->type && opnd->type->mem_type == MT_PTR ) {

	mov	rcx, QWORD PTR [rcx+96]
	test	rcx, rcx
	je	SHORT $LN4@CheckAssum
	cmp	DWORD PTR [rcx+36], 195			; 000000c3H
	jne	SHORT $LN4@CheckAssum

; 2454 :             DebugMsg1(( "CheckAssume(%s, MT_PTR type=>%s< )\n", opnd->type->name ));
; 2455 :             if ( opnd->type->is_ptr == 1 ) { /* dereference only if indirection is 1 */

	cmp	BYTE PTR [rcx+45], 1
	jne	SHORT $LN4@CheckAssum

; 2456 :                 opnd->mem_type = opnd->type->ptr_memtype;

	movzx	eax, BYTE PTR [rcx+46]
	mov	DWORD PTR [rbx+64], eax

; 2457 :                 opnd->type = opnd->type->target_type;

	mov	rax, QWORD PTR [rcx+48]
	mov	QWORD PTR [rbx+96], rax

; 2502 :         }
; 2503 :     }
; 2504 : }

	add	rsp, 32					; 00000020H
	pop	rbx
	ret	0
$LN4@CheckAssum:

; 2458 :                 return; /* ignore assumes in this case */
; 2459 :             }
; 2460 :         }
; 2461 :     }
; 2462 : #endif
; 2463 :     /* in jwasm < v2.10, the idx_reg had higher priority than base_reg.
; 2464 :      * However, the base reg is supposed to have a higher priority.
; 2465 :      * This wasn't fully clear, because in Masm 6, if no register has
; 2466 :      * a scaling factor, the second one becomes base - something that
; 2467 :      * HJWasm didn't do, unless -Zg was set.
; 2468 :      * Since v2.10, HJWasm behaves like Masm v6+: base and index registers
; 2469 :      * are swapped, and assume for base has higher priority than assume for
; 2470 :      * index.
; 2471 :      */
; 2472 :     if ( opnd->base_reg ) {

	mov	rax, QWORD PTR [rbx+24]
	test	rax, rax
	je	SHORT $LN15@CheckAssum

; 2473 :         sym = GetStdAssumeEx( opnd->base_reg->bytval );

	movzx	ecx, BYTE PTR [rax+1]
	call	GetStdAssumeEx
	mov	rcx, rax

; 2474 :     }
; 2475 :     if (!sym && opnd->idx_reg ) {

	test	rax, rax
	jne	SHORT $LN14@CheckAssum
$LN15@CheckAssum:
	mov	rax, QWORD PTR [rbx+32]
	test	rax, rax
	je	SHORT $LN12@CheckAssum

; 2476 :         sym = GetStdAssumeEx( opnd->idx_reg->bytval );

	movzx	ecx, BYTE PTR [rax+1]
	call	GetStdAssumeEx
	mov	rcx, rax

; 2477 :     }
; 2478 :     if ( sym ) {

	test	rax, rax
	je	SHORT $LN12@CheckAssum
$LN14@CheckAssum:

; 2479 :         DebugMsg1(( "CheckAssume(%s, type=>%s<, mbr=>%s<): assume=%s [memtype=%X isptr=%u type=%s target_type=%s ptr_memt=%X]\n",
; 2480 :                    GetResWName( ( opnd->idx_reg ? opnd->idx_reg->tokval : opnd->base_reg->tokval ), NULL ),
; 2481 :                    opnd->type ? opnd->type->name : "NULL",
; 2482 :                    opnd->mbr ? opnd->mbr->name : "NULL",
; 2483 :                    sym->name, sym->mem_type, sym->is_ptr,
; 2484 :                    sym->type ? sym->type->name : "NULL",
; 2485 :                    sym->target_type ? sym->target_type->name : "NULL",
; 2486 :                    sym->ptr_memtype ));
; 2487 :         /* v2.08: skip ASSUMEd type if type or mbr is set */
; 2488 :         //if ( opnd->type || opnd->mbr )
; 2489 :         //    return;
; 2490 :         /* skip "alias" types */
; 2491 :         /* v2.05: obsolete */
; 2492 :         //for ( ; sym->type; sym = sym->type );
; 2493 :         /* v2.05: new */
; 2494 :         if ( sym->mem_type == MT_TYPE )

	cmp	DWORD PTR [rcx+36], 196			; 000000c4H
	jne	SHORT $LN8@CheckAssum

; 2495 :             opnd->type = sym->type;

	mov	rax, QWORD PTR [rcx+80]
	mov	QWORD PTR [rbx+96], rax

; 2502 :         }
; 2503 :     }
; 2504 : }

	add	rsp, 32					; 00000020H
	pop	rbx
	ret	0
$LN8@CheckAssum:

; 2496 :         else if ( sym->is_ptr == 1 ) { /* v2.10: only dereference if indirection is 1 */

	cmp	BYTE PTR [rcx+45], 1
	jne	SHORT $LN12@CheckAssum

; 2497 :             opnd->type = sym->target_type;

	mov	rax, QWORD PTR [rcx+48]
	mov	QWORD PTR [rbx+96], rax

; 2498 :             if ( sym->target_type )

	mov	rax, QWORD PTR [rcx+48]
	test	rax, rax
	je	SHORT $LN11@CheckAssum

; 2499 :                 opnd->mem_type = sym->target_type->mem_type;

	mov	eax, DWORD PTR [rax+36]

; 2500 :             else
; 2501 :                 opnd->mem_type = sym->ptr_memtype;

	mov	DWORD PTR [rbx+64], eax

; 2502 :         }
; 2503 :     }
; 2504 : }

	add	rsp, 32					; 00000020H
	pop	rbx
	ret	0
$LN11@CheckAssum:

; 2500 :             else
; 2501 :                 opnd->mem_type = sym->ptr_memtype;

	movzx	eax, BYTE PTR [rcx+46]
	mov	DWORD PTR [rbx+64], eax
$LN12@CheckAssum:

; 2502 :         }
; 2503 :     }
; 2504 : }

	add	rsp, 32					; 00000020H
	pop	rbx
	ret	0
CheckAssume ENDP
_TEXT	ENDS
; Function compile flags: /Ogtpy
; File d:\hjwasm\hjwasm2.13.1s\hjwasm2.13.1s\expreval.c
;	COMDAT negative_op
_TEXT	SEGMENT
opnd1$ = 48
opnd2$ = 56
negative_op PROC					; COMDAT

; 2413 : {

	sub	rsp, 40					; 00000028H
	mov	r9, rcx
	mov	r10, rdx

; 2414 :     DebugMsg1(("negative_op: value=%" I64_SPEC "X high=%" I64_SPEC "X\n", opnd2->llvalue, opnd2->hlvalue ));
; 2415 :     /*
; 2416 :      * The formats allowed are:
; 2417 :      *        - constant
; 2418 :      *        - float
; 2419 :      */
; 2420 : 
; 2421 :     MakeConst( opnd2 );

	mov	rcx, rdx
	call	MakeConst

; 2422 :     if( opnd2->kind == EXPR_CONST ) {

	mov	ecx, DWORD PTR [rcx+60]
	test	ecx, ecx
	jne	SHORT $LN2@negative_o

; 2423 :         opnd1->kind = EXPR_CONST;

	mov	DWORD PTR [r9+60], ecx

; 2424 :         opnd1->llvalue = -opnd2->llvalue;

	mov	rax, QWORD PTR [r10]
	neg	rax
	mov	QWORD PTR [r9], rax

; 2425 :         /* v2.06: the unary '-' operator is to work with
; 2426 :          * magnitudes > 64-bit. Current implementation is
; 2427 :          * a bit hackish.
; 2428 :          */
; 2429 :         if ( opnd2->hlvalue )

	mov	rcx, QWORD PTR [r10+8]
	test	rcx, rcx
	je	SHORT $LN4@negative_o

; 2430 :             opnd1->hlvalue = -opnd2->hlvalue - 1;

	or	rax, -1
	sub	rax, rcx
	mov	QWORD PTR [r9+8], rax

; 2431 :         opnd1->negative = 1 - opnd2->negative; /* ??? supposed to be used for EXPR_FLOAT only! */

	jmp	SHORT $LN4@negative_o
$LN2@negative_o:

; 2432 :     } else if( opnd2->kind == EXPR_FLOAT ) {

	cmp	ecx, 3
	jne	SHORT $LN5@negative_o

; 2433 :         opnd1->kind = EXPR_FLOAT;

	mov	DWORD PTR [r9+60], ecx

; 2434 :         opnd1->float_tok = opnd2->float_tok;

	mov	rax, QWORD PTR [r10+16]
	mov	QWORD PTR [r9+16], rax
$LN4@negative_o:

; 2435 :         opnd1->negative = 1 - opnd2->negative;

	mov	eax, DWORD PTR [r10+76]
	or	ecx, -1					; ffffffffH
	shr	eax, 5
	and	eax, 1
	sub	ecx, eax
	shl	ecx, 5
	xor	ecx, DWORD PTR [r9+76]
	and	ecx, 32					; 00000020H
	xor	DWORD PTR [r9+76], ecx

; 2439 :     }
; 2440 :     return( NOT_ERROR );

	xor	eax, eax

; 2441 : }

	add	rsp, 40					; 00000028H
	ret	0
$LN5@negative_o:

; 2436 :     } else {
; 2437 :         DebugMsg(("negative_op: unexpected opnd2.kind=%d\n", opnd2->kind ));
; 2438 :         return( fnEmitErr( CONSTANT_EXPECTED ) );

	mov	ecx, 65					; 00000041H

; 2441 : }

	add	rsp, 40					; 00000028H

; 2436 :     } else {
; 2437 :         DebugMsg(("negative_op: unexpected opnd2.kind=%d\n", opnd2->kind ));
; 2438 :         return( fnEmitErr( CONSTANT_EXPECTED ) );

	rex_jmp	QWORD PTR fnEmitErr
negative_op ENDP
_TEXT	ENDS
; Function compile flags: /Ogtpy
; File d:\hjwasm\hjwasm2.13.1s\hjwasm2.13.1s\expreval.c
;	COMDAT positive_op
_TEXT	SEGMENT
opnd1$ = 48
opnd2$ = 56
positive_op PROC					; COMDAT

; 2385 : {

	sub	rsp, 40					; 00000028H
	mov	r9, rcx
	mov	r10, rdx

; 2386 :     DebugMsg1(("positive_op: value=%" I64_SPEC "X high=%" I64_SPEC "X\n", opnd2->llvalue, opnd2->hlvalue ));
; 2387 :     /*
; 2388 :      * The formats allowed are:
; 2389 :      *        + constant
; 2390 :      *        + float
; 2391 :      * v2.06: unlike the other operators unary + will
; 2392 :      * handle 128-bit values (needed for TBYTE integers)
; 2393 :      */
; 2394 : 
; 2395 :     MakeConst( opnd2 );

	mov	rcx, rdx
	call	MakeConst

; 2396 :     if( opnd2->kind == EXPR_CONST ) {

	mov	ecx, DWORD PTR [rcx+60]
	test	ecx, ecx
	jne	SHORT $LN2@positive_o

; 2397 :         opnd1->kind = EXPR_CONST;

	mov	DWORD PTR [r9+60], ecx

; 2398 :         opnd1->llvalue = opnd2->llvalue;

	mov	rax, QWORD PTR [r10]
	mov	QWORD PTR [r9], rax

; 2399 :         opnd1->hlvalue = opnd2->hlvalue; /* v2.06: added */

	mov	rax, QWORD PTR [r10+8]
	mov	QWORD PTR [r9+8], rax

; 2407 :     }
; 2408 :     return( NOT_ERROR );

	xor	eax, eax

; 2409 : }

	add	rsp, 40					; 00000028H
	ret	0
$LN2@positive_o:

; 2400 :     } else if( opnd2->kind == EXPR_FLOAT ) {

	cmp	ecx, 3
	jne	SHORT $LN4@positive_o

; 2401 :         opnd1->kind = EXPR_FLOAT;

	mov	DWORD PTR [r9+60], ecx

; 2402 :         opnd1->float_tok = opnd2->float_tok;

	mov	rax, QWORD PTR [r10+16]
	mov	QWORD PTR [r9+16], rax

; 2403 :         opnd1->negative = opnd2->negative;

	mov	eax, DWORD PTR [r10+76]
	xor	eax, DWORD PTR [r9+76]
	and	eax, 32					; 00000020H
	xor	DWORD PTR [r9+76], eax

; 2407 :     }
; 2408 :     return( NOT_ERROR );

	xor	eax, eax

; 2409 : }

	add	rsp, 40					; 00000028H
	ret	0
$LN4@positive_o:

; 2404 :     } else {
; 2405 :         DebugMsg(("positive_op: error 1\n"));
; 2406 :         return( fnEmitErr( CONSTANT_EXPECTED ) );

	mov	ecx, 65					; 00000041H

; 2409 : }

	add	rsp, 40					; 00000028H

; 2404 :     } else {
; 2405 :         DebugMsg(("positive_op: error 1\n"));
; 2406 :         return( fnEmitErr( CONSTANT_EXPECTED ) );

	rex_jmp	QWORD PTR fnEmitErr
positive_op ENDP
_TEXT	ENDS
; Function compile flags: /Ogtpy
; File d:\hjwasm\hjwasm2.13.1s\hjwasm2.13.1s\expreval.c
;	COMDAT colon_op
_TEXT	SEGMENT
opnd1$ = 8
opnd2$ = 16
colon_op PROC						; COMDAT

; 2255 :     int_32              temp;
; 2256 :     struct asym         *sym;
; 2257 :     /*
; 2258 :      * The only formats allowed are:
; 2259 :      *     seg_reg : const
; 2260 :      *     seg_reg : address
; 2261 :      *     seg_label : const
; 2262 :      *     seg_label : address
; 2263 :      *     ( seg_label = segment or group symbol )
; 2264 :      *     inside square brackets, seg_reg : register is not accepted
; 2265 :      *     if Masm-syntax is on.
; 2266 :      */
; 2267 :     DebugMsg1(("colon_op: t1-t2 kind=%d/%d type=%s-%s is_type=%u-%u\n",
; 2268 :                opnd1->kind, opnd2->kind,
; 2269 :                opnd1->type ? opnd1->type->name : "NULL",
; 2270 :                opnd2->type ? opnd2->type->name : "NULL",
; 2271 :                opnd1->is_type, opnd2->is_type ));
; 2272 :     if( opnd2->override != NULL ) {

	mov	rax, QWORD PTR [rdx+48]
	mov	r8, rcx
	test	rax, rax
	je	SHORT $LN5@colon_op

; 2273 :         /* v2.07a: was too rigid */
; 2274 :         if ( ( opnd1->kind == EXPR_REG && opnd2->override->token == T_REG ) ||

	mov	ecx, DWORD PTR [rcx+60]
	cmp	ecx, 2
	jne	SHORT $LN7@colon_op
	cmp	BYTE PTR [rax], cl
	je	SHORT $LN6@colon_op
$LN7@colon_op:
	cmp	ecx, 1
	jne	SHORT $LN5@colon_op
	cmp	BYTE PTR [rax], 8
	jne	SHORT $LN5@colon_op
$LN6@colon_op:

; 2275 :             ( opnd1->kind == EXPR_ADDR && opnd2->override->token == T_ID ) ) {
; 2276 :             DebugMsg(("colon_op: multiple override=%s\n", opnd2->override->string_ptr ));
; 2277 :             return( fnEmitErr( MULTIPLE_OVERRIDES ) );

	mov	ecx, 68					; 00000044H

; 2373 :             DebugMsg(("colon_op error 4\n"));
; 2374 :             return( fnEmitErr( SEGMENT_GROUP_OR_SEGREG_EXPECTED ) );
; 2375 :         }
; 2376 :     } else {
; 2377 :         DebugMsg(("colon_op error 5\n"));
; 2378 :         return( fnEmitErr( SEGMENT_GROUP_OR_SEGREG_EXPECTED ) );

	rex_jmp	QWORD PTR fnEmitErr
$LN5@colon_op:

; 2278 :         }
; 2279 :     }
; 2280 :     switch ( opnd2->kind ) {

	mov	r9d, DWORD PTR [rdx+60]
	mov	ecx, r9d
	sub	ecx, 2
	je	SHORT $LN8@colon_op
	cmp	ecx, 1
	jne	SHORT $LN9@colon_op

; 2286 :         }
; 2287 :         break;
; 2288 :     case EXPR_FLOAT:
; 2289 :         return( fnEmitErr( REAL_OR_BCD_NUMBER_NOT_ALLOWED ) );

	mov	ecx, 270				; 0000010eH

; 2373 :             DebugMsg(("colon_op error 4\n"));
; 2374 :             return( fnEmitErr( SEGMENT_GROUP_OR_SEGREG_EXPECTED ) );
; 2375 :         }
; 2376 :     } else {
; 2377 :         DebugMsg(("colon_op error 5\n"));
; 2378 :         return( fnEmitErr( SEGMENT_GROUP_OR_SEGREG_EXPECTED ) );

	rex_jmp	QWORD PTR fnEmitErr
$LN8@colon_op:

; 2281 :     case EXPR_REG:
; 2282 :         /* v2.05: register as second operand must be enclosed in [] */
; 2283 :         if ( opnd2->indirect == FALSE ) {

	test	BYTE PTR [rdx+76], 1
	jne	SHORT $LN9@colon_op
$LN34@colon_op:

; 2284 :             DebugMsg(("colon_op: register after : not enclosed in []\n" ));
; 2285 :             return( fnEmitErr( INVALID_USE_OF_REGISTER ) );

	mov	ecx, 170				; 000000aaH

; 2373 :             DebugMsg(("colon_op error 4\n"));
; 2374 :             return( fnEmitErr( SEGMENT_GROUP_OR_SEGREG_EXPECTED ) );
; 2375 :         }
; 2376 :     } else {
; 2377 :         DebugMsg(("colon_op error 5\n"));
; 2378 :         return( fnEmitErr( SEGMENT_GROUP_OR_SEGREG_EXPECTED ) );

	rex_jmp	QWORD PTR fnEmitErr
$LN9@colon_op:

; 2290 :     }
; 2291 : 
; 2292 :     if( opnd1->kind == EXPR_REG ) {

	mov	eax, DWORD PTR [r8+60]
	cmp	eax, 2
	jne	$LN11@colon_op

; 2293 : 
; 2294 :         /* the item before the ':' must be a single register */
; 2295 :         if( opnd1->idx_reg != NULL ) {

	cmp	QWORD PTR [r8+32], 0
	jne	SHORT $LN34@colon_op

; 2296 :             DebugMsg(("colon_op: register before ':' has idx_reg set!?\n"));
; 2297 :             return( fnEmitErr( INVALID_USE_OF_REGISTER ) );
; 2298 :         }
; 2299 :         /* segment override inside bracket not allowed with -Zne.
; 2300 :          * [ds:0] is ok, but [ds:ebx] is rejected.
; 2301 :          */
; 2302 :         /* v2.08: test moved here from get_operand() */
; 2303 :         /* v2.10: regression in v2.08-2.09: check was way too simple.
; 2304 :          * problem: indirect-flag isn't set for segment regs (anymore?).
; 2305 :          * error check moved back to get_operand().
; 2306 :          */
; 2307 : #if 0
; 2308 :         if ( Options.strict_masm_compat ) {
; 2309 :             return( fnEmitErr( INVALID_USE_OF_REGISTER ) );
; 2310 :         }
; 2311 : #endif
; 2312 :         /* make sure first operand is a segment register */
; 2313 :         temp = opnd1->base_reg->tokval;

	mov	r10, QWORD PTR [r8+24]

; 2314 :         if ( ( GetValueSp( temp ) & OP_SR ) == 0 ) {

	movsxd	rax, DWORD PTR [r10+16]
	lea	rcx, QWORD PTR [rax+rax*2]
	lea	rax, OFFSET FLAT:SpecialTable
	test	DWORD PTR [rax+rcx*4], 24576		; 00006000H
	je	$LN18@colon_op

; 2315 :             return( fnEmitErr( SEGMENT_GROUP_OR_SEGREG_EXPECTED ) );
; 2316 :         }
; 2317 : 
; 2318 :         opnd2->override = opnd1->base_reg;
; 2319 :         opnd2->indirect |= opnd1->indirect;

	mov	eax, DWORD PTR [rdx+76]
	mov	QWORD PTR [rdx+48], r10
	mov	ecx, DWORD PTR [r8+76]
	or	ecx, eax
	xor	ecx, eax
	and	ecx, 1
	xor	ecx, eax
	mov	DWORD PTR [rdx+76], ecx

; 2320 : 
; 2321 :         if ( opnd2->kind == EXPR_CONST ) {

	test	r9d, r9d
	jne	SHORT $LN15@colon_op

; 2322 :             opnd2->kind = EXPR_ADDR;

	mov	DWORD PTR [rdx+60], 1
$LN15@colon_op:

; 2323 :             /* v2.05: type flag cleared HERE, not in dot_op()
; 2324 :              * v2.05rc17 problem: mov es:byte ptr <var>,0
; 2325 :              * so the flag isn't cleared at all now.
; 2326 :              */
; 2327 :             //opnd2->is_type = FALSE;
; 2328 :         }
; 2329 : 
; 2330 :         if( opnd1->explicit ) {

	mov	eax, DWORD PTR [r8+76]
	test	al, 2
	je	SHORT $LN16@colon_op

; 2331 :             opnd2->explicit = opnd1->explicit;

	and	DWORD PTR [rdx+76], -3			; fffffffdH
	and	eax, 2
	or	DWORD PTR [rdx+76], eax

; 2332 :             opnd2->mem_type = opnd1->mem_type;

	mov	eax, DWORD PTR [r8+64]
	mov	DWORD PTR [rdx+64], eax

; 2333 :             opnd2->Ofssize  = opnd1->Ofssize;

	movzx	eax, BYTE PTR [r8+69]
	mov	BYTE PTR [rdx+69], al
$LN16@colon_op:

; 2334 :         }
; 2335 :         TokenAssign( opnd1, opnd2 );

	movups	xmm0, XMMWORD PTR [rdx]
	movups	XMMWORD PTR [r8], xmm0
	movups	xmm1, XMMWORD PTR [rdx+16]
	movups	XMMWORD PTR [r8+16], xmm1
	movups	xmm0, XMMWORD PTR [rdx+32]
	movups	XMMWORD PTR [r8+32], xmm0
	movups	xmm1, XMMWORD PTR [rdx+48]
	movups	XMMWORD PTR [r8+48], xmm1
	movups	xmm0, XMMWORD PTR [rdx+64]
	movups	XMMWORD PTR [r8+64], xmm0
	movups	xmm1, XMMWORD PTR [rdx+80]
	movups	XMMWORD PTR [r8+80], xmm1

; 2336 : 
; 2337 :         /*
; 2338 :          * currently the <type> token isn't copied by
; 2339 :          * TokenAssign (which is probably just for historical reasons).
; 2340 :          * So copy it manually!
; 2341 :          * v1.95: only copy if it is != NULL!
; 2342 :          * Testcase: (<type> ptr DS:[0]).<struct_field> ...
; 2343 :          * In this case the DS:[] will clear the <type>, as a result
; 2344 :          * the dot operator won't have a valid assume and the code fails.
; 2345 :          */
; 2346 :         if ( opnd2->type )

	mov	rax, QWORD PTR [rdx+96]
	test	rax, rax
	je	$LN24@colon_op

; 2370 :             opnd1->type = opnd2->type;

	mov	QWORD PTR [r8+96], rax

; 2379 :     }
; 2380 :     return( NOT_ERROR );

	xor	eax, eax

; 2381 : }

	ret	0
$LN11@colon_op:

; 2347 :             opnd1->type = opnd2->type;
; 2348 : 
; 2349 :     } else if( opnd1->kind == EXPR_ADDR &&
; 2350 :               /* opnd2->kind == EXPR_ADDR && */
; 2351 :               opnd1->override == NULL &&
; 2352 :               opnd1->instr == EMPTY &&
; 2353 :               opnd1->value == 0 &&
; 2354 :               opnd1->sym &&
; 2355 :               opnd1->base_reg == NULL &&

	cmp	eax, 1
	jne	SHORT $LN18@colon_op
	cmp	QWORD PTR [r8+48], 0
	jne	SHORT $LN18@colon_op
	cmp	DWORD PTR [r8+56], -2
	jne	SHORT $LN18@colon_op
	cmp	DWORD PTR [r8], 0
	jne	SHORT $LN18@colon_op
	mov	rax, QWORD PTR [r8+80]
	test	rax, rax
	je	SHORT $LN18@colon_op
	cmp	QWORD PTR [r8+24], 0
	jne	SHORT $LN18@colon_op
	cmp	QWORD PTR [r8+32], 0
	jne	SHORT $LN18@colon_op

; 2356 :               opnd1->idx_reg == NULL ) {
; 2357 : 
; 2358 :         sym = opnd1->sym;
; 2359 : 
; 2360 :         if( sym->state == SYM_GRP || sym->state == SYM_SEG ) {

	mov	ecx, DWORD PTR [rax+32]
	lea	eax, DWORD PTR [rcx-3]
	cmp	eax, 1
	jbe	SHORT $LN22@colon_op

; 2371 : 
; 2372 :         } else if( Parse_Pass > PASS_1 || sym->state != SYM_UNDEFINED ) {

	cmp	DWORD PTR Parse_Pass, 0
	ja	SHORT $LN18@colon_op
	test	ecx, ecx
	je	$LN24@colon_op
$LN18@colon_op:

; 2373 :             DebugMsg(("colon_op error 4\n"));
; 2374 :             return( fnEmitErr( SEGMENT_GROUP_OR_SEGREG_EXPECTED ) );
; 2375 :         }
; 2376 :     } else {
; 2377 :         DebugMsg(("colon_op error 5\n"));
; 2378 :         return( fnEmitErr( SEGMENT_GROUP_OR_SEGREG_EXPECTED ) );

	mov	ecx, 69					; 00000045H
	rex_jmp	QWORD PTR fnEmitErr
$LN22@colon_op:

; 2361 :             opnd2->kind = EXPR_ADDR;

	mov	DWORD PTR [rdx+60], 1

; 2362 :             opnd2->override = opnd1->label_tok;

	mov	rax, QWORD PTR [r8+40]
	mov	QWORD PTR [rdx+48], rax

; 2363 :             opnd2->indirect |= opnd1->indirect;

	mov	eax, DWORD PTR [rdx+76]
	mov	ecx, DWORD PTR [r8+76]
	or	ecx, eax
	xor	ecx, eax
	and	ecx, 1
	xor	ecx, eax
	mov	DWORD PTR [rdx+76], ecx

; 2364 :             if( opnd1->explicit ) {

	mov	eax, DWORD PTR [r8+76]
	test	al, 2
	je	SHORT $LN23@colon_op

; 2365 :                 opnd2->explicit = opnd1->explicit;

	xor	eax, ecx
	and	eax, 2
	xor	eax, ecx
	mov	DWORD PTR [rdx+76], eax

; 2366 :                 opnd2->mem_type = opnd1->mem_type;

	mov	eax, DWORD PTR [r8+64]
	mov	DWORD PTR [rdx+64], eax

; 2367 :                 opnd2->Ofssize  = opnd1->Ofssize;

	movzx	eax, BYTE PTR [r8+69]
	mov	BYTE PTR [rdx+69], al
$LN23@colon_op:

; 2368 :             }
; 2369 :             TokenAssign( opnd1, opnd2 );

	movups	xmm0, XMMWORD PTR [rdx]
	movups	XMMWORD PTR [r8], xmm0
	movups	xmm1, XMMWORD PTR [rdx+16]
	movups	XMMWORD PTR [r8+16], xmm1
	movups	xmm0, XMMWORD PTR [rdx+32]
	movups	XMMWORD PTR [r8+32], xmm0
	movups	xmm1, XMMWORD PTR [rdx+48]
	movups	XMMWORD PTR [r8+48], xmm1
	movups	xmm0, XMMWORD PTR [rdx+64]
	movups	XMMWORD PTR [r8+64], xmm0
	movups	xmm1, XMMWORD PTR [rdx+80]
	movups	XMMWORD PTR [r8+80], xmm1

; 2370 :             opnd1->type = opnd2->type;

	mov	rax, QWORD PTR [rdx+96]
	mov	QWORD PTR [r8+96], rax
$LN24@colon_op:

; 2379 :     }
; 2380 :     return( NOT_ERROR );

	xor	eax, eax

; 2381 : }

	ret	0
colon_op ENDP
_TEXT	ENDS
; Function compile flags: /Ogtpy
; File d:\hjwasm\hjwasm2.13.1s\hjwasm2.13.1s\expreval.c
;	COMDAT dot_op
_TEXT	SEGMENT
opnd1$ = 48
opnd2$ = 56
dot_op	PROC						; COMDAT

; 2050 : {

	mov	QWORD PTR [rsp+16], rbx
	push	rdi
	sub	rsp, 32					; 00000020H

; 2051 :     /* this code needs cleanup! some stuff is obsolete. */
; 2052 : 
; 2053 :     DebugMsg1(("dot_op: op1-op2 kind=%d/%d sym=%s-%s type=%s-%s mbr=%s-%s\n",
; 2054 :                opnd1->kind, opnd2->kind,
; 2055 :                opnd1->sym  ? opnd1->sym->name  : "NULL",
; 2056 :                opnd2->sym  ? opnd2->sym->name  : "NULL",
; 2057 :                opnd1->type ? opnd1->type->name : "NULL",
; 2058 :                opnd2->type ? opnd2->type->name : "NULL",
; 2059 :                opnd1->mbr  ? opnd1->mbr->name  : "NULL",
; 2060 :                opnd2->mbr  ? opnd2->mbr->name  : "NULL" ));
; 2061 : 
; 2062 :     /*
; 2063 :      * The formats allowed are:
; 2064 :      *        [register]      . (type) constant
; 2065 :      *        label           . (type) constant
; 2066 :      *        (type) constant . (type) constant
; 2067 :      *
; 2068 :      * with OPTION OLDSTRUCTS:
; 2069 :      *        [register]      . address
; 2070 :      *        address         . address
; 2071 :      */
; 2072 : 
; 2073 :     if( check_direct_reg( opnd1, opnd2 ) == ERROR ) {

	mov	eax, DWORD PTR [rcx+60]
	mov	rdi, rdx
	mov	rbx, rcx
	cmp	eax, 2
	jne	SHORT $LN42@dot_op
	test	BYTE PTR [rcx+76], 1
	je	SHORT $LN61@dot_op
$LN42@dot_op:
	cmp	DWORD PTR [rdx+60], 2
	jne	SHORT $LN2@dot_op
	test	BYTE PTR [rdx+76], 1
	jne	SHORT $LN2@dot_op
$LN61@dot_op:

; 2074 :         DebugMsg(("dot_op: error direct register\n"));
; 2075 :         return( fnEmitErr( INVALID_USE_OF_REGISTER ) );

	mov	ecx, 170				; 000000aaH

; 2250 : }

	mov	rbx, QWORD PTR [rsp+56]
	add	rsp, 32					; 00000020H
	pop	rdi

; 2074 :         DebugMsg(("dot_op: error direct register\n"));
; 2075 :         return( fnEmitErr( INVALID_USE_OF_REGISTER ) );

	rex_jmp	QWORD PTR fnEmitErr
$LN2@dot_op:
	mov	QWORD PTR [rsp+48], rsi

; 2076 :     }
; 2077 : 
; 2078 :     /* v2.08: remove EXPR_REG variants */
; 2079 :     if ( opnd1->kind == EXPR_REG )

	cmp	eax, 2
	jne	SHORT $LN3@dot_op

; 2080 :         opnd1->kind = EXPR_ADDR;

	mov	DWORD PTR [rcx+60], 1
$LN3@dot_op:

; 2081 :     if ( opnd2->kind == EXPR_REG )

	cmp	DWORD PTR [rdx+60], 2
	jne	SHORT $LN4@dot_op

; 2082 :         opnd2->kind = EXPR_ADDR;

	mov	DWORD PTR [rdx+60], 1
$LN4@dot_op:

; 2083 : 
; 2084 :     /* forward ref to a struct: [reg].<struct> */
; 2085 :     if ( opnd2->sym && opnd2->sym->state == SYM_UNDEFINED && Parse_Pass == PASS_1 ) {

	mov	rax, QWORD PTR [rdx+80]
	xor	esi, esi
	test	rax, rax
	je	SHORT $LN5@dot_op
	cmp	DWORD PTR [rax+32], esi
	jne	SHORT $LN5@dot_op
	cmp	DWORD PTR Parse_Pass, esi
	jne	SHORT $LN5@dot_op

; 2086 :         DebugMsg(("dot_op: forward reference %s, replaced by null struct type\n", opnd2->sym->name ));
; 2087 :         if ( !nullstruct )

	mov	rax, QWORD PTR nullstruct
	test	rax, rax
	jne	SHORT $LN6@dot_op

; 2088 :             nullstruct = CreateTypeSymbol( NULL, "", FALSE );

	xor	r8d, r8d
	lea	rdx, OFFSET FLAT:$SG11760
	xor	ecx, ecx
	call	CreateTypeSymbol
	mov	QWORD PTR nullstruct, rax
$LN6@dot_op:

; 2089 :         opnd2->type = nullstruct;
; 2090 :         opnd2->is_type = TRUE; /* v2.10: added */

	or	DWORD PTR [rdi+76], 8
	mov	QWORD PTR [rdi+96], rax

; 2091 :         opnd2->sym = NULL;

	mov	QWORD PTR [rdi+80], rsi

; 2092 :         opnd2->kind = EXPR_CONST;

	mov	DWORD PTR [rdi+60], esi
$LN5@dot_op:

; 2093 :     }
; 2094 : 
; 2095 :     if( check_same( opnd1, opnd2, EXPR_ADDR ) ) {

	mov	eax, DWORD PTR [rbx+60]
	cmp	eax, 1
	jne	$LN7@dot_op
	cmp	DWORD PTR [rdi+60], eax
	jne	$LN7@dot_op

; 2096 : 
; 2097 :         DebugMsg1(("dot_op, ADDR - ADDR, t1-t2 memtype=%X-%X sym=%s-%s\n",
; 2098 :                    opnd1->mem_type, opnd2->mem_type,
; 2099 :                    opnd1->sym  ? opnd1->sym->name  : "NULL",
; 2100 :                    opnd2->sym  ? opnd2->sym->name  : "NULL" ));
; 2101 : 
; 2102 : #if 1 /* v2.05: error */
; 2103 :         if ( opnd2->mbr == NULL && !ModuleInfo.oldstructs ) {

	cmp	QWORD PTR [rdi+88], rsi
	jne	SHORT $LN9@dot_op
	test	DWORD PTR ModuleInfo+408, 256		; 00000100H
	je	$LN29@dot_op
$LN9@dot_op:

; 2104 :             DebugMsg(("dot_op: error, mbr 2 is NULL\n"));
; 2105 :             return( struct_field_error( opnd1 ) );
; 2106 :         }
; 2107 : #endif
; 2108 :         if ( index_connect( opnd1, opnd2 ) == ERROR )

	mov	rdx, rdi
	mov	rcx, rbx
	call	index_connect
	cmp	eax, -1
	jne	SHORT $LN10@dot_op

; 2109 :             return( ERROR );

	or	eax, eax
	mov	rsi, QWORD PTR [rsp+48]

; 2250 : }

	mov	rbx, QWORD PTR [rsp+56]
	add	rsp, 32					; 00000020H
	pop	rdi
	ret	0
$LN10@dot_op:

; 2110 : 
; 2111 :         if( opnd2->sym != NULL ) {

	mov	rax, QWORD PTR [rdi+80]
	test	rax, rax
	je	SHORT $LN11@dot_op

; 2112 :             if( opnd1->sym != NULL &&
; 2113 :                 opnd1->sym->state != SYM_UNDEFINED &&

	mov	rcx, QWORD PTR [rbx+80]
	test	rcx, rcx
	je	SHORT $LN12@dot_op
	cmp	DWORD PTR [rcx+32], esi
	je	SHORT $LN12@dot_op
	cmp	DWORD PTR [rax+32], esi
	je	SHORT $LN12@dot_op

; 2114 :                 opnd2->sym->state != SYM_UNDEFINED ) {
; 2115 :                 DebugMsg(("dot_op: error, two relocatable labels: %s - %s \n", opnd1->sym->name, opnd2->sym->name ));
; 2116 :                 return( fnEmitErr( CANNOT_ADD_TWO_RELOCATABLE_LABELS ) );

	mov	ecx, 173				; 000000adH
	mov	rsi, QWORD PTR [rsp+48]

; 2250 : }

	mov	rbx, QWORD PTR [rsp+56]
	add	rsp, 32					; 00000020H
	pop	rdi

; 2114 :                 opnd2->sym->state != SYM_UNDEFINED ) {
; 2115 :                 DebugMsg(("dot_op: error, two relocatable labels: %s - %s \n", opnd1->sym->name, opnd2->sym->name ));
; 2116 :                 return( fnEmitErr( CANNOT_ADD_TWO_RELOCATABLE_LABELS ) );

	rex_jmp	QWORD PTR fnEmitErr
$LN12@dot_op:

; 2117 :             }
; 2118 :             opnd1->label_tok = opnd2->label_tok;

	mov	rax, QWORD PTR [rdi+40]
	mov	QWORD PTR [rbx+40], rax

; 2119 :             opnd1->sym = opnd2->sym;

	mov	rax, QWORD PTR [rdi+80]
	mov	QWORD PTR [rbx+80], rax
$LN11@dot_op:

; 2120 :         }
; 2121 :         if( opnd2->mbr != NULL ) {

	mov	rax, QWORD PTR [rdi+88]
	test	rax, rax
	je	SHORT $LN13@dot_op

; 2122 :             opnd1->mbr = opnd2->mbr;

	mov	QWORD PTR [rbx+88], rax
$LN13@dot_op:

; 2123 :         }
; 2124 :         opnd1->value += opnd2->value;

	mov	eax, DWORD PTR [rdi]
	add	DWORD PTR [rbx], eax

; 2125 :         if( opnd1->explicit == FALSE ) {

	test	BYTE PTR [rbx+76], 2
	jne	SHORT $LN14@dot_op

; 2126 :             opnd1->mem_type = opnd2->mem_type;

	mov	eax, DWORD PTR [rdi+64]
	mov	DWORD PTR [rbx+64], eax
$LN14@dot_op:

; 2127 :         }
; 2128 :         if ( opnd2->type )

	mov	rax, QWORD PTR [rdi+96]
	test	rax, rax
	je	$LN33@dot_op

; 2129 :             opnd1->type = opnd2->type;

	mov	rsi, QWORD PTR [rsp+48]
	mov	QWORD PTR [rbx+96], rax

; 2248 :     }
; 2249 :     return( NOT_ERROR );

	xor	eax, eax

; 2250 : }

	mov	rbx, QWORD PTR [rsp+56]
	add	rsp, 32					; 00000020H
	pop	rdi
	ret	0
$LN7@dot_op:

; 2130 : 
; 2131 :     } else if( ( opnd1->kind == EXPR_CONST ) && ( opnd2->kind == EXPR_ADDR ) ) {

	test	eax, eax
	jne	$LN16@dot_op
	cmp	DWORD PTR [rdi+60], 1
	jne	$LN16@dot_op

; 2132 : 
; 2133 :         DebugMsg1(("dot_op, CONST - ADDR: t1-t2 memtype=%Xh-%Xh istype=%u-%u\n",
; 2134 :                    opnd1->mem_type, opnd2->mem_type, opnd1->is_type, opnd2->is_type ));
; 2135 :         /* v2.08 added (copied from branch EXPR_ADDR-EXPR_REG )*/
; 2136 :         if ( opnd1->is_type && opnd1->type ) {

	test	BYTE PTR [rbx+76], 8
	je	SHORT $LN18@dot_op
	cmp	QWORD PTR [rbx+96], rsi
	je	SHORT $LN18@dot_op

; 2137 :             opnd2->assumecheck = FALSE;

	and	DWORD PTR [rdi+76], -65			; ffffffbfH

; 2138 :             opnd1->llvalue = 0;  /* v2.08: this was previously done in get_operand() */

	mov	QWORD PTR [rbx], rsi
$LN18@dot_op:

; 2139 :         }
; 2140 : #if 1 /* v2.05: error */
; 2141 :         /* <structname>.<member>[<index_reg>] is ALWAYS ok! */
; 2142 :         if ( ( !ModuleInfo.oldstructs ) && ( opnd1->is_type == FALSE && opnd1->mbr == NULL ) )

	test	DWORD PTR ModuleInfo+408, 256		; 00000100H
	jne	SHORT $LN19@dot_op
	mov	eax, DWORD PTR [rbx+76]
	test	al, 8
	jne	SHORT $LN19@dot_op
	cmp	QWORD PTR [rbx+88], rsi
	jne	SHORT $LN19@dot_op

; 2143 :             return( struct_field_error( opnd1 ) );

	test	al, 16
	je	$LN59@dot_op

; 2244 :         }
; 2245 :     } else {
; 2246 :         DebugMsg(("dot_op: error, unknown kind combination, opnd1->kind=%d, opnd2->kind=%d\n", opnd1->kind, opnd2->kind ));
; 2247 :         return( struct_field_error( opnd1 ) );

	mov	eax, esi
	mov	DWORD PTR [rbx+60], -1
	mov	rsi, QWORD PTR [rsp+48]

; 2250 : }

	mov	rbx, QWORD PTR [rsp+56]
	add	rsp, 32					; 00000020H
	pop	rdi
	ret	0
$LN19@dot_op:

; 2144 : #endif
; 2145 :         /* for TYPE.xxx, return offset instead of size */
; 2146 :         if ( opnd1->mbr && opnd1->mbr->state == SYM_TYPE )

	mov	rax, QWORD PTR [rbx+88]
	test	rax, rax
	je	SHORT $LN20@dot_op
	cmp	DWORD PTR [rax+32], 7
	jne	SHORT $LN20@dot_op

; 2147 :             opnd1->llvalue = opnd1->mbr->offset;

	movsxd	rax, DWORD PTR [rax+16]
	mov	QWORD PTR [rbx], rax
$LN20@dot_op:

; 2148 :         opnd2->indirect |= opnd1->indirect;

	mov	eax, DWORD PTR [rbx+76]
	and	eax, 1
	or	DWORD PTR [rdi+76], eax

; 2149 :         opnd2->llvalue += opnd1->llvalue;

	mov	rax, QWORD PTR [rbx]
	add	QWORD PTR [rdi], rax

; 2150 :         DebugMsg1(("dot_op, CONST - ADDR, t1.type=%X (%s), t2.type=%X (%s)\n",
; 2151 :                    opnd1->type,
; 2152 :                    opnd1->type ? opnd1->type->name : "",
; 2153 :                    opnd2->type,
; 2154 :                    opnd2->type ? opnd2->type->name : "" ));
; 2155 :         /* v2.06: added. test case: INVOKE struct.mbr[edx] ( mbr has a type ) */
; 2156 :         if ( opnd2->mbr )

	cmp	QWORD PTR [rdi+88], rsi
	je	SHORT $LN21@dot_op

; 2157 :             opnd1->type = opnd2->type;

	mov	rax, QWORD PTR [rdi+96]
	mov	QWORD PTR [rbx+96], rax
$LN21@dot_op:

; 2158 :         TokenAssign( opnd1, opnd2 );

	movups	xmm0, XMMWORD PTR [rdi]
	mov	rsi, QWORD PTR [rsp+48]

; 2248 :     }
; 2249 :     return( NOT_ERROR );

	xor	eax, eax
	movups	XMMWORD PTR [rbx], xmm0
	movups	xmm1, XMMWORD PTR [rdi+16]
	movups	XMMWORD PTR [rbx+16], xmm1
	movups	xmm0, XMMWORD PTR [rdi+32]
	movups	XMMWORD PTR [rbx+32], xmm0
	movups	xmm1, XMMWORD PTR [rdi+48]
	movups	XMMWORD PTR [rbx+48], xmm1
	movups	xmm0, XMMWORD PTR [rdi+64]
	movups	XMMWORD PTR [rbx+64], xmm0
	movups	xmm1, XMMWORD PTR [rdi+80]
	movups	XMMWORD PTR [rbx+80], xmm1

; 2250 : }

	mov	rbx, QWORD PTR [rsp+56]
	add	rsp, 32					; 00000020H
	pop	rdi
	ret	0
$LN16@dot_op:

; 2159 : 
; 2160 :     } else if( ( opnd1->kind == EXPR_ADDR ) && ( opnd2->kind == EXPR_CONST ) ) {

	cmp	eax, 1
	jne	$LN22@dot_op
	cmp	DWORD PTR [rdi+60], esi
	jne	SHORT $LN22@dot_op

; 2161 : 
; 2162 :         DebugMsg1(("dot_op, ADDR - CONST: t1-t2 memtype=%Xh-%Xh t1.explicit=%u\n",
; 2163 :                    opnd1->mem_type, opnd2->mem_type, opnd1->explicit ));
; 2164 : 
; 2165 :         /* v2.08: changed to catch [ebx].<num> or [ebx].<simple type> */
; 2166 :         //if ( (!ModuleInfo.oldstructs) && opnd2->type == NULL && opnd2->mbr == NULL ) {
; 2167 :         if ( (!ModuleInfo.oldstructs) && ( opnd2->type == NULL || opnd2->is_type == FALSE ) && opnd2->mbr == NULL ) {

	test	DWORD PTR ModuleInfo+408, 256		; 00000100H
	jne	SHORT $LN24@dot_op
	cmp	QWORD PTR [rdi+96], rsi
	je	SHORT $LN25@dot_op
	test	BYTE PTR [rdi+76], 8
	jne	SHORT $LN64@dot_op
$LN25@dot_op:
	cmp	QWORD PTR [rdi+88], rsi
	je	$LN29@dot_op
$LN24@dot_op:

; 2168 :             DebugMsg(("dot_op: error, constant or simple type after dot\n"));
; 2169 :             return( struct_field_error( opnd1 ) );
; 2170 :         }
; 2171 : 
; 2172 :         /* v2.08 added (copied from branch EXPR_ADDR-EXPR_REG )*/
; 2173 :         if ( opnd2->is_type && opnd2->type ) {

	test	BYTE PTR [rdi+76], 8
	je	SHORT $LN26@dot_op
$LN64@dot_op:
	cmp	QWORD PTR [rdi+96], rsi
	je	SHORT $LN26@dot_op

; 2174 :             opnd1->assumecheck = FALSE;

	and	DWORD PTR [rbx+76], -65			; ffffffbfH

; 2175 :             opnd2->llvalue = 0;  /* v2.08: this was previously done in get_operand() */

	mov	QWORD PTR [rdi], rsi
$LN26@dot_op:

; 2176 :         }
; 2177 :         /* for [var].TYPE | STRUCT_FIELD, use offset instead of size */
; 2178 :         if ( opnd2->mbr && opnd2->mbr->state == SYM_TYPE )

	mov	rax, QWORD PTR [rdi+88]
	test	rax, rax
	je	SHORT $LN27@dot_op
	cmp	DWORD PTR [rax+32], 7
	jne	SHORT $LN27@dot_op

; 2179 :             opnd2->llvalue = opnd2->mbr->offset;

	movsxd	rax, DWORD PTR [rax+16]
	mov	QWORD PTR [rdi], rax
$LN27@dot_op:

; 2180 :         opnd1->llvalue += opnd2->llvalue;

	mov	rax, QWORD PTR [rdi]
	add	QWORD PTR [rbx], rax

; 2181 :         opnd1->mem_type = opnd2->mem_type; /* v2.08: now always done */

	mov	eax, DWORD PTR [rdi+64]
	mov	DWORD PTR [rbx+64], eax

; 2182 :         if( opnd2->mbr != NULL ) {

	mov	rax, QWORD PTR [rdi+88]
	test	rax, rax
	je	SHORT $LN28@dot_op

; 2183 :             opnd1->mbr = opnd2->mbr;

	mov	QWORD PTR [rbx+88], rax
$LN28@dot_op:

; 2184 : #if 0 /* v2.07 */
; 2185 :             /* temp. disabled in v1.95, test case:
; 2186 :              * mov eax,(<struct> ptr [ebx]).F1
; 2187 :              * however: mov ax, word ptr var[bx].F1 ???
; 2188 :              * the condition can't be disabled. Instead the PTR
; 2189 :              * operator must NOT set the explicit flag if the
; 2190 :              * first operand is a structure.
; 2191 :              */
; 2192 :             if( opnd1->explicit == FALSE )
; 2193 : #endif
; 2194 :                 //opnd1->mem_type = opnd2->mem_type; /* v2.08: obsolete */
; 2195 :         }
; 2196 : 
; 2197 :         DebugMsg1(("dot_op, ADDR - CONST, t1.type=%X (%s), t2.type=%X (%s)\n",
; 2198 :                    opnd1->type,
; 2199 :                    opnd1->type ? opnd1->type->name : "",
; 2200 :                    opnd2->type,
; 2201 :                    opnd2->type ? opnd2->type->name : "" ));
; 2202 : #if 0 /* v1.96 */
; 2203 :         if ( opnd2->type )
; 2204 : #endif
; 2205 :             opnd1->type = opnd2->type;

	mov	rax, QWORD PTR [rdi+96]
	mov	rsi, QWORD PTR [rsp+48]
	mov	QWORD PTR [rbx+96], rax

; 2248 :     }
; 2249 :     return( NOT_ERROR );

	xor	eax, eax

; 2250 : }

	mov	rbx, QWORD PTR [rsp+56]
	add	rsp, 32					; 00000020H
	pop	rdi
	ret	0
$LN22@dot_op:

; 2206 : 
; 2207 :     } else if ( opnd1->kind == EXPR_CONST && opnd2->kind == EXPR_CONST ) {

	test	eax, eax
	jne	$LN29@dot_op
	cmp	DWORD PTR [rdi+60], esi
	jne	$LN29@dot_op

; 2208 : 
; 2209 :         DebugMsg1(("dot_op, CONST - CONST, t1-t2 value=%u-%u, memtype=%Xh-%Xh istype=%u-%u\n",
; 2210 :                    opnd1->value, opnd2->value, opnd1->mem_type, opnd2->mem_type, opnd1->is_type, opnd2->is_type));
; 2211 :         if ( opnd2->mbr == NULL && !ModuleInfo.oldstructs ) {

	cmp	QWORD PTR [rdi+88], rsi
	jne	SHORT $LN31@dot_op
	test	DWORD PTR ModuleInfo+408, 256		; 00000100H
	je	SHORT $LN29@dot_op
$LN31@dot_op:

; 2212 :             DebugMsg(("dot_op: error, opnd2.mbr=NULL\n" ));
; 2213 :             return( struct_field_error( opnd1 ) );
; 2214 :         }
; 2215 :         if ( opnd1->type != NULL ) {

	mov	rcx, QWORD PTR [rbx+96]

; 2221 :                 opnd1->llvalue += opnd2->llvalue;

	mov	rax, QWORD PTR [rdi]
	test	rcx, rcx
	je	SHORT $LN32@dot_op

; 2216 :             /*
; 2217 :              * v2.06: the token1 value must NOT be ignored if the token is a
; 2218 :              * struct member: mov ax, [offset] <struct>.<mbr>.<mbr>
; 2219 :              */
; 2220 :             if ( opnd1->mbr != NULL )

	cmp	QWORD PTR [rbx+88], rsi
	je	SHORT $LN34@dot_op

; 2221 :                 opnd1->llvalue += opnd2->llvalue;

	add	QWORD PTR [rbx], rax
	jmp	SHORT $LN35@dot_op
$LN34@dot_op:

; 2222 :             else {
; 2223 :                 /* old token is a type - the value (=size) is ignored then. */
; 2224 :                 opnd1->llvalue = opnd2->llvalue;

	mov	QWORD PTR [rbx], rax
$LN35@dot_op:

; 2225 :             }
; 2226 :             opnd1->mbr = opnd2->mbr;

	mov	rax, QWORD PTR [rdi+88]
	mov	QWORD PTR [rbx+88], rax

; 2227 :             /* v2.0: copy mem_type (test case: mov ds:[<struct>.<mbr>], 123) */
; 2228 :             opnd1->mem_type = opnd2->mem_type;

	mov	eax, DWORD PTR [rdi+64]
	mov	DWORD PTR [rbx+64], eax

; 2229 :             /* v2.05: removed, it's still a type constant */
; 2230 :             //opnd1->is_type = FALSE;
; 2231 :             opnd1->is_type = opnd2->is_type;

	mov	eax, DWORD PTR [rdi+76]
	xor	eax, DWORD PTR [rbx+76]
	and	eax, 8
	xor	DWORD PTR [rbx+76], eax

; 2232 :             /* either clear <type> or use the renewed one */
; 2233 :             if ( opnd1->type != opnd2->type )

	cmp	rcx, QWORD PTR [rdi+96]
	cmovne	rsi, QWORD PTR [rdi+96]

; 2248 :     }
; 2249 :     return( NOT_ERROR );

	xor	eax, eax
	mov	QWORD PTR [rbx+96], rsi
	mov	rsi, QWORD PTR [rsp+48]

; 2250 : }

	mov	rbx, QWORD PTR [rsp+56]
	add	rsp, 32					; 00000020H
	pop	rdi
	ret	0
$LN32@dot_op:

; 2234 :                 opnd1->type = opnd2->type;
; 2235 :             else
; 2236 :                 opnd1->type = NULL;
; 2237 :         } else {
; 2238 :             /* old token is NOT a type */
; 2239 :             /* most likely a number or an MT_ABS symbol! */
; 2240 :             /* so the TOTAL of both constants is required */
; 2241 :             opnd1->llvalue += opnd2->llvalue;

	add	QWORD PTR [rbx], rax

; 2242 :             opnd1->mbr = opnd2->mbr;

	mov	rax, QWORD PTR [rdi+88]
	mov	QWORD PTR [rbx+88], rax

; 2243 :             opnd1->mem_type = opnd2->mem_type;

	mov	eax, DWORD PTR [rdi+64]
	mov	DWORD PTR [rbx+64], eax
$LN33@dot_op:

; 2248 :     }
; 2249 :     return( NOT_ERROR );

	xor	eax, eax
	mov	rsi, QWORD PTR [rsp+48]

; 2250 : }

	mov	rbx, QWORD PTR [rsp+56]
	add	rsp, 32					; 00000020H
	pop	rdi
	ret	0
$LN29@dot_op:

; 2244 :         }
; 2245 :     } else {
; 2246 :         DebugMsg(("dot_op: error, unknown kind combination, opnd1->kind=%d, opnd2->kind=%d\n", opnd1->kind, opnd2->kind ));
; 2247 :         return( struct_field_error( opnd1 ) );

	test	BYTE PTR [rbx+76], 16
	je	SHORT $LN59@dot_op
	mov	eax, esi
	mov	DWORD PTR [rbx+60], -1
	mov	rsi, QWORD PTR [rsp+48]

; 2250 : }

	mov	rbx, QWORD PTR [rsp+56]
	add	rsp, 32					; 00000020H
	pop	rdi
	ret	0

; 2244 :         }
; 2245 :     } else {
; 2246 :         DebugMsg(("dot_op: error, unknown kind combination, opnd1->kind=%d, opnd2->kind=%d\n", opnd1->kind, opnd2->kind ));
; 2247 :         return( struct_field_error( opnd1 ) );

$LN59@dot_op:
	mov	ecx, 271				; 0000010fH

; 2250 : }

	mov	rbx, QWORD PTR [rsp+56]
	mov	esi, eax
	mov	rsi, QWORD PTR [rsp+48]
	add	rsp, 32					; 00000020H
	pop	rdi

; 2244 :         }
; 2245 :     } else {
; 2246 :         DebugMsg(("dot_op: error, unknown kind combination, opnd1->kind=%d, opnd2->kind=%d\n", opnd1->kind, opnd2->kind ));
; 2247 :         return( struct_field_error( opnd1 ) );

	rex_jmp	QWORD PTR fnEmitErr
dot_op	ENDP
_TEXT	ENDS
; Function compile flags: /Ogtpy
; File d:\hjwasm\hjwasm2.13.1s\hjwasm2.13.1s\expreval.c
;	COMDAT struct_field_error
_TEXT	SEGMENT
opnd$ = 8
struct_field_error PROC					; COMDAT

; 2041 :     if ( opnd->is_opattr ) {

	test	BYTE PTR [rcx+76], 16
	je	SHORT $LN2@struct_fie

; 2042 :         opnd->kind = EXPR_ERROR;

	mov	DWORD PTR [rcx+60], -1

; 2043 :         return( NOT_ERROR );

	xor	eax, eax

; 2046 : }

	ret	0
$LN2@struct_fie:

; 2044 :     }
; 2045 :     return( fnEmitErr( STRUCTURE_FIELD_EXPECTED ) );

	mov	ecx, 271				; 0000010fH
	rex_jmp	QWORD PTR fnEmitErr
struct_field_error ENDP
_TEXT	ENDS
; Function compile flags: /Ogtpy
; File d:\hjwasm\hjwasm2.13.1s\hjwasm2.13.1s\expreval.c
;	COMDAT minus_op
_TEXT	SEGMENT
opnd1$ = 48
opnd2$ = 56
minus_op PROC						; COMDAT

; 1894 : {

	sub	rsp, 40					; 00000028H
	mov	r9, rcx
	mov	r10, rdx

; 1895 :     struct asym      *sym;
; 1896 :     /*
; 1897 :      * The only formats allowed are:
; 1898 :      *        constant - constant
; 1899 :      *         address - constant       ( only in this order )
; 1900 :      *         address - address
; 1901 :      *        register - constant       ( only inside [] and in this
; 1902 :      *                                    order )
; 1903 :      */
; 1904 : 
; 1905 :     DebugMsg1(("minus_op: kind tok1=%u, tok2=%u\n", opnd1->kind, opnd2->kind ));
; 1906 : 
; 1907 :     if( check_direct_reg( opnd1, opnd2 ) == ERROR ) {

	mov	ecx, DWORD PTR [rcx+60]
	cmp	ecx, 2
	jne	SHORT $LN33@minus_op
	test	BYTE PTR [r9+76], 1
	je	SHORT $LN50@minus_op
$LN33@minus_op:
	mov	eax, DWORD PTR [rdx+60]
	cmp	eax, 2
	jne	SHORT $LN2@minus_op
	test	BYTE PTR [rdx+76], 1
	jne	SHORT $LN2@minus_op
$LN50@minus_op:

; 1908 :         DebugMsg(("minus_op: error direct register\n"));
; 1909 :         return( fnEmitErr( INVALID_USE_OF_REGISTER ) );

	mov	ecx, 170				; 000000aaH

; 2034 : }

	add	rsp, 40					; 00000028H

; 1908 :         DebugMsg(("minus_op: error direct register\n"));
; 1909 :         return( fnEmitErr( INVALID_USE_OF_REGISTER ) );

	rex_jmp	QWORD PTR fnEmitErr
$LN2@minus_op:

; 1910 :     }
; 1911 : 
; 1912 :     /* added for v1.94. It's related to the change done in MakeConst()!
; 1913 :      * todo: find out why flag no_error_msg was checked in v1.94-2.09.
; 1914 :      */
; 1915 :     if ( opnd1->kind == EXPR_ADDR &&
; 1916 :         opnd2->kind == EXPR_ADDR &&
; 1917 :         opnd2->sym &&

	cmp	ecx, 1
	jne	SHORT $LN3@minus_op
	cmp	eax, ecx
	jne	SHORT $LN3@minus_op
	mov	rax, QWORD PTR [rdx+80]
	test	rax, rax
	je	SHORT $LN3@minus_op
	cmp	DWORD PTR [rax+32], 0
	je	SHORT $LN4@minus_op
$LN3@minus_op:

; 1918 :         opnd2->sym->state == SYM_UNDEFINED /* && !no_error_msg */ )
; 1919 :         ; /* don't convert token2 to a constant! */
; 1920 :     else
; 1921 :         MakeConst( opnd2 );

	mov	rcx, rdx
	call	MakeConst
$LN4@minus_op:

; 1922 : 
; 1923 :     if( check_same( opnd1, opnd2, EXPR_CONST ) ) {

	mov	eax, DWORD PTR [r9+60]
	test	eax, eax
	jne	SHORT $LN5@minus_op
	cmp	DWORD PTR [r10+60], eax
	jne	SHORT $LN5@minus_op

; 1924 : 
; 1925 :         DebugMsg1(("minus_op: CONST-CONST\n" ));
; 1926 :         opnd1->llvalue -= opnd2->llvalue;

	mov	rax, QWORD PTR [r10]
	sub	QWORD PTR [r9], rax

; 2032 :     }
; 2033 :     return( NOT_ERROR );

	xor	eax, eax

; 2034 : }

	add	rsp, 40					; 00000028H
	ret	0
$LN5@minus_op:

; 1927 : 
; 1928 :     } else if( opnd1->kind == EXPR_ADDR &&

	cmp	eax, 1
	jne	$LN9@minus_op
	cmp	DWORD PTR [r10+60], 0
	jne	SHORT $LN7@minus_op

; 1929 :               opnd2->kind == EXPR_CONST ) {
; 1930 : 
; 1931 :         DebugMsg1(("minus_op: ADDR-CONST\n" ));
; 1932 :         opnd1->llvalue -= opnd2->llvalue;

	mov	rax, QWORD PTR [r10]
	sub	QWORD PTR [r9], rax

; 1933 :         fix_struct_value( opnd1 );

	mov	rax, QWORD PTR [r9+88]
	test	rax, rax
	je	$LN28@minus_op
	cmp	DWORD PTR [rax+32], 7
	jne	$LN28@minus_op
	mov	eax, DWORD PTR [rax+56]
	xor	ecx, ecx
	add	DWORD PTR [r9], eax

; 2032 :     }
; 2033 :     return( NOT_ERROR );

	xor	eax, eax
	mov	QWORD PTR [r9+88], rcx

; 2034 : }

	add	rsp, 40					; 00000028H
	ret	0
$LN7@minus_op:

; 1934 : 
; 1935 :     } else if( check_same( opnd1, opnd2, EXPR_ADDR ) ){

	cmp	eax, 1
	jne	$LN9@minus_op
	cmp	DWORD PTR [r10+60], eax
	jne	$LN9@minus_op

; 1936 : 
; 1937 :         DebugMsg1(("minus_op: ADDR-ADDR\n" ));
; 1938 :         fix_struct_value( opnd1 );

	mov	rax, QWORD PTR [r9+88]
	xor	ecx, ecx
	test	rax, rax
	je	SHORT $LN39@minus_op
	cmp	DWORD PTR [rax+32], 7
	jne	SHORT $LN39@minus_op
	mov	eax, DWORD PTR [rax+56]
	add	DWORD PTR [r9], eax
	mov	QWORD PTR [r9+88], rcx
$LN39@minus_op:

; 1939 :         fix_struct_value( opnd2 );

	mov	rax, QWORD PTR [r10+88]
	test	rax, rax
	je	SHORT $LN42@minus_op
	cmp	DWORD PTR [rax+32], 7
	jne	SHORT $LN42@minus_op
	mov	eax, DWORD PTR [rax+56]
	add	DWORD PTR [r10], eax
	mov	QWORD PTR [r10+88], rcx
$LN42@minus_op:

; 1940 :         //if( opnd2->base_reg != NULL || opnd2->idx_reg != NULL ) { /* v2.09: just check 'indirect' */
; 1941 :         if( opnd2->indirect ) {

	test	BYTE PTR [r10+76], 1
	jne	$LN50@minus_op

; 1942 :             DebugMsg(("minus_op error, opnd2->indirect==TRUE\n"));
; 1943 :             return( fnEmitErr( INVALID_USE_OF_REGISTER ) );
; 1944 :         }
; 1945 :         if( opnd2->label_tok == NULL ) {

	cmp	QWORD PTR [r10+40], rcx
	jne	SHORT $LN12@minus_op

; 1946 :             /* v2.06c: do 64-bit arithmetic (more rigid test in data.c) */
; 1947 :             //opnd1->value -= opnd2->value;
; 1948 :             opnd1->value64 -= opnd2->value64;

	mov	rax, QWORD PTR [r10]
	sub	QWORD PTR [r9], rax

; 1949 :             opnd1->indirect |= opnd2->indirect;

	mov	eax, DWORD PTR [r10+76]

; 2026 :         opnd1->indirect |= opnd2->indirect;

	and	eax, 1
	or	DWORD PTR [r9+76], eax

; 2032 :     }
; 2033 :     return( NOT_ERROR );

	xor	eax, eax

; 2034 : }

	add	rsp, 40					; 00000028H
	ret	0
$LN12@minus_op:

; 1950 :         } else {
; 1951 :             if( opnd1->label_tok == NULL || opnd1->sym == NULL || opnd2->sym == NULL ) {

	cmp	QWORD PTR [r9+40], rcx
	je	$LN15@minus_op
	mov	rdx, QWORD PTR [r9+80]
	test	rdx, rdx
	je	$LN15@minus_op
	cmp	QWORD PTR [r10+80], rcx
	je	$LN15@minus_op

; 1956 :             }
; 1957 :             /* handle first operand */
; 1958 :             sym = opnd1->sym;
; 1959 :             opnd1->value += sym->offset;

	mov	eax, DWORD PTR [rdx+16]
	add	DWORD PTR [r9], eax

; 1960 : 
; 1961 :             /* handle second operand */
; 1962 :             sym = opnd2->sym;
; 1963 :             if( Parse_Pass > PASS_1 ) {

	cmp	DWORD PTR Parse_Pass, ecx
	mov	r8, QWORD PTR [r10+80]
	jbe	SHORT $LN19@minus_op

; 1964 :                 /* if symbol is external, error - unless it's the same symbol */
; 1965 :                 if ( ( sym->state == SYM_EXTERNAL ||
; 1966 :                      opnd1->sym->state == SYM_EXTERNAL) &&

	cmp	DWORD PTR [r8+32], 2
	je	SHORT $LN18@minus_op
	cmp	DWORD PTR [rdx+32], 2
	jne	SHORT $LN17@minus_op
$LN18@minus_op:
	cmp	r8, rdx
	je	SHORT $LN17@minus_op

; 1967 :                     sym != opnd1->sym ) {
; 1968 :                     DebugMsg(("minus_op error 6\n"));
; 1969 :                     return( fnEmitErr(INVALID_USE_OF_EXTERNAL_SYMBOL, opnd1->sym->name ) );

	mov	rdx, QWORD PTR [rdx+8]
	mov	ecx, 193				; 000000c1H

; 2034 : }

	add	rsp, 40					; 00000028H

; 1967 :                     sym != opnd1->sym ) {
; 1968 :                     DebugMsg(("minus_op error 6\n"));
; 1969 :                     return( fnEmitErr(INVALID_USE_OF_EXTERNAL_SYMBOL, opnd1->sym->name ) );

	rex_jmp	QWORD PTR fnEmitErr
$LN17@minus_op:

; 1970 :                 }
; 1971 :                 /* check if the 2 offsets belong to the same segment */
; 1972 :                 if ( sym->segment != opnd1->sym->segment ) {

	mov	rax, QWORD PTR [rdx+24]
	cmp	QWORD PTR [r8+24], rax
	je	SHORT $LN19@minus_op

; 1973 :                     DebugMsg(("minus_op error, sym.segm=%X opnd1->sym.segm=%X\n", sym->segment, opnd1->sym->segment ));
; 1974 :                     return( fnEmitErr( OPERANDS_MUST_BE_IN_SAME_SEGMENT ) );

	mov	ecx, 192				; 000000c0H

; 2034 : }

	add	rsp, 40					; 00000028H

; 1973 :                     DebugMsg(("minus_op error, sym.segm=%X opnd1->sym.segm=%X\n", sym->segment, opnd1->sym->segment ));
; 1974 :                     return( fnEmitErr( OPERANDS_MUST_BE_IN_SAME_SEGMENT ) );

	rex_jmp	QWORD PTR fnEmitErr
$LN19@minus_op:

; 1975 :                 }
; 1976 :             }
; 1977 : 
; 1978 :             /* the type changes from address to constant.
; 1979 :              * but only if both labels are defined and no indirect addressing.
; 1980 :              */
; 1981 :             opnd1->kind = EXPR_CONST;

	mov	DWORD PTR [r9+60], ecx

; 1982 : 
; 1983 :             /* v2.05: if at least one label is undefined, assume result=1 */
; 1984 :             if ( opnd1->sym->state == SYM_UNDEFINED ||

	cmp	DWORD PTR [rdx+32], ecx
	je	SHORT $LN22@minus_op
	mov	rax, QWORD PTR [r10+80]
	cmp	DWORD PTR [rax+32], ecx
	je	SHORT $LN22@minus_op

; 1999 :             } else {
; 2000 :                 /* v2.06c: do 64-bit arithmetic (more rigid test in data.c) */
; 2001 :                 //opnd1->value -= sym->offset;
; 2002 :                 //opnd1->value -= opnd2->value;
; 2003 :                 opnd1->value64 -= sym->offset;

	movsxd	rax, DWORD PTR [r8+16]
	sub	QWORD PTR [r9], rax
	mov	rax, QWORD PTR [r9]

; 2004 :                 opnd1->value64 -= opnd2->value64;

	sub	rax, QWORD PTR [r10]
	mov	QWORD PTR [r9], rax

; 2005 :                 opnd1->label_tok = NULL;

	mov	QWORD PTR [r9+40], rcx

; 2006 :                 opnd1->sym = NULL;

	mov	QWORD PTR [r9+80], rcx
	jmp	SHORT $LN21@minus_op
$LN22@minus_op:

; 1985 :                 opnd2->sym->state == SYM_UNDEFINED ) {
; 1986 :                 opnd1->value = 1;

	mov	DWORD PTR [r9], 1

; 1987 :                 /* 2.09: make sure an undefined label is returned in opnd.sym.
; 1988 :                  * expression type has to be ADDR then; see equate22.aso.
; 1989 :                  * 2.11: returning EXPR_ADDR may cause problems -
; 1990 :                  * it may make the code longer than necessary, thus
; 1991 :                  * triggering an unnecessary jump extension.
; 1992 :                  * so it is returned only if the expression is used to define an equate.
; 1993 :                  */
; 1994 :                 if ( opnd1->sym->state != SYM_UNDEFINED ) {

	cmp	DWORD PTR [rdx+32], ecx
	je	SHORT $LN23@minus_op

; 1995 :                     opnd1->sym = opnd2->sym;

	mov	rax, QWORD PTR [r10+80]
	mov	QWORD PTR [r9+80], rax

; 1996 :                     opnd1->label_tok = opnd2->label_tok;

	mov	rax, QWORD PTR [r10+40]
	mov	QWORD PTR [r9+40], rax
$LN23@minus_op:

; 1997 :                 }
; 1998 :                 opnd1->kind = EXPR_ADDR;

	mov	DWORD PTR [r9+60], 1
$LN21@minus_op:

; 2007 :             }
; 2008 :             //if( opnd1->base_reg == NULL && opnd1->idx_reg == NULL ) { /* v2.09: just check 'indirect' */
; 2009 :             if( opnd1->indirect == FALSE ) {

	mov	eax, DWORD PTR [r9+76]
	test	al, 1
	jne	SHORT $LN24@minus_op

; 2010 :                 if( opnd1->instr == T_OFFSET && opnd2->instr == T_OFFSET )

	cmp	DWORD PTR [r9+56], 241			; 000000f1H
	jne	SHORT $LN25@minus_op
	cmp	DWORD PTR [r10+56], 241			; 000000f1H
	jne	SHORT $LN25@minus_op

; 2016 :                 //opnd1->indirect |= opnd2->indirect;  /* v2.09: op1->indirect is always 1, op2->indirect is always 0 */
; 2017 :             }
; 2018 :             opnd1->explicit = FALSE;

	and	eax, -3					; fffffffdH
	mov	DWORD PTR [r9+56], -2
	mov	DWORD PTR [r9+76], eax

; 2032 :     }
; 2033 :     return( NOT_ERROR );

	xor	eax, eax
	mov	DWORD PTR [r9+64], 192			; 000000c0H

; 2034 : }

	add	rsp, 40					; 00000028H
	ret	0
$LN24@minus_op:

; 2011 :                     opnd1->instr = EMPTY;
; 2012 :                 //opnd1->indirect = FALSE; /* v2.09: not needed */
; 2013 :             } else {
; 2014 :                 DebugMsg1(("minus_op, exit, ADDR, base=%X, idx=%X\n", opnd1->base_reg, opnd1->idx_reg ));
; 2015 :                 opnd1->kind = EXPR_ADDR;

	mov	DWORD PTR [r9+60], 1
$LN25@minus_op:

; 2016 :                 //opnd1->indirect |= opnd2->indirect;  /* v2.09: op1->indirect is always 1, op2->indirect is always 0 */
; 2017 :             }
; 2018 :             opnd1->explicit = FALSE;

	and	eax, -3					; fffffffdH

; 2019 :             opnd1->mem_type = MT_EMPTY;

	mov	DWORD PTR [r9+64], 192			; 000000c0H
	mov	DWORD PTR [r9+76], eax

; 2032 :     }
; 2033 :     return( NOT_ERROR );

	xor	eax, eax

; 2034 : }

	add	rsp, 40					; 00000028H
	ret	0
$LN15@minus_op:

; 1952 :                 DebugMsg(("minus_op error, label_tok=%X opnd1.sym=%X opnd2.sym=%X\n", opnd1->label_tok, opnd1->sym, opnd2->sym ));
; 1953 :                 /* v2.05: error msg changed */
; 1954 :                 //fnEmitErr( SYNTAX_ERROR );
; 1955 :                 return( fnEmitErr( OPERAND_MUST_BE_RELOCATABLE ) );

	mov	ecx, 188				; 000000bcH

; 2034 : }

	add	rsp, 40					; 00000028H

; 1952 :                 DebugMsg(("minus_op error, label_tok=%X opnd1.sym=%X opnd2.sym=%X\n", opnd1->label_tok, opnd1->sym, opnd2->sym ));
; 1953 :                 /* v2.05: error msg changed */
; 1954 :                 //fnEmitErr( SYNTAX_ERROR );
; 1955 :                 return( fnEmitErr( OPERAND_MUST_BE_RELOCATABLE ) );

	rex_jmp	QWORD PTR fnEmitErr
$LN9@minus_op:

; 2020 :         }
; 2021 : 
; 2022 :     } else if( opnd1->kind == EXPR_REG &&

	cmp	eax, 2
	jne	SHORT $LN27@minus_op
	cmp	DWORD PTR [r10+60], 0
	jne	SHORT $LN27@minus_op

; 2023 :               opnd2->kind == EXPR_CONST ) {
; 2024 : 
; 2025 :         opnd1->llvalue = -1 * opnd2->llvalue;

	mov	rax, QWORD PTR [r10]
	neg	rax
	mov	QWORD PTR [r9], rax

; 2026 :         opnd1->indirect |= opnd2->indirect;

	mov	eax, DWORD PTR [r10+76]
	and	eax, 1

; 2027 :         opnd1->kind = EXPR_ADDR;

	mov	DWORD PTR [r9+60], 1
	or	DWORD PTR [r9+76], eax
$LN28@minus_op:

; 2032 :     }
; 2033 :     return( NOT_ERROR );

	xor	eax, eax

; 2034 : }

	add	rsp, 40					; 00000028H
	ret	0
$LN27@minus_op:

; 2028 : 
; 2029 :     } else {
; 2030 :         DebugMsg(("minus_op, exit, error: kinds tok1=%u, tok2=%u\n", opnd1->kind, opnd2->kind ));
; 2031 :         return( ConstError( opnd1, opnd2 ) );

	test	BYTE PTR [r9+76], 16
	je	SHORT $LN45@minus_op
	xor	ecx, ecx
	mov	eax, ecx

; 2034 : }

	add	rsp, 40					; 00000028H
	ret	0

; 2028 : 
; 2029 :     } else {
; 2030 :         DebugMsg(("minus_op, exit, error: kinds tok1=%u, tok2=%u\n", opnd1->kind, opnd2->kind ));
; 2031 :         return( ConstError( opnd1, opnd2 ) );

$LN45@minus_op:
	cmp	eax, 3
	je	SHORT $LN48@minus_op
	cmp	DWORD PTR [r10+60], 3
	mov	ecx, 65					; 00000041H
	jne	SHORT $LN53@minus_op
$LN48@minus_op:
	mov	ecx, 270				; 0000010eH
$LN53@minus_op:
	call	QWORD PTR fnEmitErr
	or	ecx, -1
	mov	eax, ecx

; 2034 : }

	add	rsp, 40					; 00000028H
	ret	0
minus_op ENDP
_TEXT	ENDS
; Function compile flags: /Ogtpy
; File d:\hjwasm\hjwasm2.13.1s\hjwasm2.13.1s\expreval.c
;	COMDAT plus_op
_TEXT	SEGMENT
opnd1$ = 48
opnd2$ = 56
plus_op	PROC						; COMDAT

; 1767 : {

	mov	QWORD PTR [rsp+8], rbx
	push	rdi
	sub	rsp, 32					; 00000020H

; 1768 :     DebugMsg1(("plus_op: kind=%d/%d memtype=%Xh-%Xh value=%d-%d sym=%s-%s mbr=%s-%s type=%s-%s\n",
; 1769 :                opnd1->kind, opnd2->kind,
; 1770 :                opnd1->mem_type, opnd2->mem_type, 
; 1771 :                opnd1->value, opnd2->value,
; 1772 :                opnd1->sym ? opnd1->sym->name : "NULL",
; 1773 :                opnd2->sym ? opnd2->sym->name : "NULL",
; 1774 :                opnd1->mbr ? opnd1->mbr->name : "NULL",
; 1775 :                opnd2->mbr ? opnd2->mbr->name : "NULL",
; 1776 :                opnd1->type ? opnd1->type->name : "NULL",
; 1777 :                opnd2->type ? opnd2->type->name : "NULL" ));
; 1778 :     /*
; 1779 :      * The formats allowed are (registers inside [] only!):
; 1780 :      *        constant + constant  CONST-CONST
; 1781 :      *        constant + address   CONST-ADDR
; 1782 :      *        register + constant  ADDR-CONST
; 1783 :      *        address + register   ADDR-ADDR
; 1784 :      *        register + register  ADDR-ADDR
; 1785 :      *        address  + address   ADDR-ADDR
; 1786 :      */
; 1787 : 
; 1788 :     if( check_direct_reg( opnd1, opnd2 ) == ERROR ) {

	mov	eax, DWORD PTR [rcx+60]
	mov	rdi, rdx
	mov	rbx, rcx
	cmp	eax, 2
	jne	SHORT $LN34@plus_op
	test	BYTE PTR [rcx+76], 1
	je	SHORT $LN57@plus_op
$LN34@plus_op:
	cmp	DWORD PTR [rdx+60], 2
	jne	SHORT $LN2@plus_op
	test	BYTE PTR [rdx+76], 1
	jne	SHORT $LN2@plus_op
$LN57@plus_op:

; 1789 :         DebugMsg(("plus_op: error direct register\n" ));
; 1790 :         return( fnEmitErr( INVALID_USE_OF_REGISTER ) );

	mov	ecx, 170				; 000000aaH

; 1890 : }

	mov	rbx, QWORD PTR [rsp+48]
	add	rsp, 32					; 00000020H
	pop	rdi

; 1789 :         DebugMsg(("plus_op: error direct register\n" ));
; 1790 :         return( fnEmitErr( INVALID_USE_OF_REGISTER ) );

	rex_jmp	QWORD PTR fnEmitErr
$LN2@plus_op:

; 1791 :     }
; 1792 :     /* v2.08: remove EXPR_REG variants */
; 1793 :     if ( opnd1->kind == EXPR_REG )

	cmp	eax, 2
	jne	SHORT $LN3@plus_op

; 1794 :         opnd1->kind = EXPR_ADDR;

	mov	DWORD PTR [rcx+60], 1
$LN3@plus_op:

; 1795 :     if ( opnd2->kind == EXPR_REG )

	cmp	DWORD PTR [rdx+60], 2
	jne	SHORT $LN4@plus_op

; 1796 :         opnd2->kind = EXPR_ADDR;

	mov	DWORD PTR [rdx+60], 1
$LN4@plus_op:

; 1797 : 
; 1798 :     /* v2.07: don't allow multiple overrides */
; 1799 :     if ( opnd2->override ) {

	mov	rcx, QWORD PTR [rdx+48]
	test	rcx, rcx
	je	SHORT $LN5@plus_op

; 1800 :         if ( opnd1->override ) {

	mov	rdx, QWORD PTR [rbx+48]
	test	rdx, rdx
	je	SHORT $LN7@plus_op

; 1801 :             /* v2.07a: both T_REG or both T_ID is rejected */
; 1802 :             if ( opnd1->override->token == opnd2->override->token ) {

	movzx	eax, BYTE PTR [rcx]
	cmp	BYTE PTR [rdx], al
	jne	SHORT $LN7@plus_op

; 1803 :                 DebugMsg(("plus_op: multiple overrides\n" ));
; 1804 :                 return( fnEmitErr( MULTIPLE_OVERRIDES ) );

	mov	ecx, 68					; 00000044H

; 1890 : }

	mov	rbx, QWORD PTR [rsp+48]
	add	rsp, 32					; 00000020H
	pop	rdi

; 1803 :                 DebugMsg(("plus_op: multiple overrides\n" ));
; 1804 :                 return( fnEmitErr( MULTIPLE_OVERRIDES ) );

	rex_jmp	QWORD PTR fnEmitErr
$LN7@plus_op:

; 1805 :             }
; 1806 :         }
; 1807 :         opnd1->override = opnd2->override;

	mov	QWORD PTR [rbx+48], rcx
$LN5@plus_op:

; 1808 :     }
; 1809 : 
; 1810 :     if( check_same( opnd1, opnd2, EXPR_CONST ) ) {

	mov	eax, DWORD PTR [rbx+60]
	test	eax, eax
	jne	SHORT $LN8@plus_op
	cmp	DWORD PTR [rdi+60], eax
	jne	SHORT $LN8@plus_op

; 1811 : 
; 1812 :         DebugMsg1(("plus_op: CONST - CONST\n" ));
; 1813 :         opnd1->llvalue += opnd2->llvalue;

	mov	rax, QWORD PTR [rdi]
	add	QWORD PTR [rbx], rax

; 1888 :     }
; 1889 :     return( NOT_ERROR );

	xor	eax, eax

; 1890 : }

	mov	rbx, QWORD PTR [rsp+48]
	add	rsp, 32					; 00000020H
	pop	rdi
	ret	0
$LN8@plus_op:

; 1814 : 
; 1815 :     } else if( check_same( opnd1, opnd2, EXPR_ADDR ) ) {

	cmp	eax, 1
	jne	$LN10@plus_op
	cmp	DWORD PTR [rdi+60], eax
	jne	$LN10@plus_op

; 1816 : 
; 1817 :         DebugMsg1(("plus_op: ADDR - ADDR\n" ));
; 1818 :         fix_struct_value( opnd1 );

	mov	rax, QWORD PTR [rbx+88]
	xor	ecx, ecx
	test	rax, rax
	je	SHORT $LN37@plus_op
	cmp	DWORD PTR [rax+32], 7
	jne	SHORT $LN37@plus_op
	mov	eax, DWORD PTR [rax+56]
	add	DWORD PTR [rbx], eax
	mov	QWORD PTR [rbx+88], rcx
$LN37@plus_op:

; 1819 :         fix_struct_value( opnd2 );

	mov	rax, QWORD PTR [rdi+88]
	test	rax, rax
	je	SHORT $LN40@plus_op
	cmp	DWORD PTR [rax+32], 7
	jne	SHORT $LN40@plus_op
	mov	eax, DWORD PTR [rax+56]
	add	DWORD PTR [rdi], eax
	mov	QWORD PTR [rdi+88], rcx
$LN40@plus_op:

; 1820 :         if ( index_connect( opnd1, opnd2 ) == ERROR )

	mov	rdx, rdi
	mov	rcx, rbx
	call	index_connect
	cmp	eax, -1
	jne	SHORT $LN12@plus_op

; 1821 :             return( ERROR );

	or	eax, eax

; 1890 : }

	mov	rbx, QWORD PTR [rsp+48]
	add	rsp, 32					; 00000020H
	pop	rdi
	ret	0
$LN12@plus_op:

; 1822 :         if( opnd2->sym != NULL ) {

	mov	rax, QWORD PTR [rdi+80]
	test	rax, rax
	je	SHORT $LN16@plus_op

; 1823 :             /* two relocatable labels not allowed */
; 1824 :             /* v2.05: changed */
; 1825 :             //if ( ( opnd1->sym != NULL ) && ( Parse_Pass > PASS_1 || error_msg == FALSE ) ) {
; 1826 :             if ( opnd1->sym != NULL &&
; 1827 :                 opnd1->sym->state != SYM_UNDEFINED &&

	mov	rcx, QWORD PTR [rbx+80]
	test	rcx, rcx
	je	SHORT $LN14@plus_op
	cmp	DWORD PTR [rcx+32], 0
	je	SHORT $LN14@plus_op
	cmp	DWORD PTR [rax+32], 0
	je	SHORT $LN14@plus_op

; 1828 :                 opnd2->sym->state != SYM_UNDEFINED ) {
; 1829 :                 DebugMsg(("plus_op: two relocatable labels: %s - %s \n", opnd1->sym->name, opnd2->sym->name ));
; 1830 :                 return( fnEmitErr( CANNOT_ADD_TWO_RELOCATABLE_LABELS ) );

	mov	ecx, 173				; 000000adH

; 1890 : }

	mov	rbx, QWORD PTR [rsp+48]
	add	rsp, 32					; 00000020H
	pop	rdi

; 1828 :                 opnd2->sym->state != SYM_UNDEFINED ) {
; 1829 :                 DebugMsg(("plus_op: two relocatable labels: %s - %s \n", opnd1->sym->name, opnd2->sym->name ));
; 1830 :                 return( fnEmitErr( CANNOT_ADD_TWO_RELOCATABLE_LABELS ) );

	rex_jmp	QWORD PTR fnEmitErr
$LN14@plus_op:

; 1831 :             }
; 1832 :             opnd1->label_tok = opnd2->label_tok;
; 1833 :             opnd1->sym = opnd2->sym;
; 1834 :             /* v2.05: added */
; 1835 :             if ( opnd1->mem_type == MT_EMPTY )

	cmp	DWORD PTR [rbx+64], 192			; 000000c0H
	mov	rax, QWORD PTR [rdi+40]
	mov	QWORD PTR [rbx+40], rax
	mov	rax, QWORD PTR [rdi+80]
	mov	QWORD PTR [rbx+80], rax
	jne	SHORT $LN15@plus_op

; 1836 :                 opnd1->mem_type = opnd2->mem_type;

	mov	eax, DWORD PTR [rdi+64]
	mov	DWORD PTR [rbx+64], eax
$LN15@plus_op:

; 1837 :             /* v2.10: copy qualifier ( [<reg>+imagerel xxx] */
; 1838 :             if ( opnd2->instr != EMPTY )

	mov	eax, DWORD PTR [rdi+56]
	cmp	eax, -2
	je	SHORT $LN16@plus_op

; 1839 :                 opnd1->instr = opnd2->instr;

	mov	DWORD PTR [rbx+56], eax
$LN16@plus_op:

; 1840 :         }
; 1841 :         opnd1->llvalue += opnd2->llvalue;

	mov	rax, QWORD PTR [rdi]
	add	QWORD PTR [rbx], rax

; 1842 :         /* v2.08: added, test case [ecx+ebx.<struc>].<mbr> */
; 1843 :         if ( opnd2->type )

	mov	rax, QWORD PTR [rdi+96]
	test	rax, rax
	je	$LN49@plus_op

; 1844 :             opnd1->type = opnd2->type;

	mov	QWORD PTR [rbx+96], rax

; 1888 :     }
; 1889 :     return( NOT_ERROR );

	xor	eax, eax

; 1890 : }

	mov	rbx, QWORD PTR [rsp+48]
	add	rsp, 32					; 00000020H
	pop	rdi
	ret	0
$LN10@plus_op:

; 1845 : 
; 1846 :     } else if( check_both( opnd1, opnd2, EXPR_CONST, EXPR_ADDR ) ) {

	test	eax, eax
	jne	SHORT $LN43@plus_op
	cmp	DWORD PTR [rdi+60], 1
	je	SHORT $LN58@plus_op
$LN43@plus_op:
	cmp	eax, 1
	jne	$LN18@plus_op
	cmp	DWORD PTR [rdi+60], 0
	jne	$LN18@plus_op
$LN58@plus_op:

; 1847 : 
; 1848 :         if( opnd1->kind == EXPR_CONST ) {

	test	eax, eax
	jne	SHORT $LN20@plus_op

; 1849 :             DebugMsg1(("plus_op: CONST - ADDR\n" ));
; 1850 :             opnd2->llvalue += opnd1->llvalue;

	mov	rax, QWORD PTR [rbx]
	add	QWORD PTR [rdi], rax

; 1851 :             opnd2->indirect |= opnd1->indirect;

	mov	eax, DWORD PTR [rbx+76]
	and	eax, 1
	or	eax, DWORD PTR [rdi+76]
	mov	DWORD PTR [rdi+76], eax

; 1852 : 
; 1853 :             if( opnd1->explicit == TRUE ) {

	test	BYTE PTR [rbx+76], 2
	je	SHORT $LN22@plus_op

; 1854 :                 opnd2->explicit = TRUE;

	or	eax, 2
	mov	DWORD PTR [rdi+76], eax

; 1855 :                 opnd2->mem_type = opnd1->mem_type;

	jmp	SHORT $LN59@plus_op
$LN22@plus_op:

; 1856 :             } else if ( opnd2->mem_type == MT_EMPTY )

	cmp	DWORD PTR [rdi+64], 192			; 000000c0H
	jne	SHORT $LN24@plus_op
$LN59@plus_op:

; 1857 :                 opnd2->mem_type = opnd1->mem_type;

	mov	eax, DWORD PTR [rbx+64]
	mov	DWORD PTR [rdi+64], eax
$LN24@plus_op:

; 1858 : 
; 1859 :             /* v2.05: added. See dotop2.asm, "mov eax, v2.f1[ebx*2]" */
; 1860 :             if ( opnd2->mbr == NULL )

	cmp	QWORD PTR [rdi+88], 0
	jne	SHORT $LN25@plus_op

; 1861 :                 opnd2->mbr = opnd1->mbr;

	mov	rax, QWORD PTR [rbx+88]
	mov	QWORD PTR [rdi+88], rax
$LN25@plus_op:

; 1862 : 
; 1863 :             /* v2.08: added, test case [4+ebx.<struc>].<mbr> */
; 1864 :             if ( opnd2->type )

	mov	rax, QWORD PTR [rdi+96]
	test	rax, rax
	je	SHORT $LN26@plus_op

; 1865 :                 opnd1->type = opnd2->type; /* set <type> in op1! */

	mov	QWORD PTR [rbx+96], rax
$LN26@plus_op:

; 1866 : 
; 1867 :             TokenAssign( opnd1, opnd2 );

	movups	xmm0, XMMWORD PTR [rdi]
	movups	XMMWORD PTR [rbx], xmm0
	movups	xmm1, XMMWORD PTR [rdi+16]
	movups	XMMWORD PTR [rbx+16], xmm1
	movups	xmm0, XMMWORD PTR [rdi+32]
	movups	XMMWORD PTR [rbx+32], xmm0
	movups	xmm1, XMMWORD PTR [rdi+48]
	movups	XMMWORD PTR [rbx+48], xmm1
	movups	xmm0, XMMWORD PTR [rdi+64]
	movups	XMMWORD PTR [rbx+64], xmm0
	movups	xmm1, XMMWORD PTR [rdi+80]
	movups	XMMWORD PTR [rbx+80], xmm1

; 1868 : 
; 1869 :         } else {

	jmp	SHORT $LN29@plus_op
$LN20@plus_op:

; 1870 :             DebugMsg1(("plus_op: ADDR - CONST\n" ));
; 1871 :             opnd1->llvalue += opnd2->llvalue;

	mov	rax, QWORD PTR [rdi]
	add	QWORD PTR [rbx], rax

; 1872 :             /* v2.04: added. to make this case behave like
; 1873 :              * the CONST - REG case (see below).
; 1874 :              */
; 1875 :             /* v2.08: changed, test case [reg+struct] */
; 1876 :             //if ( opnd1->mem_type == MT_EMPTY )
; 1877 :             if ( opnd2->mbr ) { /* v2.10: added; regression test dotop5.asm */

	mov	rax, QWORD PTR [rdi+88]
	test	rax, rax
	je	SHORT $LN27@plus_op

; 1878 :                 opnd1->mbr = opnd2->mbr;

	mov	QWORD PTR [rbx+88], rax

; 1879 :                 opnd1->mem_type = opnd2->mem_type;
; 1880 :             } else

	jmp	SHORT $LN60@plus_op
$LN27@plus_op:

; 1881 :             if ( opnd1->mem_type == MT_EMPTY && opnd2->is_type == FALSE )

	cmp	DWORD PTR [rbx+64], 192			; 000000c0H
	jne	SHORT $LN29@plus_op
	test	BYTE PTR [rdi+76], 8
	jne	SHORT $LN29@plus_op
$LN60@plus_op:

; 1882 :                 opnd1->mem_type = opnd2->mem_type;

	mov	eax, DWORD PTR [rdi+64]
	mov	DWORD PTR [rbx+64], eax
$LN29@plus_op:

; 1883 :         }
; 1884 :         fix_struct_value( opnd1 );

	mov	rax, QWORD PTR [rbx+88]
	test	rax, rax
	je	SHORT $LN49@plus_op
	cmp	DWORD PTR [rax+32], 7
	jne	SHORT $LN49@plus_op
	mov	eax, DWORD PTR [rax+56]
	add	DWORD PTR [rbx], eax
	xor	ecx, ecx
	mov	QWORD PTR [rbx+88], rcx
$LN49@plus_op:

; 1888 :     }
; 1889 :     return( NOT_ERROR );

	xor	eax, eax

; 1890 : }

	mov	rbx, QWORD PTR [rsp+48]
	add	rsp, 32					; 00000020H
	pop	rdi
	ret	0
$LN18@plus_op:

; 1885 :     } else {
; 1886 :         DebugMsg(("plus_op: error, unexpected format: %u - %u\n", opnd1->kind, opnd2->kind ));
; 1887 :         return( ConstError( opnd1, opnd2 ) );

	test	BYTE PTR [rbx+76], 16
	je	SHORT $LN52@plus_op
	xor	ecx, ecx
	mov	eax, ecx

; 1890 : }

	mov	rbx, QWORD PTR [rsp+48]
	add	rsp, 32					; 00000020H
	pop	rdi
	ret	0

; 1885 :     } else {
; 1886 :         DebugMsg(("plus_op: error, unexpected format: %u - %u\n", opnd1->kind, opnd2->kind ));
; 1887 :         return( ConstError( opnd1, opnd2 ) );

$LN52@plus_op:
	cmp	eax, 3
	je	SHORT $LN55@plus_op
	cmp	DWORD PTR [rdi+60], 3
	mov	ecx, 65					; 00000041H
	jne	SHORT $LN61@plus_op
$LN55@plus_op:
	mov	ecx, 270				; 0000010eH
$LN61@plus_op:
	call	QWORD PTR fnEmitErr

; 1890 : }

	mov	rbx, QWORD PTR [rsp+48]
	or	ecx, -1
	mov	eax, ecx
	add	rsp, 32					; 00000020H
	pop	rdi
	ret	0
plus_op	ENDP
_TEXT	ENDS
; Function compile flags: /Ogtpy
; File d:\hjwasm\hjwasm2.13.1s\hjwasm2.13.1s\expreval.c
_TEXT	SEGMENT
oper$ = 48
opnd1$ = 56
opnd2$ = 64
sym$ = 72
name$ = 80
wimask_op PROC

; 1711 : {

	sub	rsp, 40					; 00000028H

; 1712 :     /* additional check needed if operand is a type */
; 1713 :     if ( opnd2->is_type ) {

	mov	eax, DWORD PTR [r8+76]
	mov	r11, rdx
	shr	eax, 3
	and	eax, 1
	je	SHORT $LN8@wimask_op

; 1714 :         sym = opnd2->type;

	mov	rdx, QWORD PTR [r8+96]

; 1715 :         if (sym->typekind != TYPE_RECORD ) {

	cmp	BYTE PTR [rdx+66], 4
	je	SHORT $LN12@wimask_op

; 1716 :             return( fnEmitErr( OPERAND_MUST_BE_RECORD ) );

	mov	ecx, 161				; 000000a1H

; 1755 : }

	add	rsp, 40					; 00000028H

; 1716 :             return( fnEmitErr( OPERAND_MUST_BE_RECORD ) );

	rex_jmp	QWORD PTR fnEmitErr
$LN8@wimask_op:

; 1717 :         }
; 1718 :     } else if ( opnd2->kind == EXPR_CONST ) {

	cmp	DWORD PTR [r8+60], 0
	jne	SHORT $LN11@wimask_op

; 1719 :         sym = opnd2->mbr;

	mov	rdx, QWORD PTR [r8+88]

; 1720 :     } else {

	jmp	SHORT $LN12@wimask_op
$LN11@wimask_op:

; 1721 :         sym = opnd2->sym;

	mov	rdx, QWORD PTR [r8+80]
$LN12@wimask_op:

; 1722 :     }
; 1723 :     if ( oper == T_MASK ) {

	cmp	ecx, 240				; 000000f0H
	jne	SHORT $LN13@wimask_op

; 1724 :         int i;
; 1725 :         opnd1->value = 0;

	mov	DWORD PTR [r11], 0

; 1726 :         if ( opnd2->is_type ) { /* get mask of the RECORD? */

	test	BYTE PTR [r8+76], 8
	je	SHORT $LN15@wimask_op

; 1727 : #if AMD64_SUPPORT
; 1728 :             opnd1->llvalue = GetRecordMask( (struct dsym *)sym );

	mov	rcx, rdx
	call	GetRecordMask
	mov	QWORD PTR [r11], rax

; 1754 :     return( NOT_ERROR );

	xor	eax, eax
	mov	DWORD PTR [r11+60], 0

; 1755 : }

	add	rsp, 40					; 00000028H
	ret	0
$LN15@wimask_op:

; 1729 : #else
; 1730 :             opnd1->value = GetRecordMask( (struct dsym *)sym );
; 1731 : #endif
; 1732 :         } else { /* get mask of the bitfield */
; 1733 :             for ( i = sym->offset ;i < sym->offset + sym->total_size; i++ )

	mov	r8d, DWORD PTR [rdx+16]
	mov	ecx, DWORD PTR [rdx+56]
	add	ecx, r8d
	cmp	r8d, ecx
	jae	SHORT $LN18@wimask_op
	npad	3
$LL4@wimask_op:

; 1734 : #if AMD64_SUPPORT
; 1735 : #if defined(LLONG_MAX) || defined(__GNUC__) || defined(__TINYC__)
; 1736 :                 opnd1->llvalue |= 1ULL << i;

	mov	rcx, QWORD PTR [r11]
	movsxd	rax, r8d
	inc	r8d
	bts	rcx, rax
	mov	QWORD PTR [r11], rcx
	mov	eax, DWORD PTR [rdx+16]
	add	eax, DWORD PTR [rdx+56]
	cmp	r8d, eax
	jb	SHORT $LL4@wimask_op

; 1752 :     }
; 1753 :     opnd1->kind = EXPR_CONST;

	mov	DWORD PTR [r11+60], 0

; 1754 :     return( NOT_ERROR );

	xor	eax, eax

; 1755 : }

	add	rsp, 40					; 00000028H
	ret	0
$LN13@wimask_op:

; 1737 : #else
; 1738 :                 opnd1->llvalue |= 1i64 << i;
; 1739 : #endif
; 1740 : #else
; 1741 :                 opnd1->value |= 1 << i;
; 1742 : #endif
; 1743 :         }
; 1744 :     } else {
; 1745 :         if ( opnd2->is_type ) { /* get width of the RECORD? */

	test	eax, eax
	je	SHORT $LN17@wimask_op

; 1746 :             struct dsym *dir = (struct dsym *)sym;
; 1747 :             struct sfield *fl;
; 1748 :             for ( fl = dir->e.structinfo->head; fl; fl = fl->next )

	mov	rax, QWORD PTR [rdx+96]
	mov	rcx, QWORD PTR [rax]
	test	rcx, rcx
	je	SHORT $LN18@wimask_op
	npad	6
$LL7@wimask_op:

; 1749 :                 opnd1->value += fl->sym.total_size;

	mov	eax, DWORD PTR [rcx+56]
	add	DWORD PTR [r11], eax
	mov	rcx, QWORD PTR [rcx+96]
	test	rcx, rcx
	jne	SHORT $LL7@wimask_op

; 1752 :     }
; 1753 :     opnd1->kind = EXPR_CONST;

	mov	DWORD PTR [r11+60], ecx

; 1754 :     return( NOT_ERROR );

	xor	eax, eax

; 1755 : }

	add	rsp, 40					; 00000028H
	ret	0
$LN17@wimask_op:

; 1750 :         } else
; 1751 :             opnd1->value = sym->total_size;

	mov	eax, DWORD PTR [rdx+56]
	mov	DWORD PTR [r11], eax
$LN18@wimask_op:

; 1752 :     }
; 1753 :     opnd1->kind = EXPR_CONST;

	mov	DWORD PTR [r11+60], 0

; 1754 :     return( NOT_ERROR );

	xor	eax, eax

; 1755 : }

	add	rsp, 40					; 00000028H
	ret	0
wimask_op ENDP
_TEXT	ENDS
; Function compile flags: /Ogtpy
; File d:\hjwasm\hjwasm2.13.1s\hjwasm2.13.1s\expreval.c
_TEXT	SEGMENT
oper$ = 48
opnd1$ = 56
opnd2$ = 64
sym$ = 72
name$ = 80
this_op	PROC

; 1668 : {

	mov	QWORD PTR [rsp+8], rbx
	push	rdi
	sub	rsp, 32					; 00000020H

; 1669 :     if ( opnd2->is_type == FALSE ) {

	test	BYTE PTR [r8+76], 8
	mov	rbx, r8
	mov	rdi, rdx
	jne	SHORT $LN2@this_op

; 1670 :         return( fnEmitErr( INVALID_TYPE_EXPRESSION ) );

	mov	ecx, 179				; 000000b3H

; 1704 :     return( NOT_ERROR );
; 1705 : }

	mov	rbx, QWORD PTR [rsp+48]
	add	rsp, 32					; 00000020H
	pop	rdi

; 1670 :         return( fnEmitErr( INVALID_TYPE_EXPRESSION ) );

	rex_jmp	QWORD PTR fnEmitErr
$LN2@this_op:

; 1671 :     }
; 1672 :     /* v2.06: won't work inside structs */
; 1673 :     if ( CurrStruct ) {

	cmp	QWORD PTR CurrStruct, 0
	je	SHORT $LN3@this_op

; 1674 :         return( fnEmitErr( MUST_BE_IN_SEGMENT_BLOCK ) );

	mov	ecx, 82					; 00000052H

; 1704 :     return( NOT_ERROR );
; 1705 : }

	mov	rbx, QWORD PTR [rsp+48]
	add	rsp, 32					; 00000020H
	pop	rdi

; 1674 :         return( fnEmitErr( MUST_BE_IN_SEGMENT_BLOCK ) );

	rex_jmp	QWORD PTR fnEmitErr
$LN3@this_op:

; 1675 :     }
; 1676 :     /* v2.06: won't work outside segments */
; 1677 :     if ( CurrSeg == NULL ) {

	cmp	QWORD PTR ModuleInfo+432, 0
	jne	SHORT $LN4@this_op

; 1678 :         return( EmitErr( MUST_BE_IN_SEGMENT_BLOCK ) ); /* error displayed even in EQU, hence EmitErr()! */

	mov	ecx, 82					; 00000052H

; 1704 :     return( NOT_ERROR );
; 1705 : }

	mov	rbx, QWORD PTR [rsp+48]
	add	rsp, 32					; 00000020H
	pop	rdi

; 1678 :         return( EmitErr( MUST_BE_IN_SEGMENT_BLOCK ) ); /* error displayed even in EQU, hence EmitErr()! */

	jmp	EmitErr
$LN4@this_op:

; 1679 :     }
; 1680 : 
; 1681 :     if ( thissym == NULL ) {

	mov	rdx, QWORD PTR thissym
	test	rdx, rdx
	jne	SHORT $LN5@this_op

; 1682 :         thissym = SymAlloc( "" );

	lea	rcx, OFFSET FLAT:$SG11609
	call	SymAlloc
	mov	rdx, rax
	mov	QWORD PTR thissym, rax

; 1683 :         /* fixme: set thissym->variable? */
; 1684 :         thissym->state = SYM_INTERNAL;
; 1685 :         thissym->isdefined = TRUE;

	or	BYTE PTR [rax+40], 2
	mov	DWORD PTR [rax+32], 1
$LN5@this_op:

; 1686 :     }
; 1687 : 
; 1688 :     DebugMsg1(("this_op: memtype=%Xh type=%s\n", opnd2->mem_type, opnd2->type ? opnd2->type->name : "NULL" ));
; 1689 :     opnd1->kind = EXPR_ADDR;

	mov	DWORD PTR [rdi+60], 1

; 1690 : 
; 1691 :     /* v2.09: a label is not a valid argument */
; 1692 :     //if ( opnd2->sym && opnd2->sym->mem_type == MT_TYPE )
; 1693 :     //    thissym->type = opnd2->sym->type;
; 1694 :     /* v2.09: set structured type */
; 1695 :     thissym->type = opnd2->type;

	mov	rcx, QWORD PTR [rbx+96]
	mov	QWORD PTR [rdx+80], rcx

; 1696 :     if ( opnd2->type ) {

	cmp	QWORD PTR [rbx+96], 0
	je	SHORT $LN6@this_op

; 1697 :         thissym->mem_type = MT_TYPE;

	mov	DWORD PTR [rdx+36], 196			; 000000c4H

; 1698 :     } else

	jmp	SHORT $LN7@this_op
$LN6@this_op:

; 1699 :         thissym->mem_type = opnd2->mem_type;

	mov	eax, DWORD PTR [rbx+64]
	mov	DWORD PTR [rdx+36], eax
$LN7@this_op:

; 1700 : 
; 1701 :     opnd1->sym  = thissym;
; 1702 :     SetSymSegOfs( thissym );

	mov	rcx, rdx
	mov	QWORD PTR [rdi+80], rdx
	call	SetSymSegOfs

; 1703 :     opnd1->mem_type = thissym->mem_type;

	mov	rax, QWORD PTR thissym

; 1704 :     return( NOT_ERROR );
; 1705 : }

	mov	rbx, QWORD PTR [rsp+48]
	mov	ecx, DWORD PTR [rax+36]
	xor	eax, eax
	mov	DWORD PTR [rdi+64], ecx
	add	rsp, 32					; 00000020H
	pop	rdi
	ret	0
this_op	ENDP
_TEXT	ENDS
; Function compile flags: /Ogtpy
; File d:\hjwasm\hjwasm2.13.1s\hjwasm2.13.1s\expreval.c
_TEXT	SEGMENT
oper$ = 64
opnd1$ = 72
opnd2$ = 80
sym$ = 88
name$ = 96
high32_op PROC

; 1645 : {

	mov	QWORD PTR [rsp+8], rbx
	push	rdi
	sub	rsp, 48					; 00000030H

; 1646 :     /* v2.06: added support for double constants */
; 1647 :     if ( opnd2->kind == EXPR_FLOAT ) {

	cmp	DWORD PTR [r8+60], 3
	mov	rdi, r8
	mov	rbx, rdx
	jne	SHORT $LN2@high32_op

; 1648 :         if ( Options.strict_masm_compat )

	cmp	BYTE PTR Options+127, 0
	je	SHORT $LN3@high32_op

; 1649 :             return( ConstError( opnd1, opnd2 ) );

	test	BYTE PTR [rdx+76], 16
	je	SHORT $LN7@high32_op
	xor	eax, eax

; 1661 :     return( NOT_ERROR );
; 1662 : }

	mov	rbx, QWORD PTR [rsp+64]
	add	rsp, 48					; 00000030H
	pop	rdi
	ret	0

; 1649 :             return( ConstError( opnd1, opnd2 ) );

$LN7@high32_op:
	mov	ecx, 270				; 0000010eH
	call	QWORD PTR fnEmitErr
	or	eax, -1

; 1661 :     return( NOT_ERROR );
; 1662 : }

	mov	rbx, QWORD PTR [rsp+64]
	add	rsp, 48					; 00000030H
	pop	rdi
	ret	0
$LN3@high32_op:

; 1650 :         atofloat( &opnd2->llvalue, opnd2->float_tok->string_ptr, sizeof( opnd2->llvalue), opnd2->negative, opnd2->float_tok->floattype );

	mov	rdx, QWORD PTR [r8+16]
	mov	rcx, rdi
	mov	r9d, DWORD PTR [r8+76]
	mov	r8d, 8
	shr	r9d, 5
	and	r9b, 1
	movzx	eax, BYTE PTR [rdx+1]
	mov	rdx, QWORD PTR [rdx+8]
	mov	BYTE PTR [rsp+32], al
	call	atofloat

; 1651 :         opnd2->kind = EXPR_CONST;

	xor	eax, eax
	mov	DWORD PTR [rdi+60], eax

; 1652 :         opnd2->float_tok = NULL;

	mov	QWORD PTR [rdi+16], rax
$LN2@high32_op:

; 1653 :     }
; 1654 :     TokenAssign( opnd1, opnd2 );

	movups	xmm0, XMMWORD PTR [rdi]
	movups	XMMWORD PTR [rbx], xmm0
	movups	xmm1, XMMWORD PTR [rdi+16]
	movups	XMMWORD PTR [rbx+16], xmm1
	movups	xmm0, XMMWORD PTR [rdi+32]
	movups	XMMWORD PTR [rbx+32], xmm0
	movups	xmm1, XMMWORD PTR [rdi+48]
	movups	XMMWORD PTR [rbx+48], xmm1
	movups	xmm0, XMMWORD PTR [rdi+64]
	movups	XMMWORD PTR [rbx+64], xmm0
	movups	xmm1, XMMWORD PTR [rdi+80]
	movups	XMMWORD PTR [rbx+80], xmm1

; 1655 :     if ( opnd2->kind == EXPR_ADDR && opnd2->instr != T_SEG ) {

	cmp	DWORD PTR [rdi+60], 1
	jne	SHORT $LN4@high32_op
	cmp	DWORD PTR [rdi+56], 244			; 000000f4H
	je	SHORT $LN4@high32_op

; 1656 :         opnd1->instr = T_HIGH32;

	mov	DWORD PTR [rbx+56], 231			; 000000e7H

; 1657 :         //opnd1->mem_type = MT_DWORD; /* v2.10: changed - also see change in parser.c, idata_fixup() */
; 1658 :         opnd1->mem_type = MT_EMPTY;

	mov	DWORD PTR [rbx+64], 192			; 000000c0H
$LN4@high32_op:

; 1659 :     }
; 1660 :     opnd1->llvalue = opnd1->llvalue >> 32;

	shr	QWORD PTR [rbx], 32			; 00000020H

; 1661 :     return( NOT_ERROR );
; 1662 : }

	mov	rbx, QWORD PTR [rsp+64]
	xor	eax, eax
	add	rsp, 48					; 00000030H
	pop	rdi
	ret	0
high32_op ENDP
_TEXT	ENDS
; Function compile flags: /Ogtpy
; File d:\hjwasm\hjwasm2.13.1s\hjwasm2.13.1s\expreval.c
_TEXT	SEGMENT
oper$ = 64
opnd1$ = 72
opnd2$ = 80
sym$ = 88
name$ = 96
low32_op PROC

; 1624 : {

	mov	QWORD PTR [rsp+8], rbx
	mov	QWORD PTR [rsp+16], rsi
	push	rdi
	sub	rsp, 48					; 00000030H

; 1625 :     /* v2.06: added support for double constants */
; 1626 :     if ( opnd2->kind == EXPR_FLOAT ) {

	xor	esi, esi
	mov	rdi, r8
	cmp	DWORD PTR [r8+60], 3
	mov	rbx, rdx
	jne	SHORT $LN2@low32_op

; 1627 :         if ( Options.strict_masm_compat )

	cmp	BYTE PTR Options+127, sil
	je	SHORT $LN3@low32_op

; 1628 :             return( ConstError( opnd1, opnd2 ) );

	test	BYTE PTR [rdx+76], 16
	jne	SHORT $LN6@low32_op
	mov	ecx, 270				; 0000010eH
	call	QWORD PTR fnEmitErr
	or	esi, -1
$LN6@low32_op:
	mov	eax, esi

; 1641 : }

	mov	rbx, QWORD PTR [rsp+64]
	mov	rsi, QWORD PTR [rsp+72]
	add	rsp, 48					; 00000030H
	pop	rdi
	ret	0
$LN3@low32_op:

; 1629 :         atofloat( &opnd2->llvalue, opnd2->float_tok->string_ptr, sizeof( opnd2->llvalue), opnd2->negative, opnd2->float_tok->floattype );

	mov	rdx, QWORD PTR [r8+16]
	mov	rcx, rdi
	mov	r9d, DWORD PTR [r8+76]
	mov	r8d, 8
	shr	r9d, 5
	and	r9b, 1
	movzx	eax, BYTE PTR [rdx+1]
	mov	rdx, QWORD PTR [rdx+8]
	mov	BYTE PTR [rsp+32], al
	call	atofloat

; 1630 :         opnd2->kind = EXPR_CONST;

	mov	DWORD PTR [rdi+60], esi

; 1631 :         opnd2->float_tok = NULL;

	mov	QWORD PTR [rdi+16], rsi
$LN2@low32_op:

; 1632 :     }
; 1633 :     TokenAssign( opnd1, opnd2 );

	movups	xmm0, XMMWORD PTR [rdi]
	movups	XMMWORD PTR [rbx], xmm0
	movups	xmm1, XMMWORD PTR [rdi+16]
	movups	XMMWORD PTR [rbx+16], xmm1
	movups	xmm0, XMMWORD PTR [rdi+32]
	movups	XMMWORD PTR [rbx+32], xmm0
	movups	xmm1, XMMWORD PTR [rdi+48]
	movups	XMMWORD PTR [rbx+48], xmm1
	movups	xmm0, XMMWORD PTR [rdi+64]
	movups	XMMWORD PTR [rbx+64], xmm0
	movups	xmm1, XMMWORD PTR [rdi+80]
	movups	XMMWORD PTR [rbx+80], xmm1

; 1634 :     if ( opnd2->kind == EXPR_ADDR && opnd2->instr != T_SEG ) {

	cmp	DWORD PTR [rdi+60], 1
	jne	SHORT $LN4@low32_op
	cmp	DWORD PTR [rdi+56], 244			; 000000f4H
	je	SHORT $LN4@low32_op

; 1635 :         opnd1->instr = T_LOW32;

	mov	DWORD PTR [rbx+56], 237			; 000000edH

; 1636 :         //opnd1->mem_type = MT_DWORD; /* v2.10: changed - also see change in parser.c, idata_fixup() */
; 1637 :         opnd1->mem_type = MT_EMPTY;

	mov	DWORD PTR [rbx+64], 192			; 000000c0H
$LN4@low32_op:

; 1638 :     }
; 1639 :     opnd1->llvalue &= 0xffffffff;

	mov	DWORD PTR [rbx+4], esi

; 1640 :     return( NOT_ERROR );

	xor	eax, eax

; 1641 : }

	mov	rbx, QWORD PTR [rsp+64]
	mov	rsi, QWORD PTR [rsp+72]
	add	rsp, 48					; 00000030H
	pop	rdi
	ret	0
low32_op ENDP
_TEXT	ENDS
; Function compile flags: /Ogtpy
; File d:\hjwasm\hjwasm2.13.1s\hjwasm2.13.1s\expreval.c
_TEXT	SEGMENT
oper$ = 8
opnd1$ = 16
opnd2$ = 24
sym$ = 32
name$ = 40
high_op	PROC

; 1601 :     TokenAssign( opnd1, opnd2 );

	movups	xmm0, XMMWORD PTR [r8]
	movups	XMMWORD PTR [rdx], xmm0
	movups	xmm1, XMMWORD PTR [r8+16]
	movups	XMMWORD PTR [rdx+16], xmm1
	movups	xmm0, XMMWORD PTR [r8+32]
	movups	XMMWORD PTR [rdx+32], xmm0
	movups	xmm1, XMMWORD PTR [r8+48]
	movups	XMMWORD PTR [rdx+48], xmm1
	movups	xmm0, XMMWORD PTR [r8+64]
	movups	XMMWORD PTR [rdx+64], xmm0
	movups	xmm1, XMMWORD PTR [r8+80]
	movups	XMMWORD PTR [rdx+80], xmm1

; 1602 :     if ( opnd2->kind == EXPR_ADDR && opnd2->instr != T_SEG ) {

	cmp	DWORD PTR [r8+60], 1
	jne	SHORT $LN2@high_op
	cmp	DWORD PTR [r8+56], 244			; 000000f4H
	je	SHORT $LN2@high_op

; 1603 :         /* v2.07: don't check any format-specific rules in the
; 1604 :          * expression evaluator!
; 1605 :          */
; 1606 : #if 0
; 1607 :         if ( Options.output_format != OFORMAT_OMF &&
; 1608 :             Options.output_format != OFORMAT_BIN && opnd2->sym ) {
; 1609 :             return( fnEmitErr( SYMBOL_TYPE_CONFLICT, opnd2->sym->name ) );
; 1610 :         }
; 1611 : #endif
; 1612 :         opnd1->instr = T_HIGH;

	mov	DWORD PTR [rdx+56], 230			; 000000e6H

; 1613 :         opnd1->mem_type = MT_EMPTY;

	mov	DWORD PTR [rdx+64], 192			; 000000c0H
$LN2@high_op:

; 1614 :     }
; 1615 :     opnd1->value = opnd1->value >> 8;

	sar	DWORD PTR [rdx], 8

; 1616 :     opnd1->llvalue &= 0xff;
; 1617 :     return( NOT_ERROR );

	xor	eax, eax
	and	QWORD PTR [rdx], 255			; 000000ffH

; 1618 : }

	ret	0
high_op	ENDP
_TEXT	ENDS
; Function compile flags: /Ogtpy
; File d:\hjwasm\hjwasm2.13.1s\hjwasm2.13.1s\expreval.c
_TEXT	SEGMENT
oper$ = 8
opnd1$ = 16
opnd2$ = 24
sym$ = 32
name$ = 40
low_op	PROC

; 1579 :     TokenAssign( opnd1, opnd2 );

	movups	xmm0, XMMWORD PTR [r8]
	movups	XMMWORD PTR [rdx], xmm0
	movups	xmm1, XMMWORD PTR [r8+16]
	movups	XMMWORD PTR [rdx+16], xmm1
	movups	xmm0, XMMWORD PTR [r8+32]
	movups	XMMWORD PTR [rdx+32], xmm0
	movups	xmm1, XMMWORD PTR [r8+48]
	movups	XMMWORD PTR [rdx+48], xmm1
	movups	xmm0, XMMWORD PTR [r8+64]
	movups	XMMWORD PTR [rdx+64], xmm0
	movups	xmm1, XMMWORD PTR [r8+80]
	movups	XMMWORD PTR [rdx+80], xmm1

; 1580 :     if ( opnd2->kind == EXPR_ADDR && opnd2->instr != T_SEG ) {

	cmp	DWORD PTR [r8+60], 1
	jne	SHORT $LN6@low_op
	cmp	DWORD PTR [r8+56], 244			; 000000f4H
	je	SHORT $LN6@low_op

; 1581 : #if 0
; 1582 :         /* LOW works for OMF/BIN only */
; 1583 :         /* v2.07: don't check any format-specific rules in the
; 1584 :          * expression evaluator!
; 1585 :          */
; 1586 :         if ( Options.output_format != OFORMAT_OMF &&
; 1587 :             Options.output_format != OFORMAT_BIN && opnd2->sym ) {
; 1588 :             return( fnEmitErr( SYMBOL_TYPE_CONFLICT, opnd2->sym->name ) );
; 1589 :         }
; 1590 : #endif
; 1591 :         opnd1->instr = T_LOW;

	mov	DWORD PTR [rdx+56], 236			; 000000ecH

; 1592 :         opnd1->mem_type = MT_EMPTY;

	mov	DWORD PTR [rdx+64], 192			; 000000c0H
$LN6@low_op:

; 1593 :     }
; 1594 :     opnd1->llvalue &= 0xff;

	and	QWORD PTR [rdx], 255			; 000000ffH

; 1595 :     return( NOT_ERROR );

	xor	eax, eax

; 1596 : }

	ret	0
low_op	ENDP
_TEXT	ENDS
; Function compile flags: /Ogtpy
; File d:\hjwasm\hjwasm2.13.1s\hjwasm2.13.1s\expreval.c
_TEXT	SEGMENT
oper$ = 8
opnd1$ = 16
opnd2$ = 24
sym$ = 32
name$ = 40
highword_op PROC

; 1566 :     TokenAssign( opnd1, opnd2 );

	movups	xmm0, XMMWORD PTR [r8]
	movups	XMMWORD PTR [rdx], xmm0
	movups	xmm1, XMMWORD PTR [r8+16]
	movups	XMMWORD PTR [rdx+16], xmm1
	movups	xmm0, XMMWORD PTR [r8+32]
	movups	XMMWORD PTR [rdx+32], xmm0
	movups	xmm1, XMMWORD PTR [r8+48]
	movups	XMMWORD PTR [rdx+48], xmm1
	movups	xmm0, XMMWORD PTR [r8+64]
	movups	XMMWORD PTR [rdx+64], xmm0
	movups	xmm1, XMMWORD PTR [r8+80]
	movups	XMMWORD PTR [rdx+80], xmm1

; 1567 :     if ( opnd2->kind == EXPR_ADDR && opnd2->instr != T_SEG ) {

	cmp	DWORD PTR [r8+60], 1
	jne	SHORT $LN2@highword_o
	cmp	DWORD PTR [r8+56], 244			; 000000f4H
	je	SHORT $LN2@highword_o

; 1568 :         opnd1->instr = T_HIGHWORD;

	mov	DWORD PTR [rdx+56], 232			; 000000e8H

; 1569 :         //opnd1->mem_type = MT_WORD; /* v2.05 */
; 1570 :         opnd1->mem_type = MT_EMPTY;

	mov	DWORD PTR [rdx+64], 192			; 000000c0H
$LN2@highword_o:

; 1571 :     }
; 1572 :     opnd1->value = opnd1->value >> 16;

	movsx	eax, WORD PTR [rdx+2]
	mov	DWORD PTR [rdx], eax

; 1573 :     return( NOT_ERROR );

	xor	eax, eax

; 1574 : }

	ret	0
highword_op ENDP
_TEXT	ENDS
; Function compile flags: /Ogtpy
; File d:\hjwasm\hjwasm2.13.1s\hjwasm2.13.1s\expreval.c
_TEXT	SEGMENT
oper$ = 8
opnd1$ = 16
opnd2$ = 24
sym$ = 32
name$ = 40
lowword_op PROC

; 1553 :     TokenAssign( opnd1, opnd2 );

	movups	xmm0, XMMWORD PTR [r8]
	movups	XMMWORD PTR [rdx], xmm0
	movups	xmm1, XMMWORD PTR [r8+16]
	movups	XMMWORD PTR [rdx+16], xmm1
	movups	xmm0, XMMWORD PTR [r8+32]
	movups	XMMWORD PTR [rdx+32], xmm0
	movups	xmm1, XMMWORD PTR [r8+48]
	movups	XMMWORD PTR [rdx+48], xmm1
	movups	xmm0, XMMWORD PTR [r8+64]
	movups	XMMWORD PTR [rdx+64], xmm0
	movups	xmm1, XMMWORD PTR [r8+80]
	movups	XMMWORD PTR [rdx+80], xmm1

; 1554 :     if ( opnd2->kind == EXPR_ADDR && opnd2->instr != T_SEG ) {

	cmp	DWORD PTR [r8+60], 1
	jne	SHORT $LN6@lowword_op
	cmp	DWORD PTR [r8+56], 244			; 000000f4H
	je	SHORT $LN6@lowword_op

; 1555 :         opnd1->instr = T_LOWWORD;

	mov	DWORD PTR [rdx+56], 238			; 000000eeH

; 1556 :         //opnd1->mem_type = MT_WORD; /* v2.05 */
; 1557 :         opnd1->mem_type = MT_EMPTY;

	mov	DWORD PTR [rdx+64], 192			; 000000c0H
$LN6@lowword_op:

; 1558 :     }
; 1559 :     opnd1->llvalue &= 0xffff;

	and	QWORD PTR [rdx], 65535			; 0000ffffH

; 1560 :     return( NOT_ERROR );

	xor	eax, eax

; 1561 : }

	ret	0
lowword_op ENDP
_TEXT	ENDS
; Function compile flags: /Ogtpy
; File d:\hjwasm\hjwasm2.13.1s\hjwasm2.13.1s\expreval.c
_TEXT	SEGMENT
oper$ = 48
opnd1$ = 56
opnd2$ = 64
sym$ = 72
name$ = 80
offset_op PROC

; 1514 : {

	push	rbx
	sub	rsp, 32					; 00000020H
	mov	rbx, r8

; 1515 :     if ( oper == T_OFFSET ) {

	cmp	ecx, 241				; 000000f1H
	jne	SHORT $LN3@offset_op

; 1516 :         /* if operand is a constant value, skip OFFSET operator */
; 1517 :         if ( opnd2->kind == EXPR_CONST ) {

	cmp	DWORD PTR [r8+60], 0
	jne	SHORT $LN3@offset_op

; 1518 :             TokenAssign( opnd1, opnd2 );

	movups	xmm0, XMMWORD PTR [r8]

; 1541 :     /* clear overrides ("offset SEG:xxx") */
; 1542 :     /* v2.01: override information is important for fixup creation!
; 1543 :      * the reason why it was cleared probably was to avoid creation
; 1544 :      * of a segment prefix. This case is now handled in the parser.
; 1545 :      */
; 1546 :     // opnd1->override = NULL;
; 1547 :     return( NOT_ERROR );

	xor	eax, eax
	movups	XMMWORD PTR [rdx], xmm0
	movups	xmm1, XMMWORD PTR [r8+16]
	movups	XMMWORD PTR [rdx+16], xmm1
	movups	xmm0, XMMWORD PTR [r8+32]
	movups	XMMWORD PTR [rdx+32], xmm0
	movups	xmm1, XMMWORD PTR [r8+48]
	movups	XMMWORD PTR [rdx+48], xmm1
	movups	xmm0, XMMWORD PTR [r8+64]
	movups	XMMWORD PTR [rdx+64], xmm0
	movups	xmm1, XMMWORD PTR [r8+80]
	movups	XMMWORD PTR [rdx+80], xmm1

; 1548 : }

	add	rsp, 32					; 00000020H
	pop	rbx
	ret	0
$LN3@offset_op:

; 1519 :             return( NOT_ERROR );
; 1520 :         }
; 1521 :     }
; 1522 :     if ( (sym && sym->state == SYM_GRP) || opnd2->instr == T_SEG ) {

	test	r9, r9
	je	SHORT $LN6@offset_op
	cmp	DWORD PTR [r9+32], 4
	je	SHORT $LN5@offset_op
$LN6@offset_op:
	cmp	DWORD PTR [r8+56], 244			; 000000f4H
	jne	SHORT $LN4@offset_op
$LN5@offset_op:

; 1523 :         return( invalid_operand( opnd2, GetResWName( oper, NULL ), name ) );

	xor	edx, edx
	call	GetResWName
	test	BYTE PTR [rbx+76], 16
	jne	SHORT $LN13@offset_op
	mov	rcx, rax
	call	_strupr
	mov	r8, QWORD PTR name$[rsp]
	mov	rdx, rax
	mov	ecx, 228				; 000000e4H
	call	QWORD PTR fnEmitErr
$LN13@offset_op:
	or	eax, -1

; 1548 : }

	add	rsp, 32					; 00000020H
	pop	rbx
	ret	0
$LN4@offset_op:

; 1524 :     }
; 1525 :     /* offset operator accepts types, but returns always 0 */
; 1526 :     if ( opnd2->is_type )

	test	BYTE PTR [r8+76], 8
	je	SHORT $LN7@offset_op

; 1527 :         opnd2->value = 0;

	mov	DWORD PTR [r8], 0
$LN7@offset_op:

; 1528 : 
; 1529 :     TokenAssign( opnd1, opnd2 );

	movups	xmm0, XMMWORD PTR [r8]
	movups	XMMWORD PTR [rdx], xmm0
	movups	xmm1, XMMWORD PTR [r8+16]
	movups	XMMWORD PTR [rdx+16], xmm1
	movups	xmm0, XMMWORD PTR [r8+32]
	movups	XMMWORD PTR [rdx+32], xmm0
	movups	xmm1, XMMWORD PTR [r8+48]
	movups	XMMWORD PTR [rdx+48], xmm1
	movups	xmm0, XMMWORD PTR [r8+64]
	movups	XMMWORD PTR [rdx+64], xmm0
	movups	xmm1, XMMWORD PTR [r8+80]
	movups	XMMWORD PTR [rdx+80], xmm1

; 1530 :     opnd1->instr = oper;

	mov	DWORD PTR [rdx+56], ecx

; 1531 : 
; 1532 :     if ( opnd2->indirect ) {

	test	BYTE PTR [r8+76], 1
	jne	SHORT $LN5@offset_op

; 1533 :         /* Masm v5.1 allows indirect operands, but Masm v6 with -Zm
; 1534 :          * won't accept it.
; 1535 :          */
; 1536 :         return( invalid_operand( opnd2, GetResWName( oper, NULL ), name ) );
; 1537 :     }
; 1538 :     /* skip memory type of operand, just address is needed */
; 1539 :     //opnd1->mem_type = MT_NEAR;
; 1540 :     opnd1->mem_type = MT_EMPTY;

	mov	DWORD PTR [rdx+64], 192			; 000000c0H

; 1541 :     /* clear overrides ("offset SEG:xxx") */
; 1542 :     /* v2.01: override information is important for fixup creation!
; 1543 :      * the reason why it was cleared probably was to avoid creation
; 1544 :      * of a segment prefix. This case is now handled in the parser.
; 1545 :      */
; 1546 :     // opnd1->override = NULL;
; 1547 :     return( NOT_ERROR );

	xor	eax, eax

; 1548 : }

	add	rsp, 32					; 00000020H
	pop	rbx
	ret	0
offset_op ENDP
_TEXT	ENDS
; Function compile flags: /Ogtpy
; File d:\hjwasm\hjwasm2.13.1s\hjwasm2.13.1s\expreval.c
_TEXT	SEGMENT
oper$ = 8
opnd1$ = 16
opnd2$ = 24
sym$ = 32
name$ = 40
seg_op	PROC

; 1496 :     /* v2.10: check for sym==NULL ( seg ds:[0] ) added */
; 1497 :     if ( opnd2->sym == NULL || opnd2->sym->state == SYM_STACK || opnd2->is_abs ) {

	mov	rax, QWORD PTR [r8+80]
	test	rax, rax
	je	SHORT $LN3@seg_op
	cmp	DWORD PTR [rax+32], 5
	je	SHORT $LN3@seg_op
	test	BYTE PTR [r8+76], 4
	jne	SHORT $LN3@seg_op

; 1499 :     }
; 1500 :     TokenAssign( opnd1, opnd2 );

	movups	xmm0, XMMWORD PTR [r8]
	movups	XMMWORD PTR [rdx], xmm0
	movups	xmm1, XMMWORD PTR [r8+16]
	movups	XMMWORD PTR [rdx+16], xmm1
	movups	xmm0, XMMWORD PTR [r8+32]
	movups	XMMWORD PTR [rdx+32], xmm0
	movups	xmm1, XMMWORD PTR [r8+48]
	movups	XMMWORD PTR [rdx+48], xmm1
	movups	xmm0, XMMWORD PTR [r8+64]
	movups	XMMWORD PTR [rdx+64], xmm0
	movups	xmm1, XMMWORD PTR [r8+80]
	movups	XMMWORD PTR [rdx+80], xmm1

; 1501 :     opnd1->instr = oper;
; 1502 :     if ( opnd1->mbr ) /* v2.08: set value more selectively */

	cmp	QWORD PTR [rdx+88], 0
	mov	DWORD PTR [rdx+56], ecx
	je	SHORT $LN4@seg_op

; 1503 :         opnd1->value = 0;    /* v2.07: added ( SEG <member> ) */

	mov	DWORD PTR [rdx], 0
$LN4@seg_op:

; 1504 :     opnd1->mem_type = MT_EMPTY; /* v2.04a */

	mov	DWORD PTR [rdx+64], 192			; 000000c0H

; 1505 :     return( NOT_ERROR );

	xor	eax, eax

; 1506 : }

	ret	0
$LN3@seg_op:

; 1498 :         return( fnEmitErr( OPERAND_MUST_BE_RELOCATABLE ) );

	mov	ecx, 188				; 000000bcH
	rex_jmp	QWORD PTR fnEmitErr
seg_op	ENDP
_TEXT	ENDS
; Function compile flags: /Ogtpy
; File d:\hjwasm\hjwasm2.13.1s\hjwasm2.13.1s\expreval.c
_TEXT	SEGMENT
oper$ = 8
opnd1$ = 16
opnd2$ = 24
sym$ = 32
name$ = 40
short_op PROC

; 1482 :     if ( opnd2->kind != EXPR_ADDR ||

	cmp	DWORD PTR [r8+60], 1
	jne	SHORT $LN3@short_op
	mov	eax, DWORD PTR [r8+64]
	cmp	eax, 192				; 000000c0H
	je	SHORT $LN2@short_op
	add	eax, -129				; ffffff7fH
	cmp	eax, 1
	ja	SHORT $LN3@short_op
$LN2@short_op:

; 1487 :     }
; 1488 :     TokenAssign( opnd1, opnd2 );

	movups	xmm0, XMMWORD PTR [r8]

; 1489 :     opnd1->instr = oper;
; 1490 :     return( NOT_ERROR );

	xor	eax, eax
	movups	XMMWORD PTR [rdx], xmm0
	movups	xmm1, XMMWORD PTR [r8+16]
	movups	XMMWORD PTR [rdx+16], xmm1
	movups	xmm0, XMMWORD PTR [r8+32]
	movups	XMMWORD PTR [rdx+32], xmm0
	movups	xmm1, XMMWORD PTR [r8+48]
	movups	XMMWORD PTR [rdx+48], xmm1
	movups	xmm0, XMMWORD PTR [r8+64]
	movups	XMMWORD PTR [rdx+64], xmm0
	movups	xmm1, XMMWORD PTR [r8+80]
	movups	XMMWORD PTR [rdx+80], xmm1
	mov	DWORD PTR [rdx+56], ecx

; 1491 : }

	ret	0
$LN3@short_op:

; 1483 :         ( opnd2->mem_type != MT_EMPTY &&
; 1484 :          opnd2->mem_type != MT_NEAR &&
; 1485 :          opnd2->mem_type != MT_FAR ) ) {
; 1486 :         return( fnEmitErr( EXPRESSION_MUST_BE_A_CODE_ADDRESS ) );

	mov	ecx, 233				; 000000e9H
	rex_jmp	QWORD PTR fnEmitErr
short_op ENDP
_TEXT	ENDS
; Function compile flags: /Ogtpy
; File d:\hjwasm\hjwasm2.13.1s\hjwasm2.13.1s\expreval.c
_TEXT	SEGMENT
oper$ = 8
opnd1$ = 16
opnd2$ = 24
sym$ = 32
name$ = 40
opattr_op PROC

; 1387 : 
; 1388 :     DebugMsg1(("opattr_op: arg kind=%d memtype=%X sym=%s\n",
; 1389 :                opnd2->kind, opnd2->mem_type,
; 1390 :                opnd2->sym ? opnd2->sym->name : "NULL" ));
; 1391 :     opnd1->kind = EXPR_CONST;
; 1392 :     opnd1->sym = NULL;  /* clear symbol in case it is undef */
; 1393 :     opnd1->value = 0;
; 1394 :     opnd1->mem_type = MT_EMPTY;
; 1395 :     opnd1->is_opattr = FALSE; /* v2: added */

	and	DWORD PTR [rdx+76], -17			; ffffffefH
	xor	eax, eax
	mov	DWORD PTR [rdx+60], eax
	mov	r9d, ecx
	mov	QWORD PTR [rdx+80], rax
	mov	DWORD PTR [rdx], eax
	mov	DWORD PTR [rdx+64], 192			; 000000c0H

; 1396 : 
; 1397 :     if ( opnd2->kind == EXPR_EMPTY )

	mov	eax, DWORD PTR [r8+60]
	cmp	eax, -2
	je	$LN26@opattr_op

; 1398 :         return( NOT_ERROR );
; 1399 : 
; 1400 :     /* bit 0: code label (near|far)? */
; 1401 :     if ( opnd2->kind == EXPR_ADDR ) {

	mov	r11d, 1345				; 00000541H
	cmp	eax, 1
	jne	$LN6@opattr_op

; 1402 :         if ( opnd2->sym && opnd2->sym->state != SYM_STACK &&

	mov	rax, QWORD PTR [r8+80]
	test	rax, rax
	je	SHORT $LN4@opattr_op
	cmp	DWORD PTR [rax+32], 5
	je	SHORT $LN4@opattr_op
	movzx	eax, BYTE PTR [r8+64]
	mov	r10d, 1
	mov	ecx, DWORD PTR [rdx]
	and	al, -64					; ffffffffffffffc0H
	cmp	al, -128				; ffffffffffffff80H
	cmove	ecx, r10d
	mov	DWORD PTR [rdx], ecx
$LN4@opattr_op:

; 1403 :             ( opnd2->mem_type & MT_SPECIAL_MASK ) == MT_ADDRESS )
; 1404 :             opnd1->value |= OPATTR_CODELABEL;
; 1405 : 
; 1406 :         if ( IsOffset( opnd2 ) &&
; 1407 :             opnd2->sym &&

	cmp	DWORD PTR [r8+64], 192			; 000000c0H
	jne	SHORT $LN5@opattr_op
	mov	eax, DWORD PTR [r8+56]
	add	eax, -233				; ffffffffffffff17H
	cmp	eax, 10
	ja	SHORT $LN5@opattr_op
	bt	r11d, eax
	jae	SHORT $LN5@opattr_op
	mov	rax, QWORD PTR [r8+80]
	test	rax, rax
	je	SHORT $LN5@opattr_op
	mov	eax, DWORD PTR [rax+36]
	and	eax, 192				; 000000c0H
	cmp	al, -128				; ffffffffffffff80H
	jne	SHORT $LN5@opattr_op

; 1408 :             ( opnd2->sym->mem_type & MT_SPECIAL_MASK ) == MT_ADDRESS )
; 1409 :             opnd1->value |= OPATTR_CODELABEL;

	or	DWORD PTR [rdx], 1
$LN5@opattr_op:

; 1410 : 
; 1411 :         /* bit 1: memory variable, relocatable data label? */
; 1412 :         if ( opnd2->sym &&

	mov	rax, QWORD PTR [r8+80]
	test	rax, rax
	je	SHORT $LN6@opattr_op
	mov	ecx, DWORD PTR [rax+36]
	cmp	ecx, 196				; 000000c4H
	je	SHORT $LN7@opattr_op
	mov	eax, DWORD PTR [r8+64]
	test	al, al
	jns	SHORT $LN7@opattr_op
	cmp	eax, 192				; 000000c0H
	jne	SHORT $LN6@opattr_op
	test	cl, cl
	js	SHORT $LN6@opattr_op
$LN7@opattr_op:

; 1413 :             (( opnd2->sym->mem_type == MT_TYPE ||
; 1414 :               ( opnd2->mem_type & MT_SPECIAL ) == 0 ) ||
; 1415 :              ( opnd2->mem_type == MT_EMPTY &&
; 1416 :               ( opnd2->sym->mem_type & MT_SPECIAL ) == 0 )))
; 1417 :             opnd1->value |= OPATTR_DATALABEL;

	or	DWORD PTR [rdx], 2
$LN6@opattr_op:

; 1418 :     }
; 1419 :     /* kind==EXPR_ADDR is not reliably set for indirect register addressing! */
; 1420 :     /* v2.12: check if operand is valid */
; 1421 :     //if ( opnd2->indirect )
; 1422 :     if ( opnd2->kind != EXPR_ERROR && opnd2->indirect )

	cmp	DWORD PTR [r8+60], -1
	je	SHORT $LN8@opattr_op
	test	BYTE PTR [r8+76], 1
	je	SHORT $LN8@opattr_op

; 1423 :         opnd1->value |= OPATTR_DATALABEL;

	or	DWORD PTR [rdx], 2
$LN8@opattr_op:

; 1424 : 
; 1425 : 
; 1426 :     /* bit 2: immediate value? */
; 1427 :     if ( opnd2->kind == EXPR_CONST ||

	mov	eax, DWORD PTR [r8+60]
	test	eax, eax
	je	SHORT $LN13@opattr_op
	cmp	eax, 1
	jne	SHORT $LN9@opattr_op
	test	BYTE PTR [r8+76], al
	jne	SHORT $LN9@opattr_op
	mov	ecx, DWORD PTR [r8+64]
	cmp	ecx, 192				; 000000c0H
	jne	SHORT $LN45@opattr_op
	mov	eax, DWORD PTR [r8+56]
	add	eax, -233				; ffffffffffffff17H
	cmp	eax, 10
	ja	SHORT $LN35@opattr_op
	bt	r11d, eax
	jb	SHORT $LN11@opattr_op
$LN35@opattr_op:
	cmp	ecx, 192				; 000000c0H
	je	SHORT $LN11@opattr_op
$LN45@opattr_op:
	and	ecx, 192				; 000000c0H
	cmp	cl, -128				; ffffffffffffff80H
	jne	SHORT $LN9@opattr_op
$LN11@opattr_op:
	mov	rax, QWORD PTR [r8+80]
	mov	ecx, DWORD PTR [rax+32]
	dec	ecx
	cmp	ecx, 1
	ja	SHORT $LN9@opattr_op
$LN13@opattr_op:

; 1428 :         ( opnd2->kind == EXPR_ADDR &&
; 1429 :          opnd2->indirect == FALSE &&
; 1430 :          (( opnd2->mem_type == MT_EMPTY && IsOffset(opnd2) ) ||
; 1431 :           //( opnd2->mem_type == MT_ABS ) ||  /* v2.06: added (abs. external) */
; 1432 :           ( opnd2->mem_type == MT_EMPTY ) ||  /* v2.06: added (abs. external) */
; 1433 :           (( opnd2->mem_type & MT_SPECIAL_MASK ) == MT_ADDRESS )) &&
; 1434 :          ( opnd2->sym->state == SYM_INTERNAL ||
; 1435 :           opnd2->sym->state == SYM_EXTERNAL ) ) )
; 1436 :         opnd1->value |= OPATTR_IMMEDIATE;

	or	DWORD PTR [rdx], 4
$LN9@opattr_op:

; 1437 : 
; 1438 :     /* bit 3: uses direct memory addressing?
; 1439 :      */
; 1440 :     if ( opnd2->kind == EXPR_ADDR &&
; 1441 :         opnd2->indirect == FALSE &&
; 1442 :         //opnd2->base_reg == NULL &&
; 1443 :         (( opnd2->mem_type == MT_EMPTY && opnd2->instr == EMPTY ) ||
; 1444 :          ( opnd2->mem_type == MT_TYPE ) || /* v2.05: added */
; 1445 :          (( opnd2->mem_type & MT_SPECIAL ) == 0 ) ||
; 1446 :          opnd2->mem_type == MT_PTR ) &&

	cmp	DWORD PTR [r8+60], 1
	jne	SHORT $LN14@opattr_op
	test	BYTE PTR [r8+76], 1
	jne	SHORT $LN14@opattr_op
	mov	eax, DWORD PTR [r8+64]
	cmp	eax, 192				; 000000c0H
	jne	SHORT $LN16@opattr_op
	cmp	DWORD PTR [r8+56], -2
	je	SHORT $LN15@opattr_op
$LN16@opattr_op:
	cmp	eax, 196				; 000000c4H
	je	SHORT $LN15@opattr_op
	test	al, al
	jns	SHORT $LN15@opattr_op
	cmp	eax, 195				; 000000c3H
	jne	SHORT $LN14@opattr_op
$LN15@opattr_op:
	mov	rax, QWORD PTR [r8+80]
	test	rax, rax
	je	SHORT $LN17@opattr_op
	mov	eax, DWORD PTR [rax+32]
	dec	eax
	cmp	eax, 1
	ja	SHORT $LN14@opattr_op
$LN17@opattr_op:

; 1447 :         (opnd2->sym == NULL ||
; 1448 :          opnd2->sym->state == SYM_INTERNAL ||
; 1449 :          opnd2->sym->state == SYM_EXTERNAL ) )
; 1450 :         opnd1->value |= OPATTR_DIRECTMEM;

	or	DWORD PTR [rdx], 8
$LN14@opattr_op:

; 1451 : 
; 1452 :     if ( opnd2->kind == EXPR_REG && opnd2->indirect == FALSE )

	cmp	DWORD PTR [r8+60], 2
	jne	SHORT $LN18@opattr_op
	test	BYTE PTR [r8+76], 1
	jne	SHORT $LN18@opattr_op

; 1453 :         opnd1->value |= OPATTR_REGISTER;

	or	DWORD PTR [rdx], 16
$LN18@opattr_op:
	mov	eax, DWORD PTR [r8+60]
	inc	eax
	test	eax, -5					; fffffffbH
	je	SHORT $LN19@opattr_op

; 1454 : 
; 1455 :     //if ( opnd2->kind != EXPR_ERROR && ( opnd2->sym == 0 || opnd2->sym->isdefined == TRUE ) )
; 1456 :     if ( opnd2->kind != EXPR_ERROR && opnd2->kind != EXPR_FLOAT && ( opnd2->sym == NULL || opnd2->sym->isdefined == TRUE ) )

	mov	rax, QWORD PTR [r8+80]
	test	rax, rax
	je	SHORT $LN20@opattr_op
	test	BYTE PTR [rax+40], 2
	je	SHORT $LN19@opattr_op
$LN20@opattr_op:

; 1457 :         opnd1->value |= OPATTR_DEFINED; 

	or	DWORD PTR [rdx], 32			; 00000020H
$LN19@opattr_op:

; 1458 : 
; 1459 :     if ( ( opnd2->sym && opnd2->sym->state == SYM_STACK ) ||

	mov	rax, QWORD PTR [r8+80]
	test	rax, rax
	je	SHORT $LN23@opattr_op
	cmp	DWORD PTR [rax+32], 5
	je	SHORT $LN22@opattr_op
$LN23@opattr_op:
	test	BYTE PTR [r8+76], 1
	je	SHORT $LN21@opattr_op
	mov	rax, QWORD PTR [r8+24]
	test	rax, rax
	je	SHORT $LN21@opattr_op
	mov	eax, DWORD PTR [rax+16]
	lea	rcx, QWORD PTR [rax+rax*2]
	lea	rax, OFFSET FLAT:SpecialTable+4
	test	BYTE PTR [rax+rcx*4], 64		; 00000040H
	je	SHORT $LN21@opattr_op
$LN22@opattr_op:

; 1460 :         ( opnd2->indirect && opnd2->base_reg &&
; 1461 :          /* v2.11: use new flag SFR_SSBASED */
; 1462 :          //( opnd2->base_reg->tokval == T_ESP || opnd2->base_reg->tokval == T_EBP || opnd2->base_reg->tokval == T_BP ) ) )
; 1463 :          ( GetSflagsSp( opnd2->base_reg->tokval ) & SFR_SSBASED ) ) )
; 1464 :             opnd1->value |= OPATTR_SSREL;

	or	DWORD PTR [rdx], 64			; 00000040H
$LN21@opattr_op:

; 1465 :     
; 1466 :     if ( opnd2->sym && opnd2->sym->state == SYM_EXTERNAL )

	mov	rax, QWORD PTR [r8+80]
	test	rax, rax
	je	SHORT $LN24@opattr_op
	cmp	DWORD PTR [rax+32], 2
	jne	SHORT $LN24@opattr_op

; 1467 :         opnd1->value |= OPATTR_EXTRNREF;

	or	DWORD PTR [rdx], 128			; 00000080H
$LN24@opattr_op:

; 1468 : 
; 1469 :     if ( oper == T_OPATTR )

	cmp	r9d, 242				; 000000f2H
	jne	SHORT $LN26@opattr_op

; 1470 :         /* v2.12: no language if symbol isn't defined properly */
; 1471 :         //if ( opnd2->sym )
; 1472 :         if ( opnd2->sym && opnd2->kind != EXPR_ERROR )

	mov	rax, QWORD PTR [r8+80]
	test	rax, rax
	je	SHORT $LN26@opattr_op
	cmp	DWORD PTR [r8+60], -1
	je	SHORT $LN26@opattr_op

; 1473 :             opnd1->value |= opnd2->sym->langtype << 8;

	mov	eax, DWORD PTR [rax+76]
	shl	eax, 8
	or	DWORD PTR [rdx], eax
$LN26@opattr_op:

; 1474 : 
; 1475 :     DebugMsg1(("opattr_op returns %Xh\n", opnd1->value));
; 1476 :     return( NOT_ERROR );

	xor	eax, eax

; 1477 : }

	ret	0
opattr_op ENDP
_TEXT	ENDS
; Function compile flags: /Ogtpy
; File d:\hjwasm\hjwasm2.13.1s\hjwasm2.13.1s\expreval.c
_TEXT	SEGMENT
oper$ = 48
opnd1$ = 56
opnd2$ = 64
sym$ = 72
name$ = 80
type_op	PROC

; 1205 : {

	mov	QWORD PTR [rsp+8], rbx
	mov	QWORD PTR [rsp+16], rbp
	mov	QWORD PTR [rsp+24], rsi
	push	rdi
	sub	rsp, 32					; 00000020H

; 1206 :     DebugMsg1(("type_op: opnd2 kind=%d memtype=%X sym=%s type=%s instr=%d istype=%u explicit=%u\n",
; 1207 :                opnd2->kind,
; 1208 :                opnd2->mem_type,
; 1209 :                sym ? sym->name : "NULL",
; 1210 :                opnd2->type ? opnd2->type->name : "NULL",
; 1211 :                opnd2->instr,
; 1212 :                opnd2->is_type,
; 1213 :                opnd2->explicit ));
; 1214 :     opnd1->kind = EXPR_CONST;

	xor	ebp, ebp
	mov	rsi, r9
	mov	DWORD PTR [rdx+60], ebp
	mov	rdi, r8

; 1215 :     /* TYPE accepts arrays/structs/unions */
; 1216 :     /* v2.11: if memtype isn't empty, ignore any unary operator
; 1217 :      * test cases:
; 1218 :      * - type qword ptr sym.
; 1219 :      * - type qword ptr offset sym
; 1220 :      * operators LOW, HIGH, LOWWORD, HIGHWORD, LOW32, HIGH32,
; 1221 :      * OFFSET, IMAGEREL, SECTIONREL and LROFFSET
; 1222 :      * will set opnd.memtype to MT_EMPTY.
; 1223 :      */
; 1224 :     if( opnd2->instr != EMPTY && opnd2->mem_type != MT_EMPTY ) {

	cmp	DWORD PTR [r8+56], -2
	mov	rbx, rdx
	je	SHORT $LN4@type_op
	cmp	DWORD PTR [r8+64], 192			; 000000c0H
	je	SHORT $LN4@type_op

; 1225 :         opnd2->instr = EMPTY;

	mov	DWORD PTR [r8+56], -2

; 1226 :         sym = NULL;

	mov	esi, ebp
$LN4@type_op:

; 1227 :     }
; 1228 :     if( opnd2->instr != EMPTY ) {

	mov	eax, DWORD PTR [r8+56]
	cmp	eax, -2
	je	SHORT $LN5@type_op

; 1229 :         if ( opnd2->sym ) {

	mov	rcx, QWORD PTR [r8+80]
	test	rcx, rcx
	je	$LN40@type_op

; 1230 :             switch ( opnd2->instr ) {

	add	eax, -230				; ffffffffffffff1aH
	cmp	eax, 13
	ja	$LN40@type_op
	cdqe
	lea	rdx, OFFSET FLAT:__ImageBase
	mov	eax, DWORD PTR $LN44@type_op[rdx+rax*4]
	add	rax, rdx
	jmp	rax
$LN8@type_op:

; 1231 :             case T_LOW:
; 1232 :             case T_HIGH:
; 1233 :                 opnd1->value = 1;

	mov	DWORD PTR [rbx], 1

; 1234 :                 break;

	jmp	$LN40@type_op
$LN9@type_op:

; 1235 :             case T_LOWWORD:
; 1236 :             case T_HIGHWORD:
; 1237 :                 //case T_SEG: /* masm returns 0 for TYPE SEG <label>! */
; 1238 :                 opnd1->value = 2;

	mov	eax, 2

; 1239 :                 break;

	jmp	$LN45@type_op
$LN10@type_op:

; 1240 : #if LOHI32
; 1241 :             case T_LOW32:
; 1242 :             case T_HIGH32:
; 1243 :                 opnd1->value = 4;

	mov	DWORD PTR [rbx], 4

; 1244 :                 break;

	jmp	$LN40@type_op
$LN11@type_op:

; 1245 : #endif
; 1246 :             case T_OFFSET:
; 1247 :             case T_LROFFSET:
; 1248 : #if SECTIONRELSUPP
; 1249 :             case T_SECTIONREL: /* masm returns 0 for TYPE SECTIONREL <label>! */
; 1250 : #endif
; 1251 : #if IMAGERELSUPP
; 1252 :             case T_IMAGEREL: /* masm returns 0 for TYPE IMAGEREL <label>! */
; 1253 : #endif
; 1254 :                 opnd1->value = 2 << GetSymOfssize( opnd2->sym );

	call	GetSymOfssize
	mov	ecx, eax
	mov	eax, 2
	shl	eax, cl

; 1255 :                 opnd1->is_type = TRUE; /* v2.03: added */

	or	DWORD PTR [rbx+76], 8

; 1256 :                 break;
; 1257 :             }
; 1258 :         }

	jmp	$LN45@type_op
$LN5@type_op:

; 1259 :     } else if ( sym == NULL ) {

	test	rsi, rsi
	jne	$LN12@type_op

; 1260 :         //printf( "sym=NULL kind=%d mem_type=%X indirect=%u is_type=%u type=%s\n", opnd2->kind, opnd2->mem_type, opnd2->indirect, opnd2->is_type, opnd2->type ? opnd2->type->name : "NULL" );
; 1261 :         /* for types, return total_size */
; 1262 :         if ( opnd2->is_type == TRUE ) {

	mov	eax, DWORD PTR [r8+76]
	test	al, 8
	je	SHORT $LN14@type_op

; 1263 :             /* v2.06: default value of RECORD types is the mask! */
; 1264 :             if ( opnd2->type && opnd2->type->typekind == TYPE_RECORD )

	mov	rax, QWORD PTR [r8+96]
	test	rax, rax
	je	SHORT $LN16@type_op
	cmp	BYTE PTR [rax+66], 4
	jne	SHORT $LN16@type_op

; 1265 :                 opnd2->value = opnd2->type->total_size;

	mov	eax, DWORD PTR [rax+56]
	mov	DWORD PTR [r8], eax
$LN16@type_op:

; 1266 :             //opnd1->value = opnd2->value;
; 1267 :             TokenAssign( opnd1, opnd2 );

	movups	xmm0, XMMWORD PTR [r8]
	movups	XMMWORD PTR [rdx], xmm0
	movups	xmm1, XMMWORD PTR [r8+16]
	movups	XMMWORD PTR [rdx+16], xmm1
	movups	xmm0, XMMWORD PTR [r8+32]
	movups	XMMWORD PTR [rdx+32], xmm0
	movups	xmm1, XMMWORD PTR [r8+48]
	movups	XMMWORD PTR [rdx+48], xmm1
	movups	xmm0, XMMWORD PTR [r8+64]
	movups	XMMWORD PTR [rdx+64], xmm0
	movups	xmm1, XMMWORD PTR [r8+80]
	movups	XMMWORD PTR [rdx+80], xmm1

; 1268 :             /* v2.05: added, (type procptr) ptr <reg>
; 1269 :              * the type probably should be set generally,
; 1270 :              * but this variant is the one used by INVOKE, other
; 1271 :              * usages are virtually irrelevant.
; 1272 :              * v2.10: opnd1->type now always set. Example:
; 1273 :              *   ( type x ) eq ( type y )
; 1274 :              * also see new function cmp_types()
; 1275 :              */
; 1276 :             //if ( opnd2->mem_type == MT_PROC )
; 1277 :             opnd1->type = opnd2->type;

	mov	rax, QWORD PTR [r8+96]
	mov	QWORD PTR [rdx+96], rax
	jmp	$LN40@type_op
$LN14@type_op:

; 1278 : 
; 1279 :         } else if ( opnd2->kind == EXPR_REG && opnd2->indirect == FALSE ) {

	cmp	DWORD PTR [r8+60], 2
	jne	$LN17@type_op
	test	al, 1
	jne	$LN17@type_op

; 1280 :             opnd1->value = SizeFromRegister( opnd2->base_reg->tokval );

	mov	rax, QWORD PTR [r8+24]
	mov	ecx, DWORD PTR [rax+16]
	call	SizeFromRegister

; 1281 :             opnd1->is_type = TRUE; /* v2.03: added */

	or	DWORD PTR [rbx+76], 8
	mov	DWORD PTR [rbx], eax

; 1282 :             /* v2.10: check for assumes if it's a full size GPR */
; 1283 :             if ( opnd1->value == CurrWordSize &&
; 1284 :                 opnd1->mem_type == MT_EMPTY &&
; 1285 :                 ( GetValueSp( opnd2->base_reg->tokval ) & OP_RGT8 ) &&

	movzx	ecx, BYTE PTR ModuleInfo+406
	cmp	eax, ecx
	jne	SHORT $LN19@type_op
	cmp	DWORD PTR [rbx+64], 192			; 000000c0H
	jne	SHORT $LN19@type_op
	mov	r8, QWORD PTR [rdi+24]
	lea	rdx, OFFSET FLAT:__ImageBase
	mov	eax, DWORD PTR [r8+16]
	lea	rcx, QWORD PTR [rax+rax*2]
	test	BYTE PTR SpecialTable[rdx+rcx*4], 14
	je	SHORT $LN19@type_op
	movzx	ecx, BYTE PTR [r8+1]
	call	GetStdAssumeEx
	test	rax, rax
	je	SHORT $LN19@type_op

; 1286 :                 ( sym = GetStdAssumeEx( opnd2->base_reg->bytval ) ) ) {
; 1287 :                 DebugMsg1(("type_op: assume type=%X [name=>%s< memtype=%X]\n", sym, sym->name, sym->mem_type ));
; 1288 :                 opnd1->type = sym;

	mov	QWORD PTR [rbx+96], rax

; 1289 :                 opnd1->mem_type = sym->mem_type;

	mov	ecx, DWORD PTR [rax+36]
	mov	DWORD PTR [rbx+64], ecx

; 1290 :                 opnd1->value = sym->total_size;

	mov	eax, DWORD PTR [rax+56]

; 1291 :             } else {

	jmp	$LN45@type_op
$LN19@type_op:

; 1292 :                 opnd1->mem_type = opnd2->mem_type; /* v2.10: added */

	mov	ecx, DWORD PTR [rdi+64]
	lea	rdx, QWORD PTR [rbx+64]
	mov	DWORD PTR [rdx], ecx

; 1293 :                 opnd1->type = opnd2->type; /* v2.10: added */

	mov	rax, QWORD PTR [rdi+96]
	mov	QWORD PTR [rbx+96], rax

; 1294 :                 if ( opnd1->mem_type == MT_EMPTY )

	cmp	ecx, 192				; 000000c0H
	jne	$LN40@type_op

; 1295 :                     MemtypeFromSize( opnd1->value, &opnd1->mem_type ); /* v2.03: added */

	mov	ecx, DWORD PTR [rbx]
	call	MemtypeFromSize

; 1296 :             }

	jmp	$LN40@type_op
$LN17@type_op:

; 1297 : 
; 1298 : #if 0 /* Masm returns 0 for TYPE <segment_register> */
; 1299 :             /* if it is a segment register, use default word size */
; 1300 :             if ( opnd1->value == 0 )
; 1301 :                 opnd1->value = Use32 ? 4 : 2;
; 1302 : #endif
; 1303 :         //} else if ( opnd2->explicit ) { /* v2.05: changed */
; 1304 :         //} else if ( opnd2->mem_type != MT_EMPTY ) { /* v2.10: changed */
; 1305 :         } else if ( opnd2->mem_type != MT_EMPTY || opnd2->explicit ) {

	mov	ecx, DWORD PTR [r8+64]
	cmp	ecx, 192				; 000000c0H
	jne	SHORT $LN47@type_op
	test	al, 2
	jne	SHORT $LN24@type_op

; 1317 :         } else /* it is a number or EXPR_REG + indirect */
; 1318 :             opnd1->value = 0;

	mov	DWORD PTR [rdx], ebp
	jmp	$LN40@type_op
$LN24@type_op:

; 1306 :             if ( opnd2->mem_type != MT_EMPTY ) {

	cmp	ecx, 192				; 000000c0H
	je	SHORT $LN25@type_op
$LN47@type_op:

; 1307 :                 opnd1->value = SizeFromMemtype( opnd2->mem_type, opnd2->Ofssize, opnd2->type );

	movzx	edx, BYTE PTR [r8+69]
	mov	r8, QWORD PTR [r8+96]
	call	SizeFromMemtype
	mov	DWORD PTR [rbx], eax

; 1308 :                 opnd1->mem_type = opnd2->mem_type; /* v2.04: added */

	mov	eax, DWORD PTR [rdi+64]

; 1313 :                 }
; 1314 :             }
; 1315 :             opnd1->is_type = TRUE; /* v2.04: added */

	or	DWORD PTR [rbx+76], 8
	mov	DWORD PTR [rbx+64], eax

; 1316 :             opnd1->type = opnd2->type; /* v2.09: added */

	mov	rax, QWORD PTR [rdi+96]
	mov	QWORD PTR [rbx+96], rax

; 1319 : #if 0
; 1320 :     } else if ( sym->state == SYM_TYPE ) {
; 1321 :         TokenAssign( opnd1, opnd2 );
; 1322 :         opnd1->type = sym;
; 1323 : #endif
; 1324 :     } else if ( sym->state == SYM_UNDEFINED ) { /* v2.10: added */

	jmp	$LN40@type_op
$LN25@type_op:

; 1309 :             } else {
; 1310 :                 if ( opnd2->type ) {

	mov	rax, QWORD PTR [r8+96]
	test	rax, rax
	je	SHORT $LN27@type_op

; 1311 :                     opnd1->value = opnd2->type->total_size;

	mov	eax, DWORD PTR [rax+56]
	mov	DWORD PTR [rdx], eax

; 1312 :                     opnd1->mem_type = opnd2->type->mem_type;

	mov	rax, QWORD PTR [r8+96]
	mov	ecx, DWORD PTR [rax+36]
	mov	DWORD PTR [rdx+64], ecx
$LN27@type_op:

; 1313 :                 }
; 1314 :             }
; 1315 :             opnd1->is_type = TRUE; /* v2.04: added */

	or	DWORD PTR [rbx+76], 8

; 1316 :             opnd1->type = opnd2->type; /* v2.09: added */

	mov	rax, QWORD PTR [rdi+96]
	mov	QWORD PTR [rbx+96], rax

; 1319 : #if 0
; 1320 :     } else if ( sym->state == SYM_TYPE ) {
; 1321 :         TokenAssign( opnd1, opnd2 );
; 1322 :         opnd1->type = sym;
; 1323 : #endif
; 1324 :     } else if ( sym->state == SYM_UNDEFINED ) { /* v2.10: added */

	jmp	$LN40@type_op
$LN12@type_op:
	cmp	DWORD PTR [rsi+32], ebp
	jne	SHORT $LN28@type_op

; 1325 :         opnd1->kind = EXPR_ADDR;
; 1326 :         opnd1->sym = sym;
; 1327 :         /* is_type must be set, to avoid the forward referenced symbol be changed
; 1328 :          * to a type if the type expression is the left operand of PTR
; 1329 :          */
; 1330 :         opnd1->is_type = TRUE;

	or	DWORD PTR [rdx+76], 8
	mov	DWORD PTR [rdx+60], 1
	mov	QWORD PTR [rdx+80], rsi
	jmp	$LN40@type_op
$LN28@type_op:

; 1331 :         //} else if( sym->mem_type == MT_TYPE ) { /* v2.04: check for explicit */
; 1332 :     } else if( sym->mem_type == MT_TYPE && opnd2->explicit == FALSE ) {

	cmp	DWORD PTR [rsi+36], 196			; 000000c4H
	jne	SHORT $LN30@type_op
	test	BYTE PTR [r8+76], 2
	jne	SHORT $LN30@type_op

; 1333 :         opnd1->value = sym->type->total_size;

	mov	rax, QWORD PTR [rsi+80]
	mov	ecx, DWORD PTR [rax+56]

; 1334 :         opnd1->is_type = TRUE; /* v2.03: added */

	or	DWORD PTR [rdx+76], 8
	mov	DWORD PTR [rdx], ecx

; 1335 :         //if ( opnd1->mem_type == MT_EMPTY ) /* v2.09 */
; 1336 :         opnd1->mem_type = sym->type->mem_type; /* v2.09 */

	mov	rax, QWORD PTR [rsi+80]
	mov	ecx, DWORD PTR [rax+36]
	mov	DWORD PTR [rdx+64], ecx

; 1337 :         opnd1->type = sym->type; /* v2.09 */

	mov	rax, QWORD PTR [rsi+80]
	mov	QWORD PTR [rdx+96], rax

; 1338 :         //printf( "sym=%s MT_TYPE type=%s type->memt=%X\n", sym->name, sym->type->name, sym->type->mem_type );
; 1339 :     } else {

	jmp	$LN40@type_op
$LN30@type_op:

; 1340 : #if 1 /* v2.03: added */
; 1341 :         opnd1->is_type = TRUE;

	or	DWORD PTR [rdx+76], 8

; 1342 :         if ( opnd1->mem_type == MT_EMPTY )

	cmp	DWORD PTR [rdx+64], 192			; 000000c0H
	jne	SHORT $LN32@type_op

; 1343 :             opnd1->mem_type = opnd2->mem_type;

	mov	eax, DWORD PTR [r8+64]
	mov	DWORD PTR [rdx+64], eax
$LN32@type_op:

; 1344 : #endif
; 1345 :         //if ( opnd2->type ) { /* v2.10a: see types14.asm */
; 1346 :         if ( opnd2->type && opnd2->mbr == NULL ) {

	cmp	QWORD PTR [r8+96], rbp
	je	SHORT $LN33@type_op
	cmp	QWORD PTR [r8+88], rbp
	jne	SHORT $LN33@type_op

; 1347 :             opnd1->type_tok = opnd2->type_tok;

	mov	rax, QWORD PTR [r8+40]
	mov	QWORD PTR [rdx+40], rax

; 1348 :             opnd1->type = opnd2->type;

	mov	rax, QWORD PTR [r8+96]
	mov	QWORD PTR [rdx+96], rax

; 1349 :             opnd1->value = opnd1->type->total_size;

	mov	eax, DWORD PTR [rax+56]
	mov	DWORD PTR [rdx], eax
	jmp	SHORT $LN40@type_op
$LN33@type_op:

; 1350 :         } else if ( sym->mem_type == MT_PTR ) {

	mov	eax, DWORD PTR [rsi+36]
	cmp	eax, 195				; 000000c3H
	jne	SHORT $LN35@type_op

; 1351 :             //printf( "sym=%s MT_PTR target_memt=%X target=%s\n", sym->name, sym->ptr_memtype, sym->target_type ? sym->target_type->name : "NULL" );
; 1352 :             opnd1->type_tok = opnd2->type_tok; /* v2.10: added */

	mov	rax, QWORD PTR [r8+40]
	mov	QWORD PTR [rdx+40], rax

; 1353 :             opnd1->value = SizeFromMemtype( sym->isfar ? MT_FAR : MT_NEAR, sym->Ofssize, NULL );

	test	BYTE PTR [rsi+47], 16
	movzx	edx, BYTE PTR [rsi+44]
	setne	bpl
	xor	r8d, r8d
	lea	ecx, DWORD PTR [rbp+129]
	jmp	SHORT $LN48@type_op
$LN35@type_op:

; 1354 :         } else if( sym->mem_type == MT_NEAR ) {
; 1355 :             /* v2.09: also handle 64-bit */
; 1356 :             //opnd1->value = GetSymOfssize( sym ) ? LS_NEAR32 : LS_NEAR16;
; 1357 :             opnd1->value = 0xFF00 | ( 2 << GetSymOfssize( sym ) );

	mov	rcx, rsi
	cmp	eax, 129				; 00000081H
	jne	SHORT $LN37@type_op
	call	GetSymOfssize
	mov	ecx, eax
	mov	eax, 2
	shl	eax, cl
	or	eax, 65280				; 0000ff00H
	jmp	SHORT $LN45@type_op
$LN37@type_op:

; 1358 :         } else if( sym->mem_type == MT_FAR ) {

	cmp	eax, 130				; 00000082H
	jne	SHORT $LN39@type_op

; 1359 :             opnd1->value = GetSymOfssize( sym ) ? LS_FAR32 : LS_FAR16;

	call	GetSymOfssize
	test	eax, eax
	setne	bpl
	add	ebp, 65285				; 0000ff05H
	mov	DWORD PTR [rbx], ebp

; 1360 :         } else

	jmp	SHORT $LN40@type_op
$LN39@type_op:

; 1361 :             opnd1->value = SizeFromMemtype( opnd2->mem_type, GetSymOfssize( sym ), sym->type );

	call	GetSymOfssize
	mov	r8, QWORD PTR [rsi+80]
	mov	edx, eax
	mov	ecx, DWORD PTR [rdi+64]
$LN48@type_op:
	call	SizeFromMemtype
$LN45@type_op:
	mov	DWORD PTR [rbx], eax
$LN40@type_op:

; 1362 :     }
; 1363 :     DebugMsg1(("type_op: result value=%u is_type=%u type=%s\n", opnd1->value, opnd1->is_type, opnd1->type ? opnd1->type->name : "NULL" ));
; 1364 :     return( NOT_ERROR );
; 1365 : }

	mov	rbx, QWORD PTR [rsp+48]
	xor	eax, eax
	mov	rbp, QWORD PTR [rsp+56]
	mov	rsi, QWORD PTR [rsp+64]
	add	rsp, 32					; 00000020H
	pop	rdi
	ret	0
	npad	1
$LN44@type_op:
	DD	$LN8@type_op
	DD	$LN10@type_op
	DD	$LN9@type_op
	DD	$LN11@type_op
	DD	$LN40@type_op
	DD	$LN40@type_op
	DD	$LN8@type_op
	DD	$LN10@type_op
	DD	$LN9@type_op
	DD	$LN11@type_op
	DD	$LN40@type_op
	DD	$LN11@type_op
	DD	$LN40@type_op
	DD	$LN11@type_op
type_op	ENDP
_TEXT	ENDS
; Function compile flags: /Ogtpy
; File d:\hjwasm\hjwasm2.13.1s\hjwasm2.13.1s\expreval.c
_TEXT	SEGMENT
oper$ = 48
opnd1$ = 56
opnd2$ = 64
sym$ = 72
name$ = 80
sizlen_op PROC

; 1090 : {

	mov	QWORD PTR [rsp+8], rbx
	push	rdi
	sub	rsp, 32					; 00000020H

; 1091 :     opnd1->kind = EXPR_CONST;

	xor	edi, edi
	mov	rbx, rdx
	mov	DWORD PTR [rdx+60], edi

; 1092 : 
; 1093 :     DebugMsg1(("sizlen_op(%s): sym=%X, mbr=%X, type=>%s<\n", GetResWName( oper, NULL ),
; 1094 :                opnd2->sym, opnd2->mbr, opnd2->type ? opnd2->type->name : "NULL" ));
; 1095 : 
; 1096 :     if ( sym ) {

	lea	edx, QWORD PTR [rdi+1]
	test	r9, r9
	je	SHORT $LN7@sizlen_op

; 1097 :         if ( sym->state == SYM_STRUCT_FIELD || sym->state == SYM_STACK )

	mov	r10d, DWORD PTR [r9+32]
	lea	eax, DWORD PTR [r10-5]
	cmp	eax, edx
	jbe	SHORT $LN7@sizlen_op

; 1098 :             ;
; 1099 :         else if ( sym->state == SYM_UNDEFINED ) {

	test	r10d, r10d
	jne	SHORT $LN8@sizlen_op

; 1100 :             /* v2.10: forward references should have attributes EXPR_ADDR + sym.state=SYM_UNDEFINED */
; 1101 :             opnd1->kind = EXPR_ADDR;

	mov	DWORD PTR [rbx+60], edx

; 1102 :             opnd1->sym = sym;

	mov	QWORD PTR [rbx+80], r9
$LN7@sizlen_op:

; 1117 :         }
; 1118 :     }
; 1119 : 
; 1120 :     switch( oper ) {

	sub	ecx, 234				; 000000eaH
	je	$LN19@sizlen_op
	sub	ecx, edx
	je	$LN20@sizlen_op
	sub	ecx, 11
	je	$LN25@sizlen_op
	cmp	ecx, edx
	jne	$LN44@sizlen_op

; 1167 :         } else {
; 1168 :             opnd1->value = GetSizeValue( sym );
; 1169 :         }
; 1170 :         DebugMsg1(("sizlen_op(SIZE): result=%u [symbol %s, first_size=%u]\n", opnd1->value, sym ? sym->name : "NULL", sym ? sym->first_size : 0 ));
; 1171 :         break;
; 1172 :     case T_SIZEOF:
; 1173 : #ifdef DEBUG_OUT
; 1174 :         if (sym)
; 1175 :             DebugMsg1(("sizlen_op(sizeof): symbol %s, state=%u, size=%u\n", sym->name, sym->state, sym->total_size ));
; 1176 :         else if ( opnd2->is_type && opnd2->type )
; 1177 :             DebugMsg1(("sizlen_op(sizeof): symbol %s (TYPE), opnd2.value=%u\n", opnd2->type->name, opnd2->value ));
; 1178 :         else
; 1179 :             DebugMsg1(("sizlen_op(sizeof): symbol NULL, opnd2.value=%u\n", opnd2->value ));
; 1180 : #endif
