; Listing generated by Microsoft (R) Optimizing Compiler Version 19.00.23026.0 

include listing.inc

INCLUDELIB LIBCMT
INCLUDELIB OLDNAMES

_BSS	SEGMENT
$SG11756 DB	01H DUP (?)
	ALIGN	4

$SG11764 DB	01H DUP (?)
	ALIGN	4

$SG11767 DB	02H DUP (?)
	ALIGN	4

$SG11772 DB	01H DUP (?)
_BSS	ENDS
_DATA	SEGMENT
COMM	decoflags:BYTE
COMM	broadflags:BYTE
COMM	evex:BYTE
COMM	ZEROLOCALS:BYTE
_DATA	ENDS
_DATA	SEGMENT
$SG12289 DB	' dd %s', 00H
	ORG $+1
$SG11265 DB	'jmp ', 00H
	ORG $+3
$SG12292 DB	' dd %s', 00H
	ORG $+1
$SG12296 DB	' dd %s', 00H
	ORG $+1
$SG12297 DB	' dd %s', 00H
	ORG $+1
$SG12298 DB	' dd %s', 00H
	ORG $+1
$SG12301 DB	' dd %s', 00H
	ORG $+1
$SG12302 DB	' dd %s', 00H
	ORG $+1
$SG12307 DB	' dq %s', 00H
	ORG $+1
$SG12310 DB	' dq %s', 00H
	ORG $+1
$SG12316 DB	' dq %s', 00H
	ORG $+1
$SG12317 DB	' dq %s', 00H
	ORG $+1
$SG12318 DB	' dq %s', 00H
	ORG $+1
$SG12321 DB	' dq %s', 00H
	ORG $+1
$SG12322 DB	' dq %s', 00H
	ORG $+1
$SG12323 DB	'%s:', 00H
$SG12327 DB	' db %d', 00H
	ORG $+1
$SG12328 DB	' db %d', 00H
	ORG $+1
$SG12330 DB	' db %d', 00H
	ORG $+1
$SG12331 DB	' db %d', 00H
	ORG $+1
$SG12336 DB	' dw %d', 00H
	ORG $+1
$SG12337 DB	' dw %d', 00H
	ORG $+1
$SG12339 DB	' dw %d', 00H
	ORG $+1
$SG12340 DB	' dw %d', 00H
	ORG $+1
$SG12345 DB	' dd %d', 00H
	ORG $+1
$SG12346 DB	' dq %q', 00H
	ORG $+1
$SG11323 DB	0aH, 00H
	ORG $+2
$SG11326 DB	':', 0aH, 00H
	ORG $+1
$SG12352 DB	'%s:', 00H
$SG12358 DB	'%s:', 00H
$SG12360 DB	'%s:', 00H
$SG12361 DB	' jmp %s', 00H
$SG12363 DB	' jmp %s', 00H
$SG12367 DB	'%s:', 00H
$SG12371 DB	'%s:', 00H
$SG12377 DB	'loop %s', 00H
$SG11356 DB	0aH, 00H
	ORG $+2
$SG12381 DB	'%s:', 00H
$SG11360 DB	'%s:', 0aH, 00H
	ORG $+3
$SG12385 DB	'%s:', 00H
$SG11361 DB	'%s:', 0aH, 00H
	ORG $+3
$SG11365 DB	':', 0aH, 00H
	ORG $+1
$SG11414 DB	'loope', 00H
	ORG $+2
$SG12440 DB	'jmp %s', 00H
	ORG $+1
$SG12442 DB	'%s:', 00H
$SG11418 DB	'loop', 00H
	ORG $+3
$SG11421 DB	'ax', 00H
	ORG $+1
$SG11422 DB	'eax', 00H
$SG11423 DB	'rax', 00H
$SG12448 DB	'jmp %s', 00H
	ORG $+1
$SG11425 DB	'dx', 00H
	ORG $+1
$SG12450 DB	'%s:', 00H
$SG11426 DB	'edx', 00H
$SG11427 DB	'rdx', 00H
$SG11429 DB	'cx', 00H
	ORG $+1
$SG11430 DB	'ecx', 00H
$SG11431 DB	'rcx', 00H
$SG11441 DB	', ', 00H
	ORG $+1
$SG12473 DB	'jmp %s', 00H
	ORG $+1
$SG12475 DB	'%s:', 00H
$SG12492 DB	'jmp %s', 00H
	ORG $+1
$SG11773 DB	'%s:', 00H
$SG12499 DB	'.if-.repeat-.while', 00H
	ORG $+1
$SG11781 DB	'jmp', 00H
$SG11479 DB	'=!<>&|-+*^%/', 00H
	ORG $+3
$SG11487 DB	' inc ', 00H
	ORG $+2
$SG11489 DB	' dec ', 00H
	ORG $+2
$SG11507 DB	' mov  ', 00H
	ORG $+1
$SG11510 DB	' cdq ', 00H
	ORG $+2
$SG11513 DB	' mov  ', 00H
	ORG $+1
$SG11517 DB	' idiv ', 00H
	ORG $+1
$SG11518 DB	' imul ', 00H
	ORG $+1
$SG11522 DB	' idiv ', 00H
	ORG $+1
$SG11523 DB	' imul ', 00H
	ORG $+1
$SG11525 DB	' mov  ', 00H
	ORG $+1
$SG11526 DB	' mov  ', 00H
	ORG $+1
$SG11530 DB	' cdq ', 00H
	ORG $+2
$SG11531 DB	' idiv ', 00H
	ORG $+1
$SG11532 DB	' imul ', 00H
	ORG $+1
$SG11535 DB	' mov  ', 00H
	ORG $+1
$SG11536 DB	' mov  ', 00H
	ORG $+1
$SG11542 DB	' cdq ', 00H
	ORG $+2
$SG11543 DB	' idiv ', 00H
	ORG $+1
$SG11544 DB	' imul ', 00H
	ORG $+1
$SG11546 DB	' mov  ', 00H
	ORG $+1
$SG11552 DB	' cdq ', 00H
	ORG $+2
$SG11553 DB	' idiv ', 00H
	ORG $+1
$SG11554 DB	' imul ', 00H
	ORG $+1
$SG11556 DB	' mov  ', 00H
	ORG $+1
$SG11559 DB	' mov  ', 00H
	ORG $+1
$SG11563 DB	' cdq ', 00H
	ORG $+2
$SG11564 DB	' idiv ', 00H
	ORG $+1
$SG11565 DB	' imul ', 00H
	ORG $+1
$SG11567 DB	' mov  ', 00H
	ORG $+1
$SG11570 DB	' sub ', 00H
	ORG $+2
$SG11573 DB	' add ', 00H
	ORG $+2
$SG11576 DB	' and ', 00H
	ORG $+2
$SG11579 DB	' or ', 00H
	ORG $+3
$SG11582 DB	' xor ', 00H
	ORG $+2
$SG11585 DB	' shl ', 00H
	ORG $+2
$SG11587 DB	' shr ', 00H
	ORG $+2
$SG11594 DB	' xor  ', 00H
	ORG $+1
$SG11601 DB	'BYTE PTR', 00H
	ORG $+3
$SG11602 DB	'BPTR', 00H
	ORG $+3
$SG11603 DB	'WPTR', 00H
	ORG $+3
$SG11609 DB	' lea  ', 00H
	ORG $+1
$SG11783 DB	'%s:', 00H
$SG11604 DB	'WORD PTR', 00H
	ORG $+3
$SG11610 DB	' mov  ', 00H
	ORG $+1
$SG11876 DB	'%s:', 00H
$SG11605 DB	' movzx  ', 00H
	ORG $+3
$SG11608 DB	'ADDR', 00H
	ORG $+3
$SG11616 DB	'OFFSET', 00H
	ORG $+1
$SG11617 DB	' lea  ', 00H
	ORG $+1
$SG11618 DB	' mov  ', 00H
	ORG $+1
$SG11885 DB	'%s:', 00H
$SG11625 DB	'DWORD PTR', 00H
	ORG $+2
$SG11626 DB	'DPTR', 00H
	ORG $+3
$SG11629 DB	' mov  ', 00H
	ORG $+1
$SG11887 DB	'%s:', 00H
$SG11628 DB	' movsxd  ', 00H
	ORG $+2
$SG11636 DB	' mov  ', 00H
	ORG $+1
$SG12180 DB	'%s:', 00H
$SG11635 DB	' invoke  ', 00H
	ORG $+2
$SG11639 DB	' mov  ', 00H
	ORG $+1
$SG12186 DB	'cdq', 00H
$SG11642 DB	' mov  byte ptr ', 00H
$SG11643 DB	' mov  ', 00H
	ORG $+1
$SG11711 DB	' movzx eax, %s', 00H
	ORG $+1
$SG11713 DB	' mov eax, %s', 00H
	ORG $+3
$SG11718 DB	' movzx eax, %s', 00H
	ORG $+1
$SG11721 DB	' mov eax, %s', 00H
	ORG $+3
$SG11723 DB	' mov rax, %s', 00H
	ORG $+3
$SG11730 DB	' movzx eax, %s', 00H
	ORG $+1
$SG11731 DB	' mov eax, %s', 00H
	ORG $+3
$SG11735 DB	' movzx eax, %s', 00H
	ORG $+1
$SG11738 DB	' mov eax, %s', 00H
	ORG $+3
$SG11739 DB	' mov rax, %s', 00H
	ORG $+3
$SG11740 DB	'jmp %s', 00H
	ORG $+1
$SG11748 DB	'(::)', 00H
	ORG $+3
$SG11763 DB	' jmp %s', 00H
$SG11766 DB	'.for ', 00H
	ORG $+2
$SG11768 DB	'.for', 00H, 00H
	ORG $+2
$SG11782 DB	'jmp %s', 00H
	ORG $+1
$SG11883 DB	'jmp %s', 00H
	ORG $+1
$SG11886 DB	'ALIGN %d', 00H
	ORG $+3
$SG11924 DB	'je  %s', 00H
	ORG $+1
$SG12197 DB	'cdq', 00H
$SG11923 DB	'cmp  eax,%d', 00H
$SG12206 DB	'cdq', 00H
$SG11927 DB	'jmp  %s', 00H
$SG11928 DB	'jmp  %s', 00H
$SG11929 DB	'push rdx', 00H
	ORG $+3
$SG11933 DB	'je  %s', 00H
	ORG $+1
$SG12214 DB	'%s:', 00H
$SG11930 DB	'mov rdx, %q', 00H
$SG12236 DB	'%s:', 00H
$SG11931 DB	'cmp rax, rdx', 00H
	ORG $+3
$SG11932 DB	'pop rdx', 00H
$SG11936 DB	'jmp  %s', 00H
$SG11937 DB	'jmp  %s', 00H
$SG11943 DB	'cmp  eax,%d', 00H
$SG11944 DB	'je  %s', 00H
	ORG $+1
$SG12246 DB	'%s:', 00H
$SG11945 DB	'cmp  eax,%d', 00H
$SG11946 DB	'je  %s', 00H
	ORG $+1
$SG11240 DB	'cmp', 00H
$SG11949 DB	'jmp  %s', 00H
$SG11950 DB	'jmp  %s', 00H
$SG11951 DB	'push rdx', 00H
	ORG $+3
$SG11955 DB	'je  %s', 00H
	ORG $+1
$SG12279 DB	'%s:', 00H
$SG11952 DB	'mov rdx, %q', 00H
$SG11258 DB	'or', 00H
	ORG $+1
$SG11953 DB	'cmp rax, rdx', 00H
	ORG $+3
$SG11954 DB	'pop rdx', 00H
$SG11956 DB	'push rdx', 00H
	ORG $+3
$SG11960 DB	'je  %s', 00H
	ORG $+1
$SG11259 DB	'cmp', 00H
$SG11957 DB	'mov rdx, %q', 00H
	ORG $+4
$SG11958 DB	'cmp rax, rdx', 00H
	ORG $+3
$SG11959 DB	'pop rdx', 00H
$SG11963 DB	'jmp  %s', 00H
$SG11964 DB	'jmp  %s', 00H
$SG11970 DB	'cmp  eax,%d', 00H
$SG11971 DB	'je  %s', 00H
	ORG $+5
$SG11972 DB	'cmp  eax,%d', 00H
$SG11973 DB	'je  %s', 00H
	ORG $+5
$SG11974 DB	'cmp  eax,%d', 00H
$SG11975 DB	'je  %s', 00H
	ORG $+5
$SG11978 DB	'jmp  %s', 00H
$SG11979 DB	'jmp  %s', 00H
$SG11980 DB	'push rdx', 00H
	ORG $+7
$SG11981 DB	'mov rdx, %q', 00H
	ORG $+4
$SG11982 DB	'cmp rax, rdx', 00H
	ORG $+3
$SG11983 DB	'pop rdx', 00H
$SG11984 DB	'je  %s', 00H
	ORG $+1
$SG11985 DB	'push rdx', 00H
	ORG $+7
$SG11986 DB	'mov rdx, %q', 00H
	ORG $+4
$SG11987 DB	'cmp rax, rdx', 00H
	ORG $+3
$SG11988 DB	'pop rdx', 00H
$SG11989 DB	'je  %s', 00H
	ORG $+1
$SG11990 DB	'push rdx', 00H
	ORG $+7
$SG11991 DB	'mov rdx, %q', 00H
	ORG $+4
$SG11992 DB	'cmp rax, rdx', 00H
	ORG $+3
$SG11993 DB	'pop rdx', 00H
$SG11994 DB	'je  %s', 00H
	ORG $+1
$SG11997 DB	'jmp  %s', 00H
$SG11998 DB	'jmp  %s', 00H
$SG12005 DB	'cmp eax,%d', 00H
	ORG $+1
$SG12006 DB	'jl  %s', 00H
	ORG $+5
$SG12007 DB	'cmp eax,%d', 00H
	ORG $+1
$SG12008 DB	'ja  %s', 00H
	ORG $+5
$SG12009 DB	'push', 09H, 'rax', 00H
	ORG $+7
$SG12010 DB	'push', 09H, 'rdx', 00H
	ORG $+7
$SG12011 DB	'mov rdx, %q', 00H
	ORG $+4
$SG12012 DB	'cmp rax, rdx', 00H
	ORG $+3
$SG12013 DB	'pop', 09H, 'rdx', 00H
$SG12014 DB	'pop', 09H, 'rax', 00H
$SG12015 DB	'jl  %s', 00H
	ORG $+1
$SG12016 DB	'mov rdx, %q', 00H
	ORG $+4
$SG12017 DB	'cmp rax, rdx', 00H
	ORG $+3
$SG12018 DB	'pop', 09H, 'rdx', 00H
$SG12019 DB	'pop', 09H, 'rax', 00H
$SG12020 DB	'ja  %s', 00H
	ORG $+1
$SG12023 DB	'push', 09H, ' eax', 00H
	ORG $+6
$SG12024 DB	'movzx eax,byte ptr %s[%r - %d]', 00H
	ORG $+1
$SG12025 DB	'mov   eax,%s[%r*4]', 00H
	ORG $+5
$SG12026 DB	'xchg', 09H, ' eax,[esp]', 00H
$SG12027 DB	'retn', 00H
	ORG $+3
$SG12030 DB	'push', 09H, 'rax', 00H
	ORG $+7
$SG12031 DB	'push', 09H, 'rdx', 00H
	ORG $+7
$SG12032 DB	'lea   rdx,%s', 00H
	ORG $+3
$SG12033 DB	'movzx edx,byte ptr[rdx+rax-%u]', 00H
	ORG $+1
$SG12034 DB	'lea   rax,%s', 00H
	ORG $+3
$SG12035 DB	'mov   rax, qword ptr[rax+rdx*8]', 00H
$SG12036 DB	'pop   rdx', 00H
	ORG $+6
$SG12037 DB	'xchg', 09H, ' rax,[rsp]', 00H
$SG12038 DB	'retn', 00H
	ORG $+3
$SG12039 DB	'push', 09H, 'rax', 00H
	ORG $+7
$SG12040 DB	'push', 09H, 'rdx', 00H
	ORG $+7
$SG12041 DB	'lea   rdx,%s', 00H
	ORG $+3
$SG12042 DB	'movzx rdx,byte ptr[rdx+rax-%q]', 00H
	ORG $+1
$SG12043 DB	'lea   rax,%s', 00H
	ORG $+3
$SG12044 DB	'mov   rax, qword ptr[rax+rdx*8]', 00H
$SG12045 DB	'pop   rdx', 00H
	ORG $+6
$SG12046 DB	'xchg', 09H, ' rax,[rsp]', 00H
$SG12047 DB	'retn', 00H
	ORG $+3
$SG12054 DB	'cmp eax,%d', 00H
	ORG $+1
$SG12055 DB	'jl  %s', 00H
	ORG $+1
$SG11031 DB	'ZERO', 00H
	ORG $+7
$SG12056 DB	'cmp eax,%d', 00H
	ORG $+1
$SG12057 DB	'ja  %s', 00H
	ORG $+5
$SG12058 DB	'push', 09H, 'rax', 00H
	ORG $+3
$SG11034 DB	'CARRY', 00H
	ORG $+6
$SG12059 DB	'push', 09H, 'rdx', 00H
	ORG $+7
$SG12060 DB	'mov rdx, %q', 00H
	ORG $+4
$SG12061 DB	'cmp rax, rdx', 00H
	ORG $+3
$SG11037 DB	'SIGN', 00H
	ORG $+3
$SG12062 DB	'pop', 09H, 'rdx', 00H
$SG12063 DB	'pop', 09H, 'rax', 00H
$SG12064 DB	'jl  %s', 00H
	ORG $+1
$SG11040 DB	'PARITY', 00H
	ORG $+1
$SG12065 DB	'push', 09H, 'rax', 00H
	ORG $+7
$SG12066 DB	'push', 09H, 'rdx', 00H
	ORG $+7
$SG12067 DB	'mov rdx, %q', 00H
	ORG $+4
$SG11043 DB	'OVERFLOW', 00H
	ORG $+7
$SG12068 DB	'cmp rax, rdx', 00H
	ORG $+3
$SG12069 DB	'pop', 09H, 'rdx', 00H
$SG12070 DB	'pop', 09H, 'rax', 00H
$SG11046 DB	'LESS', 00H
	ORG $+3
$SG12071 DB	'ja  %s', 00H
	ORG $+1
$SG11049 DB	'GREATER', 00H
$SG12074 DB	'push', 09H, ' eax', 00H
	ORG $+6
$SG12075 DB	'sub   eax,%u', 00H
	ORG $+3
$SG12076 DB	'movzx eax,word ptr %s[%r*2]', 00H
$SG11052 DB	'ABOVE', 00H
	ORG $+6
$SG12077 DB	'mov   eax,%s[%r*4]', 00H
	ORG $+5
$SG12078 DB	'xchg', 09H, ' eax,[esp]', 00H
$SG12079 DB	'retn', 00H
	ORG $+3
$SG11055 DB	'EQUAL', 00H
	ORG $+2
$SG12080 DB	'push', 09H, 'rax', 00H
	ORG $+7
$SG12081 DB	'push', 09H, 'rdx', 00H
	ORG $+3
$SG11058 DB	'BELOW', 00H
	ORG $+6
$SG12084 DB	'lea   rdx,%s', 00H
	ORG $+3
$SG12085 DB	'sub   eax,%u', 00H
	ORG $+3
$SG12086 DB	'movzx rdx,word ptr[rdx+rax*2]', 00H
	ORG $+2
$SG12087 DB	'lea   rax,%s', 00H
	ORG $+3
$SG12088 DB	'mov   rax, qword ptr[rax+rdx*8]', 00H
$SG12089 DB	'pop   rdx', 00H
	ORG $+6
$SG12090 DB	'xchg', 09H, ' rax,[rsp]', 00H
$SG12091 DB	'retn', 00H
	ORG $+3
$SG12092 DB	'lea   rdx,%s', 00H
	ORG $+3
$SG12093 DB	'sub   rax,%u', 00H
	ORG $+3
$SG12094 DB	'movzx rdx,word ptr[rdx+rax*2]', 00H
	ORG $+2
$SG12095 DB	'lea   rax,%s', 00H
	ORG $+3
$SG12096 DB	'mov   rax, qword ptr[rax+rdx*8]', 00H
$SG12097 DB	'pop   rdx', 00H
	ORG $+6
$SG12098 DB	'xchg', 09H, ' rax,[rsp]', 00H
$SG12099 DB	'retn', 00H
	ORG $+3
$SG12106 DB	'cmp eax,%d', 00H
	ORG $+1
$SG12107 DB	'jl  %s', 00H
	ORG $+5
$SG12108 DB	'cmp eax,%d', 00H
	ORG $+1
$SG12109 DB	'ja  %s', 00H
	ORG $+5
$SG12110 DB	'push', 09H, 'rax', 00H
	ORG $+7
$SG12111 DB	'push', 09H, 'rdx', 00H
	ORG $+7
$SG12112 DB	'mov rdx, %q', 00H
	ORG $+4
$SG12113 DB	'cmp rax, rdx', 00H
	ORG $+3
$SG12114 DB	'pop', 09H, 'rdx', 00H
$SG12115 DB	'pop', 09H, 'rax', 00H
$SG12116 DB	'jl  %s', 00H
	ORG $+1
$SG12117 DB	'push', 09H, 'rax', 00H
	ORG $+7
$SG12118 DB	'push', 09H, 'rdx', 00H
	ORG $+7
$SG12119 DB	'mov rdx, %q', 00H
	ORG $+4
$SG12120 DB	'cmp rax, rdx', 00H
	ORG $+3
$SG12121 DB	'pop', 09H, 'rdx', 00H
$SG12122 DB	'pop', 09H, 'rax', 00H
$SG12123 DB	'ja  %s', 00H
	ORG $+1
$SG12126 DB	'push', 09H, ' eax', 00H
	ORG $+6
$SG12127 DB	'sub eax,%d', 00H
	ORG $+5
$SG12128 DB	'mov   eax,%s[%r*4]', 00H
	ORG $+5
$SG12129 DB	'xchg', 09H, ' eax,[esp]', 00H
$SG12130 DB	'retn', 00H
	ORG $+3
$SG12131 DB	'push', 09H, 'rax', 00H
	ORG $+7
$SG12132 DB	'push', 09H, 'rdx', 00H
	ORG $+7
$SG12135 DB	'sub   eax,%d', 00H
	ORG $+3
$SG12136 DB	'mov rdx,%q', 00H
	ORG $+5
$SG12137 DB	'sub rax,rdx', 00H
	ORG $+4
$SG12138 DB	'lea   rdx,%s', 00H
	ORG $+3
$SG12139 DB	'mov   rax, qword ptr[rdx+rax*8]', 00H
$SG12140 DB	'pop   rdx', 00H
	ORG $+6
$SG12141 DB	'xchg', 09H, ' rax,[rsp]', 00H
$SG12142 DB	'retn', 00H
	ORG $+3
$SG12146 DB	'push', 09H, 'eax', 00H
	ORG $+7
$SG12147 DB	'push', 09H, 'edx', 00H
	ORG $+7
$SG12148 DB	'push', 09H, 'ecx', 00H
	ORG $+7
$SG12149 DB	'push', 09H, 'ebx', 00H
	ORG $+7
$SG12150 DB	'push', 09H, 'esi', 00H
	ORG $+7
$SG12151 DB	'push', 09H, 'edi', 00H
	ORG $+7
$SG12152 DB	'mov  esi,eax', 00H
	ORG $+3
$SG12153 DB	'mov  ebx,%d', 00H
	ORG $+4
$SG12154 DB	'xor  ecx,ecx', 00H
	ORG $+3
$SG12155 DB	'lea  edi,%s', 00H
$SG12158 DB	'js  %s', 00H
	ORG $+1
$SG11134 DB	', %d', 00H
	ORG $+3
$SG12159 DB	'js  %s', 00H
	ORG $+5
$SG12160 DB	'push', 09H, 'rax', 00H
	ORG $+7
$SG12161 DB	'push', 09H, 'rdx', 00H
	ORG $+7
$SG12162 DB	'push', 09H, 'rcx', 00H
	ORG $+7
$SG12163 DB	'push', 09H, 'rbx', 00H
	ORG $+7
$SG12164 DB	'push', 09H, 'rsi', 00H
	ORG $+7
$SG12165 DB	'push', 09H, 'rdi', 00H
	ORG $+3
$SG11141 DB	'@C%04X', 00H
	ORG $+5
$SG12168 DB	'mov  esi,eax', 00H
	ORG $+3
$SG12169 DB	'mov  ebx,%d', 00H
	ORG $+4
$SG12170 DB	'xor  ecx,ecx', 00H
	ORG $+3
$SG12171 DB	'lea  rdi,%s', 00H
	ORG $+4
$SG12172 DB	'mov  rsi,rax', 00H
	ORG $+3
$SG12173 DB	'mov  rbx,%q', 00H
	ORG $+4
$SG12174 DB	'xor  ecx,ecx', 00H
	ORG $+3
$SG12175 DB	'lea  rdi,%s', 00H
$SG12178 DB	'js  %s', 00H
	ORG $+1
$SG12179 DB	'js  %s', 00H
	ORG $+5
$SG12185 DB	'lea     eax,[ecx + ebx]', 00H
$SG12187 DB	'sub     eax,edx', 00H
$SG12188 DB	'sar     eax,1', 00H
	ORG $+2
$SG12189 DB	'cmp     [edi+eax*4],esi', 00H
$SG12190 DB	'je  %s', 00H
	ORG $+1
$SG12191 DB	'jge %s', 00H
	ORG $+1
$SG12192 DB	'lea     ecx,[eax+1]', 00H
$SG12193 DB	'jmp %s', 00H
	ORG $+5
$SG12196 DB	'lea     eax,[rcx + rbx]', 00H
$SG12198 DB	'sub     eax,edx', 00H
$SG12199 DB	'sar     rax,1', 00H
	ORG $+2
$SG12200 DB	'cmp     [rdi+rax*8],esi', 00H
$SG12201 DB	'je  %s', 00H
	ORG $+1
$SG12202 DB	'jge %s', 00H
	ORG $+1
$SG12203 DB	'lea     ecx,[rax+1]', 00H
$SG12204 DB	'jmp %s', 00H
	ORG $+5
$SG12205 DB	'lea     rax,[rcx + rbx]', 00H
$SG12207 DB	'sub     rax,rdx', 00H
$SG12208 DB	'sar     rax,1', 00H
	ORG $+2
$SG12209 DB	'cmp     [rdi+rax*8],rsi', 00H
$SG12210 DB	'je  %s', 00H
	ORG $+1
$SG12211 DB	'jge %s', 00H
	ORG $+1
$SG12212 DB	'lea     rcx,[rax+1]', 00H
$SG12213 DB	'jmp %s', 00H
	ORG $+5
$SG12219 DB	'pop', 09H, 'edi', 00H
$SG12220 DB	'pop', 09H, 'esi', 00H
$SG12221 DB	'pop', 09H, 'ebx', 00H
$SG12222 DB	'pop', 09H, 'ecx', 00H
$SG12223 DB	'pop', 09H, 'edx', 00H
$SG12224 DB	'mov  eax,%s[%r*4]', 00H
	ORG $+6
$SG12225 DB	'xchg', 09H, ' eax,[esp]', 00H
$SG12226 DB	'retn', 00H
	ORG $+3
$SG12227 DB	'pop', 09H, 'rdi', 00H
$SG12228 DB	'pop', 09H, 'rsi', 00H
$SG12229 DB	'pop', 09H, 'rbx', 00H
$SG12230 DB	'pop', 09H, 'rcx', 00H
$SG12231 DB	'lea   rdx,%s', 00H
	ORG $+3
$SG12232 DB	'mov   rax, qword ptr[rdx+rax*8]', 00H
$SG12233 DB	'pop   rdx', 00H
	ORG $+6
$SG12234 DB	'xchg', 09H, ' rax,[rsp]', 00H
$SG12235 DB	'retn', 00H
	ORG $+3
$SG12241 DB	'lea     ebx,[eax-1]', 00H
	ORG $+4
$SG12244 DB	'lea     ebx,[rax-1]', 00H
	ORG $+4
$SG12245 DB	'lea     rbx,[rax-1]', 00H
	ORG $+4
$SG12251 DB	'cmp  ecx,ebx', 00H
	ORG $+3
$SG12252 DB	'jle %s', 00H
	ORG $+1
$SG12253 DB	'pop', 09H, 'edi', 00H
$SG12254 DB	'pop', 09H, 'esi', 00H
$SG12255 DB	'pop', 09H, 'ebx', 00H
$SG12256 DB	'pop', 09H, 'ecx', 00H
$SG12257 DB	'pop', 09H, 'edx', 00H
$SG12258 DB	'pop', 09H, 'eax', 00H
$SG12261 DB	'jmp  %s', 00H
$SG12262 DB	'jmp  %s', 00H
$SG11238 DB	'test', 00H
	ORG $+3
$SG12265 DB	'cmp  ecx,ebx', 00H
	ORG $+3
$SG12266 DB	'cmp  rcx,rbx', 00H
	ORG $+3
$SG12267 DB	'jle  %s', 00H
$SG12268 DB	'pop', 09H, 'rdi', 00H
$SG12269 DB	'pop', 09H, 'rsi', 00H
$SG12270 DB	'pop', 09H, 'rbx', 00H
$SG12271 DB	'pop', 09H, 'rcx', 00H
$SG11247 DB	'jmp @C%04X', 0aH, 00H
	ORG $+4
$SG12272 DB	'pop', 09H, 'rdx', 00H
$SG12273 DB	'pop', 09H, 'rax', 00H
$SG12276 DB	'jmp  %s', 00H
$SG11252 DB	'test', 00H
	ORG $+3
$SG12277 DB	'jmp  %s', 00H
$SG12278 DB	'ALIGN %d', 00H
	ORG $+3
$SG12285 DB	' dd %s', 00H
_DATA	ENDS
PUBLIC	__local_stdio_printf_options
PUBLIC	sprintf
PUBLIC	HllInit
PUBLIC	HllCheckOpen
PUBLIC	hex2dec
PUBLIC	HllStartDir
PUBLIC	HllEndDir
PUBLIC	HllExitDir
EXTRN	tolower:PROC
EXTRN	strchr:PROC
EXTRN	strstr:PROC
EXTRN	_memicmp:PROC
EXTRN	_stricmp:PROC
EXTRN	__stdio_common_vsprintf:PROC
EXTRN	EmitError:PROC
EXTRN	EmitErr:PROC
EXTRN	LclAlloc:PROC
EXTRN	EvalOperand:PROC
EXTRN	EmitConstError:PROC
EXTRN	GetCurrOffset:PROC
EXTRN	LstWrite:PROC
EXTRN	AddLineQueue:PROC
EXTRN	AddLineQueueX:PROC
EXTRN	RunLineQueue:PROC
EXTRN	Tokenize:PROC
EXTRN	atofloat:PROC
EXTRN	__chkstk:PROC
EXTRN	memcpy:PROC
EXTRN	Options:BYTE
EXTRN	ModuleInfo:BYTE
EXTRN	Parse_Pass:DWORD
EXTRN	__ImageBase:BYTE
_DATA	SEGMENT
COMM	?_OptionsStorage@?1??__local_stdio_printf_options@@9@9:QWORD							; `__local_stdio_printf_options'::`2'::_OptionsStorage
_DATA	ENDS
;	COMDAT pdata
pdata	SEGMENT
$pdata$_vsnprintf_l DD imagerel $LN4
	DD	imagerel $LN4+102
	DD	imagerel $unwind$_vsnprintf_l
pdata	ENDS
;	COMDAT pdata
pdata	SEGMENT
$pdata$_vsprintf_l DD imagerel $LN6
	DD	imagerel $LN6+98
	DD	imagerel $unwind$_vsprintf_l
pdata	ENDS
;	COMDAT pdata
pdata	SEGMENT
$pdata$sprintf DD imagerel $LN8
	DD	imagerel $LN8+90
	DD	imagerel $unwind$sprintf
pdata	ENDS
;	COMDAT pdata
pdata	SEGMENT
$pdata$GetExpression DD imagerel GetExpression
	DD	imagerel GetExpression+769
	DD	imagerel $unwind$GetExpression
pdata	ENDS
;	COMDAT pdata
pdata	SEGMENT
$pdata$GetCOp DD imagerel GetCOp
	DD	imagerel GetCOp+658
	DD	imagerel $unwind$GetCOp
pdata	ENDS
;	COMDAT pdata
pdata	SEGMENT
$pdata$bubblesort DD imagerel bubblesort
	DD	imagerel bubblesort+29
	DD	imagerel $unwind$bubblesort
pdata	ENDS
;	COMDAT pdata
pdata	SEGMENT
$pdata$1$bubblesort DD imagerel bubblesort+29
	DD	imagerel bubblesort+137
	DD	imagerel $chain$1$bubblesort
pdata	ENDS
;	COMDAT pdata
pdata	SEGMENT
$pdata$2$bubblesort DD imagerel bubblesort+137
	DD	imagerel bubblesort+169
	DD	imagerel $chain$2$bubblesort
pdata	ENDS
;	COMDAT pdata
pdata	SEGMENT
$pdata$bubblesort64 DD imagerel bubblesort64
	DD	imagerel bubblesort64+29
	DD	imagerel $unwind$bubblesort64
pdata	ENDS
;	COMDAT pdata
pdata	SEGMENT
$pdata$1$bubblesort64 DD imagerel bubblesort64+29
	DD	imagerel bubblesort64+140
	DD	imagerel $chain$1$bubblesort64
pdata	ENDS
;	COMDAT pdata
pdata	SEGMENT
$pdata$2$bubblesort64 DD imagerel bubblesort64+140
	DD	imagerel bubblesort64+185
	DD	imagerel $chain$2$bubblesort64
pdata	ENDS
;	COMDAT pdata
pdata	SEGMENT
$pdata$RenderInstr DD imagerel RenderInstr
	DD	imagerel RenderInstr+240
	DD	imagerel $unwind$RenderInstr
pdata	ENDS
;	COMDAT pdata
pdata	SEGMENT
$pdata$GetLabelStr DD imagerel GetLabelStr
	DD	imagerel GetLabelStr+36
	DD	imagerel $unwind$GetLabelStr
pdata	ENDS
;	COMDAT pdata
pdata	SEGMENT
$pdata$RenderJcc DD imagerel RenderJcc
	DD	imagerel RenderJcc+96
	DD	imagerel $unwind$RenderJcc
pdata	ENDS
;	COMDAT pdata
pdata	SEGMENT
$pdata$GetToken DD imagerel GetToken
	DD	imagerel GetToken+38
	DD	imagerel $unwind$GetToken
pdata	ENDS
;	COMDAT pdata
pdata	SEGMENT
$pdata$2$GetToken DD imagerel GetToken+38
	DD	imagerel GetToken+520
	DD	imagerel $chain$2$GetToken
pdata	ENDS
;	COMDAT pdata
pdata	SEGMENT
$pdata$3$GetToken DD imagerel GetToken+520
	DD	imagerel GetToken+622
	DD	imagerel $chain$3$GetToken
pdata	ENDS
;	COMDAT pdata
pdata	SEGMENT
$pdata$GetSimpleExpression DD imagerel GetSimpleExpression
	DD	imagerel GetSimpleExpression+1376
	DD	imagerel $unwind$GetSimpleExpression
pdata	ENDS
;	COMDAT pdata
pdata	SEGMENT
$pdata$ReplaceLabel DD imagerel ReplaceLabel
	DD	imagerel ReplaceLabel+161
	DD	imagerel $unwind$ReplaceLabel
pdata	ENDS
;	COMDAT pdata
pdata	SEGMENT
$pdata$GetAndExpression DD imagerel GetAndExpression
	DD	imagerel GetAndExpression+564
	DD	imagerel $unwind$GetAndExpression
pdata	ENDS
;	COMDAT pdata
pdata	SEGMENT
$pdata$QueueTestLines DD imagerel QueueTestLines
	DD	imagerel QueueTestLines+14
	DD	imagerel $unwind$QueueTestLines
pdata	ENDS
;	COMDAT pdata
pdata	SEGMENT
$pdata$0$QueueTestLines DD imagerel QueueTestLines+14
	DD	imagerel QueueTestLines+85
	DD	imagerel $chain$0$QueueTestLines
pdata	ENDS
;	COMDAT pdata
pdata	SEGMENT
$pdata$1$QueueTestLines DD imagerel QueueTestLines+85
	DD	imagerel QueueTestLines+93
	DD	imagerel $chain$1$QueueTestLines
pdata	ENDS
;	COMDAT pdata
pdata	SEGMENT
$pdata$EvaluateHllExpression DD imagerel EvaluateHllExpression
	DD	imagerel EvaluateHllExpression+138
	DD	imagerel $unwind$EvaluateHllExpression
pdata	ENDS
;	COMDAT pdata
pdata	SEGMENT
$pdata$CheckCXZLines DD imagerel CheckCXZLines
	DD	imagerel CheckCXZLines+274
	DD	imagerel $unwind$CheckCXZLines
pdata	ENDS
;	COMDAT pdata
pdata	SEGMENT
$pdata$WriteAsmLine DD imagerel WriteAsmLine
	DD	imagerel WriteAsmLine+226
	DD	imagerel $unwind$WriteAsmLine
pdata	ENDS
;	COMDAT pdata
pdata	SEGMENT
$pdata$ForInitAndNext DD imagerel ForInitAndNext
	DD	imagerel ForInitAndNext+8208
	DD	imagerel $unwind$ForInitAndNext
pdata	ENDS
pdata	SEGMENT
$pdata$HllStartDir DD imagerel $LN302
	DD	imagerel $LN302+771
	DD	imagerel $unwind$HllStartDir
$pdata$1$HllStartDir DD imagerel $LN302+771
	DD	imagerel $LN302+941
	DD	imagerel $chain$1$HllStartDir
$pdata$2$HllStartDir DD imagerel $LN302+941
	DD	imagerel $LN302+3034
	DD	imagerel $chain$2$HllStartDir
$pdata$HllEndDir DD imagerel $LN603
	DD	imagerel $LN603+130
	DD	imagerel $unwind$HllEndDir
$pdata$0$HllEndDir DD imagerel $LN603+130
	DD	imagerel $LN603+6337
	DD	imagerel $chain$0$HllEndDir
$pdata$1$HllEndDir DD imagerel $LN603+6337
	DD	imagerel $LN603+8366
	DD	imagerel $chain$1$HllEndDir
$pdata$2$HllEndDir DD imagerel $LN603+8366
	DD	imagerel $LN603+9656
	DD	imagerel $chain$2$HllEndDir
$pdata$3$HllEndDir DD imagerel $LN603+9656
	DD	imagerel $LN603+9692
	DD	imagerel $chain$3$HllEndDir
$pdata$HllExitDir DD imagerel $LN204
	DD	imagerel $LN204+81
	DD	imagerel $unwind$HllExitDir
$pdata$2$HllExitDir DD imagerel $LN204+81
	DD	imagerel $LN204+2116
	DD	imagerel $chain$2$HllExitDir
$pdata$3$HllExitDir DD imagerel $LN204+2116
	DD	imagerel $LN204+2164
	DD	imagerel $chain$3$HllExitDir
pdata	ENDS
_DATA	SEGMENT
	ORG $+5
reax	DQ	FLAT:$SG11421
	DQ	FLAT:$SG11422
	DQ	FLAT:$SG11423
redx	DQ	FLAT:$SG11425
	DQ	FLAT:$SG11426
	DQ	FLAT:$SG11427
recx	DQ	FLAT:$SG11429
	DQ	FLAT:$SG11430
	DQ	FLAT:$SG11431
_DATA	ENDS
CONST	SEGMENT
flaginstr DB	07aH
	DB	063H
	DB	073H
	DB	070H
	DB	06fH
	DB	06cH
	DB	067H
	DB	061H
	DB	065H
	DB	062H
	ORG $+2
unsigned_cjmptype DB 07aH
	DB	07aH
	DB	061H
	DB	062H
	DB	062H
	DB	061H
	ORG $+2
signed_cjmptype DB 07aH
	DB	07aH
	DB	067H
	DB	06cH
	DB	06cH
	DB	067H
	ORG $+2
neg_cjmptype DB	00H
	DB	01H
	DB	00H
	DB	00H
	DB	01H
	DB	01H
CONST	ENDS
xdata	SEGMENT
$unwind$HllStartDir DD 0b6301H
	DD	03a16463H
	DD	03a33426H
	DD	039a0126H
	DD	0d00ff011H
	DD	0700bc00dH
	DD	0500aH
$chain$1$HllStartDir DD 020821H
	DD	03a2e408H
	DD	imagerel $LN302
	DD	imagerel $LN302+771
	DD	imagerel $unwind$HllStartDir
$chain$2$HllStartDir DD 021H
	DD	imagerel $LN302
	DD	imagerel $LN302+771
	DD	imagerel $unwind$HllStartDir
$unwind$HllEndDir DD 082001H
	DD	01110120H
	DD	0c00ff011H
	DD	0600c700dH
	DD	0500a300bH
$chain$0$HllEndDir DD 020821H
	DD	010fe408H
	DD	imagerel $LN603
	DD	imagerel $LN603+130
	DD	imagerel $unwind$HllEndDir
$chain$1$HllEndDir DD 020821H
	DD	0110d408H
	DD	imagerel $LN603+130
	DD	imagerel $LN603+6337
	DD	imagerel $chain$0$HllEndDir
$chain$2$HllEndDir DD 021H
	DD	imagerel $LN603+130
	DD	imagerel $LN603+6337
	DD	imagerel $chain$0$HllEndDir
$chain$3$HllEndDir DD 021H
	DD	imagerel $LN603
	DD	imagerel $LN603+130
	DD	imagerel $unwind$HllEndDir
$unwind$HllExitDir DD 071a01H
	DD	09a011aH
	DD	0c009e00bH
	DD	030067007H
	DD	05005H
$chain$2$HllExitDir DD 062421H
	DD	0a3f424H
	DD	0a2d416H
	DD	0a16408H
	DD	imagerel $LN204
	DD	imagerel $LN204+81
	DD	imagerel $unwind$HllExitDir
$chain$3$HllExitDir DD 021H
	DD	imagerel $LN204
	DD	imagerel $LN204+81
	DD	imagerel $unwind$HllExitDir
xdata	ENDS
;	COMDAT xdata
xdata	SEGMENT
$unwind$ForInitAndNext DD 0b2901H
	DD	08f3429H
	DD	0840129H
	DD	0e018f01aH
	DD	0c014d016H
	DD	060117012H
	DD	05010H
xdata	ENDS
;	COMDAT xdata
xdata	SEGMENT
$unwind$WriteAsmLine DD 020701H
	DD	0250107H
xdata	ENDS
;	COMDAT xdata
xdata	SEGMENT
$unwind$CheckCXZLines DD 060f01H
	DD	07640fH
	DD	06340fH
	DD	0700b320fH
xdata	ENDS
;	COMDAT xdata
xdata	SEGMENT
$unwind$EvaluateHllExpression DD 040a01H
	DD	0c340aH
	DD	07006920aH
xdata	ENDS
;	COMDAT xdata
xdata	SEGMENT
$chain$1$QueueTestLines DD 021H
	DD	imagerel QueueTestLines
	DD	imagerel QueueTestLines+14
	DD	imagerel $unwind$QueueTestLines
xdata	ENDS
;	COMDAT xdata
xdata	SEGMENT
$chain$0$QueueTestLines DD 020521H
	DD	067405H
	DD	imagerel QueueTestLines
	DD	imagerel QueueTestLines+14
	DD	imagerel $unwind$QueueTestLines
xdata	ENDS
;	COMDAT xdata
xdata	SEGMENT
$unwind$QueueTestLines DD 020601H
	DD	030023206H
xdata	ENDS
;	COMDAT xdata
xdata	SEGMENT
$unwind$GetAndExpression DD 0a1e01H
	DD	011341eH
	DD	0f01a721eH
	DD	0d016e018H
	DD	07012c014H
	DD	050106011H
xdata	ENDS
;	COMDAT xdata
xdata	SEGMENT
$unwind$ReplaceLabel DD 040a01H
	DD	0a340aH
	DD	07006720aH
xdata	ENDS
;	COMDAT xdata
xdata	SEGMENT
$unwind$GetSimpleExpression DD 0b9001H
	DD	02ee490H
	DD	024011bH
	DD	0d012f014H
	DD	0700ec010H
	DD	0500c600dH
	DD	0300bH
xdata	ENDS
;	COMDAT xdata
xdata	SEGMENT
$chain$3$GetToken DD 021H
	DD	imagerel GetToken
	DD	imagerel GetToken+38
	DD	imagerel $unwind$GetToken
xdata	ENDS
;	COMDAT xdata
xdata	SEGMENT
$chain$2$GetToken DD 061621H
	DD	0cc416H
	DD	0b640aH
	DD	0a3405H
	DD	imagerel GetToken
	DD	imagerel GetToken+38
	DD	imagerel $unwind$GetToken
xdata	ENDS
;	COMDAT xdata
xdata	SEGMENT
$unwind$GetToken DD 060e01H
	DD	0d540eH
	DD	0f00a520eH
	DD	07006e008H
xdata	ENDS
;	COMDAT xdata
xdata	SEGMENT
$unwind$RenderJcc DD 020601H
	DD	030023206H
xdata	ENDS
;	COMDAT xdata
xdata	SEGMENT
$unwind$GetLabelStr DD 020601H
	DD	030023206H
xdata	ENDS
;	COMDAT xdata
xdata	SEGMENT
$unwind$RenderInstr DD 081401H
	DD	086414H
	DD	075414H
	DD	063414H
	DD	070103214H
xdata	ENDS
;	COMDAT xdata
xdata	SEGMENT
$chain$2$bubblesort64 DD 021H
	DD	imagerel bubblesort64
	DD	imagerel bubblesort64+29
	DD	imagerel $unwind$bubblesort64
xdata	ENDS
;	COMDAT xdata
xdata	SEGMENT
$chain$1$bubblesort64 DD 040d21H
	DD	03640dH
	DD	023405H
	DD	imagerel bubblesort64
	DD	imagerel bubblesort64+29
	DD	imagerel $unwind$bubblesort64
xdata	ENDS
;	COMDAT xdata
xdata	SEGMENT
$unwind$bubblesort64 DD 050c01H
	DD	05740cH
	DD	04540cH
	DD	0e00cH
xdata	ENDS
;	COMDAT xdata
xdata	SEGMENT
$chain$2$bubblesort DD 021H
	DD	imagerel bubblesort
	DD	imagerel bubblesort+29
	DD	imagerel $unwind$bubblesort
xdata	ENDS
;	COMDAT xdata
xdata	SEGMENT
$chain$1$bubblesort DD 040d21H
	DD	03640dH
	DD	023405H
	DD	imagerel bubblesort
	DD	imagerel bubblesort+29
	DD	imagerel $unwind$bubblesort
xdata	ENDS
;	COMDAT xdata
xdata	SEGMENT
$unwind$bubblesort DD 050c01H
	DD	05740cH
	DD	04540cH
	DD	0e00cH
xdata	ENDS
;	COMDAT xdata
xdata	SEGMENT
$unwind$GetCOp DD 020601H
	DD	030023206H
xdata	ENDS
;	COMDAT xdata
xdata	SEGMENT
$unwind$GetExpression DD 0a1e01H
	DD	012341eH
	DD	0f01a921eH
	DD	0d016e018H
	DD	07012c014H
	DD	050106011H
xdata	ENDS
;	COMDAT xdata
xdata	SEGMENT
$unwind$sprintf DD 041601H
	DD	070125216H
	DD	030106011H
xdata	ENDS
;	COMDAT xdata
xdata	SEGMENT
$unwind$_vsprintf_l DD 081401H
	DD	0a6414H
	DD	095414H
	DD	083414H
	DD	070105214H
xdata	ENDS
;	COMDAT xdata
xdata	SEGMENT
$unwind$_vsnprintf_l DD 081401H
	DD	0a6414H
	DD	095414H
	DD	083414H
	DD	070105214H
xdata	ENDS
; Function compile flags: /Ogtpy
; File d:\hjwasm\hjwasm2.13.1s\hjwasm2.13.1s\hll.c
_TEXT	SEGMENT
buff$ = 64
hllop$1 = 80
hllop$2 = 80
opndx$ = 96
buffer$ = 208
i$ = 1280
tokenarray$ = 1288
HllExitDir PROC

; 2489 : {

$LN204:
	mov	DWORD PTR [rsp+8], ecx
	push	rbp
	push	rbx
	push	rdi
	push	r12
	push	r14
	lea	rbp, QWORD PTR [rsp-976]
	sub	rsp, 1232				; 000004d0H

; 2490 :   struct expr         opndx;
; 2491 :   struct hll_item     *hll;
; 2492 :   ret_code            rc = NOT_ERROR;
; 2493 :   int                 j;
; 2494 :   int                 idx;
; 2495 :   int                 cmd = tokenarray[i].tokval;
; 2496 :   int                 *newcp;
; 2497 :   uint_16             *newlp;
; 2498 :   char buff[16];
; 2499 :   char                *p;
; 2500 :   char buffer[MAX_LINE_LEN];
; 2501 : #if AMD64_SUPPORT
; 2502 :   int_64              *newcp64;
; 2503 : #endif
; 2504 : 
; 2505 : 
; 2506 :   DebugMsg1(("HllExitDir(%s) enter\n", tokenarray[i].string_ptr));
; 2507 : 
; 2508 :   hll = HllStack;

	mov	rbx, QWORD PTR ModuleInfo+224
	mov	r12, rdx
	movsxd	rdx, ecx
	xor	r14d, r14d
	shl	rdx, 5
	mov	edi, DWORD PTR [rdx+r12+16]

; 2509 : 
; 2510 :   if (hll == NULL) {

	test	rbx, rbx
	jne	SHORT $LN18@HllExitDir

; 2511 :     DebugMsg(("HllExitDir stack error\n"));
; 2512 :     return(EmitError(DIRECTIVE_MUST_BE_IN_CONTROL_BLOCK));

	mov	ecx, 245				; 000000f5H
	call	EmitError

; 2742 : }

	add	rsp, 1232				; 000004d0H
	pop	r14
	pop	r12
	pop	rdi
	pop	rbx
	pop	rbp
	ret	0
$LN18@HllExitDir:
	mov	QWORD PTR [rsp+1288], rsi

; 2513 :   }
; 2514 :   switch (cmd) {

	lea	eax, DWORD PTR [rdi-332]
	mov	QWORD PTR [rsp+1296], r13
	mov	r13d, 4
	mov	QWORD PTR [rsp+1304], r15
	cmp	eax, 11
	ja	$LN67@HllExitDir
	lea	r8, OFFSET FLAT:__ImageBase
	cdqe
	mov	ecx, DWORD PTR $LN186@HllExitDir[r8+rax*4]
	add	rcx, r8
	jmp	rcx
$LN19@HllExitDir:

; 2515 :   case T_DOT_DEFAULT:
; 2516 :     if (hll->flags & HLLF_DEFAULTOCCURED) {

	test	BYTE PTR [rbx+76], 2
	jne	$LN202@HllExitDir

; 2517 :       DebugMsg(("HllExitDir stack error\n"));
; 2518 :       return(EmitError(DIRECTIVE_MUST_BE_IN_CONTROL_BLOCK));
; 2519 :     }
; 2520 :     if (ModuleInfo.switch_style == ASMSWITCH) {

	test	DWORD PTR ModuleInfo+408, 524288	; 00080000H
	jne	SHORT $LN22@HllExitDir

; 2521 :       if (hll->casecnt) {

	cmp	DWORD PTR [rbx+80], r14d
	je	SHORT $LN22@HllExitDir

; 2522 :         if (hll->labels[LEXIT] == 0)

	cmp	DWORD PTR [rbx+12], r14d
	jne	SHORT $LN23@HllExitDir

; 2523 :           hll->labels[LEXIT] = GetHllLabel();

	mov	eax, DWORD PTR ModuleInfo+352
	inc	eax
	mov	DWORD PTR ModuleInfo+352, eax
	mov	DWORD PTR [rbx+12], eax
$LN23@HllExitDir:

; 2524 :         AddLineQueueX("jmp %s", GetLabelStr(hll->labels[LEXIT], buff));

	mov	r8d, DWORD PTR [rbx+12]
	lea	rdx, OFFSET FLAT:$SG11141
	lea	rcx, QWORD PTR buff$[rsp]
	call	sprintf
	lea	rdx, QWORD PTR buff$[rsp]
	lea	rcx, OFFSET FLAT:$SG12440
	call	AddLineQueueX

; 2525 :         hll->breakoccured = TRUE;

	mov	BYTE PTR [rbx+122], 1
$LN22@HllExitDir:

; 2526 :       }
; 2527 :     }
; 2528 :     if (hll->labels[LDEF] == 0)

	cmp	DWORD PTR [rbx+28], r14d
	jne	SHORT $LN24@HllExitDir

; 2529 :       hll->labels[LDEF] = GetHllLabel();

	mov	eax, DWORD PTR ModuleInfo+352
	inc	eax
	mov	DWORD PTR ModuleInfo+352, eax
	mov	DWORD PTR [rbx+28], eax
$LN24@HllExitDir:

; 2530 :     AddLineQueueX("%s" LABELQUAL, GetLabelStr(hll->labels[LDEF], buff));

	mov	r8d, DWORD PTR [rbx+28]
	lea	rdx, OFFSET FLAT:$SG11141
	lea	rcx, QWORD PTR buff$[rsp]
	call	sprintf
	lea	rdx, QWORD PTR buff$[rsp]
	lea	rcx, OFFSET FLAT:$SG12442
	call	AddLineQueueX

; 2531 :     hll->flags |= HLLF_DEFAULTOCCURED;

	or	DWORD PTR [rbx+76], 2

; 2532 :     i++;

	inc	DWORD PTR i$[rbp-256]

; 2533 :     break;

	jmp	$LN67@HllExitDir
$LN25@HllExitDir:

; 2534 :   case T_DOT_CASE:
; 2535 :     if (hll->cmd != HLL_SWITCH) {

	cmp	DWORD PTR [rbx+68], 5
	jne	$LN202@HllExitDir

; 2536 :       DebugMsg(("HllExitDir stack error\n"));
; 2537 :       return(EmitError(DIRECTIVE_MUST_BE_IN_CONTROL_BLOCK));
; 2538 :     }
; 2539 :     if (ModuleInfo.switch_style == ASMSWITCH) {

	test	DWORD PTR ModuleInfo+408, 524288	; 00080000H
	jne	SHORT $LN177@HllExitDir

; 2540 :       if (hll->casecnt) {

	cmp	DWORD PTR [rbx+80], r14d
	je	SHORT $LN177@HllExitDir

; 2541 :         if (hll->labels[LEXIT] == 0)

	cmp	DWORD PTR [rbx+12], r14d
	jne	SHORT $LN29@HllExitDir

; 2542 :           hll->labels[LEXIT] = GetHllLabel();

	mov	eax, DWORD PTR ModuleInfo+352
	inc	eax
	mov	DWORD PTR ModuleInfo+352, eax
	mov	DWORD PTR [rbx+12], eax
$LN29@HllExitDir:

; 2543 :         AddLineQueueX("jmp %s", GetLabelStr(hll->labels[LEXIT], buff));

	mov	r8d, DWORD PTR [rbx+12]
	lea	rdx, OFFSET FLAT:$SG11141
	lea	rcx, QWORD PTR buff$[rsp]
	call	sprintf
	lea	rdx, QWORD PTR buff$[rsp]
	lea	rcx, OFFSET FLAT:$SG12448
	call	AddLineQueueX

; 2544 :         hll->breakoccured = TRUE;

	mov	BYTE PTR [rbx+122], 1
$LN177@HllExitDir:
	mov	r15d, 8
$LL4@HllExitDir:

; 2545 :       }
; 2546 :     }
; 2547 :     for (;;) {
; 2548 :       if (hll->breakoccured) {

	cmp	BYTE PTR [rbx+122], r14b
	je	SHORT $LN30@HllExitDir

; 2549 :         hll->labels[LTEST] = GetHllLabel();

	mov	eax, DWORD PTR ModuleInfo+352

; 2550 :         hll->breakoccured = FALSE;  // if .break did not occure label will not be increased
; 2551 :         AddLineQueueX("%s" LABELQUAL, GetLabelStr(hll->labels[LTEST], buff));

	lea	rdx, OFFSET FLAT:$SG11141
	inc	eax
	lea	rcx, QWORD PTR buff$[rsp]
	mov	DWORD PTR ModuleInfo+352, eax
	mov	r8d, eax
	mov	DWORD PTR [rbx+8], eax
	mov	BYTE PTR [rbx+122], r14b
	call	sprintf
	lea	rdx, QWORD PTR buff$[rsp]
	lea	rcx, OFFSET FLAT:$SG12450
	call	AddLineQueueX

; 2552 :         hll->savedlab = hex2dec(buff + 2);

	lea	rcx, QWORD PTR buff$[rsp+2]
	call	hex2dec
	mov	WORD PTR [rbx+120], ax
$LN30@HllExitDir:

; 2553 :       }
; 2554 :       i++;

	mov	ecx, DWORD PTR i$[rbp-256]
	inc	ecx

; 2555 :       if (tokenarray[i].token != T_FINAL) {

	movsxd	rax, ecx
	shl	rax, 5
	mov	DWORD PTR i$[rbp-256], ecx
	cmp	BYTE PTR [rax+r12], r14b
	je	$LN31@HllExitDir

; 2556 :         strcpy(buffer, tokenarray[i].tokpos);

	mov	rcx, QWORD PTR [rax+r12+24]
	lea	rdx, QWORD PTR buffer$[rbp-256]
	npad	10
$LL74@HllExitDir:
	movzx	eax, BYTE PTR [rcx]
	lea	rcx, QWORD PTR [rcx+1]
	mov	BYTE PTR [rdx], al
	lea	rdx, QWORD PTR [rdx+1]
	test	al, al
	jne	SHORT $LL74@HllExitDir

; 2557 :         DebugMsg1(("HllExitDir(%s): calling EvalOperand, i=%u\n", tokenarray[i].string_ptr, i));
; 2558 :         if (EvalOperand(&i, tokenarray, Token_Count, &opndx, 0) == ERROR) {

	mov	r8d, DWORD PTR ModuleInfo+496
	lea	r9, QWORD PTR opndx$[rsp]
	mov	rdx, r12
	mov	BYTE PTR [rsp+32], r14b
	lea	rcx, QWORD PTR i$[rbp-256]
	call	EvalOperand
	cmp	eax, -1
	je	$LN134@HllExitDir

; 2561 :         }
; 2562 :         p = tokenarray[i].tokpos;
; 2563 :         switch (opndx.kind) {

	cmp	DWORD PTR opndx$[rbp-196], 3
	jne	SHORT $LN36@HllExitDir

; 2564 :         case EXPR_CONST:
; 2565 :           break;
; 2566 :         case EXPR_FLOAT:
; 2567 : #if FPIMMEDIATE
; 2568 :           if (Options.strict_masm_compat == FALSE) {

	cmp	BYTE PTR Options+127, r14b
	jne	SHORT $LN36@HllExitDir

; 2569 :             /* convert to REAL4, unless REAL8 coercion is requested */
; 2570 :             atofloat(&opndx.fvalue, opndx.float_tok->string_ptr, opndx.mem_type == MT_REAL8 ? 8 : 4, opndx.negative, opndx.float_tok->floattype);

	mov	rdx, QWORD PTR opndx$[rsp+16]
	lea	rcx, QWORD PTR opndx$[rsp]
	mov	r9d, DWORD PTR opndx$[rbp-184]
	mov	r8d, r13d
	shr	r9d, 5
	and	r9d, 1
	movsx	eax, BYTE PTR [rdx+1]
	cmp	DWORD PTR opndx$[rbp-192], 39		; 00000027H
	mov	rdx, QWORD PTR [rdx+8]
	cmove	r8d, r15d
	mov	DWORD PTR [rsp+32], eax
	call	atofloat
$LN36@HllExitDir:

; 2579 :       }
; 2580 :       if (hll->csize == 4) {

	movzx	eax, BYTE PTR [rbx+84]
	cmp	al, r13b
	jne	SHORT $LN37@HllExitDir

; 2581 :         if (!hll->maxalloccasen) {

	cmp	DWORD PTR [rbx+100], r14d
	jne	SHORT $LN39@HllExitDir

; 2582 :           hll->pcases = LclAlloc(hll->csize * 50);

	mov	ecx, 200				; 000000c8H
	call	LclAlloc

; 2583 :           hll->plabels = LclAlloc(sizeof(uint_16) * 50);

	mov	ecx, 100				; 00000064H
	mov	QWORD PTR [rbx+104], rax
	call	LclAlloc
	mov	QWORD PTR [rbx+112], rax

; 2584 :           hll->maxalloccasen = 50;

	mov	DWORD PTR [rbx+100], 50			; 00000032H
$LN39@HllExitDir:

; 2585 :         }
; 2586 :         if (hll->casecnt >= hll->maxalloccasen) {

	mov	ecx, DWORD PTR [rbx+100]
	cmp	DWORD PTR [rbx+80], ecx
	jb	$LN42@HllExitDir

; 2587 :           hll->maxalloccasen += 50;
; 2588 :           newcp = LclAlloc(hll->csize * hll->maxalloccasen);

	movsx	eax, BYTE PTR [rbx+84]
	add	ecx, 50					; 00000032H
	imul	eax, ecx
	mov	DWORD PTR [rbx+100], ecx
	movsxd	rcx, eax
	call	LclAlloc

; 2589 :           memcpy(newcp, hll->pcases, hll->casecnt * hll->csize);

	movsx	r8d, BYTE PTR [rbx+84]
	mov	rcx, rax
	imul	r8d, DWORD PTR [rbx+80]
	mov	rdi, rax
	mov	rdx, QWORD PTR [rbx+104]
	call	memcpy

; 2590 :           LclFree(hll->pcases);
; 2591 :           hll->pcases = newcp;

	mov	QWORD PTR [rbx+104], rdi

; 2592 : 
; 2593 :           newlp = LclAlloc(sizeof(uint_16) * hll->maxalloccasen);
; 2594 :           memcpy(newlp, hll->plabels, hll->casecnt * sizeof(uint_16));
; 2595 :           LclFree(hll->plabels);
; 2596 :           hll->plabels = newlp;
; 2597 :         }
; 2598 :       }

	jmp	SHORT $LN201@HllExitDir
$LN37@HllExitDir:

; 2599 : #if AMD64_SUPPORT
; 2600 :       else {
; 2601 :         if (!hll->maxalloccasen) {

	cmp	DWORD PTR [rbx+100], r14d
	jne	SHORT $LN41@HllExitDir

; 2602 :           hll->pcases64 = LclAlloc(hll->csize * 50);

	movsx	eax, al
	imul	ecx, eax, 50				; 00000032H
	movsxd	rcx, ecx
	call	LclAlloc

; 2603 :           hll->plabels = LclAlloc(sizeof(uint_16) * 50);

	mov	ecx, 100				; 00000064H
	mov	QWORD PTR [rbx+152], rax
	call	LclAlloc
	mov	QWORD PTR [rbx+112], rax

; 2604 :           hll->maxalloccasen = 50;

	mov	DWORD PTR [rbx+100], 50			; 00000032H
$LN41@HllExitDir:

; 2605 :         }
; 2606 :         if (hll->casecnt >= hll->maxalloccasen) {

	mov	ecx, DWORD PTR [rbx+100]
	cmp	DWORD PTR [rbx+80], ecx
	jb	SHORT $LN42@HllExitDir

; 2607 :           hll->maxalloccasen += 50;
; 2608 :           newcp64 = LclAlloc(hll->csize * hll->maxalloccasen);

	movsx	eax, BYTE PTR [rbx+84]
	add	ecx, 50					; 00000032H
	imul	eax, ecx
	mov	DWORD PTR [rbx+100], ecx
	movsxd	rcx, eax
	call	LclAlloc

; 2609 :           memcpy(newcp64, hll->pcases64, hll->casecnt * hll->csize);

	movsx	r8d, BYTE PTR [rbx+84]
	mov	rcx, rax
	imul	r8d, DWORD PTR [rbx+80]
	mov	rdi, rax
	mov	rdx, QWORD PTR [rbx+152]
	call	memcpy

; 2610 :           LclFree(hll->pcases64);
; 2611 :           hll->pcases64 = newcp64;

	mov	QWORD PTR [rbx+152], rdi
$LN201@HllExitDir:

; 2612 : 
; 2613 :           newlp = LclAlloc(sizeof(uint_16) * hll->maxalloccasen);

	movsxd	rcx, DWORD PTR [rbx+100]
	add	rcx, rcx
	call	LclAlloc

; 2614 :           memcpy(newlp, hll->plabels, hll->casecnt * sizeof(uint_16));

	mov	r8d, DWORD PTR [rbx+80]
	mov	rcx, rax
	mov	rdx, QWORD PTR [rbx+112]
	add	r8, r8
	mov	rdi, rax
	call	memcpy

; 2615 :           LclFree(hll->plabels);
; 2616 :           hll->plabels = newlp;

	mov	QWORD PTR [rbx+112], rdi
$LN42@HllExitDir:

; 2617 :         }
; 2618 :       }
; 2619 : #endif
; 2620 :       if ((ModuleInfo.Ofssize == USE32) || (hll->csize == 4)) {

	cmp	BYTE PTR ModuleInfo+404, 1
	je	SHORT $LN45@HllExitDir
	cmp	BYTE PTR [rbx+84], r13b
	je	SHORT $LN45@HllExitDir

; 2626 :       }
; 2627 : #if AMD64_SUPPORT
; 2628 :       else {
; 2629 :         for (j = 0; j < hll->casecnt; j++) {

	mov	esi, r14d
	cmp	DWORD PTR [rbx+80], r14d
	jbe	SHORT $LN191@HllExitDir
	mov	rdi, r14
	npad	2
$LL14@HllExitDir:

; 2630 :           if (hll->pcases64[j] == opndx.value64)

	mov	rcx, QWORD PTR [rbx+152]
	mov	rax, QWORD PTR opndx$[rsp]
	cmp	QWORD PTR [rdi+rcx], rax
	jne	SHORT $LN12@HllExitDir

; 2631 :             EmitErr(CASE_ALREADY_OCCURED_IN_THIS_SWITCH_BLOCK, buffer);

	lea	rdx, QWORD PTR buffer$[rbp-256]
	mov	ecx, 253				; 000000fdH
	call	EmitErr
$LN12@HllExitDir:

; 2626 :       }
; 2627 : #if AMD64_SUPPORT
; 2628 :       else {
; 2629 :         for (j = 0; j < hll->casecnt; j++) {

	inc	esi
	add	rdi, r15
	cmp	esi, DWORD PTR [rbx+80]
	jb	SHORT $LL14@HllExitDir
$LN191@HllExitDir:

; 2632 :         }
; 2633 :         hll->pcases64[hll->casecnt] = opndx.value64;

	mov	edx, DWORD PTR [rbx+80]
	mov	rcx, QWORD PTR [rbx+152]
	mov	rax, QWORD PTR opndx$[rsp]
	mov	QWORD PTR [rcx+rdx*8], rax
	jmp	SHORT $LN44@HllExitDir
$LN45@HllExitDir:

; 2621 :         for (j = 0; j < hll->casecnt; j++) {

	mov	esi, r14d
	cmp	DWORD PTR [rbx+80], r14d
	jbe	SHORT $LN192@HllExitDir
	mov	rdi, r14
	npad	5
$LL11@HllExitDir:

; 2622 :           if (hll->pcases[j] == opndx.value)

	mov	rcx, QWORD PTR [rbx+104]
	mov	eax, DWORD PTR opndx$[rsp]
	cmp	DWORD PTR [rdi+rcx], eax
	jne	SHORT $LN9@HllExitDir

; 2623 :             EmitErr(CASE_ALREADY_OCCURED_IN_THIS_SWITCH_BLOCK, buffer);

	lea	rdx, QWORD PTR buffer$[rbp-256]
	mov	ecx, 253				; 000000fdH
	call	EmitErr
$LN9@HllExitDir:

; 2621 :         for (j = 0; j < hll->casecnt; j++) {

	inc	esi
	add	rdi, r13
	cmp	esi, DWORD PTR [rbx+80]
	jb	SHORT $LL11@HllExitDir
$LN192@HllExitDir:

; 2624 :         }
; 2625 :         hll->pcases[hll->casecnt] = opndx.value;

	mov	edx, DWORD PTR [rbx+80]
	mov	rcx, QWORD PTR [rbx+104]
	mov	eax, DWORD PTR opndx$[rsp]
	mov	DWORD PTR [rcx+rdx*4], eax
$LN44@HllExitDir:

; 2634 :       }
; 2635 : #endif
; 2636 :       hll->plabels[hll->casecnt] = hll->savedlab;

	mov	edx, DWORD PTR [rbx+80]
	movzx	eax, WORD PTR [rbx+120]
	mov	rcx, QWORD PTR [rbx+112]
	mov	WORD PTR [rcx+rdx*2], ax

; 2637 :       hll->casecnt++;

	inc	DWORD PTR [rbx+80]

; 2638 :       if (tokenarray[i].token != T_COMMA)

	movsxd	rax, DWORD PTR i$[rbp-256]
	shl	rax, 5
	cmp	BYTE PTR [rax+r12], 44			; 0000002cH
	je	$LL4@HllExitDir

; 2639 :         break;
; 2640 :     }

	jmp	$LN67@HllExitDir
$LN134@HllExitDir:

; 2559 :           DebugMsg(("HllExitDir(%s): EvalOperand() failed\n", tokenarray[i].string_ptr));
; 2560 :           return(ERROR);

	or	eax, -1
	jmp	$LN200@HllExitDir
$LN31@HllExitDir:

; 2571 :             break;
; 2572 :           }
; 2573 : #endif
; 2574 :         }
; 2575 :       }
; 2576 :       else {
; 2577 :         DebugMsg(("HllExitDir stack error\n"));
; 2578 :         return(EmitError(MISSING_OPERATOR_IN_EXPRESSION));

	mov	ecx, 150				; 00000096H
	call	EmitError
	jmp	$LN200@HllExitDir
$LN49@HllExitDir:

; 2641 :     break;
; 2642 :   case T_DOT_ELSE:
; 2643 :   case T_DOT_ELSEIF:
; 2644 :     if (hll->cmd != HLL_IF) {

	cmp	DWORD PTR [rbx+68], r14d
	je	SHORT $LN50@HllExitDir

; 2645 :       DebugMsg(("HllExitDir(%s): labels[LTEST]=%X\n", tokenarray[i].string_ptr, hll->labels[LTEST]));
; 2646 :       return(EmitErr(BLOCK_NESTING_ERROR, tokenarray[i].string_ptr));

	mov	rdx, QWORD PTR [rdx+r12+8]
	mov	ecx, 80					; 00000050H
	call	EmitErr
	jmp	$LN200@HllExitDir
$LN50@HllExitDir:

; 2647 :     }
; 2648 :     /* v2.08: check for multiple ELSE clauses */
; 2649 :     if (hll->flags & HLLF_ELSEOCCURED) {

	test	BYTE PTR [rbx+76], 1
	je	SHORT $LN51@HllExitDir

; 2650 :       return(EmitError(DOT_ELSE_CLAUSE_ALREADY_OCCURED_IN_THIS_DOT_IF_BLOCK));

	mov	ecx, 67					; 00000043H
	call	EmitError
	jmp	$LN200@HllExitDir
$LN51@HllExitDir:

; 2651 :     }
; 2652 : 
; 2653 :     /* the 'exit'-label is only needed if an .ELSE branch exists.
; 2654 :     * That's why it is created delayed.
; 2655 :     */
; 2656 :     if (hll->labels[LEXIT] == 0)

	cmp	DWORD PTR [rbx+12], r14d
	jne	SHORT $LN52@HllExitDir

; 2657 :       hll->labels[LEXIT] = GetHllLabel();

	mov	eax, DWORD PTR ModuleInfo+352
	inc	eax
	mov	DWORD PTR ModuleInfo+352, eax
	mov	DWORD PTR [rbx+12], eax
$LN52@HllExitDir:

; 2658 :     AddLineQueueX(JMPPREFIX "jmp %s", GetLabelStr(hll->labels[LEXIT], buff));

	mov	r8d, DWORD PTR [rbx+12]
	lea	rdx, OFFSET FLAT:$SG11141
	lea	rcx, QWORD PTR buff$[rsp]
	call	sprintf
	lea	rdx, QWORD PTR buff$[rsp]
	lea	rcx, OFFSET FLAT:$SG12473
	call	AddLineQueueX

; 2659 : 
; 2660 :     if (hll->labels[LTEST] > 0) {

	mov	r8d, DWORD PTR [rbx+8]
	test	r8d, r8d
	je	SHORT $LN53@HllExitDir

; 2661 :       AddLineQueueX("%s" LABELQUAL, GetLabelStr(hll->labels[LTEST], buff));

	lea	rdx, OFFSET FLAT:$SG11141
	lea	rcx, QWORD PTR buff$[rsp]
	call	sprintf
	lea	rdx, QWORD PTR buff$[rsp]
	lea	rcx, OFFSET FLAT:$SG12475
	call	AddLineQueueX

; 2662 :       hll->labels[LTEST] = 0;

	mov	DWORD PTR [rbx+8], r14d
$LN53@HllExitDir:

; 2663 :     }
; 2664 :     i++;

	inc	DWORD PTR i$[rbp-256]

; 2665 :     if (cmd == T_DOT_ELSEIF) {

	cmp	edi, 335				; 0000014fH
	jne	$LN54@HllExitDir

; 2666 :       /* create new labels[LTEST] label */
; 2667 :       hll->labels[LTEST] = GetHllLabel();

	mov	eax, DWORD PTR ModuleInfo+352

; 2668 :       rc = EvaluateHllExpression(hll, &i, tokenarray, LTEST, FALSE, buffer);

	lea	rdx, QWORD PTR i$[rbp-256]
	inc	eax
	mov	QWORD PTR hllop$2[rsp], r14
	mov	DWORD PTR ModuleInfo+352, eax
	xor	r9d, r9d
	mov	DWORD PTR [rbx+8], eax
	mov	r8, r12
	lea	rax, QWORD PTR hllop$2[rsp]
	mov	DWORD PTR hllop$2[rsp+8], r14d
	mov	QWORD PTR [rsp+48], rax
	mov	rcx, rbx
	lea	rax, QWORD PTR buffer$[rbp-256]
	mov	BYTE PTR buffer$[rbp-256], r14b
	mov	QWORD PTR [rsp+40], rax
	mov	BYTE PTR [rsp+32], r14b
	call	GetExpression
	cmp	eax, -1
	jne	SHORT $LN100@HllExitDir
	or	r14d, eax
	jmp	$LN67@HllExitDir
$LN100@HllExitDir:
	movsxd	rax, DWORD PTR i$[rbp-256]
	shl	rax, 5
	cmp	BYTE PTR [rax+r12], r14b
	je	SHORT $LN101@HllExitDir
	mov	ecx, 199				; 000000c7H
	call	EmitError
	mov	r14d, eax

; 2669 :       if (rc == NOT_ERROR)

	test	eax, eax
	jne	$LN67@HllExitDir

; 2668 :       rc = EvaluateHllExpression(hll, &i, tokenarray, LTEST, FALSE, buffer);

$LN101@HllExitDir:

; 2670 :         QueueTestLines(buffer);

	lea	rbx, QWORD PTR buffer$[rbp-256]
	npad	9
$LL104@HllExitDir:
	mov	edx, 10
	mov	rcx, rbx
	mov	rdi, rbx
	call	strchr
	mov	rbx, rax
	test	rax, rax
	je	SHORT $LN106@HllExitDir
	mov	BYTE PTR [rax], 0
	inc	rbx
$LN106@HllExitDir:
	cmp	BYTE PTR [rdi], 0
	je	SHORT $LN107@HllExitDir
	mov	rcx, rdi
	call	AddLineQueue
$LN107@HllExitDir:
	test	rbx, rbx
	jne	SHORT $LL104@HllExitDir

; 2671 :     }

	jmp	$LN67@HllExitDir
$LN54@HllExitDir:

; 2672 :     else
; 2673 :       hll->flags |= HLLF_ELSEOCCURED;

	or	DWORD PTR [rbx+76], 1

; 2674 : 
; 2675 :     break;

	jmp	$LN67@HllExitDir
	npad	2
$LL194@HllExitDir:

; 2676 :   case T_DOT_BREAK:
; 2677 :   case T_DOT_CONTINUE:
; 2678 :     for (; hll && hll->cmd == HLL_IF; hll = hll->next);

	cmp	DWORD PTR [rbx+68], r14d
	jne	SHORT $LN58@HllExitDir
	mov	rbx, QWORD PTR [rbx]
	test	rbx, rbx
	jne	SHORT $LL194@HllExitDir
$LN202@HllExitDir:

; 2679 :     if (hll == NULL) {
; 2680 :       return(EmitError(DIRECTIVE_MUST_BE_IN_CONTROL_BLOCK));

	mov	ecx, 245				; 000000f5H
	call	EmitError
	jmp	$LN200@HllExitDir
$LN58@HllExitDir:

; 2681 :     }
; 2682 :     /* v2.11: create 'exit' and 'test' labels delayed.
; 2683 :     */
; 2684 :     if (cmd == T_DOT_BREAK) {

	cmp	edi, 332				; 0000014cH
	jne	SHORT $LN59@HllExitDir

; 2685 :       hll->breakoccured = TRUE;

	mov	BYTE PTR [rbx+122], 1

; 2686 :       if (hll->labels[LEXIT] == 0)

	cmp	DWORD PTR [rbx+12], r14d
	jne	SHORT $LN61@HllExitDir

; 2687 :         hll->labels[LEXIT] = GetHllLabel();

	mov	eax, DWORD PTR ModuleInfo+352
	inc	eax
	mov	DWORD PTR ModuleInfo+352, eax
	mov	DWORD PTR [rbx+12], eax
$LN61@HllExitDir:

; 2688 :       idx = LEXIT;

	mov	edx, 1

; 2689 :     }

	jmp	SHORT $LN63@HllExitDir
$LN59@HllExitDir:

; 2690 :     else if (hll->cmd == HLL_FOR) {

	mov	eax, DWORD PTR [rbx+68]
	cmp	eax, r13d
	jne	SHORT $LN62@HllExitDir

; 2691 :       /* added by habran
; 2692 :       .CONTINUE label is created here for .FOR loops only if it exists.
; 2693 :       It is different than .WHILE because it has to first alter counters
; 2694 :       */
; 2695 :       if (hll->labels[LCONT] == 0) hll->labels[LCONT] = GetHllLabel();

	cmp	DWORD PTR [rbx+24], r14d
	jne	SHORT $LN64@HllExitDir
	mov	eax, DWORD PTR ModuleInfo+352
	inc	eax
	mov	DWORD PTR ModuleInfo+352, eax
	mov	DWORD PTR [rbx+24], eax
$LN64@HllExitDir:

; 2696 :       idx = (hll->labels[LCONT] ? LCONT : LSTART);

	cmp	DWORD PTR [rbx+24], r14d
	mov	edx, 2
	cmovne	edx, r13d

; 2697 :     }

	jmp	SHORT $LN63@HllExitDir
$LN62@HllExitDir:

; 2698 :     else {
; 2699 :       /* 'test' is not created for .WHILE loops here; because
; 2700 :       * if it doesn't exist, there's no condition to test.
; 2701 :       */
; 2702 :       if (hll->cmd == HLL_REPEAT && hll->labels[LTEST] == 0)

	cmp	eax, 2
	jne	SHORT $LN65@HllExitDir
	cmp	DWORD PTR [rbx+8], r14d
	jne	SHORT $LN65@HllExitDir

; 2703 :         hll->labels[LTEST] = GetHllLabel();

	mov	eax, DWORD PTR ModuleInfo+352
	inc	eax
	mov	DWORD PTR ModuleInfo+352, eax
	mov	DWORD PTR [rbx+8], eax
$LN65@HllExitDir:

; 2704 :       idx = (hll->labels[LTEST] ? LTEST : LSTART);

	cmp	DWORD PTR [rbx+8], r14d
	mov	edx, 2
	cmovne	edx, r14d
$LN63@HllExitDir:

; 2705 :     }
; 2706 : 
; 2707 :     /* .BREAK .IF ... or .CONTINUE .IF ? */
; 2708 :     i++;

	mov	ecx, DWORD PTR i$[rbp-256]
	inc	ecx

; 2709 :     if (tokenarray[i].token != T_FINAL) {

	movsxd	rax, ecx
	shl	rax, 5
	mov	DWORD PTR i$[rbp-256], ecx
	lea	rcx, QWORD PTR [rax+r12]
	movzx	eax, BYTE PTR [rax+r12]
	test	al, al
	je	$LN66@HllExitDir

; 2710 :       if (tokenarray[i].token == T_DIRECTIVE && tokenarray[i].tokval == T_DOT_IF) {

	cmp	al, 3
	jne	$LN67@HllExitDir
	cmp	DWORD PTR [rcx+16], 328			; 00000148H
	jne	$LN67@HllExitDir

; 2711 :         enum hll_cmd savedcmd = hll->cmd;

	mov	r15d, DWORD PTR [rbx+68]

; 2712 :         hll->cmd = HLL_BREAK;
; 2713 :         i++;
; 2714 :         /* v2.11: set rc and don't exit if an error occurs; see hll3.aso */
; 2715 :         rc = EvaluateHllExpression(hll, &i, tokenarray, idx, TRUE, buffer);

	lea	rax, QWORD PTR hllop$1[rsp]
	mov	QWORD PTR [rsp+48], rax
	mov	r9d, edx
	mov	DWORD PTR [rbx+68], 3
	lea	rax, QWORD PTR buffer$[rbp-256]
	inc	DWORD PTR i$[rbp-256]
	lea	rdx, QWORD PTR i$[rbp-256]
	mov	QWORD PTR [rsp+40], rax
	mov	r8, r12
	mov	rcx, rbx
	mov	BYTE PTR [rsp+32], 1
	mov	QWORD PTR hllop$1[rsp], r14
	mov	DWORD PTR hllop$1[rsp+8], r14d
	mov	BYTE PTR buffer$[rbp-256], r14b
	call	GetExpression
	cmp	eax, -1
	jne	SHORT $LN116@HllExitDir
	or	r14d, eax

; 2718 :         hll->cmd = savedcmd;

	mov	DWORD PTR [rbx+68], r15d

; 2719 :       }
; 2720 :     }

	jmp	$LN67@HllExitDir

; 2712 :         hll->cmd = HLL_BREAK;
; 2713 :         i++;
; 2714 :         /* v2.11: set rc and don't exit if an error occurs; see hll3.aso */
; 2715 :         rc = EvaluateHllExpression(hll, &i, tokenarray, idx, TRUE, buffer);

$LN116@HllExitDir:
	movsxd	rax, DWORD PTR i$[rbp-256]
	shl	rax, 5
	cmp	BYTE PTR [rax+r12], r14b
	je	SHORT $LN117@HllExitDir
	mov	ecx, 199				; 000000c7H
	call	EmitError
	mov	r14d, eax

; 2716 :         if (rc == NOT_ERROR)

	test	eax, eax
	jne	SHORT $LN121@HllExitDir

; 2712 :         hll->cmd = HLL_BREAK;
; 2713 :         i++;
; 2714 :         /* v2.11: set rc and don't exit if an error occurs; see hll3.aso */
; 2715 :         rc = EvaluateHllExpression(hll, &i, tokenarray, idx, TRUE, buffer);

$LN117@HllExitDir:

; 2717 :           QueueTestLines(buffer);

	lea	rdi, QWORD PTR buffer$[rbp-256]
	npad	4
$LL120@HllExitDir:
	mov	edx, 10
	mov	rcx, rdi
	mov	rsi, rdi
	call	strchr
	mov	rdi, rax
	test	rax, rax
	je	SHORT $LN122@HllExitDir
	mov	BYTE PTR [rax], 0
	inc	rdi
$LN122@HllExitDir:
	cmp	BYTE PTR [rsi], 0
	je	SHORT $LN123@HllExitDir
	mov	rcx, rsi
	call	AddLineQueue
$LN123@HllExitDir:
	test	rdi, rdi
	jne	SHORT $LL120@HllExitDir
$LN121@HllExitDir:

; 2718 :         hll->cmd = savedcmd;

	mov	DWORD PTR [rbx+68], r15d

; 2719 :       }
; 2720 :     }

	jmp	SHORT $LN67@HllExitDir
$LN66@HllExitDir:

; 2721 :     else {
; 2722 :       AddLineQueueX(JMPPREFIX "jmp %s", GetLabelStr(hll->labels[idx], buff));

	movsxd	rax, edx
	lea	rcx, QWORD PTR buff$[rsp]
	lea	rdx, OFFSET FLAT:$SG11141
	mov	r8d, DWORD PTR [rbx+rax*4+8]
	call	sprintf
	lea	rdx, QWORD PTR buff$[rsp]
	lea	rcx, OFFSET FLAT:$SG12492
	call	AddLineQueueX
$LN67@HllExitDir:

; 2723 :     }
; 2724 :     break;
; 2725 : #ifdef DEBUG_OUT
; 2726 :   default: /**/myassert(0); break;
; 2727 : #endif
; 2728 :   }
; 2729 :   if (tokenarray[i].token != T_FINAL && rc == NOT_ERROR) {

	movsxd	rax, DWORD PTR i$[rbp-256]
	shl	rax, 5
	cmp	BYTE PTR [rax+r12], 0
	je	SHORT $LN70@HllExitDir
	test	r14d, r14d
	jne	SHORT $LN70@HllExitDir

; 2730 :     EmitErr(SYNTAX_ERROR_EX, tokenarray[i].tokpos);

	mov	rdx, QWORD PTR [rax+r12+24]
	mov	ecx, 209				; 000000d1H
	call	EmitErr

; 2731 :     rc = ERROR;

	or	r14d, -1
$LN70@HllExitDir:

; 2732 :   }
; 2733 : 
; 2734 :   if (ModuleInfo.list)

	test	DWORD PTR ModuleInfo+408, 2048		; 00000800H
	je	SHORT $LN71@HllExitDir

; 2735 :     LstWrite(LSTTYPE_DIRECTIVE, GetCurrOffset(), NULL);

	call	GetCurrOffset
	mov	edx, eax
	xor	r8d, r8d
	mov	ecx, r13d
	call	LstWrite
$LN71@HllExitDir:

; 2736 : 
; 2737 :   /* v2.11: always run line-queue if it's not empty. */
; 2738 :   if (is_linequeue_populated())

	cmp	QWORD PTR ModuleInfo+184, 0
	je	SHORT $LN72@HllExitDir

; 2739 :     RunLineQueue();

	call	RunLineQueue
$LN72@HllExitDir:

; 2740 : 
; 2741 :   return(rc);

	mov	eax, r14d
$LN200@HllExitDir:
	mov	r13, QWORD PTR [rsp+1296]
	mov	rsi, QWORD PTR [rsp+1288]
	mov	r15, QWORD PTR [rsp+1304]

; 2742 : }

	add	rsp, 1232				; 000004d0H
	pop	r14
	pop	r12
	pop	rdi
	pop	rbx
	pop	rbp
	ret	0
	npad	3
$LN186@HllExitDir:
	DD	$LL194@HllExitDir
	DD	$LL194@HllExitDir
	DD	$LN49@HllExitDir
	DD	$LN49@HllExitDir
	DD	$LN67@HllExitDir
	DD	$LN67@HllExitDir
	DD	$LN67@HllExitDir
	DD	$LN67@HllExitDir
	DD	$LN67@HllExitDir
	DD	$LN67@HllExitDir
	DD	$LN25@HllExitDir
	DD	$LN19@HllExitDir
HllExitDir ENDP
_TEXT	ENDS
; Function compile flags: /Ogtpy
; File d:\hjwasm\hjwasm2.13.1s\hjwasm2.13.1s\hll.c
_TEXT	SEGMENT
buff$ = 64
tv3324 = 80
tv3307 = 80
tv3227 = 80
tv3226 = 80
tv3215 = 80
hllop$1 = 80
hllop$2 = 80
j$12$ = 96
buffer$ = 112
i$ = 2240
tokenarray$ = 2248
bcnt$1$ = 2256
acnt$1$ = 2264
HllEndDir PROC

; 1608 : {

$LN603:
	mov	QWORD PTR [rsp+16], rdx
	mov	DWORD PTR [rsp+8], ecx
	push	rbp
	push	rbx
	push	rsi
	push	rdi
	push	r12
	push	r15
	lea	rbp, QWORD PTR [rsp-1928]
	sub	rsp, 2184				; 00000888H

; 1609 :   //struct asym       *sym;
; 1610 :   struct hll_item     *hll;
; 1611 :   ret_code            rc = NOT_ERROR;
; 1612 :   int                 cmd = tokenarray[i].tokval;
; 1613 :   int                 j, n;
; 1614 :   int                 temp;
; 1615 :   int                 acnt = 0;
; 1616 :   int                 bcnt = 0;
; 1617 :   int                 dsize;
; 1618 :   uint_16             lbl;
; 1619 : 
; 1620 :   char buff[16];
; 1621 :   //char buffer[MAX_LINE_LEN*2];
; 1622 : 
; 1623 : 
; 1624 :   char buffer[MAX_LINE_LEN * 2];
; 1625 : 
; 1626 :   DebugMsg1(("HllEndDir(%s) enter\n", tokenarray[i].string_ptr));
; 1627 : 
; 1628 :   if (HllStack == NULL) {

	mov	rbx, QWORD PTR ModuleInfo+224
	xor	esi, esi
	movsxd	rax, ecx
	mov	rdi, rdx
	shl	rax, 5
	mov	r12d, esi
	mov	DWORD PTR acnt$1$[rbp-256], esi
	mov	r15d, esi
	mov	DWORD PTR bcnt$1$[rbp-256], esi
	mov	ecx, DWORD PTR [rax+rdx+16]
	test	rbx, rbx
	jne	SHORT $LN55@HllEndDir

; 1629 :     DebugMsg(("HllEndDir: hll stack is empty\n"));
; 1630 :     return(EmitError(DIRECTIVE_MUST_BE_IN_CONTROL_BLOCK));

	mov	ecx, 245				; 000000f5H
	call	EmitError

; 2475 : }

	add	rsp, 2184				; 00000888H
	pop	r15
	pop	r12
	pop	rdi
	pop	rsi
	pop	rbx
	pop	rbp
	ret	0
$LN55@HllEndDir:

; 1631 :   }
; 1632 : 
; 1633 :   hll = HllStack;
; 1634 :   HllStack = hll->next;

	mov	rax, QWORD PTR [rbx]
	mov	QWORD PTR ModuleInfo+224, rax

; 1635 :   /* v2.06: move the item to the free stack */
; 1636 :   hll->next = HllFree;

	mov	rax, QWORD PTR ModuleInfo+232
	mov	QWORD PTR [rbx], rax

; 1637 :   HllFree = hll;
; 1638 : 
; 1639 :   switch (cmd) {

	lea	eax, DWORD PTR [rcx-336]
	mov	QWORD PTR [rsp+2168], r14
	mov	r14d, 4
	mov	QWORD PTR ModuleInfo+232, rbx
	cmp	eax, 8
	ja	$LN577@HllEndDir
	lea	rdx, OFFSET FLAT:__ImageBase
	cdqe
	mov	ecx, DWORD PTR $LN576@HllEndDir[rdx+rax*4]
	add	rcx, rdx
	jmp	rcx
$LN56@HllEndDir:

; 1640 :   case T_DOT_ENDIF:
; 1641 :     if (hll->cmd != HLL_IF) {

	cmp	DWORD PTR [rbx+68], esi
	jne	$LN601@HllEndDir

; 1642 :       DebugMsg(("HllEndDir: no .IF on the hll stack\n"));
; 1643 :       return(EmitErr(BLOCK_NESTING_ERROR, tokenarray[i].string_ptr));
; 1644 :     }
; 1645 :     i++;

	inc	DWORD PTR i$[rbp-256]

; 1646 :     /* if a test label isn't created yet, create it */
; 1647 :     if (hll->labels[LTEST]) {

	mov	r8d, DWORD PTR [rbx+8]
	test	r8d, r8d
	je	$LN577@HllEndDir

; 1648 :       AddLineQueueX("%s" LABELQUAL, GetLabelStr(hll->labels[LTEST], buff));

	lea	rdx, OFFSET FLAT:$SG11141
	lea	rcx, QWORD PTR buff$[rsp]
	call	sprintf
	lea	rdx, QWORD PTR buff$[rsp]
	lea	rcx, OFFSET FLAT:$SG11876
	call	AddLineQueueX

; 1649 :     }
; 1650 :     break;

	jmp	$LN577@HllEndDir
$LN59@HllEndDir:

; 1651 :     // added by habran
; 1652 :   case T_DOT_ENDSWITCH:
; 1653 :     if (hll->cmd != HLL_SWITCH) {

	cmp	DWORD PTR [rbx+68], 5
	je	SHORT $LN60@HllEndDir

; 1654 :       DebugMsg(("HllExitDir stack error\n"));
; 1655 :       return(EmitError(DIRECTIVE_MUST_BE_IN_CONTROL_BLOCK));

	mov	ecx, 245				; 000000f5H
	call	EmitError
	jmp	$LN581@HllEndDir
$LN60@HllEndDir:

; 1656 :     }
; 1657 :     i++;

	inc	DWORD PTR i$[rbp-256]

; 1658 :     if (ModuleInfo.Ofssize == USE32) dsize = 4;

	mov	edi, 8
	cmp	BYTE PTR ModuleInfo+404, 1
	cmove	edi, r14d

; 1659 : #if AMD64_SUPPORT
; 1660 :     else dsize = 8;
; 1661 : #endif
; 1662 :     if (ModuleInfo.switch_style == ASMSWITCH) {

	test	DWORD PTR ModuleInfo+408, 524288	; 00080000H
	jne	SHORT $LN63@HllEndDir

; 1663 :       if (hll->labels[LEXIT] == 0)

	cmp	DWORD PTR [rbx+12], esi
	jne	SHORT $LN64@HllEndDir

; 1664 :         hll->labels[LEXIT] = GetHllLabel();

	mov	eax, DWORD PTR ModuleInfo+352
	inc	eax
	mov	DWORD PTR ModuleInfo+352, eax
	mov	DWORD PTR [rbx+12], eax
$LN64@HllEndDir:

; 1665 :       AddLineQueueX(JMPPREFIX "jmp %s", GetLabelStr(hll->labels[LEXIT], buff));

	mov	r8d, DWORD PTR [rbx+12]
	lea	rdx, OFFSET FLAT:$SG11141
	lea	rcx, QWORD PTR buff$[rsp]
	call	sprintf
	lea	rdx, QWORD PTR buff$[rsp]
	lea	rcx, OFFSET FLAT:$SG11883
	call	AddLineQueueX
$LN63@HllEndDir:

; 1666 :     }
; 1667 :     if (hll->labels[LDEF] == 0) {

	cmp	DWORD PTR [rbx+28], esi
	jne	SHORT $LN65@HllEndDir

; 1668 :       hll->labels[LDEF] = GetHllLabel();

	mov	eax, DWORD PTR ModuleInfo+352

; 1669 :       AddLineQueueX("%s" LABELQUAL, GetLabelStr(hll->labels[LDEF], buff));

	lea	rdx, OFFSET FLAT:$SG11141
	inc	eax
	lea	rcx, QWORD PTR buff$[rsp]
	mov	DWORD PTR ModuleInfo+352, eax
	mov	r8d, eax
	mov	DWORD PTR [rbx+28], eax
	call	sprintf
	lea	rdx, QWORD PTR buff$[rsp]
	lea	rcx, OFFSET FLAT:$SG11885
	call	AddLineQueueX
$LN65@HllEndDir:

; 1670 :     }
; 1671 :     AddLineQueueX("ALIGN %d", dsize);

	mov	edx, edi
	lea	rcx, OFFSET FLAT:$SG11886
	call	AddLineQueueX

; 1672 :     AddLineQueueX("%s" LABELQUAL, GetLabelStr(hll->labels[LSTART], buff));

	mov	r8d, DWORD PTR [rbx+16]
	lea	rdx, OFFSET FLAT:$SG11141
	lea	rcx, QWORD PTR buff$[rsp]
	call	sprintf
	lea	rdx, QWORD PTR buff$[rsp]
	lea	rcx, OFFSET FLAT:$SG11887
	call	AddLineQueueX

; 1673 :     if (Parse_Pass) {

	cmp	DWORD PTR Parse_Pass, esi
	je	$LN161@HllEndDir

; 1674 :       if (hll->casecnt == 1)

	mov	r9d, DWORD PTR [rbx+80]
	cmp	r9d, 1
	jne	SHORT $LN67@HllEndDir

; 1675 :         hll->cflag = 1;

	mov	BYTE PTR [rbx+85], r9b
	jmp	$LN94@HllEndDir
$LN67@HllEndDir:

; 1676 :       else if (hll->casecnt == 2)

	cmp	r9d, 2
	jne	SHORT $LN69@HllEndDir

; 1677 :         hll->cflag = 2;

	mov	BYTE PTR [rbx+85], r9b
	jmp	$LN94@HllEndDir
$LN69@HllEndDir:

; 1678 :       else if (hll->casecnt == 3)

	cmp	r9d, 3
	jne	SHORT $LN71@HllEndDir

; 1679 :         hll->cflag = 3;

	mov	BYTE PTR [rbx+85], r9b
	jmp	$LN94@HllEndDir
$LN71@HllEndDir:

; 1680 :       else
; 1681 :       {
; 1682 :         if (hll->plabels) {

	mov	rdx, QWORD PTR [rbx+112]
	test	rdx, rdx
	je	$LN94@HllEndDir

; 1683 :           if (ModuleInfo.Ofssize == USE32) {

	cmp	BYTE PTR ModuleInfo+404, 1

; 1684 :             bubblesort(hll, hll->plabels, hll->pcases, hll->casecnt);

	mov	rcx, rbx
	jne	SHORT $LN74@HllEndDir
	mov	r8, QWORD PTR [rbx+104]
	call	bubblesort

; 1685 :             if ((hll->delta * 4) <= (hll->casecnt * 4 + hll->casecnt * 2))

	mov	eax, DWORD PTR [rbx+80]
	mov	r8d, DWORD PTR [rbx+96]
	lea	ecx, DWORD PTR [rax+rax*2]
	add	ecx, ecx
	lea	edx, DWORD PTR [r8*4]
	cmp	edx, ecx
	ja	SHORT $LN76@HllEndDir

; 1686 :               hll->cflag = 6;

	mov	BYTE PTR [rbx+85], 6
	jmp	$LN94@HllEndDir
$LN76@HllEndDir:

; 1687 :             else if (hll->delta < 256)

	cmp	r8d, 256				; 00000100H
	jge	SHORT $LN78@HllEndDir

; 1688 :               hll->cflag = 4;

	mov	BYTE PTR [rbx+85], r14b
	jmp	$LN94@HllEndDir
$LN78@HllEndDir:

; 1689 :             else if (hll->delta < 512)

	cmp	r8d, 512				; 00000200H
	mov	eax, 5
	mov	ecx, 7
	cmovl	eax, ecx

; 1690 :               hll->cflag = 7;
; 1691 :             else
; 1692 :               hll->cflag = 5;
; 1693 :           }

	jmp	SHORT $LN582@HllEndDir
$LN74@HllEndDir:

; 1694 : #if AMD64_SUPPORT
; 1695 :           else {     //USE64
; 1696 :             if (hll->csize == 4) {

	cmp	BYTE PTR [rbx+84], r14b
	jne	SHORT $LN82@HllEndDir

; 1697 :               bubblesort(hll, hll->plabels, hll->pcases, hll->casecnt);

	mov	r8, QWORD PTR [rbx+104]
	call	bubblesort

; 1698 :               if ((hll->delta * 8) <= (hll->casecnt * 8 + hll->casecnt * 2))

	mov	eax, DWORD PTR [rbx+80]
	mov	r8d, DWORD PTR [rbx+96]
	lea	ecx, DWORD PTR [rax+rax*4]
	add	ecx, ecx
	lea	edx, DWORD PTR [r8*8]
	cmp	edx, ecx
	ja	SHORT $LN76@HllEndDir

; 1699 :                 hll->cflag = 6;

	mov	BYTE PTR [rbx+85], 6
	jmp	SHORT $LN94@HllEndDir
$LN82@HllEndDir:

; 1700 :               else if (hll->delta < 256)
; 1701 :                 hll->cflag = 4;
; 1702 :               else if (hll->delta < 512)
; 1703 :                 hll->cflag = 7;
; 1704 :               else
; 1705 :                 hll->cflag = 5;
; 1706 :             }
; 1707 :             else {
; 1708 :               bubblesort64(hll, hll->plabels, hll->pcases64, hll->casecnt);

	mov	r8, QWORD PTR [rbx+152]
	call	bubblesort64

; 1709 :               if ((hll->delta64 * 8) <= (hll->casecnt * 8 + hll->casecnt * 2))

	mov	eax, DWORD PTR [rbx+80]
	mov	r8, QWORD PTR [rbx+144]
	lea	ecx, DWORD PTR [rax+rax*4]
	lea	edx, DWORD PTR [rcx+rcx]
	lea	rax, QWORD PTR [r8*8]
	cmp	rax, rdx
	ja	SHORT $LN90@HllEndDir

; 1710 :                 hll->cflag = 6;

	mov	BYTE PTR [rbx+85], 6
	jmp	SHORT $LN94@HllEndDir
$LN90@HllEndDir:

; 1711 :               else if (hll->delta64 < 256)

	cmp	r8, 256					; 00000100H
	jae	SHORT $LN92@HllEndDir

; 1712 :                 hll->cflag = 4;

	mov	BYTE PTR [rbx+85], r14b
	jmp	SHORT $LN94@HllEndDir
$LN92@HllEndDir:

; 1713 :               else if (hll->delta64 < 512)

	cmp	r8, 512					; 00000200H
	mov	eax, 5
	mov	ecx, 7
	cmovb	eax, ecx
$LN582@HllEndDir:
	mov	BYTE PTR [rbx+85], al
$LN94@HllEndDir:

; 1714 :                 hll->cflag = 7;
; 1715 :               else
; 1716 :                 hll->cflag = 5;
; 1717 :             }
; 1718 :           }
; 1719 : #endif
; 1720 :         }
; 1721 :       }
; 1722 :       if (hll->cflag == 1) {

	movzx	eax, BYTE PTR [rbx+85]
	cmp	al, 1
	jne	$LN96@HllEndDir

; 1723 :         if ((ModuleInfo.Ofssize == USE32) || (hll->csize == 4)) {

	cmp	BYTE PTR ModuleInfo+404, al
	je	$LN100@HllEndDir
	cmp	BYTE PTR [rbx+84], r14b
	je	$LN100@HllEndDir

; 1730 :         }
; 1731 : #if AMD64_SUPPORT
; 1732 :         else
; 1733 :         {
; 1734 :           AddLineQueueX("push rdx");

	lea	rcx, OFFSET FLAT:$SG11929
	call	AddLineQueueX

; 1735 :           AddLineQueueX("mov rdx, %q", hll->pcases64[0]);

	mov	rdx, QWORD PTR [rbx+152]
	lea	rcx, OFFSET FLAT:$SG11930
	mov	rdx, QWORD PTR [rdx]
	call	AddLineQueueX

; 1736 :           AddLineQueueX("cmp rax, rdx");

	lea	rcx, OFFSET FLAT:$SG11931
	call	AddLineQueueX

; 1737 :           AddLineQueueX("pop rdx");

	lea	rcx, OFFSET FLAT:$SG11932
	call	AddLineQueueX

; 1738 :           AddLineQueueX("je  %s", GetLabelStr(hll->plabels[0], buff));

	mov	rax, QWORD PTR [rbx+112]
	lea	rdx, OFFSET FLAT:$SG11141
	lea	rcx, QWORD PTR buff$[rsp]
	movzx	r8d, WORD PTR [rax]
	call	sprintf
	lea	rdx, QWORD PTR buff$[rsp]
	lea	rcx, OFFSET FLAT:$SG11933
	call	AddLineQueueX

; 1739 :           if (hll->flags & HLLF_DEFAULTOCCURED)

	test	BYTE PTR [rbx+76], 2

; 1740 :             AddLineQueueX("jmp  %s", GetLabelStr(hll->labels[LDEF], buff));

	lea	rdx, OFFSET FLAT:$SG11141
	lea	rcx, QWORD PTR buff$[rsp]
	je	SHORT $LN103@HllEndDir
	mov	r8d, DWORD PTR [rbx+28]
	call	sprintf
	lea	rcx, OFFSET FLAT:$SG11936
	jmp	$LN583@HllEndDir
$LN103@HllEndDir:

; 1741 :           else
; 1742 :             AddLineQueueX("jmp  %s", GetLabelStr(hll->labels[LEXIT], buff));

	mov	r8d, DWORD PTR [rbx+12]
	call	sprintf
	lea	rcx, OFFSET FLAT:$SG11937
	jmp	$LN583@HllEndDir
$LN100@HllEndDir:

; 1724 :           AddLineQueueX("cmp  eax,%d", hll->pcases[0]);

	mov	rax, QWORD PTR [rbx+104]
	lea	rcx, OFFSET FLAT:$SG11923
	mov	edx, DWORD PTR [rax]
	call	AddLineQueueX

; 1725 :           AddLineQueueX("je  %s", GetLabelStr(hll->plabels[0], buff));

	mov	rax, QWORD PTR [rbx+112]
	lea	rdx, OFFSET FLAT:$SG11141
	lea	rcx, QWORD PTR buff$[rsp]
	movzx	r8d, WORD PTR [rax]
	call	sprintf
	lea	rdx, QWORD PTR buff$[rsp]
	lea	rcx, OFFSET FLAT:$SG11924
	call	AddLineQueueX

; 1726 :           if (hll->flags & HLLF_DEFAULTOCCURED)

	test	BYTE PTR [rbx+76], 2

; 1727 :             AddLineQueueX("jmp  %s", GetLabelStr(hll->labels[LDEF], buff));

	lea	rdx, OFFSET FLAT:$SG11141
	lea	rcx, QWORD PTR buff$[rsp]
	je	SHORT $LN101@HllEndDir
	mov	r8d, DWORD PTR [rbx+28]
	call	sprintf
	lea	rcx, OFFSET FLAT:$SG11927
	jmp	$LN583@HllEndDir
$LN101@HllEndDir:

; 1728 :           else
; 1729 :             AddLineQueueX("jmp  %s", GetLabelStr(hll->labels[LEXIT], buff));

	mov	r8d, DWORD PTR [rbx+12]
	call	sprintf
	lea	rcx, OFFSET FLAT:$SG11928

; 1743 :         }
; 1744 : #endif
; 1745 :       }

	jmp	$LN583@HllEndDir
$LN96@HllEndDir:

; 1746 :       else if (hll->cflag == 2) {

	cmp	al, 2
	jne	$LN105@HllEndDir

; 1747 :         if ((ModuleInfo.Ofssize == USE32) || (hll->csize == 4)) {

	cmp	BYTE PTR ModuleInfo+404, 1
	je	$LN109@HllEndDir
	cmp	BYTE PTR [rbx+84], r14b
	je	$LN109@HllEndDir

; 1756 :         }
; 1757 : #if AMD64_SUPPORT
; 1758 :         else
; 1759 :         {
; 1760 :           AddLineQueueX("push rdx");

	lea	rcx, OFFSET FLAT:$SG11951
	call	AddLineQueueX

; 1761 :           AddLineQueueX("mov rdx, %q", hll->pcases64[0]);

	mov	rdx, QWORD PTR [rbx+152]
	lea	rcx, OFFSET FLAT:$SG11952
	mov	rdx, QWORD PTR [rdx]
	call	AddLineQueueX

; 1762 :           AddLineQueueX("cmp rax, rdx");

	lea	rcx, OFFSET FLAT:$SG11953
	call	AddLineQueueX

; 1763 :           AddLineQueueX("pop rdx");

	lea	rcx, OFFSET FLAT:$SG11954
	call	AddLineQueueX

; 1764 :           AddLineQueueX("je  %s", GetLabelStr(hll->plabels[0], buff));

	mov	rax, QWORD PTR [rbx+112]
	lea	rdx, OFFSET FLAT:$SG11141
	lea	rcx, QWORD PTR buff$[rsp]
	movzx	r8d, WORD PTR [rax]
	call	sprintf
	lea	rdx, QWORD PTR buff$[rsp]
	lea	rcx, OFFSET FLAT:$SG11955
	call	AddLineQueueX

; 1765 :           AddLineQueueX("push rdx");

	lea	rcx, OFFSET FLAT:$SG11956
	call	AddLineQueueX

; 1766 :           AddLineQueueX("mov rdx, %q", hll->pcases64[1]);

	mov	rdx, QWORD PTR [rbx+152]
	lea	rcx, OFFSET FLAT:$SG11957
	mov	rdx, QWORD PTR [rdx+8]
	call	AddLineQueueX

; 1767 :           AddLineQueueX("cmp rax, rdx");

	lea	rcx, OFFSET FLAT:$SG11958
	call	AddLineQueueX

; 1768 :           AddLineQueueX("pop rdx");

	lea	rcx, OFFSET FLAT:$SG11959
	call	AddLineQueueX

; 1769 :           AddLineQueueX("je  %s", GetLabelStr(hll->plabels[1], buff));

	mov	rax, QWORD PTR [rbx+112]
	lea	rdx, OFFSET FLAT:$SG11141
	lea	rcx, QWORD PTR buff$[rsp]
	movzx	r8d, WORD PTR [rax+2]
	call	sprintf
	lea	rdx, QWORD PTR buff$[rsp]
	lea	rcx, OFFSET FLAT:$SG11960
	call	AddLineQueueX

; 1770 :           if (hll->flags & HLLF_DEFAULTOCCURED)

	test	BYTE PTR [rbx+76], 2

; 1771 :             AddLineQueueX("jmp  %s", GetLabelStr(hll->labels[LDEF], buff));

	lea	rdx, OFFSET FLAT:$SG11141
	lea	rcx, QWORD PTR buff$[rsp]
	je	SHORT $LN112@HllEndDir
	mov	r8d, DWORD PTR [rbx+28]
	call	sprintf
	lea	rcx, OFFSET FLAT:$SG11963
	jmp	$LN583@HllEndDir
$LN112@HllEndDir:

; 1772 :           else
; 1773 :             AddLineQueueX("jmp  %s", GetLabelStr(hll->labels[LEXIT], buff));

	mov	r8d, DWORD PTR [rbx+12]
	call	sprintf
	lea	rcx, OFFSET FLAT:$SG11964
	jmp	$LN583@HllEndDir
$LN109@HllEndDir:

; 1748 :           AddLineQueueX("cmp  eax,%d", hll->pcases[0]);

	mov	rax, QWORD PTR [rbx+104]
	lea	rcx, OFFSET FLAT:$SG11943
	mov	edx, DWORD PTR [rax]
	call	AddLineQueueX

; 1749 :           AddLineQueueX("je  %s", GetLabelStr(hll->plabels[0], buff));

	mov	rax, QWORD PTR [rbx+112]
	lea	rdx, OFFSET FLAT:$SG11141
	lea	rcx, QWORD PTR buff$[rsp]
	movzx	r8d, WORD PTR [rax]
	call	sprintf
	lea	rdx, QWORD PTR buff$[rsp]
	lea	rcx, OFFSET FLAT:$SG11944
	call	AddLineQueueX

; 1750 :           AddLineQueueX("cmp  eax,%d", hll->pcases[1]);

	mov	rax, QWORD PTR [rbx+104]
	lea	rcx, OFFSET FLAT:$SG11945
	mov	edx, DWORD PTR [rax+4]
	call	AddLineQueueX

; 1751 :           AddLineQueueX("je  %s", GetLabelStr(hll->plabels[1], buff));

	mov	rax, QWORD PTR [rbx+112]
	lea	rdx, OFFSET FLAT:$SG11141
	lea	rcx, QWORD PTR buff$[rsp]
	movzx	r8d, WORD PTR [rax+2]
	call	sprintf
	lea	rdx, QWORD PTR buff$[rsp]
	lea	rcx, OFFSET FLAT:$SG11946
	call	AddLineQueueX

; 1752 :           if (hll->flags & HLLF_DEFAULTOCCURED)

	test	BYTE PTR [rbx+76], 2

; 1753 :             AddLineQueueX("jmp  %s", GetLabelStr(hll->labels[LDEF], buff));

	lea	rdx, OFFSET FLAT:$SG11141
	lea	rcx, QWORD PTR buff$[rsp]
	je	SHORT $LN110@HllEndDir
	mov	r8d, DWORD PTR [rbx+28]
	call	sprintf
	lea	rcx, OFFSET FLAT:$SG11949
	jmp	$LN583@HllEndDir
$LN110@HllEndDir:

; 1754 :           else
; 1755 :             AddLineQueueX("jmp  %s", GetLabelStr(hll->labels[LEXIT], buff));

	mov	r8d, DWORD PTR [rbx+12]
	call	sprintf
	lea	rcx, OFFSET FLAT:$SG11950

; 1774 :         }
; 1775 : #endif
; 1776 :       }

	jmp	$LN583@HllEndDir
$LN105@HllEndDir:

; 1777 :       else if (hll->cflag == 3) { 

	cmp	al, 3
	jne	$LN114@HllEndDir

; 1778 :         if ((ModuleInfo.Ofssize == USE32) || (hll->csize == 4)) {

	cmp	BYTE PTR ModuleInfo+404, 1
	je	$LN118@HllEndDir
	cmp	BYTE PTR [rbx+84], r14b
	je	$LN118@HllEndDir

; 1789 :         }
; 1790 : #if AMD64_SUPPORT
; 1791 :         else
; 1792 :         {
; 1793 :           AddLineQueueX("push rdx");

	lea	rcx, OFFSET FLAT:$SG11980
	call	AddLineQueueX

; 1794 :           AddLineQueueX("mov rdx, %q", hll->pcases64[0]);

	mov	rdx, QWORD PTR [rbx+152]
	lea	rcx, OFFSET FLAT:$SG11981
	mov	rdx, QWORD PTR [rdx]
	call	AddLineQueueX

; 1795 :           AddLineQueueX("cmp rax, rdx");

	lea	rcx, OFFSET FLAT:$SG11982
	call	AddLineQueueX

; 1796 :           AddLineQueueX("pop rdx");

	lea	rcx, OFFSET FLAT:$SG11983
	call	AddLineQueueX

; 1797 :           AddLineQueueX("je  %s", GetLabelStr(hll->plabels[0], buff));

	mov	rax, QWORD PTR [rbx+112]
	lea	rdx, OFFSET FLAT:$SG11141
	lea	rcx, QWORD PTR buff$[rsp]
	movzx	r8d, WORD PTR [rax]
	call	sprintf
	lea	rdx, QWORD PTR buff$[rsp]
	lea	rcx, OFFSET FLAT:$SG11984
	call	AddLineQueueX

; 1798 :           AddLineQueueX("push rdx");

	lea	rcx, OFFSET FLAT:$SG11985
	call	AddLineQueueX

; 1799 :           AddLineQueueX("mov rdx, %q", hll->pcases64[1]);

	mov	rdx, QWORD PTR [rbx+152]
	lea	rcx, OFFSET FLAT:$SG11986
	mov	rdx, QWORD PTR [rdx+8]
	call	AddLineQueueX

; 1800 :           AddLineQueueX("cmp rax, rdx");

	lea	rcx, OFFSET FLAT:$SG11987
	call	AddLineQueueX

; 1801 :           AddLineQueueX("pop rdx");

	lea	rcx, OFFSET FLAT:$SG11988
	call	AddLineQueueX

; 1802 :           AddLineQueueX("je  %s", GetLabelStr(hll->plabels[1], buff));

	mov	rax, QWORD PTR [rbx+112]
	lea	rdx, OFFSET FLAT:$SG11141
	lea	rcx, QWORD PTR buff$[rsp]
	movzx	r8d, WORD PTR [rax+2]
	call	sprintf
	lea	rdx, QWORD PTR buff$[rsp]
	lea	rcx, OFFSET FLAT:$SG11989
	call	AddLineQueueX

; 1803 :           AddLineQueueX("push rdx");

	lea	rcx, OFFSET FLAT:$SG11990
	call	AddLineQueueX

; 1804 :           AddLineQueueX("mov rdx, %q", hll->pcases64[2]);

	mov	rdx, QWORD PTR [rbx+152]
	lea	rcx, OFFSET FLAT:$SG11991
	mov	rdx, QWORD PTR [rdx+16]
	call	AddLineQueueX

; 1805 :           AddLineQueueX("cmp rax, rdx");

	lea	rcx, OFFSET FLAT:$SG11992
	call	AddLineQueueX

; 1806 :           AddLineQueueX("pop rdx");

	lea	rcx, OFFSET FLAT:$SG11993
	call	AddLineQueueX

; 1807 :           AddLineQueueX("je  %s", GetLabelStr(hll->plabels[2], buff));

	mov	rax, QWORD PTR [rbx+112]
	lea	rdx, OFFSET FLAT:$SG11141
	lea	rcx, QWORD PTR buff$[rsp]
	movzx	r8d, WORD PTR [rax+4]
	call	sprintf
	lea	rdx, QWORD PTR buff$[rsp]
	lea	rcx, OFFSET FLAT:$SG11994
	call	AddLineQueueX

; 1808 :           if (hll->flags & HLLF_DEFAULTOCCURED)

	test	BYTE PTR [rbx+76], 2

; 1809 :             AddLineQueueX("jmp  %s", GetLabelStr(hll->labels[LDEF], buff));

	lea	rdx, OFFSET FLAT:$SG11141
	lea	rcx, QWORD PTR buff$[rsp]
	je	SHORT $LN121@HllEndDir
	mov	r8d, DWORD PTR [rbx+28]
	call	sprintf
	lea	rcx, OFFSET FLAT:$SG11997
	jmp	$LN583@HllEndDir
$LN121@HllEndDir:

; 1810 :           else
; 1811 :             AddLineQueueX("jmp  %s", GetLabelStr(hll->labels[LEXIT], buff));

	mov	r8d, DWORD PTR [rbx+12]
	call	sprintf
	lea	rcx, OFFSET FLAT:$SG11998
	jmp	$LN583@HllEndDir
$LN118@HllEndDir:

; 1779 :           AddLineQueueX("cmp  eax,%d", hll->pcases[0]);

	mov	rax, QWORD PTR [rbx+104]
	lea	rcx, OFFSET FLAT:$SG11970
	mov	edx, DWORD PTR [rax]
	call	AddLineQueueX

; 1780 :           AddLineQueueX("je  %s", GetLabelStr(hll->plabels[0], buff));

	mov	rax, QWORD PTR [rbx+112]
	lea	rdx, OFFSET FLAT:$SG11141
	lea	rcx, QWORD PTR buff$[rsp]
	movzx	r8d, WORD PTR [rax]
	call	sprintf
	lea	rdx, QWORD PTR buff$[rsp]
	lea	rcx, OFFSET FLAT:$SG11971
	call	AddLineQueueX

; 1781 :           AddLineQueueX("cmp  eax,%d", hll->pcases[1]);

	mov	rax, QWORD PTR [rbx+104]
	lea	rcx, OFFSET FLAT:$SG11972
	mov	edx, DWORD PTR [rax+4]
	call	AddLineQueueX

; 1782 :           AddLineQueueX("je  %s", GetLabelStr(hll->plabels[1], buff));

	mov	rax, QWORD PTR [rbx+112]
	lea	rdx, OFFSET FLAT:$SG11141
	lea	rcx, QWORD PTR buff$[rsp]
	movzx	r8d, WORD PTR [rax+2]
	call	sprintf
	lea	rdx, QWORD PTR buff$[rsp]
	lea	rcx, OFFSET FLAT:$SG11973
	call	AddLineQueueX

; 1783 :           AddLineQueueX("cmp  eax,%d", hll->pcases[2]);

	mov	rax, QWORD PTR [rbx+104]
	lea	rcx, OFFSET FLAT:$SG11974
	mov	edx, DWORD PTR [rax+8]
	call	AddLineQueueX

; 1784 :           AddLineQueueX("je  %s", GetLabelStr(hll->plabels[2], buff));

	mov	rax, QWORD PTR [rbx+112]
	lea	rdx, OFFSET FLAT:$SG11141
	lea	rcx, QWORD PTR buff$[rsp]
	movzx	r8d, WORD PTR [rax+4]
	call	sprintf
	lea	rdx, QWORD PTR buff$[rsp]
	lea	rcx, OFFSET FLAT:$SG11975
	call	AddLineQueueX

; 1785 :           if (hll->flags & HLLF_DEFAULTOCCURED)

	test	BYTE PTR [rbx+76], 2

; 1786 :             AddLineQueueX("jmp  %s", GetLabelStr(hll->labels[LDEF], buff));

	lea	rdx, OFFSET FLAT:$SG11141
	lea	rcx, QWORD PTR buff$[rsp]
	je	SHORT $LN119@HllEndDir
	mov	r8d, DWORD PTR [rbx+28]
	call	sprintf
	lea	rcx, OFFSET FLAT:$SG11978
	jmp	$LN583@HllEndDir
$LN119@HllEndDir:

; 1787 :           else
; 1788 :             AddLineQueueX("jmp  %s", GetLabelStr(hll->labels[LEXIT], buff));

	mov	r8d, DWORD PTR [rbx+12]
	call	sprintf
	lea	rcx, OFFSET FLAT:$SG11979

; 1812 :         }
; 1813 : #endif
; 1814 :       }

	jmp	$LN583@HllEndDir
$LN114@HllEndDir:

; 1815 :       else if (hll->cflag == 4) {

	cmp	al, r14b
	jne	$LN123@HllEndDir

; 1816 :         if (hll->flags & HLLF_DEFAULTOCCURED)

	test	BYTE PTR [rbx+76], 2

; 1817 :           GetLabelStr(hll->labels[LDEF], buff);

	lea	rdx, OFFSET FLAT:$SG11141
	lea	rcx, QWORD PTR buff$[rsp]
	je	SHORT $LN125@HllEndDir
	mov	r8d, DWORD PTR [rbx+28]
	jmp	SHORT $LN584@HllEndDir
$LN125@HllEndDir:

; 1818 :         else {
; 1819 :           GetLabelStr(hll->labels[LEXIT], buff);

	mov	r8d, DWORD PTR [rbx+12]
$LN584@HllEndDir:
	call	sprintf

; 1820 :         }
; 1821 :         if (hll->csize == 4) {

	cmp	BYTE PTR [rbx+84], r14b
	jne	SHORT $LN127@HllEndDir

; 1822 :           AddLineQueueX("cmp eax,%d", hll->mincase);

	mov	edx, DWORD PTR [rbx+92]
	lea	rcx, OFFSET FLAT:$SG12005
	call	AddLineQueueX

; 1823 :           AddLineQueueX("jl  %s", buff);

	lea	rdx, QWORD PTR buff$[rsp]
	lea	rcx, OFFSET FLAT:$SG12006
	call	AddLineQueueX

; 1824 :           AddLineQueueX("cmp eax,%d", hll->maxcase);

	mov	edx, DWORD PTR [rbx+88]
	lea	rcx, OFFSET FLAT:$SG12007
	call	AddLineQueueX

; 1825 :           AddLineQueueX("ja  %s", buff);

	lea	rcx, OFFSET FLAT:$SG12008

; 1826 :         }

	jmp	$LN585@HllEndDir
$LN127@HllEndDir:

; 1827 : #if AMD64_SUPPORT
; 1828 :         else {
; 1829 :           AddLineQueueX("push	rax");

	lea	rcx, OFFSET FLAT:$SG12009
	call	AddLineQueueX

; 1830 :           AddLineQueueX("push	rdx");

	lea	rcx, OFFSET FLAT:$SG12010
	call	AddLineQueueX

; 1831 :           AddLineQueueX("mov rdx, %q", hll->mincase64);

	mov	rdx, QWORD PTR [rbx+136]
	lea	rcx, OFFSET FLAT:$SG12011
	call	AddLineQueueX

; 1832 :           AddLineQueueX("cmp rax, rdx");

	lea	rcx, OFFSET FLAT:$SG12012
	call	AddLineQueueX

; 1833 :           AddLineQueueX("pop	rdx");

	lea	rcx, OFFSET FLAT:$SG12013
	call	AddLineQueueX

; 1834 :           AddLineQueueX("pop	rax");

	lea	rcx, OFFSET FLAT:$SG12014
	call	AddLineQueueX

; 1835 :           AddLineQueueX("jl  %s", buff);

	lea	rdx, QWORD PTR buff$[rsp]
	lea	rcx, OFFSET FLAT:$SG12015
	call	AddLineQueueX

; 1836 :           AddLineQueueX("mov rdx, %q", hll->maxcase64);

	mov	rdx, QWORD PTR [rbx+128]
	lea	rcx, OFFSET FLAT:$SG12016
	call	AddLineQueueX

; 1837 :           AddLineQueueX("cmp rax, rdx");

	lea	rcx, OFFSET FLAT:$SG12017
	call	AddLineQueueX

; 1838 :           AddLineQueueX("pop	rdx");

	lea	rcx, OFFSET FLAT:$SG12018
	call	AddLineQueueX

; 1839 :           AddLineQueueX("pop	rax");

	lea	rcx, OFFSET FLAT:$SG12019
	call	AddLineQueueX

; 1840 :           AddLineQueueX("ja  %s", buff);

	lea	rcx, OFFSET FLAT:$SG12020
$LN585@HllEndDir:
	lea	rdx, QWORD PTR buff$[rsp]
	call	AddLineQueueX

; 1841 :         }
; 1842 : #endif
; 1843 :         if (ModuleInfo.Ofssize == USE32) {

	cmp	BYTE PTR ModuleInfo+404, 1

; 1844 :           GetLabelStr(hll->labels[LDATA2], buff);

	lea	rdx, OFFSET FLAT:$SG11141
	mov	r8d, DWORD PTR [rbx+36]
	lea	rcx, QWORD PTR buff$[rsp]
	jne	SHORT $LN129@HllEndDir
	call	sprintf

; 1845 :           AddLineQueueX("push	 eax");

	lea	rcx, OFFSET FLAT:$SG12023
	call	AddLineQueueX

; 1846 :           AddLineQueueX("movzx eax,byte ptr %s[%r - %d]", buff, T_EAX, hll->mincase);

	mov	r9d, DWORD PTR [rbx+92]
	lea	rdx, QWORD PTR buff$[rsp]
	mov	r8d, 17
	lea	rcx, OFFSET FLAT:$SG12024
	call	AddLineQueueX

; 1847 :           GetLabelStr(hll->labels[LDATA1], buff);

	mov	r8d, DWORD PTR [rbx+32]
	lea	rdx, OFFSET FLAT:$SG11141
	lea	rcx, QWORD PTR buff$[rsp]
	call	sprintf

; 1848 :           AddLineQueueX("mov   eax,%s[%r*4]", buff, T_EAX);

	mov	r8d, 17
	lea	rdx, QWORD PTR buff$[rsp]
	lea	rcx, OFFSET FLAT:$SG12025
	call	AddLineQueueX

; 1849 :           AddLineQueueX("xchg	 eax,[esp]");

	lea	rcx, OFFSET FLAT:$SG12026
	call	AddLineQueueX

; 1850 :           AddLineQueueX("retn");

	lea	rcx, OFFSET FLAT:$SG12027
	call	AddLineQueueX

; 1851 :         }

	jmp	$LN161@HllEndDir
$LN129@HllEndDir:

; 1852 : #if AMD64_SUPPORT
; 1853 :         else {
; 1854 :           if (hll->csize == 4) {

	cmp	BYTE PTR [rbx+84], r14b
	jne	$LN131@HllEndDir

; 1855 :             GetLabelStr(hll->labels[LDATA2], buff);

	call	sprintf

; 1856 :             AddLineQueueX("push	rax");

	lea	rcx, OFFSET FLAT:$SG12030
	call	AddLineQueueX

; 1857 :             AddLineQueueX("push	rdx");

	lea	rcx, OFFSET FLAT:$SG12031
	call	AddLineQueueX

; 1858 :             AddLineQueueX("lea   rdx,%s", buff);

	lea	rdx, QWORD PTR buff$[rsp]
	lea	rcx, OFFSET FLAT:$SG12032
	call	AddLineQueueX

; 1859 :             AddLineQueueX("movzx edx,byte ptr[rdx+rax-%u]", hll->mincase);

	mov	edx, DWORD PTR [rbx+92]
	lea	rcx, OFFSET FLAT:$SG12033
	call	AddLineQueueX

; 1860 :             GetLabelStr(hll->labels[LDATA1], buff);

	mov	r8d, DWORD PTR [rbx+32]
	lea	rdx, OFFSET FLAT:$SG11141
	lea	rcx, QWORD PTR buff$[rsp]
	call	sprintf

; 1861 :             AddLineQueueX("lea   rax,%s", buff);

	lea	rdx, QWORD PTR buff$[rsp]
	lea	rcx, OFFSET FLAT:$SG12034
	call	AddLineQueueX

; 1862 :             AddLineQueueX("mov   rax, qword ptr[rax+rdx*8]");

	lea	rcx, OFFSET FLAT:$SG12035
	call	AddLineQueueX

; 1863 :             AddLineQueueX("pop   rdx");

	lea	rcx, OFFSET FLAT:$SG12036
	call	AddLineQueueX

; 1864 :             AddLineQueueX("xchg	 rax,[rsp]");

	lea	rcx, OFFSET FLAT:$SG12037
	call	AddLineQueueX

; 1865 :             AddLineQueueX("retn");

	lea	rcx, OFFSET FLAT:$SG12038
	call	AddLineQueueX

; 1866 :           }

	jmp	$LN161@HllEndDir
$LN131@HllEndDir:

; 1867 :           else {
; 1868 :             GetLabelStr(hll->labels[LDATA2], buff);

	call	sprintf

; 1869 :             AddLineQueueX("push	rax");

	lea	rcx, OFFSET FLAT:$SG12039
	call	AddLineQueueX

; 1870 :             AddLineQueueX("push	rdx");

	lea	rcx, OFFSET FLAT:$SG12040
	call	AddLineQueueX

; 1871 :             AddLineQueueX("lea   rdx,%s", buff);

	lea	rdx, QWORD PTR buff$[rsp]
	lea	rcx, OFFSET FLAT:$SG12041
	call	AddLineQueueX

; 1872 :             AddLineQueueX("movzx rdx,byte ptr[rdx+rax-%q]", hll->mincase64);

	mov	rdx, QWORD PTR [rbx+136]
	lea	rcx, OFFSET FLAT:$SG12042
	call	AddLineQueueX

; 1873 :             GetLabelStr(hll->labels[LDATA1], buff);

	mov	r8d, DWORD PTR [rbx+32]
	lea	rdx, OFFSET FLAT:$SG11141
	lea	rcx, QWORD PTR buff$[rsp]
	call	sprintf

; 1874 :             AddLineQueueX("lea   rax,%s", buff);

	lea	rdx, QWORD PTR buff$[rsp]
	lea	rcx, OFFSET FLAT:$SG12043
	call	AddLineQueueX

; 1875 :             AddLineQueueX("mov   rax, qword ptr[rax+rdx*8]");

	lea	rcx, OFFSET FLAT:$SG12044
	call	AddLineQueueX

; 1876 :             AddLineQueueX("pop   rdx");

	lea	rcx, OFFSET FLAT:$SG12045
	call	AddLineQueueX

; 1877 :             AddLineQueueX("xchg	 rax,[rsp]");

	lea	rcx, OFFSET FLAT:$SG12046
	call	AddLineQueueX

; 1878 :             AddLineQueueX("retn");

	lea	rcx, OFFSET FLAT:$SG12047
	call	AddLineQueueX

; 1879 :           }
; 1880 :         }
; 1881 : #endif
; 1882 :       }

	jmp	$LN161@HllEndDir
$LN123@HllEndDir:

; 1883 :       else if (hll->cflag == 7) {

	cmp	al, 7
	jne	$LN133@HllEndDir

; 1884 :         if (hll->flags & HLLF_DEFAULTOCCURED)

	test	BYTE PTR [rbx+76], 2

; 1885 :           GetLabelStr(hll->labels[LDEF], buff);

	lea	rdx, OFFSET FLAT:$SG11141
	lea	rcx, QWORD PTR buff$[rsp]
	je	SHORT $LN135@HllEndDir
	mov	r8d, DWORD PTR [rbx+28]
	jmp	SHORT $LN586@HllEndDir
$LN135@HllEndDir:

; 1886 :         else {
; 1887 :           GetLabelStr(hll->labels[LEXIT], buff);

	mov	r8d, DWORD PTR [rbx+12]
$LN586@HllEndDir:
	call	sprintf

; 1888 :         }
; 1889 :         if (hll->csize == 4) {

	cmp	BYTE PTR [rbx+84], r14b
	jne	SHORT $LN137@HllEndDir

; 1890 :           AddLineQueueX("cmp eax,%d", hll->mincase);

	mov	edx, DWORD PTR [rbx+92]
	lea	rcx, OFFSET FLAT:$SG12054
	call	AddLineQueueX

; 1891 :           AddLineQueueX("jl  %s", buff);

	lea	rdx, QWORD PTR buff$[rsp]
	lea	rcx, OFFSET FLAT:$SG12055
	call	AddLineQueueX

; 1892 :           AddLineQueueX("cmp eax,%d", hll->maxcase);

	mov	edx, DWORD PTR [rbx+88]
	lea	rcx, OFFSET FLAT:$SG12056
	call	AddLineQueueX

; 1893 :           AddLineQueueX("ja  %s", buff);

	lea	rcx, OFFSET FLAT:$SG12057

; 1894 :         }

	jmp	$LN587@HllEndDir
$LN137@HllEndDir:

; 1895 : #if AMD64_SUPPORT
; 1896 :         else {
; 1897 :           AddLineQueueX("push	rax");

	lea	rcx, OFFSET FLAT:$SG12058
	call	AddLineQueueX

; 1898 :           AddLineQueueX("push	rdx");

	lea	rcx, OFFSET FLAT:$SG12059
	call	AddLineQueueX

; 1899 :           AddLineQueueX("mov rdx, %q", hll->mincase64);

	mov	rdx, QWORD PTR [rbx+136]
	lea	rcx, OFFSET FLAT:$SG12060
	call	AddLineQueueX

; 1900 :           AddLineQueueX("cmp rax, rdx");

	lea	rcx, OFFSET FLAT:$SG12061
	call	AddLineQueueX

; 1901 :           AddLineQueueX("pop	rdx");

	lea	rcx, OFFSET FLAT:$SG12062
	call	AddLineQueueX

; 1902 :           AddLineQueueX("pop	rax");

	lea	rcx, OFFSET FLAT:$SG12063
	call	AddLineQueueX

; 1903 :           AddLineQueueX("jl  %s", buff);

	lea	rdx, QWORD PTR buff$[rsp]
	lea	rcx, OFFSET FLAT:$SG12064
	call	AddLineQueueX

; 1904 :           AddLineQueueX("push	rax");

	lea	rcx, OFFSET FLAT:$SG12065
	call	AddLineQueueX

; 1905 :           AddLineQueueX("push	rdx");

	lea	rcx, OFFSET FLAT:$SG12066
	call	AddLineQueueX

; 1906 :           AddLineQueueX("mov rdx, %q", hll->maxcase64);

	mov	rdx, QWORD PTR [rbx+128]
	lea	rcx, OFFSET FLAT:$SG12067
	call	AddLineQueueX

; 1907 :           AddLineQueueX("cmp rax, rdx");

	lea	rcx, OFFSET FLAT:$SG12068
	call	AddLineQueueX

; 1908 :           AddLineQueueX("pop	rdx");

	lea	rcx, OFFSET FLAT:$SG12069
	call	AddLineQueueX

; 1909 :           AddLineQueueX("pop	rax");

	lea	rcx, OFFSET FLAT:$SG12070
	call	AddLineQueueX

; 1910 :           AddLineQueueX("ja  %s", buff);

	lea	rcx, OFFSET FLAT:$SG12071
$LN587@HllEndDir:
	lea	rdx, QWORD PTR buff$[rsp]
	call	AddLineQueueX

; 1911 :         }
; 1912 : #endif
; 1913 :         if (ModuleInfo.Ofssize == USE32) {

	cmp	BYTE PTR ModuleInfo+404, 1
	jne	$LN139@HllEndDir

; 1914 :           GetLabelStr(hll->labels[LDATA2], buff);

	mov	r8d, DWORD PTR [rbx+36]
	lea	rdx, OFFSET FLAT:$SG11141
	lea	rcx, QWORD PTR buff$[rsp]
	call	sprintf

; 1915 :           AddLineQueueX("push	 eax");

	lea	rcx, OFFSET FLAT:$SG12074
	call	AddLineQueueX

; 1916 :           AddLineQueueX("sub   eax,%u", hll->mincase);

	mov	edx, DWORD PTR [rbx+92]
	lea	rcx, OFFSET FLAT:$SG12075
	call	AddLineQueueX

; 1917 :           AddLineQueueX("movzx eax,word ptr %s[%r*2]", buff, T_EAX);

	mov	r8d, 17
	lea	rdx, QWORD PTR buff$[rsp]
	lea	rcx, OFFSET FLAT:$SG12076
	call	AddLineQueueX

; 1918 :           GetLabelStr(hll->labels[LDATA1], buff);

	mov	r8d, DWORD PTR [rbx+32]
	lea	rdx, OFFSET FLAT:$SG11141
	lea	rcx, QWORD PTR buff$[rsp]
	call	sprintf

; 1919 :           AddLineQueueX("mov   eax,%s[%r*4]", buff, T_EAX);

	mov	r8d, 17
	lea	rdx, QWORD PTR buff$[rsp]
	lea	rcx, OFFSET FLAT:$SG12077
	call	AddLineQueueX

; 1920 :           AddLineQueueX("xchg	 eax,[esp]");

	lea	rcx, OFFSET FLAT:$SG12078
	call	AddLineQueueX

; 1921 :           AddLineQueueX("retn");

	lea	rcx, OFFSET FLAT:$SG12079
	call	AddLineQueueX

; 1922 :         }

	jmp	$LN161@HllEndDir
$LN139@HllEndDir:

; 1923 : #if AMD64_SUPPORT
; 1924 :         else {
; 1925 :           AddLineQueueX("push	rax");

	lea	rcx, OFFSET FLAT:$SG12080
	call	AddLineQueueX

; 1926 :           AddLineQueueX("push	rdx");

	lea	rcx, OFFSET FLAT:$SG12081
	call	AddLineQueueX

; 1927 :           if (hll->csize == 4) {
; 1928 :             GetLabelStr(hll->labels[LDATA2], buff);

	lea	rdx, OFFSET FLAT:$SG11141
	mov	r8d, DWORD PTR [rbx+36]
	lea	rcx, QWORD PTR buff$[rsp]
	cmp	BYTE PTR [rbx+84], r14b
	jne	$LN141@HllEndDir
	call	sprintf

; 1929 :             AddLineQueueX("lea   rdx,%s", buff);

	lea	rdx, QWORD PTR buff$[rsp]
	lea	rcx, OFFSET FLAT:$SG12084
	call	AddLineQueueX

; 1930 :             AddLineQueueX("sub   eax,%u", hll->mincase);

	mov	edx, DWORD PTR [rbx+92]
	lea	rcx, OFFSET FLAT:$SG12085
	call	AddLineQueueX

; 1931 :             AddLineQueueX("movzx rdx,word ptr[rdx+rax*2]");

	lea	rcx, OFFSET FLAT:$SG12086
	call	AddLineQueueX

; 1932 :             GetLabelStr(hll->labels[LDATA1], buff);

	mov	r8d, DWORD PTR [rbx+32]
	lea	rdx, OFFSET FLAT:$SG11141
	lea	rcx, QWORD PTR buff$[rsp]
	call	sprintf

; 1933 :             AddLineQueueX("lea   rax,%s", buff);

	lea	rdx, QWORD PTR buff$[rsp]
	lea	rcx, OFFSET FLAT:$SG12087
	call	AddLineQueueX

; 1934 :             AddLineQueueX("mov   rax, qword ptr[rax+rdx*8]");

	lea	rcx, OFFSET FLAT:$SG12088
	call	AddLineQueueX

; 1935 :             AddLineQueueX("pop   rdx");

	lea	rcx, OFFSET FLAT:$SG12089
	call	AddLineQueueX

; 1936 :             AddLineQueueX("xchg	 rax,[rsp]");

	lea	rcx, OFFSET FLAT:$SG12090
	call	AddLineQueueX

; 1937 :             AddLineQueueX("retn");

	lea	rcx, OFFSET FLAT:$SG12091
	call	AddLineQueueX

; 1938 :           }

	jmp	$LN161@HllEndDir
$LN141@HllEndDir:

; 1939 :           else {
; 1940 :             GetLabelStr(hll->labels[LDATA2], buff);

	call	sprintf

; 1941 :             AddLineQueueX("lea   rdx,%s", buff);

	lea	rdx, QWORD PTR buff$[rsp]
	lea	rcx, OFFSET FLAT:$SG12092
	call	AddLineQueueX

; 1942 :             AddLineQueueX("sub   rax,%u", hll->mincase64);

	mov	rdx, QWORD PTR [rbx+136]
	lea	rcx, OFFSET FLAT:$SG12093
	call	AddLineQueueX

; 1943 :             AddLineQueueX("movzx rdx,word ptr[rdx+rax*2]");

	lea	rcx, OFFSET FLAT:$SG12094
	call	AddLineQueueX

; 1944 :             GetLabelStr(hll->labels[LDATA1], buff);

	mov	r8d, DWORD PTR [rbx+32]
	lea	rdx, OFFSET FLAT:$SG11141
	lea	rcx, QWORD PTR buff$[rsp]
	call	sprintf

; 1945 :             AddLineQueueX("lea   rax,%s", buff);

	lea	rdx, QWORD PTR buff$[rsp]
	lea	rcx, OFFSET FLAT:$SG12095
	call	AddLineQueueX

; 1946 :             AddLineQueueX("mov   rax, qword ptr[rax+rdx*8]");

	lea	rcx, OFFSET FLAT:$SG12096
	call	AddLineQueueX

; 1947 :             AddLineQueueX("pop   rdx");

	lea	rcx, OFFSET FLAT:$SG12097
	call	AddLineQueueX

; 1948 :             AddLineQueueX("xchg	 rax,[rsp]");

	lea	rcx, OFFSET FLAT:$SG12098
	call	AddLineQueueX

; 1949 :             AddLineQueueX("retn");

	lea	rcx, OFFSET FLAT:$SG12099
	call	AddLineQueueX

; 1950 :           }
; 1951 :         }
; 1952 : #endif
; 1953 :       }

	jmp	$LN161@HllEndDir
$LN133@HllEndDir:

; 1954 :       else if (hll->cflag == 6) {

	cmp	al, 6
	jne	$LN143@HllEndDir

; 1955 :         if (hll->flags & HLLF_DEFAULTOCCURED)

	test	BYTE PTR [rbx+76], 2

; 1956 :           GetLabelStr(hll->labels[LDEF], buff);

	lea	rdx, OFFSET FLAT:$SG11141
	lea	rcx, QWORD PTR buff$[rsp]
	je	SHORT $LN145@HllEndDir
	mov	r8d, DWORD PTR [rbx+28]
	jmp	SHORT $LN588@HllEndDir
$LN145@HllEndDir:

; 1957 :         else {
; 1958 :           GetLabelStr(hll->labels[LEXIT], buff);

	mov	r8d, DWORD PTR [rbx+12]
$LN588@HllEndDir:
	call	sprintf

; 1959 :         }
; 1960 :         if (hll->csize == 4) {

	cmp	BYTE PTR [rbx+84], r14b
	jne	SHORT $LN147@HllEndDir

; 1961 :           AddLineQueueX("cmp eax,%d", hll->mincase);

	mov	edx, DWORD PTR [rbx+92]
	lea	rcx, OFFSET FLAT:$SG12106
	call	AddLineQueueX

; 1962 :           AddLineQueueX("jl  %s", buff);

	lea	rdx, QWORD PTR buff$[rsp]
	lea	rcx, OFFSET FLAT:$SG12107
	call	AddLineQueueX

; 1963 :           AddLineQueueX("cmp eax,%d", hll->maxcase);

	mov	edx, DWORD PTR [rbx+88]
	lea	rcx, OFFSET FLAT:$SG12108
	call	AddLineQueueX

; 1964 :           AddLineQueueX("ja  %s", buff);

	lea	rcx, OFFSET FLAT:$SG12109

; 1965 :         }

	jmp	$LN589@HllEndDir
$LN147@HllEndDir:

; 1966 : #if AMD64_SUPPORT
; 1967 :         else {
; 1968 :           AddLineQueueX("push	rax");

	lea	rcx, OFFSET FLAT:$SG12110
	call	AddLineQueueX

; 1969 :           AddLineQueueX("push	rdx");

	lea	rcx, OFFSET FLAT:$SG12111
	call	AddLineQueueX

; 1970 :           AddLineQueueX("mov rdx, %q", hll->mincase64);

	mov	rdx, QWORD PTR [rbx+136]
	lea	rcx, OFFSET FLAT:$SG12112
	call	AddLineQueueX

; 1971 :           AddLineQueueX("cmp rax, rdx");

	lea	rcx, OFFSET FLAT:$SG12113
	call	AddLineQueueX

; 1972 :           AddLineQueueX("pop	rdx");

	lea	rcx, OFFSET FLAT:$SG12114
	call	AddLineQueueX

; 1973 :           AddLineQueueX("pop	rax");

	lea	rcx, OFFSET FLAT:$SG12115
	call	AddLineQueueX

; 1974 :           AddLineQueueX("jl  %s", buff);

	lea	rdx, QWORD PTR buff$[rsp]
	lea	rcx, OFFSET FLAT:$SG12116
	call	AddLineQueueX

; 1975 :           AddLineQueueX("push	rax");

	lea	rcx, OFFSET FLAT:$SG12117
	call	AddLineQueueX

; 1976 :           AddLineQueueX("push	rdx");

	lea	rcx, OFFSET FLAT:$SG12118
	call	AddLineQueueX

; 1977 :           AddLineQueueX("mov rdx, %q", hll->maxcase64);

	mov	rdx, QWORD PTR [rbx+128]
	lea	rcx, OFFSET FLAT:$SG12119
	call	AddLineQueueX

; 1978 :           AddLineQueueX("cmp rax, rdx");

	lea	rcx, OFFSET FLAT:$SG12120
	call	AddLineQueueX

; 1979 :           AddLineQueueX("pop	rdx");

	lea	rcx, OFFSET FLAT:$SG12121
	call	AddLineQueueX

; 1980 :           AddLineQueueX("pop	rax");

	lea	rcx, OFFSET FLAT:$SG12122
	call	AddLineQueueX

; 1981 :           AddLineQueueX("ja  %s", buff);

	lea	rcx, OFFSET FLAT:$SG12123
$LN589@HllEndDir:
	lea	rdx, QWORD PTR buff$[rsp]
	call	AddLineQueueX

; 1982 :         }
; 1983 : #endif 
; 1984 : 
; 1985 :         if (ModuleInfo.Ofssize == USE32) {

	cmp	BYTE PTR ModuleInfo+404, 1
	jne	SHORT $LN149@HllEndDir

; 1986 :           AddLineQueueX("push	 eax");

	lea	rcx, OFFSET FLAT:$SG12126
	call	AddLineQueueX

; 1987 :           AddLineQueueX("sub eax,%d", hll->mincase);

	mov	edx, DWORD PTR [rbx+92]
	lea	rcx, OFFSET FLAT:$SG12127
	call	AddLineQueueX

; 1988 :           AddLineQueueX("mov   eax,%s[%r*4]", GetLabelStr(hll->labels[LDATA1], buff), T_EAX);

	mov	r8d, DWORD PTR [rbx+32]
	lea	rdx, OFFSET FLAT:$SG11141
	lea	rcx, QWORD PTR buff$[rsp]
	call	sprintf
	mov	r8d, 17
	lea	rdx, QWORD PTR buff$[rsp]
	lea	rcx, OFFSET FLAT:$SG12128
	call	AddLineQueueX

; 1989 :           AddLineQueueX("xchg	 eax,[esp]");

	lea	rcx, OFFSET FLAT:$SG12129
	call	AddLineQueueX

; 1990 :           AddLineQueueX("retn");

	lea	rcx, OFFSET FLAT:$SG12130
	call	AddLineQueueX

; 1991 :         }

	jmp	$LN161@HllEndDir
$LN149@HllEndDir:

; 1992 : #if AMD64_SUPPORT
; 1993 :         else {
; 1994 :           AddLineQueueX("push	rax");

	lea	rcx, OFFSET FLAT:$SG12131
	call	AddLineQueueX

; 1995 :           AddLineQueueX("push	rdx");

	lea	rcx, OFFSET FLAT:$SG12132
	call	AddLineQueueX

; 1996 :           if (hll->csize == 4)

	cmp	BYTE PTR [rbx+84], r14b
	jne	SHORT $LN151@HllEndDir

; 1997 :             AddLineQueueX("sub   eax,%d", hll->mincase);

	mov	edx, DWORD PTR [rbx+92]
	lea	rcx, OFFSET FLAT:$SG12135
	call	AddLineQueueX
	jmp	SHORT $LN152@HllEndDir
$LN151@HllEndDir:

; 1998 :           else{
; 1999 :             AddLineQueueX("mov rdx,%q", hll->mincase64);

	mov	rdx, QWORD PTR [rbx+136]
	lea	rcx, OFFSET FLAT:$SG12136
	call	AddLineQueueX

; 2000 :             AddLineQueueX("sub rax,rdx");

	lea	rcx, OFFSET FLAT:$SG12137
	call	AddLineQueueX
$LN152@HllEndDir:

; 2001 :           }
; 2002 :           AddLineQueueX("lea   rdx,%s", GetLabelStr(hll->labels[LDATA1], buff));

	mov	r8d, DWORD PTR [rbx+32]
	lea	rdx, OFFSET FLAT:$SG11141
	lea	rcx, QWORD PTR buff$[rsp]
	call	sprintf
	lea	rdx, QWORD PTR buff$[rsp]
	lea	rcx, OFFSET FLAT:$SG12138
	call	AddLineQueueX

; 2003 :           AddLineQueueX("mov   rax, qword ptr[rdx+rax*8]");

	lea	rcx, OFFSET FLAT:$SG12139
	call	AddLineQueueX

; 2004 :           AddLineQueueX("pop   rdx");

	lea	rcx, OFFSET FLAT:$SG12140
	call	AddLineQueueX

; 2005 :           AddLineQueueX("xchg	 rax,[rsp]");

	lea	rcx, OFFSET FLAT:$SG12141
	call	AddLineQueueX

; 2006 :           AddLineQueueX("retn");

	lea	rcx, OFFSET FLAT:$SG12142
	call	AddLineQueueX

; 2007 :         }
; 2008 : #endif
; 2009 :       }

	jmp	$LN161@HllEndDir
$LN143@HllEndDir:

; 2010 :       /* simple binary tree
; 2011 :       while (low <= high) {
; 2012 :       int mid = (low + high) / 2;
; 2013 :       if (hll->pcases[mid] == hll->casecnt)
; 2014 :       return mid;
; 2015 :       else if (hll->pcases[mid] < x)
; 2016 :       low = mid + 1;
; 2017 :       else high = mid - 1;
; 2018 :       }*/
; 2019 :       else if (hll->cflag == 5) {

	cmp	al, 5
	jne	$LN161@HllEndDir

; 2020 :         if (ModuleInfo.Ofssize == USE32) {

	cmp	BYTE PTR ModuleInfo+404, 1
	jne	$LN154@HllEndDir

; 2021 :           AddLineQueueX("push	eax");

	lea	rcx, OFFSET FLAT:$SG12146
	call	AddLineQueueX

; 2022 :           AddLineQueueX("push	edx");

	lea	rcx, OFFSET FLAT:$SG12147
	call	AddLineQueueX

; 2023 :           AddLineQueueX("push	ecx");

	lea	rcx, OFFSET FLAT:$SG12148
	call	AddLineQueueX

; 2024 :           AddLineQueueX("push	ebx");

	lea	rcx, OFFSET FLAT:$SG12149
	call	AddLineQueueX

; 2025 :           AddLineQueueX("push	esi");

	lea	rcx, OFFSET FLAT:$SG12150
	call	AddLineQueueX

; 2026 :           AddLineQueueX("push	edi");

	lea	rcx, OFFSET FLAT:$SG12151
	call	AddLineQueueX

; 2027 :           AddLineQueueX("mov  esi,eax");

	lea	rcx, OFFSET FLAT:$SG12152
	call	AddLineQueueX

; 2028 :           AddLineQueueX("mov  ebx,%d", hll->casecnt - 1);//int high = len - 1;

	mov	edx, DWORD PTR [rbx+80]
	lea	rcx, OFFSET FLAT:$SG12153
	dec	edx
	call	AddLineQueueX

; 2029 :           AddLineQueueX("xor  ecx,ecx");//int low = 0;

	lea	rcx, OFFSET FLAT:$SG12154
	call	AddLineQueueX

; 2030 :           AddLineQueueX("lea  edi,%s", GetLabelStr(hll->labels[LDATA2], buff));//int hll->pcases

	mov	r8d, DWORD PTR [rbx+36]
	lea	rdx, OFFSET FLAT:$SG11141
	lea	rcx, QWORD PTR buff$[rsp]
	call	sprintf
	lea	rdx, QWORD PTR buff$[rsp]
	lea	rcx, OFFSET FLAT:$SG12155
	call	AddLineQueueX

; 2031 :           if (hll->flags & HLLF_DEFAULTOCCURED)

	test	BYTE PTR [rbx+76], 2

; 2032 :             AddLineQueueX("js  %s", GetLabelStr(hll->labels[LDEF], buff));

	lea	rdx, OFFSET FLAT:$SG11141
	lea	rcx, QWORD PTR buff$[rsp]
	je	SHORT $LN156@HllEndDir
	mov	r8d, DWORD PTR [rbx+28]
	call	sprintf
	lea	rcx, OFFSET FLAT:$SG12158
	jmp	$LN583@HllEndDir
$LN156@HllEndDir:

; 2033 :           else
; 2034 :             AddLineQueueX("js  %s", GetLabelStr(hll->labels[LEXIT], buff));

	mov	r8d, DWORD PTR [rbx+12]
	call	sprintf
	lea	rcx, OFFSET FLAT:$SG12159

; 2035 : 
; 2036 :         }

	jmp	$LN583@HllEndDir
$LN154@HllEndDir:

; 2037 : #if AMD64_SUPPORT
; 2038 :         else {
; 2039 :           AddLineQueueX("push	rax");

	lea	rcx, OFFSET FLAT:$SG12160
	call	AddLineQueueX

; 2040 :           AddLineQueueX("push	rdx");

	lea	rcx, OFFSET FLAT:$SG12161
	call	AddLineQueueX

; 2041 :           AddLineQueueX("push	rcx");

	lea	rcx, OFFSET FLAT:$SG12162
	call	AddLineQueueX

; 2042 :           AddLineQueueX("push	rbx");

	lea	rcx, OFFSET FLAT:$SG12163
	call	AddLineQueueX

; 2043 :           AddLineQueueX("push	rsi");

	lea	rcx, OFFSET FLAT:$SG12164
	call	AddLineQueueX

; 2044 :           AddLineQueueX("push	rdi");

	lea	rcx, OFFSET FLAT:$SG12165
	call	AddLineQueueX

; 2045 :           if (hll->csize == 4) {

	cmp	BYTE PTR [rbx+84], r14b
	jne	SHORT $LN158@HllEndDir

; 2046 :             AddLineQueueX("mov  esi,eax");

	lea	rcx, OFFSET FLAT:$SG12168
	call	AddLineQueueX

; 2047 :             AddLineQueueX("mov  ebx,%d", hll->casecnt - 1);//int high = len - 1;

	mov	edx, DWORD PTR [rbx+80]
	lea	rcx, OFFSET FLAT:$SG12169
	dec	edx
	call	AddLineQueueX

; 2048 :             AddLineQueueX("xor  ecx,ecx");//int low = 0;

	lea	rcx, OFFSET FLAT:$SG12170
	call	AddLineQueueX

; 2049 :             AddLineQueueX("lea  rdi,%s", GetLabelStr(hll->labels[LDATA2], buff));//int hll->pcases

	mov	r8d, DWORD PTR [rbx+36]
	lea	rdx, OFFSET FLAT:$SG11141
	lea	rcx, QWORD PTR buff$[rsp]
	call	sprintf
	lea	rcx, OFFSET FLAT:$SG12171

; 2050 :           }

	jmp	SHORT $LN590@HllEndDir
$LN158@HllEndDir:

; 2051 :           else {
; 2052 :             AddLineQueueX("mov  rsi,rax");

	lea	rcx, OFFSET FLAT:$SG12172
	call	AddLineQueueX

; 2053 :             AddLineQueueX("mov  rbx,%q", hll->casecnt - 1);//int high = len - 1;

	mov	edx, DWORD PTR [rbx+80]
	lea	rcx, OFFSET FLAT:$SG12173
	dec	edx
	call	AddLineQueueX

; 2054 :             AddLineQueueX("xor  ecx,ecx");//int low = 0;

	lea	rcx, OFFSET FLAT:$SG12174
	call	AddLineQueueX

; 2055 :             AddLineQueueX("lea  rdi,%s", GetLabelStr(hll->labels[LDATA2], buff));//int hll->pcases

	mov	r8d, DWORD PTR [rbx+36]
	lea	rdx, OFFSET FLAT:$SG11141
	lea	rcx, QWORD PTR buff$[rsp]
	call	sprintf
	lea	rcx, OFFSET FLAT:$SG12175
$LN590@HllEndDir:
	lea	rdx, QWORD PTR buff$[rsp]
	call	AddLineQueueX

; 2056 :           }
; 2057 :           if (hll->flags & HLLF_DEFAULTOCCURED)

	test	BYTE PTR [rbx+76], 2

; 2058 :             AddLineQueueX("js  %s", GetLabelStr(hll->labels[LDEF], buff));

	lea	rdx, OFFSET FLAT:$SG11141
	lea	rcx, QWORD PTR buff$[rsp]
	je	SHORT $LN160@HllEndDir
	mov	r8d, DWORD PTR [rbx+28]
	call	sprintf
	lea	rcx, OFFSET FLAT:$SG12178
	jmp	SHORT $LN583@HllEndDir
$LN160@HllEndDir:

; 2059 :           else
; 2060 :             AddLineQueueX("js  %s", GetLabelStr(hll->labels[LEXIT], buff));

	mov	r8d, DWORD PTR [rbx+12]
	call	sprintf
	lea	rcx, OFFSET FLAT:$SG12179
$LN583@HllEndDir:
	lea	rdx, QWORD PTR buff$[rsp]
	call	AddLineQueueX
$LN161@HllEndDir:

; 2061 :         }
; 2062 : #endif
; 2063 :       }
; 2064 :     } //end if Parse_Pass
; 2065 :     AddLineQueueX("%s" LABELQUAL, GetLabelStr(hll->labels[LTOP], buff));

	mov	r8d, DWORD PTR [rbx+40]
	lea	rdx, OFFSET FLAT:$SG11141
	lea	rcx, QWORD PTR buff$[rsp]
	call	sprintf
	lea	rdx, QWORD PTR buff$[rsp]
	lea	rcx, OFFSET FLAT:$SG12180
	call	AddLineQueueX

; 2066 :     if (Parse_Pass) {

	cmp	DWORD PTR Parse_Pass, esi
	je	$LN167@HllEndDir

; 2067 :       if (hll->cflag == 5) {

	cmp	BYTE PTR [rbx+85], 5
	jne	$LN167@HllEndDir

; 2068 :         if (ModuleInfo.Ofssize == USE32) {

	cmp	BYTE PTR ModuleInfo+404, 1
	jne	$LN164@HllEndDir

; 2069 :           AddLineQueueX("lea     eax,[ecx + ebx]");//int eax = (ecx + ebx) / 2;

	lea	rcx, OFFSET FLAT:$SG12185
	call	AddLineQueueX

; 2070 :           AddLineQueueX("cdq");

	lea	rcx, OFFSET FLAT:$SG12186
	call	AddLineQueueX

; 2071 :           AddLineQueueX("sub     eax,edx");

	lea	rcx, OFFSET FLAT:$SG12187
	call	AddLineQueueX

; 2072 :           AddLineQueueX("sar     eax,1");

	lea	rcx, OFFSET FLAT:$SG12188
	call	AddLineQueueX

; 2073 :           AddLineQueueX("cmp     [edi+eax*4],esi");

	lea	rcx, OFFSET FLAT:$SG12189
	call	AddLineQueueX

; 2074 :           AddLineQueueX("je  %s", GetLabelStr(hll->labels[LJUMP], buff));//got it, jump to the case

	mov	r8d, DWORD PTR [rbx+44]
	lea	rdx, OFFSET FLAT:$SG11141
	lea	rcx, QWORD PTR buff$[rsp]
	call	sprintf
	lea	rdx, QWORD PTR buff$[rsp]
	lea	rcx, OFFSET FLAT:$SG12190
	call	AddLineQueueX

; 2075 :           AddLineQueueX("jge %s", GetLabelStr(hll->labels[LSKIP], buff));//else if (hll->pcases[mid] < hll->casecnt)

	mov	r8d, DWORD PTR [rbx+20]
	lea	rdx, OFFSET FLAT:$SG11141
	lea	rcx, QWORD PTR buff$[rsp]
	call	sprintf
	lea	rdx, QWORD PTR buff$[rsp]
	lea	rcx, OFFSET FLAT:$SG12191
	call	AddLineQueueX

; 2076 :           AddLineQueueX("lea     ecx,[eax+1]");                          //low = mid + 1

	lea	rcx, OFFSET FLAT:$SG12192
	call	AddLineQueueX

; 2077 :           AddLineQueueX("jmp %s", GetLabelStr(hll->labels[LCONT], buff));//not found yet, continue search

	mov	r8d, DWORD PTR [rbx+24]
	lea	rdx, OFFSET FLAT:$SG11141
	lea	rcx, QWORD PTR buff$[rsp]
	call	sprintf
	lea	rcx, OFFSET FLAT:$SG12193

; 2078 :         }

	jmp	$LN591@HllEndDir
$LN164@HllEndDir:

; 2079 : #if AMD64_SUPPORT
; 2080 :         else {
; 2081 :           if (hll->csize == 4) {

	cmp	BYTE PTR [rbx+84], r14b
	jne	$LN166@HllEndDir

; 2082 :             AddLineQueueX("lea     eax,[rcx + rbx]");//int eax = (ecx + ebx) / 2;

	lea	rcx, OFFSET FLAT:$SG12196
	call	AddLineQueueX

; 2083 :             AddLineQueueX("cdq");

	lea	rcx, OFFSET FLAT:$SG12197
	call	AddLineQueueX

; 2084 :             AddLineQueueX("sub     eax,edx");

	lea	rcx, OFFSET FLAT:$SG12198
	call	AddLineQueueX

; 2085 :             AddLineQueueX("sar     rax,1");

	lea	rcx, OFFSET FLAT:$SG12199
	call	AddLineQueueX

; 2086 :             AddLineQueueX("cmp     [rdi+rax*8],esi");

	lea	rcx, OFFSET FLAT:$SG12200
	call	AddLineQueueX

; 2087 :             AddLineQueueX("je  %s", GetLabelStr(hll->labels[LJUMP], buff));//got it, jump to the case

	mov	r8d, DWORD PTR [rbx+44]
	lea	rdx, OFFSET FLAT:$SG11141
	lea	rcx, QWORD PTR buff$[rsp]
	call	sprintf
	lea	rdx, QWORD PTR buff$[rsp]
	lea	rcx, OFFSET FLAT:$SG12201
	call	AddLineQueueX

; 2088 :             AddLineQueueX("jge %s", GetLabelStr(hll->labels[LSKIP], buff));//else if (hll->pcases[mid] < hll->casecnt)

	mov	r8d, DWORD PTR [rbx+20]
	lea	rdx, OFFSET FLAT:$SG11141
	lea	rcx, QWORD PTR buff$[rsp]
	call	sprintf
	lea	rdx, QWORD PTR buff$[rsp]
	lea	rcx, OFFSET FLAT:$SG12202
	call	AddLineQueueX

; 2089 :             AddLineQueueX("lea     ecx,[rax+1]");                          //low = mid + 1

	lea	rcx, OFFSET FLAT:$SG12203
	call	AddLineQueueX

; 2090 :             AddLineQueueX("jmp %s", GetLabelStr(hll->labels[LCONT], buff));//not found yet, continue search

	mov	r8d, DWORD PTR [rbx+24]
	lea	rdx, OFFSET FLAT:$SG11141
	lea	rcx, QWORD PTR buff$[rsp]
	call	sprintf
	lea	rcx, OFFSET FLAT:$SG12204

; 2091 :           }

	jmp	$LN591@HllEndDir
$LN166@HllEndDir:

; 2092 :           else {
; 2093 :             AddLineQueueX("lea     rax,[rcx + rbx]");//int eax = (ecx + ebx) / 2;

	lea	rcx, OFFSET FLAT:$SG12205
	call	AddLineQueueX

; 2094 :             AddLineQueueX("cdq");

	lea	rcx, OFFSET FLAT:$SG12206
	call	AddLineQueueX

; 2095 :             AddLineQueueX("sub     rax,rdx");

	lea	rcx, OFFSET FLAT:$SG12207
	call	AddLineQueueX

; 2096 :             AddLineQueueX("sar     rax,1");

	lea	rcx, OFFSET FLAT:$SG12208
	call	AddLineQueueX

; 2097 :             AddLineQueueX("cmp     [rdi+rax*8],rsi");

	lea	rcx, OFFSET FLAT:$SG12209
	call	AddLineQueueX

; 2098 :             AddLineQueueX("je  %s", GetLabelStr(hll->labels[LJUMP], buff));//got it, jump to the case

	mov	r8d, DWORD PTR [rbx+44]
	lea	rdx, OFFSET FLAT:$SG11141
	lea	rcx, QWORD PTR buff$[rsp]
	call	sprintf
	lea	rdx, QWORD PTR buff$[rsp]
	lea	rcx, OFFSET FLAT:$SG12210
	call	AddLineQueueX

; 2099 :             AddLineQueueX("jge %s", GetLabelStr(hll->labels[LSKIP], buff));//else if (hll->pcases[mid] < hll->casecnt)

	mov	r8d, DWORD PTR [rbx+20]
	lea	rdx, OFFSET FLAT:$SG11141
	lea	rcx, QWORD PTR buff$[rsp]
	call	sprintf
	lea	rdx, QWORD PTR buff$[rsp]
	lea	rcx, OFFSET FLAT:$SG12211
	call	AddLineQueueX

; 2100 :             AddLineQueueX("lea     rcx,[rax+1]");                          //low = mid + 1

	lea	rcx, OFFSET FLAT:$SG12212
	call	AddLineQueueX

; 2101 :             AddLineQueueX("jmp %s", GetLabelStr(hll->labels[LCONT], buff));//not found yet, continue search

	mov	r8d, DWORD PTR [rbx+24]
	lea	rdx, OFFSET FLAT:$SG11141
	lea	rcx, QWORD PTR buff$[rsp]
	call	sprintf
	lea	rcx, OFFSET FLAT:$SG12213
$LN591@HllEndDir:
	lea	rdx, QWORD PTR buff$[rsp]
	call	AddLineQueueX
$LN167@HllEndDir:

; 2102 :           }
; 2103 :         }
; 2104 : #endif
; 2105 :       }
; 2106 :     }
; 2107 :     AddLineQueueX("%s" LABELQUAL, GetLabelStr(hll->labels[LJUMP], buff));

	mov	r8d, DWORD PTR [rbx+44]
	lea	rdx, OFFSET FLAT:$SG11141
	lea	rcx, QWORD PTR buff$[rsp]
	call	sprintf
	lea	rdx, QWORD PTR buff$[rsp]
	lea	rcx, OFFSET FLAT:$SG12214
	call	AddLineQueueX

; 2108 :     if (Parse_Pass) {

	cmp	DWORD PTR Parse_Pass, esi
	je	$LN171@HllEndDir

; 2109 :       if (hll->cflag == 5) {

	cmp	BYTE PTR [rbx+85], 5
	jne	$LN171@HllEndDir

; 2110 :         if (ModuleInfo.Ofssize == USE32) {

	cmp	BYTE PTR ModuleInfo+404, 1
	jne	$LN170@HllEndDir

; 2111 :           GetLabelStr(hll->labels[LDATA1], buff);

	mov	r8d, DWORD PTR [rbx+32]
	lea	rdx, OFFSET FLAT:$SG11141
	lea	rcx, QWORD PTR buff$[rsp]
	call	sprintf

; 2112 :           AddLineQueueX("pop	edi");

	lea	rcx, OFFSET FLAT:$SG12219
	call	AddLineQueueX

; 2113 :           AddLineQueueX("pop	esi");

	lea	rcx, OFFSET FLAT:$SG12220
	call	AddLineQueueX

; 2114 :           AddLineQueueX("pop	ebx");

	lea	rcx, OFFSET FLAT:$SG12221
	call	AddLineQueueX

; 2115 :           AddLineQueueX("pop	ecx");

	lea	rcx, OFFSET FLAT:$SG12222
	call	AddLineQueueX

; 2116 :           AddLineQueueX("pop	edx");

	lea	rcx, OFFSET FLAT:$SG12223
	call	AddLineQueueX

; 2117 :           AddLineQueueX("mov  eax,%s[%r*4]", buff, T_EAX);

	mov	r8d, 17
	lea	rdx, QWORD PTR buff$[rsp]
	lea	rcx, OFFSET FLAT:$SG12224
	call	AddLineQueueX

; 2118 :           AddLineQueueX("xchg	 eax,[esp]");

	lea	rcx, OFFSET FLAT:$SG12225
	call	AddLineQueueX

; 2119 :           AddLineQueueX("retn");

	lea	rcx, OFFSET FLAT:$SG12226

; 2120 :         }

	jmp	$LN592@HllEndDir
$LN170@HllEndDir:

; 2121 : #if AMD64_SUPPORT
; 2122 :         else {
; 2123 :           AddLineQueueX("pop	rdi");

	lea	rcx, OFFSET FLAT:$SG12227
	call	AddLineQueueX

; 2124 :           AddLineQueueX("pop	rsi");

	lea	rcx, OFFSET FLAT:$SG12228
	call	AddLineQueueX

; 2125 :           AddLineQueueX("pop	rbx");

	lea	rcx, OFFSET FLAT:$SG12229
	call	AddLineQueueX

; 2126 :           AddLineQueueX("pop	rcx");

	lea	rcx, OFFSET FLAT:$SG12230
	call	AddLineQueueX

; 2127 :           GetLabelStr(hll->labels[LDATA1], buff);

	mov	r8d, DWORD PTR [rbx+32]
	lea	rdx, OFFSET FLAT:$SG11141
	lea	rcx, QWORD PTR buff$[rsp]
	call	sprintf

; 2128 :           AddLineQueueX("lea   rdx,%s", buff);

	lea	rdx, QWORD PTR buff$[rsp]
	lea	rcx, OFFSET FLAT:$SG12231
	call	AddLineQueueX

; 2129 :           AddLineQueueX("mov   rax, qword ptr[rdx+rax*8]");

	lea	rcx, OFFSET FLAT:$SG12232
	call	AddLineQueueX

; 2130 :           AddLineQueueX("pop   rdx");

	lea	rcx, OFFSET FLAT:$SG12233
	call	AddLineQueueX

; 2131 :           AddLineQueueX("xchg	 rax,[rsp]");

	lea	rcx, OFFSET FLAT:$SG12234
	call	AddLineQueueX

; 2132 :           AddLineQueueX("retn");

	lea	rcx, OFFSET FLAT:$SG12235
$LN592@HllEndDir:
	call	AddLineQueueX
$LN171@HllEndDir:

; 2133 :         }
; 2134 : #endif
; 2135 :       }
; 2136 :     }
; 2137 :     AddLineQueueX("%s" LABELQUAL, GetLabelStr(hll->labels[LSKIP], buff));

	mov	r8d, DWORD PTR [rbx+20]
	lea	rdx, OFFSET FLAT:$SG11141
	lea	rcx, QWORD PTR buff$[rsp]
	call	sprintf
	lea	rdx, QWORD PTR buff$[rsp]
	lea	rcx, OFFSET FLAT:$SG12236
	call	AddLineQueueX

; 2138 :     if (Parse_Pass) {

	cmp	DWORD PTR Parse_Pass, esi
	je	SHORT $LN177@HllEndDir

; 2139 :       if (hll->cflag == 5) {

	cmp	BYTE PTR [rbx+85], 5
	jne	SHORT $LN177@HllEndDir

; 2140 :         if (ModuleInfo.Ofssize == USE32)

	cmp	BYTE PTR ModuleInfo+404, 1
	jne	SHORT $LN174@HllEndDir

; 2141 :           AddLineQueueX("lea     ebx,[eax-1]");//else high = mid - 1;

	lea	rcx, OFFSET FLAT:$SG12241
	jmp	SHORT $LN593@HllEndDir
$LN174@HllEndDir:

; 2142 : #if AMD64_SUPPORT
; 2143 :         else {
; 2144 :           if (hll->csize == 4)
; 2145 :             AddLineQueueX("lea     ebx,[rax-1]");//else high = mid - 1;

	lea	rcx, OFFSET FLAT:$SG12244
	cmp	BYTE PTR [rbx+84], r14b
	je	SHORT $LN593@HllEndDir

; 2146 :           else
; 2147 :             AddLineQueueX("lea     rbx,[rax-1]");//else high = mid - 1;

	lea	rcx, OFFSET FLAT:$SG12245
$LN593@HllEndDir:
	call	AddLineQueueX
$LN177@HllEndDir:

; 2148 :         }
; 2149 : #endif
; 2150 :       }
; 2151 :     }
; 2152 :     AddLineQueueX("%s" LABELQUAL, GetLabelStr(hll->labels[LCONT], buff));

	mov	r8d, DWORD PTR [rbx+24]
	lea	rdx, OFFSET FLAT:$SG11141
	lea	rcx, QWORD PTR buff$[rsp]
	call	sprintf
	lea	rdx, QWORD PTR buff$[rsp]
	lea	rcx, OFFSET FLAT:$SG12246
	call	AddLineQueueX

; 2153 :     if (Parse_Pass) {

	cmp	DWORD PTR Parse_Pass, esi
	je	$LN187@HllEndDir

; 2154 :       if (hll->cflag == 5) {

	cmp	BYTE PTR [rbx+85], 5
	jne	$LN187@HllEndDir

; 2155 :         if (ModuleInfo.Ofssize == USE32) {

	cmp	BYTE PTR ModuleInfo+404, 1
	jne	$LN180@HllEndDir

; 2156 :           AddLineQueueX("cmp  ecx,ebx");

	lea	rcx, OFFSET FLAT:$SG12251
	call	AddLineQueueX

; 2157 :           AddLineQueueX("jle %s", GetLabelStr(hll->labels[LTOP], buff));

	mov	r8d, DWORD PTR [rbx+40]
	lea	rdx, OFFSET FLAT:$SG11141
	lea	rcx, QWORD PTR buff$[rsp]
	call	sprintf
	lea	rdx, QWORD PTR buff$[rsp]
	lea	rcx, OFFSET FLAT:$SG12252
	call	AddLineQueueX

; 2158 :           AddLineQueueX("pop	edi");

	lea	rcx, OFFSET FLAT:$SG12253
	call	AddLineQueueX

; 2159 :           AddLineQueueX("pop	esi");

	lea	rcx, OFFSET FLAT:$SG12254
	call	AddLineQueueX

; 2160 :           AddLineQueueX("pop	ebx");

	lea	rcx, OFFSET FLAT:$SG12255
	call	AddLineQueueX

; 2161 :           AddLineQueueX("pop	ecx");

	lea	rcx, OFFSET FLAT:$SG12256
	call	AddLineQueueX

; 2162 :           AddLineQueueX("pop	edx");

	lea	rcx, OFFSET FLAT:$SG12257
	call	AddLineQueueX

; 2163 :           AddLineQueueX("pop	eax");

	lea	rcx, OFFSET FLAT:$SG12258
	call	AddLineQueueX

; 2164 :           if (hll->flags & HLLF_DEFAULTOCCURED)

	test	BYTE PTR [rbx+76], 2

; 2165 :             AddLineQueueX("jmp  %s", GetLabelStr(hll->labels[LDEF], buff));

	lea	rdx, OFFSET FLAT:$SG11141
	lea	rcx, QWORD PTR buff$[rsp]
	je	SHORT $LN182@HllEndDir
	mov	r8d, DWORD PTR [rbx+28]
	call	sprintf
	lea	rcx, OFFSET FLAT:$SG12261
	jmp	$LN594@HllEndDir
$LN182@HllEndDir:

; 2166 :           else
; 2167 :             AddLineQueueX("jmp  %s", GetLabelStr(hll->labels[LEXIT], buff));

	mov	r8d, DWORD PTR [rbx+12]
	call	sprintf
	lea	rcx, OFFSET FLAT:$SG12262

; 2168 :         }

	jmp	$LN594@HllEndDir
$LN180@HllEndDir:

; 2169 : #if AMD64_SUPPORT
; 2170 :         else
; 2171 :         {
; 2172 :           if (hll->csize == 4)
; 2173 :             AddLineQueueX("cmp  ecx,ebx");

	lea	rcx, OFFSET FLAT:$SG12265
	cmp	BYTE PTR [rbx+84], r14b
	je	SHORT $LN595@HllEndDir

; 2174 :           else
; 2175 :             AddLineQueueX("cmp  rcx,rbx");

	lea	rcx, OFFSET FLAT:$SG12266
$LN595@HllEndDir:
	call	AddLineQueueX

; 2176 :           AddLineQueueX("jle  %s", GetLabelStr(hll->labels[LTOP], buff));

	mov	r8d, DWORD PTR [rbx+40]
	lea	rdx, OFFSET FLAT:$SG11141
	lea	rcx, QWORD PTR buff$[rsp]
	call	sprintf
	lea	rdx, QWORD PTR buff$[rsp]
	lea	rcx, OFFSET FLAT:$SG12267
	call	AddLineQueueX

; 2177 :           AddLineQueueX("pop	rdi");

	lea	rcx, OFFSET FLAT:$SG12268
	call	AddLineQueueX

; 2178 :           AddLineQueueX("pop	rsi");

	lea	rcx, OFFSET FLAT:$SG12269
	call	AddLineQueueX

; 2179 :           AddLineQueueX("pop	rbx");

	lea	rcx, OFFSET FLAT:$SG12270
	call	AddLineQueueX

; 2180 :           AddLineQueueX("pop	rcx");

	lea	rcx, OFFSET FLAT:$SG12271
	call	AddLineQueueX

; 2181 :           AddLineQueueX("pop	rdx");

	lea	rcx, OFFSET FLAT:$SG12272
	call	AddLineQueueX

; 2182 :           AddLineQueueX("pop	rax");

	lea	rcx, OFFSET FLAT:$SG12273
	call	AddLineQueueX

; 2183 :           if (hll->flags & HLLF_DEFAULTOCCURED)

	test	BYTE PTR [rbx+76], 2

; 2184 :             AddLineQueueX("jmp  %s", GetLabelStr(hll->labels[LDEF], buff));

	lea	rdx, OFFSET FLAT:$SG11141
	lea	rcx, QWORD PTR buff$[rsp]
	je	SHORT $LN186@HllEndDir
	mov	r8d, DWORD PTR [rbx+28]
	call	sprintf
	lea	rcx, OFFSET FLAT:$SG12276
	jmp	SHORT $LN594@HllEndDir
$LN186@HllEndDir:

; 2185 :           else
; 2186 :             AddLineQueueX("jmp  %s", GetLabelStr(hll->labels[LEXIT], buff));

	mov	r8d, DWORD PTR [rbx+12]
	call	sprintf
	lea	rcx, OFFSET FLAT:$SG12277
$LN594@HllEndDir:
	lea	rdx, QWORD PTR buff$[rsp]
	call	AddLineQueueX
$LN187@HllEndDir:

; 2187 :         }
; 2188 : #endif
; 2189 :       }
; 2190 :     }
; 2191 : 
; 2192 :     AddLineQueueX("ALIGN %d", dsize);

	mov	edx, edi
	mov	QWORD PTR [rsp+2176], r13
	lea	rcx, OFFSET FLAT:$SG12278
	call	AddLineQueueX

; 2193 :     AddLineQueueX("%s" LABELQUAL, GetLabelStr(hll->labels[LDATA1], buff));

	mov	r8d, DWORD PTR [rbx+32]
	lea	rdx, OFFSET FLAT:$SG11141
	lea	rcx, QWORD PTR buff$[rsp]
	call	sprintf
	lea	rdx, QWORD PTR buff$[rsp]
	lea	rcx, OFFSET FLAT:$SG12279
	call	AddLineQueueX

; 2194 :     if (hll->cflag > 3) {

	movzx	eax, BYTE PTR [rbx+85]
	cmp	al, 3
	jle	$LN215@HllEndDir

; 2195 :       if (ModuleInfo.Ofssize == USE32) {

	cmp	BYTE PTR ModuleInfo+404, 1
	jne	$LN189@HllEndDir

; 2196 :         lbl = 0;

	movzx	ecx, si

; 2197 :         if (hll->cflag == 4) {

	cmp	al, r14b
	jne	SHORT $LN5@HllEndDir

; 2198 :           for (j = 0; j < hll->casecnt; j++) {

	mov	r14d, esi
	cmp	DWORD PTR [rbx+80], esi
	jbe	SHORT $LN5@HllEndDir
	mov	rdi, rsi
	npad	9
$LL6@HllEndDir:

; 2199 :             if (hll->plabels[j] != lbl) {

	mov	rax, QWORD PTR [rbx+112]
	movzx	edx, WORD PTR [rdi+rax]
	cmp	dx, cx
	je	SHORT $LN192@HllEndDir

; 2200 :               AddLineQueueX(" dd %s", GetLabelStr(hll->plabels[j], buff));

	movzx	r8d, dx
	lea	rcx, QWORD PTR buff$[rsp]
	lea	rdx, OFFSET FLAT:$SG11141
	call	sprintf
	lea	rdx, QWORD PTR buff$[rsp]
	lea	rcx, OFFSET FLAT:$SG12285
	call	AddLineQueueX

; 2201 :               acnt++;

	inc	r12d
$LN192@HllEndDir:

; 2202 :             }
; 2203 :             lbl = hll->plabels[j];

	mov	rax, QWORD PTR [rbx+112]
	inc	r14d
	movzx	ecx, WORD PTR [rdi+rax]
	add	rdi, 2
	cmp	r14d, DWORD PTR [rbx+80]
	jb	SHORT $LL6@HllEndDir
	mov	DWORD PTR acnt$1$[rbp-256], r12d
$LN5@HllEndDir:

; 2204 :           }
; 2205 :         }
; 2206 :         if (hll->cflag == 7) {

	movzx	eax, BYTE PTR [rbx+85]
	cmp	al, 7
	jne	SHORT $LN193@HllEndDir

; 2207 :           for (j = 0; j < hll->casecnt; j++) {

	mov	r14d, esi
	cmp	DWORD PTR [rbx+80], esi
	jbe	$LN14@HllEndDir
	mov	rdi, rsi
	npad	7
$LL9@HllEndDir:

; 2208 :             if (hll->plabels[j] != lbl) {

	mov	rax, QWORD PTR [rbx+112]
	movzx	edx, WORD PTR [rdi+rax]
	cmp	dx, cx
	je	SHORT $LN195@HllEndDir

; 2209 :               AddLineQueueX(" dd %s", GetLabelStr(hll->plabels[j], buff));

	movzx	r8d, dx
	lea	rcx, QWORD PTR buff$[rsp]
	lea	rdx, OFFSET FLAT:$SG11141
	call	sprintf
	lea	rdx, QWORD PTR buff$[rsp]
	lea	rcx, OFFSET FLAT:$SG12289
	call	AddLineQueueX

; 2210 :               acnt++;

	inc	r12d
$LN195@HllEndDir:

; 2211 :             }
; 2212 :             lbl = hll->plabels[j];

	mov	rax, QWORD PTR [rbx+112]
	inc	r14d
	movzx	ecx, WORD PTR [rdi+rax]
	add	rdi, 2
	cmp	r14d, DWORD PTR [rbx+80]
	jb	SHORT $LL9@HllEndDir
	mov	DWORD PTR acnt$1$[rbp-256], r12d

; 2213 :           }
; 2214 :         }

	jmp	$LN14@HllEndDir
$LN193@HllEndDir:

; 2215 :         else if (hll->cflag == 5) {

	cmp	al, 5
	jne	SHORT $LN196@HllEndDir

; 2216 :           for (j = 0; j < hll->casecnt; j++)

	mov	edi, esi
	cmp	DWORD PTR [rbx+80], esi
	jbe	$LN14@HllEndDir
	mov	r14, rsi
	npad	7
$LL12@HllEndDir:

; 2217 :             AddLineQueueX(" dd %s", GetLabelStr(hll->plabels[j], buff));

	mov	rax, QWORD PTR [rbx+112]
	lea	rdx, OFFSET FLAT:$SG11141
	lea	rcx, QWORD PTR buff$[rsp]
	movzx	r8d, WORD PTR [rax+r14]
	call	sprintf
	lea	rdx, QWORD PTR buff$[rsp]
	lea	rcx, OFFSET FLAT:$SG12292
	call	AddLineQueueX
	inc	edi
	lea	r14, QWORD PTR [r14+2]
	cmp	edi, DWORD PTR [rbx+80]
	jb	SHORT $LL12@HllEndDir

; 2218 :         }

	jmp	$LN14@HllEndDir
$LN196@HllEndDir:

; 2219 :         else if (hll->cflag == 6) {

	cmp	al, 6
	jne	$LN14@HllEndDir

; 2220 :           for (j = 0, n = 0; j < hll->casecnt; j++) {

	mov	r12d, esi
	mov	r14d, esi
	cmp	DWORD PTR [rbx+80], esi
	jbe	$LN14@HllEndDir
	mov	r13, rsi
	npad	11
$LL15@HllEndDir:

; 2221 :             temp = hll->pcases[j] - hll->mincase;

	mov	rax, QWORD PTR [rbx+104]
	mov	ecx, DWORD PTR [rax+r15]
	sub	ecx, DWORD PTR [rbx+92]

; 2222 :             while (n < temp) {

	cmp	r14d, ecx
	jge	SHORT $LN17@HllEndDir

; 2221 :             temp = hll->pcases[j] - hll->mincase;

	sub	ecx, r14d
	mov	edi, ecx

; 2222 :             while (n < temp) {

	add	r14d, ecx
	npad	8
$LL16@HllEndDir:

; 2223 :               if (hll->flags & HLLF_DEFAULTOCCURED)

	test	BYTE PTR [rbx+76], 2

; 2224 :                 AddLineQueueX(" dd %s", GetLabelStr(hll->labels[LDEF], buff));

	lea	rdx, OFFSET FLAT:$SG11141
	lea	rcx, QWORD PTR buff$[rsp]
	je	SHORT $LN199@HllEndDir
	mov	r8d, DWORD PTR [rbx+28]
	call	sprintf
	lea	rcx, OFFSET FLAT:$SG12296
	jmp	SHORT $LN596@HllEndDir
$LN199@HllEndDir:

; 2225 :               else
; 2226 :                 AddLineQueueX(" dd %s", GetLabelStr(hll->labels[LEXIT], buff));

	mov	r8d, DWORD PTR [rbx+12]
	call	sprintf
	lea	rcx, OFFSET FLAT:$SG12297
$LN596@HllEndDir:
	lea	rdx, QWORD PTR buff$[rsp]
	call	AddLineQueueX
	sub	rdi, 1
	jne	SHORT $LL16@HllEndDir
$LN17@HllEndDir:

; 2227 :               n++;
; 2228 :             }
; 2229 :             AddLineQueueX(" dd %s", GetLabelStr(hll->plabels[j], buff));

	mov	rax, QWORD PTR [rbx+112]
	lea	rdx, OFFSET FLAT:$SG11141
	lea	rcx, QWORD PTR buff$[rsp]
	movzx	r8d, WORD PTR [rax+r13]
	call	sprintf
	lea	rdx, QWORD PTR buff$[rsp]
	lea	rcx, OFFSET FLAT:$SG12298
	call	AddLineQueueX

; 2230 :             n++;

	inc	r14d
	inc	r12d
	add	r15, 4
	add	r13, 2
	cmp	r12d, DWORD PTR [rbx+80]
	jb	$LL15@HllEndDir
	mov	r15d, DWORD PTR bcnt$1$[rbp-256]
$LN14@HllEndDir:

; 2231 :           }
; 2232 :         }
; 2233 :         if (hll->flags & HLLF_DEFAULTOCCURED)

	test	BYTE PTR [rbx+76], 2

; 2234 :           AddLineQueueX(" dd %s", GetLabelStr(hll->labels[LDEF], buff));

	lea	rdx, OFFSET FLAT:$SG11141
	lea	rcx, QWORD PTR buff$[rsp]
	je	SHORT $LN201@HllEndDir
	mov	r8d, DWORD PTR [rbx+28]
	call	sprintf
	lea	rcx, OFFSET FLAT:$SG12301
	jmp	$LN597@HllEndDir
$LN201@HllEndDir:

; 2235 :         else
; 2236 :           AddLineQueueX(" dd %s", GetLabelStr(hll->labels[LEXIT], buff));

	mov	r8d, DWORD PTR [rbx+12]
	call	sprintf
	lea	rcx, OFFSET FLAT:$SG12302

; 2237 :       }

	jmp	$LN597@HllEndDir
$LN189@HllEndDir:

; 2238 : #if AMD64_SUPPORT
; 2239 :       else {
; 2240 :         lbl = 0;

	movzx	edx, si

; 2241 :         if ((hll->cflag == 4)||(hll->cflag == 7)) {

	cmp	al, r14b
	je	$LN205@HllEndDir
	cmp	al, 7
	je	$LN205@HllEndDir

; 2248 :           }
; 2249 :         }
; 2250 :         else if (hll->cflag == 5) {

	cmp	al, 5
	jne	SHORT $LN207@HllEndDir

; 2251 :           for (j = 0; j < hll->casecnt; j++)

	mov	edi, esi
	cmp	DWORD PTR [rbx+80], esi
	jbe	$LN19@HllEndDir
	mov	r14, rsi
$LL23@HllEndDir:

; 2252 :             AddLineQueueX(" dq %s", GetLabelStr(hll->plabels[j], buff));

	mov	rax, QWORD PTR [rbx+112]
	lea	rdx, OFFSET FLAT:$SG11141
	lea	rcx, QWORD PTR buff$[rsp]
	movzx	r8d, WORD PTR [r14+rax]
	call	sprintf
	lea	rdx, QWORD PTR buff$[rsp]
	lea	rcx, OFFSET FLAT:$SG12310
	call	AddLineQueueX
	inc	edi
	lea	r14, QWORD PTR [r14+2]
	cmp	edi, DWORD PTR [rbx+80]
	jb	SHORT $LL23@HllEndDir

; 2253 :         }

	jmp	$LN19@HllEndDir
$LN207@HllEndDir:

; 2254 :         else if (hll->cflag == 6) {

	cmp	al, 6
	jne	$LN19@HllEndDir

; 2255 :           for (j = 0, n = 0; j < hll->casecnt; j++) {

	mov	r14d, esi
	mov	DWORD PTR j$12$[rsp], esi
	cmp	DWORD PTR [rbx+80], esi
	jbe	$LN19@HllEndDir
	mov	rdi, rsi
	mov	QWORD PTR tv3226[rsp], rsi
	mov	r13, rsi
	npad	2
$LL26@HllEndDir:

; 2256 :             if (hll->csize == 4)

	cmp	BYTE PTR [rbx+84], 4
	jne	SHORT $LN210@HllEndDir

; 2257 :               temp = hll->pcases[j] - hll->mincase;

	mov	rax, QWORD PTR [rbx+104]
	mov	ecx, DWORD PTR [rax+r13]
	sub	ecx, DWORD PTR [rbx+92]
	jmp	SHORT $LN499@HllEndDir
$LN210@HllEndDir:

; 2258 :             else
; 2259 :               temp = hll->pcases64[j] - hll->mincase64;

	mov	rax, QWORD PTR [rbx+152]
	mov	ecx, DWORD PTR [rax+r12]
	sub	ecx, DWORD PTR [rbx+136]
$LN499@HllEndDir:

; 2260 :             while (n < temp) {

	cmp	r14d, ecx
	jge	SHORT $LN28@HllEndDir
	sub	ecx, r14d
	mov	edi, ecx
	add	r14d, ecx
	npad	15
$LL27@HllEndDir:

; 2261 :               if (hll->flags & HLLF_DEFAULTOCCURED)

	test	BYTE PTR [rbx+76], 2

; 2262 :                 AddLineQueueX(" dq %s", GetLabelStr(hll->labels[LDEF], buff));

	lea	rdx, OFFSET FLAT:$SG11141
	lea	rcx, QWORD PTR buff$[rsp]
	je	SHORT $LN212@HllEndDir
	mov	r8d, DWORD PTR [rbx+28]
	call	sprintf
	lea	rcx, OFFSET FLAT:$SG12316
	jmp	SHORT $LN598@HllEndDir
$LN212@HllEndDir:

; 2263 :               else
; 2264 :                 AddLineQueueX(" dq %s", GetLabelStr(hll->labels[LEXIT], buff));

	mov	r8d, DWORD PTR [rbx+12]
	call	sprintf
	lea	rcx, OFFSET FLAT:$SG12317
$LN598@HllEndDir:
	lea	rdx, QWORD PTR buff$[rsp]
	call	AddLineQueueX
	sub	rdi, 1
	jne	SHORT $LL27@HllEndDir
	mov	rdi, QWORD PTR tv3226[rsp]
$LN28@HllEndDir:

; 2265 :               n++;
; 2266 :             }
; 2267 :             AddLineQueueX(" dq %s", GetLabelStr(hll->plabels[j], buff));

	mov	rax, QWORD PTR [rbx+112]
	lea	rdx, OFFSET FLAT:$SG11141
	lea	rcx, QWORD PTR buff$[rsp]
	movzx	r8d, WORD PTR [rdi+rax]
	call	sprintf
	lea	rdx, QWORD PTR buff$[rsp]
	lea	rcx, OFFSET FLAT:$SG12318
	call	AddLineQueueX
	mov	eax, DWORD PTR j$12$[rsp]
	add	rdi, 2
	inc	eax
	mov	QWORD PTR tv3226[rsp], rdi

; 2268 :             n++;

	inc	r14d
	mov	DWORD PTR j$12$[rsp], eax
	add	r13, 4
	add	r12, 8
	cmp	eax, DWORD PTR [rbx+80]
	jb	$LL26@HllEndDir

; 1723 :         if ((ModuleInfo.Ofssize == USE32) || (hll->csize == 4)) {

	jmp	SHORT $LN19@HllEndDir
$LN205@HllEndDir:

; 2242 :           for (j = 0; j < hll->casecnt; j++) {

	mov	r14d, esi
	cmp	DWORD PTR [rbx+80], esi
	jbe	SHORT $LN19@HllEndDir
	mov	rdi, rsi
	npad	8
$LL20@HllEndDir:

; 2243 :             if (hll->plabels[j] != lbl) {

	mov	rax, QWORD PTR [rbx+112]
	movzx	ecx, WORD PTR [rdi+rax]
	cmp	cx, dx
	je	SHORT $LN206@HllEndDir

; 2244 :               AddLineQueueX(" dq %s", GetLabelStr(hll->plabels[j], buff));

	movzx	r8d, cx
	lea	rdx, OFFSET FLAT:$SG11141
	lea	rcx, QWORD PTR buff$[rsp]
	call	sprintf
	lea	rdx, QWORD PTR buff$[rsp]
	lea	rcx, OFFSET FLAT:$SG12307
	call	AddLineQueueX

; 2245 :               acnt++;

	inc	r12d
$LN206@HllEndDir:

; 2246 :             }
; 2247 :             lbl = hll->plabels[j];

	mov	rax, QWORD PTR [rbx+112]
	inc	r14d
	movzx	edx, WORD PTR [rdi+rax]
	add	rdi, 2
	cmp	r14d, DWORD PTR [rbx+80]
	jb	SHORT $LL20@HllEndDir
	mov	DWORD PTR acnt$1$[rbp-256], r12d
$LN19@HllEndDir:

; 2269 :           }
; 2270 :         }
; 2271 :         if (hll->flags & HLLF_DEFAULTOCCURED)

	test	BYTE PTR [rbx+76], 2

; 2272 :           AddLineQueueX(" dq %s", GetLabelStr(hll->labels[LDEF], buff));

	lea	rdx, OFFSET FLAT:$SG11141
	lea	rcx, QWORD PTR buff$[rsp]
	je	SHORT $LN214@HllEndDir
	mov	r8d, DWORD PTR [rbx+28]
	call	sprintf
	lea	rcx, OFFSET FLAT:$SG12321
	jmp	SHORT $LN597@HllEndDir
$LN214@HllEndDir:

; 2273 :         else
; 2274 :           AddLineQueueX(" dq %s", GetLabelStr(hll->labels[LEXIT], buff));

	mov	r8d, DWORD PTR [rbx+12]
	call	sprintf
	lea	rcx, OFFSET FLAT:$SG12322
$LN597@HllEndDir:
	lea	rdx, QWORD PTR buff$[rsp]
	call	AddLineQueueX
$LN215@HllEndDir:

; 2275 :       }
; 2276 : #endif
; 2277 :     }
; 2278 :     AddLineQueueX("%s" LABELQUAL, GetLabelStr(hll->labels[LDATA2], buff));

	mov	r8d, DWORD PTR [rbx+36]
	lea	rdx, OFFSET FLAT:$SG11141
	lea	rcx, QWORD PTR buff$[rsp]
	call	sprintf
	lea	rdx, QWORD PTR buff$[rsp]
	lea	rcx, OFFSET FLAT:$SG12323
	call	AddLineQueueX

; 2279 :     if (hll->cflag == 4) {

	cmp	BYTE PTR [rbx+85], 4
	jne	$LN35@HllEndDir

; 2280 :       n = 0;
; 2281 :       if (hll->csize == 4) {

	cmp	BYTE PTR [rbx+84], 4
	mov	r14d, esi

; 2282 :         for (j = 0; j < hll->casecnt; j++) {

	mov	r12d, esi
	jne	$LN217@HllEndDir
	cmp	DWORD PTR [rbx+80], esi
	jbe	$LN35@HllEndDir
	mov	rdi, rsi
	mov	QWORD PTR tv3227[rsp], rsi
	mov	r13, rsi
	mov	esi, DWORD PTR acnt$1$[rbp-256]
	npad	6
$LL31@HllEndDir:

; 2283 :           temp = hll->pcases[j] - hll->mincase;

	mov	rax, QWORD PTR [rbx+104]
	mov	ecx, DWORD PTR [rax+r13]
	sub	ecx, DWORD PTR [rbx+92]

; 2284 :           while (n < temp) {

	cmp	r14d, ecx
	jge	SHORT $LN33@HllEndDir

; 2283 :           temp = hll->pcases[j] - hll->mincase;

	sub	ecx, r14d
	movsx	r15d, sil
	mov	edi, ecx

; 2284 :           while (n < temp) {

	add	r14d, ecx
	npad	4
$LL32@HllEndDir:

; 2285 :             AddLineQueueX(" db %d", (int_8)acnt);

	mov	edx, r15d
	lea	rcx, OFFSET FLAT:$SG12327
	call	AddLineQueueX
	sub	rdi, 1
	jne	SHORT $LL32@HllEndDir
	mov	rdi, QWORD PTR tv3227[rsp]
	mov	r15d, DWORD PTR bcnt$1$[rbp-256]
$LN33@HllEndDir:

; 2286 :             n++;
; 2287 :           }
; 2288 :           AddLineQueueX(" db %d", (int_8)bcnt);

	movsx	edx, r15b
	lea	rcx, OFFSET FLAT:$SG12328
	call	AddLineQueueX

; 2289 :           n++;
; 2290 :           if (hll->plabels[j] != hll->plabels[j + 1])

	mov	rcx, QWORD PTR [rbx+112]
	lea	rdx, QWORD PTR [rdi+2]
	inc	r14d
	movzx	eax, WORD PTR [rcx+rdx]
	cmp	WORD PTR [rcx+rdi], ax
	je	SHORT $LN29@HllEndDir

; 2291 :             bcnt++;

	inc	r15d
	mov	DWORD PTR bcnt$1$[rbp-256], r15d
$LN29@HllEndDir:

; 2282 :         for (j = 0; j < hll->casecnt; j++) {

	inc	r12d
	mov	QWORD PTR tv3227[rsp], rdx
	add	r13, 4
	mov	rdi, rdx
	cmp	r12d, DWORD PTR [rbx+80]
	jb	$LL31@HllEndDir

; 2292 :         }
; 2293 :       }

	jmp	$LN599@HllEndDir
$LN217@HllEndDir:

; 2294 : #if AMD64_SUPPORT
; 2295 :       else {
; 2296 :         n = 0;
; 2297 :         for (j = 0; j < hll->casecnt; j++) {

	cmp	DWORD PTR [rbx+80], esi
	jbe	$LN35@HllEndDir
	mov	rdi, rsi
	mov	QWORD PTR tv3307[rsp], rsi
	mov	r13, rsi
	mov	esi, DWORD PTR acnt$1$[rbp-256]
	npad	8
$LL36@HllEndDir:

; 2298 :           temp = (int)hll->pcases64[j] - hll->mincase64;

	mov	rax, QWORD PTR [rbx+152]
	mov	ecx, DWORD PTR [rax+r13]
	sub	ecx, DWORD PTR [rbx+136]

; 2299 :           while (n < temp) {

	cmp	r14d, ecx
	jge	SHORT $LN38@HllEndDir

; 2298 :           temp = (int)hll->pcases64[j] - hll->mincase64;

	sub	ecx, r14d
	movsx	r15d, sil
	mov	edi, ecx

; 2299 :           while (n < temp) {

	add	r14d, ecx
	npad	14
$LL37@HllEndDir:

; 2300 :             AddLineQueueX(" db %d", (int_8)acnt);

	mov	edx, r15d
	lea	rcx, OFFSET FLAT:$SG12330
	call	AddLineQueueX
	sub	rdi, 1
	jne	SHORT $LL37@HllEndDir
	mov	rdi, QWORD PTR tv3307[rsp]
	mov	r15d, DWORD PTR bcnt$1$[rbp-256]
$LN38@HllEndDir:

; 2301 :             n++;
; 2302 :           }
; 2303 :           AddLineQueueX(" db %d", (int_8)bcnt);

	movsx	edx, r15b
	lea	rcx, OFFSET FLAT:$SG12331
	call	AddLineQueueX

; 2304 :           n++;
; 2305 :           if (hll->plabels[j] != hll->plabels[j + 1]) bcnt++;

	mov	rcx, QWORD PTR [rbx+112]
	lea	rdx, QWORD PTR [rdi+2]
	inc	r14d
	movzx	eax, WORD PTR [rcx+rdx]
	cmp	WORD PTR [rcx+rdi], ax
	je	SHORT $LN34@HllEndDir
	inc	r15d
	mov	DWORD PTR bcnt$1$[rbp-256], r15d
$LN34@HllEndDir:

; 2294 : #if AMD64_SUPPORT
; 2295 :       else {
; 2296 :         n = 0;
; 2297 :         for (j = 0; j < hll->casecnt; j++) {

	inc	r12d
	mov	QWORD PTR tv3307[rsp], rdx
	add	r13, 8
	mov	rdi, rdx
	cmp	r12d, DWORD PTR [rbx+80]
	jb	$LL36@HllEndDir
$LN599@HllEndDir:
	xor	esi, esi
$LN35@HllEndDir:

; 2306 :         }
; 2307 :       }
; 2308 : #endif
; 2309 :     }
; 2310 : 
; 2311 :     if (hll->cflag == 7) {

	cmp	BYTE PTR [rbx+85], 7
	jne	$LN45@HllEndDir

; 2312 :       n = 0;
; 2313 :       if (hll->csize == 4) {

	cmp	BYTE PTR [rbx+84], 4
	mov	r14d, esi

; 2314 :         for (j = 0; j < hll->casecnt; j++) {

	mov	r12d, esi
	jne	$LN222@HllEndDir
	cmp	DWORD PTR [rbx+80], 0
	jbe	$LN45@HllEndDir
	mov	rdi, rsi
	mov	QWORD PTR tv3324[rsp], rsi
	mov	r13, rsi
	mov	esi, DWORD PTR acnt$1$[rbp-256]
$LL41@HllEndDir:

; 2316 :           while (n < (temp * 2)) {

	mov	rax, QWORD PTR [rbx+104]
	mov	ecx, DWORD PTR [rax+r13]
	sub	ecx, DWORD PTR [rbx+92]
	add	ecx, ecx
	cmp	r14d, ecx
	jge	SHORT $LN43@HllEndDir

; 2315 :           temp = hll->pcases[j] - hll->mincase;

	sub	ecx, r14d
	movsx	r15d, si
	dec	ecx
	shr	ecx, 1
	inc	ecx
	mov	edi, ecx

; 2316 :           while (n < (temp * 2)) {

	lea	r14d, DWORD PTR [r14+rcx*2]
	npad	11
$LL42@HllEndDir:

; 2317 :             AddLineQueueX(" dw %d", (int_16)acnt);

	mov	edx, r15d
	lea	rcx, OFFSET FLAT:$SG12336
	call	AddLineQueueX
	sub	rdi, 1
	jne	SHORT $LL42@HllEndDir
	mov	rdi, QWORD PTR tv3324[rsp]
	mov	r15d, DWORD PTR bcnt$1$[rbp-256]
$LN43@HllEndDir:

; 2318 :             n += 2;
; 2319 :           }
; 2320 :           AddLineQueueX(" dw %d", (int_16)bcnt);

	movsx	edx, r15w
	lea	rcx, OFFSET FLAT:$SG12337
	call	AddLineQueueX

; 2321 :           n += 2;
; 2322 :           if (hll->plabels[j] != hll->plabels[j + 1])

	mov	rcx, QWORD PTR [rbx+112]
	lea	rdx, QWORD PTR [rdi+2]
	add	r14d, 2
	movzx	eax, WORD PTR [rcx+rdx]
	cmp	WORD PTR [rcx+rdi], ax
	je	SHORT $LN39@HllEndDir

; 2323 :             bcnt++;

	inc	r15d
	mov	DWORD PTR bcnt$1$[rbp-256], r15d
$LN39@HllEndDir:

; 2314 :         for (j = 0; j < hll->casecnt; j++) {

	inc	r12d
	mov	QWORD PTR tv3324[rsp], rdx
	add	r13, 4
	mov	rdi, rdx
	cmp	r12d, DWORD PTR [rbx+80]
	jb	$LL41@HllEndDir

; 2324 :         }
; 2325 :       }

	jmp	$LN600@HllEndDir
$LN222@HllEndDir:

; 2326 : #if AMD64_SUPPORT
; 2327 :       else {
; 2328 :         n = 0;
; 2329 :         for (j = 0; j < hll->casecnt; j++) {

	cmp	DWORD PTR [rbx+80], 0
	jbe	$LN45@HllEndDir
	mov	rdi, rsi
	mov	QWORD PTR tv3215[rsp], rsi
	mov	r13, rsi
	mov	esi, DWORD PTR acnt$1$[rbp-256]
	npad	6
$LL46@HllEndDir:

; 2331 :           while (n < (temp * 2)) {

	mov	rax, QWORD PTR [rbx+152]
	mov	ecx, DWORD PTR [rax+r13]
	sub	ecx, DWORD PTR [rbx+136]
	add	ecx, ecx
	cmp	r14d, ecx
	jge	SHORT $LN48@HllEndDir

; 2330 :           temp = (int)hll->pcases64[j] - hll->mincase64;

	sub	ecx, r14d
	movsx	r15d, si
	dec	ecx
	shr	ecx, 1
	inc	ecx
	mov	edi, ecx

; 2331 :           while (n < (temp * 2)) {

	lea	r14d, DWORD PTR [r14+rcx*2]
	npad	5
$LL47@HllEndDir:

; 2332 :             AddLineQueueX(" dw %d", (int_16)acnt);

	mov	edx, r15d
	lea	rcx, OFFSET FLAT:$SG12339
	call	AddLineQueueX
	sub	rdi, 1
	jne	SHORT $LL47@HllEndDir
	mov	rdi, QWORD PTR tv3215[rsp]
	mov	r15d, DWORD PTR bcnt$1$[rbp-256]
$LN48@HllEndDir:

; 2333 :             n += 2;
; 2334 :           }
; 2335 :           AddLineQueueX(" dw %d", (int_16)bcnt);

	movsx	edx, r15w
	lea	rcx, OFFSET FLAT:$SG12340
	call	AddLineQueueX

; 2336 :           n += 2;
; 2337 :           if (hll->plabels[j] != hll->plabels[j + 1]) bcnt++;

	mov	rcx, QWORD PTR [rbx+112]
	lea	rdx, QWORD PTR [rdi+2]
	add	r14d, 2
	movzx	eax, WORD PTR [rcx+rdx]
	cmp	WORD PTR [rcx+rdi], ax
	je	SHORT $LN44@HllEndDir
	inc	r15d
	mov	DWORD PTR bcnt$1$[rbp-256], r15d
$LN44@HllEndDir:

; 2326 : #if AMD64_SUPPORT
; 2327 :       else {
; 2328 :         n = 0;
; 2329 :         for (j = 0; j < hll->casecnt; j++) {

	inc	r12d
	mov	QWORD PTR tv3215[rsp], rdx
	add	r13, 8
	mov	rdi, rdx
	cmp	r12d, DWORD PTR [rbx+80]
	jb	$LL46@HllEndDir
$LN600@HllEndDir:
	xor	esi, esi
$LN45@HllEndDir:

; 2338 :         }
; 2339 :       }
; 2340 : #endif
; 2341 :     }
; 2342 : 
; 2343 :     if (hll->cflag == 5) {

	cmp	BYTE PTR [rbx+85], 5
	mov	r13, QWORD PTR [rsp+2176]
	jne	$LN580@HllEndDir

; 2344 :       if (hll->csize == 4) {

	cmp	BYTE PTR [rbx+84], 4

; 2345 :         for (j = 0; j < hll->casecnt; j++)

	mov	edi, esi
	jne	SHORT $LN227@HllEndDir
	cmp	DWORD PTR [rbx+80], 0
	jbe	$LN580@HllEndDir
	mov	r14, rsi
	npad	13
$LL51@HllEndDir:

; 2346 :           AddLineQueueX(" dd %d", hll->pcases[j]);

	mov	rax, QWORD PTR [rbx+104]
	lea	rcx, OFFSET FLAT:$SG12345
	mov	edx, DWORD PTR [r14+rax]
	call	AddLineQueueX
	inc	edi
	lea	r14, QWORD PTR [r14+4]
	cmp	edi, DWORD PTR [rbx+80]
	jb	SHORT $LL51@HllEndDir

; 2347 :       }

	jmp	$LN580@HllEndDir
$LN227@HllEndDir:

; 2348 : #if AMD64_SUPPORT
; 2349 :       else {
; 2350 :         for (j = 0; j < hll->casecnt; j++)

	cmp	DWORD PTR [rbx+80], 0
	jbe	$LN580@HllEndDir
	mov	r14, rsi
$LL54@HllEndDir:

; 2351 :           AddLineQueueX(" dq %q", hll->pcases64[j]);

	mov	rdx, QWORD PTR [rbx+152]
	lea	rcx, OFFSET FLAT:$SG12346
	mov	rdx, QWORD PTR [rdx+r14]
	call	AddLineQueueX
	inc	edi
	lea	r14, QWORD PTR [r14+8]
	cmp	edi, DWORD PTR [rbx+80]
	jb	SHORT $LL54@HllEndDir

; 2352 :       }
; 2353 : #endif
; 2354 :     }
; 2355 :     if (hll->csize == 4) {
; 2356 :       LclFree(hll->pcases);
; 2357 :     }
; 2358 : #if AMD64_SUPPORT
; 2359 :     else
; 2360 :       LclFree(hll->pcases64);
; 2361 : #endif
; 2362 :     LclFree(hll->plabels);
; 2363 :     break;

	jmp	$LN580@HllEndDir
$LN231@HllEndDir:

; 2364 :   case T_DOT_ENDFOR:
; 2365 :     if (hll->cmd != HLL_FOR) {

	cmp	DWORD PTR [rbx+68], r14d
	je	SHORT $LN232@HllEndDir

; 2366 :       DebugMsg(("HllEndDir: no .FOR on the hll stack\n"));
; 2367 :       EmitErr(BLOCK_NESTING_ERROR, tokenarray[i].string_ptr);

	movsxd	rdx, DWORD PTR i$[rbp-256]
	mov	ecx, 80					; 00000050H
	shl	rdx, 5
	mov	rdx, QWORD PTR [rdx+rdi+8]
	call	EmitErr

; 2368 :       return(ERROR);

	or	eax, -1
	jmp	$LN581@HllEndDir
$LN232@HllEndDir:

; 2369 :     }
; 2370 :     i++;

	inc	DWORD PTR i$[rbp-256]

; 2371 :     //Insert .CONTINUE label here if there is any
; 2372 :     if (hll->labels[LCONT])

	mov	r8d, DWORD PTR [rbx+24]
	test	r8d, r8d
	je	SHORT $LN233@HllEndDir

; 2373 :       AddLineQueueX("%s" LABELQUAL, GetLabelStr(hll->labels[LCONT], buff));

	lea	rdx, OFFSET FLAT:$SG11141
	lea	rcx, QWORD PTR buff$[rsp]
	call	sprintf
	lea	rdx, QWORD PTR buff$[rsp]
	lea	rcx, OFFSET FLAT:$SG12352
	call	AddLineQueueX
$LN233@HllEndDir:

; 2374 :     //forever loop '.for (::)'
; 2375 :     if (hll->cmcnt == 0) goto adlabel;

	mov	edx, DWORD PTR [rbx+64]
	test	edx, edx
	je	$adlabel$604

; 2376 :     //If counters exist
; 2377 :     else if (hll->counterlines[0]) {

	mov	r8, QWORD PTR [rbx+56]
	cmp	BYTE PTR [r8], sil
	je	SHORT $LN236@HllEndDir

; 2378 :       //here we write counters
; 2379 :       if (hll->counterlines) {      //if there is something after second ':' expand it here

	test	r8, r8
	je	SHORT $LN238@HllEndDir

; 2380 :         ForInitAndNext(tokenarray, hll->cmcnt, hll->counterlines);

	mov	rcx, rdi
	call	ForInitAndNext
$LN238@HllEndDir:

; 2381 :         LclFree(hll->counterlines);
; 2382 :       }
; 2383 :       //first jump from the top happens here after the counters
; 2384 :       AddLineQueueX("%s" LABELQUAL, GetLabelStr(hll->labels[LSKIP], buff));

	mov	r8d, DWORD PTR [rbx+20]
	lea	rdx, OFFSET FLAT:$SG11141
	lea	rcx, QWORD PTR buff$[rsp]
	call	sprintf
	lea	rdx, QWORD PTR buff$[rsp]
	lea	rcx, OFFSET FLAT:$SG12358
	call	AddLineQueueX

; 2385 :       /* create test label */
; 2386 :       if (hll->labels[LTEST]) {

	mov	r8d, DWORD PTR [rbx+8]
	test	r8d, r8d
	je	SHORT $LN239@HllEndDir

; 2387 :         AddLineQueueX("%s" LABELQUAL, GetLabelStr(hll->labels[LTEST], buff));

	lea	rdx, OFFSET FLAT:$SG11141
	lea	rcx, QWORD PTR buff$[rsp]
	call	sprintf
	lea	rdx, QWORD PTR buff$[rsp]
	lea	rcx, OFFSET FLAT:$SG12360
	call	AddLineQueueX
$LN239@HllEndDir:

; 2388 :       }
; 2389 :       QueueTestLines(hll->condlines);

	mov	rcx, QWORD PTR [rbx+48]
	call	QueueTestLines

; 2390 :       LclFree(hll->condlines);
; 2391 :     }

	jmp	SHORT $LN237@HllEndDir
$LN236@HllEndDir:

; 2392 :     else
; 2393 :       AddLineQueueX(" jmp %s", GetLabelStr(hll->labels[LSTART], buff));

	mov	r8d, DWORD PTR [rbx+16]
	lea	rdx, OFFSET FLAT:$SG11141
	lea	rcx, QWORD PTR buff$[rsp]
	call	sprintf
	lea	rdx, QWORD PTR buff$[rsp]
	lea	rcx, OFFSET FLAT:$SG12361
	call	AddLineQueueX
$LN237@HllEndDir:

; 2394 :     if (!hll->cond)

	cmp	BYTE PTR [rbx+72], sil
	jne	SHORT $LN240@HllEndDir
$adlabel$604:

; 2395 :       adlabel:
; 2396 :     AddLineQueueX(" jmp %s", GetLabelStr(hll->labels[LSTART], buff));

	mov	r8d, DWORD PTR [rbx+16]
	lea	rdx, OFFSET FLAT:$SG11141
	lea	rcx, QWORD PTR buff$[rsp]
	call	sprintf
	lea	rdx, QWORD PTR buff$[rsp]
	lea	rcx, OFFSET FLAT:$SG12363
	call	AddLineQueueX
$LN240@HllEndDir:

; 2397 :     tokenarray[i].token = T_FINAL;

	movsxd	rax, DWORD PTR i$[rbp-256]
	shl	rax, 5
	mov	BYTE PTR [rax+rdi], sil

; 2398 :     break;

	jmp	$LN577@HllEndDir
$LN241@HllEndDir:

; 2399 :     //end of .ENDFOR
; 2400 :   case T_DOT_ENDW:
; 2401 :     if (hll->cmd != HLL_WHILE) {

	cmp	DWORD PTR [rbx+68], 1
	jne	$LN601@HllEndDir

; 2402 :       DebugMsg(("HllEndDir: no .WHILE on the hll stack\n"));
; 2403 :       return(EmitErr(BLOCK_NESTING_ERROR, tokenarray[i].string_ptr));
; 2404 :     }
; 2405 :     i++;

	inc	DWORD PTR i$[rbp-256]

; 2406 :     /* create test label */
; 2407 :     if (hll->labels[LTEST]) {

	mov	r8d, DWORD PTR [rbx+8]
	test	r8d, r8d
	je	SHORT $LN243@HllEndDir

; 2408 :       AddLineQueueX("%s" LABELQUAL, GetLabelStr(hll->labels[LTEST], buff));

	lea	rdx, OFFSET FLAT:$SG11141
	lea	rcx, QWORD PTR buff$[rsp]
	call	sprintf
	lea	rdx, QWORD PTR buff$[rsp]
	lea	rcx, OFFSET FLAT:$SG12367
	call	AddLineQueueX
$LN243@HllEndDir:

; 2409 :     }
; 2410 :     QueueTestLines(hll->condlines);

	mov	rcx, QWORD PTR [rbx+48]
	call	QueueTestLines

; 2411 :     LclFree(hll->condlines);
; 2412 :     break;

	jmp	$LN577@HllEndDir
$LN244@HllEndDir:

; 2413 :   case T_DOT_UNTILCXZ:
; 2414 :     if (hll->cmd != HLL_REPEAT) {

	cmp	DWORD PTR [rbx+68], 2
	jne	$LN601@HllEndDir

; 2415 :       DebugMsg(("HllEndDir: no .REPEAT on the hll stack\n"));
; 2416 :       return(EmitErr(BLOCK_NESTING_ERROR, tokenarray[i].string_ptr));
; 2417 :     }
; 2418 :     i++;

	mov	eax, DWORD PTR i$[rbp-256]
	inc	eax
	mov	DWORD PTR i$[rbp-256], eax

; 2419 :     if (hll->labels[LTEST]) /* v2.11: LTEST only needed if .CONTINUE has occured */

	mov	r8d, DWORD PTR [rbx+8]
	test	r8d, r8d
	je	SHORT $LN246@HllEndDir

; 2420 :       AddLineQueueX("%s" LABELQUAL, GetLabelStr(hll->labels[LTEST], buff));

	lea	rdx, OFFSET FLAT:$SG11141
	lea	rcx, QWORD PTR buff$[rsp]
	call	sprintf
	lea	rdx, QWORD PTR buff$[rsp]
	lea	rcx, OFFSET FLAT:$SG12371
	call	AddLineQueueX
	mov	eax, DWORD PTR i$[rbp-256]
$LN246@HllEndDir:

; 2421 : 
; 2422 :     /* read in optional (simple) expression */
; 2423 :     if (tokenarray[i].token != T_FINAL) {

	cdqe
	shl	rax, 5
	cmp	BYTE PTR [rax+rdi], sil
	je	$LN247@HllEndDir

; 2424 :       rc = EvaluateHllExpression(hll, &i, tokenarray, LSTART, FALSE, buffer);

	lea	rax, QWORD PTR hllop$2[rsp]
	mov	QWORD PTR hllop$2[rsp], rsi
	mov	QWORD PTR [rsp+48], rax
	lea	rdx, QWORD PTR i$[rbp-256]
	lea	rax, QWORD PTR buffer$[rsp]
	mov	DWORD PTR hllop$2[rsp+8], esi
	mov	QWORD PTR [rsp+40], rax
	mov	r9d, 2
	mov	r8, rdi
	mov	BYTE PTR [rsp+32], sil
	mov	rcx, rbx
	mov	BYTE PTR buffer$[rsp], sil
	call	GetExpression
	cmp	eax, -1
	jne	SHORT $LN467@HllEndDir
	or	esi, eax
	jmp	$LN577@HllEndDir
$LN467@HllEndDir:
	movsxd	rax, DWORD PTR i$[rbp-256]
	shl	rax, 5
	cmp	BYTE PTR [rax+rdi], sil
	je	SHORT $LN574@HllEndDir
	mov	ecx, 199				; 000000c7H
	call	EmitError
	mov	esi, eax

; 2425 :       if (rc == NOT_ERROR) {

	test	eax, eax
	jne	$LN577@HllEndDir
$LN574@HllEndDir:

; 2426 :         rc = CheckCXZLines(buffer);

	lea	rcx, QWORD PTR buffer$[rsp]
	call	CheckCXZLines
	mov	esi, eax

; 2427 :         if (rc == NOT_ERROR)

	test	eax, eax
	jne	SHORT $LN250@HllEndDir

; 2428 :           QueueTestLines(buffer); /* write condition lines */

	lea	rdi, QWORD PTR buffer$[rsp]
	npad	5
$LL471@HllEndDir:
	mov	edx, 10
	mov	rcx, rdi
	mov	r14, rdi
	call	strchr
	mov	rdi, rax
	test	rax, rax
	je	SHORT $LN473@HllEndDir
	mov	BYTE PTR [rax], r12b
	inc	rdi
$LN473@HllEndDir:
	cmp	BYTE PTR [r14], r12b
	je	SHORT $LN474@HllEndDir
	mov	rcx, r14
	call	AddLineQueue
$LN474@HllEndDir:
	test	rdi, rdi
	jne	SHORT $LL471@HllEndDir
	jmp	$LN580@HllEndDir
$LN250@HllEndDir:

; 2429 :         else
; 2430 :           EmitError(EXPR_TOO_COMPLEX_FOR_UNTILCXZ);

	mov	ecx, 191				; 000000bfH
	call	EmitError

; 2431 :       }
; 2432 :     }

	jmp	$LN577@HllEndDir
$LN247@HllEndDir:

; 2433 :     else {
; 2434 :       AddLineQueueX(JMPPREFIX "loop %s", GetLabelStr(hll->labels[LSTART], buff));

	mov	r8d, DWORD PTR [rbx+16]
	lea	rdx, OFFSET FLAT:$SG11141
	lea	rcx, QWORD PTR buff$[rsp]
	call	sprintf
	lea	rdx, QWORD PTR buff$[rsp]
	lea	rcx, OFFSET FLAT:$SG12377
	call	AddLineQueueX

; 2435 :     }
; 2436 :     break;

	jmp	$LN577@HllEndDir
$LN252@HllEndDir:

; 2437 :   case T_DOT_UNTIL:
; 2438 :     if (hll->cmd != HLL_REPEAT) {

	cmp	DWORD PTR [rbx+68], 2
	je	SHORT $LN253@HllEndDir
$LN601@HllEndDir:

; 2439 :       DebugMsg(("HllEndDir: no .REPEAT on the hll stack\n"));
; 2440 :       return(EmitErr(BLOCK_NESTING_ERROR, tokenarray[i].string_ptr));

	movsxd	rdx, DWORD PTR i$[rbp-256]
	mov	ecx, 80					; 00000050H
	shl	rdx, 5
	mov	rdx, QWORD PTR [rdx+rdi+8]
	call	EmitErr
	jmp	$LN581@HllEndDir
$LN253@HllEndDir:

; 2441 :     }
; 2442 :     i++;

	inc	DWORD PTR i$[rbp-256]

; 2443 :     if (hll->labels[LTEST]) /* v2.11: LTEST only needed if .CONTINUE has occured */

	mov	r8d, DWORD PTR [rbx+8]
	test	r8d, r8d
	je	SHORT $LN254@HllEndDir

; 2444 :       AddLineQueueX("%s" LABELQUAL, GetLabelStr(hll->labels[LTEST], buff));

	lea	rdx, OFFSET FLAT:$SG11141
	lea	rcx, QWORD PTR buff$[rsp]
	call	sprintf
	lea	rdx, QWORD PTR buff$[rsp]
	lea	rcx, OFFSET FLAT:$SG12381
	call	AddLineQueueX
$LN254@HllEndDir:

; 2445 : 
; 2446 :     /* read in (optional) expression */
; 2447 :     /* if expression is missing, just generate nothing */
; 2448 :     if (tokenarray[i].token != T_FINAL) {

	movsxd	rax, DWORD PTR i$[rbp-256]
	shl	rax, 5
	cmp	BYTE PTR [rax+rdi], sil
	je	$LN577@HllEndDir

; 2449 :       rc = EvaluateHllExpression(hll, &i, tokenarray, LSTART, FALSE, buffer);

	lea	rax, QWORD PTR hllop$1[rsp]
	mov	QWORD PTR hllop$1[rsp], rsi
	mov	QWORD PTR [rsp+48], rax
	lea	rdx, QWORD PTR i$[rbp-256]
	lea	rax, QWORD PTR buffer$[rsp]
	mov	DWORD PTR hllop$1[rsp+8], esi
	mov	QWORD PTR [rsp+40], rax
	mov	r9d, 2
	mov	r8, rdi
	mov	BYTE PTR [rsp+32], sil
	mov	rcx, rbx
	mov	BYTE PTR buffer$[rsp], sil
	call	GetExpression
	cmp	eax, -1
	jne	SHORT $LN481@HllEndDir
	or	esi, eax
	jmp	SHORT $LN577@HllEndDir
$LN481@HllEndDir:
	movsxd	rax, DWORD PTR i$[rbp-256]
	shl	rax, 5
	cmp	BYTE PTR [rax+rdi], sil
	je	SHORT $LN482@HllEndDir
	mov	ecx, 199				; 000000c7H
	call	EmitError
	mov	esi, eax

; 2450 :       if (rc == NOT_ERROR)

	test	eax, eax
	jne	SHORT $LN577@HllEndDir

; 2449 :       rc = EvaluateHllExpression(hll, &i, tokenarray, LSTART, FALSE, buffer);

$LN482@HllEndDir:

; 2451 :         QueueTestLines(buffer); /* write condition lines */

	lea	rdi, QWORD PTR buffer$[rsp]
	npad	8
$LL485@HllEndDir:
	mov	edx, 10
	mov	rcx, rdi
	mov	r14, rdi
	call	strchr
	mov	rdi, rax
	test	rax, rax
	je	SHORT $LN487@HllEndDir
	mov	BYTE PTR [rax], r12b
	inc	rdi
$LN487@HllEndDir:
	cmp	BYTE PTR [r14], r12b
	je	SHORT $LN488@HllEndDir
	mov	rcx, r14
	call	AddLineQueue
$LN488@HllEndDir:
	test	rdi, rdi
	jne	SHORT $LL485@HllEndDir
$LN580@HllEndDir:
	mov	rdi, QWORD PTR tokenarray$[rbp-256]
	mov	r14d, 4
$LN577@HllEndDir:

; 2452 :     }
; 2453 :     break;
; 2454 : #ifdef DEBUG_OUT
; 2455 :   default: /**/myassert(0); break;
; 2456 : #endif
; 2457 :   }
; 2458 : 
; 2459 :   /* create the exit label if it has been referenced */
; 2460 :   if (hll->labels[LEXIT])

	mov	r8d, DWORD PTR [rbx+12]
	test	r8d, r8d
	je	SHORT $LN257@HllEndDir

; 2461 :     AddLineQueueX("%s" LABELQUAL, GetLabelStr(hll->labels[LEXIT], buff));

	lea	rdx, OFFSET FLAT:$SG11141
	lea	rcx, QWORD PTR buff$[rsp]
	call	sprintf
	lea	rdx, QWORD PTR buff$[rsp]
	lea	rcx, OFFSET FLAT:$SG12385
	call	AddLineQueueX
$LN257@HllEndDir:

; 2462 : 
; 2463 :   if (tokenarray[i].token != T_FINAL && rc == NOT_ERROR) {

	movsxd	rax, DWORD PTR i$[rbp-256]
	shl	rax, 5
	cmp	BYTE PTR [rax+rdi], 0
	je	SHORT $LN258@HllEndDir
	test	esi, esi
	jne	SHORT $LN258@HllEndDir

; 2464 :     EmitErr(SYNTAX_ERROR_EX, tokenarray[i].tokpos);

	mov	rdx, QWORD PTR [rax+rdi+24]
	mov	ecx, 209				; 000000d1H
	call	EmitErr

; 2465 :     rc = ERROR;

	or	esi, -1
$LN258@HllEndDir:

; 2466 :   }
; 2467 :   if (ModuleInfo.list)

	test	DWORD PTR ModuleInfo+408, 2048		; 00000800H
	je	SHORT $LN259@HllEndDir

; 2468 :     LstWrite(LSTTYPE_DIRECTIVE, GetCurrOffset(), NULL);

	call	GetCurrOffset
	mov	edx, eax
	xor	r8d, r8d
	mov	ecx, r14d
	call	LstWrite
$LN259@HllEndDir:

; 2469 : 
; 2470 :   /* v2.11: always run line-queue if it's not empty. */
; 2471 :   if (is_linequeue_populated())

	cmp	QWORD PTR ModuleInfo+184, 0
	je	SHORT $LN260@HllEndDir

; 2472 :     RunLineQueue();

	call	RunLineQueue
$LN260@HllEndDir:

; 2473 : 
; 2474 :   return(rc);

	mov	eax, esi
$LN581@HllEndDir:
	mov	r14, QWORD PTR [rsp+2168]

; 2475 : }

	add	rsp, 2184				; 00000888H
	pop	r15
	pop	r12
	pop	rdi
	pop	rsi
	pop	rbx
	pop	rbp
	ret	0
	npad	2
$LN576@HllEndDir:
	DD	$LN56@HllEndDir
	DD	$LN241@HllEndDir
	DD	$LN252@HllEndDir
	DD	$LN244@HllEndDir
	DD	$LN231@HllEndDir
	DD	$LN577@HllEndDir
	DD	$LN577@HllEndDir
	DD	$LN577@HllEndDir
	DD	$LN59@HllEndDir
HllEndDir ENDP
_TEXT	ENDS
; Function compile flags: /Ogtpy
; File d:\hjwasm\hjwasm2.13.1s\hjwasm2.13.1s\hll.c
_TEXT	SEGMENT
hllop$1 = 64
hllop$2 = 64
hllop$3 = 64
buff$ = 80
opndx$ = 96
forbuff$ = 208
forbuffcnt$ = 1232
forbuffcond$ = 2256
buffer$ = 3280
forbuffinit$ = 5328
transformed$ = 6352
i$ = 7424
tokenarray$ = 7432
HllStartDir PROC

; 1255 : {

$LN302:
	mov	QWORD PTR [rsp+32], rbx
	mov	DWORD PTR [rsp+8], ecx
	push	rbp
	push	rdi
	push	r12
	push	r13
	push	r15
	lea	rbp, QWORD PTR [rsp-7120]
	mov	eax, 7376				; 00001cd0H
	call	__chkstk
	sub	rsp, rax

; 1256 :   struct hll_item      *hll;
; 1257 :   ret_code             rc = NOT_ERROR;
; 1258 :   int                  cmd = tokenarray[i].tokval;
; 1259 :   char buff[16];
; 1260 :   char buffer[MAX_LINE_LEN * 2];
; 1261 :   char codebuff[256];
; 1262 :   char param[256];
; 1263 :   char init[256];
; 1264 :   char limit[MAX_LINE_LEN];
; 1265 :   char op[4];
; 1266 :   char forbuff[MAX_LINE_LEN];
; 1267 :   char forbuffinit[MAX_LINE_LEN];
; 1268 :   char forbuffcond[MAX_LINE_LEN];
; 1269 :   char forbuffcnt[MAX_LINE_LEN];
; 1270 :   char transformed[MAX_LINE_LEN];
; 1271 :   int a;
; 1272 :   int j;
; 1273 :   int b;
; 1274 :   int e;
; 1275 :   int size;
; 1276 :   int eqcnt;
; 1277 :   int cmcnt;
; 1278 :   char *p;
; 1279 :   char c;
; 1280 :   struct expr         opndx;
; 1281 :   struct asm_tok      *t;
; 1282 :   DebugMsg1(("HllStartDir(%s) enter\n", tokenarray[i].string_ptr));
; 1283 : 
; 1284 :   i++; /* skip directive */
; 1285 : 
; 1286 :        /* v2.06: is there an item on the free stack? */
; 1287 :   if (HllFree) {

	mov	rdi, QWORD PTR ModuleInfo+232
	xor	r13d, r13d
	movsxd	rax, ecx
	mov	r15, rdx
	shl	rax, 5
	inc	ecx
	mov	r12d, r13d
	mov	ebx, DWORD PTR [rax+rdx+16]
	mov	DWORD PTR i$[rbp-256], ecx
	test	rdi, rdi
	jne	SHORT $LN19@HllStartDi

; 1288 :     hll = HllFree;
; 1289 :     DebugCmd(cntReused++);
; 1290 :   }
; 1291 :   else {
; 1292 :     hll = LclAlloc(sizeof(struct hll_item));

	mov	ecx, 160				; 000000a0H
	call	LclAlloc
	mov	rdi, rax
$LN19@HllStartDi:

; 1293 :     DebugCmd(cntAlloc++);
; 1294 :   }
; 1295 : 
; 1296 :   /* structure for .IF .ELSE .ENDIF
; 1297 :   *    cond jump to LTEST-label
; 1298 :   *    ...
; 1299 :   *    jmp LEXIT
; 1300 :   *  LTEST:
; 1301 :   *    ...
; 1302 :   *  LEXIT:
; 1303 : 
; 1304 :   * structure for .IF .ELSEIF
; 1305 :   *    cond jump to LTEST
; 1306 :   *    ...
; 1307 :   *    jmp LEXIT
; 1308 :   *  LTEST:
; 1309 :   *    cond jump to (new) LTEST
; 1310 :   *    ...
; 1311 :   *    jmp LEXIT
; 1312 :   *  LTEST:
; 1313 :   *    ...
; 1314 : 
; 1315 :   * structure for .WHILE and .REPEAT:
; 1316 :   *   jmp LTEST (for .WHILE only)
; 1317 :   * LSTART:
; 1318 :   *   ...
; 1319 :   * LTEST: (jumped to by .continue)
; 1320 :   *   a) test end condition, cond jump to LSTART label
; 1321 :   *   b) unconditional jump to LSTART label
; 1322 :   * LEXIT: (jumped to by .BREAK)
; 1323 :   */
; 1324 : 
; 1325 :   hll->labels[LEXIT] = 0;

	mov	QWORD PTR [rsp+7432], rsi
	mov	DWORD PTR [rdi+12], r13d

; 1326 : 
; 1327 :   switch (cmd) {

	cmp	ebx, 328				; 00000148H
	je	$LN20@HllStartDi
	jle	$LN22@HllStartDi
	cmp	ebx, 330				; 0000014aH
	jle	$LN75@HllStartDi
	cmp	ebx, 331				; 0000014bH
	je	$LN51@HllStartDi
	cmp	ebx, 341				; 00000155H
	jne	$LN22@HllStartDi

; 1341 :       }
; 1342 :     }
; 1343 :     break;
; 1344 :     // added by habran
; 1345 :   case T_DOT_SWITCH:
; 1346 :     hll->cmd = HLL_SWITCH;

	mov	DWORD PTR [rdi+68], 5

; 1347 :     hll->flags = HLLF_WHILE;

	mov	DWORD PTR [rdi+76], 4

; 1348 :     hll->labels[LSKIP] = GetHllLabel();   /* used by .ENDSWITCH */

	mov	eax, DWORD PTR ModuleInfo+352
	inc	eax
	mov	DWORD PTR ModuleInfo+352, eax
	mov	DWORD PTR [rdi+20], eax

; 1349 :     hll->labels[LJUMP] = GetHllLabel();   /* used by .ENDSWITCH */

	mov	eax, DWORD PTR ModuleInfo+352
	inc	eax
	mov	DWORD PTR ModuleInfo+352, eax
	mov	DWORD PTR [rdi+44], eax

; 1350 :     hll->labels[LEXIT] = GetHllLabel();

	mov	eax, DWORD PTR ModuleInfo+352
	inc	eax
	mov	DWORD PTR ModuleInfo+352, eax
	mov	DWORD PTR [rdi+12], eax

; 1351 :     hll->labels[LDATA1] = GetHllLabel();   /* used by .ENDSWITCH */

	mov	eax, DWORD PTR ModuleInfo+352
	inc	eax
	mov	DWORD PTR ModuleInfo+352, eax
	mov	DWORD PTR [rdi+32], eax

; 1352 :     hll->labels[LSTART] = GetHllLabel();   /* used by .CASE      */

	mov	eax, DWORD PTR ModuleInfo+352
	inc	eax
	mov	DWORD PTR ModuleInfo+352, eax
	mov	DWORD PTR [rdi+16], eax

; 1353 :     hll->labels[LTEST] = 0;               /* used by .CASE      */

	mov	DWORD PTR [rdi+8], r13d

; 1354 :     hll->labels[LDEF] = 0;   /* used by .DEFAULT   */

	mov	DWORD PTR [rdi+28], r13d

; 1355 :     hll->labels[LDATA2] = GetHllLabel();   /* used by .ENDSWITCH */

	mov	eax, DWORD PTR ModuleInfo+352
	inc	eax
	mov	DWORD PTR ModuleInfo+352, eax
	mov	DWORD PTR [rdi+36], eax

; 1356 :     hll->labels[LTOP] = GetHllLabel();   /* used by .ENDSWITCH */

	mov	eax, DWORD PTR ModuleInfo+352
	inc	eax
	mov	DWORD PTR ModuleInfo+352, eax
	mov	DWORD PTR [rdi+40], eax

; 1357 :     hll->labels[LCONT] = GetHllLabel();   /* used by .ENDSWITCH */

	mov	eax, DWORD PTR ModuleInfo+352
	inc	eax
	mov	DWORD PTR ModuleInfo+352, eax
	mov	DWORD PTR [rdi+24], eax

; 1358 :     hll->maxalloccasen = 0;

	mov	DWORD PTR [rdi+100], r13d

; 1359 :     hll->casecnt = 0;

	mov	DWORD PTR [rdi+80], r13d

; 1360 :     hll->csize = 4;

	mov	BYTE PTR [rdi+84], 4

; 1361 :     hll->breakoccured = TRUE; //first label for .CASE hast to be set

	mov	BYTE PTR [rdi+122], 1

; 1362 : 
; 1363 :     if (tokenarray[i].token != T_FINAL) {

	movsxd	rax, DWORD PTR i$[rbp-256]
	shl	rax, 5
	cmp	BYTE PTR [rax+r15], r12b
	je	$LN24@HllStartDi

; 1364 :       DebugMsg1(("HllStartDir(%s): calling EvalOperand, i=%u\n", tokenarray[i].string_ptr, i));
; 1365 :       if (EvalOperand(&i, tokenarray, Token_Count, &opndx, 0) == ERROR) {

	mov	r8d, DWORD PTR ModuleInfo+496
	lea	r9, QWORD PTR opndx$[rsp]
	mov	rdx, r15
	mov	BYTE PTR [rsp+32], r12b
	lea	rcx, QWORD PTR i$[rbp-256]
	call	EvalOperand
	cmp	eax, -1
	jne	SHORT $LN26@HllStartDi

; 1366 :         DebugMsg(("HllStartDir(%s): EvalOperand() failed\n", tokenarray[i].string_ptr));
; 1367 :         return(ERROR);

	or	eax, eax
	jmp	$LN1@HllStartDi
$LN26@HllStartDi:

; 1368 :       }
; 1369 :       i--; //EvalOperand increases i, decrease it to point to proper tokenarray[i].tokpos

	mov	ecx, DWORD PTR i$[rbp-256]

; 1370 :       switch (opndx.kind) {

	mov	edx, DWORD PTR opndx$[rbp-196]
	dec	ecx
	mov	DWORD PTR i$[rbp-256], ecx
	sub	edx, 1
	je	$LN40@HllStartDi
	cmp	edx, 1
	jne	$LN50@HllStartDi

; 1371 :       case EXPR_REG:
; 1372 :         t = opndx.base_reg;
; 1373 :         if (ModuleInfo.Ofssize == USE32) {

	cmp	BYTE PTR ModuleInfo+404, 1

; 1374 :           if (t->tokval <= T_BX)   // AL, CL, DL, BL, AH, CH, DH, BH, AX, CX, DX, BX

	mov	rax, QWORD PTR opndx$[rsp+24]
	mov	edx, DWORD PTR [rax+16]
	jne	SHORT $LN28@HllStartDi
	cmp	edx, 12
	ja	SHORT $LN30@HllStartDi

; 1375 :             AddLineQueueX(" movzx eax, %s", tokenarray[i].tokpos);

	movsxd	rdx, ecx
	lea	rcx, OFFSET FLAT:$SG11711
	jmp	$LN297@HllStartDi
$LN30@HllStartDi:

; 1376 :           else {
; 1377 :             if (t->tokval != T_EAX) //skip it, no need to write MOV EAX,EAX

	cmp	edx, 17
	je	$LN50@HllStartDi

; 1378 :               AddLineQueueX(" mov eax, %s", tokenarray[i].tokpos);

	movsxd	rdx, ecx
	lea	rcx, OFFSET FLAT:$SG11713

; 1379 :           }
; 1380 :         }

	jmp	$LN297@HllStartDi
$LN28@HllStartDi:

; 1381 : #if AMD64_SUPPORT
; 1382 :         else             //USE64
; 1383 :         {
; 1384 :           if ((t->tokval <= T_EAX))

	cmp	edx, 17
	jbe	$LN50@HllStartDi

; 1385 :             ; //skip it, no need to write MOV EAX,EAX
; 1386 :           else if (t->tokval <= T_BX) // AL, CL, DL, BL, AH, CH, DH, BH, AX, CX, DX, BX

	cmp	edx, 12
	ja	SHORT $LN35@HllStartDi

; 1387 :             AddLineQueueX(" movzx eax, %s", tokenarray[i].tokpos);

	movsxd	rdx, ecx
	lea	rcx, OFFSET FLAT:$SG11718
	jmp	$LN297@HllStartDi
$LN35@HllStartDi:

; 1388 :           else if (t->tokval <= T_EDI) //EAX,ECX,EDX,EBX,ESP,EBP,ESI,EDI

	cmp	edx, 24
	ja	SHORT $LN37@HllStartDi

; 1389 :             AddLineQueueX(" mov eax, %s", tokenarray[i].tokpos);

	movsxd	rdx, ecx
	lea	rcx, OFFSET FLAT:$SG11721
	jmp	$LN297@HllStartDi
$LN37@HllStartDi:

; 1390 :           else {
; 1391 :             if (t->tokval != T_RAX) //skip it, no need to write MOV RAX,RAX

	cmp	edx, 115				; 00000073H
	je	SHORT $LN39@HllStartDi

; 1392 :               AddLineQueueX(" mov rax, %s", tokenarray[i].tokpos);

	movsxd	rdx, ecx
	lea	rcx, OFFSET FLAT:$SG11723
	shl	rdx, 5
	mov	rdx, QWORD PTR [rdx+r15+24]
	call	AddLineQueueX
$LN39@HllStartDi:

; 1393 :             hll->csize = 8;

	mov	BYTE PTR [rdi+84], 8

; 1394 :           }
; 1395 :         }               //end USE64
; 1396 : #endif
; 1397 :         break;

	jmp	SHORT $LN298@HllStartDi
$LN40@HllStartDi:

; 1398 :       case EXPR_ADDR:
; 1399 :         if (ModuleInfo.Ofssize == USE32) {

	cmp	BYTE PTR ModuleInfo+404, 1

; 1402 :           else
; 1403 :             AddLineQueueX(" mov eax, %s", tokenarray[i].tokpos);

	movsxd	rdx, ecx
	jne	SHORT $LN41@HllStartDi
	shl	rdx, 5
	cmp	DWORD PTR opndx$[rbp-192], 1
	mov	rdx, QWORD PTR [rdx+r15+24]
	jbe	SHORT $LN45@HllStartDi
	lea	rcx, OFFSET FLAT:$SG11731
	jmp	SHORT $LN299@HllStartDi
$LN45@HllStartDi:

; 1400 :           if (opndx.mem_type == MT_BYTE || opndx.mem_type == MT_WORD)
; 1401 :             AddLineQueueX(" movzx eax, %s", tokenarray[i].tokpos);

	lea	rcx, OFFSET FLAT:$SG11730

; 1404 :         }

	jmp	SHORT $LN299@HllStartDi
$LN41@HllStartDi:
	mov	eax, DWORD PTR opndx$[rbp-192]
	cmp	eax, 1
	jbe	SHORT $LN48@HllStartDi

; 1410 :           else if (opndx.mem_type == MT_DWORD)
; 1411 :             AddLineQueueX(" mov eax, %s", tokenarray[i].tokpos);

	shl	rdx, 5
	mov	rdx, QWORD PTR [rdx+r15+24]
	cmp	eax, 3
	jne	SHORT $LN49@HllStartDi
	lea	rcx, OFFSET FLAT:$SG11738
	jmp	SHORT $LN299@HllStartDi
$LN49@HllStartDi:

; 1412 :           else {
; 1413 :             AddLineQueueX(" mov rax, %s", tokenarray[i].tokpos);

	lea	rcx, OFFSET FLAT:$SG11739
	call	AddLineQueueX

; 1414 :             hll->csize = 8;

	mov	BYTE PTR [rdi+84], 8
	jmp	SHORT $LN298@HllStartDi
$LN48@HllStartDi:

; 1405 : #if AMD64_SUPPORT
; 1406 :         else             //USE64
; 1407 :         {
; 1408 :           if (opndx.mem_type == MT_BYTE || opndx.mem_type == MT_WORD)
; 1409 :             AddLineQueueX(" movzx eax, %s", tokenarray[i].tokpos);

	lea	rcx, OFFSET FLAT:$SG11735
$LN297@HllStartDi:
	shl	rdx, 5
	mov	rdx, QWORD PTR [rdx+r15+24]
$LN299@HllStartDi:
	call	AddLineQueueX
$LN298@HllStartDi:
	mov	ecx, DWORD PTR i$[rbp-256]
$LN50@HllStartDi:

; 1424 :     }
; 1425 :     i++;

	inc	ecx

; 1426 :     AddLineQueueX(JMPPREFIX "jmp %s", GetLabelStr(hll->labels[LSTART], buff));

	lea	rdx, OFFSET FLAT:$SG11141
	mov	DWORD PTR i$[rbp-256], ecx
	lea	rcx, QWORD PTR buff$[rsp]
	mov	r8d, DWORD PTR [rdi+16]
	call	sprintf
	lea	rdx, QWORD PTR buff$[rsp]
	lea	rcx, OFFSET FLAT:$SG11740
	call	AddLineQueueX

; 1427 :     break;

	jmp	$LN22@HllStartDi
$LN24@HllStartDi:

; 1415 :           }
; 1416 :         }                //end USE64
; 1417 : #endif
; 1418 :         break;
; 1419 :       }
; 1420 :     }
; 1421 :     else {
; 1422 :       DebugMsg(("HllExitDir stack error\n"));
; 1423 :       return(EmitError(MISSING_OPERATOR_IN_EXPRESSION));

	mov	ecx, 150				; 00000096H
	call	EmitError
	jmp	$LN1@HllStartDi
$LN51@HllStartDi:

; 1428 :   case T_DOT_FOR:
; 1429 :     /* create the label to loop start */
; 1430 :     hll->labels[LSTART] = GetHllLabel();

	mov	eax, DWORD PTR ModuleInfo+352
	inc	eax
	mov	QWORD PTR [rsp+7440], r14
	mov	DWORD PTR ModuleInfo+352, eax

; 1431 :     hll->labels[LSKIP] = GetHllLabel();
; 1432 :     hll->labels[LCONT] = 0;
; 1433 :     hll->labels[LTEST] = 0;
; 1434 :     hll->flags = 0;
; 1435 :     hll->cmd = HLL_FOR;
; 1436 :     //copy string to the buffer and get read of spaces
; 1437 :     p = tokenarray[i].tokpos;
; 1438 :     for (b = 0; *p; p++)

	mov	r14d, r13d
	mov	DWORD PTR [rdi+16], eax
	mov	eax, DWORD PTR ModuleInfo+352
	inc	eax
	mov	DWORD PTR ModuleInfo+352, eax
	mov	DWORD PTR [rdi+20], eax
	mov	DWORD PTR [rdi+24], r13d
	mov	DWORD PTR [rdi+8], r13d
	mov	DWORD PTR [rdi+76], r13d
	mov	DWORD PTR [rdi+68], 4
	movsxd	rax, DWORD PTR i$[rbp-256]
	shl	rax, 5
	mov	rsi, QWORD PTR [rax+r15+24]
	movzx	eax, BYTE PTR [rsi]
	test	al, al
	je	SHORT $LN7@HllStartDi
	lea	rbx, QWORD PTR forbuff$[rbp-256]
$LL8@HllStartDi:

; 1439 :     {
; 1440 :       if ((*p == ' ') || (*p == '\t')) {

	cmp	al, 32					; 00000020H
	je	SHORT $LN54@HllStartDi
	cmp	al, 9
	jne	SHORT $LN300@HllStartDi
$LN54@HllStartDi:

; 1441 :         //if there is QWORD PTR, DWORD PTR, WORD PTR, BYTE PTR, OFFSET or ADDR leave a space between
; 1442 :         c = tolower(*(p + 1));

	movsx	ecx, BYTE PTR [rsi+1]
	call	tolower

; 1443 :         if ((c >= 'a') && (c <= 'z')) {

	sub	al, 97					; 00000061H
	cmp	al, 25
	ja	SHORT $LN6@HllStartDi

; 1444 :           forbuff[b] = *p;

	movzx	eax, BYTE PTR [rsi]
$LN300@HllStartDi:

; 1445 :           b++;

	inc	r14d
	mov	BYTE PTR [rbx], al
	inc	rbx
$LN6@HllStartDi:

; 1431 :     hll->labels[LSKIP] = GetHllLabel();
; 1432 :     hll->labels[LCONT] = 0;
; 1433 :     hll->labels[LTEST] = 0;
; 1434 :     hll->flags = 0;
; 1435 :     hll->cmd = HLL_FOR;
; 1436 :     //copy string to the buffer and get read of spaces
; 1437 :     p = tokenarray[i].tokpos;
; 1438 :     for (b = 0; *p; p++)

	movzx	eax, BYTE PTR [rsi+1]
	inc	rsi
	test	al, al
	jne	SHORT $LL8@HllStartDi
$LN7@HllStartDi:

; 1446 :         }
; 1447 :       }
; 1448 :       else {
; 1449 :         forbuff[b] = *p;
; 1450 :         b++;
; 1451 :       }
; 1452 :     }
; 1453 :     forbuff[b] = NULLC;

	movsxd	rax, r14d

; 1454 :     if (0 == _memicmp(forbuff, "(::)", 4)) {

	lea	rdx, OFFSET FLAT:$SG11748
	mov	r8d, 4
	lea	rcx, QWORD PTR forbuff$[rbp-256]
	mov	BYTE PTR forbuff$[rbp+rax-256], r12b
	call	_memicmp
	mov	r14, QWORD PTR [rsp+7440]
	test	eax, eax
	jne	SHORT $LN56@HllStartDi

; 1455 :       hll->cmcnt = 0;

	mov	DWORD PTR [rdi+64], r13d

; 1456 :     }

	jmp	$LN73@HllStartDi
$LN56@HllStartDi:

; 1457 :     else {
; 1458 :       //count initializers
; 1459 :       eqcnt = 1;
; 1460 :       forbuffinit[0] = NULLC;
; 1461 :       for (j = 1, b = 0; forbuff[j];) {

	mov	r9d, r13d
	mov	BYTE PTR forbuffinit$[rbp-256], r12b
	mov	r10d, 1
	mov	r8d, r10d
	cmp	BYTE PTR forbuff$[rbp-255], r9b
	je	SHORT $LN295@HllStartDi
	mov	ecx, r10d
	mov	rax, r13
$LL9@HllStartDi:

; 1462 :         c = forbuff[j];

	movzx	edx, BYTE PTR forbuff$[rbp+rcx-256]

; 1463 :         if (c == ':') {

	cmp	dl, 58					; 0000003aH
	jne	SHORT $LN59@HllStartDi

; 1464 :           if (forbuff[j - 1] != 39 && forbuff[j + 1] != 39) break;

	cmp	BYTE PTR forbuff$[rbp+rcx-257], 39	; 00000027H
	je	SHORT $LN60@HllStartDi
	cmp	BYTE PTR forbuff$[rbp+rcx-255], 39	; 00000027H
	jne	SHORT $LN295@HllStartDi

; 1465 :         }
; 1466 :         if (c == ',' && forbuff[j - 1] != 39 && forbuff[j + 1] != 39) eqcnt++;

	jmp	SHORT $LN60@HllStartDi
$LN59@HllStartDi:
	cmp	dl, 44					; 0000002cH
	jne	SHORT $LN60@HllStartDi
	cmp	BYTE PTR forbuff$[rbp+rcx-257], 39	; 00000027H
	je	SHORT $LN60@HllStartDi
	cmp	BYTE PTR forbuff$[rbp+rcx-255], 39	; 00000027H
	je	SHORT $LN60@HllStartDi
	inc	r10d
$LN60@HllStartDi:

; 1467 :         forbuffinit[b] = c;

	mov	BYTE PTR forbuffinit$[rbp+rax-256], dl

; 1468 :         if (c == 39 && forbuffinit[b - 2] == 39) {

	cmp	dl, 39					; 00000027H
	jne	SHORT $LN61@HllStartDi
	cmp	BYTE PTR forbuffinit$[rbp+rax-258], dl
	jne	SHORT $LN61@HllStartDi

; 1469 :           b++;

	inc	r9d

; 1470 :           forbuffinit[b] = ' ';

	mov	BYTE PTR forbuffinit$[rbp+rax-255], 32	; 00000020H
	inc	rax
$LN61@HllStartDi:

; 1471 :         }
; 1472 :         j++;

	inc	rcx
	inc	r8d

; 1473 :         b++;

	inc	r9d
	inc	rax
	cmp	BYTE PTR forbuff$[rbp+rcx-256], r12b
	jne	SHORT $LL9@HllStartDi
$LN295@HllStartDi:

; 1474 :       }
; 1475 :       forbuffinit[b] = NULLC;

	movsxd	rax, r9d

; 1477 :       //coppy the condition to the buffer
; 1478 :       forbuffcond[0] = NULLC;
; 1479 :       hll->labels[LTEST] = 0;
; 1480 :       for (b = 0; forbuff[j] && forbuff[j] != ':'; forbuffcond[b] = forbuff[j], j++, b++);

	lea	rcx, QWORD PTR forbuff$[rbp-256]
	inc	r8d
	mov	DWORD PTR [rdi+8], r13d
	mov	r9d, r13d
	mov	BYTE PTR forbuffcond$[rbp-256], r12b
	mov	BYTE PTR forbuffinit$[rbp+rax-256], r12b
	movsxd	rax, r8d
	add	rcx, rax
	cmp	BYTE PTR [rcx], r9b
	je	SHORT $LN296@HllStartDi

; 1476 :       j++;

	lea	rax, QWORD PTR forbuffcond$[rbp-256]
	npad	3
$LL14@HllStartDi:

; 1477 :       //coppy the condition to the buffer
; 1478 :       forbuffcond[0] = NULLC;
; 1479 :       hll->labels[LTEST] = 0;
; 1480 :       for (b = 0; forbuff[j] && forbuff[j] != ':'; forbuffcond[b] = forbuff[j], j++, b++);

	movzx	edx, BYTE PTR [rcx]
	cmp	dl, 58					; 0000003aH
	je	SHORT $LN296@HllStartDi
	inc	rcx
	mov	BYTE PTR [rax], dl
	inc	r8d
	inc	r9d
	inc	rax
	cmp	BYTE PTR [rcx], r12b
	jne	SHORT $LL14@HllStartDi
$LN296@HllStartDi:

; 1481 :       if (forbuffcond[b - 2] == '>' && forbuffcond[b - 1] == '0') forbuffcond[b - 2] = NULLC;

	movsxd	rax, r9d
	cmp	BYTE PTR forbuffcond$[rbp+rax-258], 62	; 0000003eH
	jne	SHORT $LN62@HllStartDi
	cmp	BYTE PTR forbuffcond$[rbp+rax-257], 48	; 00000030H
	jne	SHORT $LN62@HllStartDi
	mov	BYTE PTR forbuffcond$[rbp+rax-258], r12b
$LN62@HllStartDi:

; 1482 :       forbuffcond[b] = NULLC;
; 1483 :       if (!b) hll->cond = FALSE;

	test	r9d, r9d
	mov	BYTE PTR forbuffcond$[rbp+rax-256], r12b

; 1484 :       else    hll->cond = TRUE;
; 1485 :       j++;
; 1486 :       //copy the counter to the buffer
; 1487 :       cmcnt = 0;

	mov	esi, r13d

; 1488 :       forbuffcnt[0] = NULLC;
; 1489 :       hll->condlines = "";
; 1490 :       for (b = 0; forbuff[j] != ')'; b++, j++) {

	mov	edx, r13d
	setne	al
	mov	BYTE PTR forbuffcnt$[rbp-256], sil
	inc	r8d
	mov	BYTE PTR [rdi+72], al
	movsxd	rcx, r8d
	lea	rax, OFFSET FLAT:$SG11756
	mov	QWORD PTR [rdi+48], rax
	cmp	BYTE PTR forbuff$[rbp+rcx-256], 41	; 00000029H
	je	SHORT $LN16@HllStartDi
	mov	rax, r13
	npad	13
$LL17@HllStartDi:

; 1491 :         forbuffcnt[b] = forbuff[j];

	movzx	r8d, BYTE PTR forbuff$[rbp+rcx-256]
	mov	BYTE PTR forbuffcnt$[rbp+rax-256], r8b

; 1492 :         if (forbuffcnt[b] == ',' && forbuff[j - 1] != 39 && forbuff[j + 1] != 39) ++cmcnt;

	cmp	r8b, 44					; 0000002cH
	jne	SHORT $LN65@HllStartDi
	cmp	BYTE PTR forbuff$[rbp+rcx-257], 39	; 00000027H
	je	SHORT $LN15@HllStartDi
	cmp	BYTE PTR forbuff$[rbp+rcx-255], 39	; 00000027H
	je	SHORT $LN15@HllStartDi
	inc	esi

; 1493 :         if (forbuffcnt[b] == 39 && forbuffcnt[b - 2] == 39) {

	jmp	SHORT $LN15@HllStartDi
$LN65@HllStartDi:
	cmp	r8b, 39					; 00000027H
	jne	SHORT $LN15@HllStartDi
	cmp	BYTE PTR forbuffcnt$[rbp+rax-258], r8b
	jne	SHORT $LN15@HllStartDi

; 1494 :           b++;

	inc	edx

; 1495 :           forbuffcnt[b] = ' ';

	mov	BYTE PTR forbuffcnt$[rbp+rax-255], 32	; 00000020H
	inc	rax
$LN15@HllStartDi:

; 1488 :       forbuffcnt[0] = NULLC;
; 1489 :       hll->condlines = "";
; 1490 :       for (b = 0; forbuff[j] != ')'; b++, j++) {

	inc	rcx
	inc	edx
	inc	rax
	cmp	BYTE PTR forbuff$[rbp+rcx-256], 41	; 00000029H
	jne	SHORT $LL17@HllStartDi
$LN16@HllStartDi:

; 1496 :         }
; 1497 :       }
; 1498 :       if (forbuffcnt[b - 1] == ')') b--;

	movsxd	rax, edx
	cmp	BYTE PTR forbuffcnt$[rbp+rax-257], 41	; 00000029H
	jne	SHORT $LN67@HllStartDi
	dec	edx
$LN67@HllStartDi:

; 1499 :       forbuffcnt[b] = NULLC;

	movsxd	rax, edx
	mov	BYTE PTR forbuffcnt$[rbp+rax-256], r12b

; 1500 :       //create valid command and add to LineQueue to initiate .for loop vars
; 1501 :       //anything that is before the first ':'
; 1502 :       if (forbuffinit[0]) ForInitAndNext(tokenarray, eqcnt, forbuffinit);

	cmp	BYTE PTR forbuffinit$[rbp-256], r12b
	je	SHORT $LN68@HllStartDi
	lea	r8, QWORD PTR forbuffinit$[rbp-256]
	mov	edx, r10d
	mov	rcx, r15
	call	ForInitAndNext
$LN68@HllStartDi:

; 1503 :       //note hll->counterlines is new var in the struct hll_item for store of forbuffcnt used in .ENDFOR
; 1504 :       //hll->cmcnt is also new var in the struct hll_item for commas counter used in .ENDFOR
; 1505 :       //copy forbuffcnt context to hll->counterlines
; 1506 :       //forbuffcnt contains anything that is written after the second ':'
; 1507 :       hll->cmcnt = 0;

	mov	DWORD PTR [rdi+64], r13d

; 1508 :       if (forbuffcnt[0])

	cmp	BYTE PTR forbuffcnt$[rbp-256], r12b
	je	SHORT $LN69@HllStartDi

; 1509 :       {
; 1510 :         //skip altering conditions the first time
; 1511 :         AddLineQueueX(" jmp %s", GetLabelStr(hll->labels[LSKIP], buff));

	mov	r8d, DWORD PTR [rdi+20]
	lea	rdx, OFFSET FLAT:$SG11141
	lea	rcx, QWORD PTR buff$[rsp]
	call	sprintf
	lea	rdx, QWORD PTR buff$[rsp]
	lea	rcx, OFFSET FLAT:$SG11763
	call	AddLineQueueX

; 1512 :         size = strlen(forbuffcnt) + 1;

	lea	rcx, QWORD PTR forbuffcnt$[rbp-256]
	or	rax, -1
$LL294@HllStartDi:
	inc	rax
	cmp	BYTE PTR [rcx+rax], r12b
	jne	SHORT $LL294@HllStartDi
	inc	eax

; 1513 :         hll->counterlines = LclAlloc(size);

	movsxd	rbx, eax
	mov	rcx, rbx
	call	LclAlloc

; 1514 :         memcpy(hll->counterlines, forbuffcnt, size);

	mov	r8, rbx
	mov	QWORD PTR [rdi+56], rax
	lea	rdx, QWORD PTR forbuffcnt$[rbp-256]
	mov	rcx, rax
	call	memcpy

; 1515 :         hll->cmcnt = cmcnt + 1;

	lea	eax, DWORD PTR [rsi+1]
	mov	DWORD PTR [rdi+64], eax

; 1516 :       }

	jmp	SHORT $LN70@HllStartDi
$LN69@HllStartDi:

; 1517 :       else hll->counterlines = "";    //there is nothing after the second ':'

	lea	rax, OFFSET FLAT:$SG11764
	mov	QWORD PTR [rdi+56], rax
$LN70@HllStartDi:

; 1518 :       if (forbuffcond[0]) {

	cmp	BYTE PTR forbuffcond$[rbp-256], r12b
	je	$LN73@HllStartDi

; 1519 :         strcpy(transformed, ".for ");

	mov	rcx, r13
	lea	rdx, OFFSET FLAT:$SG11766
	npad	5
$LL87@HllStartDi:
	movzx	eax, BYTE PTR [rcx+rdx]
	mov	BYTE PTR transformed$[rbp+rcx-256], al
	lea	rcx, QWORD PTR [rcx+1]
	test	al, al
	jne	SHORT $LL87@HllStartDi

; 1520 :         strcat(transformed, forbuffcond);

	lea	rcx, QWORD PTR transformed$[rbp-256]
	dec	rcx
	npad	3
$LL292@HllStartDi:
	cmp	BYTE PTR [rcx+1], r12b
	lea	rcx, QWORD PTR [rcx+1]
	jne	SHORT $LL292@HllStartDi
	lea	r8, QWORD PTR forbuffcond$[rbp-256]
	xor	edx, edx
	npad	13
$LL293@HllStartDi:
	movzx	eax, BYTE PTR [r8+rdx]
	mov	BYTE PTR [rcx+rdx], al
	lea	rdx, QWORD PTR [rdx+1]
	test	al, al
	jne	SHORT $LL293@HllStartDi

; 1521 :         strcat(transformed, "\0");

	lea	rcx, QWORD PTR transformed$[rbp-256]
	dec	rcx
	npad	6
$LL290@HllStartDi:
	cmp	BYTE PTR [rcx+1], r12b
	lea	rcx, QWORD PTR [rcx+1]
	jne	SHORT $LL290@HllStartDi
	lea	r8, OFFSET FLAT:$SG11767
	xor	edx, edx
	npad	13
$LL291@HllStartDi:
	movzx	eax, BYTE PTR [r8+rdx]
	mov	BYTE PTR [rcx+rdx], al
	lea	rdx, QWORD PTR [rdx+1]
	test	al, al
	jne	SHORT $LL291@HllStartDi

; 1522 :         tokenarray[0].string_ptr = ".for\0";

	lea	rax, OFFSET FLAT:$SG11768

; 1523 :         tokenarray[0].tokpos = transformed;
; 1524 :         Token_Count = Tokenize(tokenarray[0].tokpos, 0, tokenarray, 0);

	xor	r9d, r9d
	mov	QWORD PTR [r15+8], rax
	lea	rcx, QWORD PTR transformed$[rbp-256]
	lea	rax, QWORD PTR transformed$[rbp-256]
	mov	r8, r15
	xor	edx, edx
	mov	QWORD PTR [r15+24], rax
	call	Tokenize
	mov	DWORD PTR ModuleInfo+496, eax

; 1525 :         if (tokenarray[i].token != T_FINAL) {

	movsxd	rax, DWORD PTR i$[rbp-256]
	shl	rax, 5
	cmp	BYTE PTR [rax+r15], r12b
	je	$LN72@HllStartDi

; 1526 :           rc = EvaluateHllExpression(hll, &i, tokenarray, LSTART, TRUE, buffer);

	lea	rax, QWORD PTR hllop$2[rsp]
	mov	QWORD PTR hllop$2[rsp], r13
	mov	QWORD PTR [rsp+48], rax
	lea	rdx, QWORD PTR i$[rbp-256]
	lea	rax, QWORD PTR buffer$[rbp-256]
	mov	DWORD PTR hllop$2[rsp+8], r13d
	mov	QWORD PTR [rsp+40], rax
	lea	rbx, QWORD PTR buffer$[rbp-256]
	mov	r9d, 2
	mov	BYTE PTR [rsp+32], 1
	mov	r8, r15
	mov	BYTE PTR buffer$[rbp-256], r12b
	mov	rcx, rdi
	call	GetAndExpression
	cmp	eax, -1
	je	$LN279@HllStartDi
	movsxd	rcx, DWORD PTR i$[rbp-256]
	shl	rcx, 5
	add	rcx, r15
	call	GetCOp
	cmp	eax, 8
	jne	SHORT $LN125@HllStartDi
$LL129@HllStartDi:
	inc	DWORD PTR i$[rbp-256]
	or	rax, -1
	npad	5
$LL289@HllStartDi:
	inc	rax
	cmp	BYTE PTR [rbx+rax], r12b
	jne	SHORT $LL289@HllStartDi
	add	rbx, rax
	mov	DWORD PTR hllop$2[rsp+8], r13d
	lea	rax, QWORD PTR hllop$2[rsp]
	mov	r9d, 2
	mov	QWORD PTR [rsp+48], rax
	lea	rdx, QWORD PTR i$[rbp-256]
	mov	QWORD PTR [rsp+40], rbx
	mov	r8, r15
	mov	rcx, rdi
	mov	BYTE PTR [rsp+32], 1
	call	GetAndExpression
	cmp	eax, -1
	je	SHORT $LN279@HllStartDi
	movsxd	rcx, DWORD PTR i$[rbp-256]
	shl	rcx, 5
	add	rcx, r15
	call	GetCOp
	cmp	eax, 8
	je	SHORT $LL129@HllStartDi
$LN125@HllStartDi:
	movsxd	rax, DWORD PTR i$[rbp-256]
	shl	rax, 5
	cmp	BYTE PTR [rax+r15], r12b
	je	SHORT $LN280@HllStartDi
	mov	ecx, 199				; 000000c7H
	call	EmitError
	mov	r12d, eax

; 1527 :           if (rc == NOT_ERROR) {

	test	eax, eax
	jne	SHORT $LN73@HllStartDi
$LN280@HllStartDi:

; 1528 :             size = strlen(buffer) + 1;

	lea	rcx, QWORD PTR buffer$[rbp-256]
	or	rax, -1
$LL288@HllStartDi:
	inc	rax
	cmp	BYTE PTR [rcx+rax], r13b
	jne	SHORT $LL288@HllStartDi
	inc	eax

; 1529 :             hll->condlines = LclAlloc(size);

	movsxd	rbx, eax
	mov	rcx, rbx
	call	LclAlloc

; 1530 :             memcpy(hll->condlines, buffer, size);

	mov	r8, rbx
	mov	QWORD PTR [rdi+48], rax
	lea	rdx, QWORD PTR buffer$[rbp-256]
	mov	rcx, rax
	call	memcpy

; 1531 :             DebugCmd(cntCond++); DebugCmd(cntCondBytes += size);
; 1532 :           }
; 1533 :         }

	jmp	SHORT $LN73@HllStartDi
$LN279@HllStartDi:

; 1526 :           rc = EvaluateHllExpression(hll, &i, tokenarray, LSTART, TRUE, buffer);

	or	r12d, -1
	jmp	SHORT $LN73@HllStartDi
$LN72@HllStartDi:

; 1534 :         else
; 1535 :           hll->condlines = "";

	lea	rax, OFFSET FLAT:$SG11772
	mov	QWORD PTR [rdi+48], rax
$LN73@HllStartDi:

; 1536 :       }
; 1537 :     }
; 1538 :     AddLineQueueX("%s" LABELQUAL, GetLabelStr(hll->labels[LSTART], buff));

	mov	r8d, DWORD PTR [rdi+16]
	lea	rdx, OFFSET FLAT:$SG11141
	lea	rcx, QWORD PTR buff$[rsp]
	call	sprintf
	lea	rdx, QWORD PTR buff$[rsp]
	lea	rcx, OFFSET FLAT:$SG11773
	call	AddLineQueueX

; 1539 :     tokenarray[i].token = T_FINAL;

	movsxd	rax, DWORD PTR i$[rbp-256]
	shl	rax, 5
	mov	BYTE PTR [rax+r15], r13b

; 1540 :     break;

	jmp	$LN22@HllStartDi
$LN75@HllStartDi:

; 1541 :     //end of .FOR
; 1542 :   case T_DOT_WHILE:
; 1543 :   case T_DOT_REPEAT:
; 1544 :     /* create the label to start of loop */
; 1545 :     hll->labels[LSTART] = GetHllLabel();

	mov	eax, DWORD PTR ModuleInfo+352
	inc	eax
	mov	DWORD PTR ModuleInfo+352, eax
	mov	DWORD PTR [rdi+16], eax

; 1546 :     hll->labels[LTEST] = 0; /* v2.11: test label is created only if needed */

	mov	DWORD PTR [rdi+8], r13d

; 1547 :                             //hll->labels[LEXIT] = GetHllLabel(); /* v2.11: LEXIT is only needed for .BREAK */
; 1548 :     if (cmd == T_DOT_WHILE) {

	cmp	ebx, 330				; 0000014aH
	jne	$LN76@HllStartDi

; 1549 :       hll->cmd = HLL_WHILE;
; 1550 :       hll->condlines = NULL;

	mov	QWORD PTR [rdi+48], r13
	mov	r10d, 1
	mov	DWORD PTR [rdi+68], r10d

; 1551 :       if (tokenarray[i].token != T_FINAL) {

	movsxd	rax, DWORD PTR i$[rbp-256]
	shl	rax, 5
	cmp	BYTE PTR [rax+r15], r12b

; 1552 :         rc = EvaluateHllExpression(hll, &i, tokenarray, LSTART, TRUE, buffer);

	mov	BYTE PTR buffer$[rbp-256], r12b
	je	$LN79@HllStartDi
	lea	rax, QWORD PTR hllop$1[rsp]
	mov	QWORD PTR hllop$1[rsp], r13
	mov	QWORD PTR [rsp+48], rax
	lea	r9d, QWORD PTR [r10+1]
	lea	rax, QWORD PTR buffer$[rbp-256]
	mov	DWORD PTR hllop$1[rsp+8], r13d
	mov	QWORD PTR [rsp+40], rax
	lea	rdx, QWORD PTR i$[rbp-256]
	mov	r8, r15
	mov	BYTE PTR [rsp+32], r10b
	mov	rcx, rdi
	lea	rbx, QWORD PTR buffer$[rbp-256]
	call	GetAndExpression
	cmp	eax, -1
	je	$LN281@HllStartDi
	movsxd	rcx, DWORD PTR i$[rbp-256]
	shl	rcx, 5
	add	rcx, r15
	call	GetCOp
	cmp	eax, 8
	jne	SHORT $LN178@HllStartDi
	npad	2
$LL182@HllStartDi:
	inc	DWORD PTR i$[rbp-256]
	or	rax, -1
	npad	6
$LL287@HllStartDi:
	inc	rax
	cmp	BYTE PTR [rbx+rax], r12b
	jne	SHORT $LL287@HllStartDi
	add	rbx, rax
	mov	DWORD PTR hllop$1[rsp+8], r13d
	lea	rax, QWORD PTR hllop$1[rsp]
	mov	r9d, 2
	mov	QWORD PTR [rsp+48], rax
	lea	rdx, QWORD PTR i$[rbp-256]
	mov	QWORD PTR [rsp+40], rbx
	mov	r8, r15
	mov	rcx, rdi
	mov	BYTE PTR [rsp+32], 1
	call	GetAndExpression
	cmp	eax, -1
	je	SHORT $LN281@HllStartDi
	movsxd	rcx, DWORD PTR i$[rbp-256]
	shl	rcx, 5
	add	rcx, r15
	call	GetCOp
	cmp	eax, 8
	je	SHORT $LL182@HllStartDi
$LN178@HllStartDi:
	movsxd	rax, DWORD PTR i$[rbp-256]
	shl	rax, 5
	cmp	BYTE PTR [rax+r15], r12b
	je	SHORT $LN282@HllStartDi
	mov	ecx, 199				; 000000c7H
	call	EmitError
	mov	r12d, eax

; 1553 :         if (rc == NOT_ERROR) {

	test	eax, eax
	jne	SHORT $LN79@HllStartDi
$LN282@HllStartDi:

; 1554 :           int size;
; 1555 :           size = strlen(buffer) + 1;

	lea	rcx, QWORD PTR buffer$[rbp-256]
	or	rax, -1
$LL286@HllStartDi:
	inc	rax
	cmp	BYTE PTR [rcx+rax], r13b
	jne	SHORT $LL286@HllStartDi
	inc	eax

; 1556 :           hll->condlines = LclAlloc(size);

	movsxd	rbx, eax
	mov	rcx, rbx
	call	LclAlloc

; 1557 :           memcpy(hll->condlines, buffer, size);

	mov	r8, rbx
	mov	QWORD PTR [rdi+48], rax
	lea	rdx, QWORD PTR buffer$[rbp-256]
	mov	rcx, rax
	call	memcpy

; 1558 :           DebugCmd(cntCond++); DebugCmd(cntCondBytes += size);
; 1559 :         }
; 1560 :       }

	jmp	SHORT $LN79@HllStartDi
$LN281@HllStartDi:

; 1552 :         rc = EvaluateHllExpression(hll, &i, tokenarray, LSTART, TRUE, buffer);

	or	r12d, -1
$LN79@HllStartDi:

; 1561 :       else
; 1562 :         buffer[0] = NULLC;  /* just ".while" without expression is accepted */
; 1563 : 
; 1564 :                             /* create a jump to test label */
; 1565 :                             /* optimisation: if line at 'test' label is just a jump, dont create label and don't jump! */
; 1566 :       if (_memicmp(buffer, "jmp", 3)) {

	mov	r8d, 3
	lea	rdx, OFFSET FLAT:$SG11781
	lea	rcx, QWORD PTR buffer$[rbp-256]
	call	_memicmp
	test	eax, eax
	je	SHORT $LN77@HllStartDi

; 1567 :         hll->labels[LTEST] = GetHllLabel();

	mov	eax, DWORD PTR ModuleInfo+352

; 1568 :         AddLineQueueX(JMPPREFIX "jmp %s", GetLabelStr(hll->labels[LTEST], buff));

	lea	rdx, OFFSET FLAT:$SG11141
	inc	eax
	lea	rcx, QWORD PTR buff$[rsp]
	mov	DWORD PTR ModuleInfo+352, eax
	mov	r8d, eax
	mov	DWORD PTR [rdi+8], eax
	call	sprintf
	lea	rdx, QWORD PTR buff$[rsp]
	lea	rcx, OFFSET FLAT:$SG11782
	call	AddLineQueueX

; 1569 :       }
; 1570 :     }

	jmp	SHORT $LN77@HllStartDi
$LN76@HllStartDi:

; 1571 :     else {
; 1572 :       hll->cmd = HLL_REPEAT;

	mov	DWORD PTR [rdi+68], 2
$LN77@HllStartDi:

; 1573 :     }
; 1574 :     AddLineQueueX("%s" LABELQUAL, GetLabelStr(hll->labels[LSTART], buff));

	mov	r8d, DWORD PTR [rdi+16]
	lea	rdx, OFFSET FLAT:$SG11141
	lea	rcx, QWORD PTR buff$[rsp]
	call	sprintf
	lea	rdx, QWORD PTR buff$[rsp]
	lea	rcx, OFFSET FLAT:$SG11783
	call	AddLineQueueX
	jmp	$LN22@HllStartDi
$LN20@HllStartDi:

; 1328 :   case T_DOT_IF:
; 1329 :     hll->labels[LSTART] = 0; /* not used by .IF */

	mov	DWORD PTR [rdi+16], r13d

; 1330 :     hll->labels[LTEST] = GetHllLabel();
; 1331 :     hll->cmd = HLL_IF;
; 1332 :     hll->flags = 0;
; 1333 :     /* get the C-style expression, convert to ASM code lines */
; 1334 :     rc = EvaluateHllExpression(hll, &i, tokenarray, LTEST, FALSE, buffer);

	lea	rdx, QWORD PTR i$[rbp-256]
	mov	eax, DWORD PTR ModuleInfo+352
	xor	r9d, r9d
	inc	eax
	mov	QWORD PTR hllop$3[rsp], r13
	mov	DWORD PTR ModuleInfo+352, eax
	mov	r8, r15
	mov	DWORD PTR [rdi+8], eax
	mov	rcx, rdi
	lea	rax, QWORD PTR hllop$3[rsp]
	mov	DWORD PTR [rdi+68], r13d
	mov	QWORD PTR [rsp+48], rax
	lea	rax, QWORD PTR buffer$[rbp-256]
	mov	QWORD PTR [rsp+40], rax
	mov	DWORD PTR [rdi+76], r13d
	mov	BYTE PTR [rsp+32], r12b
	mov	DWORD PTR hllop$3[rsp+8], r13d
	mov	BYTE PTR buffer$[rbp-256], r12b
	call	GetExpression
	cmp	eax, -1
	jne	SHORT $LN91@HllStartDi
	or	r12d, eax
	jmp	SHORT $LN22@HllStartDi
$LN91@HllStartDi:
	movsxd	rax, DWORD PTR i$[rbp-256]
	shl	rax, 5
	cmp	BYTE PTR [rax+r15], r12b
	je	SHORT $LN283@HllStartDi
	mov	ecx, 199				; 000000c7H
	call	EmitError
	mov	r12d, eax

; 1335 :     if (rc == NOT_ERROR) {

	test	eax, eax
	jne	SHORT $LN22@HllStartDi
$LN283@HllStartDi:

; 1336 :       QueueTestLines(buffer);

	lea	rbx, QWORD PTR buffer$[rbp-256]
	npad	15
$LL95@HllStartDi:
	mov	edx, 10
	mov	rcx, rbx
	mov	rsi, rbx
	call	strchr
	mov	rbx, rax
	test	rax, rax
	je	SHORT $LN97@HllStartDi
	mov	BYTE PTR [rax], r13b
	inc	rbx
$LN97@HllStartDi:
	cmp	BYTE PTR [rsi], r13b
	je	SHORT $LN98@HllStartDi
	mov	rcx, rsi
	call	AddLineQueue
$LN98@HllStartDi:
	test	rbx, rbx
	jne	SHORT $LL95@HllStartDi

; 1337 :       /* if no lines have been created, the LTEST label isn't needed */
; 1338 :       //if ( !is_linequeue_populated() ) {
; 1339 :       if (buffer[0] == NULLC) {

	cmp	BYTE PTR buffer$[rbp-256], r13b
	jne	SHORT $LN22@HllStartDi

; 1340 :         hll->labels[LTEST] = 0;

	mov	DWORD PTR [rdi+8], r13d
$LN22@HllStartDi:

; 1575 :     break;
; 1576 : #ifdef DEBUG_OUT
; 1577 :   default: /**/myassert(0); break;
; 1578 : #endif
; 1579 :   }
; 1580 : 
; 1581 :   if (tokenarray[i].token != T_FINAL && rc == NOT_ERROR) {

	movsxd	rax, DWORD PTR i$[rbp-256]
	shl	rax, 5
	cmp	BYTE PTR [rax+r15], r13b
	je	SHORT $LN82@HllStartDi
	test	r12d, r12d
	jne	SHORT $LN82@HllStartDi

; 1582 :     DebugMsg(("HllStartDir: unexpected token [%s]\n", tokenarray[i].tokpos));
; 1583 :     EmitErr(SYNTAX_ERROR_EX, tokenarray[i].tokpos);

	mov	rdx, QWORD PTR [rax+r15+24]
	mov	ecx, 209				; 000000d1H
	call	EmitErr

; 1584 :     rc = ERROR;

	or	r12d, -1
$LN82@HllStartDi:

; 1585 :     //return( ERROR ); /* v2.08: continue and parse the line queue */
; 1586 :   }
; 1587 :   /* v2.06: remove the item from the free stack */
; 1588 :   if (hll == HllFree)

	cmp	rdi, QWORD PTR ModuleInfo+232
	jne	SHORT $LN83@HllStartDi

; 1589 :     HllFree = hll->next;

	mov	rax, QWORD PTR [rdi]
	mov	QWORD PTR ModuleInfo+232, rax
$LN83@HllStartDi:

; 1590 :   hll->next = HllStack;

	mov	rax, QWORD PTR ModuleInfo+224
	mov	QWORD PTR [rdi], rax

; 1591 :   HllStack = hll;
; 1592 : 
; 1593 :   if (ModuleInfo.list)

	test	DWORD PTR ModuleInfo+408, 2048		; 00000800H
	mov	QWORD PTR ModuleInfo+224, rdi
	je	SHORT $LN84@HllStartDi

; 1594 :     LstWrite(LSTTYPE_DIRECTIVE, GetCurrOffset(), NULL);

	call	GetCurrOffset
	xor	r8d, r8d
	mov	edx, eax
	lea	ecx, QWORD PTR [r8+4]
	call	LstWrite
$LN84@HllStartDi:

; 1595 : 
; 1596 :   if (is_linequeue_populated()) /* might be NULL! (".if 1") */

	cmp	QWORD PTR ModuleInfo+184, r13
	je	SHORT $LN85@HllStartDi

; 1597 :     RunLineQueue();

	call	RunLineQueue
$LN85@HllStartDi:

; 1598 : 
; 1599 :   return(rc);

	mov	eax, r12d
$LN1@HllStartDi:
	mov	rsi, QWORD PTR [rsp+7432]

; 1600 : }

	mov	rbx, QWORD PTR [rsp+7448]
	add	rsp, 7376				; 00001cd0H
	pop	r15
	pop	r13
	pop	r12
	pop	rdi
	pop	rbp
	ret	0
HllStartDir ENDP
_TEXT	ENDS
; Function compile flags: /Ogtpy
; File d:\hjwasm\hjwasm2.13.1s\hjwasm2.13.1s\hll.c
;	COMDAT ForInitAndNext
_TEXT	SEGMENT
codebuff$1 = 32
codebuff$2 = 32
codebuff$3 = 32
codebuff$4 = 32
codebuff$5 = 32
codebuff$6 = 32
codebuff$7 = 32
codebuff$8 = 32
codebuff$9 = 32
codebuff$10 = 32
codebuff$11 = 32
codebuff$12 = 32
codebuff$13 = 32
codebuff$14 = 32
codebuff$15 = 32
codebuff$16 = 32
codebuff$17 = 32
codebuff$18 = 32
codebuff$19 = 32
codebuff$20 = 32
codebuff$ = 288
init$ = 544
param$ = 800
tokenarray$ = 1120
op$ = 1128
cnt$ = 1128
buff$ = 1136
ForInitAndNext PROC					; COMDAT

; 1004 : static ret_code ForInitAndNext(struct asm_tok tokenarray[], int cnt, char *buff) {

	mov	QWORD PTR [rsp+32], rbx
	mov	QWORD PTR [rsp+24], r8
	mov	QWORD PTR [rsp+8], rcx
	push	rbp
	push	rsi
	push	rdi
	push	r12
	push	r13
	push	r14
	push	r15
	lea	rbp, QWORD PTR [rsp-800]
	sub	rsp, 1056				; 00000420H

; 1005 :   int a;
; 1006 :   int j;
; 1007 :   int	b = 0;

	xor	r15d, r15d
	mov	r12, r8

; 1008 :   bool brct = 0;

	xor	r14b, r14b
	mov	esi, edx
	mov	r13, rcx
	mov	r9, 145272973819904			; 0000842000000000H
$LL4@ForInitAnd:

; 1009 :   char codebuff[256];
; 1010 :   char param[256];
; 1011 :   char init[256];
; 1012 :   char op[4];
; 1013 :   char *p;
; 1014 :   //create valid command and add to LineQueue
; 1015 :   do {
; 1016 :     //extracting the first parameter "param" before the operator
; 1017 :     a = 0;
; 1018 :     while (buff[b] && !strchr("=!<>&|-+*^%/", buff[b]))

	movsxd	rbx, r15d
	xor	edi, edi
	add	rbx, r12
	cmp	BYTE PTR [rbx], dil
	je	SHORT $LN268@ForInitAnd
	npad	2
$LL5@ForInitAnd:
	movsx	edx, BYTE PTR [rbx]
	lea	rcx, OFFSET FLAT:$SG11479
	call	strchr
	test	rax, rax
	jne	SHORT $LN531@ForInitAnd

; 1019 :     {
; 1020 :       if (buff[b] == '-' || buff[b] == '+') break;

	movzx	ecx, BYTE PTR [rbx]
	lea	eax, DWORD PTR [rcx-43]
	test	al, 253					; 000000fdH
	je	SHORT $LN531@ForInitAnd

; 1021 :       param[a] = buff[b];
; 1022 :       b++;

	inc	rbx
	mov	BYTE PTR param$[rbp+rdi-256], cl
	inc	r15d

; 1023 :       a++;

	inc	rdi
	cmp	BYTE PTR [rbx], 0
	jne	SHORT $LL5@ForInitAnd
$LN531@ForInitAnd:
	mov	r9, 145272973819904			; 0000842000000000H
$LN268@ForInitAnd:

; 1024 :     }
; 1025 :     param[a] = '\0';
; 1026 :     //end of param
; 1027 :     //is it simple operator
; 1028 :     if ((buff[b + 1] == '+') || (buff[b + 1] == '-')) {            //if ++ or -- finish it here

	movsxd	rax, r15d
	movzx	edx, BYTE PTR [rax+r12+1]
	lea	rcx, QWORD PTR [rax+r12]
	mov	BYTE PTR param$[rbp+rdi-256], 0
	lea	eax, DWORD PTR [rdx-43]
	test	al, 253					; 000000fdH
	je	$LN23@ForInitAnd

; 1035 :     }
; 1036 : 
; 1037 :     //we finis here "inc REX" or  "dec REX" or "inc mem" or "dec mem"
; 1038 :     else						//if not ++ or --
; 1039 :     {							//extracting the operator
; 1040 :       op[0] = buff[b];

	movzx	ebx, BYTE PTR [rcx]

; 1041 :       b++;

	inc	r15d
	mov	BYTE PTR op$[rbp-256], bl

; 1042 :       if (op[0] == '=') {     //if operator is only '='

	cmp	bl, 61					; 0000003dH
	jne	SHORT $LN27@ForInitAnd

; 1043 :         op[1] = '\0';       //finish here

	xor	r8b, r8b
	mov	BYTE PTR op$[rbp-255], r8b

; 1044 :       }

	jmp	SHORT $LN30@ForInitAnd
$LN27@ForInitAnd:

; 1045 :       else {                 //extract next operator
; 1046 :         op[1] = buff[b];

	movsxd	rax, r15d

; 1047 :         b++;

	inc	r15d
	movzx	r8d, BYTE PTR [rax+r12]
	mov	BYTE PTR op$[rbp-255], r8b
	lea	eax, DWORD PTR [r8-60]
	test	al, 253					; 000000fdH
	jne	SHORT $LN29@ForInitAnd

; 1048 :         if ((op[1] == '<' || op[1] == '>') && (buff[b] == '=')) {

	movsxd	rax, r15d
	cmp	BYTE PTR [rax+r12], 61			; 0000003dH
	jne	SHORT $LN29@ForInitAnd

; 1049 :           op[2] = buff[b]; //if a second operator is shift sign "<<=" or ">>="

	mov	WORD PTR op$[rbp-254], 61		; 0000003dH

; 1050 :           op[3] = NULLC;
; 1051 :           b++;

	inc	r15d

; 1052 :         }

	jmp	SHORT $LN30@ForInitAnd
$LN29@ForInitAnd:

; 1053 :         else op[2] = NULLC; //not shift so we have two operands

	mov	BYTE PTR op$[rbp-254], 0
$LN30@ForInitAnd:

; 1054 : 
; 1055 :       }
; 1056 :       //we finished with param and op
; 1057 :       //now extracting the second parameter "init" after the operator
; 1058 :       for (a = 0; buff[b];) { //checking if we have a char in a single ' '

	movsxd	rax, r15d
	xor	edx, edx
	movzx	ecx, BYTE PTR [rax+r12]
	test	cl, cl
	je	SHORT $LN532@ForInitAnd
$LL7@ForInitAnd:

; 1059 :         if (buff[b] == '(' && buff[b - 1] != 39 && buff[b + 1] != 39 && b) break;

	cmp	cl, 40					; 00000028H
	je	SHORT $LN541@ForInitAnd

; 1060 :         if (buff[b] == ',' && buff[b - 1] != 39 && buff[b + 1] != 39 && b) break;

	cmp	cl, 44					; 0000002cH
	jne	SHORT $LN33@ForInitAnd
$LN541@ForInitAnd:
	cmp	BYTE PTR [rax+r12-1], 39		; 00000027H
	je	SHORT $LN33@ForInitAnd
	cmp	BYTE PTR [rax+r12+1], 39		; 00000027H
	je	SHORT $LN33@ForInitAnd
	test	rax, rax
	jne	SHORT $LN532@ForInitAnd
$LN33@ForInitAnd:

; 1061 :         init[a] = buff[b];
; 1062 :         b++;

	inc	rax
	mov	BYTE PTR init$[rbp+rdx-256], cl
	inc	r15d

; 1063 :         a++;

	inc	rdx
	movzx	ecx, BYTE PTR [rax+r12]
	test	cl, cl
	jne	SHORT $LL7@ForInitAnd
$LN532@ForInitAnd:

; 1064 :       }
; 1065 :       if (buff[b] == '(' && buff[b - 1] != 39 && buff[b + 1] != 39 && b) {

	movsxd	rax, r15d
	cmp	BYTE PTR [rax+r12], 40			; 00000028H
	lea	rcx, QWORD PTR [rax+r12]
	jne	SHORT $LN34@ForInitAnd
	cmp	BYTE PTR [rcx-1], 39			; 00000027H
	je	SHORT $LN34@ForInitAnd
	cmp	BYTE PTR [rcx+1], 39			; 00000027H
	je	SHORT $LN34@ForInitAnd
	test	r15d, r15d
	je	SHORT $LN34@ForInitAnd
	mov	al, 40					; 00000028H
	npad	6
$LL12@ForInitAnd:

; 1066 :         for (; buff[b] && buff[b] != ')'; b++, a++) {

	cmp	al, 41					; 00000029H
	je	SHORT $LN11@ForInitAnd
	inc	rcx

; 1067 :           init[a] = buff[b];

	mov	BYTE PTR init$[rbp+rdx-256], al
	inc	r15d
	inc	rdx
	movzx	eax, BYTE PTR [rcx]
	test	al, al
	jne	SHORT $LL12@ForInitAnd
$LN11@ForInitAnd:

; 1068 :         }
; 1069 :         if (buff[b] == ')' && buff[b - 1] != 39 && buff[b + 1] != 39) {

	movsxd	rax, r15d
	cmp	BYTE PTR [rax+r12], 41			; 00000029H
	jne	SHORT $LN35@ForInitAnd
	cmp	BYTE PTR [rax+r12-1], 39		; 00000027H
	je	SHORT $LN35@ForInitAnd
	cmp	BYTE PTR [rax+r12+1], 39		; 00000027H
	je	SHORT $LN35@ForInitAnd

; 1070 :           init[a] = buff[b];
; 1071 :           b++;

	inc	r15d
	mov	BYTE PTR init$[rbp+rdx-256], 41		; 00000029H

; 1072 :           a++;

	inc	rdx
$LN35@ForInitAnd:

; 1073 :         }
; 1074 :         brct = TRUE;

	mov	r14b, 1
$LN34@ForInitAnd:

; 1075 :       }
; 1076 :       init[a] = NULLC;
; 1077 :       b++;

	inc	r15d
	mov	BYTE PTR init$[rbp+rdx-256], 0
	cmp	bl, 47					; 0000002fH
	ja	$LN386@ForInitAnd
	movsx	rax, bl
	bt	r9, rax
	jae	$LN386@ForInitAnd

; 1078 :       //we finished with init
; 1079 :       //is operator devision, multiplication or mod
; 1080 :       if (op[0] == '/' || op[0] == '*' || op[0] == '%') {
; 1081 :         Tokenize(param, 0, tokenarray, 0);

	xor	r9d, r9d
	lea	rcx, QWORD PTR param$[rbp-256]
	mov	r8, r13
	xor	edx, edx
	call	Tokenize

; 1082 :         if (strcasecmp(param, reax[ModuleInfo.Ofssize]) && strcasecmp(init, reax[ModuleInfo.Ofssize])) { //param not rax init not rax?

	movzx	edx, BYTE PTR ModuleInfo+404
	lea	rax, OFFSET FLAT:__ImageBase
	lea	rcx, QWORD PTR param$[rbp-256]
	mov	rdx, QWORD PTR reax[rax+rdx*8]
	call	_stricmp
	test	eax, eax
	je	$LN39@ForInitAnd
	movzx	edx, BYTE PTR ModuleInfo+404
	lea	rax, OFFSET FLAT:__ImageBase
	lea	rcx, QWORD PTR init$[rbp-256]
	mov	rdx, QWORD PTR reax[rax+rdx*8]
	call	_stricmp
	test	eax, eax
	je	$LN39@ForInitAnd

; 1083 :           if (tokenarray[0].token == T_REG) {			//is param register

	movzx	eax, BYTE PTR [r13]
	cmp	al, 2
	jne	$LN41@ForInitAnd

; 1084 :             if (strcasecmp(param, recx[ModuleInfo.Ofssize])) {				//make sure that param is not rcx

	movzx	edx, BYTE PTR ModuleInfo+404
	lea	rax, OFFSET FLAT:recx
	lea	rcx, QWORD PTR param$[rbp-256]
	mov	rdx, QWORD PTR [rax+rdx*8]
	call	_stricmp
	test	eax, eax
	je	$LN43@ForInitAnd

; 1085 :               WriteAsmLine(" mov  ", reax[ModuleInfo.Ofssize], param);				// MOV RAX,param

	movzx	eax, BYTE PTR ModuleInfo+404
	lea	rdx, OFFSET FLAT:__ImageBase
	xor	ecx, ecx
	mov	r8, QWORD PTR reax[rdx+rax*8]
	npad	5
$LL157@ForInitAnd:
	movzx	eax, BYTE PTR $SG11507[rcx+rdx]
	mov	BYTE PTR codebuff$20[rsp+rcx], al
	lea	rcx, QWORD PTR [rcx+1]
	test	al, al
	jne	SHORT $LL157@ForInitAnd
	lea	rcx, QWORD PTR codebuff$20[rsp]
	dec	rcx
	npad	4
$LL528@ForInitAnd:
	cmp	BYTE PTR [rcx+1], 0
	lea	rcx, QWORD PTR [rcx+1]
	jne	SHORT $LL528@ForInitAnd
	xor	edx, edx
	npad	4
$LL529@ForInitAnd:
	movzx	eax, BYTE PTR [r8+rdx]
	mov	BYTE PTR [rcx+rdx], al
	lea	rdx, QWORD PTR [rdx+1]
	test	al, al
	jne	SHORT $LL529@ForInitAnd
	lea	rcx, QWORD PTR codebuff$20[rsp]
	dec	rcx
	npad	8
$LL526@ForInitAnd:
	cmp	BYTE PTR [rcx+1], 0
	lea	rcx, QWORD PTR [rcx+1]
	jne	SHORT $LL526@ForInitAnd
	xor	edx, edx
	lea	r8, OFFSET FLAT:$SG11441
	npad	13
$LL527@ForInitAnd:
	movzx	eax, BYTE PTR [r8+rdx]
	mov	BYTE PTR [rcx+rdx], al
	lea	rdx, QWORD PTR [rdx+1]
	test	al, al
	jne	SHORT $LL527@ForInitAnd
	lea	rcx, QWORD PTR codebuff$20[rsp]
	dec	rcx
	npad	8
$LL524@ForInitAnd:
	cmp	BYTE PTR [rcx+1], 0
	lea	rcx, QWORD PTR [rcx+1]
	jne	SHORT $LL524@ForInitAnd
	lea	r8, QWORD PTR param$[rbp-256]
	xor	edx, edx
	npad	13
$LL525@ForInitAnd:
	movzx	eax, BYTE PTR [r8+rdx]
	mov	BYTE PTR [rcx+rdx], al
	lea	rdx, QWORD PTR [rdx+1]
	test	al, al
	jne	SHORT $LL525@ForInitAnd
	lea	rcx, QWORD PTR codebuff$20[rsp]
	call	AddLineQueue
$LN43@ForInitAnd:

; 1086 :             }						if (op[0] == '/' || op[0] == '%') {

	cmp	bl, 47					; 0000002fH
	je	SHORT $LN45@ForInitAnd
	cmp	bl, 37					; 00000025H
	jne	SHORT $LN44@ForInitAnd
$LN45@ForInitAnd:

; 1087 :               strcpy(codebuff, " cdq ");			//extend to RDX if division

	xor	ecx, ecx
	lea	r12, OFFSET FLAT:__ImageBase
	npad	3
$LL130@ForInitAnd:
	movzx	eax, BYTE PTR $SG11510[rcx+r12]
	mov	BYTE PTR codebuff$[rbp+rcx-256], al
	lea	rcx, QWORD PTR [rcx+1]
	test	al, al
	jne	SHORT $LL130@ForInitAnd

; 1088 :               AddLineQueue(codebuff);

	mov	r12, QWORD PTR buff$[rbp-256]
	lea	rcx, QWORD PTR codebuff$[rbp-256]
	call	AddLineQueue
$LN44@ForInitAnd:

; 1089 :             }
; 1090 :             Tokenize(init, 0, tokenarray, 0);

	xor	r9d, r9d
	lea	rcx, QWORD PTR init$[rbp-256]
	mov	r8, r13
	xor	edx, edx
	call	Tokenize

; 1091 :             if (tokenarray[0].token == T_NUM) {      //is init number?

	cmp	BYTE PTR [r13], 10
	jne	$LN46@ForInitAnd

; 1092 :               WriteAsmLine(" mov  ", recx[ModuleInfo.Ofssize], init);        //MOV RCX,init

	movzx	eax, BYTE PTR ModuleInfo+404
	lea	r8, OFFSET FLAT:recx
	xor	ecx, ecx
	lea	r12, OFFSET FLAT:__ImageBase
	mov	r8, QWORD PTR [r8+rax*8]
	npad	1
$LL160@ForInitAnd:
	movzx	eax, BYTE PTR $SG11513[rcx+r12]
	mov	BYTE PTR codebuff$19[rsp+rcx], al
	lea	rcx, QWORD PTR [rcx+1]
	test	al, al
	jne	SHORT $LL160@ForInitAnd
	lea	rcx, QWORD PTR codebuff$19[rsp]
	dec	rcx
	npad	3
$LL522@ForInitAnd:
	cmp	BYTE PTR [rcx+1], 0
	lea	rcx, QWORD PTR [rcx+1]
	jne	SHORT $LL522@ForInitAnd
	xor	edx, edx
	npad	4
$LL523@ForInitAnd:
	movzx	eax, BYTE PTR [r8+rdx]
	mov	BYTE PTR [rcx+rdx], al
	lea	rdx, QWORD PTR [rdx+1]
	test	al, al
	jne	SHORT $LL523@ForInitAnd
	lea	rcx, QWORD PTR codebuff$19[rsp]
	dec	rcx
	npad	8
$LL520@ForInitAnd:
	cmp	BYTE PTR [rcx+1], 0
	lea	rcx, QWORD PTR [rcx+1]
	jne	SHORT $LL520@ForInitAnd
	xor	edx, edx
	lea	r13, OFFSET FLAT:$SG11441
	npad	13
$LL521@ForInitAnd:
	movzx	eax, BYTE PTR [rdx+r13]
	mov	BYTE PTR [rcx+rdx], al
	lea	rdx, QWORD PTR [rdx+1]
	test	al, al
	jne	SHORT $LL521@ForInitAnd
	mov	r13, QWORD PTR tokenarray$[rbp-256]
	lea	rcx, QWORD PTR codebuff$19[rsp]
	dec	rcx
	npad	1
$LL518@ForInitAnd:
	cmp	BYTE PTR [rcx+1], 0
	lea	rcx, QWORD PTR [rcx+1]
	jne	SHORT $LL518@ForInitAnd
	lea	r8, QWORD PTR init$[rbp-256]
	xor	edx, edx
	npad	13
$LL519@ForInitAnd:
	movzx	eax, BYTE PTR [r8+rdx]
	mov	BYTE PTR [rcx+rdx], al
	lea	rdx, QWORD PTR [rdx+1]
	test	al, al
	jne	SHORT $LL519@ForInitAnd
	lea	rcx, QWORD PTR codebuff$19[rsp]
	call	AddLineQueue

; 1093 :               if (op[0] == '/' || op[0] == '%')

	cmp	bl, 47					; 0000002fH
	je	SHORT $LN50@ForInitAnd
	cmp	bl, 37					; 00000025H
	je	SHORT $LN50@ForInitAnd

; 1095 :               else strcpy(codebuff, " imul ");		//IMUL RCX

	xor	ecx, ecx
	lea	r12, OFFSET FLAT:__ImageBase
	npad	3
$LL132@ForInitAnd:
	movzx	eax, BYTE PTR $SG11518[rcx+r12]
	mov	BYTE PTR codebuff$[rbp+rcx-256], al
	lea	rcx, QWORD PTR [rcx+1]
	test	al, al
	jne	SHORT $LL132@ForInitAnd
	jmp	SHORT $LN542@ForInitAnd
$LN50@ForInitAnd:

; 1094 :                 strcpy(codebuff, " idiv ");		//IDIV RCX

	xor	ecx, ecx
	lea	r12, OFFSET FLAT:__ImageBase
$LL131@ForInitAnd:
	movzx	eax, BYTE PTR $SG11517[rcx+r12]
	mov	BYTE PTR codebuff$[rbp+rcx-256], al
	lea	rcx, QWORD PTR [rcx+1]
	test	al, al
	jne	SHORT $LL131@ForInitAnd
$LN542@ForInitAnd:
	mov	r12, QWORD PTR buff$[rbp-256]

; 1096 :               strcat(codebuff, recx[ModuleInfo.Ofssize]);

	lea	rcx, QWORD PTR codebuff$[rbp-256]
	movzx	r8d, BYTE PTR ModuleInfo+404
	dec	rcx
	npad	5
$LL516@ForInitAnd:
	cmp	BYTE PTR [rcx+1], 0
	lea	rcx, QWORD PTR [rcx+1]
	jne	SHORT $LL516@ForInitAnd
	lea	rax, OFFSET FLAT:recx
	xor	edx, edx
	mov	r8, QWORD PTR [rax+r8*8]
	npad	9
$LL517@ForInitAnd:
	movzx	eax, BYTE PTR [r8+rdx]
	mov	BYTE PTR [rcx+rdx], al
	lea	rdx, QWORD PTR [rdx+1]
	test	al, al
	jne	SHORT $LL517@ForInitAnd

; 1097 :               AddLineQueue(codebuff);
; 1098 :               goto cont;

	jmp	$LN543@ForInitAnd
$LN46@ForInitAnd:

; 1099 :             }
; 1100 :             else {
; 1101 :               if (op[0] == '/' || op[0] == '%') //it is a variable

	cmp	bl, 47					; 0000002fH
	je	SHORT $LN53@ForInitAnd
	cmp	bl, 37					; 00000025H
	je	SHORT $LN53@ForInitAnd

; 1103 :               else strcpy(codebuff, " imul ");

	xor	ecx, ecx
	lea	r12, OFFSET FLAT:__ImageBase
	npad	8
$LL134@ForInitAnd:
	movzx	eax, BYTE PTR $SG11523[rcx+r12]
	mov	BYTE PTR codebuff$[rbp+rcx-256], al
	lea	rcx, QWORD PTR [rcx+1]
	test	al, al
	jne	SHORT $LL134@ForInitAnd
	mov	r12, QWORD PTR buff$[rbp-256]
	jmp	SHORT $LN52@ForInitAnd
$LN53@ForInitAnd:

; 1102 :                 strcpy(codebuff, " idiv ");

	xor	ecx, ecx
	lea	r13, OFFSET FLAT:__ImageBase
	npad	9
$LL133@ForInitAnd:
	movzx	eax, BYTE PTR $SG11522[rcx+r13]
	mov	BYTE PTR codebuff$[rbp+rcx-256], al
	lea	rcx, QWORD PTR [rcx+1]
	test	al, al
	jne	SHORT $LL133@ForInitAnd
	mov	r13, QWORD PTR tokenarray$[rbp-256]
$LN52@ForInitAnd:

; 1104 :               strcat(codebuff, init);

	lea	rcx, QWORD PTR codebuff$[rbp-256]
	dec	rcx
$LL514@ForInitAnd:
	cmp	BYTE PTR [rcx+1], 0
	lea	rcx, QWORD PTR [rcx+1]
	jne	SHORT $LL514@ForInitAnd
	lea	r8, QWORD PTR init$[rbp-256]
	xor	edx, edx
	npad	10
$LL515@ForInitAnd:
	movzx	eax, BYTE PTR [r8+rdx]
	mov	BYTE PTR [rcx+rdx], al
	lea	rdx, QWORD PTR [rdx+1]
	test	al, al
	jne	SHORT $LL515@ForInitAnd

; 1105 :               AddLineQueue(codebuff);
; 1106 :               goto cont;

	jmp	$LN543@ForInitAnd
$LN41@ForInitAnd:

; 1107 :             }
; 1108 :           }
; 1109 :           //if param is a variable
; 1110 :           else if (tokenarray[0].token == T_ID) {		 //YES

	cmp	al, 8
	jne	$LN537@ForInitAnd

; 1111 :             WriteAsmLine(" mov  ", recx[ModuleInfo.Ofssize], init);        //MOV RCX,init

	movzx	eax, BYTE PTR ModuleInfo+404
	lea	r8, OFFSET FLAT:recx
	xor	ecx, ecx
	lea	r12, OFFSET FLAT:__ImageBase
	mov	r8, QWORD PTR [r8+rax*8]
	npad	8
$LL163@ForInitAnd:
	movzx	eax, BYTE PTR $SG11525[rcx+r12]
	mov	BYTE PTR codebuff$18[rsp+rcx], al
	lea	rcx, QWORD PTR [rcx+1]
	test	al, al
	jne	SHORT $LL163@ForInitAnd
	lea	rcx, QWORD PTR codebuff$18[rsp]
	dec	rcx
	npad	3
$LL512@ForInitAnd:
	cmp	BYTE PTR [rcx+1], 0
	lea	rcx, QWORD PTR [rcx+1]
	jne	SHORT $LL512@ForInitAnd
	xor	edx, edx
	npad	4
$LL513@ForInitAnd:
	movzx	eax, BYTE PTR [r8+rdx]
	mov	BYTE PTR [rcx+rdx], al
	lea	rdx, QWORD PTR [rdx+1]
	test	al, al
	jne	SHORT $LL513@ForInitAnd
	lea	rcx, QWORD PTR codebuff$18[rsp]
	dec	rcx
	npad	8
$LL510@ForInitAnd:
	cmp	BYTE PTR [rcx+1], 0
	lea	rcx, QWORD PTR [rcx+1]
	jne	SHORT $LL510@ForInitAnd
	xor	edx, edx
	lea	r13, OFFSET FLAT:$SG11441
	npad	13
$LL511@ForInitAnd:
	movzx	eax, BYTE PTR [rdx+r13]
	mov	BYTE PTR [rcx+rdx], al
	lea	rdx, QWORD PTR [rdx+1]
	test	al, al
	jne	SHORT $LL511@ForInitAnd
	lea	rcx, QWORD PTR codebuff$18[rsp]
	dec	rcx
	npad	8
$LL508@ForInitAnd:
	cmp	BYTE PTR [rcx+1], 0
	lea	rcx, QWORD PTR [rcx+1]
	jne	SHORT $LL508@ForInitAnd
	lea	r8, QWORD PTR init$[rbp-256]
	xor	edx, edx
	npad	13
$LL509@ForInitAnd:
	movzx	eax, BYTE PTR [r8+rdx]
	mov	BYTE PTR [rcx+rdx], al
	lea	rdx, QWORD PTR [rdx+1]
	test	al, al
	jne	SHORT $LL509@ForInitAnd
	lea	rcx, QWORD PTR codebuff$18[rsp]
	call	AddLineQueue

; 1112 :             WriteAsmLine(" mov  ", reax[ModuleInfo.Ofssize], param);		// MOV RAX,param

	movzx	eax, BYTE PTR ModuleInfo+404
	lea	rdx, OFFSET FLAT:__ImageBase
	xor	ecx, ecx
	mov	r8, QWORD PTR reax[rdx+rax*8]
	npad	14
$LL166@ForInitAnd:
	movzx	eax, BYTE PTR $SG11526[rcx+rdx]
	mov	BYTE PTR codebuff$17[rsp+rcx], al
	lea	rcx, QWORD PTR [rcx+1]
	test	al, al
	jne	SHORT $LL166@ForInitAnd
	lea	rcx, QWORD PTR codebuff$17[rsp]
	dec	rcx
	npad	4
$LL506@ForInitAnd:
	cmp	BYTE PTR [rcx+1], 0
	lea	rcx, QWORD PTR [rcx+1]
	jne	SHORT $LL506@ForInitAnd
	xor	edx, edx
	npad	4
$LL507@ForInitAnd:
	movzx	eax, BYTE PTR [r8+rdx]
	mov	BYTE PTR [rcx+rdx], al
	lea	rdx, QWORD PTR [rdx+1]
	test	al, al
	jne	SHORT $LL507@ForInitAnd
	lea	rcx, QWORD PTR codebuff$17[rsp]
	dec	rcx
	npad	8
$LL504@ForInitAnd:
	cmp	BYTE PTR [rcx+1], 0
	lea	rcx, QWORD PTR [rcx+1]
	jne	SHORT $LL504@ForInitAnd
	xor	edx, edx
	lea	r13, OFFSET FLAT:$SG11441
	npad	13
$LL505@ForInitAnd:
	movzx	eax, BYTE PTR [rdx+r13]
	mov	BYTE PTR [rcx+rdx], al
	lea	rdx, QWORD PTR [rdx+1]
	test	al, al
	jne	SHORT $LL505@ForInitAnd
	mov	r13, QWORD PTR tokenarray$[rbp-256]
	lea	rcx, QWORD PTR codebuff$17[rsp]
	dec	rcx
	npad	1
$LL502@ForInitAnd:
	cmp	BYTE PTR [rcx+1], 0
	lea	rcx, QWORD PTR [rcx+1]
	jne	SHORT $LL502@ForInitAnd
	lea	r8, QWORD PTR param$[rbp-256]
	xor	edx, edx
	npad	13
$LL503@ForInitAnd:
	movzx	eax, BYTE PTR [r8+rdx]
	mov	BYTE PTR [rcx+rdx], al
	lea	rdx, QWORD PTR [rdx+1]
	test	al, al
	jne	SHORT $LL503@ForInitAnd
	lea	rcx, QWORD PTR codebuff$17[rsp]
	call	AddLineQueue

; 1113 :             if (op[0] == '/' || op[0] == '%') {

	cmp	bl, 47					; 0000002fH
	je	SHORT $LN57@ForInitAnd
	cmp	bl, 37					; 00000025H
	je	SHORT $LN57@ForInitAnd

; 1117 :             }
; 1118 :             else strcpy(codebuff, " imul ");

	xor	ecx, ecx
	lea	r12, OFFSET FLAT:__ImageBase
	npad	3
$LL137@ForInitAnd:
	movzx	eax, BYTE PTR $SG11532[rcx+r12]
	mov	BYTE PTR codebuff$[rbp+rcx-256], al
	lea	rcx, QWORD PTR [rcx+1]
	test	al, al
	jne	SHORT $LL137@ForInitAnd
	jmp	SHORT $LN544@ForInitAnd
$LN57@ForInitAnd:

; 1114 :               strcpy(codebuff, " cdq ");

	xor	ecx, ecx
	lea	r13, OFFSET FLAT:__ImageBase
$LL135@ForInitAnd:
	movzx	eax, BYTE PTR $SG11530[rcx+r13]
	mov	BYTE PTR codebuff$[rbp+rcx-256], al
	lea	rcx, QWORD PTR [rcx+1]
	test	al, al
	jne	SHORT $LL135@ForInitAnd

; 1115 :               AddLineQueue(codebuff);

	mov	r13, QWORD PTR tokenarray$[rbp-256]
	lea	rcx, QWORD PTR codebuff$[rbp-256]
	call	AddLineQueue

; 1116 :               strcpy(codebuff, " idiv ");

	xor	ecx, ecx
	lea	r12, OFFSET FLAT:__ImageBase
	npad	2
$LL136@ForInitAnd:
	movzx	eax, BYTE PTR $SG11531[rcx+r12]
	mov	BYTE PTR codebuff$[rbp+rcx-256], al
	lea	rcx, QWORD PTR [rcx+1]
	test	al, al
	jne	SHORT $LL136@ForInitAnd
$LN544@ForInitAnd:
	mov	r12, QWORD PTR buff$[rbp-256]

; 1119 :             strcat(codebuff, recx[ModuleInfo.Ofssize]);

	lea	rcx, QWORD PTR codebuff$[rbp-256]
	movzx	r8d, BYTE PTR ModuleInfo+404
	dec	rcx
	npad	5
$LL500@ForInitAnd:
	cmp	BYTE PTR [rcx+1], 0
	lea	rcx, QWORD PTR [rcx+1]
	jne	SHORT $LL500@ForInitAnd
	lea	rax, OFFSET FLAT:recx
	xor	edx, edx
	mov	r8, QWORD PTR [rax+r8*8]
	npad	9
$LL501@ForInitAnd:
	movzx	eax, BYTE PTR [r8+rdx]
	mov	BYTE PTR [rcx+rdx], al
	lea	rdx, QWORD PTR [rdx+1]
	test	al, al
	jne	SHORT $LL501@ForInitAnd
$LN543@ForInitAnd:

; 1120 :             AddLineQueue(codebuff);

	lea	rcx, QWORD PTR codebuff$[rbp-256]
	call	AddLineQueue
$cont$553:

; 1121 :           cont:
; 1122 :             if (op[0] == '%') {
; 1123 :               WriteAsmLine(" mov  ", param, redx[ModuleInfo.Ofssize]);

	movzx	eax, BYTE PTR ModuleInfo+404
	xor	ecx, ecx
	cmp	bl, 37					; 00000025H
	lea	rbx, OFFSET FLAT:__ImageBase
	jne	$LN58@ForInitAnd
	mov	r8, QWORD PTR redx[rbx+rax*8]
	npad	6
$LL169@ForInitAnd:
	movzx	eax, BYTE PTR $SG11535[rcx+rbx]
	mov	BYTE PTR codebuff$16[rsp+rcx], al
	lea	rcx, QWORD PTR [rcx+1]
	test	al, al
	jne	SHORT $LL169@ForInitAnd
	lea	rcx, QWORD PTR codebuff$16[rsp]
	dec	rcx
	npad	4
$LL498@ForInitAnd:
	cmp	BYTE PTR [rcx+1], 0
	lea	rcx, QWORD PTR [rcx+1]
	jne	SHORT $LL498@ForInitAnd
	lea	r9, QWORD PTR param$[rbp-256]
	xor	edx, edx
	npad	13
$LL499@ForInitAnd:
	movzx	eax, BYTE PTR [r9+rdx]
	mov	BYTE PTR [rcx+rdx], al
	lea	rdx, QWORD PTR [rdx+1]
	test	al, al
	jne	SHORT $LL499@ForInitAnd
	lea	rcx, QWORD PTR codebuff$16[rsp]
	dec	rcx
	npad	8
$LL496@ForInitAnd:
	cmp	BYTE PTR [rcx+1], 0
	lea	rcx, QWORD PTR [rcx+1]
	jne	SHORT $LL496@ForInitAnd
	xor	edx, edx
	lea	r12, OFFSET FLAT:$SG11441
	npad	13
$LL497@ForInitAnd:
	movzx	eax, BYTE PTR [r12+rdx]
	mov	BYTE PTR [rcx+rdx], al
	lea	rdx, QWORD PTR [rdx+1]
	test	al, al
	jne	SHORT $LL497@ForInitAnd
	mov	r12, QWORD PTR buff$[rbp-256]
	lea	rcx, QWORD PTR codebuff$16[rsp]
	dec	rcx
	npad	1
$LL494@ForInitAnd:
	cmp	BYTE PTR [rcx+1], 0
	lea	rcx, QWORD PTR [rcx+1]
	jne	SHORT $LL494@ForInitAnd
	xor	edx, edx
	npad	4
$LL495@ForInitAnd:
	movzx	eax, BYTE PTR [r8+rdx]
	mov	BYTE PTR [rcx+rdx], al
	inc	rdx
	test	al, al
	jne	SHORT $LL495@ForInitAnd
	lea	rcx, QWORD PTR codebuff$16[rsp]
	call	AddLineQueue

; 1124 :               goto skip;

	jmp	$skip$554
$LN58@ForInitAnd:

; 1125 :             }
; 1126 :             else {
; 1127 :               WriteAsmLine(" mov  ", param, reax[ModuleInfo.Ofssize]);

	mov	r8, QWORD PTR reax[rbx+rax*8]
	npad	10
$LL172@ForInitAnd:
	movzx	eax, BYTE PTR $SG11536[rcx+rbx]
	mov	BYTE PTR codebuff$15[rsp+rcx], al
	lea	rcx, QWORD PTR [rcx+1]
	test	al, al
	jne	SHORT $LL172@ForInitAnd
	lea	rcx, QWORD PTR codebuff$15[rsp]
	dec	rcx
	npad	4
$LL492@ForInitAnd:
	cmp	BYTE PTR [rcx+1], 0
	lea	rcx, QWORD PTR [rcx+1]
	jne	SHORT $LL492@ForInitAnd
	lea	r9, QWORD PTR param$[rbp-256]
	xor	edx, edx
	npad	13
$LL493@ForInitAnd:
	movzx	eax, BYTE PTR [r9+rdx]
	mov	BYTE PTR [rcx+rdx], al
	lea	rdx, QWORD PTR [rdx+1]
	test	al, al
	jne	SHORT $LL493@ForInitAnd
	lea	rcx, QWORD PTR codebuff$15[rsp]
	dec	rcx
	npad	8
$LL490@ForInitAnd:
	cmp	BYTE PTR [rcx+1], 0
	lea	rcx, QWORD PTR [rcx+1]
	jne	SHORT $LL490@ForInitAnd
	xor	edx, edx
	lea	r13, OFFSET FLAT:$SG11441
	npad	13
$LL491@ForInitAnd:
	movzx	eax, BYTE PTR [rdx+r13]
	mov	BYTE PTR [rcx+rdx], al
	lea	rdx, QWORD PTR [rdx+1]
	test	al, al
	jne	SHORT $LL491@ForInitAnd
	mov	r13, QWORD PTR tokenarray$[rbp-256]
	lea	rcx, QWORD PTR codebuff$15[rsp]
	dec	rcx
	npad	1
$LL488@ForInitAnd:
	cmp	BYTE PTR [rcx+1], 0
	lea	rcx, QWORD PTR [rcx+1]
	jne	SHORT $LL488@ForInitAnd
	xor	edx, edx
	npad	4
$LL489@ForInitAnd:
	movzx	eax, BYTE PTR [r8+rdx]
	mov	BYTE PTR [rcx+rdx], al
	inc	rdx
	test	al, al
	jne	SHORT $LL489@ForInitAnd
	lea	rcx, QWORD PTR codebuff$15[rsp]
	call	AddLineQueue

; 1128 :               goto skip;

	jmp	$skip$554
$LN39@ForInitAnd:

; 1129 :             }
; 1130 :           }
; 1131 :         }
; 1132 :         // if param is not RAX and init is RCX
; 1133 :         else if ((strcasecmp(param, reax[ModuleInfo.Ofssize]) && !(strcasecmp(init, recx[ModuleInfo.Ofssize])))) {

	movzx	edx, BYTE PTR ModuleInfo+404
	lea	rax, OFFSET FLAT:__ImageBase
	lea	rcx, QWORD PTR param$[rbp-256]
	mov	rdx, QWORD PTR reax[rax+rdx*8]
	call	_stricmp
	test	eax, eax
	je	$LN60@ForInitAnd
	movzx	edx, BYTE PTR ModuleInfo+404
	lea	rax, OFFSET FLAT:recx
	lea	rcx, QWORD PTR init$[rbp-256]
	mov	rdx, QWORD PTR [rax+rdx*8]
	call	_stricmp
	test	eax, eax
	jne	$LN60@ForInitAnd

; 1134 :           if (op[0] == '/' || op[0] == '%') {

	cmp	bl, 47					; 0000002fH
	je	SHORT $LN64@ForInitAnd
	cmp	bl, 37					; 00000025H
	je	SHORT $LN64@ForInitAnd

; 1138 :           }
; 1139 :           else strcpy(codebuff, " imul ");

	xor	ecx, ecx
	lea	r12, OFFSET FLAT:__ImageBase
$LL140@ForInitAnd:
	movzx	eax, BYTE PTR $SG11544[rcx+r12]
	mov	BYTE PTR codebuff$[rbp+rcx-256], al
	lea	rcx, QWORD PTR [rcx+1]
	test	al, al
	jne	SHORT $LL140@ForInitAnd
	jmp	SHORT $LN545@ForInitAnd
$LN64@ForInitAnd:

; 1135 :             strcpy(codebuff, " cdq ");

	xor	ecx, ecx
	lea	r13, OFFSET FLAT:__ImageBase
$LL138@ForInitAnd:
	movzx	eax, BYTE PTR $SG11542[rcx+r13]
	mov	BYTE PTR codebuff$[rbp+rcx-256], al
	lea	rcx, QWORD PTR [rcx+1]
	test	al, al
	jne	SHORT $LL138@ForInitAnd

; 1136 :             AddLineQueue(codebuff);

	mov	r13, QWORD PTR tokenarray$[rbp-256]
	lea	rcx, QWORD PTR codebuff$[rbp-256]
	call	AddLineQueue

; 1137 :             strcpy(codebuff, " idiv ");

	xor	ecx, ecx
	lea	r12, OFFSET FLAT:__ImageBase
	npad	1
$LL139@ForInitAnd:
	movzx	eax, BYTE PTR $SG11543[rcx+r12]
	mov	BYTE PTR codebuff$[rbp+rcx-256], al
	lea	rcx, QWORD PTR [rcx+1]
	test	al, al
	jne	SHORT $LL139@ForInitAnd
$LN545@ForInitAnd:
	mov	r12, QWORD PTR buff$[rbp-256]

; 1140 :           strcat(codebuff, recx[ModuleInfo.Ofssize]);

	lea	rcx, QWORD PTR codebuff$[rbp-256]
	movzx	r8d, BYTE PTR ModuleInfo+404
	dec	rcx
	npad	5
$LL486@ForInitAnd:
	cmp	BYTE PTR [rcx+1], 0
	lea	rcx, QWORD PTR [rcx+1]
	jne	SHORT $LL486@ForInitAnd
	lea	rax, OFFSET FLAT:recx
	xor	edx, edx
	mov	r8, QWORD PTR [rax+r8*8]
	npad	9
$LL487@ForInitAnd:
	movzx	eax, BYTE PTR [r8+rdx]
	mov	BYTE PTR [rcx+rdx], al
	inc	rdx
	test	al, al
	jne	SHORT $LL487@ForInitAnd

; 1141 :           AddLineQueue(codebuff);

	lea	rcx, QWORD PTR codebuff$[rbp-256]
	call	AddLineQueue

; 1142 :           if (op[0] == '%') WriteAsmLine(" mov  ", param, redx[ModuleInfo.Ofssize]);

	cmp	bl, 37					; 00000025H
	jne	$skip$554
	movzx	eax, BYTE PTR ModuleInfo+404
	lea	rbx, OFFSET FLAT:__ImageBase
	xor	ecx, ecx
	mov	r8, QWORD PTR redx[rbx+rax*8]
	npad	7
$LL175@ForInitAnd:
	movzx	eax, BYTE PTR $SG11546[rcx+rbx]
	mov	BYTE PTR codebuff$14[rsp+rcx], al
	lea	rcx, QWORD PTR [rcx+1]
	test	al, al
	jne	SHORT $LL175@ForInitAnd
	lea	rcx, QWORD PTR codebuff$14[rsp]
	dec	rcx
	npad	4
$LL484@ForInitAnd:
	cmp	BYTE PTR [rcx+1], 0
	lea	rcx, QWORD PTR [rcx+1]
	jne	SHORT $LL484@ForInitAnd
	lea	r9, QWORD PTR param$[rbp-256]
	xor	edx, edx
	npad	13
$LL485@ForInitAnd:
	movzx	eax, BYTE PTR [r9+rdx]
	mov	BYTE PTR [rcx+rdx], al
	lea	rdx, QWORD PTR [rdx+1]
	test	al, al
	jne	SHORT $LL485@ForInitAnd
	lea	rcx, QWORD PTR codebuff$14[rsp]
	dec	rcx
	npad	8
$LL482@ForInitAnd:
	cmp	BYTE PTR [rcx+1], 0
	lea	rcx, QWORD PTR [rcx+1]
	jne	SHORT $LL482@ForInitAnd
	xor	edx, edx
	lea	r13, OFFSET FLAT:$SG11441
	npad	13
$LL483@ForInitAnd:
	movzx	eax, BYTE PTR [rdx+r13]
	mov	BYTE PTR [rcx+rdx], al
	lea	rdx, QWORD PTR [rdx+1]
	test	al, al
	jne	SHORT $LL483@ForInitAnd
	mov	r13, QWORD PTR tokenarray$[rbp-256]
	lea	rcx, QWORD PTR codebuff$14[rsp]
	dec	rcx
	npad	1
$LL480@ForInitAnd:
	cmp	BYTE PTR [rcx+1], 0
	lea	rcx, QWORD PTR [rcx+1]
	jne	SHORT $LL480@ForInitAnd
	xor	edx, edx
	npad	4
$LL481@ForInitAnd:
	movzx	eax, BYTE PTR [r8+rdx]
	mov	BYTE PTR [rcx+rdx], al
	inc	rdx
	test	al, al
	jne	SHORT $LL481@ForInitAnd
	lea	rcx, QWORD PTR codebuff$14[rsp]
	call	AddLineQueue

; 1143 :           goto skip;

	jmp	$skip$554
$LN60@ForInitAnd:

; 1144 :         }
; 1145 :         // if param is RAX and init is RCX
; 1146 :         else if ((!(strcasecmp(param, reax[ModuleInfo.Ofssize])) && (!(strcmp(init, recx[ModuleInfo.Ofssize]))))) {

	movzx	edx, BYTE PTR ModuleInfo+404
	lea	rax, OFFSET FLAT:__ImageBase
	lea	rcx, QWORD PTR param$[rbp-256]
	mov	rdx, QWORD PTR reax[rax+rdx*8]
	call	_stricmp
	movzx	r9d, BYTE PTR ModuleInfo+404
	test	eax, eax
	jne	$LN66@ForInitAnd
	movzx	eax, r9b
	lea	r10, OFFSET FLAT:recx
	lea	rcx, QWORD PTR init$[rbp-256]
	mov	r8, QWORD PTR [r10+rax*8]
	sub	r8, rcx
	npad	7
$LL478@ForInitAnd:
	movzx	edx, BYTE PTR [rcx]
	movzx	eax, BYTE PTR [rcx+r8]
	sub	edx, eax
	jne	SHORT $LN479@ForInitAnd
	inc	rcx
	test	eax, eax
	jne	SHORT $LL478@ForInitAnd
$LN479@ForInitAnd:
	test	edx, edx
	jne	$LN66@ForInitAnd

; 1147 :           if (op[0] == '/' || op[0] == '%') {

	cmp	bl, 47					; 0000002fH
	je	SHORT $LN70@ForInitAnd
	cmp	bl, 37					; 00000025H
	je	SHORT $LN70@ForInitAnd

; 1151 :           }
; 1152 :           else strcpy(codebuff, " imul ");

	xor	ecx, ecx
	lea	r12, OFFSET FLAT:__ImageBase
	npad	2
$LL143@ForInitAnd:
	movzx	eax, BYTE PTR $SG11554[rcx+r12]
	mov	BYTE PTR codebuff$[rbp+rcx-256], al
	lea	rcx, QWORD PTR [rcx+1]
	test	al, al
	jne	SHORT $LL143@ForInitAnd
	jmp	SHORT $LN546@ForInitAnd
$LN70@ForInitAnd:

; 1148 :             strcpy(codebuff, " cdq ");

	xor	ecx, ecx
	lea	r13, OFFSET FLAT:__ImageBase
$LL141@ForInitAnd:
	movzx	eax, BYTE PTR $SG11552[rcx+r13]
	mov	BYTE PTR codebuff$[rbp+rcx-256], al
	lea	rcx, QWORD PTR [rcx+1]
	test	al, al
	jne	SHORT $LL141@ForInitAnd

; 1149 :             AddLineQueue(codebuff);

	mov	r13, QWORD PTR tokenarray$[rbp-256]
	lea	rcx, QWORD PTR codebuff$[rbp-256]
	call	AddLineQueue

; 1150 :             strcpy(codebuff, " idiv ");

	xor	ecx, ecx
	lea	r12, OFFSET FLAT:__ImageBase
	npad	2
$LL142@ForInitAnd:
	movzx	eax, BYTE PTR $SG11553[rcx+r12]
	mov	BYTE PTR codebuff$[rbp+rcx-256], al
	lea	rcx, QWORD PTR [rcx+1]
	test	al, al
	jne	SHORT $LL142@ForInitAnd
	movzx	r9d, BYTE PTR ModuleInfo+404
	lea	r10, OFFSET FLAT:recx
$LN546@ForInitAnd:

; 1153 :           strcat(codebuff, recx[ModuleInfo.Ofssize]);

	mov	r12, QWORD PTR buff$[rbp-256]
	lea	rcx, QWORD PTR codebuff$[rbp-256]
	dec	rcx
	movzx	r8d, r9b
$LL476@ForInitAnd:
	cmp	BYTE PTR [rcx+1], 0
	lea	rcx, QWORD PTR [rcx+1]
	jne	SHORT $LL476@ForInitAnd
	mov	r8, QWORD PTR [r10+r8*8]
	xor	edx, edx
	npad	10
$LL477@ForInitAnd:
	movzx	eax, BYTE PTR [r8+rdx]
	mov	BYTE PTR [rcx+rdx], al
	inc	rdx
	test	al, al
	jne	SHORT $LL477@ForInitAnd

; 1154 :           AddLineQueue(codebuff);

	lea	rcx, QWORD PTR codebuff$[rbp-256]
	call	AddLineQueue

; 1155 :           if (op[0] == '%') WriteAsmLine(" mov  ", param, redx[ModuleInfo.Ofssize]);

	cmp	bl, 37					; 00000025H
	jne	$skip$554
	movzx	eax, BYTE PTR ModuleInfo+404
	lea	rbx, OFFSET FLAT:__ImageBase
	xor	ecx, ecx
	mov	r8, QWORD PTR redx[rbx+rax*8]
	npad	7
$LL178@ForInitAnd:
	movzx	eax, BYTE PTR $SG11556[rcx+rbx]
	mov	BYTE PTR codebuff$13[rsp+rcx], al
	lea	rcx, QWORD PTR [rcx+1]
	test	al, al
	jne	SHORT $LL178@ForInitAnd
	lea	rcx, QWORD PTR codebuff$13[rsp]
	dec	rcx
	npad	4
$LL474@ForInitAnd:
	cmp	BYTE PTR [rcx+1], 0
	lea	rcx, QWORD PTR [rcx+1]
	jne	SHORT $LL474@ForInitAnd
	lea	r9, QWORD PTR param$[rbp-256]
	xor	edx, edx
	npad	13
$LL475@ForInitAnd:
	movzx	eax, BYTE PTR [r9+rdx]
	mov	BYTE PTR [rcx+rdx], al
	lea	rdx, QWORD PTR [rdx+1]
	test	al, al
	jne	SHORT $LL475@ForInitAnd
	lea	rcx, QWORD PTR codebuff$13[rsp]
	dec	rcx
	npad	8
$LL472@ForInitAnd:
	cmp	BYTE PTR [rcx+1], 0
	lea	rcx, QWORD PTR [rcx+1]
	jne	SHORT $LL472@ForInitAnd
	xor	edx, edx
	lea	r13, OFFSET FLAT:$SG11441
	npad	13
$LL473@ForInitAnd:
	movzx	eax, BYTE PTR [rdx+r13]
	mov	BYTE PTR [rcx+rdx], al
	lea	rdx, QWORD PTR [rdx+1]
	test	al, al
	jne	SHORT $LL473@ForInitAnd
	mov	r13, QWORD PTR tokenarray$[rbp-256]
	lea	rcx, QWORD PTR codebuff$13[rsp]
	dec	rcx
	npad	1
$LL470@ForInitAnd:
	cmp	BYTE PTR [rcx+1], 0
	lea	rcx, QWORD PTR [rcx+1]
	jne	SHORT $LL470@ForInitAnd
	xor	edx, edx
	npad	4
$LL471@ForInitAnd:
	movzx	eax, BYTE PTR [r8+rdx]
	mov	BYTE PTR [rcx+rdx], al
	inc	rdx
	test	al, al
	jne	SHORT $LL471@ForInitAnd
	lea	rcx, QWORD PTR codebuff$13[rsp]
	call	AddLineQueue

; 1156 :           goto skip;

	jmp	$skip$554
$LN66@ForInitAnd:

; 1157 :         }
; 1158 :         // if param is RAX and init is not RCX
; 1159 :         else if (!(strcasecmp(param, reax[ModuleInfo.Ofssize]) && (strcasecmp(init, recx[ModuleInfo.Ofssize])))) {

	movzx	edx, r9b
	lea	rax, OFFSET FLAT:__ImageBase
	lea	rcx, QWORD PTR param$[rbp-256]
	mov	rdx, QWORD PTR reax[rax+rdx*8]
	call	_stricmp
	test	eax, eax
	je	SHORT $LN73@ForInitAnd
	movzx	edx, BYTE PTR ModuleInfo+404
	lea	rax, OFFSET FLAT:recx
	lea	rcx, QWORD PTR init$[rbp-256]
	mov	rdx, QWORD PTR [rax+rdx*8]
	call	_stricmp
	test	eax, eax
	jne	$LN537@ForInitAnd
$LN73@ForInitAnd:

; 1160 :           WriteAsmLine(" mov  ", recx[ModuleInfo.Ofssize], init);        //MOV RCX,init

	movzx	eax, BYTE PTR ModuleInfo+404
	lea	r8, OFFSET FLAT:recx
	xor	ecx, ecx
	lea	r12, OFFSET FLAT:__ImageBase
	mov	r8, QWORD PTR [r8+rax*8]
$LL181@ForInitAnd:
	movzx	eax, BYTE PTR $SG11559[rcx+r12]
	mov	BYTE PTR codebuff$12[rsp+rcx], al
	lea	rcx, QWORD PTR [rcx+1]
	test	al, al
	jne	SHORT $LL181@ForInitAnd
	lea	rcx, QWORD PTR codebuff$12[rsp]
	dec	rcx
	npad	1
$LL468@ForInitAnd:
	cmp	BYTE PTR [rcx+1], 0
	lea	rcx, QWORD PTR [rcx+1]
	jne	SHORT $LL468@ForInitAnd
	xor	edx, edx
	npad	4
$LL469@ForInitAnd:
	movzx	eax, BYTE PTR [r8+rdx]
	mov	BYTE PTR [rcx+rdx], al
	lea	rdx, QWORD PTR [rdx+1]
	test	al, al
	jne	SHORT $LL469@ForInitAnd
	lea	rcx, QWORD PTR codebuff$12[rsp]
	dec	rcx
	npad	8
$LL466@ForInitAnd:
	cmp	BYTE PTR [rcx+1], 0
	lea	rcx, QWORD PTR [rcx+1]
	jne	SHORT $LL466@ForInitAnd
	xor	edx, edx
	lea	r13, OFFSET FLAT:$SG11441
	npad	13
$LL467@ForInitAnd:
	movzx	eax, BYTE PTR [rdx+r13]
	mov	BYTE PTR [rcx+rdx], al
	lea	rdx, QWORD PTR [rdx+1]
	test	al, al
	jne	SHORT $LL467@ForInitAnd
	mov	r13, QWORD PTR tokenarray$[rbp-256]
	lea	rcx, QWORD PTR codebuff$12[rsp]
	dec	rcx
	npad	1
$LL464@ForInitAnd:
	cmp	BYTE PTR [rcx+1], 0
	lea	rcx, QWORD PTR [rcx+1]
	jne	SHORT $LL464@ForInitAnd
	lea	r8, QWORD PTR init$[rbp-256]
	xor	edx, edx
	npad	13
$LL465@ForInitAnd:
	movzx	eax, BYTE PTR [r8+rdx]
	mov	BYTE PTR [rcx+rdx], al
	lea	rdx, QWORD PTR [rdx+1]
	test	al, al
	jne	SHORT $LL465@ForInitAnd
	lea	rcx, QWORD PTR codebuff$12[rsp]
	call	AddLineQueue

; 1161 :           if (op[0] == '/' || op[0] == '%') {

	cmp	bl, 47					; 0000002fH
	je	SHORT $LN76@ForInitAnd
	cmp	bl, 37					; 00000025H
	je	SHORT $LN76@ForInitAnd

; 1165 :           }
; 1166 :           else strcpy(codebuff, " imul ");

	xor	ecx, ecx
	lea	r12, OFFSET FLAT:__ImageBase
	npad	3
$LL146@ForInitAnd:
	movzx	eax, BYTE PTR $SG11565[rcx+r12]
	mov	BYTE PTR codebuff$[rbp+rcx-256], al
	lea	rcx, QWORD PTR [rcx+1]
	test	al, al
	jne	SHORT $LL146@ForInitAnd
	jmp	SHORT $LN547@ForInitAnd
$LN76@ForInitAnd:

; 1162 :             strcpy(codebuff, " cdq ");

	xor	ecx, ecx
	lea	r13, OFFSET FLAT:__ImageBase
$LL144@ForInitAnd:
	movzx	eax, BYTE PTR $SG11563[rcx+r13]
	mov	BYTE PTR codebuff$[rbp+rcx-256], al
	lea	rcx, QWORD PTR [rcx+1]
	test	al, al
	jne	SHORT $LL144@ForInitAnd

; 1163 :             AddLineQueue(codebuff);

	mov	r13, QWORD PTR tokenarray$[rbp-256]
	lea	rcx, QWORD PTR codebuff$[rbp-256]
	call	AddLineQueue

; 1164 :             strcpy(codebuff, " idiv ");

	xor	ecx, ecx
	lea	r12, OFFSET FLAT:__ImageBase
	npad	2
$LL145@ForInitAnd:
	movzx	eax, BYTE PTR $SG11564[rcx+r12]
	mov	BYTE PTR codebuff$[rbp+rcx-256], al
	lea	rcx, QWORD PTR [rcx+1]
	test	al, al
	jne	SHORT $LL145@ForInitAnd
$LN547@ForInitAnd:
	mov	r12, QWORD PTR buff$[rbp-256]

; 1167 :           strcat(codebuff, recx[ModuleInfo.Ofssize]);

	lea	rcx, QWORD PTR codebuff$[rbp-256]
	movzx	r8d, BYTE PTR ModuleInfo+404
	dec	rcx
	npad	5
$LL462@ForInitAnd:
	cmp	BYTE PTR [rcx+1], 0
	lea	rcx, QWORD PTR [rcx+1]
	jne	SHORT $LL462@ForInitAnd
	lea	rax, OFFSET FLAT:recx
	xor	edx, edx
	mov	r8, QWORD PTR [rax+r8*8]
	npad	9
$LL463@ForInitAnd:
	movzx	eax, BYTE PTR [r8+rdx]
	mov	BYTE PTR [rcx+rdx], al
	inc	rdx
	test	al, al
	jne	SHORT $LL463@ForInitAnd

; 1168 :           AddLineQueue(codebuff);

	lea	rcx, QWORD PTR codebuff$[rbp-256]
	call	AddLineQueue

; 1169 :           if (op[0] == '%') WriteAsmLine(" mov  ", param, redx[ModuleInfo.Ofssize]);

	cmp	bl, 37					; 00000025H
	jne	$skip$554
	movzx	eax, BYTE PTR ModuleInfo+404
	lea	rbx, OFFSET FLAT:__ImageBase
	xor	ecx, ecx
	mov	r8, QWORD PTR redx[rbx+rax*8]
	npad	7
$LL184@ForInitAnd:
	movzx	eax, BYTE PTR $SG11567[rcx+rbx]
	mov	BYTE PTR codebuff$11[rsp+rcx], al
	lea	rcx, QWORD PTR [rcx+1]
	test	al, al
	jne	SHORT $LL184@ForInitAnd
	lea	rcx, QWORD PTR codebuff$11[rsp]
	dec	rcx
	npad	4
$LL460@ForInitAnd:
	cmp	BYTE PTR [rcx+1], 0
	lea	rcx, QWORD PTR [rcx+1]
	jne	SHORT $LL460@ForInitAnd
	lea	r9, QWORD PTR param$[rbp-256]
	xor	edx, edx
	npad	13
$LL461@ForInitAnd:
	movzx	eax, BYTE PTR [r9+rdx]
	mov	BYTE PTR [rcx+rdx], al
	lea	rdx, QWORD PTR [rdx+1]
	test	al, al
	jne	SHORT $LL461@ForInitAnd
	lea	rcx, QWORD PTR codebuff$11[rsp]
	dec	rcx
	npad	8
$LL458@ForInitAnd:
	cmp	BYTE PTR [rcx+1], 0
	lea	rcx, QWORD PTR [rcx+1]
	jne	SHORT $LL458@ForInitAnd
	xor	edx, edx
	lea	r12, OFFSET FLAT:$SG11441
	npad	13
$LL459@ForInitAnd:
	movzx	eax, BYTE PTR [r12+rdx]
	mov	BYTE PTR [rcx+rdx], al
	lea	rdx, QWORD PTR [rdx+1]
	test	al, al
	jne	SHORT $LL459@ForInitAnd
	mov	r12, QWORD PTR buff$[rbp-256]
	lea	rcx, QWORD PTR codebuff$11[rsp]
	dec	rcx
	npad	1
$LL456@ForInitAnd:
	cmp	BYTE PTR [rcx+1], 0
	lea	rcx, QWORD PTR [rcx+1]
	jne	SHORT $LL456@ForInitAnd
	xor	edx, edx
	npad	4
$LL457@ForInitAnd:
	movzx	eax, BYTE PTR [r8+rdx]
	mov	BYTE PTR [rcx+rdx], al
	inc	rdx
	test	al, al
	jne	SHORT $LL457@ForInitAnd
	lea	rcx, QWORD PTR codebuff$11[rsp]
	call	AddLineQueue

; 1170 :           goto skip;

	jmp	$skip$554
$LN386@ForInitAnd:

; 1171 :         }
; 1172 :       }
; 1173 :       //if operator not devision, multiplication or mod
; 1174 :       else if (op[0] == '-') strcpy(codebuff, " sub ");

	cmp	bl, 45					; 0000002dH
	jne	SHORT $LN78@ForInitAnd
	xor	ecx, ecx
	lea	rbx, OFFSET FLAT:__ImageBase
	npad	4
$LL147@ForInitAnd:
	movzx	eax, BYTE PTR $SG11570[rcx+rbx]
	mov	BYTE PTR codebuff$[rbp+rcx-256], al
	lea	rcx, QWORD PTR [rcx+1]
	test	al, al
	jne	SHORT $LL147@ForInitAnd
	jmp	$LN72@ForInitAnd
$LN78@ForInitAnd:

; 1175 :       else if (op[0] == '+') strcpy(codebuff, " add ");

	cmp	bl, 43					; 0000002bH
	jne	SHORT $LN80@ForInitAnd
	xor	ecx, ecx
	lea	rbx, OFFSET FLAT:__ImageBase
	npad	9
$LL148@ForInitAnd:
	movzx	eax, BYTE PTR $SG11573[rcx+rbx]
	mov	BYTE PTR codebuff$[rbp+rcx-256], al
	lea	rcx, QWORD PTR [rcx+1]
	test	al, al
	jne	SHORT $LL148@ForInitAnd
	jmp	$LN72@ForInitAnd
$LN80@ForInitAnd:

; 1176 :       else if (op[0] == '&') strcpy(codebuff, " and ");

	cmp	bl, 38					; 00000026H
	jne	SHORT $LN82@ForInitAnd
	xor	ecx, ecx
	lea	rbx, OFFSET FLAT:__ImageBase
	npad	9
$LL149@ForInitAnd:
	movzx	eax, BYTE PTR $SG11576[rcx+rbx]
	mov	BYTE PTR codebuff$[rbp+rcx-256], al
	lea	rcx, QWORD PTR [rcx+1]
	test	al, al
	jne	SHORT $LL149@ForInitAnd
	jmp	$LN72@ForInitAnd
$LN82@ForInitAnd:

; 1177 :       else if (op[0] == '|') strcpy(codebuff, " or ");

	cmp	bl, 124					; 0000007cH
	jne	SHORT $LN84@ForInitAnd
	xor	ecx, ecx
	lea	rbx, OFFSET FLAT:__ImageBase
	npad	9
$LL150@ForInitAnd:
	movzx	eax, BYTE PTR $SG11579[rcx+rbx]
	mov	BYTE PTR codebuff$[rbp+rcx-256], al
	lea	rcx, QWORD PTR [rcx+1]
	test	al, al
	jne	SHORT $LL150@ForInitAnd
	jmp	$LN72@ForInitAnd
$LN84@ForInitAnd:

; 1178 :       else if (op[0] == '^') strcpy(codebuff, " xor ");

	cmp	bl, 94					; 0000005eH
	jne	SHORT $LN86@ForInitAnd
	xor	ecx, ecx
	lea	rbx, OFFSET FLAT:__ImageBase
	npad	9
$LL151@ForInitAnd:
	movzx	eax, BYTE PTR $SG11582[rcx+rbx]
	mov	BYTE PTR codebuff$[rbp+rcx-256], al
	lea	rcx, QWORD PTR [rcx+1]
	test	al, al
	jne	SHORT $LL151@ForInitAnd
	jmp	SHORT $LN72@ForInitAnd
$LN86@ForInitAnd:

; 1179 :       else if (op[0] == '<' && op[1] == '<') strcpy(codebuff, " shl ");

	cmp	bl, 60					; 0000003cH
	jne	SHORT $LN88@ForInitAnd
	lea	rbx, OFFSET FLAT:__ImageBase
	cmp	r8b, 60					; 0000003cH
	jne	SHORT $LN72@ForInitAnd
	xor	ecx, ecx
	npad	6
$LL152@ForInitAnd:
	movzx	eax, BYTE PTR $SG11585[rcx+rbx]
	mov	BYTE PTR codebuff$[rbp+rcx-256], al
	lea	rcx, QWORD PTR [rcx+1]
	test	al, al
	jne	SHORT $LL152@ForInitAnd
	jmp	SHORT $LN72@ForInitAnd
$LN88@ForInitAnd:

; 1180 :       else if (op[0] == '>' && op[1] == '>') strcpy(codebuff, " shr ");

	cmp	bl, 62					; 0000003eH
	jne	SHORT $LN537@ForInitAnd
	lea	rbx, OFFSET FLAT:__ImageBase
	cmp	r8b, 62					; 0000003eH
	jne	SHORT $LN72@ForInitAnd
	xor	ecx, ecx
	npad	6
$LL153@ForInitAnd:
	movzx	eax, BYTE PTR $SG11587[rbx+rcx]
	mov	BYTE PTR codebuff$[rbp+rcx-256], al
	lea	rcx, QWORD PTR [rcx+1]
	test	al, al
	jne	SHORT $LL153@ForInitAnd
	jmp	SHORT $LN72@ForInitAnd
$LN537@ForInitAnd:
	lea	rbx, OFFSET FLAT:__ImageBase
$LN72@ForInitAnd:

; 1181 :       Tokenize(init, 0, tokenarray, 0);

	xor	r9d, r9d
	lea	rcx, QWORD PTR init$[rbp-256]
	mov	r8, r13
	xor	edx, edx
	call	Tokenize
	movzx	eax, BYTE PTR [r13]
	sub	al, 2
	test	al, 246					; 000000f6H
	je	$simple$555

; 1182 :       if (tokenarray[0].token == T_REG || tokenarray[0].token == T_NUM || tokenarray[0].token == T_FLOAT || tokenarray[0].token == T_DIRECTIVE)
; 1183 :         goto simple;
; 1184 :       Tokenize(param, 0, tokenarray, 0);

	xor	r9d, r9d
	lea	rcx, QWORD PTR param$[rbp-256]
	mov	r8, r13
	xor	edx, edx
	call	Tokenize

; 1185 :       if (tokenarray[0].token == T_REG) {

	cmp	BYTE PTR [r13], 2
	je	$simple$555

; 1235 :       else
; 1236 :       {
; 1237 :         if (init[0] == 39 && init[2] == 39)

	cmp	BYTE PTR init$[rbp-256], 39		; 00000027H
	jne	$LN124@ForInitAnd
	cmp	BYTE PTR init$[rbp-254], 39		; 00000027H
	jne	$LN124@ForInitAnd

; 1238 :           WriteAsmLine(" mov  byte ptr ", param, init);

	xor	ecx, ecx
	npad	5
$LL214@ForInitAnd:
	movzx	eax, BYTE PTR $SG11642[rcx+rbx]
	mov	BYTE PTR codebuff$1[rsp+rcx], al
	lea	rcx, QWORD PTR [rcx+1]
	test	al, al
	jne	SHORT $LL214@ForInitAnd
	lea	rcx, QWORD PTR codebuff$1[rsp]
	dec	rcx
	npad	4
$LL454@ForInitAnd:
	cmp	BYTE PTR [rcx+1], 0
	lea	rcx, QWORD PTR [rcx+1]
	jne	SHORT $LL454@ForInitAnd
	lea	r8, QWORD PTR param$[rbp-256]
	xor	edx, edx
	npad	13
$LL455@ForInitAnd:
	movzx	eax, BYTE PTR [r8+rdx]
	mov	BYTE PTR [rcx+rdx], al
	lea	rdx, QWORD PTR [rdx+1]
	test	al, al
	jne	SHORT $LL455@ForInitAnd
	lea	rcx, QWORD PTR codebuff$1[rsp]
	dec	rcx
	npad	8
$LL452@ForInitAnd:
	cmp	BYTE PTR [rcx+1], 0
	lea	rcx, QWORD PTR [rcx+1]
	jne	SHORT $LL452@ForInitAnd
	xor	edx, edx
	lea	r12, OFFSET FLAT:$SG11441
	npad	13
$LL453@ForInitAnd:
	movzx	eax, BYTE PTR [r12+rdx]
	mov	BYTE PTR [rcx+rdx], al
	lea	rdx, QWORD PTR [rdx+1]
	test	al, al
	jne	SHORT $LL453@ForInitAnd
	mov	r12, QWORD PTR buff$[rbp-256]
	lea	rcx, QWORD PTR codebuff$1[rsp]
	dec	rcx
	npad	1
$LL450@ForInitAnd:
	cmp	BYTE PTR [rcx+1], 0
	lea	rcx, QWORD PTR [rcx+1]
	jne	SHORT $LL450@ForInitAnd
	lea	r8, QWORD PTR init$[rbp-256]
	xor	edx, edx
	npad	13
$LL451@ForInitAnd:
	movzx	eax, BYTE PTR [r8+rdx]
	mov	BYTE PTR [rcx+rdx], al
	inc	rdx
	test	al, al
	jne	SHORT $LL451@ForInitAnd
	lea	rcx, QWORD PTR codebuff$1[rsp]
	call	AddLineQueue
	jmp	$skip$554
$LN124@ForInitAnd:

; 1239 :         else {
; 1240 :           WriteAsmLine(" mov  ", reax[ModuleInfo.Ofssize], init);

	movzx	edx, BYTE PTR ModuleInfo+404
	lea	r8, QWORD PTR init$[rbp-256]
	lea	rcx, OFFSET FLAT:$SG11643
	mov	rdx, QWORD PTR reax[rbx+rdx*8]
	call	WriteAsmLine

; 1241 :           WriteAsmLine(codebuff, param, reax[ModuleInfo.Ofssize]);

	movzx	r8d, BYTE PTR ModuleInfo+404
	lea	rdx, QWORD PTR param$[rbp-256]
	lea	rcx, QWORD PTR codebuff$[rbp-256]
	mov	r8, QWORD PTR reax[rbx+r8*8]
	call	WriteAsmLine
	jmp	$skip$554
$simple$555:

; 1186 :       simple:			Tokenize(param, 0, tokenarray, 0);

	xor	r9d, r9d
	lea	rcx, QWORD PTR param$[rbp-256]
	mov	r8, r13
	xor	edx, edx
	call	Tokenize

; 1187 : 
; 1188 :         if (strlen(init) == 1 && init[0] == '0')                        //REX=0?

	lea	rax, QWORD PTR init$[rbp-256]
	or	rcx, -1
$LL449@ForInitAnd:
	inc	rcx
	cmp	BYTE PTR [rax+rcx], 0
	jne	SHORT $LL449@ForInitAnd
	cmp	rcx, 1
	jne	$LN95@ForInitAnd
	cmp	BYTE PTR init$[rbp-256], 48		; 00000030H
	jne	$LN95@ForInitAnd

; 1189 :           WriteAsmLine(" xor  ", param, param);							            //XOR REX,REX //instead MOV REX,0

	xor	ecx, ecx
	npad	10
$LL187@ForInitAnd:
	movzx	eax, BYTE PTR $SG11594[rcx+rbx]
	mov	BYTE PTR codebuff$10[rsp+rcx], al
	lea	rcx, QWORD PTR [rcx+1]
	test	al, al
	jne	SHORT $LL187@ForInitAnd
	lea	rcx, QWORD PTR codebuff$10[rsp]
	dec	rcx
	npad	4
$LL447@ForInitAnd:
	cmp	BYTE PTR [rcx+1], 0
	lea	rcx, QWORD PTR [rcx+1]
	jne	SHORT $LL447@ForInitAnd
	lea	r8, QWORD PTR param$[rbp-256]
	xor	edx, edx
	npad	13
$LL448@ForInitAnd:
	movzx	eax, BYTE PTR [r8+rdx]
	mov	BYTE PTR [rcx+rdx], al
	lea	rdx, QWORD PTR [rdx+1]
	test	al, al
	jne	SHORT $LL448@ForInitAnd
	lea	rcx, QWORD PTR codebuff$10[rsp]
	dec	rcx
	npad	8
$LL445@ForInitAnd:
	cmp	BYTE PTR [rcx+1], 0
	lea	rcx, QWORD PTR [rcx+1]
	jne	SHORT $LL445@ForInitAnd
	xor	edx, edx
	lea	r12, OFFSET FLAT:$SG11441
	npad	13
$LL446@ForInitAnd:
	movzx	eax, BYTE PTR [r12+rdx]
	mov	BYTE PTR [rcx+rdx], al
	lea	rdx, QWORD PTR [rdx+1]
	test	al, al
	jne	SHORT $LL446@ForInitAnd
	mov	r12, QWORD PTR buff$[rbp-256]
	lea	rcx, QWORD PTR codebuff$10[rsp]
	dec	rcx
	npad	1
$LL443@ForInitAnd:
	cmp	BYTE PTR [rcx+1], 0
	lea	rcx, QWORD PTR [rcx+1]
	jne	SHORT $LL443@ForInitAnd
	lea	r8, QWORD PTR param$[rbp-256]
	xor	edx, edx
	npad	13
$LL444@ForInitAnd:
	movzx	eax, BYTE PTR [r8+rdx]
	mov	BYTE PTR [rcx+rdx], al
	inc	rdx
	test	al, al
	jne	SHORT $LL444@ForInitAnd
	lea	rcx, QWORD PTR codebuff$10[rsp]
	call	AddLineQueue
	jmp	$skip$554
$LN95@ForInitAnd:

; 1190 :         else if ((strlen(op) == 1) && ((init[4] == ' ') || (init[4] == '\t'))) {  //op is '='

	lea	rdx, QWORD PTR op$[rbp-256]
	or	rax, -1
	npad	7
$LL442@ForInitAnd:
	inc	rax
	cmp	BYTE PTR [rdx+rax], 0
	jne	SHORT $LL442@ForInitAnd
	cmp	rax, 1
	jne	$LN122@ForInitAnd
	movzx	edx, BYTE PTR init$[rbp-252]
	cmp	dl, 32					; 00000020H
	je	SHORT $LN99@ForInitAnd
	cmp	dl, 9
	jne	$LN97@ForInitAnd
$LN99@ForInitAnd:

; 1191 :           if ((0 == _memicmp(init, "BYTE PTR", 8)) ||                   //reax=BYTE PTR al
; 1192 :             (0 == _memicmp(init, "BPTR", 4)) ||
; 1193 :             (0 == _memicmp(init, "WPTR", 4)) ||

	mov	r8d, 8
	lea	rdx, OFFSET FLAT:$SG11601
	lea	rcx, QWORD PTR init$[rbp-256]
	call	_memicmp
	test	eax, eax
	je	$LN102@ForInitAnd
	mov	r8d, 4
	lea	rdx, OFFSET FLAT:$SG11602
	lea	rcx, QWORD PTR init$[rbp-256]
	call	_memicmp
	test	eax, eax
	je	$LN102@ForInitAnd
	mov	r8d, 4
	lea	rdx, OFFSET FLAT:$SG11603
	lea	rcx, QWORD PTR init$[rbp-256]
	call	_memicmp
	test	eax, eax
	je	$LN102@ForInitAnd
	mov	r8d, 8
	lea	rdx, OFFSET FLAT:$SG11604
	lea	rcx, QWORD PTR init$[rbp-256]
	call	_memicmp
	test	eax, eax
	je	$LN102@ForInitAnd

; 1197 :           else if (0 == _memicmp(init, "ADDR", 4))

	mov	r8d, 4
	lea	rdx, OFFSET FLAT:$SG11608
	lea	rcx, QWORD PTR init$[rbp-256]
	call	_memicmp
	test	eax, eax
	jne	SHORT $LN103@ForInitAnd

; 1198 :             WriteAsmLine(" lea  ", param, init + 5);

	lea	r8, QWORD PTR init$[rbp-251]
	lea	rdx, QWORD PTR param$[rbp-256]
	lea	rcx, OFFSET FLAT:$SG11609
	call	WriteAsmLine
	jmp	$skip$554
$LN103@ForInitAnd:

; 1199 :           else WriteAsmLine(" mov  ", param, init);

	xor	ecx, ecx
	npad	6
$LL193@ForInitAnd:
	movzx	eax, BYTE PTR $SG11610[rcx+rbx]
	mov	BYTE PTR codebuff$8[rsp+rcx], al
	lea	rcx, QWORD PTR [rcx+1]
	test	al, al
	jne	SHORT $LL193@ForInitAnd
	lea	rcx, QWORD PTR codebuff$8[rsp]
	dec	rcx
	npad	4
$LL440@ForInitAnd:
	cmp	BYTE PTR [rcx+1], 0
	lea	rcx, QWORD PTR [rcx+1]
	jne	SHORT $LL440@ForInitAnd
	lea	r8, QWORD PTR param$[rbp-256]
	xor	edx, edx
	npad	13
$LL441@ForInitAnd:
	movzx	eax, BYTE PTR [r8+rdx]
	mov	BYTE PTR [rcx+rdx], al
	lea	rdx, QWORD PTR [rdx+1]
	test	al, al
	jne	SHORT $LL441@ForInitAnd
	lea	rcx, QWORD PTR codebuff$8[rsp]
	dec	rcx
	npad	8
$LL438@ForInitAnd:
	cmp	BYTE PTR [rcx+1], 0
	lea	rcx, QWORD PTR [rcx+1]
	jne	SHORT $LL438@ForInitAnd
	xor	edx, edx
	lea	r12, OFFSET FLAT:$SG11441
	npad	13
$LL439@ForInitAnd:
	movzx	eax, BYTE PTR [r12+rdx]
	mov	BYTE PTR [rcx+rdx], al
	lea	rdx, QWORD PTR [rdx+1]
	test	al, al
	jne	SHORT $LL439@ForInitAnd
	mov	r12, QWORD PTR buff$[rbp-256]
	lea	rcx, QWORD PTR codebuff$8[rsp]
	dec	rcx
	npad	1
$LL436@ForInitAnd:
	cmp	BYTE PTR [rcx+1], 0
	lea	rcx, QWORD PTR [rcx+1]
	jne	SHORT $LL436@ForInitAnd
	lea	r8, QWORD PTR init$[rbp-256]
	xor	edx, edx
	npad	13
$LL437@ForInitAnd:
	movzx	eax, BYTE PTR [r8+rdx]
	mov	BYTE PTR [rcx+rdx], al
	inc	rdx
	test	al, al
	jne	SHORT $LL437@ForInitAnd
	lea	rcx, QWORD PTR codebuff$8[rsp]
	call	AddLineQueue
	jmp	$skip$554
$LN102@ForInitAnd:

; 1194 :             (0 == _memicmp(init, "WORD PTR", 8)))                     //reax=WORD PTR ax
; 1195 : 
; 1196 :             WriteAsmLine(" movzx  ", param, init);                      //movzx reax,ax

	xor	ecx, ecx
$LL190@ForInitAnd:
	movzx	eax, BYTE PTR $SG11605[rbx+rcx]
	mov	BYTE PTR codebuff$9[rsp+rcx], al
	lea	rcx, QWORD PTR [rcx+1]
	test	al, al
	jne	SHORT $LL190@ForInitAnd
	lea	rcx, QWORD PTR codebuff$9[rsp]
	dec	rcx
	npad	4
$LL434@ForInitAnd:
	cmp	BYTE PTR [rcx+1], 0
	lea	rcx, QWORD PTR [rcx+1]
	jne	SHORT $LL434@ForInitAnd
	lea	r8, QWORD PTR param$[rbp-256]
	xor	edx, edx
	npad	13
$LL435@ForInitAnd:
	movzx	eax, BYTE PTR [r8+rdx]
	mov	BYTE PTR [rcx+rdx], al
	lea	rdx, QWORD PTR [rdx+1]
	test	al, al
	jne	SHORT $LL435@ForInitAnd
	lea	rcx, QWORD PTR codebuff$9[rsp]
	dec	rcx
	npad	8
$LL432@ForInitAnd:
	cmp	BYTE PTR [rcx+1], 0
	lea	rcx, QWORD PTR [rcx+1]
	jne	SHORT $LL432@ForInitAnd
	xor	edx, edx
	lea	r12, OFFSET FLAT:$SG11441
	npad	13
$LL433@ForInitAnd:
	movzx	eax, BYTE PTR [r12+rdx]
	mov	BYTE PTR [rcx+rdx], al
	lea	rdx, QWORD PTR [rdx+1]
	test	al, al
	jne	SHORT $LL433@ForInitAnd
	mov	r12, QWORD PTR buff$[rbp-256]
	lea	rcx, QWORD PTR codebuff$9[rsp]
	dec	rcx
	npad	1
$LL430@ForInitAnd:
	cmp	BYTE PTR [rcx+1], 0
	lea	rcx, QWORD PTR [rcx+1]
	jne	SHORT $LL430@ForInitAnd
	lea	r8, QWORD PTR init$[rbp-256]
	xor	edx, edx
	npad	13
$LL431@ForInitAnd:
	movzx	eax, BYTE PTR [r8+rdx]
	mov	BYTE PTR [rcx+rdx], al
	inc	rdx
	test	al, al
	jne	SHORT $LL431@ForInitAnd
	lea	rcx, QWORD PTR codebuff$9[rsp]
	call	AddLineQueue

; 1200 :         }

	jmp	$skip$554
$LN97@ForInitAnd:

; 1201 :         else if ((strlen(op) == 1) && ((init[6] == ' ') || (init[6] == '\t'))) {

	cmp	rax, 1
	jne	$LN122@ForInitAnd
	movzx	edx, BYTE PTR init$[rbp-250]
	cmp	dl, 32					; 00000020H
	je	SHORT $LN107@ForInitAnd
	cmp	dl, 9
	jne	$LN105@ForInitAnd
$LN107@ForInitAnd:

; 1202 :           if (0 == _memicmp(init, "OFFSET", 6))

	mov	r8d, 6
	lea	rdx, OFFSET FLAT:$SG11616
	lea	rcx, QWORD PTR init$[rbp-256]
	call	_memicmp
	test	eax, eax
	jne	SHORT $LN108@ForInitAnd

; 1203 :             WriteAsmLine(" lea  ", param, init + 7);

	lea	r8, QWORD PTR init$[rbp-249]
	lea	rdx, QWORD PTR param$[rbp-256]
	lea	rcx, OFFSET FLAT:$SG11617
	call	WriteAsmLine
	jmp	$skip$554
$LN108@ForInitAnd:

; 1204 :           else WriteAsmLine(" mov  ", param, init);

	xor	ecx, ecx
	npad	5
$LL196@ForInitAnd:
	movzx	eax, BYTE PTR $SG11618[rcx+rbx]
	mov	BYTE PTR codebuff$7[rsp+rcx], al
	lea	rcx, QWORD PTR [rcx+1]
	test	al, al
	jne	SHORT $LL196@ForInitAnd
	lea	rcx, QWORD PTR codebuff$7[rsp]
	dec	rcx
	npad	4
$LL428@ForInitAnd:
	cmp	BYTE PTR [rcx+1], 0
	lea	rcx, QWORD PTR [rcx+1]
	jne	SHORT $LL428@ForInitAnd
	lea	r8, QWORD PTR param$[rbp-256]
	xor	edx, edx
	npad	13
$LL429@ForInitAnd:
	movzx	eax, BYTE PTR [r8+rdx]
	mov	BYTE PTR [rcx+rdx], al
	lea	rdx, QWORD PTR [rdx+1]
	test	al, al
	jne	SHORT $LL429@ForInitAnd
	lea	rcx, QWORD PTR codebuff$7[rsp]
	dec	rcx
	npad	8
$LL426@ForInitAnd:
	cmp	BYTE PTR [rcx+1], 0
	lea	rcx, QWORD PTR [rcx+1]
	jne	SHORT $LL426@ForInitAnd
	xor	edx, edx
	lea	r12, OFFSET FLAT:$SG11441
	npad	13
$LL427@ForInitAnd:
	movzx	eax, BYTE PTR [r12+rdx]
	mov	BYTE PTR [rcx+rdx], al
	lea	rdx, QWORD PTR [rdx+1]
	test	al, al
	jne	SHORT $LL427@ForInitAnd
	mov	r12, QWORD PTR buff$[rbp-256]
	lea	rcx, QWORD PTR codebuff$7[rsp]
	dec	rcx
	npad	1
$LL424@ForInitAnd:
	cmp	BYTE PTR [rcx+1], 0
	lea	rcx, QWORD PTR [rcx+1]
	jne	SHORT $LL424@ForInitAnd
	lea	r8, QWORD PTR init$[rbp-256]
	xor	edx, edx
	npad	13
$LL425@ForInitAnd:
	movzx	eax, BYTE PTR [r8+rdx]
	mov	BYTE PTR [rcx+rdx], al
	inc	rdx
	test	al, al
	jne	SHORT $LL425@ForInitAnd
	lea	rcx, QWORD PTR codebuff$7[rsp]
	call	AddLineQueue

; 1205 :         }

	jmp	$skip$554
$LN105@ForInitAnd:

; 1206 :         else if ((strlen(op) == 1) && ((init[5] == ' ') || (init[5] == '\t'))) {            //op is '='

	cmp	rax, 1
	jne	$LN122@ForInitAnd
	movzx	edx, BYTE PTR init$[rbp-251]
	cmp	dl, 32					; 00000020H
	je	SHORT $LN112@ForInitAnd
	cmp	dl, 9
	jne	$LN110@ForInitAnd
$LN112@ForInitAnd:

; 1207 :           if ((0 == _memicmp(init, "DWORD PTR", 9) || 0 == _memicmp(init, "DPTR", 4)

	mov	r8d, 9
	lea	rdx, OFFSET FLAT:$SG11625
	lea	rcx, QWORD PTR init$[rbp-256]
	call	_memicmp
	test	eax, eax
	je	$LN116@ForInitAnd
	mov	r8d, 4
	lea	rdx, OFFSET FLAT:$SG11626
	lea	rcx, QWORD PTR init$[rbp-256]
	call	_memicmp
	test	eax, eax
	jne	SHORT $LN113@ForInitAnd
	movzx	eax, BYTE PTR param$[rbp-256]
	sub	al, 82					; 00000052H
	test	al, 223					; 000000dfH
	je	$LN116@ForInitAnd
$LN113@ForInitAnd:

; 1210 :           else WriteAsmLine(" mov  ", param, init);

	xor	ecx, ecx
	npad	2
$LL202@ForInitAnd:
	movzx	eax, BYTE PTR $SG11629[rcx+rbx]
	mov	BYTE PTR codebuff$5[rsp+rcx], al
	lea	rcx, QWORD PTR [rcx+1]
	test	al, al
	jne	SHORT $LL202@ForInitAnd
	lea	rcx, QWORD PTR codebuff$5[rsp]
	dec	rcx
	npad	4
$LL422@ForInitAnd:
	cmp	BYTE PTR [rcx+1], 0
	lea	rcx, QWORD PTR [rcx+1]
	jne	SHORT $LL422@ForInitAnd
	lea	r8, QWORD PTR param$[rbp-256]
	xor	edx, edx
	npad	13
$LL423@ForInitAnd:
	movzx	eax, BYTE PTR [r8+rdx]
	mov	BYTE PTR [rcx+rdx], al
	lea	rdx, QWORD PTR [rdx+1]
	test	al, al
	jne	SHORT $LL423@ForInitAnd
	lea	rcx, QWORD PTR codebuff$5[rsp]
	dec	rcx
	npad	8
$LL420@ForInitAnd:
	cmp	BYTE PTR [rcx+1], 0
	lea	rcx, QWORD PTR [rcx+1]
	jne	SHORT $LL420@ForInitAnd
	xor	edx, edx
	lea	r13, OFFSET FLAT:$SG11441
	npad	13
$LL421@ForInitAnd:
	movzx	eax, BYTE PTR [rdx+r13]
	mov	BYTE PTR [rcx+rdx], al
	lea	rdx, QWORD PTR [rdx+1]
	test	al, al
	jne	SHORT $LL421@ForInitAnd
	mov	r13, QWORD PTR tokenarray$[rbp-256]
	lea	rcx, QWORD PTR codebuff$5[rsp]
	dec	rcx
	npad	1
$LL418@ForInitAnd:
	cmp	BYTE PTR [rcx+1], 0
	lea	rcx, QWORD PTR [rcx+1]
	jne	SHORT $LL418@ForInitAnd
	lea	r8, QWORD PTR init$[rbp-256]
	xor	edx, edx
	npad	13
$LL419@ForInitAnd:
	movzx	eax, BYTE PTR [r8+rdx]
	mov	BYTE PTR [rcx+rdx], al
	inc	rdx
	test	al, al
	jne	SHORT $LL419@ForInitAnd
	lea	rcx, QWORD PTR codebuff$5[rsp]
	call	AddLineQueue
	jmp	$skip$554
$LN116@ForInitAnd:

; 1208 :             && (param[0] == 'r' || param[0] == 'R'))) 							   //rax=DWORD PTR eax
; 1209 :             WriteAsmLine(" movsxd  ", param, init);								     //movsxd rax,eax

	xor	ecx, ecx
$LL199@ForInitAnd:
	movzx	eax, BYTE PTR $SG11628[rcx+rbx]
	mov	BYTE PTR codebuff$6[rsp+rcx], al
	lea	rcx, QWORD PTR [rcx+1]
	test	al, al
	jne	SHORT $LL199@ForInitAnd
	lea	rcx, QWORD PTR codebuff$6[rsp]
	dec	rcx
	npad	4
$LL416@ForInitAnd:
	cmp	BYTE PTR [rcx+1], 0
	lea	rcx, QWORD PTR [rcx+1]
	jne	SHORT $LL416@ForInitAnd
	lea	r8, QWORD PTR param$[rbp-256]
	xor	edx, edx
	npad	13
$LL417@ForInitAnd:
	movzx	eax, BYTE PTR [r8+rdx]
	mov	BYTE PTR [rcx+rdx], al
	lea	rdx, QWORD PTR [rdx+1]
	test	al, al
	jne	SHORT $LL417@ForInitAnd
	lea	rcx, QWORD PTR codebuff$6[rsp]
	dec	rcx
	npad	8
$LL414@ForInitAnd:
	cmp	BYTE PTR [rcx+1], 0
	lea	rcx, QWORD PTR [rcx+1]
	jne	SHORT $LL414@ForInitAnd
	xor	edx, edx
	lea	r12, OFFSET FLAT:$SG11441
	npad	13
$LL415@ForInitAnd:
	movzx	eax, BYTE PTR [r12+rdx]
	mov	BYTE PTR [rcx+rdx], al
	lea	rdx, QWORD PTR [rdx+1]
	test	al, al
	jne	SHORT $LL415@ForInitAnd
	mov	r12, QWORD PTR buff$[rbp-256]
	lea	rcx, QWORD PTR codebuff$6[rsp]
	dec	rcx
	npad	1
$LL412@ForInitAnd:
	cmp	BYTE PTR [rcx+1], 0
	lea	rcx, QWORD PTR [rcx+1]
	jne	SHORT $LL412@ForInitAnd
	lea	r8, QWORD PTR init$[rbp-256]
	xor	edx, edx
	npad	13
$LL413@ForInitAnd:
	movzx	eax, BYTE PTR [r8+rdx]
	mov	BYTE PTR [rcx+rdx], al
	inc	rdx
	test	al, al
	jne	SHORT $LL413@ForInitAnd
	lea	rcx, QWORD PTR codebuff$6[rsp]
	call	AddLineQueue

; 1211 :         }

	jmp	$skip$554
$LN110@ForInitAnd:

; 1212 :         else if ((strlen(op) == 1) && brct) {											    //op is '='

	cmp	rax, 1
	jne	$LN122@ForInitAnd
	test	r14b, r14b
	je	$LN117@ForInitAnd

; 1213 :           for (j = strlen(init); j; j--) {

	movsxd	r8, ecx
	test	ecx, ecx
	je	SHORT $LN14@ForInitAnd
	npad	8
$LL15@ForInitAnd:
	lea	rdx, QWORD PTR init$[rbp-256]
	add	rdx, r8

; 1214 :             if (init[j] == ')') init[j] = NULLC;

	cmp	BYTE PTR [rdx], 41			; 00000029H
	jne	SHORT $LN119@ForInitAnd
	mov	BYTE PTR [rdx], 0
$LN119@ForInitAnd:

; 1215 :             if (init[j] == '(') {

	cmp	BYTE PTR [rdx], 40			; 00000028H
	jne	SHORT $LN13@ForInitAnd

; 1216 :               for (p = init, p += j; *p; p++) {

	mov	rcx, rdx
	mov	al, 40					; 00000028H
	npad	4
$LL18@ForInitAnd:

; 1217 :                 if (*p == ',' && cnt) --cnt;

	cmp	al, 44					; 0000002cH
	jne	SHORT $LN16@ForInitAnd
	test	esi, esi
	je	SHORT $LN16@ForInitAnd
	dec	esi
$LN16@ForInitAnd:

; 1216 :               for (p = init, p += j; *p; p++) {

	movzx	eax, BYTE PTR [rcx+1]
	inc	rcx
	test	al, al
	jne	SHORT $LL18@ForInitAnd

; 1218 :               }
; 1219 :               init[j] = ',';

	mov	BYTE PTR [rdx], 44			; 0000002cH
$LN13@ForInitAnd:

; 1213 :           for (j = strlen(init); j; j--) {

	sub	r8, 1
	jne	SHORT $LL15@ForInitAnd
$LN14@ForInitAnd:

; 1220 :             }
; 1221 :           }
; 1222 :           strcpy(codebuff, " invoke  ");

	xor	ecx, ecx
$LL154@ForInitAnd:
	movzx	eax, BYTE PTR $SG11635[rcx+rbx]
	mov	BYTE PTR codebuff$[rbp+rcx-256], al
	lea	rcx, QWORD PTR [rcx+1]
	test	al, al
	jne	SHORT $LL154@ForInitAnd

; 1223 :           strcat(codebuff, init);

	lea	rcx, QWORD PTR codebuff$[rbp-256]
	dec	rcx
	npad	5
$LL410@ForInitAnd:
	cmp	BYTE PTR [rcx+1], 0
	lea	rcx, QWORD PTR [rcx+1]
	jne	SHORT $LL410@ForInitAnd
	lea	r8, QWORD PTR init$[rbp-256]
	xor	edx, edx
	npad	13
$LL411@ForInitAnd:
	movzx	eax, BYTE PTR [r8+rdx]
	mov	BYTE PTR [rcx+rdx], al
	lea	rdx, QWORD PTR [rdx+1]
	test	al, al
	jne	SHORT $LL411@ForInitAnd

; 1224 :           AddLineQueue(codebuff);

	lea	rcx, QWORD PTR codebuff$[rbp-256]
	call	AddLineQueue

; 1225 :           WriteAsmLine(" mov  ", param, reax[ModuleInfo.Ofssize]);

	movzx	eax, BYTE PTR ModuleInfo+404
	xor	ecx, ecx
	mov	r8, QWORD PTR reax[rbx+rax*8]
	npad	6
$LL205@ForInitAnd:
	movzx	eax, BYTE PTR $SG11636[rcx+rbx]
	mov	BYTE PTR codebuff$4[rsp+rcx], al
	lea	rcx, QWORD PTR [rcx+1]
	test	al, al
	jne	SHORT $LL205@ForInitAnd
	lea	rcx, QWORD PTR codebuff$4[rsp]
	dec	rcx
	npad	4
$LL408@ForInitAnd:
	cmp	BYTE PTR [rcx+1], 0
	lea	rcx, QWORD PTR [rcx+1]
	jne	SHORT $LL408@ForInitAnd
	lea	r9, QWORD PTR param$[rbp-256]
	xor	edx, edx
	npad	13
$LL409@ForInitAnd:
	movzx	eax, BYTE PTR [r9+rdx]
	mov	BYTE PTR [rcx+rdx], al
	lea	rdx, QWORD PTR [rdx+1]
	test	al, al
	jne	SHORT $LL409@ForInitAnd
	lea	rcx, QWORD PTR codebuff$4[rsp]
	dec	rcx
	npad	8
$LL406@ForInitAnd:
	cmp	BYTE PTR [rcx+1], 0
	lea	rcx, QWORD PTR [rcx+1]
	jne	SHORT $LL406@ForInitAnd
	xor	edx, edx
	lea	r12, OFFSET FLAT:$SG11441
	npad	13
$LL407@ForInitAnd:
	movzx	eax, BYTE PTR [r12+rdx]
	mov	BYTE PTR [rcx+rdx], al
	lea	rdx, QWORD PTR [rdx+1]
	test	al, al
	jne	SHORT $LL407@ForInitAnd
	mov	r12, QWORD PTR buff$[rbp-256]
	lea	rcx, QWORD PTR codebuff$4[rsp]
	dec	rcx
	npad	1
$LL404@ForInitAnd:
	cmp	BYTE PTR [rcx+1], 0
	lea	rcx, QWORD PTR [rcx+1]
	jne	SHORT $LL404@ForInitAnd
	xor	edx, edx
	npad	4
$LL405@ForInitAnd:
	movzx	eax, BYTE PTR [r8+rdx]
	mov	BYTE PTR [rcx+rdx], al
	inc	rdx
	test	al, al
	jne	SHORT $LL405@ForInitAnd
	lea	rcx, QWORD PTR codebuff$4[rsp]
	call	AddLineQueue

; 1226 :           brct = FALSE;

	xor	r14b, r14b

; 1227 :         }

	jmp	$skip$554
$LN117@ForInitAnd:

; 1228 :         else {
; 1229 :           if (strlen(op) == 1)

	cmp	rax, 1
	jne	$LN122@ForInitAnd

; 1230 :             WriteAsmLine(" mov  ", param, init);

	xor	ecx, ecx
	npad	3
$LL208@ForInitAnd:
	movzx	eax, BYTE PTR $SG11639[rcx+rbx]
	mov	BYTE PTR codebuff$3[rsp+rcx], al
	lea	rcx, QWORD PTR [rcx+1]
	test	al, al
	jne	SHORT $LL208@ForInitAnd
	lea	rcx, QWORD PTR codebuff$3[rsp]
	dec	rcx
	npad	4
$LL402@ForInitAnd:
	cmp	BYTE PTR [rcx+1], 0
	lea	rcx, QWORD PTR [rcx+1]
	jne	SHORT $LL402@ForInitAnd
	lea	r8, QWORD PTR param$[rbp-256]
	xor	edx, edx
	npad	13
$LL403@ForInitAnd:
	movzx	eax, BYTE PTR [r8+rdx]
	mov	BYTE PTR [rcx+rdx], al
	lea	rdx, QWORD PTR [rdx+1]
	test	al, al
	jne	SHORT $LL403@ForInitAnd
	lea	rcx, QWORD PTR codebuff$3[rsp]
	dec	rcx
	npad	8
$LL400@ForInitAnd:
	cmp	BYTE PTR [rcx+1], 0
	lea	rcx, QWORD PTR [rcx+1]
	jne	SHORT $LL400@ForInitAnd
	xor	edx, edx
	lea	r12, OFFSET FLAT:$SG11441
	npad	13
$LL401@ForInitAnd:
	movzx	eax, BYTE PTR [r12+rdx]
	mov	BYTE PTR [rcx+rdx], al
	lea	rdx, QWORD PTR [rdx+1]
	test	al, al
	jne	SHORT $LL401@ForInitAnd
	mov	r12, QWORD PTR buff$[rbp-256]
	lea	rcx, QWORD PTR codebuff$3[rsp]
	dec	rcx
	npad	1
$LL398@ForInitAnd:
	cmp	BYTE PTR [rcx+1], 0
	lea	rcx, QWORD PTR [rcx+1]
	jne	SHORT $LL398@ForInitAnd
	lea	r8, QWORD PTR init$[rbp-256]
	xor	edx, edx
	npad	13
$LL399@ForInitAnd:
	movzx	eax, BYTE PTR [r8+rdx]
	mov	BYTE PTR [rcx+rdx], al
	inc	rdx
	test	al, al
	jne	SHORT $LL399@ForInitAnd
	lea	rcx, QWORD PTR codebuff$3[rsp]
	call	AddLineQueue
	jmp	$skip$554
$LN122@ForInitAnd:

; 1231 :           else
; 1232 :             WriteAsmLine(codebuff, param, init);

	xor	ecx, ecx
$LL211@ForInitAnd:
	movzx	eax, BYTE PTR codebuff$[rbp+rcx-256]
	mov	BYTE PTR codebuff$2[rsp+rcx], al
	lea	rcx, QWORD PTR [rcx+1]
	test	al, al
	jne	SHORT $LL211@ForInitAnd
	lea	rcx, QWORD PTR codebuff$2[rsp]
	dec	rcx
	npad	7
$LL396@ForInitAnd:
	cmp	BYTE PTR [rcx+1], 0
	lea	rcx, QWORD PTR [rcx+1]
	jne	SHORT $LL396@ForInitAnd
	lea	r8, QWORD PTR param$[rbp-256]
	xor	edx, edx
	npad	13
$LL397@ForInitAnd:
	movzx	eax, BYTE PTR [r8+rdx]
	mov	BYTE PTR [rcx+rdx], al
	lea	rdx, QWORD PTR [rdx+1]
	test	al, al
	jne	SHORT $LL397@ForInitAnd
	lea	rcx, QWORD PTR codebuff$2[rsp]
	dec	rcx
	npad	8
$LL394@ForInitAnd:
	cmp	BYTE PTR [rcx+1], 0
	lea	rcx, QWORD PTR [rcx+1]
	jne	SHORT $LL394@ForInitAnd
	xor	edx, edx
	lea	r12, OFFSET FLAT:$SG11441
	npad	13
$LL395@ForInitAnd:
	movzx	eax, BYTE PTR [r12+rdx]
	mov	BYTE PTR [rcx+rdx], al
	lea	rdx, QWORD PTR [rdx+1]
	test	al, al
	jne	SHORT $LL395@ForInitAnd
	mov	r12, QWORD PTR buff$[rbp-256]
	lea	rcx, QWORD PTR codebuff$2[rsp]
	dec	rcx
	npad	1
$LL392@ForInitAnd:
	cmp	BYTE PTR [rcx+1], 0
	lea	rcx, QWORD PTR [rcx+1]
	jne	SHORT $LL392@ForInitAnd
	lea	r8, QWORD PTR init$[rbp-256]
	xor	edx, edx
	npad	13
$LL393@ForInitAnd:
	movzx	eax, BYTE PTR [r8+rdx]
	mov	BYTE PTR [rcx+rdx], al
	inc	rdx
	test	al, al
	jne	SHORT $LL393@ForInitAnd
	lea	rcx, QWORD PTR codebuff$2[rsp]
	call	AddLineQueue

; 1233 :         }
; 1234 :       }

	jmp	$skip$554
$LN23@ForInitAnd:

; 1029 :       param[a] = '\0';
; 1030 :       if ((buff[b] == '+') && (buff[b + 1] == '+')) strcpy(codebuff, " inc ");

	movzx	eax, BYTE PTR [rcx]
	mov	BYTE PTR param$[rbp+rdi-256], 0
	cmp	al, 43					; 0000002bH
	jne	SHORT $LN24@ForInitAnd
	cmp	dl, al
	jne	SHORT $LN24@ForInitAnd
	xor	ecx, ecx
	lea	rbx, OFFSET FLAT:__ImageBase
	npad	6
$LL128@ForInitAnd:
	movzx	eax, BYTE PTR $SG11487[rcx+rbx]
	mov	BYTE PTR codebuff$[rbp+rcx-256], al
	lea	rcx, QWORD PTR [rcx+1]
	test	al, al
	jne	SHORT $LL128@ForInitAnd
	jmp	SHORT $LN26@ForInitAnd
$LN24@ForInitAnd:

; 1031 :       else if ((buff[b] == '-') && (buff[b + 1] == '-')) strcpy(codebuff, " dec ");

	cmp	al, 45					; 0000002dH
	jne	SHORT $LN26@ForInitAnd
	cmp	dl, al
	jne	SHORT $LN26@ForInitAnd
	xor	ecx, ecx
	lea	rbx, OFFSET FLAT:__ImageBase
	npad	9
$LL129@ForInitAnd:
	movzx	eax, BYTE PTR $SG11489[rcx+rbx]
	mov	BYTE PTR codebuff$[rbp+rcx-256], al
	lea	rcx, QWORD PTR [rcx+1]
	test	al, al
	jne	SHORT $LL129@ForInitAnd
$LN26@ForInitAnd:

; 1032 :       strcat(codebuff, param);

	lea	rcx, QWORD PTR codebuff$[rbp-256]
	dec	rcx
	npad	5
$LL390@ForInitAnd:
	cmp	BYTE PTR [rcx+1], 0
	lea	rcx, QWORD PTR [rcx+1]
	jne	SHORT $LL390@ForInitAnd
	lea	r8, QWORD PTR param$[rbp-256]
	xor	edx, edx
	npad	13
$LL391@ForInitAnd:
	movzx	eax, BYTE PTR [r8+rdx]
	mov	BYTE PTR [rcx+rdx], al
	inc	rdx
	test	al, al
	jne	SHORT $LL391@ForInitAnd

; 1033 :       AddLineQueue(codebuff);

	lea	rcx, QWORD PTR codebuff$[rbp-256]
	call	AddLineQueue

; 1034 :       b += 3;

	add	r15d, 3
$skip$554:

; 1242 :         }
; 1243 :       }
; 1244 :     }
; 1245 :   skip:
; 1246 :     if (cnt) cnt--;

	test	esi, esi
	je	SHORT $LN530@ForInitAnd

; 1247 :   } while (cnt);

	mov	r9, 145272973819904			; 0000842000000000H
	sub	esi, 1
	jne	$LL4@ForInitAnd
$LN530@ForInitAnd:

; 1248 :   return(NOT_ERROR);

	xor	eax, eax

; 1249 : }

	mov	rbx, QWORD PTR [rsp+1144]
	add	rsp, 1056				; 00000420H
	pop	r15
	pop	r14
	pop	r13
	pop	r12
	pop	rdi
	pop	rsi
	pop	rbp
	ret	0
ForInitAndNext ENDP
_TEXT	ENDS
; Function compile flags: /Ogtpy
; File d:\hjwasm\hjwasm2.13.1s\hjwasm2.13.1s\hll.c
;	COMDAT WriteAsmLine
_TEXT	SEGMENT
codebuff$ = 32
cmd$ = 304
s1$ = 312
s2$ = 320
WriteAsmLine PROC					; COMDAT

; 995  : static void WriteAsmLine(const char *cmd, const char *s1, const char *s2) {

	sub	rsp, 296				; 00000128H

; 996  :   char codebuff[256];
; 997  :   strcpy(codebuff, cmd);

	lea	r9, QWORD PTR codebuff$[rsp]
	mov	r10, rdx
	sub	r9, rcx
	npad	14
$LL3@WriteAsmLi:
	movzx	eax, BYTE PTR [rcx]
	mov	BYTE PTR [r9+rcx], al
	lea	rcx, QWORD PTR [rcx+1]
	test	al, al
	jne	SHORT $LL3@WriteAsmLi

; 998  :   strcat(codebuff, s1);

	lea	rcx, QWORD PTR codebuff$[rsp]
	dec	rcx
	npad	9
$LL11@WriteAsmLi:
	cmp	BYTE PTR [rcx+1], 0
	lea	rcx, QWORD PTR [rcx+1]
	jne	SHORT $LL11@WriteAsmLi
	xor	edx, edx
	npad	4
$LL12@WriteAsmLi:
	movzx	eax, BYTE PTR [r10+rdx]
	mov	BYTE PTR [rcx+rdx], al
	lea	rdx, QWORD PTR [rdx+1]
	test	al, al
	jne	SHORT $LL12@WriteAsmLi

; 999  :   strcat(codebuff, ", ");

	lea	rcx, QWORD PTR codebuff$[rsp]
	dec	rcx
	npad	8
$LL9@WriteAsmLi:
	cmp	BYTE PTR [rcx+1], 0
	lea	rcx, QWORD PTR [rcx+1]
	jne	SHORT $LL9@WriteAsmLi
	lea	r9, OFFSET FLAT:$SG11441
	xor	edx, edx
	npad	13
$LL10@WriteAsmLi:
	movzx	eax, BYTE PTR [r9+rdx]
	mov	BYTE PTR [rcx+rdx], al
	lea	rdx, QWORD PTR [rdx+1]
	test	al, al
	jne	SHORT $LL10@WriteAsmLi

; 1000 :   strcat(codebuff, s2);

	lea	rcx, QWORD PTR codebuff$[rsp]
	dec	rcx
	npad	8
$LL7@WriteAsmLi:
	cmp	BYTE PTR [rcx+1], 0
	lea	rcx, QWORD PTR [rcx+1]
	jne	SHORT $LL7@WriteAsmLi
	xor	edx, edx
	npad	4
$LL8@WriteAsmLi:
	movzx	eax, BYTE PTR [r8+rdx]
	mov	BYTE PTR [rcx+rdx], al
	lea	rdx, QWORD PTR [rdx+1]
	test	al, al
	jne	SHORT $LL8@WriteAsmLi

; 1001 :   AddLineQueue(codebuff);				// MOV RAX,param

	lea	rcx, QWORD PTR codebuff$[rsp]
	call	AddLineQueue

; 1002 :   return;
; 1003 : }

	add	rsp, 296				; 00000128H
	ret	0
WriteAsmLine ENDP
_TEXT	ENDS
; Function compile flags: /Ogtpy
; File d:\hjwasm\hjwasm2.13.1s\hjwasm2.13.1s\hll.c
;	COMDAT CheckCXZLines
_TEXT	SEGMENT
p$ = 48
CheckCXZLines PROC					; COMDAT

; 938  : {

	mov	QWORD PTR [rsp+8], rbx
	mov	QWORD PTR [rsp+16], rsi
	push	rdi
	sub	rsp, 32					; 00000020H

; 939  :   int lines = 0;
; 940  :   int i;
; 941  :   int addchars;
; 942  :   char *px;
; 943  :   bool NL = TRUE;
; 944  : 
; 945  :   DebugMsg1(("CheckCXZLines enter, p=>%s<\n", p));
; 946  :   /* syntax ".untilcxz 1" has a problem: there's no "jmp" generated at all.
; 947  :   * if this syntax is to be supported, activate the #if below.
; 948  :   */
; 949  :   for (; *p; p++) {

	movzx	eax, BYTE PTR [rcx]
	xor	edi, edi
	mov	rbx, rcx
	mov	sil, 1
	test	al, al
	je	$LN17@CheckCXZLi
$LL4@CheckCXZLi:

; 950  :     if (*p == EOLCHAR) {

	cmp	al, 10
	jne	SHORT $LN8@CheckCXZLi

; 951  :       NL = TRUE;

	mov	sil, 1

; 952  :       lines++;

	inc	edi

; 953  :     }

	jmp	$LN2@CheckCXZLi
$LN8@CheckCXZLi:

; 954  :     else if (NL) {

	test	sil, sil
	je	$LN2@CheckCXZLi

; 955  :       NL = FALSE;

	xor	sil, sil

; 956  :       if (*p == 'j') {

	cmp	al, 106					; 0000006aH
	jne	$LN2@CheckCXZLi

; 957  :         p++;
; 958  :         /* v2.06: rewritten */
; 959  :         if (*p == 'm' && lines == 0) {

	movzx	eax, BYTE PTR [rbx+1]
	cmp	al, 109					; 0000006dH
	jne	SHORT $LN12@CheckCXZLi
	test	edi, edi
	jne	SHORT $LN12@CheckCXZLi

; 960  :           addchars = 2; /* make room for 2 chars, to replace "jmp" by "loope" */

	lea	r8d, QWORD PTR [rdi+2]

; 961  :           px = "loope";

	lea	r9, OFFSET FLAT:$SG11414

; 962  :         }

	jmp	SHORT $LN15@CheckCXZLi
$LN12@CheckCXZLi:

; 963  :         else if (lines == 1 && (*p == 'z' || (*p == 'n' && *(p + 1) == 'z'))) {

	cmp	edi, 1
	jne	$LN14@CheckCXZLi
	cmp	al, 122					; 0000007aH
	je	SHORT $LN16@CheckCXZLi
	cmp	al, 110					; 0000006eH
	jne	$LN14@CheckCXZLi
	cmp	BYTE PTR [rbx+2], 122			; 0000007aH
	jne	$LN14@CheckCXZLi
$LN16@CheckCXZLi:

; 964  :           addchars = 3; /* make room for 3 chars, to replace "jz"/"jnz" by "loopz"/"loopnz" */

	mov	r8d, 3

; 965  :           px = "loop";

	lea	r9, OFFSET FLAT:$SG11418
$LN15@CheckCXZLi:

; 966  :         }
; 967  :         else
; 968  :           return(ERROR); /* anything else is "too complex" */
; 969  :                          //replace_instr:
; 970  :         for (p--, i = strlen(p); i >= 0; i--) {

	or	rax, -1
	npad	3
$LL29@CheckCXZLi:
	inc	rax
	cmp	BYTE PTR [rbx+rax], 0
