; Listing generated by Microsoft (R) Optimizing Compiler Version 19.00.23026.0 

include listing.inc

INCLUDELIB LIBCMT
INCLUDELIB OLDNAMES

_BSS	SEGMENT
$SG11687 DB	01H DUP (?)
	ALIGN	4

$SG11695 DB	01H DUP (?)
	ALIGN	4

$SG11698 DB	02H DUP (?)
	ALIGN	4

$SG11703 DB	01H DUP (?)
_BSS	ENDS
_DATA	SEGMENT
COMM	decoflags:BYTE
COMM	broadflags:BYTE
COMM	evex:BYTE
COMM	ZEROLOCALS:BYTE
_DATA	ENDS
_DATA	SEGMENT
$SG11283 DB	0aH, 00H
	ORG $+2
$SG11286 DB	':', 0aH, 00H
	ORG $+1
$SG11316 DB	0aH, 00H
	ORG $+2
$SG11320 DB	'%s:', 0aH, 00H
	ORG $+3
$SG11321 DB	'%s:', 0aH, 00H
	ORG $+3
$SG11325 DB	':', 0aH, 00H
	ORG $+1
$SG11374 DB	'loope', 00H
	ORG $+2
$SG11378 DB	'loop', 00H
	ORG $+3
$SG11381 DB	'ax', 00H
	ORG $+1
$SG11382 DB	'eax', 00H
$SG11383 DB	'rax', 00H
$SG11385 DB	'dx', 00H
	ORG $+1
$SG11386 DB	'edx', 00H
$SG11387 DB	'rdx', 00H
$SG11389 DB	'cx', 00H
	ORG $+1
$SG11390 DB	'ecx', 00H
$SG11391 DB	'rcx', 00H
$SG11401 DB	', ', 00H
	ORG $+1
$SG11439 DB	'=!<>&|-+*^%/', 00H
	ORG $+3
$SG11447 DB	' inc ', 00H
	ORG $+2
$SG11449 DB	' dec ', 00H
	ORG $+2
$SG11467 DB	' mov  ', 00H
	ORG $+1
$SG11470 DB	' cdq ', 00H
	ORG $+2
$SG11473 DB	' mov  ', 00H
	ORG $+1
$SG11477 DB	' idiv ', 00H
	ORG $+1
$SG11478 DB	' imul ', 00H
	ORG $+1
$SG11482 DB	' idiv ', 00H
	ORG $+1
$SG11483 DB	' imul ', 00H
	ORG $+1
$SG11485 DB	' mov  ', 00H
	ORG $+1
$SG11486 DB	' mov  ', 00H
	ORG $+1
$SG11490 DB	' cdq ', 00H
	ORG $+2
$SG11491 DB	' idiv ', 00H
	ORG $+1
$SG11492 DB	' imul ', 00H
	ORG $+1
$SG11495 DB	' mov  ', 00H
	ORG $+1
$SG11496 DB	' mov  ', 00H
	ORG $+1
$SG11502 DB	' cdq ', 00H
	ORG $+2
$SG11503 DB	' idiv ', 00H
	ORG $+1
$SG11504 DB	' imul ', 00H
	ORG $+1
$SG11506 DB	' mov  ', 00H
	ORG $+1
$SG11512 DB	' cdq ', 00H
	ORG $+2
$SG11513 DB	' idiv ', 00H
	ORG $+1
$SG11514 DB	' imul ', 00H
	ORG $+1
$SG11516 DB	' mov  ', 00H
	ORG $+1
$SG11519 DB	' mov  ', 00H
	ORG $+1
$SG11523 DB	' cdq ', 00H
	ORG $+2
$SG11524 DB	' idiv ', 00H
	ORG $+1
$SG11525 DB	' imul ', 00H
	ORG $+1
$SG11527 DB	' mov  ', 00H
	ORG $+1
$SG11530 DB	' sub ', 00H
	ORG $+2
$SG11533 DB	' add ', 00H
	ORG $+2
$SG11536 DB	' and ', 00H
	ORG $+2
$SG11539 DB	' or ', 00H
	ORG $+3
$SG11542 DB	' xor ', 00H
	ORG $+2
$SG11545 DB	' shl ', 00H
	ORG $+2
$SG11547 DB	' shr ', 00H
	ORG $+2
$SG11554 DB	' xor  ', 00H
	ORG $+1
$SG11561 DB	'BYTE PTR', 00H
	ORG $+3
$SG11562 DB	'BPTR', 00H
	ORG $+3
$SG11563 DB	'WPTR', 00H
	ORG $+3
$SG11569 DB	' lea  ', 00H
	ORG $+1
$SG11663 DB	'eax', 00H
$SG11564 DB	'WORD PTR', 00H
	ORG $+3
$SG11570 DB	' mov  ', 00H
	ORG $+1
$SG11667 DB	'rax', 00H
$SG11565 DB	' movzx  ', 00H
	ORG $+3
$SG11568 DB	'ADDR', 00H
	ORG $+3
$SG11576 DB	'OFFSET', 00H
	ORG $+1
$SG11577 DB	' lea  ', 00H
	ORG $+1
$SG11578 DB	' mov  ', 00H
	ORG $+1
$SG11669 DB	'eax', 00H
$SG11585 DB	'DWORD PTR', 00H
	ORG $+2
$SG11586 DB	'DPTR', 00H
	ORG $+3
$SG11589 DB	' mov  ', 00H
	ORG $+1
$SG11704 DB	'%s:', 00H
$SG11588 DB	' movsxd  ', 00H
	ORG $+2
$SG11596 DB	' mov  ', 00H
	ORG $+1
$SG11712 DB	'jmp', 00H
$SG11595 DB	' invoke  ', 00H
	ORG $+2
$SG11599 DB	' mov  ', 00H
	ORG $+1
$SG11714 DB	'%s:', 00H
$SG11602 DB	' mov  byte ptr ', 00H
$SG11603 DB	' mov  ', 00H
	ORG $+1
$SG11664 DB	' mov eax, %s', 00H
	ORG $+3
$SG11670 DB	' mov rax, %s', 00H
	ORG $+3
$SG11671 DB	'jmp %s', 00H
	ORG $+1
$SG11679 DB	'(::)', 00H
	ORG $+3
$SG11694 DB	' jmp %s', 00H
$SG11697 DB	'.for ', 00H
	ORG $+2
$SG11699 DB	'.for', 00H, 00H
	ORG $+2
$SG11713 DB	'jmp %s', 00H
	ORG $+1
$SG11766 DB	'%s:', 00H
$SG11769 DB	'%s:', 00H
$SG11790 DB	'cmp  eax,%d', 00H
$SG11791 DB	'je  %s', 00H
	ORG $+1
$SG11792 DB	'jmp %s', 00H
	ORG $+1
$SG11886 DB	'%s:', 00H
$SG11793 DB	'mov rcx, %q', 00H
$SG11892 DB	'cdq', 00H
$SG11794 DB	'cmp rax, rcx', 00H
	ORG $+3
$SG11795 DB	'je  %s', 00H
	ORG $+1
$SG11796 DB	'jmp %s', 00H
	ORG $+1
$SG11802 DB	'cmp  eax,%d', 00H
$SG11803 DB	'je  %s', 00H
	ORG $+1
$SG11903 DB	'cdq', 00H
$SG11804 DB	'cmp  eax,%d', 00H
$SG11805 DB	'je  %s', 00H
	ORG $+1
$SG11806 DB	'jmp %s', 00H
	ORG $+1
$SG11913 DB	'cdq', 00H
$SG11807 DB	'mov rcx, %q', 00H
$SG11922 DB	'%s:', 00H
$SG11808 DB	'cmp rax, rcx', 00H
	ORG $+3
$SG11809 DB	'je  %s', 00H
	ORG $+1
$SG11810 DB	'mov rcx, %q', 00H
$SG11934 DB	'%s:', 00H
$SG11811 DB	'cmp rax, rcx', 00H
	ORG $+3
$SG11812 DB	'je  %s', 00H
	ORG $+1
$SG11813 DB	'jmp %s', 00H
	ORG $+1
$SG11819 DB	'cmp  eax,%d', 00H
$SG11820 DB	'je  %s', 00H
	ORG $+1
$SG11944 DB	'%s:', 00H
$SG11821 DB	'cmp  eax,%d', 00H
$SG11822 DB	'je  %s', 00H
	ORG $+1
$SG11961 DB	'%s:', 00H
$SG11823 DB	'cmp  eax,%d', 00H
$SG11824 DB	'je  %s', 00H
	ORG $+1
$SG11825 DB	'jmp %s', 00H
	ORG $+1
$SG11969 DB	'%s:', 00H
$SG11826 DB	'mov rcx, %q', 00H
$SG11987 DB	'%s:', 00H
$SG11827 DB	'cmp rax, rcx', 00H
	ORG $+3
$SG11828 DB	'je  %s', 00H
	ORG $+1
$SG11829 DB	'mov rcx, %q', 00H
$SG11993 DB	'%s:', 00H
$SG11830 DB	'cmp rax, rcx', 00H
	ORG $+3
$SG11831 DB	'je  %s', 00H
	ORG $+1
$SG11832 DB	'mov rcx, %q', 00H
$SG11995 DB	'%s:', 00H
$SG11833 DB	'cmp rax, rcx', 00H
	ORG $+3
$SG11834 DB	'je  %s', 00H
	ORG $+1
$SG11835 DB	'jmp %s', 00H
	ORG $+1
$SG11840 DB	'cmp eax,%d', 00H
	ORG $+1
$SG11841 DB	'ja  %s', 00H
	ORG $+1
$SG12002 DB	'%s:', 00H
$SG11842 DB	'sub eax,%d', 00H
	ORG $+1
$SG11843 DB	'jc  %s', 00H
	ORG $+1
$SG12006 DB	'%s:', 00H
$SG11844 DB	'mov rcx, %q', 00H
$SG12016 DB	'%s:', 00H
$SG11845 DB	'cmp rax, rcx', 00H
	ORG $+3
$SG11846 DB	'ja  %s', 00H
	ORG $+1
$SG11847 DB	'mov rcx, %q', 00H
$SG12020 DB	'%s:', 00H
$SG11848 DB	'sub rax, rcx', 00H
	ORG $+3
$SG11849 DB	'jc  %s', 00H
	ORG $+1
$SG11852 DB	'lea  edx,%s', 00H
$SG12067 DB	'%s:', 00H
$SG11853 DB	'movzx  eax,BYTE PTR[edx+eax]', 00H
	ORG $+3
$SG11854 DB	'lea  edx,%s', 00H
$SG12070 DB	'%s:', 00H
$SG11855 DB	'jmp  dword ptr[edx+eax*4]', 00H
	ORG $+2
$SG11896 DB	'je  %s', 00H
	ORG $+1
$SG12100 DB	'%s:', 00H
$SG11856 DB	'lea  rdx,%s', 00H
$SG11200 DB	'cmp', 00H
$SG11857 DB	'movzx  rax,byte ptr[rdx+rax]', 00H
	ORG $+3
$SG11858 DB	'lea  rdx,%s', 00H
$SG11218 DB	'or', 00H
	ORG $+1
$SG11859 DB	'jmp  qword ptr[rdx+rax*8]', 00H
	ORG $+2
$SG11897 DB	'jge %s', 00H
	ORG $+1
$SG11219 DB	'cmp', 00H
$SG11863 DB	'push', 09H, 'ebx', 00H
	ORG $+3
$SG11899 DB	'jmp %s', 00H
	ORG $+5
$SG11864 DB	'push', 09H, 'esi', 00H
	ORG $+7
$SG11865 DB	'push', 09H, 'edi', 00H
	ORG $+7
$SG11866 DB	'mov     esi,eax', 00H
$SG11867 DB	'mov     ebx,%d', 00H
	ORG $+1
$SG11868 DB	'xor     ecx,ecx', 00H
$SG11869 DB	'lea     edi,%s', 00H
	ORG $+1
$SG11870 DB	'test    ebx,ebx', 00H
$SG11871 DB	'js      %s', 00H
	ORG $+5
$SG11874 DB	'mov     r8d,eax', 00H
$SG11875 DB	'mov     r10d,%d', 00H
$SG11876 DB	'xor     r9d,r9d', 00H
$SG11877 DB	'lea     r11,%s', 00H
	ORG $+1
$SG11878 DB	'test    r10d,r10d', 00H
	ORG $+6
$SG11879 DB	'js      %s', 00H
	ORG $+5
$SG11880 DB	'mov     r8,rax', 00H
	ORG $+1
$SG11881 DB	'mov     r10d,%d', 00H
$SG11882 DB	'xor     r9d,r9d', 00H
$SG11883 DB	'lea     r11,%s', 00H
	ORG $+1
$SG11884 DB	'test    r10,r10', 00H
$SG11885 DB	'js      %s', 00H
	ORG $+5
$SG11891 DB	'lea     eax,[ecx + ebx]', 00H
$SG11893 DB	'sub     eax,edx', 00H
$SG11894 DB	'sar     eax,1', 00H
	ORG $+2
$SG11895 DB	'cmp     [edi+eax*4],esi', 00H
$SG11898 DB	'lea     ecx,[eax+1]', 00H
	ORG $+4
$SG11902 DB	'lea     eax,[r10+r9]', 00H
	ORG $+3
$SG11904 DB	'sub     eax,edx', 00H
$SG11905 DB	'sar     eax,1', 00H
	ORG $+2
$SG11906 DB	'movsxd  rcx,eax', 00H
$SG11907 DB	'cmp     [r11+rcx*4],r8d', 00H
$SG11908 DB	'je  %s', 00H
	ORG $+1
$SG11909 DB	'jge %s', 00H
	ORG $+1
$SG11910 DB	'lea     r9d,[rax+1]', 00H
$SG11911 DB	'jmp %s', 00H
	ORG $+5
$SG11912 DB	'lea     rax,[r10+r9]', 00H
	ORG $+3
$SG11914 DB	'sub     rax,rdx', 00H
$SG11915 DB	'sar     rax,1', 00H
	ORG $+2
$SG11916 DB	'mov     rcx,rax', 00H
$SG11917 DB	'cmp     [r11+rcx*8],r8', 00H
	ORG $+1
$SG11918 DB	'je  %s', 00H
	ORG $+1
$SG11919 DB	'jge %s', 00H
	ORG $+1
$SG11920 DB	'lea     r9,[rax+1]', 00H
	ORG $+1
$SG11921 DB	'jmp %s', 00H
	ORG $+5
$SG11927 DB	'lea edx,%s', 00H
	ORG $+5
$SG11928 DB	'pop', 09H, 'edi', 00H
$SG11929 DB	'pop', 09H, 'esi', 00H
$SG11930 DB	'pop', 09H, 'ebx', 00H
$SG11931 DB	'jmp dword ptr[edx+eax*4]', 00H
	ORG $+7
$SG11932 DB	'lea     r11,%s', 00H
	ORG $+1
$SG11933 DB	'jmp     qword ptr[r11+rcx*8]', 00H
	ORG $+3
$SG11939 DB	'lea     ebx,[eax-1]', 00H
	ORG $+4
$SG11942 DB	'lea     r10d,[rax-1]', 00H
	ORG $+3
$SG11943 DB	'lea     r10,[rax-1]', 00H
	ORG $+4
$SG11949 DB	'cmp  ecx,ebx', 00H
	ORG $+3
$SG11950 DB	'jle %s', 00H
	ORG $+1
$SG11951 DB	'pop', 09H, 'edi', 00H
$SG11952 DB	'pop', 09H, 'esi', 00H
$SG11953 DB	'pop', 09H, 'ebx', 00H
$SG11954 DB	'jmp  %s', 00H
$SG11957 DB	'cmp  r9d,r10d', 00H
	ORG $+2
$SG11958 DB	'cmp  r9,r10', 00H
$SG11959 DB	'jle %s', 00H
	ORG $+5
$SG11960 DB	'jmp  %s', 00H
$SG11965 DB	' dd %s', 00H
	ORG $+1
$SG11966 DB	' dd %s', 00H
	ORG $+1
$SG11967 DB	' dq %s', 00H
	ORG $+1
$SG11968 DB	' dq %s', 00H
	ORG $+1
$SG11973 DB	' db %d', 00H
	ORG $+1
$SG11974 DB	' db %d', 00H
	ORG $+1
$SG11975 DB	' db %d', 00H
	ORG $+1
$SG11976 DB	' db %d', 00H
	ORG $+1
$SG11980 DB	' dd %d', 00H
	ORG $+1
$SG11981 DB	' dq %q', 00H
	ORG $+1
$SG11996 DB	' jmp %s', 00H
$SG11998 DB	' jmp %s', 00H
$SG12012 DB	'loop %s', 00H
$SG11004 DB	'ZERO', 00H
	ORG $+3
$SG11007 DB	'CARRY', 00H
	ORG $+2
$SG11010 DB	'SIGN', 00H
	ORG $+3
$SG11013 DB	'PARITY', 00H
	ORG $+1
$SG11016 DB	'OVERFLOW', 00H
	ORG $+3
$SG11019 DB	'LESS', 00H
	ORG $+7
$SG11022 DB	'GREATER', 00H
$SG11025 DB	'ABOVE', 00H
	ORG $+2
$SG11028 DB	'EQUAL', 00H
	ORG $+2
$SG11031 DB	'BELOW', 00H
	ORG $+2
$SG12098 DB	'jmp %s', 00H
	ORG $+1
$SG12117 DB	'jmp %s', 00H
	ORG $+1
$SG11094 DB	', %d', 00H
	ORG $+3
$SG12124 DB	'.if-.repeat-.while', 00H
	ORG $+1
$SG11101 DB	'@C%04X', 00H
	ORG $+1
$SG11198 DB	'test', 00H
	ORG $+7
$SG11207 DB	'jmp @C%04X', 0aH, 00H
$SG11212 DB	'test', 00H
	ORG $+3
$SG11225 DB	'jmp ', 00H
_DATA	ENDS
PUBLIC	__local_stdio_printf_options
PUBLIC	sprintf
PUBLIC	HllInit
PUBLIC	HllCheckOpen
PUBLIC	HllStartDir
PUBLIC	HllEndDir
PUBLIC	HllExitDir
EXTRN	tolower:PROC
EXTRN	strchr:PROC
EXTRN	strstr:PROC
EXTRN	_memicmp:PROC
EXTRN	_stricmp:PROC
EXTRN	__stdio_common_vsprintf:PROC
EXTRN	realloc:PROC
EXTRN	Fatal:PROC
EXTRN	EmitError:PROC
EXTRN	EmitErr:PROC
EXTRN	LclAlloc:PROC
EXTRN	EvalOperand:PROC
EXTRN	EmitConstError:PROC
EXTRN	GetCurrOffset:PROC
EXTRN	LstWrite:PROC
EXTRN	AddLineQueue:PROC
EXTRN	AddLineQueueX:PROC
EXTRN	RunLineQueue:PROC
EXTRN	Tokenize:PROC
EXTRN	myatoi128:PROC
EXTRN	atofloat:PROC
EXTRN	__chkstk:PROC
EXTRN	memcpy:PROC
EXTRN	Options:BYTE
EXTRN	ModuleInfo:BYTE
EXTRN	Parse_Pass:DWORD
EXTRN	__ImageBase:BYTE
_DATA	SEGMENT
COMM	?_OptionsStorage@?1??__local_stdio_printf_options@@9@9:QWORD							; `__local_stdio_printf_options'::`2'::_OptionsStorage
_DATA	ENDS
;	COMDAT pdata
pdata	SEGMENT
$pdata$_vsnprintf_l DD imagerel $LN4
	DD	imagerel $LN4+102
	DD	imagerel $unwind$_vsnprintf_l
pdata	ENDS
;	COMDAT pdata
pdata	SEGMENT
$pdata$_vsprintf_l DD imagerel $LN6
	DD	imagerel $LN6+98
	DD	imagerel $unwind$_vsprintf_l
pdata	ENDS
;	COMDAT pdata
pdata	SEGMENT
$pdata$sprintf DD imagerel $LN8
	DD	imagerel $LN8+90
	DD	imagerel $unwind$sprintf
pdata	ENDS
;	COMDAT pdata
pdata	SEGMENT
$pdata$GetExpression DD imagerel GetExpression
	DD	imagerel GetExpression+769
	DD	imagerel $unwind$GetExpression
pdata	ENDS
;	COMDAT pdata
pdata	SEGMENT
$pdata$GetCOp DD imagerel GetCOp
	DD	imagerel GetCOp+658
	DD	imagerel $unwind$GetCOp
pdata	ENDS
;	COMDAT pdata
pdata	SEGMENT
$pdata$bubblesort DD imagerel bubblesort
	DD	imagerel bubblesort+29
	DD	imagerel $unwind$bubblesort
pdata	ENDS
;	COMDAT pdata
pdata	SEGMENT
$pdata$1$bubblesort DD imagerel bubblesort+29
	DD	imagerel bubblesort+137
	DD	imagerel $chain$1$bubblesort
pdata	ENDS
;	COMDAT pdata
pdata	SEGMENT
$pdata$2$bubblesort DD imagerel bubblesort+137
	DD	imagerel bubblesort+169
	DD	imagerel $chain$2$bubblesort
pdata	ENDS
;	COMDAT pdata
pdata	SEGMENT
$pdata$bubblesort64 DD imagerel bubblesort64
	DD	imagerel bubblesort64+29
	DD	imagerel $unwind$bubblesort64
pdata	ENDS
;	COMDAT pdata
pdata	SEGMENT
$pdata$1$bubblesort64 DD imagerel bubblesort64+29
	DD	imagerel bubblesort64+140
	DD	imagerel $chain$1$bubblesort64
pdata	ENDS
;	COMDAT pdata
pdata	SEGMENT
$pdata$2$bubblesort64 DD imagerel bubblesort64+140
	DD	imagerel bubblesort64+185
	DD	imagerel $chain$2$bubblesort64
pdata	ENDS
;	COMDAT pdata
pdata	SEGMENT
$pdata$RenderInstr DD imagerel RenderInstr
	DD	imagerel RenderInstr+240
	DD	imagerel $unwind$RenderInstr
pdata	ENDS
;	COMDAT pdata
pdata	SEGMENT
$pdata$GetLabelStr DD imagerel GetLabelStr
	DD	imagerel GetLabelStr+36
	DD	imagerel $unwind$GetLabelStr
pdata	ENDS
;	COMDAT pdata
pdata	SEGMENT
$pdata$RenderJcc DD imagerel RenderJcc
	DD	imagerel RenderJcc+96
	DD	imagerel $unwind$RenderJcc
pdata	ENDS
;	COMDAT pdata
pdata	SEGMENT
$pdata$GetToken DD imagerel GetToken
	DD	imagerel GetToken+38
	DD	imagerel $unwind$GetToken
pdata	ENDS
;	COMDAT pdata
pdata	SEGMENT
$pdata$2$GetToken DD imagerel GetToken+38
	DD	imagerel GetToken+520
	DD	imagerel $chain$2$GetToken
pdata	ENDS
;	COMDAT pdata
pdata	SEGMENT
$pdata$3$GetToken DD imagerel GetToken+520
	DD	imagerel GetToken+622
	DD	imagerel $chain$3$GetToken
pdata	ENDS
;	COMDAT pdata
pdata	SEGMENT
$pdata$GetSimpleExpression DD imagerel GetSimpleExpression
	DD	imagerel GetSimpleExpression+1376
	DD	imagerel $unwind$GetSimpleExpression
pdata	ENDS
;	COMDAT pdata
pdata	SEGMENT
$pdata$ReplaceLabel DD imagerel ReplaceLabel
	DD	imagerel ReplaceLabel+161
	DD	imagerel $unwind$ReplaceLabel
pdata	ENDS
;	COMDAT pdata
pdata	SEGMENT
$pdata$GetAndExpression DD imagerel GetAndExpression
	DD	imagerel GetAndExpression+564
	DD	imagerel $unwind$GetAndExpression
pdata	ENDS
;	COMDAT pdata
pdata	SEGMENT
$pdata$QueueTestLines DD imagerel QueueTestLines
	DD	imagerel QueueTestLines+14
	DD	imagerel $unwind$QueueTestLines
pdata	ENDS
;	COMDAT pdata
pdata	SEGMENT
$pdata$0$QueueTestLines DD imagerel QueueTestLines+14
	DD	imagerel QueueTestLines+85
	DD	imagerel $chain$0$QueueTestLines
pdata	ENDS
;	COMDAT pdata
pdata	SEGMENT
$pdata$1$QueueTestLines DD imagerel QueueTestLines+85
	DD	imagerel QueueTestLines+93
	DD	imagerel $chain$1$QueueTestLines
pdata	ENDS
;	COMDAT pdata
pdata	SEGMENT
$pdata$EvaluateHllExpression DD imagerel EvaluateHllExpression
	DD	imagerel EvaluateHllExpression+138
	DD	imagerel $unwind$EvaluateHllExpression
pdata	ENDS
;	COMDAT pdata
pdata	SEGMENT
$pdata$CheckCXZLines DD imagerel CheckCXZLines
	DD	imagerel CheckCXZLines+274
	DD	imagerel $unwind$CheckCXZLines
pdata	ENDS
;	COMDAT pdata
pdata	SEGMENT
$pdata$WriteAsmLine DD imagerel WriteAsmLine
	DD	imagerel WriteAsmLine+226
	DD	imagerel $unwind$WriteAsmLine
pdata	ENDS
;	COMDAT pdata
pdata	SEGMENT
$pdata$ForInitAndNext DD imagerel ForInitAndNext
	DD	imagerel ForInitAndNext+8208
	DD	imagerel $unwind$ForInitAndNext
pdata	ENDS
pdata	SEGMENT
$pdata$HllStartDir DD imagerel $LN279
	DD	imagerel $LN279+28
	DD	imagerel $unwind$HllStartDir
$pdata$4$HllStartDir DD imagerel $LN279+28
	DD	imagerel $LN279+582
	DD	imagerel $chain$4$HllStartDir
$pdata$5$HllStartDir DD imagerel $LN279+582
	DD	imagerel $LN279+760
	DD	imagerel $chain$5$HllStartDir
$pdata$6$HllStartDir DD imagerel $LN279+760
	DD	imagerel $LN279+2743
	DD	imagerel $chain$6$HllStartDir
$pdata$7$HllStartDir DD imagerel $LN279+2743
	DD	imagerel $LN279+2784
	DD	imagerel $chain$7$HllStartDir
$pdata$8$HllStartDir DD imagerel $LN279+2784
	DD	imagerel $LN279+2831
	DD	imagerel $chain$8$HllStartDir
$pdata$9$HllStartDir DD imagerel $LN279+2831
	DD	imagerel $LN279+2879
	DD	imagerel $chain$9$HllStartDir
$pdata$HllEndDir DD imagerel $LN355
	DD	imagerel $LN355+107
	DD	imagerel $unwind$HllEndDir
$pdata$0$HllEndDir DD imagerel $LN355+107
	DD	imagerel $LN355+3939
	DD	imagerel $chain$0$HllEndDir
$pdata$3$HllEndDir DD imagerel $LN355+3939
	DD	imagerel $LN355+4187
	DD	imagerel $chain$3$HllEndDir
$pdata$4$HllEndDir DD imagerel $LN355+4187
	DD	imagerel $LN355+5476
	DD	imagerel $chain$4$HllEndDir
$pdata$5$HllEndDir DD imagerel $LN355+5476
	DD	imagerel $LN355+5512
	DD	imagerel $chain$5$HllEndDir
$pdata$HllExitDir DD imagerel $LN137
	DD	imagerel $LN137+87
	DD	imagerel $unwind$HllExitDir
$pdata$0$HllExitDir DD imagerel $LN137+87
	DD	imagerel $LN137+1385
	DD	imagerel $chain$0$HllExitDir
$pdata$1$HllExitDir DD imagerel $LN137+1385
	DD	imagerel $LN137+1489
	DD	imagerel $chain$1$HllExitDir
$pdata$3$HllExitDir DD imagerel $LN137+1489
	DD	imagerel $LN137+1523
	DD	imagerel $chain$3$HllExitDir
$pdata$4$HllExitDir DD imagerel $LN137+1523
	DD	imagerel $LN137+1592
	DD	imagerel $chain$4$HllExitDir
$pdata$5$HllExitDir DD imagerel $LN137+1592
	DD	imagerel $LN137+1606
	DD	imagerel $chain$5$HllExitDir
$pdata$6$HllExitDir DD imagerel $LN137+1606
	DD	imagerel $LN137+1764
	DD	imagerel $chain$6$HllExitDir
$pdata$7$HllExitDir DD imagerel $LN137+1764
	DD	imagerel $LN137+1812
	DD	imagerel $chain$7$HllExitDir
pdata	ENDS
_DATA	SEGMENT
	ORG $+7
reax	DQ	FLAT:$SG11381
	DQ	FLAT:$SG11382
	DQ	FLAT:$SG11383
redx	DQ	FLAT:$SG11385
	DQ	FLAT:$SG11386
	DQ	FLAT:$SG11387
recx	DQ	FLAT:$SG11389
	DQ	FLAT:$SG11390
	DQ	FLAT:$SG11391
_DATA	ENDS
CONST	SEGMENT
flaginstr DB	07aH
	DB	063H
	DB	073H
	DB	070H
	DB	06fH
	DB	06cH
	DB	067H
	DB	061H
	DB	065H
	DB	062H
	ORG $+2
unsigned_cjmptype DB 07aH
	DB	07aH
	DB	061H
	DB	062H
	DB	062H
	DB	061H
	ORG $+2
signed_cjmptype DB 07aH
	DB	07aH
	DB	067H
	DB	06cH
	DB	06cH
	DB	067H
	ORG $+2
neg_cjmptype DB	00H
	DB	01H
	DB	00H
	DB	00H
	DB	01H
	DB	01H
CONST	ENDS
xdata	SEGMENT
$unwind$HllStartDir DD 041c01H
	DD	038f011cH
	DD	05005c007H
$chain$4$HllStartDir DD 0a5d21H
	DD	0394645dH
	DD	038cf433H
	DD	038ed428H
	DD	03957410H
	DD	03933408H
	DD	imagerel $LN279
	DD	imagerel $LN279+28
	DD	imagerel $unwind$HllStartDir
$chain$5$HllStartDir DD 020821H
	DD	038de408H
	DD	imagerel $LN279+28
	DD	imagerel $LN279+582
	DD	imagerel $chain$4$HllStartDir
$chain$6$HllStartDir DD 021H
	DD	imagerel $LN279+28
	DD	imagerel $LN279+582
	DD	imagerel $chain$4$HllStartDir
$chain$7$HllStartDir DD 040021H
	DD	038cf400H
	DD	03957400H
	DD	imagerel $LN279
	DD	imagerel $LN279+28
	DD	imagerel $unwind$HllStartDir
$chain$8$HllStartDir DD 020021H
	DD	03957400H
	DD	imagerel $LN279
	DD	imagerel $LN279+28
	DD	imagerel $unwind$HllStartDir
$chain$9$HllStartDir DD 021H
	DD	imagerel $LN279
	DD	imagerel $LN279+28
	DD	imagerel $unwind$HllStartDir
$unwind$HllEndDir DD 061d01H
	DD	010f011dH
	DD	0700cf00eH
	DD	0500a300bH
$chain$0$HllEndDir DD 020821H
	DD	01166408H
	DD	imagerel $LN355
	DD	imagerel $LN355+107
	DD	imagerel $unwind$HllEndDir
$chain$3$HllEndDir DD 061b21H
	DD	010ce41bH
	DD	010dd413H
	DD	010ec408H
	DD	imagerel $LN355+107
	DD	imagerel $LN355+3939
	DD	imagerel $chain$0$HllEndDir
$chain$4$HllEndDir DD 021H
	DD	imagerel $LN355+107
	DD	imagerel $LN355+3939
	DD	imagerel $chain$0$HllEndDir
$chain$5$HllEndDir DD 021H
	DD	imagerel $LN355
	DD	imagerel $LN355+107
	DD	imagerel $unwind$HllEndDir
$unwind$HllExitDir DD 071a01H
	DD	09c011aH
	DD	0e009f00bH
	DD	030067007H
	DD	05005H
$chain$0$HllExitDir DD 020821H
	DD	0a5d408H
	DD	imagerel $LN137
	DD	imagerel $LN137+87
	DD	imagerel $unwind$HllExitDir
$chain$1$HllExitDir DD 020821H
	DD	0a4c408H
	DD	imagerel $LN137+87
	DD	imagerel $LN137+1385
	DD	imagerel $chain$0$HllExitDir
$chain$3$HllExitDir DD 020021H
	DD	0a4c400H
	DD	imagerel $LN137+87
	DD	imagerel $LN137+1385
	DD	imagerel $chain$0$HllExitDir
$chain$4$HllExitDir DD 020821H
	DD	0a36408H
	DD	imagerel $LN137+1489
	DD	imagerel $LN137+1523
	DD	imagerel $chain$3$HllExitDir
$chain$5$HllExitDir DD 021H
	DD	imagerel $LN137+1489
	DD	imagerel $LN137+1523
	DD	imagerel $chain$3$HllExitDir
$chain$6$HllExitDir DD 021H
	DD	imagerel $LN137+87
	DD	imagerel $LN137+1385
	DD	imagerel $chain$0$HllExitDir
$chain$7$HllExitDir DD 021H
	DD	imagerel $LN137
	DD	imagerel $LN137+87
	DD	imagerel $unwind$HllExitDir
xdata	ENDS
;	COMDAT xdata
xdata	SEGMENT
$unwind$ForInitAndNext DD 0b2901H
	DD	08f3429H
	DD	0840129H
	DD	0e018f01aH
	DD	0c014d016H
	DD	060117012H
	DD	05010H
xdata	ENDS
;	COMDAT xdata
xdata	SEGMENT
$unwind$WriteAsmLine DD 020701H
	DD	0250107H
xdata	ENDS
;	COMDAT xdata
xdata	SEGMENT
$unwind$CheckCXZLines DD 060f01H
	DD	07640fH
	DD	06340fH
	DD	0700b320fH
xdata	ENDS
;	COMDAT xdata
xdata	SEGMENT
$unwind$EvaluateHllExpression DD 040a01H
	DD	0c340aH
	DD	07006920aH
xdata	ENDS
;	COMDAT xdata
xdata	SEGMENT
$chain$1$QueueTestLines DD 021H
	DD	imagerel QueueTestLines
	DD	imagerel QueueTestLines+14
	DD	imagerel $unwind$QueueTestLines
xdata	ENDS
;	COMDAT xdata
xdata	SEGMENT
$chain$0$QueueTestLines DD 020521H
	DD	067405H
	DD	imagerel QueueTestLines
	DD	imagerel QueueTestLines+14
	DD	imagerel $unwind$QueueTestLines
xdata	ENDS
;	COMDAT xdata
xdata	SEGMENT
$unwind$QueueTestLines DD 020601H
	DD	030023206H
xdata	ENDS
;	COMDAT xdata
xdata	SEGMENT
$unwind$GetAndExpression DD 0a1e01H
	DD	011341eH
	DD	0f01a721eH
	DD	0d016e018H
	DD	07012c014H
	DD	050106011H
xdata	ENDS
;	COMDAT xdata
xdata	SEGMENT
$unwind$ReplaceLabel DD 040a01H
	DD	0a340aH
	DD	07006720aH
xdata	ENDS
;	COMDAT xdata
xdata	SEGMENT
$unwind$GetSimpleExpression DD 0b9001H
	DD	02ee490H
	DD	024011bH
	DD	0d012f014H
	DD	0700ec010H
	DD	0500c600dH
	DD	0300bH
xdata	ENDS
;	COMDAT xdata
xdata	SEGMENT
$chain$3$GetToken DD 021H
	DD	imagerel GetToken
	DD	imagerel GetToken+38
	DD	imagerel $unwind$GetToken
xdata	ENDS
;	COMDAT xdata
xdata	SEGMENT
$chain$2$GetToken DD 061621H
	DD	0cc416H
	DD	0b640aH
	DD	0a3405H
	DD	imagerel GetToken
	DD	imagerel GetToken+38
	DD	imagerel $unwind$GetToken
xdata	ENDS
;	COMDAT xdata
xdata	SEGMENT
$unwind$GetToken DD 060e01H
	DD	0d540eH
	DD	0f00a520eH
	DD	07006e008H
xdata	ENDS
;	COMDAT xdata
xdata	SEGMENT
$unwind$RenderJcc DD 020601H
	DD	030023206H
xdata	ENDS
;	COMDAT xdata
xdata	SEGMENT
$unwind$GetLabelStr DD 020601H
	DD	030023206H
xdata	ENDS
;	COMDAT xdata
xdata	SEGMENT
$unwind$RenderInstr DD 081401H
	DD	086414H
	DD	075414H
	DD	063414H
	DD	070103214H
xdata	ENDS
;	COMDAT xdata
xdata	SEGMENT
$chain$2$bubblesort64 DD 021H
	DD	imagerel bubblesort64
	DD	imagerel bubblesort64+29
	DD	imagerel $unwind$bubblesort64
xdata	ENDS
;	COMDAT xdata
xdata	SEGMENT
$chain$1$bubblesort64 DD 040d21H
	DD	03640dH
	DD	023405H
	DD	imagerel bubblesort64
	DD	imagerel bubblesort64+29
	DD	imagerel $unwind$bubblesort64
xdata	ENDS
;	COMDAT xdata
xdata	SEGMENT
$unwind$bubblesort64 DD 050c01H
	DD	05740cH
	DD	04540cH
	DD	0e00cH
xdata	ENDS
;	COMDAT xdata
xdata	SEGMENT
$chain$2$bubblesort DD 021H
	DD	imagerel bubblesort
	DD	imagerel bubblesort+29
	DD	imagerel $unwind$bubblesort
xdata	ENDS
;	COMDAT xdata
xdata	SEGMENT
$chain$1$bubblesort DD 040d21H
	DD	03640dH
	DD	023405H
	DD	imagerel bubblesort
	DD	imagerel bubblesort+29
	DD	imagerel $unwind$bubblesort
xdata	ENDS
;	COMDAT xdata
xdata	SEGMENT
$unwind$bubblesort DD 050c01H
	DD	05740cH
	DD	04540cH
	DD	0e00cH
xdata	ENDS
;	COMDAT xdata
xdata	SEGMENT
$unwind$GetCOp DD 020601H
	DD	030023206H
xdata	ENDS
;	COMDAT xdata
xdata	SEGMENT
$unwind$GetExpression DD 0a1e01H
	DD	012341eH
	DD	0f01a921eH
	DD	0d016e018H
	DD	07012c014H
	DD	050106011H
xdata	ENDS
;	COMDAT xdata
xdata	SEGMENT
$unwind$sprintf DD 041601H
	DD	070125216H
	DD	030106011H
xdata	ENDS
;	COMDAT xdata
xdata	SEGMENT
$unwind$_vsprintf_l DD 081401H
	DD	0a6414H
	DD	095414H
	DD	083414H
	DD	070105214H
xdata	ENDS
;	COMDAT xdata
xdata	SEGMENT
$unwind$_vsnprintf_l DD 081401H
	DD	0a6414H
	DD	095414H
	DD	083414H
	DD	070105214H
xdata	ENDS
; Function compile flags: /Ogtpy
; File d:\hjwasm\hjwasm2.13.1s\hjwasm2.13.1s\hll.c
_TEXT	SEGMENT
buff$ = 64
hllop$1 = 80
hllop$2 = 80
dst$ = 96
opndx$ = 112
buffer$ = 224
i$ = 1296
tokenarray$ = 1304
HllExitDir PROC

; 2049 : {

$LN137:
	mov	DWORD PTR [rsp+8], ecx
	push	rbp
	push	rbx
	push	rdi
	push	r14
	push	r15
	lea	rbp, QWORD PTR [rsp-992]
	sub	rsp, 1248				; 000004e0H

; 2050 :   struct expr         opndx;
; 2051 :   struct hll_item     *hll;
; 2052 :   ret_code            rc = NOT_ERROR;
; 2053 :   uint_64             n;
; 2054 :   uint_64             dst[2];
; 2055 :   int                 j;
; 2056 :   int                 idx;
; 2057 :   int                 cmd = tokenarray[i].tokval;
; 2058 :   int                 *newcp;
; 2059 :   uint_16             *newlp;
; 2060 :   char buff[16];
; 2061 :   char buffer[MAX_LINE_LEN];
; 2062 : #if AMD64_SUPPORT
; 2063 :   int_64              *newcp64;
; 2064 : #endif
; 2065 : 
; 2066 : 
; 2067 :   DebugMsg1(("HllExitDir(%s) enter\n", tokenarray[i].string_ptr));
; 2068 : 
; 2069 :   hll = HllStack;

	mov	rbx, QWORD PTR ModuleInfo+224
	mov	r15, rdx
	movsxd	rdx, ecx
	xor	r14d, r14d
	shl	rdx, 5
	mov	edi, DWORD PTR [rdx+r15+16]

; 2070 : 
; 2071 :   if (hll == NULL) {

	test	rbx, rbx
	jne	SHORT $LN9@HllExitDir

; 2072 :     DebugMsg(("HllExitDir stack error\n"));
; 2073 :     return(EmitError(DIRECTIVE_MUST_BE_IN_CONTROL_BLOCK));

	mov	ecx, 245				; 000000f5H
	call	EmitError

; 2267 : }

	add	rsp, 1248				; 000004e0H
	pop	r15
	pop	r14
	pop	rdi
	pop	rbx
	pop	rbp
	ret	0
$LN9@HllExitDir:

; 2074 :   }
; 2075 :   switch (cmd) {

	lea	eax, DWORD PTR [rdi-331]
	mov	QWORD PTR [rsp+1320], r13
	mov	r13d, 4
	cmp	eax, 11
	ja	$LN55@HllExitDir
	lea	r8, OFFSET FLAT:__ImageBase
	cdqe
	mov	ecx, DWORD PTR $LN121@HllExitDir[r8+rax*4]
	add	rcx, r8
	jmp	rcx
$LN10@HllExitDir:

; 2076 :   case T_DOT_DEFAULT:
; 2077 :     if (hll->flags & HLLF_ELSEOCCURED) {

	test	BYTE PTR [rbx+104], 1
	jne	$LN135@HllExitDir

; 2078 :       DebugMsg(("HllExitDir stack error\n"));
; 2079 :       return(EmitError(DIRECTIVE_MUST_BE_IN_CONTROL_BLOCK));
; 2080 :     }
; 2081 :     AddLineQueueX("%s" LABELQUAL, GetLabelStr(hll->labels[LDEF], buff));

	mov	r8d, DWORD PTR [rbx+52]
	lea	rdx, OFFSET FLAT:$SG11101
	lea	rcx, QWORD PTR buff$[rsp]
	call	sprintf
	lea	rdx, QWORD PTR buff$[rsp]
	lea	rcx, OFFSET FLAT:$SG12067
	call	AddLineQueueX

; 2082 :     hll->flags |= HLLF_ELSEOCCURED;

	or	DWORD PTR [rbx+104], 1

; 2083 :     i++;

	inc	DWORD PTR i$[rbp-256]

; 2084 :     break;

	jmp	$LN55@HllExitDir
$LN12@HllExitDir:

; 2085 :   case T_DOT_CASE:
; 2086 :     if (hll->cmd != HLL_SWITCH) {

	cmp	DWORD PTR [rbx+96], 5
	jne	$LN135@HllExitDir

; 2087 :       DebugMsg(("HllExitDir stack error\n"));
; 2088 :       return(EmitError(DIRECTIVE_MUST_BE_IN_CONTROL_BLOCK));
; 2089 :     }
; 2090 :     hll->labels[LTEST] = GetHllLabel();

	mov	eax, DWORD PTR ModuleInfo+352

; 2091 :     AddLineQueueX("%s" LABELQUAL, GetLabelStr(hll->labels[LTEST], buff));

	lea	rdx, OFFSET FLAT:$SG11101
	inc	eax
	lea	rcx, QWORD PTR buff$[rsp]
	mov	DWORD PTR ModuleInfo+352, eax
	mov	r8d, eax
	mov	DWORD PTR [rbx+32], eax
	call	sprintf
	lea	rdx, QWORD PTR buff$[rsp]
	lea	rcx, OFFSET FLAT:$SG12070
	call	AddLineQueueX

; 2092 :     i++;

	mov	eax, DWORD PTR i$[rbp-256]
	inc	eax
	mov	DWORD PTR i$[rbp-256], eax

; 2093 :     if (tokenarray[i].token != T_FINAL) {

	cdqe
	shl	rax, 5
	cmp	BYTE PTR [rax+r15], r14b
	je	$LN14@HllExitDir

; 2094 :       DebugMsg1(("HllExitDir(%s): calling EvalOperand, i=%u\n", tokenarray[i].string_ptr, i));
; 2095 :       if (EvalOperand(&i, tokenarray, Token_Count, &opndx, 0) == ERROR) {

	mov	r8d, DWORD PTR ModuleInfo+496
	lea	r9, QWORD PTR opndx$[rsp]
	mov	rdx, r15
	mov	BYTE PTR [rsp+32], r14b
	lea	rcx, QWORD PTR i$[rbp-256]
	call	EvalOperand
	cmp	eax, -1
	jne	SHORT $LN16@HllExitDir

; 2096 :         DebugMsg(("HllExitDir(%s): EvalOperand() failed\n", tokenarray[i].string_ptr));
; 2097 :         return(ERROR);

	or	eax, eax
	jmp	$LN131@HllExitDir
$LN16@HllExitDir:

; 2098 :       }
; 2099 :       i++;

	mov	eax, DWORD PTR i$[rbp-256]

; 2100 :       switch (opndx.kind) {

	mov	ecx, DWORD PTR opndx$[rbp-196]
	inc	eax
	mov	DWORD PTR i$[rbp-256], eax
	test	ecx, ecx
	je	SHORT $LN17@HllExitDir
	cmp	ecx, 3
	jne	SHORT $LN19@HllExitDir

; 2103 :         break;
; 2104 :       case EXPR_FLOAT:
; 2105 : #if FPIMMEDIATE
; 2106 :         if (Options.strict_masm_compat == FALSE) {

	cmp	BYTE PTR Options+127, r14b
	jne	SHORT $LN19@HllExitDir

; 2107 :           /* convert to REAL4, unless REAL8 coercion is requested */
; 2108 :           atofloat(&opndx.fvalue, opndx.float_tok->string_ptr, opndx.mem_type == MT_REAL8 ? 8 : 4, opndx.negative, opndx.float_tok->floattype);

	mov	rdx, QWORD PTR opndx$[rbp-240]
	mov	r8d, r13d
	mov	r9d, DWORD PTR opndx$[rbp-184]
	mov	ecx, 8
	shr	r9d, 5
	and	r9d, 1
	movsx	eax, BYTE PTR [rdx+1]
	cmp	DWORD PTR opndx$[rbp-192], 39		; 00000027H
	mov	rdx, QWORD PTR [rdx+8]
	cmove	r8d, ecx
	mov	DWORD PTR [rsp+32], eax
	lea	rcx, QWORD PTR opndx$[rsp]
	call	atofloat

; 2109 :           tokenarray[i].token = T_FINAL;

	movsxd	rax, DWORD PTR i$[rbp-256]

; 2110 :           break;

	jmp	SHORT $LN132@HllExitDir
$LN17@HllExitDir:

; 2101 :       case EXPR_CONST:
; 2102 :         tokenarray[i].token = T_FINAL;

	cdqe
$LN132@HllExitDir:
	shl	rax, 5
	mov	BYTE PTR [rax+r15], r14b
$LN19@HllExitDir:

; 2118 :     }
; 2119 :     if (hll->csize == 4) {

	movzx	eax, BYTE PTR [rbx+102]
	cmp	al, r13b
	jne	SHORT $LN20@HllExitDir

; 2120 :       if (!hll->maxalloccasen) {

	cmp	DWORD PTR [rbx+120], r14d
	jne	SHORT $LN22@HllExitDir

; 2121 :         hll->pcases = LclAlloc(hll->csize * 20);

	mov	ecx, 80					; 00000050H
	call	LclAlloc

; 2122 :         hll->plabels = LclAlloc(sizeof(uint_16) * 20);

	mov	ecx, 40					; 00000028H
	mov	QWORD PTR [rbx+8], rax
	call	LclAlloc
	mov	QWORD PTR [rbx+24], rax

; 2123 :         hll->maxalloccasen = 20;

	mov	DWORD PTR [rbx+120], 20
$LN22@HllExitDir:

; 2124 :       }
; 2125 :       if (hll->casecnt > hll->maxalloccasen) {

	mov	ecx, DWORD PTR [rbx+120]
	cmp	DWORD PTR [rbx+92], ecx
	jbe	$LN33@HllExitDir

; 2126 :         hll->maxalloccasen += 20;
; 2127 :         if ((newcp = realloc(hll->pcases, hll->csize * hll->maxalloccasen)) == NULL)

	movsx	eax, BYTE PTR [rbx+102]
	add	ecx, 20
	imul	eax, ecx
	mov	DWORD PTR [rbx+120], ecx
	mov	rcx, QWORD PTR [rbx+8]
	movsxd	rdx, eax
	call	realloc
	test	rax, rax
	jne	SHORT $LN24@HllExitDir

; 2128 :           Fatal(OUT_OF_MEMORY);

	lea	ecx, QWORD PTR [rax+105]
	call	Fatal
	jmp	SHORT $LN31@HllExitDir
$LN24@HllExitDir:

; 2129 :         else
; 2130 :           hll->pcases = newcp;

	mov	QWORD PTR [rbx+8], rax

; 2131 :         if ((newlp = realloc(hll->plabels, sizeof(uint_16) * hll->maxalloccasen)) == NULL)
; 2132 :           Fatal(OUT_OF_MEMORY);
; 2133 :         else
; 2134 :           hll->plabels = newlp;
; 2135 :       }
; 2136 :     }

	jmp	SHORT $LN31@HllExitDir
$LN20@HllExitDir:

; 2137 : #if AMD64_SUPPORT
; 2138 :     else {
; 2139 :       if (!hll->maxalloccasen) {

	cmp	DWORD PTR [rbx+120], r14d
	jne	SHORT $LN28@HllExitDir

; 2140 :         hll->pcases64 = LclAlloc(hll->csize * 20);

	movsx	eax, al
	lea	ecx, DWORD PTR [rax+rax*4]
	shl	ecx, 2
	movsxd	rcx, ecx
	call	LclAlloc

; 2141 :         hll->plabels = LclAlloc(sizeof(uint_16) * 20);

	mov	ecx, 40					; 00000028H
	mov	QWORD PTR [rbx+16], rax
	call	LclAlloc
	mov	QWORD PTR [rbx+24], rax

; 2142 :         hll->maxalloccasen = 20;

	mov	DWORD PTR [rbx+120], 20
$LN28@HllExitDir:

; 2143 :       }
; 2144 :       if (hll->casecnt > hll->maxalloccasen) {

	mov	ecx, DWORD PTR [rbx+120]
	cmp	DWORD PTR [rbx+92], ecx
	jbe	SHORT $LN33@HllExitDir

; 2145 :         hll->maxalloccasen += 20;
; 2146 :         if ((newcp64 = realloc(hll->pcases64, hll->csize * hll->maxalloccasen)) == NULL)

	movsx	eax, BYTE PTR [rbx+102]
	add	ecx, 20
	imul	eax, ecx
	mov	DWORD PTR [rbx+120], ecx
	mov	rcx, QWORD PTR [rbx+16]
	movsxd	rdx, eax
	call	realloc
	test	rax, rax
	jne	SHORT $LN30@HllExitDir

; 2147 :           Fatal(OUT_OF_MEMORY);

	lea	ecx, QWORD PTR [rax+105]
	call	Fatal
	jmp	SHORT $LN31@HllExitDir
$LN30@HllExitDir:

; 2148 :         else
; 2149 :           hll->pcases64 = newcp64;

	mov	QWORD PTR [rbx+16], rax
$LN31@HllExitDir:

; 2150 :         if ((newlp = realloc(hll->plabels, sizeof(uint_16) * hll->maxalloccasen)) == NULL)

	movsxd	rdx, DWORD PTR [rbx+120]
	mov	rcx, QWORD PTR [rbx+24]
	add	rdx, rdx
	call	realloc
	test	rax, rax
	jne	SHORT $LN32@HllExitDir

; 2151 :           Fatal(OUT_OF_MEMORY);

	lea	ecx, QWORD PTR [rax+105]
	call	Fatal
	jmp	SHORT $LN33@HllExitDir
$LN32@HllExitDir:

; 2152 :         else
; 2153 :           hll->plabels = newlp;

	mov	QWORD PTR [rbx+24], rax
$LN33@HllExitDir:

; 2154 :       }
; 2155 :     }
; 2156 : #endif
; 2157 :     if ((ModuleInfo.Ofssize == USE32) || (hll->csize == 4))

	cmp	BYTE PTR ModuleInfo+404, 1
	je	SHORT $LN36@HllExitDir
	cmp	BYTE PTR [rbx+102], r13b
	je	SHORT $LN36@HllExitDir

; 2159 : #if AMD64_SUPPORT
; 2160 :     else 
; 2161 :       hll->pcases64[hll->casecnt] = opndx.value64;

	mov	edx, DWORD PTR [rbx+92]
	mov	rcx, QWORD PTR [rbx+16]
	mov	rax, QWORD PTR opndx$[rsp]
	mov	QWORD PTR [rcx+rdx*8], rax
	jmp	SHORT $LN35@HllExitDir
$LN36@HllExitDir:

; 2158 :        hll->pcases[hll->casecnt] = opndx.value;

	mov	edx, DWORD PTR [rbx+92]
	mov	rcx, QWORD PTR [rbx+8]
	mov	eax, DWORD PTR opndx$[rsp]
	mov	DWORD PTR [rcx+rdx*4], eax
$LN35@HllExitDir:

; 2162 : #endif
; 2163 :     myatoi128(buff + 2, dst, 16, 4);

	mov	r9d, r13d
	lea	rdx, QWORD PTR dst$[rsp]
	mov	r8d, 16
	lea	rcx, QWORD PTR buff$[rsp+2]
	call	myatoi128

; 2164 :     n = dst[0];
; 2165 :     hll->plabels[hll->casecnt] = (uint_16)n;

	mov	edx, DWORD PTR [rbx+92]
	movzx	eax, WORD PTR dst$[rsp]
	mov	rcx, QWORD PTR [rbx+24]
	mov	WORD PTR [rcx+rdx*2], ax

; 2166 :     hll->casecnt++;

	inc	DWORD PTR [rbx+92]

; 2167 :     break;

	jmp	$LN55@HllExitDir
$LN14@HllExitDir:

; 2111 :         }
; 2112 : #endif
; 2113 :       }
; 2114 :     }
; 2115 :     else {
; 2116 :       DebugMsg(("HllExitDir stack error\n"));
; 2117 :       return(EmitError(MISSING_OPERATOR_IN_EXPRESSION));

	mov	ecx, 150				; 00000096H
	call	EmitError
	jmp	$LN131@HllExitDir
$LN37@HllExitDir:

; 2168 :   case T_DOT_ELSE:
; 2169 :   case T_DOT_ELSEIF:
; 2170 :     if (hll->cmd != HLL_IF) {

	cmp	DWORD PTR [rbx+96], r14d
	je	SHORT $LN38@HllExitDir

; 2171 :       DebugMsg(("HllExitDir(%s): labels[LTEST]=%X\n", tokenarray[i].string_ptr, hll->labels[LTEST]));
; 2172 :       return(EmitErr(BLOCK_NESTING_ERROR, tokenarray[i].string_ptr));

	mov	rdx, QWORD PTR [rdx+r15+8]
	mov	ecx, 80					; 00000050H
	call	EmitErr
	jmp	$LN131@HllExitDir
$LN38@HllExitDir:

; 2173 :     }
; 2174 :     /* v2.08: check for multiple ELSE clauses */
; 2175 :     if (hll->flags & HLLF_ELSEOCCURED) {

	test	BYTE PTR [rbx+104], 1
	je	SHORT $LN39@HllExitDir

; 2176 :       return(EmitError(DOT_ELSE_CLAUSE_ALREADY_OCCURED_IN_THIS_DOT_IF_BLOCK));

	mov	ecx, 67					; 00000043H
	call	EmitError
	jmp	$LN131@HllExitDir
$LN39@HllExitDir:

; 2177 :     }
; 2178 : 
; 2179 :     /* the 'exit'-label is only needed if an .ELSE branch exists.
; 2180 :     * That's why it is created delayed.
; 2181 :     */
; 2182 :     if (hll->labels[LEXIT] == 0)

	cmp	DWORD PTR [rbx+36], r14d
	jne	SHORT $LN40@HllExitDir

; 2183 :       hll->labels[LEXIT] = GetHllLabel();

	mov	eax, DWORD PTR ModuleInfo+352
	inc	eax
	mov	DWORD PTR ModuleInfo+352, eax
	mov	DWORD PTR [rbx+36], eax
$LN40@HllExitDir:

; 2184 :     AddLineQueueX(JMPPREFIX "jmp %s", GetLabelStr(hll->labels[LEXIT], buff));

	mov	r8d, DWORD PTR [rbx+36]
	lea	rdx, OFFSET FLAT:$SG11101
	lea	rcx, QWORD PTR buff$[rsp]
	call	sprintf
	lea	rdx, QWORD PTR buff$[rsp]
	lea	rcx, OFFSET FLAT:$SG12098
	call	AddLineQueueX

; 2185 : 
; 2186 :     if (hll->labels[LTEST] > 0) {

	mov	r8d, DWORD PTR [rbx+32]
	test	r8d, r8d
	je	SHORT $LN41@HllExitDir

; 2187 :       AddLineQueueX("%s" LABELQUAL, GetLabelStr(hll->labels[LTEST], buff));

	lea	rdx, OFFSET FLAT:$SG11101
	lea	rcx, QWORD PTR buff$[rsp]
	call	sprintf
	lea	rdx, QWORD PTR buff$[rsp]
	lea	rcx, OFFSET FLAT:$SG12100
	call	AddLineQueueX

; 2188 :       hll->labels[LTEST] = 0;

	mov	DWORD PTR [rbx+32], r14d
$LN41@HllExitDir:

; 2189 :     }
; 2190 :     i++;

	inc	DWORD PTR i$[rbp-256]

; 2191 :     if (cmd == T_DOT_ELSEIF) {

	cmp	edi, 334				; 0000014eH
	jne	$LN42@HllExitDir

; 2192 :       /* create new labels[LTEST] label */
; 2193 :       hll->labels[LTEST] = GetHllLabel();

	mov	eax, DWORD PTR ModuleInfo+352

; 2194 :       rc = EvaluateHllExpression(hll, &i, tokenarray, LTEST, FALSE, buffer);

	lea	rdx, QWORD PTR i$[rbp-256]
	inc	eax
	mov	QWORD PTR hllop$2[rsp], r14
	mov	DWORD PTR ModuleInfo+352, eax
	xor	r9d, r9d
	mov	DWORD PTR [rbx+32], eax
	mov	r8, r15
	lea	rax, QWORD PTR hllop$2[rsp]
	mov	DWORD PTR hllop$2[rsp+8], r14d
	mov	QWORD PTR [rsp+48], rax
	mov	rcx, rbx
	lea	rax, QWORD PTR buffer$[rbp-256]
	mov	BYTE PTR buffer$[rbp-256], r14b
	mov	QWORD PTR [rsp+40], rax
	mov	BYTE PTR [rsp+32], r14b
	call	GetExpression
	cmp	eax, -1
	jne	SHORT $LN77@HllExitDir
	or	r14d, eax
	jmp	$LN55@HllExitDir
$LN77@HllExitDir:
	movsxd	rax, DWORD PTR i$[rbp-256]
	shl	rax, 5
	cmp	BYTE PTR [rax+r15], r14b
	je	SHORT $LN78@HllExitDir
	mov	ecx, 199				; 000000c7H
	call	EmitError
	mov	r14d, eax

; 2195 :       if (rc == NOT_ERROR)

	test	eax, eax
	jne	$LN55@HllExitDir

; 2194 :       rc = EvaluateHllExpression(hll, &i, tokenarray, LTEST, FALSE, buffer);

$LN78@HllExitDir:

; 2196 :         QueueTestLines(buffer);

	lea	rbx, QWORD PTR buffer$[rbp-256]
	npad	6
$LL81@HllExitDir:
	mov	edx, 10
	mov	rcx, rbx
	mov	rdi, rbx
	call	strchr
	mov	rbx, rax
	test	rax, rax
	je	SHORT $LN83@HllExitDir
	mov	BYTE PTR [rax], 0
	inc	rbx
$LN83@HllExitDir:
	cmp	BYTE PTR [rdi], 0
	je	SHORT $LN84@HllExitDir
	mov	rcx, rdi
	call	AddLineQueue
$LN84@HllExitDir:
	test	rbx, rbx
	jne	SHORT $LL81@HllExitDir

; 2197 :     }

	jmp	$LN55@HllExitDir
$LN42@HllExitDir:

; 2198 :     else
; 2199 :       hll->flags |= HLLF_ELSEOCCURED;

	or	DWORD PTR [rbx+104], 1

; 2200 : 
; 2201 :     break;

	jmp	$LN55@HllExitDir
	npad	2
$LL127@HllExitDir:

; 2202 :   case T_DOT_BREAK:
; 2203 :   case T_DOT_CONTINUE:
; 2204 :     for (; hll && hll->cmd == HLL_IF; hll = hll->next);

	cmp	DWORD PTR [rbx+96], r14d
	jne	SHORT $LN46@HllExitDir
	mov	rbx, QWORD PTR [rbx]
	test	rbx, rbx
	jne	SHORT $LL127@HllExitDir
$LN135@HllExitDir:

; 2205 :     if (hll == NULL) {
; 2206 :       return(EmitError(DIRECTIVE_MUST_BE_IN_CONTROL_BLOCK));

	mov	ecx, 245				; 000000f5H
	call	EmitError
	jmp	$LN131@HllExitDir
$LN46@HllExitDir:

; 2207 :     }
; 2208 :     /* v2.11: create 'exit' and 'test' labels delayed.
; 2209 :     */
; 2210 :     if (cmd == T_DOT_BREAK) {

	cmp	edi, 331				; 0000014bH
	jne	SHORT $LN47@HllExitDir

; 2211 :       if (hll->labels[LEXIT] == 0)

	cmp	DWORD PTR [rbx+36], r14d
	jne	SHORT $LN49@HllExitDir

; 2212 :         hll->labels[LEXIT] = GetHllLabel();

	mov	eax, DWORD PTR ModuleInfo+352
	inc	eax
	mov	DWORD PTR ModuleInfo+352, eax
	mov	DWORD PTR [rbx+36], eax
$LN49@HllExitDir:

; 2213 :       idx = LEXIT;

	mov	ecx, 1

; 2214 :     }

	jmp	SHORT $LN51@HllExitDir
$LN47@HllExitDir:

; 2215 :     else if (hll->cmd == HLL_FOR) {

	mov	eax, DWORD PTR [rbx+96]
	cmp	eax, r13d
	jne	SHORT $LN50@HllExitDir

; 2216 :       /* added by habran
; 2217 :       .CONTINUE label is created here for .FOR loops only if it exists.
; 2218 :       It is different than .WHILE because it has to first alter counters
; 2219 :       */
; 2220 :       if (hll->labels[LCONT] == 0) hll->labels[LCONT] = GetHllLabel();

	cmp	DWORD PTR [rbx+48], r14d
	jne	SHORT $LN52@HllExitDir
	mov	eax, DWORD PTR ModuleInfo+352
	inc	eax
	mov	DWORD PTR ModuleInfo+352, eax
	mov	DWORD PTR [rbx+48], eax
$LN52@HllExitDir:

; 2221 :       idx = (hll->labels[LCONT] ? LCONT : LSTART);

	cmp	DWORD PTR [rbx+48], r14d
	mov	ecx, 2
	cmovne	ecx, r13d

; 2222 :     }

	jmp	SHORT $LN51@HllExitDir
$LN50@HllExitDir:

; 2223 :     else {
; 2224 :       /* 'test' is not created for .WHILE loops here; because
; 2225 :       * if it doesn't exist, there's no condition to test.
; 2226 :       */
; 2227 :       if (hll->cmd == HLL_REPEAT && hll->labels[LTEST] == 0)

	cmp	eax, 2
	jne	SHORT $LN53@HllExitDir
	cmp	DWORD PTR [rbx+32], r14d
	jne	SHORT $LN53@HllExitDir

; 2228 :         hll->labels[LTEST] = GetHllLabel();

	mov	eax, DWORD PTR ModuleInfo+352
	inc	eax
	mov	DWORD PTR ModuleInfo+352, eax
	mov	DWORD PTR [rbx+32], eax
$LN53@HllExitDir:

; 2229 :       idx = (hll->labels[LTEST] ? LTEST : LSTART);

	cmp	DWORD PTR [rbx+32], r14d
	mov	ecx, 2
	cmovne	ecx, r14d
$LN51@HllExitDir:

; 2230 :     }
; 2231 : 
; 2232 :     /* .BREAK .IF ... or .CONTINUE .IF ? */
; 2233 :     i++;

	mov	eax, DWORD PTR i$[rbp-256]
	inc	eax
	mov	DWORD PTR i$[rbp-256], eax

; 2234 :     if (tokenarray[i].token != T_FINAL) {

	cdqe
	shl	rax, 5
	lea	rdx, QWORD PTR [rax+r15]
	movzx	eax, BYTE PTR [rax+r15]
	test	al, al
	je	$LN54@HllExitDir

; 2235 :       if (tokenarray[i].token == T_DIRECTIVE && tokenarray[i].tokval == T_DOT_IF) {

	cmp	al, 3
	jne	$LN55@HllExitDir
	cmp	DWORD PTR [rdx+16], 327			; 00000147H
	jne	$LN55@HllExitDir

; 2236 :         enum hll_cmd savedcmd = hll->cmd;
; 2237 :         hll->cmd = HLL_BREAK;
; 2238 :         i++;
; 2239 :         /* v2.11: set rc and don't exit if an error occurs; see hll3.aso */
; 2240 :         rc = EvaluateHllExpression(hll, &i, tokenarray, idx, TRUE, buffer);

	lea	rax, QWORD PTR hllop$1[rsp]
	mov	QWORD PTR [rsp+1312], r12
	mov	r12d, DWORD PTR [rbx+96]
	lea	rdx, QWORD PTR i$[rbp-256]
	mov	QWORD PTR [rsp+48], rax
	mov	r9d, ecx
	mov	DWORD PTR [rbx+96], 3
	lea	rax, QWORD PTR buffer$[rbp-256]
	inc	DWORD PTR i$[rbp-256]
	mov	r8, r15
	mov	QWORD PTR [rsp+40], rax
	mov	rcx, rbx
	mov	BYTE PTR [rsp+32], 1
	mov	QWORD PTR hllop$1[rsp], r14
	mov	DWORD PTR hllop$1[rsp+8], r14d
	mov	BYTE PTR buffer$[rbp-256], r14b
	call	GetExpression
	cmp	eax, -1
	jne	SHORT $LN93@HllExitDir

; 2243 :         hll->cmd = savedcmd;

	mov	DWORD PTR [rbx+96], r12d
	or	r14d, eax
	mov	r12, QWORD PTR [rsp+1312]

; 2244 :       }
; 2245 :     }

	jmp	$LN55@HllExitDir

; 2236 :         enum hll_cmd savedcmd = hll->cmd;
; 2237 :         hll->cmd = HLL_BREAK;
; 2238 :         i++;
; 2239 :         /* v2.11: set rc and don't exit if an error occurs; see hll3.aso */
; 2240 :         rc = EvaluateHllExpression(hll, &i, tokenarray, idx, TRUE, buffer);

$LN93@HllExitDir:
	movsxd	rax, DWORD PTR i$[rbp-256]
	shl	rax, 5
	cmp	BYTE PTR [rax+r15], r14b
	je	SHORT $LN94@HllExitDir
	mov	ecx, 199				; 000000c7H
	call	EmitError
	mov	r14d, eax

; 2241 :         if (rc == NOT_ERROR)

	test	eax, eax
	jne	SHORT $LN98@HllExitDir

; 2236 :         enum hll_cmd savedcmd = hll->cmd;
; 2237 :         hll->cmd = HLL_BREAK;
; 2238 :         i++;
; 2239 :         /* v2.11: set rc and don't exit if an error occurs; see hll3.aso */
; 2240 :         rc = EvaluateHllExpression(hll, &i, tokenarray, idx, TRUE, buffer);

$LN94@HllExitDir:

; 2242 :           QueueTestLines(buffer);

	mov	QWORD PTR [rsp+1304], rsi
	lea	rdi, QWORD PTR buffer$[rbp-256]
	npad	1
$LL97@HllExitDir:
	mov	edx, 10
	mov	rcx, rdi
	mov	rsi, rdi
	call	strchr
	mov	rdi, rax
	test	rax, rax
	je	SHORT $LN99@HllExitDir
	mov	BYTE PTR [rax], 0
	inc	rdi
$LN99@HllExitDir:
	cmp	BYTE PTR [rsi], 0
	je	SHORT $LN100@HllExitDir
	mov	rcx, rsi
	call	AddLineQueue
$LN100@HllExitDir:
	test	rdi, rdi
	jne	SHORT $LL97@HllExitDir
	mov	rsi, QWORD PTR [rsp+1304]
$LN98@HllExitDir:

; 2243 :         hll->cmd = savedcmd;

	mov	DWORD PTR [rbx+96], r12d
	mov	r12, QWORD PTR [rsp+1312]

; 2244 :       }
; 2245 :     }

	jmp	SHORT $LN55@HllExitDir
$LN54@HllExitDir:

; 2246 :     else {
; 2247 :       AddLineQueueX(JMPPREFIX "jmp %s", GetLabelStr(hll->labels[idx], buff));

	movsxd	rax, ecx
	lea	rdx, OFFSET FLAT:$SG11101
	lea	rcx, QWORD PTR buff$[rsp]
	mov	r8d, DWORD PTR [rbx+rax*4+32]
	call	sprintf
	lea	rdx, QWORD PTR buff$[rsp]
	lea	rcx, OFFSET FLAT:$SG12117
	call	AddLineQueueX
$LN55@HllExitDir:

; 2248 :     }
; 2249 :     break;
; 2250 : #ifdef DEBUG_OUT
; 2251 :   default: /**/myassert(0); break;
; 2252 : #endif
; 2253 :   }
; 2254 :   if (tokenarray[i].token != T_FINAL && rc == NOT_ERROR) {

	movsxd	rax, DWORD PTR i$[rbp-256]
	shl	rax, 5
	cmp	BYTE PTR [rax+r15], 0
	je	SHORT $LN58@HllExitDir
	test	r14d, r14d
	jne	SHORT $LN58@HllExitDir

; 2255 :     EmitErr(SYNTAX_ERROR_EX, tokenarray[i].tokpos);

	mov	rdx, QWORD PTR [rax+r15+24]
	mov	ecx, 209				; 000000d1H
	call	EmitErr

; 2256 :     rc = ERROR;

	or	r14d, -1
$LN58@HllExitDir:

; 2257 :   }
; 2258 : 
; 2259 :   if (ModuleInfo.list)

	test	DWORD PTR ModuleInfo+408, 2048		; 00000800H
	je	SHORT $LN59@HllExitDir

; 2260 :     LstWrite(LSTTYPE_DIRECTIVE, GetCurrOffset(), NULL);

	call	GetCurrOffset
	mov	edx, eax
	xor	r8d, r8d
	mov	ecx, r13d
	call	LstWrite
$LN59@HllExitDir:

; 2261 : 
; 2262 :   /* v2.11: always run line-queue if it's not empty. */
; 2263 :   if (is_linequeue_populated())

	cmp	QWORD PTR ModuleInfo+184, 0
	je	SHORT $LN60@HllExitDir

; 2264 :     RunLineQueue();

	call	RunLineQueue
$LN60@HllExitDir:

; 2265 : 
; 2266 :   return(rc);

	mov	eax, r14d
$LN131@HllExitDir:
	mov	r13, QWORD PTR [rsp+1320]

; 2267 : }

	add	rsp, 1248				; 000004e0H
	pop	r15
	pop	r14
	pop	rdi
	pop	rbx
	pop	rbp
	ret	0
	npad	3
$LN121@HllExitDir:
	DD	$LL127@HllExitDir
	DD	$LL127@HllExitDir
	DD	$LN37@HllExitDir
	DD	$LN37@HllExitDir
	DD	$LN55@HllExitDir
	DD	$LN55@HllExitDir
	DD	$LN55@HllExitDir
	DD	$LN55@HllExitDir
	DD	$LN55@HllExitDir
	DD	$LN55@HllExitDir
	DD	$LN12@HllExitDir
	DD	$LN10@HllExitDir
HllExitDir ENDP
_TEXT	ENDS
; Function compile flags: /Ogtpy
; File d:\hjwasm\hjwasm2.13.1s\hjwasm2.13.1s\hll.c
_TEXT	SEGMENT
buff$ = 64
hllop$1 = 80
hllop$2 = 80
buffer$ = 96
i$ = 2208
tokenarray$ = 2216
HllEndDir PROC

; 1540 : {

$LN355:
	mov	QWORD PTR [rsp+16], rdx
	mov	DWORD PTR [rsp+8], ecx
	push	rbp
	push	rbx
	push	rdi
	push	r15
	lea	rbp, QWORD PTR [rsp-1912]
	sub	rsp, 2168				; 00000878H

; 1541 :   //struct asym       *sym;
; 1542 :   struct hll_item     *hll;
; 1543 :   ret_code            rc = NOT_ERROR;
; 1544 :   int                 cmd = tokenarray[i].tokval;
; 1545 :   int                 j, n;
; 1546 :   int                 temp;
; 1547 :   char buff[16];
; 1548 :   //char buffer[MAX_LINE_LEN*2];
; 1549 : 
; 1550 : 
; 1551 :   char buffer[MAX_LINE_LEN * 2];
; 1552 : 
; 1553 :   DebugMsg1(("HllEndDir(%s) enter\n", tokenarray[i].string_ptr));
; 1554 : 
; 1555 :   if (HllStack == NULL) {

	mov	rbx, QWORD PTR ModuleInfo+224
	xor	r15d, r15d
	movsxd	rax, ecx
	mov	rdi, rdx
	shl	rax, 5
	mov	ecx, DWORD PTR [rax+rdx+16]
	test	rbx, rbx
	jne	SHORT $LN26@HllEndDir

; 1556 :     DebugMsg(("HllEndDir: hll stack is empty\n"));
; 1557 :     return(EmitError(DIRECTIVE_MUST_BE_IN_CONTROL_BLOCK));

	mov	ecx, 245				; 000000f5H
	call	EmitError

; 2035 : }

	add	rsp, 2168				; 00000878H
	pop	r15
	pop	rdi
	pop	rbx
	pop	rbp
	ret	0
$LN26@HllEndDir:

; 1558 :   }
; 1559 : 
; 1560 :   hll = HllStack;
; 1561 :   HllStack = hll->next;

	mov	rax, QWORD PTR [rbx]
	mov	QWORD PTR ModuleInfo+224, rax

; 1562 :   /* v2.06: move the item to the free stack */
; 1563 :   hll->next = HllFree;

	mov	rax, QWORD PTR ModuleInfo+232
	mov	QWORD PTR [rbx], rax

; 1564 :   HllFree = hll;
; 1565 : 
; 1566 :   switch (cmd) {

	lea	eax, DWORD PTR [rcx-335]
	mov	QWORD PTR [rsp+2224], rsi
	mov	QWORD PTR ModuleInfo+232, rbx
	cmp	eax, 8
	ja	$LN336@HllEndDir
	lea	rdx, OFFSET FLAT:__ImageBase
	cdqe
	mov	ecx, DWORD PTR $LN335@HllEndDir[rdx+rax*4]
	add	rcx, rdx
	jmp	rcx
$LN27@HllEndDir:

; 1567 :   case T_DOT_ENDIF:
; 1568 :     if (hll->cmd != HLL_IF) {

	cmp	DWORD PTR [rbx+96], r15d
	jne	$LN353@HllEndDir

; 1569 :       DebugMsg(("HllEndDir: no .IF on the hll stack\n"));
; 1570 :       return(EmitErr(BLOCK_NESTING_ERROR, tokenarray[i].string_ptr));
; 1571 :     }
; 1572 :     i++;

	inc	DWORD PTR i$[rbp-256]

; 1573 :     /* if a test label isn't created yet, create it */
; 1574 :     if (hll->labels[LTEST]) {

	mov	r8d, DWORD PTR [rbx+32]
	test	r8d, r8d
	je	$LN336@HllEndDir

; 1575 :       AddLineQueueX("%s" LABELQUAL, GetLabelStr(hll->labels[LTEST], buff));

	lea	rdx, OFFSET FLAT:$SG11101
	lea	rcx, QWORD PTR buff$[rsp]
	call	sprintf
	lea	rdx, QWORD PTR buff$[rsp]
	lea	rcx, OFFSET FLAT:$SG11766
	call	AddLineQueueX

; 1576 :     }
; 1577 :     break;

	jmp	$LN336@HllEndDir
$LN30@HllEndDir:

; 1578 :     // added by habran
; 1579 :   case T_DOT_ENDSWITCH:
; 1580 :     if (hll->cmd != HLL_SWITCH) {

	cmp	DWORD PTR [rbx+96], 5
	je	SHORT $LN31@HllEndDir

; 1581 :       DebugMsg(("HllExitDir stack error\n"));
; 1582 :       return(EmitError(DIRECTIVE_MUST_BE_IN_CONTROL_BLOCK));

	mov	ecx, 245				; 000000f5H
	call	EmitError
	jmp	$LN340@HllEndDir
$LN31@HllEndDir:

; 1583 :     }
; 1584 :     i++;

	inc	DWORD PTR i$[rbp-256]

; 1585 :     AddLineQueueX("%s" LABELQUAL, GetLabelStr(hll->labels[LSTART], buff));

	lea	rdx, OFFSET FLAT:$SG11101
	mov	r8d, DWORD PTR [rbx+40]
	lea	rcx, QWORD PTR buff$[rsp]
	call	sprintf
	lea	rdx, QWORD PTR buff$[rsp]
	lea	rcx, OFFSET FLAT:$SG11769
	call	AddLineQueueX

; 1586 :     if (Parse_Pass) {

	cmp	DWORD PTR Parse_Pass, r15d
	je	$LN72@HllEndDir

; 1587 :       if (hll->casecnt == 1)

	mov	r9d, DWORD PTR [rbx+92]
	cmp	r9d, 1
	jne	SHORT $LN33@HllEndDir

; 1588 :         hll->cflag = 1;

	mov	BYTE PTR [rbx+101], r9b
	jmp	SHORT $LN43@HllEndDir
$LN33@HllEndDir:

; 1589 :       else if (hll->casecnt == 2)

	cmp	r9d, 2
	jne	SHORT $LN35@HllEndDir

; 1590 :         hll->cflag = 2;

	mov	BYTE PTR [rbx+101], r9b
	jmp	SHORT $LN43@HllEndDir
$LN35@HllEndDir:

; 1591 :       else if (hll->casecnt == 3)

	cmp	r9d, 3
	jne	SHORT $LN37@HllEndDir

; 1592 :         hll->cflag = 3;

	mov	BYTE PTR [rbx+101], r9b
	jmp	SHORT $LN43@HllEndDir
$LN37@HllEndDir:

; 1593 :       else
; 1594 :       {
; 1595 :         if (hll->plabels) {

	mov	rdx, QWORD PTR [rbx+24]
	test	rdx, rdx
	je	SHORT $LN43@HllEndDir

; 1596 :           if ((ModuleInfo.Ofssize == USE32)|| (hll->csize == 4)){

	cmp	BYTE PTR ModuleInfo+404, 1
	je	SHORT $LN42@HllEndDir
	cmp	BYTE PTR [rbx+102], 4
	je	SHORT $LN42@HllEndDir

; 1599 :               hll->cflag = 4;
; 1600 :             else
; 1601 :               hll->cflag = 5;
; 1602 :           }
; 1603 : #if AMD64_SUPPORT
; 1604 :           else {     //USE64
; 1605 :             bubblesort64(hll, hll->plabels,hll->pcases64, hll->casecnt);

	mov	r8, QWORD PTR [rbx+16]
	mov	rcx, rbx
	call	bubblesort64

; 1606 :             if (hll->delta64 < 256)

	cmp	QWORD PTR [rbx+144], 256		; 00000100H

; 1607 :               hll->cflag = 4;
; 1608 :             else
; 1609 :               hll->cflag = 5;

	jmp	SHORT $LN344@HllEndDir
$LN42@HllEndDir:

; 1597 :             bubblesort(hll, hll->plabels, hll->pcases, hll->casecnt);

	mov	r8, QWORD PTR [rbx+8]
	mov	rcx, rbx
	call	bubblesort

; 1598 :             if (hll->delta < 256)

	cmp	DWORD PTR [rbx+116], 256		; 00000100H
$LN344@HllEndDir:
	setge	al
	add	al, 4
	mov	BYTE PTR [rbx+101], al
$LN43@HllEndDir:

; 1610 :           }
; 1611 : #endif
; 1612 :         }
; 1613 :       }
; 1614 :       if (hll->cflag == 1) {

	movzx	eax, BYTE PTR [rbx+101]
	cmp	al, 1
	jne	$LN47@HllEndDir

; 1615 :         if ((ModuleInfo.Ofssize == USE32) || (hll->csize == 4)) {

	cmp	BYTE PTR ModuleInfo+404, al
	je	SHORT $LN51@HllEndDir
	cmp	BYTE PTR [rbx+102], 4
	je	SHORT $LN51@HllEndDir

; 1619 :         }
; 1620 : #if AMD64_SUPPORT
; 1621 :         else
; 1622 :         {
; 1623 :           AddLineQueueX("mov rcx, %q", hll->pcases64[0]);

	mov	rdx, QWORD PTR [rbx+16]
	lea	rcx, OFFSET FLAT:$SG11793
	mov	rdx, QWORD PTR [rdx]
	call	AddLineQueueX

; 1624 :           AddLineQueueX("cmp rax, rcx");

	lea	rcx, OFFSET FLAT:$SG11794
	call	AddLineQueueX

; 1625 :           AddLineQueueX("je  %s", GetLabelStr(hll->plabels[0], buff));

	mov	rax, QWORD PTR [rbx+24]
	lea	rdx, OFFSET FLAT:$SG11101
	lea	rcx, QWORD PTR buff$[rsp]
	movzx	r8d, WORD PTR [rax]
	call	sprintf
	lea	rdx, QWORD PTR buff$[rsp]
	lea	rcx, OFFSET FLAT:$SG11795
	call	AddLineQueueX

; 1626 :           AddLineQueueX("jmp %s", GetLabelStr(hll->labels[LDEF], buff));

	mov	r8d, DWORD PTR [rbx+52]
	lea	rdx, OFFSET FLAT:$SG11101
	lea	rcx, QWORD PTR buff$[rsp]
	call	sprintf
	lea	rcx, OFFSET FLAT:$SG11796
	jmp	$LN345@HllEndDir
$LN51@HllEndDir:

; 1616 :           AddLineQueueX("cmp  eax,%d", hll->pcases[0]);

	mov	rax, QWORD PTR [rbx+8]
	lea	rcx, OFFSET FLAT:$SG11790
	mov	edx, DWORD PTR [rax]
	call	AddLineQueueX

; 1617 :           AddLineQueueX("je  %s", GetLabelStr(hll->plabels[0], buff));

	mov	rax, QWORD PTR [rbx+24]
	lea	rdx, OFFSET FLAT:$SG11101
	lea	rcx, QWORD PTR buff$[rsp]
	movzx	r8d, WORD PTR [rax]
	call	sprintf
	lea	rdx, QWORD PTR buff$[rsp]
	lea	rcx, OFFSET FLAT:$SG11791
	call	AddLineQueueX

; 1618 :           AddLineQueueX("jmp %s", GetLabelStr(hll->labels[LDEF], buff));

	mov	r8d, DWORD PTR [rbx+52]
	lea	rdx, OFFSET FLAT:$SG11101
	lea	rcx, QWORD PTR buff$[rsp]
	call	sprintf
	lea	rcx, OFFSET FLAT:$SG11792

; 1627 :         }
; 1628 : #endif
; 1629 :       }

	jmp	$LN345@HllEndDir
$LN47@HllEndDir:

; 1630 :       else if (hll->cflag == 2) {

	cmp	al, 2
	jne	$LN52@HllEndDir

; 1631 :         if ((ModuleInfo.Ofssize == USE32) || (hll->csize == 4)) {

	cmp	BYTE PTR ModuleInfo+404, 1
	je	$LN56@HllEndDir
	cmp	BYTE PTR [rbx+102], 4
	je	$LN56@HllEndDir

; 1637 :         }
; 1638 : #if AMD64_SUPPORT
; 1639 :         else
; 1640 :         {
; 1641 :           AddLineQueueX("mov rcx, %q", hll->pcases64[0]);

	mov	rdx, QWORD PTR [rbx+16]
	lea	rcx, OFFSET FLAT:$SG11807
	mov	rdx, QWORD PTR [rdx]
	call	AddLineQueueX

; 1642 :           AddLineQueueX("cmp rax, rcx");

	lea	rcx, OFFSET FLAT:$SG11808
	call	AddLineQueueX

; 1643 :           AddLineQueueX("je  %s", GetLabelStr(hll->plabels[0], buff));

	mov	rax, QWORD PTR [rbx+24]
	lea	rdx, OFFSET FLAT:$SG11101
	lea	rcx, QWORD PTR buff$[rsp]
	movzx	r8d, WORD PTR [rax]
	call	sprintf
	lea	rdx, QWORD PTR buff$[rsp]
	lea	rcx, OFFSET FLAT:$SG11809
	call	AddLineQueueX

; 1644 :           AddLineQueueX("mov rcx, %q", hll->pcases64[1]);

	mov	rdx, QWORD PTR [rbx+16]
	lea	rcx, OFFSET FLAT:$SG11810
	mov	rdx, QWORD PTR [rdx+8]
	call	AddLineQueueX

; 1645 :           AddLineQueueX("cmp rax, rcx");

	lea	rcx, OFFSET FLAT:$SG11811
	call	AddLineQueueX

; 1646 :           AddLineQueueX("je  %s", GetLabelStr(hll->plabels[1], buff));

	mov	rax, QWORD PTR [rbx+24]
	lea	rdx, OFFSET FLAT:$SG11101
	lea	rcx, QWORD PTR buff$[rsp]
	movzx	r8d, WORD PTR [rax+2]
	call	sprintf
	lea	rdx, QWORD PTR buff$[rsp]
	lea	rcx, OFFSET FLAT:$SG11812
	call	AddLineQueueX

; 1647 :           AddLineQueueX("jmp %s", GetLabelStr(hll->labels[LDEF], buff));

	mov	r8d, DWORD PTR [rbx+52]
	lea	rdx, OFFSET FLAT:$SG11101
	lea	rcx, QWORD PTR buff$[rsp]
	call	sprintf
	lea	rcx, OFFSET FLAT:$SG11813
	jmp	$LN345@HllEndDir
$LN56@HllEndDir:

; 1632 :           AddLineQueueX("cmp  eax,%d", hll->pcases[0]);

	mov	rax, QWORD PTR [rbx+8]
	lea	rcx, OFFSET FLAT:$SG11802
	mov	edx, DWORD PTR [rax]
	call	AddLineQueueX

; 1633 :           AddLineQueueX("je  %s", GetLabelStr(hll->plabels[0], buff));

	mov	rax, QWORD PTR [rbx+24]
	lea	rdx, OFFSET FLAT:$SG11101
	lea	rcx, QWORD PTR buff$[rsp]
	movzx	r8d, WORD PTR [rax]
	call	sprintf
	lea	rdx, QWORD PTR buff$[rsp]
	lea	rcx, OFFSET FLAT:$SG11803
	call	AddLineQueueX

; 1634 :           AddLineQueueX("cmp  eax,%d", hll->pcases[1]);

	mov	rax, QWORD PTR [rbx+8]
	lea	rcx, OFFSET FLAT:$SG11804
	mov	edx, DWORD PTR [rax+4]
	call	AddLineQueueX

; 1635 :           AddLineQueueX("je  %s", GetLabelStr(hll->plabels[1], buff));

	mov	rax, QWORD PTR [rbx+24]
	lea	rdx, OFFSET FLAT:$SG11101
	lea	rcx, QWORD PTR buff$[rsp]
	movzx	r8d, WORD PTR [rax+2]
	call	sprintf
	lea	rdx, QWORD PTR buff$[rsp]
	lea	rcx, OFFSET FLAT:$SG11805
	call	AddLineQueueX

; 1636 :           AddLineQueueX("jmp %s", GetLabelStr(hll->labels[LDEF], buff));

	mov	r8d, DWORD PTR [rbx+52]
	lea	rdx, OFFSET FLAT:$SG11101
	lea	rcx, QWORD PTR buff$[rsp]
	call	sprintf
	lea	rcx, OFFSET FLAT:$SG11806

; 1648 :         }
; 1649 : #endif
; 1650 :       }

	jmp	$LN345@HllEndDir
$LN52@HllEndDir:

; 1651 :       else if (hll->cflag == 3) {

	cmp	al, 3
	jne	$LN57@HllEndDir

; 1652 :         if ((ModuleInfo.Ofssize == USE32) || (hll->csize == 4)) {

	cmp	BYTE PTR ModuleInfo+404, 1
	je	$LN61@HllEndDir
	cmp	BYTE PTR [rbx+102], 4
	je	$LN61@HllEndDir

; 1660 :         }
; 1661 : #if AMD64_SUPPORT
; 1662 :         else
; 1663 :         {
; 1664 :           AddLineQueueX("mov rcx, %q", hll->pcases64[0]);

	mov	rdx, QWORD PTR [rbx+16]
	lea	rcx, OFFSET FLAT:$SG11826
	mov	rdx, QWORD PTR [rdx]
	call	AddLineQueueX

; 1665 :           AddLineQueueX("cmp rax, rcx");

	lea	rcx, OFFSET FLAT:$SG11827
	call	AddLineQueueX

; 1666 :           AddLineQueueX("je  %s", GetLabelStr(hll->plabels[0], buff));

	mov	rax, QWORD PTR [rbx+24]
	lea	rdx, OFFSET FLAT:$SG11101
	lea	rcx, QWORD PTR buff$[rsp]
	movzx	r8d, WORD PTR [rax]
	call	sprintf
	lea	rdx, QWORD PTR buff$[rsp]
	lea	rcx, OFFSET FLAT:$SG11828
	call	AddLineQueueX

; 1667 :           AddLineQueueX("mov rcx, %q", hll->pcases64[1]);

	mov	rdx, QWORD PTR [rbx+16]
	lea	rcx, OFFSET FLAT:$SG11829
	mov	rdx, QWORD PTR [rdx+8]
	call	AddLineQueueX

; 1668 :           AddLineQueueX("cmp rax, rcx");

	lea	rcx, OFFSET FLAT:$SG11830
	call	AddLineQueueX

; 1669 :           AddLineQueueX("je  %s", GetLabelStr(hll->plabels[1], buff));

	mov	rax, QWORD PTR [rbx+24]
	lea	rdx, OFFSET FLAT:$SG11101
	lea	rcx, QWORD PTR buff$[rsp]
	movzx	r8d, WORD PTR [rax+2]
	call	sprintf
	lea	rdx, QWORD PTR buff$[rsp]
	lea	rcx, OFFSET FLAT:$SG11831
	call	AddLineQueueX

; 1670 :           AddLineQueueX("mov rcx, %q", hll->pcases64[2]);

	mov	rdx, QWORD PTR [rbx+16]
	lea	rcx, OFFSET FLAT:$SG11832
	mov	rdx, QWORD PTR [rdx+16]
	call	AddLineQueueX

; 1671 :           AddLineQueueX("cmp rax, rcx");

	lea	rcx, OFFSET FLAT:$SG11833
	call	AddLineQueueX

; 1672 :           AddLineQueueX("je  %s", GetLabelStr(hll->plabels[2], buff));

	mov	rax, QWORD PTR [rbx+24]
	lea	rdx, OFFSET FLAT:$SG11101
	lea	rcx, QWORD PTR buff$[rsp]
	movzx	r8d, WORD PTR [rax+4]
	call	sprintf
	lea	rdx, QWORD PTR buff$[rsp]
	lea	rcx, OFFSET FLAT:$SG11834
	call	AddLineQueueX

; 1673 :           AddLineQueueX("jmp %s", GetLabelStr(hll->labels[LDEF], buff));

	mov	r8d, DWORD PTR [rbx+52]
	lea	rdx, OFFSET FLAT:$SG11101
	lea	rcx, QWORD PTR buff$[rsp]
	call	sprintf
	lea	rcx, OFFSET FLAT:$SG11835
	jmp	$LN345@HllEndDir
$LN61@HllEndDir:

; 1653 :           AddLineQueueX("cmp  eax,%d", hll->pcases[0]);

	mov	rax, QWORD PTR [rbx+8]
	lea	rcx, OFFSET FLAT:$SG11819
	mov	edx, DWORD PTR [rax]
	call	AddLineQueueX

; 1654 :           AddLineQueueX("je  %s", GetLabelStr(hll->plabels[0], buff));

	mov	rax, QWORD PTR [rbx+24]
	lea	rdx, OFFSET FLAT:$SG11101
	lea	rcx, QWORD PTR buff$[rsp]
	movzx	r8d, WORD PTR [rax]
	call	sprintf
	lea	rdx, QWORD PTR buff$[rsp]
	lea	rcx, OFFSET FLAT:$SG11820
	call	AddLineQueueX

; 1655 :           AddLineQueueX("cmp  eax,%d", hll->pcases[1]);

	mov	rax, QWORD PTR [rbx+8]
	lea	rcx, OFFSET FLAT:$SG11821
	mov	edx, DWORD PTR [rax+4]
	call	AddLineQueueX

; 1656 :           AddLineQueueX("je  %s", GetLabelStr(hll->plabels[1], buff));

	mov	rax, QWORD PTR [rbx+24]
	lea	rdx, OFFSET FLAT:$SG11101
	lea	rcx, QWORD PTR buff$[rsp]
	movzx	r8d, WORD PTR [rax+2]
	call	sprintf
	lea	rdx, QWORD PTR buff$[rsp]
	lea	rcx, OFFSET FLAT:$SG11822
	call	AddLineQueueX

; 1657 :           AddLineQueueX("cmp  eax,%d", hll->pcases[2]);

	mov	rax, QWORD PTR [rbx+8]
	lea	rcx, OFFSET FLAT:$SG11823
	mov	edx, DWORD PTR [rax+8]
	call	AddLineQueueX

; 1658 :           AddLineQueueX("je  %s", GetLabelStr(hll->plabels[2], buff));

	mov	rax, QWORD PTR [rbx+24]
	lea	rdx, OFFSET FLAT:$SG11101
	lea	rcx, QWORD PTR buff$[rsp]
	movzx	r8d, WORD PTR [rax+4]
	call	sprintf
	lea	rdx, QWORD PTR buff$[rsp]
	lea	rcx, OFFSET FLAT:$SG11824
	call	AddLineQueueX

; 1659 :           AddLineQueueX("jmp %s", GetLabelStr(hll->labels[LDEF], buff));

	mov	r8d, DWORD PTR [rbx+52]
	lea	rdx, OFFSET FLAT:$SG11101
	lea	rcx, QWORD PTR buff$[rsp]
	call	sprintf
	lea	rcx, OFFSET FLAT:$SG11825

; 1674 :         }
; 1675 : #endif
; 1676 :       }

	jmp	$LN345@HllEndDir
$LN57@HllEndDir:

; 1677 :       else if (hll->cflag == 4) {

	cmp	al, 4
	jne	$LN62@HllEndDir

; 1678 :         if (hll->csize == 4) {

	cmp	BYTE PTR [rbx+102], al
	jne	SHORT $LN64@HllEndDir

; 1679 :           AddLineQueueX("cmp eax,%d", hll->maxcase);

	mov	edx, DWORD PTR [rbx+108]
	lea	rcx, OFFSET FLAT:$SG11840
	call	AddLineQueueX

; 1680 :           AddLineQueueX("ja  %s", GetLabelStr(hll->labels[LDEF], buff));

	mov	r8d, DWORD PTR [rbx+52]
	lea	rdx, OFFSET FLAT:$SG11101
	lea	rcx, QWORD PTR buff$[rsp]
	call	sprintf
	lea	rdx, QWORD PTR buff$[rsp]
	lea	rcx, OFFSET FLAT:$SG11841
	call	AddLineQueueX

; 1681 :           AddLineQueueX("sub eax,%d", hll->mincase);

	mov	edx, DWORD PTR [rbx+112]
	lea	rcx, OFFSET FLAT:$SG11842
	call	AddLineQueueX

; 1682 :           AddLineQueueX("jc  %s", GetLabelStr(hll->labels[LDEF], buff));

	mov	r8d, DWORD PTR [rbx+52]
	lea	rdx, OFFSET FLAT:$SG11101
	lea	rcx, QWORD PTR buff$[rsp]
	call	sprintf
	lea	rcx, OFFSET FLAT:$SG11843

; 1683 :         }

	jmp	$LN346@HllEndDir
$LN64@HllEndDir:

; 1684 : #if AMD64_SUPPORT
; 1685 :         else {
; 1686 :           AddLineQueueX("mov rcx, %q", hll->maxcase64);

	mov	rdx, QWORD PTR [rbx+128]
	lea	rcx, OFFSET FLAT:$SG11844
	call	AddLineQueueX

; 1687 :           AddLineQueueX("cmp rax, rcx");

	lea	rcx, OFFSET FLAT:$SG11845
	call	AddLineQueueX

; 1688 :           AddLineQueueX("ja  %s", GetLabelStr(hll->labels[LDEF], buff));

	mov	r8d, DWORD PTR [rbx+52]
	lea	rdx, OFFSET FLAT:$SG11101
	lea	rcx, QWORD PTR buff$[rsp]
	call	sprintf
	lea	rdx, QWORD PTR buff$[rsp]
	lea	rcx, OFFSET FLAT:$SG11846
	call	AddLineQueueX

; 1689 :           AddLineQueueX("mov rcx, %q", hll->mincase64);

	mov	rdx, QWORD PTR [rbx+136]
	lea	rcx, OFFSET FLAT:$SG11847
	call	AddLineQueueX

; 1690 :           AddLineQueueX("sub rax, rcx");

	lea	rcx, OFFSET FLAT:$SG11848
	call	AddLineQueueX

; 1691 :           AddLineQueueX("jc  %s", GetLabelStr(hll->labels[LDEF], buff));

	mov	r8d, DWORD PTR [rbx+52]
	lea	rdx, OFFSET FLAT:$SG11101
	lea	rcx, QWORD PTR buff$[rsp]
	call	sprintf
	lea	rcx, OFFSET FLAT:$SG11849
$LN346@HllEndDir:
	lea	rdx, QWORD PTR buff$[rsp]
	call	AddLineQueueX

; 1692 :         }
; 1693 : #endif
; 1694 :         if (ModuleInfo.Ofssize == USE32) {

	cmp	BYTE PTR ModuleInfo+404, 1

; 1695 :           AddLineQueueX("lea  edx,%s", GetLabelStr(hll->labels[LDATA2], buff));

	lea	rdx, OFFSET FLAT:$SG11101
	mov	r8d, DWORD PTR [rbx+60]
	lea	rcx, QWORD PTR buff$[rsp]
	jne	SHORT $LN66@HllEndDir
	call	sprintf
	lea	rdx, QWORD PTR buff$[rsp]
	lea	rcx, OFFSET FLAT:$SG11852
	call	AddLineQueueX

; 1696 :           AddLineQueueX("movzx  eax,BYTE PTR[edx+eax]");

	lea	rcx, OFFSET FLAT:$SG11853
	call	AddLineQueueX

; 1697 :           AddLineQueueX("lea  edx,%s", GetLabelStr(hll->labels[LDATA1], buff));

	mov	r8d, DWORD PTR [rbx+56]
	lea	rdx, OFFSET FLAT:$SG11101
	lea	rcx, QWORD PTR buff$[rsp]
	call	sprintf
	lea	rdx, QWORD PTR buff$[rsp]
	lea	rcx, OFFSET FLAT:$SG11854
	call	AddLineQueueX

; 1698 :           AddLineQueueX("jmp  dword ptr[edx+eax*4]");

	lea	rcx, OFFSET FLAT:$SG11855
	call	AddLineQueueX

; 1699 :         }

	jmp	$LN72@HllEndDir
$LN66@HllEndDir:

; 1700 : #if AMD64_SUPPORT
; 1701 :         else {
; 1702 :           AddLineQueueX("lea  rdx,%s", GetLabelStr(hll->labels[LDATA2], buff));

	call	sprintf
	lea	rdx, QWORD PTR buff$[rsp]
	lea	rcx, OFFSET FLAT:$SG11856
	call	AddLineQueueX

; 1703 :           AddLineQueueX("movzx  rax,byte ptr[rdx+rax]");

	lea	rcx, OFFSET FLAT:$SG11857
	call	AddLineQueueX

; 1704 :           AddLineQueueX("lea  rdx,%s", GetLabelStr(hll->labels[LDATA1], buff));

	mov	r8d, DWORD PTR [rbx+56]
	lea	rdx, OFFSET FLAT:$SG11101
	lea	rcx, QWORD PTR buff$[rsp]
	call	sprintf
	lea	rdx, QWORD PTR buff$[rsp]
	lea	rcx, OFFSET FLAT:$SG11858
	call	AddLineQueueX

; 1705 :           AddLineQueueX("jmp  qword ptr[rdx+rax*8]");

	lea	rcx, OFFSET FLAT:$SG11859
	call	AddLineQueueX

; 1706 :         }
; 1707 : #endif
; 1708 :       }

	jmp	$LN72@HllEndDir
$LN62@HllEndDir:

; 1709 :       /* simple binary tree
; 1710 :       while (low <= high) {
; 1711 :       int mid = (low + high) / 2;
; 1712 :       if (hll->pcases[mid] == hll->casecnt)
; 1713 :       return mid;
; 1714 :       else if (hll->pcases[mid] < x)
; 1715 :       low = mid + 1;
; 1716 :       else high = mid - 1;
; 1717 :       }*/
; 1718 :       else if (hll->cflag == 5) {

	cmp	al, 5
	jne	$LN72@HllEndDir

; 1719 :         if (ModuleInfo.Ofssize == USE32) {

	cmp	BYTE PTR ModuleInfo+404, 1
	jne	$LN69@HllEndDir

; 1720 :           AddLineQueueX("push	ebx");

	lea	rcx, OFFSET FLAT:$SG11863
	call	AddLineQueueX

; 1721 :           AddLineQueueX("push	esi");

	lea	rcx, OFFSET FLAT:$SG11864
	call	AddLineQueueX

; 1722 :           AddLineQueueX("push	edi");

	lea	rcx, OFFSET FLAT:$SG11865
	call	AddLineQueueX

; 1723 :           AddLineQueueX("mov     esi,eax");

	lea	rcx, OFFSET FLAT:$SG11866
	call	AddLineQueueX

; 1724 :           AddLineQueueX("mov     ebx,%d", hll->casecnt - 1);//int high = len - 1;

	mov	edx, DWORD PTR [rbx+92]
	lea	rcx, OFFSET FLAT:$SG11867
	dec	edx
	call	AddLineQueueX

; 1725 :           AddLineQueueX("xor     ecx,ecx");//int low = 0;

	lea	rcx, OFFSET FLAT:$SG11868
	call	AddLineQueueX

; 1726 :           AddLineQueueX("lea     edi,%s", GetLabelStr(hll->labels[LDATA2], buff));//int hll->pcases

	mov	r8d, DWORD PTR [rbx+60]
	lea	rdx, OFFSET FLAT:$SG11101
	lea	rcx, QWORD PTR buff$[rsp]
	call	sprintf
	lea	rdx, QWORD PTR buff$[rsp]
	lea	rcx, OFFSET FLAT:$SG11869
	call	AddLineQueueX

; 1727 :           AddLineQueueX("test    ebx,ebx");//while (low <= high) {

	lea	rcx, OFFSET FLAT:$SG11870
	call	AddLineQueueX

; 1728 :           AddLineQueueX("js      %s", GetLabelStr(hll->labels[LDEF], buff));

	mov	r8d, DWORD PTR [rbx+52]
	lea	rdx, OFFSET FLAT:$SG11101
	lea	rcx, QWORD PTR buff$[rsp]
	call	sprintf
	lea	rcx, OFFSET FLAT:$SG11871

; 1729 :         }

	jmp	$LN345@HllEndDir
$LN69@HllEndDir:

; 1730 : #if AMD64_SUPPORT
; 1731 :         else {
; 1732 :           if (hll->csize == 4) {

	cmp	BYTE PTR [rbx+102], 4
	jne	SHORT $LN71@HllEndDir

; 1733 :             AddLineQueueX("mov     r8d,eax");

	lea	rcx, OFFSET FLAT:$SG11874
	call	AddLineQueueX

; 1734 :             AddLineQueueX("mov     r10d,%d", hll->casecnt - 1);//int high = len - 1;

	mov	edx, DWORD PTR [rbx+92]
	lea	rcx, OFFSET FLAT:$SG11875
	dec	edx
	call	AddLineQueueX

; 1735 :             AddLineQueueX("xor     r9d,r9d");//int low = 0;

	lea	rcx, OFFSET FLAT:$SG11876
	call	AddLineQueueX

; 1736 :             AddLineQueueX("lea     r11,%s", GetLabelStr(hll->labels[LDATA2], buff));//int hll->pcases

	mov	r8d, DWORD PTR [rbx+60]
	lea	rdx, OFFSET FLAT:$SG11101
	lea	rcx, QWORD PTR buff$[rsp]
	call	sprintf
	lea	rdx, QWORD PTR buff$[rsp]
	lea	rcx, OFFSET FLAT:$SG11877
	call	AddLineQueueX

; 1737 :             AddLineQueueX("test    r10d,r10d");//while (low <= high) {

	lea	rcx, OFFSET FLAT:$SG11878
	call	AddLineQueueX

; 1738 :             AddLineQueueX("js      %s", GetLabelStr(hll->labels[LDEF], buff));

	mov	r8d, DWORD PTR [rbx+52]
	lea	rdx, OFFSET FLAT:$SG11101
	lea	rcx, QWORD PTR buff$[rsp]
	call	sprintf
	lea	rcx, OFFSET FLAT:$SG11879

; 1739 :           }

	jmp	SHORT $LN345@HllEndDir
$LN71@HllEndDir:

; 1740 :           else {
; 1741 :             AddLineQueueX("mov     r8,rax");

	lea	rcx, OFFSET FLAT:$SG11880
	call	AddLineQueueX

; 1742 :             AddLineQueueX("mov     r10d,%d", hll->casecnt - 1);//int high = len - 1;

	mov	edx, DWORD PTR [rbx+92]
	lea	rcx, OFFSET FLAT:$SG11881
	dec	edx
	call	AddLineQueueX

; 1743 :             AddLineQueueX("xor     r9d,r9d");//int low = 0;

	lea	rcx, OFFSET FLAT:$SG11882
	call	AddLineQueueX

; 1744 :             AddLineQueueX("lea     r11,%s", GetLabelStr(hll->labels[LDATA2], buff));//int hll->pcases

	mov	r8d, DWORD PTR [rbx+60]
	lea	rdx, OFFSET FLAT:$SG11101
	lea	rcx, QWORD PTR buff$[rsp]
	call	sprintf
	lea	rdx, QWORD PTR buff$[rsp]
	lea	rcx, OFFSET FLAT:$SG11883
	call	AddLineQueueX

; 1745 :             AddLineQueueX("test    r10,r10");//while (low <= high) {

	lea	rcx, OFFSET FLAT:$SG11884
	call	AddLineQueueX

; 1746 :             AddLineQueueX("js      %s", GetLabelStr(hll->labels[LDEF], buff));

	mov	r8d, DWORD PTR [rbx+52]
	lea	rdx, OFFSET FLAT:$SG11101
	lea	rcx, QWORD PTR buff$[rsp]
	call	sprintf
	lea	rcx, OFFSET FLAT:$SG11885
$LN345@HllEndDir:
	lea	rdx, QWORD PTR buff$[rsp]
	call	AddLineQueueX
$LN72@HllEndDir:

; 1747 :           }
; 1748 :         }
; 1749 : #endif
; 1750 :       }
; 1751 :     } //end if Parse_Pass
; 1752 :     AddLineQueueX("%s" LABELQUAL, GetLabelStr(hll->labels[LTOP], buff));

	mov	r8d, DWORD PTR [rbx+64]
	lea	rdx, OFFSET FLAT:$SG11101
	lea	rcx, QWORD PTR buff$[rsp]
	call	sprintf
	lea	rdx, QWORD PTR buff$[rsp]
	lea	rcx, OFFSET FLAT:$SG11886
	call	AddLineQueueX

; 1753 :     if (Parse_Pass) {

	cmp	DWORD PTR Parse_Pass, r15d
	je	$LN78@HllEndDir

; 1754 :       if (hll->cflag == 5) {

	cmp	BYTE PTR [rbx+101], 5
	jne	$LN78@HllEndDir

; 1755 :         if (ModuleInfo.Ofssize == USE32) {

	cmp	BYTE PTR ModuleInfo+404, 1
	jne	$LN75@HllEndDir

; 1756 :           AddLineQueueX("lea     eax,[ecx + ebx]");//int eax = (ecx + ebx) / 2;

	lea	rcx, OFFSET FLAT:$SG11891
	call	AddLineQueueX

; 1757 :           AddLineQueueX("cdq");

	lea	rcx, OFFSET FLAT:$SG11892
	call	AddLineQueueX

; 1758 :           AddLineQueueX("sub     eax,edx");

	lea	rcx, OFFSET FLAT:$SG11893
	call	AddLineQueueX

; 1759 :           AddLineQueueX("sar     eax,1");

	lea	rcx, OFFSET FLAT:$SG11894
	call	AddLineQueueX

; 1760 :           AddLineQueueX("cmp     [edi+eax*4],esi");

	lea	rcx, OFFSET FLAT:$SG11895
	call	AddLineQueueX

; 1761 :           AddLineQueueX("je  %s", GetLabelStr(hll->labels[LJUMP], buff));

	mov	r8d, DWORD PTR [rbx+68]
	lea	rdx, OFFSET FLAT:$SG11101
	lea	rcx, QWORD PTR buff$[rsp]
	call	sprintf
	lea	rdx, QWORD PTR buff$[rsp]
	lea	rcx, OFFSET FLAT:$SG11896
	call	AddLineQueueX

; 1762 :           AddLineQueueX("jge %s", GetLabelStr(hll->labels[LSKIP], buff));//else if (hll->pcases[mid] < hll->casecnt) 

	mov	r8d, DWORD PTR [rbx+44]
	lea	rdx, OFFSET FLAT:$SG11101
	lea	rcx, QWORD PTR buff$[rsp]
	call	sprintf
	lea	rdx, QWORD PTR buff$[rsp]
	lea	rcx, OFFSET FLAT:$SG11897
	call	AddLineQueueX

; 1763 :           AddLineQueueX("lea     ecx,[eax+1]");                          //low = mid + 1

	lea	rcx, OFFSET FLAT:$SG11898
	call	AddLineQueueX

; 1764 :           AddLineQueueX("jmp %s", GetLabelStr(hll->labels[LCONT], buff));

	mov	r8d, DWORD PTR [rbx+48]
	lea	rdx, OFFSET FLAT:$SG11101
	lea	rcx, QWORD PTR buff$[rsp]
	call	sprintf
	lea	rcx, OFFSET FLAT:$SG11899

; 1765 :         }

	jmp	$LN347@HllEndDir
$LN75@HllEndDir:

; 1766 : #if AMD64_SUPPORT
; 1767 :         else {
; 1768 :           if (hll->csize == 4) {

	cmp	BYTE PTR [rbx+102], 4
	jne	$LN77@HllEndDir

; 1769 :             AddLineQueueX("lea     eax,[r10+r9]");//int mid = (low + high) / 2;

	lea	rcx, OFFSET FLAT:$SG11902
	call	AddLineQueueX

; 1770 :             AddLineQueueX("cdq");

	lea	rcx, OFFSET FLAT:$SG11903
	call	AddLineQueueX

; 1771 :             AddLineQueueX("sub     eax,edx");

	lea	rcx, OFFSET FLAT:$SG11904
	call	AddLineQueueX

; 1772 :             AddLineQueueX("sar     eax,1");

	lea	rcx, OFFSET FLAT:$SG11905
	call	AddLineQueueX

; 1773 :             AddLineQueueX("movsxd  rcx,eax");//if (hll->pcases[mid] == x) return mid;

	lea	rcx, OFFSET FLAT:$SG11906
	call	AddLineQueueX

; 1774 :             AddLineQueueX("cmp     [r11+rcx*4],r8d");

	lea	rcx, OFFSET FLAT:$SG11907
	call	AddLineQueueX

; 1775 :             AddLineQueueX("je  %s", GetLabelStr(hll->labels[LJUMP], buff));

	mov	r8d, DWORD PTR [rbx+68]
	lea	rdx, OFFSET FLAT:$SG11101
	lea	rcx, QWORD PTR buff$[rsp]
	call	sprintf
	lea	rdx, QWORD PTR buff$[rsp]
	lea	rcx, OFFSET FLAT:$SG11908
	call	AddLineQueueX

; 1776 :             AddLineQueueX("jge %s", GetLabelStr(hll->labels[LSKIP], buff));//else if (hll->pcases[mid] < hll->casecnt) 

	mov	r8d, DWORD PTR [rbx+44]
	lea	rdx, OFFSET FLAT:$SG11101
	lea	rcx, QWORD PTR buff$[rsp]
	call	sprintf
	lea	rdx, QWORD PTR buff$[rsp]
	lea	rcx, OFFSET FLAT:$SG11909
	call	AddLineQueueX

; 1777 :             AddLineQueueX("lea     r9d,[rax+1]");                          //low = mid + 1

	lea	rcx, OFFSET FLAT:$SG11910
	call	AddLineQueueX

; 1778 :             AddLineQueueX("jmp %s", GetLabelStr(hll->labels[LCONT], buff));

	mov	r8d, DWORD PTR [rbx+48]
	lea	rdx, OFFSET FLAT:$SG11101
	lea	rcx, QWORD PTR buff$[rsp]
	call	sprintf
	lea	rcx, OFFSET FLAT:$SG11911

; 1779 :           }

	jmp	$LN347@HllEndDir
$LN77@HllEndDir:

; 1780 :           else {
; 1781 :             AddLineQueueX("lea     rax,[r10+r9]");//int mid = (low + high) / 2;

	lea	rcx, OFFSET FLAT:$SG11912
	call	AddLineQueueX

; 1782 :             AddLineQueueX("cdq");

	lea	rcx, OFFSET FLAT:$SG11913
	call	AddLineQueueX

; 1783 :             AddLineQueueX("sub     rax,rdx");

	lea	rcx, OFFSET FLAT:$SG11914
	call	AddLineQueueX

; 1784 :             AddLineQueueX("sar     rax,1");

	lea	rcx, OFFSET FLAT:$SG11915
	call	AddLineQueueX

; 1785 :             AddLineQueueX("mov     rcx,rax");//if (hll->pcases[mid] == x) return mid;

	lea	rcx, OFFSET FLAT:$SG11916
	call	AddLineQueueX

; 1786 :             AddLineQueueX("cmp     [r11+rcx*8],r8");

	lea	rcx, OFFSET FLAT:$SG11917
	call	AddLineQueueX

; 1787 :             AddLineQueueX("je  %s", GetLabelStr(hll->labels[LJUMP], buff));

	mov	r8d, DWORD PTR [rbx+68]
	lea	rdx, OFFSET FLAT:$SG11101
	lea	rcx, QWORD PTR buff$[rsp]
	call	sprintf
	lea	rdx, QWORD PTR buff$[rsp]
	lea	rcx, OFFSET FLAT:$SG11918
	call	AddLineQueueX

; 1788 :             AddLineQueueX("jge %s", GetLabelStr(hll->labels[LSKIP], buff));//else if (hll->pcases[mid] < hll->casecnt) 

	mov	r8d, DWORD PTR [rbx+44]
	lea	rdx, OFFSET FLAT:$SG11101
	lea	rcx, QWORD PTR buff$[rsp]
	call	sprintf
	lea	rdx, QWORD PTR buff$[rsp]
	lea	rcx, OFFSET FLAT:$SG11919
	call	AddLineQueueX

; 1789 :             AddLineQueueX("lea     r9,[rax+1]");                          //low = mid + 1

	lea	rcx, OFFSET FLAT:$SG11920
	call	AddLineQueueX

; 1790 :             AddLineQueueX("jmp %s", GetLabelStr(hll->labels[LCONT], buff));

	mov	r8d, DWORD PTR [rbx+48]
	lea	rdx, OFFSET FLAT:$SG11101
	lea	rcx, QWORD PTR buff$[rsp]
	call	sprintf
	lea	rcx, OFFSET FLAT:$SG11921
$LN347@HllEndDir:
	lea	rdx, QWORD PTR buff$[rsp]
	call	AddLineQueueX
$LN78@HllEndDir:

; 1791 : 
; 1792 :           }
; 1793 :         }
; 1794 : #endif
; 1795 :       }
; 1796 :     }
; 1797 :     AddLineQueueX("%s" LABELQUAL, GetLabelStr(hll->labels[LJUMP], buff));

	mov	r8d, DWORD PTR [rbx+68]
	lea	rdx, OFFSET FLAT:$SG11101
	lea	rcx, QWORD PTR buff$[rsp]
	call	sprintf
	lea	rdx, QWORD PTR buff$[rsp]
	lea	rcx, OFFSET FLAT:$SG11922
	call	AddLineQueueX

; 1798 :     if (Parse_Pass) {

	cmp	DWORD PTR Parse_Pass, r15d
	je	$LN82@HllEndDir

; 1799 :       if (hll->cflag == 5) {

	cmp	BYTE PTR [rbx+101], 5
	jne	SHORT $LN82@HllEndDir

; 1800 :         if (ModuleInfo.Ofssize == USE32) {

	cmp	BYTE PTR ModuleInfo+404, 1

; 1801 :           AddLineQueueX("lea edx,%s", GetLabelStr(hll->labels[LDATA1], buff));

	lea	rdx, OFFSET FLAT:$SG11101
	mov	r8d, DWORD PTR [rbx+56]
	lea	rcx, QWORD PTR buff$[rsp]
	jne	SHORT $LN81@HllEndDir
	call	sprintf
	lea	rdx, QWORD PTR buff$[rsp]
	lea	rcx, OFFSET FLAT:$SG11927
	call	AddLineQueueX

; 1802 :           AddLineQueueX("pop	edi");

	lea	rcx, OFFSET FLAT:$SG11928
	call	AddLineQueueX

; 1803 :           AddLineQueueX("pop	esi");

	lea	rcx, OFFSET FLAT:$SG11929
	call	AddLineQueueX

; 1804 :           AddLineQueueX("pop	ebx");

	lea	rcx, OFFSET FLAT:$SG11930
	call	AddLineQueueX

; 1805 :           AddLineQueueX("jmp dword ptr[edx+eax*4]");

	lea	rcx, OFFSET FLAT:$SG11931

; 1806 :         }

	jmp	SHORT $LN348@HllEndDir
$LN81@HllEndDir:

; 1807 : #if AMD64_SUPPORT
; 1808 :         else {
; 1809 :           AddLineQueueX("lea     r11,%s", GetLabelStr(hll->labels[LDATA1], buff));

	call	sprintf
	lea	rdx, QWORD PTR buff$[rsp]
	lea	rcx, OFFSET FLAT:$SG11932
	call	AddLineQueueX

; 1810 :           AddLineQueueX("jmp     qword ptr[r11+rcx*8]");

	lea	rcx, OFFSET FLAT:$SG11933
$LN348@HllEndDir:
	call	AddLineQueueX
$LN82@HllEndDir:

; 1811 :         }
; 1812 : #endif
; 1813 :       }
; 1814 :     }
; 1815 :     AddLineQueueX("%s" LABELQUAL, GetLabelStr(hll->labels[LSKIP], buff));

	mov	r8d, DWORD PTR [rbx+44]
	lea	rdx, OFFSET FLAT:$SG11101
	lea	rcx, QWORD PTR buff$[rsp]
	call	sprintf
	lea	rdx, QWORD PTR buff$[rsp]
	lea	rcx, OFFSET FLAT:$SG11934
	call	AddLineQueueX

; 1816 :     if (Parse_Pass) {

	cmp	DWORD PTR Parse_Pass, r15d
	je	SHORT $LN88@HllEndDir

; 1817 :       if (hll->cflag == 5) {

	cmp	BYTE PTR [rbx+101], 5
	jne	SHORT $LN88@HllEndDir

; 1818 :         if (ModuleInfo.Ofssize == USE32)

	cmp	BYTE PTR ModuleInfo+404, 1
	jne	SHORT $LN85@HllEndDir

; 1819 :           AddLineQueueX("lea     ebx,[eax-1]");//else high = mid - 1;

	lea	rcx, OFFSET FLAT:$SG11939
	jmp	SHORT $LN349@HllEndDir
$LN85@HllEndDir:

; 1820 : #if AMD64_SUPPORT
; 1821 :         else {
; 1822 :           if (hll->csize == 4)

	cmp	BYTE PTR [rbx+102], 4

; 1823 :             AddLineQueueX("lea     r10d,[rax-1]");//else high = mid - 1;

	lea	rcx, OFFSET FLAT:$SG11942
	je	SHORT $LN349@HllEndDir

; 1824 :           else
; 1825 :             AddLineQueueX("lea     r10,[rax-1]");//else high = mid - 1;

	lea	rcx, OFFSET FLAT:$SG11943
$LN349@HllEndDir:
	call	AddLineQueueX
$LN88@HllEndDir:

; 1826 :         }
; 1827 : #endif
; 1828 :       }
; 1829 :     }
; 1830 :     AddLineQueueX("%s" LABELQUAL, GetLabelStr(hll->labels[LCONT], buff));

	mov	r8d, DWORD PTR [rbx+48]
	lea	rdx, OFFSET FLAT:$SG11101
	lea	rcx, QWORD PTR buff$[rsp]
	call	sprintf
	lea	rdx, QWORD PTR buff$[rsp]
	lea	rcx, OFFSET FLAT:$SG11944
	call	AddLineQueueX

; 1831 :     if (Parse_Pass) {

	cmp	DWORD PTR Parse_Pass, r15d
	je	$LN92@HllEndDir

; 1832 :       if (hll->cflag == 5) {

	cmp	BYTE PTR [rbx+101], 5
	jne	$LN92@HllEndDir

; 1833 :         if (ModuleInfo.Ofssize == USE32) {

	cmp	BYTE PTR ModuleInfo+404, 1
	jne	SHORT $LN91@HllEndDir

; 1834 :           AddLineQueueX("cmp  ecx,ebx");

	lea	rcx, OFFSET FLAT:$SG11949
	call	AddLineQueueX

; 1835 :           AddLineQueueX("jle %s", GetLabelStr(hll->labels[LTOP], buff));

	mov	r8d, DWORD PTR [rbx+64]
	lea	rdx, OFFSET FLAT:$SG11101
	lea	rcx, QWORD PTR buff$[rsp]
	call	sprintf
	lea	rdx, QWORD PTR buff$[rsp]
	lea	rcx, OFFSET FLAT:$SG11950
	call	AddLineQueueX

; 1836 :           AddLineQueueX("pop	edi");

	lea	rcx, OFFSET FLAT:$SG11951
	call	AddLineQueueX

; 1837 :           AddLineQueueX("pop	esi");

	lea	rcx, OFFSET FLAT:$SG11952
	call	AddLineQueueX

; 1838 :           AddLineQueueX("pop	ebx");

	lea	rcx, OFFSET FLAT:$SG11953
	call	AddLineQueueX

; 1839 :           AddLineQueueX("jmp  %s", GetLabelStr(hll->labels[LDEF], buff));

	mov	r8d, DWORD PTR [rbx+52]
	lea	rdx, OFFSET FLAT:$SG11101
	lea	rcx, QWORD PTR buff$[rsp]
	call	sprintf
	lea	rcx, OFFSET FLAT:$SG11954

; 1840 :         }

	jmp	SHORT $LN350@HllEndDir
$LN91@HllEndDir:

; 1841 : #if AMD64_SUPPORT
; 1842 :         else
; 1843 :         {
; 1844 :           if (hll->csize == 4)

	cmp	BYTE PTR [rbx+102], 4

; 1845 :             AddLineQueueX("cmp  r9d,r10d");

	lea	rcx, OFFSET FLAT:$SG11957
	je	SHORT $LN351@HllEndDir

; 1846 :           else
; 1847 :             AddLineQueueX("cmp  r9,r10");

	lea	rcx, OFFSET FLAT:$SG11958
$LN351@HllEndDir:
	call	AddLineQueueX

; 1848 : 
; 1849 :           AddLineQueueX("jle %s", GetLabelStr(hll->labels[LTOP], buff));

	mov	r8d, DWORD PTR [rbx+64]
	lea	rdx, OFFSET FLAT:$SG11101
	lea	rcx, QWORD PTR buff$[rsp]
	call	sprintf
	lea	rdx, QWORD PTR buff$[rsp]
	lea	rcx, OFFSET FLAT:$SG11959
	call	AddLineQueueX

; 1850 :           AddLineQueueX("jmp  %s", GetLabelStr(hll->labels[LDEF], buff));

	mov	r8d, DWORD PTR [rbx+52]
	lea	rdx, OFFSET FLAT:$SG11101
	lea	rcx, QWORD PTR buff$[rsp]
	call	sprintf
	lea	rcx, OFFSET FLAT:$SG11960
$LN350@HllEndDir:
	lea	rdx, QWORD PTR buff$[rsp]
	call	AddLineQueueX
$LN92@HllEndDir:

; 1851 :         }
; 1852 : #endif
; 1853 :       }
; 1854 :     }
; 1855 :     AddLineQueueX("%s" LABELQUAL, GetLabelStr(hll->labels[LDATA1], buff));

	mov	r8d, DWORD PTR [rbx+56]
	lea	rdx, OFFSET FLAT:$SG11101
	lea	rcx, QWORD PTR buff$[rsp]
	call	sprintf
	lea	rdx, QWORD PTR buff$[rsp]
	lea	rcx, OFFSET FLAT:$SG11961
	call	AddLineQueueX

; 1856 :     if (hll->cflag > 3) {

	cmp	BYTE PTR [rbx+101], 3
	jle	$LN97@HllEndDir

; 1857 :       if (ModuleInfo.Ofssize == USE32) {

	cmp	BYTE PTR ModuleInfo+404, 1

; 1858 :         for (j = 0; j < hll->casecnt; j++)

	mov	edi, r15d
	jne	SHORT $LN96@HllEndDir
	cmp	DWORD PTR [rbx+92], r15d
	jbe	SHORT $LN5@HllEndDir
	mov	rsi, r15
	npad	3
$LL6@HllEndDir:

; 1859 :           AddLineQueueX(" dd %s", GetLabelStr(hll->plabels[j], buff));

	mov	rax, QWORD PTR [rbx+24]
	lea	rdx, OFFSET FLAT:$SG11101
	lea	rcx, QWORD PTR buff$[rsp]
	movzx	r8d, WORD PTR [rsi+rax]
	call	sprintf
	lea	rdx, QWORD PTR buff$[rsp]
	lea	rcx, OFFSET FLAT:$SG11965
	call	AddLineQueueX
	inc	edi
	lea	rsi, QWORD PTR [rsi+2]
	cmp	edi, DWORD PTR [rbx+92]
	jb	SHORT $LL6@HllEndDir
$LN5@HllEndDir:

; 1860 :         AddLineQueueX(" dd %s", GetLabelStr(hll->labels[LDEF], buff));

	mov	r8d, DWORD PTR [rbx+52]
	lea	rdx, OFFSET FLAT:$SG11101
	lea	rcx, QWORD PTR buff$[rsp]
	call	sprintf
	lea	rcx, OFFSET FLAT:$SG11966

; 1861 :       }

	jmp	SHORT $LN352@HllEndDir
$LN96@HllEndDir:

; 1862 : #if AMD64_SUPPORT
; 1863 :       else {
; 1864 :         for (j = 0; j < hll->casecnt; j++)

	cmp	DWORD PTR [rbx+92], edi
	jbe	SHORT $LN8@HllEndDir
	mov	rsi, r15
	npad	4
$LL9@HllEndDir:

; 1865 :           AddLineQueueX(" dq %s", GetLabelStr(hll->plabels[j], buff));

	mov	rax, QWORD PTR [rbx+24]
	lea	rdx, OFFSET FLAT:$SG11101
	lea	rcx, QWORD PTR buff$[rsp]
	movzx	r8d, WORD PTR [rsi+rax]
	call	sprintf
	lea	rdx, QWORD PTR buff$[rsp]
	lea	rcx, OFFSET FLAT:$SG11967
	call	AddLineQueueX
	inc	edi
	lea	rsi, QWORD PTR [rsi+2]
	cmp	edi, DWORD PTR [rbx+92]
	jb	SHORT $LL9@HllEndDir
$LN8@HllEndDir:

; 1866 :         AddLineQueueX(" dq %s", GetLabelStr(hll->labels[LDEF], buff));

	mov	r8d, DWORD PTR [rbx+52]
	lea	rdx, OFFSET FLAT:$SG11101
	lea	rcx, QWORD PTR buff$[rsp]
	call	sprintf
	lea	rcx, OFFSET FLAT:$SG11968
$LN352@HllEndDir:
	lea	rdx, QWORD PTR buff$[rsp]
	call	AddLineQueueX
$LN97@HllEndDir:

; 1867 :       }
; 1868 : #endif
; 1869 :     }
; 1870 :    // OutputByte(unsigned char byte)
; 1871 :    //   OutputBinBytes(unsigned char* pBytes, uint_32 len)
; 1872 : 
; 1873 :     AddLineQueueX("%s" LABELQUAL, GetLabelStr(hll->labels[LDATA2], buff));

	mov	r8d, DWORD PTR [rbx+60]
	lea	rdx, OFFSET FLAT:$SG11101
	lea	rcx, QWORD PTR buff$[rsp]
	call	sprintf
	lea	rdx, QWORD PTR buff$[rsp]
	lea	rcx, OFFSET FLAT:$SG11969
	call	AddLineQueueX

; 1874 :     if (hll->cflag == 4) {

	cmp	BYTE PTR [rbx+101], 4
	jne	$LN16@HllEndDir

; 1875 :       n = 0;
; 1876 :       if (hll->csize == 4) {

	cmp	BYTE PTR [rbx+102], 4
	mov	edi, r15d
	mov	QWORD PTR [rsp+2160], r12

; 1877 :         for (j = 0; j < hll->casecnt; j++) {

	mov	r12d, r15d
	mov	QWORD PTR [rsp+2152], r13
	mov	QWORD PTR [rsp+2144], r14
	jne	SHORT $LN99@HllEndDir
	cmp	DWORD PTR [rbx+92], r15d
	jbe	$LN343@HllEndDir
	mov	r13, r15
	npad	3
$LL12@HllEndDir:

; 1878 :           temp = hll->pcases[j] - hll->mincase;

	mov	rax, QWORD PTR [rbx+8]
	mov	r14d, DWORD PTR [rax+r13]
	sub	r14d, DWORD PTR [rbx+112]

; 1879 :           //temp -= hll->mincase;
; 1880 :           while (n < temp) {

	cmp	edi, r14d
	jge	SHORT $LN14@HllEndDir

; 1878 :           temp = hll->pcases[j] - hll->mincase;

	mov	eax, r14d
	sub	eax, edi
	mov	esi, eax

; 1879 :           //temp -= hll->mincase;
; 1880 :           while (n < temp) {

	add	edi, eax
	npad	6
$LL13@HllEndDir:

; 1881 :             AddLineQueueX(" db %d", temp);

	mov	edx, r14d
	lea	rcx, OFFSET FLAT:$SG11973
	call	AddLineQueueX
	sub	rsi, 1
	jne	SHORT $LL13@HllEndDir
$LN14@HllEndDir:

; 1882 :             n++;
; 1883 :           }
; 1884 :           AddLineQueueX(" db %d", j);

	mov	edx, r12d
	lea	rcx, OFFSET FLAT:$SG11974
	call	AddLineQueueX

; 1885 :           n++;

	inc	edi
	inc	r12d
	add	r13, 4
	cmp	r12d, DWORD PTR [rbx+92]
	jb	SHORT $LL12@HllEndDir

; 1886 :         }
; 1887 :       }

	jmp	SHORT $LN343@HllEndDir
$LN99@HllEndDir:

; 1888 : #if AMD64_SUPPORT
; 1889 :       else {
; 1890 :         for (j = 0; j < hll->casecnt; j++) {

	cmp	DWORD PTR [rbx+92], edi
	jbe	SHORT $LN343@HllEndDir
	mov	r13, r15
	npad	3
$LL17@HllEndDir:

; 1891 :           temp = (int) hll->pcases64[j]- hll->mincase64;

	mov	rax, QWORD PTR [rbx+16]
	mov	ecx, DWORD PTR [rax+r13]
	sub	ecx, DWORD PTR [rbx+136]

; 1892 :           while (n < temp) {

	cmp	edi, ecx
	jge	SHORT $LN19@HllEndDir

; 1891 :           temp = (int) hll->pcases64[j]- hll->mincase64;

	movsx	r14d, cl
	sub	ecx, edi
	mov	esi, ecx

; 1892 :           while (n < temp) {

	add	edi, ecx
	npad	4
$LL18@HllEndDir:

; 1893 :             AddLineQueueX(" db %d",(int_8)temp);

	mov	edx, r14d
	lea	rcx, OFFSET FLAT:$SG11975
	call	AddLineQueueX
	sub	rsi, 1
	jne	SHORT $LL18@HllEndDir
$LN19@HllEndDir:

; 1894 :             n++;
; 1895 :           }
; 1896 :           AddLineQueueX(" db %d", j);

	mov	edx, r12d
	lea	rcx, OFFSET FLAT:$SG11976
	call	AddLineQueueX

; 1897 :           n++;

	inc	edi
	inc	r12d
	add	r13, 8
	cmp	r12d, DWORD PTR [rbx+92]
	jb	SHORT $LL17@HllEndDir
$LN343@HllEndDir:
	mov	r13, QWORD PTR [rsp+2152]
	mov	r12, QWORD PTR [rsp+2160]
	mov	r14, QWORD PTR [rsp+2144]
$LN16@HllEndDir:

; 1898 :         }
; 1899 :       }
; 1900 : #endif
; 1901 :     }
; 1902 :     if (hll->cflag == 5) {

	cmp	BYTE PTR [rbx+101], 5
	jne	$LN339@HllEndDir

; 1903 :       n = 0;
; 1904 :       if (hll->csize == 4) {

	cmp	BYTE PTR [rbx+102], 4

; 1905 :         for (j = 0; j < hll->casecnt; j++) 

	mov	edi, r15d
	jne	SHORT $LN102@HllEndDir
	cmp	DWORD PTR [rbx+92], r15d
	jbe	$LN339@HllEndDir
	mov	rsi, r15
	npad	5
$LL22@HllEndDir:

; 1906 :           AddLineQueueX(" dd %d", hll->pcases[j]);

	mov	rax, QWORD PTR [rbx+8]
	lea	rcx, OFFSET FLAT:$SG11980
	mov	edx, DWORD PTR [rsi+rax]
	call	AddLineQueueX
	inc	edi
	lea	rsi, QWORD PTR [rsi+4]
	cmp	edi, DWORD PTR [rbx+92]
	jb	SHORT $LL22@HllEndDir

; 1907 :       }

	jmp	$LN339@HllEndDir
$LN102@HllEndDir:

; 1908 : #if AMD64_SUPPORT
; 1909 :       else {
; 1910 :         for (j = 0; j < hll->casecnt; j++)

	cmp	DWORD PTR [rbx+92], edi
	jbe	$LN339@HllEndDir
	mov	rsi, r15
	npad	1
$LL25@HllEndDir:

; 1911 :           AddLineQueueX(" dq %q", hll->pcases64[j]);

	mov	rdx, QWORD PTR [rbx+16]
	lea	rcx, OFFSET FLAT:$SG11981
	mov	rdx, QWORD PTR [rdx+rsi]
	call	AddLineQueueX
	inc	edi
	lea	rsi, QWORD PTR [rsi+8]
	cmp	edi, DWORD PTR [rbx+92]
	jb	SHORT $LL25@HllEndDir

; 1912 :       }
; 1913 : #endif
; 1914 :     }
; 1915 :     if (hll->csize == 4) {
; 1916 :       LclFree(hll->pcases);
; 1917 :     }
; 1918 : #if AMD64_SUPPORT
; 1919 :     else
; 1920 :       LclFree(hll->pcases64);
; 1921 : #endif
; 1922 :       LclFree(hll->plabels);
; 1923 :     break;

	jmp	$LN339@HllEndDir
$LN106@HllEndDir:

; 1924 :   case T_DOT_ENDFOR:
; 1925 :     if (hll->cmd != HLL_FOR) {

	cmp	DWORD PTR [rbx+96], 4
	je	SHORT $LN107@HllEndDir

; 1926 :       DebugMsg(("HllEndDir: no .FOR on the hll stack\n"));
; 1927 :       EmitErr(BLOCK_NESTING_ERROR, tokenarray[i].string_ptr);

	movsxd	rdx, DWORD PTR i$[rbp-256]
	mov	ecx, 80					; 00000050H
	shl	rdx, 5
	mov	rdx, QWORD PTR [rdx+rdi+8]
	call	EmitErr

; 1928 :       return(ERROR);

	or	eax, -1
	jmp	$LN340@HllEndDir
$LN107@HllEndDir:

; 1929 :     }
; 1930 :     i++;

	inc	DWORD PTR i$[rbp-256]

; 1931 :     //Insert .CONTINUE label here if there is any 
; 1932 :     if (hll->labels[LCONT])

	mov	r8d, DWORD PTR [rbx+48]
	test	r8d, r8d
	je	SHORT $LN108@HllEndDir

; 1933 :       AddLineQueueX("%s" LABELQUAL, GetLabelStr(hll->labels[LCONT], buff));

	lea	rdx, OFFSET FLAT:$SG11101
	lea	rcx, QWORD PTR buff$[rsp]
	call	sprintf
	lea	rdx, QWORD PTR buff$[rsp]
	lea	rcx, OFFSET FLAT:$SG11987
	call	AddLineQueueX
$LN108@HllEndDir:

; 1934 :     //forever loop '.for (::)'
; 1935 :     if (hll->cmcnt == 0) goto adlabel;

	mov	edx, DWORD PTR [rbx+88]
	test	edx, edx
	je	$adlabel$356

; 1936 :     //If counters exist  
; 1937 :     else if (hll->counterlines[0]) {

	mov	r8, QWORD PTR [rbx+80]
	cmp	BYTE PTR [r8], r15b
	je	SHORT $LN111@HllEndDir

; 1938 :       //here we write counters
; 1939 :       if (hll->counterlines) {      //if there is something after second ':' expand it here

	test	r8, r8
	je	SHORT $LN113@HllEndDir

; 1940 :         ForInitAndNext(tokenarray, hll->cmcnt, hll->counterlines);

	mov	rcx, rdi
	call	ForInitAndNext
$LN113@HllEndDir:

; 1941 :         LclFree(hll->counterlines);
; 1942 :       }
; 1943 :       //first jump from the top happens here after the counters
; 1944 :       AddLineQueueX("%s" LABELQUAL, GetLabelStr(hll->labels[LSKIP], buff));

	mov	r8d, DWORD PTR [rbx+44]
	lea	rdx, OFFSET FLAT:$SG11101
	lea	rcx, QWORD PTR buff$[rsp]
	call	sprintf
	lea	rdx, QWORD PTR buff$[rsp]
	lea	rcx, OFFSET FLAT:$SG11993
	call	AddLineQueueX

; 1945 :       /* create test label */
; 1946 :       if (hll->labels[LTEST]) {

	mov	r8d, DWORD PTR [rbx+32]
	test	r8d, r8d
	je	SHORT $LN114@HllEndDir

; 1947 :         AddLineQueueX("%s" LABELQUAL, GetLabelStr(hll->labels[LTEST], buff));

	lea	rdx, OFFSET FLAT:$SG11101
	lea	rcx, QWORD PTR buff$[rsp]
	call	sprintf
	lea	rdx, QWORD PTR buff$[rsp]
	lea	rcx, OFFSET FLAT:$SG11995
	call	AddLineQueueX
$LN114@HllEndDir:

; 1948 :       }
; 1949 :       QueueTestLines(hll->condlines);

	mov	rcx, QWORD PTR [rbx+72]
	call	QueueTestLines

; 1950 :       LclFree(hll->condlines);
; 1951 :     }

	jmp	SHORT $LN112@HllEndDir
$LN111@HllEndDir:

; 1952 :     else
; 1953 :       AddLineQueueX(" jmp %s", GetLabelStr(hll->labels[LSTART], buff));

	mov	r8d, DWORD PTR [rbx+40]
	lea	rdx, OFFSET FLAT:$SG11101
	lea	rcx, QWORD PTR buff$[rsp]
	call	sprintf
	lea	rdx, QWORD PTR buff$[rsp]
	lea	rcx, OFFSET FLAT:$SG11996
	call	AddLineQueueX
$LN112@HllEndDir:

; 1954 :     if (!hll->cond)

	cmp	BYTE PTR [rbx+100], r15b
	jne	SHORT $LN115@HllEndDir
$adlabel$356:

; 1955 :       adlabel:
; 1956 :     AddLineQueueX(" jmp %s", GetLabelStr(hll->labels[LSTART], buff));

	mov	r8d, DWORD PTR [rbx+40]
	lea	rdx, OFFSET FLAT:$SG11101
	lea	rcx, QWORD PTR buff$[rsp]
	call	sprintf
	lea	rdx, QWORD PTR buff$[rsp]
	lea	rcx, OFFSET FLAT:$SG11998
	call	AddLineQueueX
$LN115@HllEndDir:

; 1957 :     tokenarray[i].token = T_FINAL;

	movsxd	rax, DWORD PTR i$[rbp-256]
	shl	rax, 5
	mov	BYTE PTR [rax+rdi], r15b

; 1958 :     break;

	jmp	$LN336@HllEndDir
$LN116@HllEndDir:

; 1959 :     //end of .ENDFOR
; 1960 :   case T_DOT_ENDW:
; 1961 :     if (hll->cmd != HLL_WHILE) {

	cmp	DWORD PTR [rbx+96], 1
	jne	$LN353@HllEndDir

; 1962 :       DebugMsg(("HllEndDir: no .WHILE on the hll stack\n"));
; 1963 :       return(EmitErr(BLOCK_NESTING_ERROR, tokenarray[i].string_ptr));
; 1964 :     }
; 1965 :     i++;

	inc	DWORD PTR i$[rbp-256]

; 1966 :     /* create test label */
; 1967 :     if (hll->labels[LTEST]) {

	mov	r8d, DWORD PTR [rbx+32]
	test	r8d, r8d
	je	SHORT $LN118@HllEndDir

; 1968 :       AddLineQueueX("%s" LABELQUAL, GetLabelStr(hll->labels[LTEST], buff));

	lea	rdx, OFFSET FLAT:$SG11101
	lea	rcx, QWORD PTR buff$[rsp]
	call	sprintf
	lea	rdx, QWORD PTR buff$[rsp]
	lea	rcx, OFFSET FLAT:$SG12002
	call	AddLineQueueX
$LN118@HllEndDir:

; 1969 :     }
; 1970 :     QueueTestLines(hll->condlines);

	mov	rcx, QWORD PTR [rbx+72]
	call	QueueTestLines

; 1971 :     LclFree(hll->condlines);
; 1972 :     break;

	jmp	$LN336@HllEndDir
$LN119@HllEndDir:

; 1973 :   case T_DOT_UNTILCXZ:
; 1974 :     if (hll->cmd != HLL_REPEAT) {

	cmp	DWORD PTR [rbx+96], 2
	jne	$LN353@HllEndDir

; 1975 :       DebugMsg(("HllEndDir: no .REPEAT on the hll stack\n"));
; 1976 :       return(EmitErr(BLOCK_NESTING_ERROR, tokenarray[i].string_ptr));
; 1977 :     }
; 1978 :     i++;

	mov	eax, DWORD PTR i$[rbp-256]
	inc	eax
	mov	DWORD PTR i$[rbp-256], eax

; 1979 :     if (hll->labels[LTEST]) /* v2.11: LTEST only needed if .CONTINUE has occured */

	mov	r8d, DWORD PTR [rbx+32]
	test	r8d, r8d
	je	SHORT $LN121@HllEndDir

; 1980 :       AddLineQueueX("%s" LABELQUAL, GetLabelStr(hll->labels[LTEST], buff));

	lea	rdx, OFFSET FLAT:$SG11101
	lea	rcx, QWORD PTR buff$[rsp]
	call	sprintf
	lea	rdx, QWORD PTR buff$[rsp]
	lea	rcx, OFFSET FLAT:$SG12006
	call	AddLineQueueX
	mov	eax, DWORD PTR i$[rbp-256]
$LN121@HllEndDir:

; 1981 : 
; 1982 :     /* read in optional (simple) expression */
; 1983 :     if (tokenarray[i].token != T_FINAL) {

	cdqe
	shl	rax, 5
	cmp	BYTE PTR [rax+rdi], r15b
	je	$LN122@HllEndDir

; 1984 :       rc = EvaluateHllExpression(hll, &i, tokenarray, LSTART, FALSE, buffer);

	lea	rax, QWORD PTR hllop$2[rsp]
	mov	QWORD PTR hllop$2[rsp], r15
	mov	QWORD PTR [rsp+48], rax
	lea	rdx, QWORD PTR i$[rbp-256]
	lea	rax, QWORD PTR buffer$[rsp]
	mov	DWORD PTR hllop$2[rsp+8], r15d
	mov	QWORD PTR [rsp+40], rax
	mov	r9d, 2
	mov	r8, rdi
	mov	BYTE PTR [rsp+32], r15b
	mov	rcx, rbx
	mov	BYTE PTR buffer$[rsp], r15b
	call	GetExpression
	cmp	eax, -1
	jne	SHORT $LN270@HllEndDir
	or	r15d, eax
	jmp	$LN336@HllEndDir
$LN270@HllEndDir:
	movsxd	rax, DWORD PTR i$[rbp-256]
	shl	rax, 5
	cmp	BYTE PTR [rax+rdi], r15b
	je	SHORT $LN333@HllEndDir
	mov	ecx, 199				; 000000c7H
	call	EmitError
	mov	r15d, eax

; 1985 :       if (rc == NOT_ERROR) {

	test	eax, eax
	jne	$LN336@HllEndDir
$LN333@HllEndDir:

; 1986 :         rc = CheckCXZLines(buffer);

	lea	rcx, QWORD PTR buffer$[rsp]
	call	CheckCXZLines
	mov	r15d, eax

; 1987 :         if (rc == NOT_ERROR)

	test	eax, eax
	jne	SHORT $LN125@HllEndDir

; 1988 :           QueueTestLines(buffer); /* write condition lines */

	lea	rdi, QWORD PTR buffer$[rsp]
	npad	5
$LL274@HllEndDir:
	mov	edx, 10
	mov	rcx, rdi
	mov	rsi, rdi
	call	strchr
	mov	rdi, rax
	test	rax, rax
	je	SHORT $LN276@HllEndDir
	mov	BYTE PTR [rax], 0
	inc	rdi
$LN276@HllEndDir:
	cmp	BYTE PTR [rsi], 0
	je	SHORT $LN277@HllEndDir
	mov	rcx, rsi
	call	AddLineQueue
$LN277@HllEndDir:
	test	rdi, rdi
	jne	SHORT $LL274@HllEndDir
	jmp	$LN339@HllEndDir
$LN125@HllEndDir:

; 1989 :         else
; 1990 :           EmitError(EXPR_TOO_COMPLEX_FOR_UNTILCXZ);

	mov	ecx, 191				; 000000bfH
	call	EmitError

; 1991 :       }
; 1992 :     }

	jmp	$LN336@HllEndDir
$LN122@HllEndDir:

; 1993 :     else {
; 1994 :       AddLineQueueX(JMPPREFIX "loop %s", GetLabelStr(hll->labels[LSTART], buff));

	mov	r8d, DWORD PTR [rbx+40]
	lea	rdx, OFFSET FLAT:$SG11101
	lea	rcx, QWORD PTR buff$[rsp]
	call	sprintf
	lea	rdx, QWORD PTR buff$[rsp]
	lea	rcx, OFFSET FLAT:$SG12012
	call	AddLineQueueX

; 1995 :     }
; 1996 :     break;

	jmp	$LN336@HllEndDir
$LN127@HllEndDir:

; 1997 :   case T_DOT_UNTIL:
; 1998 :     if (hll->cmd != HLL_REPEAT) {

	cmp	DWORD PTR [rbx+96], 2
	je	SHORT $LN128@HllEndDir
$LN353@HllEndDir:

; 1999 :       DebugMsg(("HllEndDir: no .REPEAT on the hll stack\n"));
; 2000 :       return(EmitErr(BLOCK_NESTING_ERROR, tokenarray[i].string_ptr));

	movsxd	rdx, DWORD PTR i$[rbp-256]
	mov	ecx, 80					; 00000050H
	shl	rdx, 5
	mov	rdx, QWORD PTR [rdx+rdi+8]
	call	EmitErr
	jmp	$LN340@HllEndDir
$LN128@HllEndDir:

; 2001 :     }
; 2002 :     i++;

	inc	DWORD PTR i$[rbp-256]

; 2003 :     if (hll->labels[LTEST]) /* v2.11: LTEST only needed if .CONTINUE has occured */

	mov	r8d, DWORD PTR [rbx+32]
	test	r8d, r8d
	je	SHORT $LN129@HllEndDir

; 2004 :       AddLineQueueX("%s" LABELQUAL, GetLabelStr(hll->labels[LTEST], buff));

	lea	rdx, OFFSET FLAT:$SG11101
	lea	rcx, QWORD PTR buff$[rsp]
	call	sprintf
	lea	rdx, QWORD PTR buff$[rsp]
	lea	rcx, OFFSET FLAT:$SG12016
	call	AddLineQueueX
$LN129@HllEndDir:

; 2005 : 
; 2006 :     /* read in (optional) expression */
; 2007 :     /* if expression is missing, just generate nothing */
; 2008 :     if (tokenarray[i].token != T_FINAL) {

	movsxd	rax, DWORD PTR i$[rbp-256]
	shl	rax, 5
	cmp	BYTE PTR [rax+rdi], r15b
	je	$LN336@HllEndDir

; 2009 :       rc = EvaluateHllExpression(hll, &i, tokenarray, LSTART, FALSE, buffer);

	lea	rax, QWORD PTR hllop$1[rsp]
	mov	QWORD PTR hllop$1[rsp], r15
	mov	QWORD PTR [rsp+48], rax
	lea	rdx, QWORD PTR i$[rbp-256]
	lea	rax, QWORD PTR buffer$[rsp]
	mov	DWORD PTR hllop$1[rsp+8], r15d
	mov	QWORD PTR [rsp+40], rax
	mov	r9d, 2
	mov	r8, rdi
	mov	BYTE PTR [rsp+32], r15b
	mov	rcx, rbx
	mov	BYTE PTR buffer$[rsp], r15b
	call	GetExpression
	cmp	eax, -1
	jne	SHORT $LN284@HllEndDir
	or	r15d, eax
	jmp	SHORT $LN336@HllEndDir
$LN284@HllEndDir:
	movsxd	rax, DWORD PTR i$[rbp-256]
	shl	rax, 5
	cmp	BYTE PTR [rax+rdi], r15b
	je	SHORT $LN285@HllEndDir
	mov	ecx, 199				; 000000c7H
	call	EmitError
	mov	r15d, eax

; 2010 :       if (rc == NOT_ERROR)

	test	eax, eax
	jne	SHORT $LN336@HllEndDir

; 2009 :       rc = EvaluateHllExpression(hll, &i, tokenarray, LSTART, FALSE, buffer);

$LN285@HllEndDir:

; 2011 :         QueueTestLines(buffer); /* write condition lines */

	lea	rdi, QWORD PTR buffer$[rsp]
	npad	5
$LL288@HllEndDir:
	mov	edx, 10
	mov	rcx, rdi
	mov	rsi, rdi
	call	strchr
	mov	rdi, rax
	test	rax, rax
	je	SHORT $LN290@HllEndDir
	mov	BYTE PTR [rax], 0
	inc	rdi
$LN290@HllEndDir:
	cmp	BYTE PTR [rsi], 0
	je	SHORT $LN291@HllEndDir
	mov	rcx, rsi
	call	AddLineQueue
$LN291@HllEndDir:
	test	rdi, rdi
	jne	SHORT $LL288@HllEndDir
$LN339@HllEndDir:
	mov	rdi, QWORD PTR tokenarray$[rbp-256]
$LN336@HllEndDir:

; 2012 :     }
; 2013 :     break;
; 2014 : #ifdef DEBUG_OUT
; 2015 :   default: /**/myassert(0); break;
; 2016 : #endif
; 2017 :   }
; 2018 : 
; 2019 :   /* create the exit label if it has been referenced */
; 2020 :   if (hll->labels[LEXIT])

	mov	r8d, DWORD PTR [rbx+36]
	test	r8d, r8d
	je	SHORT $LN132@HllEndDir

; 2021 :     AddLineQueueX("%s" LABELQUAL, GetLabelStr(hll->labels[LEXIT], buff));

	lea	rdx, OFFSET FLAT:$SG11101
	lea	rcx, QWORD PTR buff$[rsp]
	call	sprintf
	lea	rdx, QWORD PTR buff$[rsp]
	lea	rcx, OFFSET FLAT:$SG12020
	call	AddLineQueueX
$LN132@HllEndDir:

; 2022 : 
; 2023 :   if (tokenarray[i].token != T_FINAL && rc == NOT_ERROR) {

	movsxd	rax, DWORD PTR i$[rbp-256]
	shl	rax, 5
	cmp	BYTE PTR [rax+rdi], 0
	je	SHORT $LN133@HllEndDir
	test	r15d, r15d
	jne	SHORT $LN133@HllEndDir

; 2024 :     EmitErr(SYNTAX_ERROR_EX, tokenarray[i].tokpos);

	mov	rdx, QWORD PTR [rax+rdi+24]
	mov	ecx, 209				; 000000d1H
	call	EmitErr

; 2025 :     rc = ERROR;

	or	r15d, -1
$LN133@HllEndDir:

; 2026 :   }
; 2027 :   if (ModuleInfo.list)

	test	DWORD PTR ModuleInfo+408, 2048		; 00000800H
	je	SHORT $LN134@HllEndDir

; 2028 :     LstWrite(LSTTYPE_DIRECTIVE, GetCurrOffset(), NULL);

	call	GetCurrOffset
	xor	r8d, r8d
	mov	edx, eax
	lea	ecx, QWORD PTR [r8+4]
	call	LstWrite
$LN134@HllEndDir:

; 2029 : 
; 2030 :   /* v2.11: always run line-queue if it's not empty. */
; 2031 :   if (is_linequeue_populated())

	cmp	QWORD PTR ModuleInfo+184, 0
	je	SHORT $LN135@HllEndDir

; 2032 :     RunLineQueue();

	call	RunLineQueue
$LN135@HllEndDir:

; 2033 : 
; 2034 :   return(rc);

	mov	eax, r15d
$LN340@HllEndDir:
	mov	rsi, QWORD PTR [rsp+2224]

; 2035 : }

	add	rsp, 2168				; 00000878H
	pop	r15
	pop	rdi
	pop	rbx
	pop	rbp
	ret	0
	npad	3
$LN335@HllEndDir:
	DD	$LN27@HllEndDir
	DD	$LN116@HllEndDir
	DD	$LN127@HllEndDir
	DD	$LN119@HllEndDir
	DD	$LN106@HllEndDir
	DD	$LN336@HllEndDir
	DD	$LN336@HllEndDir
	DD	$LN336@HllEndDir
	DD	$LN30@HllEndDir
HllEndDir ENDP
_TEXT	ENDS
; Function compile flags: /Ogtpy
; File d:\hjwasm\hjwasm2.13.1s\hjwasm2.13.1s\hll.c
_TEXT	SEGMENT
hllop$1 = 64
hllop$2 = 64
hllop$3 = 64
buff$ = 80
forbuff$ = 96
forbuffcnt$ = 1120
forbuffcond$ = 2144
buffer$ = 3168
forbuffinit$ = 5216
transformed$ = 6240
i$ = 7312
tokenarray$ = 7320
HllStartDir PROC

; 1232 : {

$LN279:
	mov	DWORD PTR [rsp+8], ecx
	push	rbp
	push	r12
	lea	rbp, QWORD PTR [rsp-7032]
	mov	eax, 7288				; 00001c78H
	call	__chkstk
	sub	rsp, rax
	mov	QWORD PTR [rsp+7320], rbx
	mov	QWORD PTR [rsp+7336], rdi

; 1233 :   struct hll_item      *hll;
; 1234 :   ret_code             rc = NOT_ERROR;
; 1235 :   int                  cmd = tokenarray[i].tokval;
; 1236 :   char buff[16];
; 1237 :   char buffer[MAX_LINE_LEN * 2];
; 1238 :   char codebuff[256];
; 1239 :   char param[256];
; 1240 :   char init[256];
; 1241 :   char limit[MAX_LINE_LEN];
; 1242 :   char op[4];
; 1243 :   char forbuff[MAX_LINE_LEN];
; 1244 :   char forbuffinit[MAX_LINE_LEN];
; 1245 :   char forbuffcond[MAX_LINE_LEN];
; 1246 :   char forbuffcnt[MAX_LINE_LEN];
; 1247 :   char transformed[MAX_LINE_LEN];
; 1248 :   int a;
; 1249 :   int j;
; 1250 :   int b;
; 1251 :   int e;
; 1252 :   int size;
; 1253 :   int eqcnt;
; 1254 :   int cmcnt;
; 1255 :   char *p;
; 1256 :   char c;
; 1257 : 
; 1258 :   DebugMsg1(("HllStartDir(%s) enter\n", tokenarray[i].string_ptr));
; 1259 : 
; 1260 :   i++; /* skip directive */
; 1261 : 
; 1262 :        /* v2.06: is there an item on the free stack? */
; 1263 :   if (HllFree) {

	mov	rdi, QWORD PTR ModuleInfo+232
	movsxd	rax, ecx
	inc	ecx
	shl	rax, 5
	mov	QWORD PTR [rsp+7280], r13
	xor	r13d, r13d
	mov	QWORD PTR [rsp+7264], r15
	mov	r15, rdx
	mov	r12d, r13d
	mov	ebx, DWORD PTR [rax+rdx+16]
	mov	DWORD PTR i$[rbp-256], ecx
	test	rdi, rdi
	jne	SHORT $LN17@HllStartDi

; 1264 :     hll = HllFree;
; 1265 :     DebugCmd(cntReused++);
; 1266 :   }
; 1267 :   else {
; 1268 :     hll = LclAlloc(sizeof(struct hll_item));

	mov	ecx, 152				; 00000098H
	call	LclAlloc
	mov	rdi, rax
$LN17@HllStartDi:

; 1269 :     DebugCmd(cntAlloc++);
; 1270 :   }
; 1271 : 
; 1272 :   /* structure for .IF .ELSE .ENDIF
; 1273 :   *    cond jump to LTEST-label
; 1274 :   *    ...
; 1275 :   *    jmp LEXIT
; 1276 :   *  LTEST:
; 1277 :   *    ...
; 1278 :   *  LEXIT:
; 1279 : 
; 1280 :   * structure for .IF .ELSEIF
; 1281 :   *    cond jump to LTEST
; 1282 :   *    ...
; 1283 :   *    jmp LEXIT
; 1284 :   *  LTEST:
; 1285 :   *    cond jump to (new) LTEST
; 1286 :   *    ...
; 1287 :   *    jmp LEXIT
; 1288 :   *  LTEST:
; 1289 :   *    ...
; 1290 : 
; 1291 :   * structure for .WHILE and .REPEAT:
; 1292 :   *   jmp LTEST (for .WHILE only)
; 1293 :   * LSTART:
; 1294 :   *   ...
; 1295 :   * LTEST: (jumped to by .continue)
; 1296 :   *   a) test end condition, cond jump to LSTART label
; 1297 :   *   b) unconditional jump to LSTART label
; 1298 :   * LEXIT: (jumped to by .BREAK)
; 1299 :   */
; 1300 : 
; 1301 :   hll->labels[LEXIT] = 0;

	mov	QWORD PTR [rsp+7328], rsi
	mov	DWORD PTR [rdi+36], r13d

; 1302 : 
; 1303 :   switch (cmd) {

	cmp	ebx, 327				; 00000147H
	je	$LN18@HllStartDi
	jle	$LN20@HllStartDi
	cmp	ebx, 329				; 00000149H
	jle	$LN53@HllStartDi
	cmp	ebx, 330				; 0000014aH
	je	$LN29@HllStartDi
	cmp	ebx, 340				; 00000154H
	jne	$LN20@HllStartDi

; 1317 :       }
; 1318 :     }
; 1319 :     break;
; 1320 :     // added by habran
; 1321 :   case T_DOT_SWITCH:
; 1322 :     hll->cmd = HLL_SWITCH;

	mov	DWORD PTR [rdi+96], 5

; 1323 :     hll->flags = HLLF_WHILE;

	mov	DWORD PTR [rdi+104], 4

; 1324 :     hll->labels[LSKIP] = GetHllLabel();    /* used by .ENDSWITCH  */

	mov	eax, DWORD PTR ModuleInfo+352
	inc	eax
	mov	DWORD PTR ModuleInfo+352, eax
	mov	DWORD PTR [rdi+44], eax

; 1325 :     hll->labels[LJUMP] = GetHllLabel();    /* used by .ENDSWITCH */

	mov	eax, DWORD PTR ModuleInfo+352
	inc	eax
	mov	DWORD PTR ModuleInfo+352, eax
	mov	DWORD PTR [rdi+68], eax

; 1326 :     hll->labels[LEXIT] = GetHllLabel();

	mov	eax, DWORD PTR ModuleInfo+352
	inc	eax
	mov	DWORD PTR ModuleInfo+352, eax
	mov	DWORD PTR [rdi+36], eax

; 1327 :     hll->labels[LDATA1] = GetHllLabel();    /* used by .ENDSWITCH  */

	mov	eax, DWORD PTR ModuleInfo+352
	inc	eax
	mov	DWORD PTR ModuleInfo+352, eax
	mov	DWORD PTR [rdi+56], eax

; 1328 :     hll->labels[LSTART] = GetHllLabel();    /* used by .ENDSWITCH  */

	mov	eax, DWORD PTR ModuleInfo+352
	inc	eax
	mov	DWORD PTR ModuleInfo+352, eax
	mov	DWORD PTR [rdi+40], eax

; 1329 :     hll->labels[LTEST] = 0;                /* used by .CASE  */

	mov	DWORD PTR [rdi+32], r13d

; 1330 :     hll->labels[LDEF] = GetHllLabel();    /* used by .CASE  */

	mov	eax, DWORD PTR ModuleInfo+352
	inc	eax
	mov	DWORD PTR ModuleInfo+352, eax
	mov	DWORD PTR [rdi+52], eax

; 1331 :     hll->labels[LDATA2] = GetHllLabel();    /* used by .ENDSWITCH */

	mov	eax, DWORD PTR ModuleInfo+352
	inc	eax
	mov	DWORD PTR ModuleInfo+352, eax
	mov	DWORD PTR [rdi+60], eax

; 1332 :     hll->labels[LTOP] = GetHllLabel();    /* used by .ENDSWITCH  */

	mov	eax, DWORD PTR ModuleInfo+352
	inc	eax
	mov	DWORD PTR ModuleInfo+352, eax
	mov	DWORD PTR [rdi+64], eax

; 1333 :     hll->labels[LCONT] = GetHllLabel();    /* used by .ENDSWITCH */

	mov	eax, DWORD PTR ModuleInfo+352
	inc	eax
	mov	DWORD PTR ModuleInfo+352, eax
	mov	DWORD PTR [rdi+48], eax

; 1334 :     hll->maxalloccasen = 0;

	mov	DWORD PTR [rdi+120], r13d

; 1335 :     hll->casecnt = 0;

	mov	DWORD PTR [rdi+92], r13d

; 1336 :     hll->csize = 4;

	mov	BYTE PTR [rdi+102], 4

; 1337 :     if (tokenarray[i].token != T_FINAL) {

	movsxd	rax, DWORD PTR i$[rbp-256]
	shl	rax, 5
	cmp	BYTE PTR [rax+r15], r12b
	je	$LN22@HllStartDi

; 1338 :       p = tokenarray[i].tokpos;
; 1339 :       if (ModuleInfo.Ofssize == USE32) {

	cmp	BYTE PTR ModuleInfo+404, 1

; 1340 :         if (0 != _memicmp(p, "eax", 3)) {

	mov	r8d, 3
	mov	rbx, QWORD PTR [rax+r15+24]
	mov	rcx, rbx
	jne	SHORT $LN23@HllStartDi
	lea	rdx, OFFSET FLAT:$SG11663
	call	_memicmp
	test	eax, eax
	je	SHORT $LN28@HllStartDi

; 1341 :           AddLineQueueX(" mov eax, %s", tokenarray[i].tokpos);

	movsxd	rdx, DWORD PTR i$[rbp-256]
	lea	rcx, OFFSET FLAT:$SG11664
	shl	rdx, 5
	mov	rdx, QWORD PTR [rdx+r15+24]
	call	AddLineQueueX

; 1342 :         }
; 1343 :       }

	jmp	SHORT $LN28@HllStartDi
$LN23@HllStartDi:

; 1344 : #if AMD64_SUPPORT
; 1345 :       else             //USE64
; 1346 :       {
; 1347 :         if (0 == _memicmp(p, "rax", 3)) 

	lea	rdx, OFFSET FLAT:$SG11667
	call	_memicmp
	test	eax, eax
	je	SHORT $LN276@HllStartDi

; 1348 :           hll->csize = 8;
; 1349 :         else if (0 != _memicmp(p, "eax", 3)) {

	mov	r8d, 3
	lea	rdx, OFFSET FLAT:$SG11669
	mov	rcx, rbx
	call	_memicmp
	test	eax, eax
	je	SHORT $LN28@HllStartDi

; 1350 :           AddLineQueueX(" mov rax, %s", tokenarray[i].tokpos);

	movsxd	rdx, DWORD PTR i$[rbp-256]
	lea	rcx, OFFSET FLAT:$SG11670
	shl	rdx, 5
	mov	rdx, QWORD PTR [rdx+r15+24]
	call	AddLineQueueX
$LN276@HllStartDi:

; 1351 :           hll->csize = 8;

	mov	BYTE PTR [rdi+102], 8
$LN28@HllStartDi:

; 1352 :         }
; 1353 :       }// end USE64
; 1354 : #endif
; 1355 :       i++;

	inc	DWORD PTR i$[rbp-256]
$LN22@HllStartDi:

; 1356 :     }
; 1357 :     AddLineQueueX(JMPPREFIX "jmp %s", GetLabelStr(hll->labels[LSTART], buff));

	mov	r8d, DWORD PTR [rdi+40]
	lea	rdx, OFFSET FLAT:$SG11101
	lea	rcx, QWORD PTR buff$[rsp]
	call	sprintf
	lea	rdx, QWORD PTR buff$[rsp]
	lea	rcx, OFFSET FLAT:$SG11671
	call	AddLineQueueX

; 1358 :     break;

	jmp	$LN20@HllStartDi
$LN29@HllStartDi:

; 1359 :   case T_DOT_FOR:
; 1360 :     /* create the label to loop start */
; 1361 :     //hll->labels[LEXIT] = 0; //this is needed for .FOR loop
; 1362 :     hll->labels[LSTART] = GetHllLabel();

	mov	eax, DWORD PTR ModuleInfo+352
	inc	eax
	mov	QWORD PTR [rsp+7272], r14
	mov	DWORD PTR ModuleInfo+352, eax

; 1363 :     hll->labels[LSKIP] = GetHllLabel();
; 1364 :     hll->labels[LCONT] = 0;
; 1365 :     hll->labels[LTEST] = 0;
; 1366 :     hll->flags = 0;
; 1367 :     hll->cmd = HLL_FOR;
; 1368 :     //copy string to the buffer and get read of spaces
; 1369 :     p = tokenarray[i].tokpos;
; 1370 :     for (b = 0; *p; p++)

	mov	r14d, r13d
	mov	DWORD PTR [rdi+40], eax
	mov	eax, DWORD PTR ModuleInfo+352
	inc	eax
	mov	DWORD PTR ModuleInfo+352, eax
	mov	DWORD PTR [rdi+44], eax
	mov	DWORD PTR [rdi+48], r13d
	mov	DWORD PTR [rdi+32], r13d
	mov	DWORD PTR [rdi+104], r13d
	mov	DWORD PTR [rdi+96], 4
	movsxd	rax, DWORD PTR i$[rbp-256]
	shl	rax, 5
	mov	rsi, QWORD PTR [rax+r15+24]
	movzx	eax, BYTE PTR [rsi]
	test	al, al
	je	SHORT $LN5@HllStartDi
	lea	rbx, QWORD PTR forbuff$[rsp]
	npad	6
$LL6@HllStartDi:

; 1371 :     {
; 1372 :       if ((*p == ' ') || (*p == '\t')) {

	cmp	al, 32					; 00000020H
	je	SHORT $LN32@HllStartDi
	cmp	al, 9
	jne	SHORT $LN277@HllStartDi
$LN32@HllStartDi:

; 1373 :         //if there is QWORD PTR, DWORD PTR, WORD PTR, BYTE PTR, OFFSET or ADDR leave a space between
; 1374 :         c = tolower(*(p + 1));

	movsx	ecx, BYTE PTR [rsi+1]
	call	tolower

; 1375 :         if ((c >= 'a') && (c <= 'z')) {

	sub	al, 97					; 00000061H
	cmp	al, 25
	ja	SHORT $LN4@HllStartDi

; 1376 :           forbuff[b] = *p;

	movzx	eax, BYTE PTR [rsi]
$LN277@HllStartDi:

; 1377 :           b++;

	inc	r14d
	mov	BYTE PTR [rbx], al
	inc	rbx
$LN4@HllStartDi:

; 1363 :     hll->labels[LSKIP] = GetHllLabel();
; 1364 :     hll->labels[LCONT] = 0;
; 1365 :     hll->labels[LTEST] = 0;
; 1366 :     hll->flags = 0;
; 1367 :     hll->cmd = HLL_FOR;
; 1368 :     //copy string to the buffer and get read of spaces
; 1369 :     p = tokenarray[i].tokpos;
; 1370 :     for (b = 0; *p; p++)

	movzx	eax, BYTE PTR [rsi+1]
	inc	rsi
	test	al, al
	jne	SHORT $LL6@HllStartDi
$LN5@HllStartDi:

; 1378 :         }
; 1379 :       }
; 1380 :       else {
; 1381 :         forbuff[b] = *p;
; 1382 :         b++;
; 1383 :       }
; 1384 :     }
; 1385 :     forbuff[b] = NULLC;

	movsxd	rax, r14d

; 1386 :     if (0 == _memicmp(forbuff, "(::)", 4)) {

	lea	rdx, OFFSET FLAT:$SG11679
	mov	r8d, 4
	lea	rcx, QWORD PTR forbuff$[rsp]
	mov	BYTE PTR forbuff$[rsp+rax], r12b
	call	_memicmp
	mov	r14, QWORD PTR [rsp+7272]
	test	eax, eax
	jne	SHORT $LN34@HllStartDi

; 1387 :       hll->cmcnt = 0;

	mov	DWORD PTR [rdi+88], r13d

; 1388 :     }

	jmp	$LN51@HllStartDi
$LN34@HllStartDi:

; 1389 :     else {
; 1390 :       //count initializers
; 1391 :       eqcnt = 1;
; 1392 :       forbuffinit[0] = NULLC;
; 1393 :       for (j = 1, b = 0; forbuff[j];) {

	mov	r9d, r13d
	mov	BYTE PTR forbuffinit$[rbp-256], r12b
	mov	r10d, 1
	mov	r8d, r10d
	cmp	BYTE PTR forbuff$[rsp+1], r9b
	je	SHORT $LN274@HllStartDi
	mov	ecx, r10d
	mov	rax, r13
$LL7@HllStartDi:

; 1394 :         c = forbuff[j];

	movzx	edx, BYTE PTR forbuff$[rsp+rcx]

; 1395 :         if (c == ':') {

	cmp	dl, 58					; 0000003aH
	jne	SHORT $LN37@HllStartDi

; 1396 :           if (forbuff[j - 1] != 39 && forbuff[j + 1] != 39) break;

	cmp	BYTE PTR forbuff$[rsp+rcx-1], 39	; 00000027H
	je	SHORT $LN38@HllStartDi
	cmp	BYTE PTR forbuff$[rsp+rcx+1], 39	; 00000027H
	jne	SHORT $LN274@HllStartDi

; 1397 :         }
; 1398 :         if (c == ',' && forbuff[j - 1] != 39 && forbuff[j + 1] != 39) eqcnt++;

	jmp	SHORT $LN38@HllStartDi
$LN37@HllStartDi:
	cmp	dl, 44					; 0000002cH
	jne	SHORT $LN38@HllStartDi
	cmp	BYTE PTR forbuff$[rsp+rcx-1], 39	; 00000027H
	je	SHORT $LN38@HllStartDi
	cmp	BYTE PTR forbuff$[rsp+rcx+1], 39	; 00000027H
	je	SHORT $LN38@HllStartDi
	inc	r10d
$LN38@HllStartDi:

; 1399 :         forbuffinit[b] = c;

	mov	BYTE PTR forbuffinit$[rbp+rax-256], dl

; 1400 :         if (c == 39 && forbuffinit[b - 2] == 39) {

	cmp	dl, 39					; 00000027H
	jne	SHORT $LN39@HllStartDi
	cmp	BYTE PTR forbuffinit$[rbp+rax-258], dl
	jne	SHORT $LN39@HllStartDi

; 1401 :           b++;

	inc	r9d

; 1402 :           forbuffinit[b] = ' ';

	mov	BYTE PTR forbuffinit$[rbp+rax-255], 32	; 00000020H
	inc	rax
$LN39@HllStartDi:

; 1403 :         }
; 1404 :         j++;

	inc	rcx
	inc	r8d

; 1405 :         b++;

	inc	r9d
	inc	rax
	cmp	BYTE PTR forbuff$[rsp+rcx], r12b
	jne	SHORT $LL7@HllStartDi
$LN274@HllStartDi:

; 1406 :       }
; 1407 :       forbuffinit[b] = NULLC;

	movsxd	rax, r9d

; 1409 :       //coppy the condition to the buffer
; 1410 :       forbuffcond[0] = NULLC;
; 1411 :       hll->labels[LTEST] = 0;
; 1412 :       for (b = 0; forbuff[j] && forbuff[j] != ':'; forbuffcond[b] = forbuff[j], j++, b++);

	lea	rcx, QWORD PTR forbuff$[rsp]
	inc	r8d
	mov	DWORD PTR [rdi+32], r13d
	mov	r9d, r13d
	mov	BYTE PTR forbuffcond$[rbp-256], r12b
	mov	BYTE PTR forbuffinit$[rbp+rax-256], r12b
	movsxd	rax, r8d
	add	rcx, rax
	cmp	BYTE PTR [rcx], r9b
	je	SHORT $LN275@HllStartDi

; 1408 :       j++;

	lea	rax, QWORD PTR forbuffcond$[rbp-256]
	npad	6
$LL12@HllStartDi:

; 1409 :       //coppy the condition to the buffer
; 1410 :       forbuffcond[0] = NULLC;
; 1411 :       hll->labels[LTEST] = 0;
; 1412 :       for (b = 0; forbuff[j] && forbuff[j] != ':'; forbuffcond[b] = forbuff[j], j++, b++);

	movzx	edx, BYTE PTR [rcx]
	cmp	dl, 58					; 0000003aH
	je	SHORT $LN275@HllStartDi
	inc	rcx
	mov	BYTE PTR [rax], dl
	inc	r8d
	inc	r9d
	inc	rax
	cmp	BYTE PTR [rcx], r12b
	jne	SHORT $LL12@HllStartDi
$LN275@HllStartDi:

; 1413 :       if (forbuffcond[b - 2] == '>' && forbuffcond[b - 1] == '0') forbuffcond[b - 2] = NULLC;

	movsxd	rax, r9d
	cmp	BYTE PTR forbuffcond$[rbp+rax-258], 62	; 0000003eH
	jne	SHORT $LN40@HllStartDi
	cmp	BYTE PTR forbuffcond$[rbp+rax-257], 48	; 00000030H
	jne	SHORT $LN40@HllStartDi
	mov	BYTE PTR forbuffcond$[rbp+rax-258], r12b
$LN40@HllStartDi:

; 1414 :       forbuffcond[b] = NULLC;
; 1415 :       if (!b) hll->cond = FALSE;

	test	r9d, r9d
	mov	BYTE PTR forbuffcond$[rbp+rax-256], r12b

; 1416 :       else    hll->cond = TRUE;
; 1417 :       j++;
; 1418 :       //copy the counter to the buffer
; 1419 :       cmcnt = 0;

	mov	esi, r13d

; 1420 :       forbuffcnt[0] = NULLC;
; 1421 :       hll->condlines = "";
; 1422 :       for (b = 0; forbuff[j] != ')'; b++, j++) {

	mov	edx, r13d
	setne	al
	mov	BYTE PTR forbuffcnt$[rbp-256], sil
	inc	r8d
	mov	BYTE PTR [rdi+100], al
	movsxd	rcx, r8d
	lea	rax, OFFSET FLAT:$SG11687
	mov	QWORD PTR [rdi+72], rax
	cmp	BYTE PTR forbuff$[rsp+rcx], 41		; 00000029H
	je	SHORT $LN14@HllStartDi
	mov	rax, r13
	npad	13
$LL15@HllStartDi:

; 1423 :         forbuffcnt[b] = forbuff[j];

	movzx	r8d, BYTE PTR forbuff$[rsp+rcx]
	mov	BYTE PTR forbuffcnt$[rbp+rax-256], r8b

; 1424 :         if (forbuffcnt[b] == ',' && forbuff[j - 1] != 39 && forbuff[j + 1] != 39) ++cmcnt;

	cmp	r8b, 44					; 0000002cH
	jne	SHORT $LN43@HllStartDi
	cmp	BYTE PTR forbuff$[rsp+rcx-1], 39	; 00000027H
	je	SHORT $LN13@HllStartDi
	cmp	BYTE PTR forbuff$[rsp+rcx+1], 39	; 00000027H
	je	SHORT $LN13@HllStartDi
	inc	esi

; 1425 :         if (forbuffcnt[b] == 39 && forbuffcnt[b - 2] == 39) {

	jmp	SHORT $LN13@HllStartDi
$LN43@HllStartDi:
	cmp	r8b, 39					; 00000027H
	jne	SHORT $LN13@HllStartDi
	cmp	BYTE PTR forbuffcnt$[rbp+rax-258], r8b
	jne	SHORT $LN13@HllStartDi

; 1426 :           b++;

	inc	edx

; 1427 :           forbuffcnt[b] = ' ';

	mov	BYTE PTR forbuffcnt$[rbp+rax-255], 32	; 00000020H
	inc	rax
$LN13@HllStartDi:

; 1420 :       forbuffcnt[0] = NULLC;
; 1421 :       hll->condlines = "";
; 1422 :       for (b = 0; forbuff[j] != ')'; b++, j++) {

	inc	rcx
	inc	edx
	inc	rax
	cmp	BYTE PTR forbuff$[rsp+rcx], 41		; 00000029H
	jne	SHORT $LL15@HllStartDi
$LN14@HllStartDi:

; 1428 :         }
; 1429 :       }
; 1430 :       if (forbuffcnt[b - 1] == ')') b--;

	movsxd	rax, edx
	cmp	BYTE PTR forbuffcnt$[rbp+rax-257], 41	; 00000029H
	jne	SHORT $LN45@HllStartDi
	dec	edx
$LN45@HllStartDi:

; 1431 :       forbuffcnt[b] = NULLC;

	movsxd	rax, edx
	mov	BYTE PTR forbuffcnt$[rbp+rax-256], r12b

; 1432 :       //create valid command and add to LineQueue to initiate .for loop vars
; 1433 :       //anything that is before the first ':'
; 1434 :       if (forbuffinit[0]) ForInitAndNext(tokenarray, eqcnt, forbuffinit);

	cmp	BYTE PTR forbuffinit$[rbp-256], r12b
	je	SHORT $LN46@HllStartDi
	lea	r8, QWORD PTR forbuffinit$[rbp-256]
	mov	edx, r10d
	mov	rcx, r15
	call	ForInitAndNext
$LN46@HllStartDi:

; 1435 :       //note hll->counterlines is new var in the struct hll_item for store of forbuffcnt used in .ENDFOR
; 1436 :       //hll->cmcnt is also new var in the struct hll_item for commas counter used in .ENDFOR
; 1437 :       //copy forbuffcnt context to hll->counterlines 
; 1438 :       //forbuffcnt contains anything that is written after the second ':'
; 1439 :       hll->cmcnt = 0;

	mov	DWORD PTR [rdi+88], r13d

; 1440 :       if (forbuffcnt[0])

	cmp	BYTE PTR forbuffcnt$[rbp-256], r12b
	je	SHORT $LN47@HllStartDi

; 1441 :       {
; 1442 :         //skip altering conditions the first time
; 1443 :         AddLineQueueX(" jmp %s", GetLabelStr(hll->labels[LSKIP], buff));

	mov	r8d, DWORD PTR [rdi+44]
	lea	rdx, OFFSET FLAT:$SG11101
	lea	rcx, QWORD PTR buff$[rsp]
	call	sprintf
	lea	rdx, QWORD PTR buff$[rsp]
	lea	rcx, OFFSET FLAT:$SG11694
	call	AddLineQueueX

; 1444 :         size = strlen(forbuffcnt) + 1;

	lea	rcx, QWORD PTR forbuffcnt$[rbp-256]
	or	rax, -1
$LL272@HllStartDi:
	inc	rax
	cmp	BYTE PTR [rcx+rax], r12b
	jne	SHORT $LL272@HllStartDi
	inc	eax

; 1445 :         hll->counterlines = LclAlloc(size);

	movsxd	rbx, eax
	mov	rcx, rbx
	call	LclAlloc

; 1446 :         memcpy(hll->counterlines, forbuffcnt, size);

	mov	r8, rbx
	mov	QWORD PTR [rdi+80], rax
	lea	rdx, QWORD PTR forbuffcnt$[rbp-256]
	mov	rcx, rax
	call	memcpy

; 1447 :         hll->cmcnt = cmcnt + 1;

	lea	eax, DWORD PTR [rsi+1]
	mov	DWORD PTR [rdi+88], eax

; 1448 :       }

	jmp	SHORT $LN48@HllStartDi
$LN47@HllStartDi:

; 1449 :       else hll->counterlines = "";    //there is nothing after the second ':'

	lea	rax, OFFSET FLAT:$SG11695
	mov	QWORD PTR [rdi+80], rax
$LN48@HllStartDi:

; 1450 :       if (forbuffcond[0]) {

	cmp	BYTE PTR forbuffcond$[rbp-256], r12b
	je	$LN51@HllStartDi

; 1451 :         strcpy(transformed, ".for ");

	mov	rcx, r13
	lea	rdx, OFFSET FLAT:$SG11697
	npad	5
$LL65@HllStartDi:
	movzx	eax, BYTE PTR [rcx+rdx]
	mov	BYTE PTR transformed$[rbp+rcx-256], al
	lea	rcx, QWORD PTR [rcx+1]
	test	al, al
	jne	SHORT $LL65@HllStartDi

; 1452 :         strcat(transformed, forbuffcond);

	lea	rcx, QWORD PTR transformed$[rbp-256]
	dec	rcx
	npad	3
$LL270@HllStartDi:
	cmp	BYTE PTR [rcx+1], r12b
	lea	rcx, QWORD PTR [rcx+1]
	jne	SHORT $LL270@HllStartDi
	lea	r8, QWORD PTR forbuffcond$[rbp-256]
	xor	edx, edx
	npad	13
$LL271@HllStartDi:
	movzx	eax, BYTE PTR [r8+rdx]
	mov	BYTE PTR [rcx+rdx], al
	lea	rdx, QWORD PTR [rdx+1]
	test	al, al
	jne	SHORT $LL271@HllStartDi

; 1453 :         strcat(transformed, "\0");

	lea	rcx, QWORD PTR transformed$[rbp-256]
	dec	rcx
	npad	6
$LL268@HllStartDi:
	cmp	BYTE PTR [rcx+1], r12b
	lea	rcx, QWORD PTR [rcx+1]
	jne	SHORT $LL268@HllStartDi
	lea	r8, OFFSET FLAT:$SG11698
	xor	edx, edx
	npad	13
$LL269@HllStartDi:
	movzx	eax, BYTE PTR [r8+rdx]
	mov	BYTE PTR [rcx+rdx], al
	lea	rdx, QWORD PTR [rdx+1]
	test	al, al
	jne	SHORT $LL269@HllStartDi

; 1454 :         tokenarray[0].string_ptr = ".for\0";

	lea	rax, OFFSET FLAT:$SG11699

; 1455 :         tokenarray[0].tokpos = transformed;
; 1456 :         Token_Count = Tokenize(tokenarray[0].tokpos, 0, tokenarray, 0);

	xor	r9d, r9d
	mov	QWORD PTR [r15+8], rax
	lea	rcx, QWORD PTR transformed$[rbp-256]
	lea	rax, QWORD PTR transformed$[rbp-256]
	mov	r8, r15
	xor	edx, edx
	mov	QWORD PTR [r15+24], rax
	call	Tokenize
	mov	DWORD PTR ModuleInfo+496, eax

; 1457 :         if (tokenarray[i].token != T_FINAL) {

	movsxd	rax, DWORD PTR i$[rbp-256]
	shl	rax, 5
	cmp	BYTE PTR [rax+r15], r12b
	je	$LN50@HllStartDi

; 1458 :           rc = EvaluateHllExpression(hll, &i, tokenarray, LSTART, TRUE, buffer);

	lea	rax, QWORD PTR hllop$2[rsp]
	mov	QWORD PTR hllop$2[rsp], r13
	mov	QWORD PTR [rsp+48], rax
	lea	rdx, QWORD PTR i$[rbp-256]
	lea	rax, QWORD PTR buffer$[rbp-256]
	mov	DWORD PTR hllop$2[rsp+8], r13d
	mov	QWORD PTR [rsp+40], rax
	lea	rbx, QWORD PTR buffer$[rbp-256]
	mov	r9d, 2
	mov	BYTE PTR [rsp+32], 1
	mov	r8, r15
	mov	BYTE PTR buffer$[rbp-256], r12b
	mov	rcx, rdi
	call	GetAndExpression
	cmp	eax, -1
	je	$LN259@HllStartDi
	movsxd	rcx, DWORD PTR i$[rbp-256]
	shl	rcx, 5
	add	rcx, r15
	call	GetCOp
	cmp	eax, 8
	jne	SHORT $LN105@HllStartDi
$LL109@HllStartDi:
	inc	DWORD PTR i$[rbp-256]
	or	rax, -1
	npad	5
$LL267@HllStartDi:
	inc	rax
	cmp	BYTE PTR [rbx+rax], r12b
	jne	SHORT $LL267@HllStartDi
	add	rbx, rax
	mov	DWORD PTR hllop$2[rsp+8], r13d
	lea	rax, QWORD PTR hllop$2[rsp]
	mov	r9d, 2
	mov	QWORD PTR [rsp+48], rax
	lea	rdx, QWORD PTR i$[rbp-256]
	mov	QWORD PTR [rsp+40], rbx
	mov	r8, r15
	mov	rcx, rdi
	mov	BYTE PTR [rsp+32], 1
	call	GetAndExpression
	cmp	eax, -1
	je	SHORT $LN259@HllStartDi
	movsxd	rcx, DWORD PTR i$[rbp-256]
	shl	rcx, 5
	add	rcx, r15
	call	GetCOp
	cmp	eax, 8
	je	SHORT $LL109@HllStartDi
$LN105@HllStartDi:
	movsxd	rax, DWORD PTR i$[rbp-256]
	shl	rax, 5
	cmp	BYTE PTR [rax+r15], r12b
	je	SHORT $LN260@HllStartDi
	mov	ecx, 199				; 000000c7H
	call	EmitError
	mov	r12d, eax

; 1459 :           if (rc == NOT_ERROR) {

	test	eax, eax
	jne	SHORT $LN51@HllStartDi
$LN260@HllStartDi:

; 1460 :             size = strlen(buffer) + 1;

	lea	rcx, QWORD PTR buffer$[rbp-256]
	or	rax, -1
$LL266@HllStartDi:
	inc	rax
	cmp	BYTE PTR [rcx+rax], r13b
	jne	SHORT $LL266@HllStartDi
	inc	eax

; 1461 :             hll->condlines = LclAlloc(size);

	movsxd	rbx, eax
	mov	rcx, rbx
	call	LclAlloc

; 1462 :             memcpy(hll->condlines, buffer, size);

	mov	r8, rbx
	mov	QWORD PTR [rdi+72], rax
	lea	rdx, QWORD PTR buffer$[rbp-256]
	mov	rcx, rax
	call	memcpy

; 1463 :             DebugCmd(cntCond++); DebugCmd(cntCondBytes += size);
; 1464 :           }
; 1465 :         }

	jmp	SHORT $LN51@HllStartDi
$LN259@HllStartDi:

; 1458 :           rc = EvaluateHllExpression(hll, &i, tokenarray, LSTART, TRUE, buffer);

	or	r12d, -1
	jmp	SHORT $LN51@HllStartDi
$LN50@HllStartDi:

; 1466 :         else
; 1467 :           hll->condlines = "";

	lea	rax, OFFSET FLAT:$SG11703
	mov	QWORD PTR [rdi+72], rax
$LN51@HllStartDi:

; 1468 :       }
; 1469 :     }
; 1470 :     AddLineQueueX("%s" LABELQUAL, GetLabelStr(hll->labels[LSTART], buff));

	mov	r8d, DWORD PTR [rdi+40]
	lea	rdx, OFFSET FLAT:$SG11101
	lea	rcx, QWORD PTR buff$[rsp]
	call	sprintf
	lea	rdx, QWORD PTR buff$[rsp]
	lea	rcx, OFFSET FLAT:$SG11704
	call	AddLineQueueX

; 1471 :     tokenarray[i].token = T_FINAL;

	movsxd	rax, DWORD PTR i$[rbp-256]
	shl	rax, 5
	mov	BYTE PTR [rax+r15], r13b

; 1472 :     break;

	jmp	$LN20@HllStartDi
$LN53@HllStartDi:

; 1473 :     //end of .FOR
; 1474 :   case T_DOT_WHILE:
; 1475 :   case T_DOT_REPEAT:
; 1476 :     /* create the label to start of loop */
; 1477 :     hll->labels[LSTART] = GetHllLabel();

	mov	eax, DWORD PTR ModuleInfo+352
	inc	eax
	mov	DWORD PTR ModuleInfo+352, eax
	mov	DWORD PTR [rdi+40], eax

; 1478 :     hll->labels[LTEST] = 0; /* v2.11: test label is created only if needed */

	mov	DWORD PTR [rdi+32], r13d

; 1479 :                             //hll->labels[LEXIT] = GetHllLabel(); /* v2.11: LEXIT is only needed for .BREAK */
; 1480 :     if (cmd == T_DOT_WHILE) {

	cmp	ebx, 329				; 00000149H
	jne	$LN54@HllStartDi

; 1481 :       hll->cmd = HLL_WHILE;
; 1482 :       hll->condlines = NULL;

	mov	QWORD PTR [rdi+72], r13
	mov	r10d, 1
	mov	DWORD PTR [rdi+96], r10d

; 1483 :       if (tokenarray[i].token != T_FINAL) {

	movsxd	rax, DWORD PTR i$[rbp-256]
	shl	rax, 5
	cmp	BYTE PTR [rax+r15], r12b

; 1484 :         rc = EvaluateHllExpression(hll, &i, tokenarray, LSTART, TRUE, buffer);

	mov	BYTE PTR buffer$[rbp-256], r12b
	je	$LN57@HllStartDi
	lea	rax, QWORD PTR hllop$1[rsp]
	mov	QWORD PTR hllop$1[rsp], r13
	mov	QWORD PTR [rsp+48], rax
	lea	r9d, QWORD PTR [r10+1]
	lea	rax, QWORD PTR buffer$[rbp-256]
	mov	DWORD PTR hllop$1[rsp+8], r13d
	mov	QWORD PTR [rsp+40], rax
	lea	rdx, QWORD PTR i$[rbp-256]
	mov	r8, r15
	mov	BYTE PTR [rsp+32], r10b
	mov	rcx, rdi
	lea	rbx, QWORD PTR buffer$[rbp-256]
	call	GetAndExpression
	cmp	eax, -1
	je	$LN261@HllStartDi
	movsxd	rcx, DWORD PTR i$[rbp-256]
	shl	rcx, 5
	add	rcx, r15
	call	GetCOp
	cmp	eax, 8
	jne	SHORT $LN158@HllStartDi
	npad	2
$LL162@HllStartDi:
	inc	DWORD PTR i$[rbp-256]
	or	rax, -1
	npad	6
$LL265@HllStartDi:
	inc	rax
	cmp	BYTE PTR [rbx+rax], r12b
	jne	SHORT $LL265@HllStartDi
	add	rbx, rax
	mov	DWORD PTR hllop$1[rsp+8], r13d
	lea	rax, QWORD PTR hllop$1[rsp]
	mov	r9d, 2
	mov	QWORD PTR [rsp+48], rax
	lea	rdx, QWORD PTR i$[rbp-256]
	mov	QWORD PTR [rsp+40], rbx
	mov	r8, r15
	mov	rcx, rdi
	mov	BYTE PTR [rsp+32], 1
	call	GetAndExpression
	cmp	eax, -1
	je	SHORT $LN261@HllStartDi
	movsxd	rcx, DWORD PTR i$[rbp-256]
	shl	rcx, 5
	add	rcx, r15
	call	GetCOp
	cmp	eax, 8
	je	SHORT $LL162@HllStartDi
$LN158@HllStartDi:
	movsxd	rax, DWORD PTR i$[rbp-256]
	shl	rax, 5
	cmp	BYTE PTR [rax+r15], r12b
	je	SHORT $LN262@HllStartDi
	mov	ecx, 199				; 000000c7H
	call	EmitError
	mov	r12d, eax

; 1485 :         if (rc == NOT_ERROR) {

	test	eax, eax
	jne	SHORT $LN57@HllStartDi
$LN262@HllStartDi:

; 1486 :           int size;
; 1487 :           size = strlen(buffer) + 1;

	lea	rcx, QWORD PTR buffer$[rbp-256]
	or	rax, -1
$LL264@HllStartDi:
	inc	rax
	cmp	BYTE PTR [rcx+rax], r13b
	jne	SHORT $LL264@HllStartDi
	inc	eax

; 1488 :           hll->condlines = LclAlloc(size);

	movsxd	rbx, eax
	mov	rcx, rbx
	call	LclAlloc

; 1489 :           memcpy(hll->condlines, buffer, size);

	mov	r8, rbx
	mov	QWORD PTR [rdi+72], rax
	lea	rdx, QWORD PTR buffer$[rbp-256]
	mov	rcx, rax
	call	memcpy

; 1490 :           DebugCmd(cntCond++); DebugCmd(cntCondBytes += size);
; 1491 :         }
; 1492 :       }

	jmp	SHORT $LN57@HllStartDi
$LN261@HllStartDi:

; 1484 :         rc = EvaluateHllExpression(hll, &i, tokenarray, LSTART, TRUE, buffer);

	or	r12d, -1
$LN57@HllStartDi:

; 1493 :       else
; 1494 :         buffer[0] = NULLC;  /* just ".while" without expression is accepted */
; 1495 : 
; 1496 :                             /* create a jump to test label */
; 1497 :                             /* optimisation: if line at 'test' label is just a jump, dont create label and don't jump! */
; 1498 :       if (_memicmp(buffer, "jmp", 3)) {

	mov	r8d, 3
	lea	rdx, OFFSET FLAT:$SG11712
	lea	rcx, QWORD PTR buffer$[rbp-256]
	call	_memicmp
	test	eax, eax
	je	SHORT $LN55@HllStartDi

; 1499 :         hll->labels[LTEST] = GetHllLabel();

	mov	eax, DWORD PTR ModuleInfo+352

; 1500 :         AddLineQueueX(JMPPREFIX "jmp %s", GetLabelStr(hll->labels[LTEST], buff));

	lea	rdx, OFFSET FLAT:$SG11101
	inc	eax
	lea	rcx, QWORD PTR buff$[rsp]
	mov	DWORD PTR ModuleInfo+352, eax
	mov	r8d, eax
	mov	DWORD PTR [rdi+32], eax
	call	sprintf
	lea	rdx, QWORD PTR buff$[rsp]
	lea	rcx, OFFSET FLAT:$SG11713
	call	AddLineQueueX

; 1501 :       }
; 1502 :     }

	jmp	SHORT $LN55@HllStartDi
$LN54@HllStartDi:

; 1503 :     else {
; 1504 :       hll->cmd = HLL_REPEAT;

	mov	DWORD PTR [rdi+96], 2
$LN55@HllStartDi:

; 1505 :     }
; 1506 :     AddLineQueueX("%s" LABELQUAL, GetLabelStr(hll->labels[LSTART], buff));

	mov	r8d, DWORD PTR [rdi+40]
	lea	rdx, OFFSET FLAT:$SG11101
	lea	rcx, QWORD PTR buff$[rsp]
	call	sprintf
	lea	rdx, QWORD PTR buff$[rsp]
	lea	rcx, OFFSET FLAT:$SG11714
	call	AddLineQueueX
	jmp	$LN20@HllStartDi
$LN18@HllStartDi:

; 1304 :   case T_DOT_IF:
; 1305 :     hll->labels[LSTART] = 0; /* not used by .IF */

	mov	DWORD PTR [rdi+40], r13d

; 1306 :     hll->labels[LTEST] = GetHllLabel();
; 1307 :     hll->cmd = HLL_IF;
; 1308 :     hll->flags = 0;
; 1309 :     /* get the C-style expression, convert to ASM code lines */
; 1310 :     rc = EvaluateHllExpression(hll, &i, tokenarray, LTEST, FALSE, buffer);

	lea	rdx, QWORD PTR i$[rbp-256]
	mov	eax, DWORD PTR ModuleInfo+352
	xor	r9d, r9d
	inc	eax
	mov	QWORD PTR hllop$3[rsp], r13
	mov	DWORD PTR ModuleInfo+352, eax
	mov	r8, r15
	mov	DWORD PTR [rdi+32], eax
	mov	rcx, rdi
	lea	rax, QWORD PTR hllop$3[rsp]
	mov	DWORD PTR [rdi+96], r13d
	mov	QWORD PTR [rsp+48], rax
	lea	rax, QWORD PTR buffer$[rbp-256]
	mov	QWORD PTR [rsp+40], rax
	mov	DWORD PTR [rdi+104], r13d
	mov	BYTE PTR [rsp+32], r12b
	mov	DWORD PTR hllop$3[rsp+8], r13d
	mov	BYTE PTR buffer$[rbp-256], r12b
	call	GetExpression
	cmp	eax, -1
	jne	SHORT $LN69@HllStartDi
	or	r12d, eax
	jmp	SHORT $LN20@HllStartDi
$LN69@HllStartDi:
	movsxd	rax, DWORD PTR i$[rbp-256]
	shl	rax, 5
	cmp	BYTE PTR [rax+r15], r12b
	je	SHORT $LN263@HllStartDi
	mov	ecx, 199				; 000000c7H
	call	EmitError
	mov	r12d, eax

; 1311 :     if (rc == NOT_ERROR) {

	test	eax, eax
	jne	SHORT $LN20@HllStartDi
$LN263@HllStartDi:

; 1312 :       QueueTestLines(buffer);

	lea	rbx, QWORD PTR buffer$[rbp-256]
	npad	15
$LL73@HllStartDi:
	mov	edx, 10
	mov	rcx, rbx
	mov	rsi, rbx
	call	strchr
	mov	rbx, rax
	test	rax, rax
	je	SHORT $LN75@HllStartDi
	mov	BYTE PTR [rax], r13b
	inc	rbx
$LN75@HllStartDi:
	cmp	BYTE PTR [rsi], r13b
	je	SHORT $LN76@HllStartDi
	mov	rcx, rsi
	call	AddLineQueue
$LN76@HllStartDi:
	test	rbx, rbx
	jne	SHORT $LL73@HllStartDi

; 1313 :       /* if no lines have been created, the LTEST label isn't needed */
; 1314 :       //if ( !is_linequeue_populated() ) {
; 1315 :       if (buffer[0] == NULLC) {

	cmp	BYTE PTR buffer$[rbp-256], r13b
	jne	SHORT $LN20@HllStartDi

; 1316 :         hll->labels[LTEST] = 0;

	mov	DWORD PTR [rdi+32], r13d
$LN20@HllStartDi:

; 1507 :     break;
; 1508 : #ifdef DEBUG_OUT
; 1509 :   default: /**/myassert(0); break;
; 1510 : #endif
; 1511 :   }
; 1512 : 
; 1513 :   if (tokenarray[i].token != T_FINAL && rc == NOT_ERROR) {

	movsxd	rax, DWORD PTR i$[rbp-256]
	mov	r13, QWORD PTR [rsp+7280]
	mov	rsi, QWORD PTR [rsp+7328]
	mov	rbx, QWORD PTR [rsp+7320]
	shl	rax, 5
	cmp	BYTE PTR [rax+r15], 0
	je	SHORT $LN60@HllStartDi
	test	r12d, r12d
	jne	SHORT $LN60@HllStartDi

; 1514 :     DebugMsg(("HllStartDir: unexpected token [%s]\n", tokenarray[i].tokpos));
; 1515 :     EmitErr(SYNTAX_ERROR_EX, tokenarray[i].tokpos);

	mov	rdx, QWORD PTR [rax+r15+24]
	mov	ecx, 209				; 000000d1H
	call	EmitErr

; 1516 :     rc = ERROR;

	or	r12d, -1
$LN60@HllStartDi:

; 1517 :     //return( ERROR ); /* v2.08: continue and parse the line queue */
; 1518 :   }
; 1519 :   /* v2.06: remove the item from the free stack */
; 1520 :   if (hll == HllFree)

	cmp	rdi, QWORD PTR ModuleInfo+232
	mov	r15, QWORD PTR [rsp+7264]
	jne	SHORT $LN61@HllStartDi

; 1521 :     HllFree = hll->next;

	mov	rax, QWORD PTR [rdi]
	mov	QWORD PTR ModuleInfo+232, rax
$LN61@HllStartDi:

; 1522 :   hll->next = HllStack;

	mov	rax, QWORD PTR ModuleInfo+224
	mov	QWORD PTR [rdi], rax

; 1523 :   HllStack = hll;
; 1524 : 
; 1525 :   if (ModuleInfo.list)

	test	DWORD PTR ModuleInfo+408, 2048		; 00000800H
	mov	QWORD PTR ModuleInfo+224, rdi
	mov	rdi, QWORD PTR [rsp+7336]
	je	SHORT $LN62@HllStartDi

; 1526 :     LstWrite(LSTTYPE_DIRECTIVE, GetCurrOffset(), NULL);

	call	GetCurrOffset
	xor	r8d, r8d
	mov	edx, eax
	lea	ecx, QWORD PTR [r8+4]
	call	LstWrite
$LN62@HllStartDi:

; 1527 : 
; 1528 :   if (is_linequeue_populated()) /* might be NULL! (".if 1") */

	cmp	QWORD PTR ModuleInfo+184, 0
	je	SHORT $LN273@HllStartDi

; 1529 :     RunLineQueue();

	call	RunLineQueue
$LN273@HllStartDi:

; 1530 : 
; 1531 :   return(rc);

	mov	eax, r12d

; 1532 : }

	add	rsp, 7288				; 00001c78H
	pop	r12
	pop	rbp
	ret	0
HllStartDir ENDP
_TEXT	ENDS
; Function compile flags: /Ogtpy
; File d:\hjwasm\hjwasm2.13.1s\hjwasm2.13.1s\hll.c
;	COMDAT ForInitAndNext
_TEXT	SEGMENT
codebuff$1 = 32
codebuff$2 = 32
codebuff$3 = 32
codebuff$4 = 32
codebuff$5 = 32
codebuff$6 = 32
codebuff$7 = 32
codebuff$8 = 32
codebuff$9 = 32
codebuff$10 = 32
codebuff$11 = 32
codebuff$12 = 32
codebuff$13 = 32
codebuff$14 = 32
codebuff$15 = 32
codebuff$16 = 32
codebuff$17 = 32
codebuff$18 = 32
codebuff$19 = 32
codebuff$20 = 32
codebuff$ = 288
init$ = 544
param$ = 800
tokenarray$ = 1120
op$ = 1128
cnt$ = 1128
buff$ = 1136
ForInitAndNext PROC					; COMDAT

; 981  : static ret_code ForInitAndNext(struct asm_tok tokenarray[], int cnt, char *buff) {

	mov	QWORD PTR [rsp+32], rbx
	mov	QWORD PTR [rsp+24], r8
	mov	QWORD PTR [rsp+8], rcx
	push	rbp
	push	rsi
	push	rdi
	push	r12
	push	r13
	push	r14
	push	r15
	lea	rbp, QWORD PTR [rsp-800]
	sub	rsp, 1056				; 00000420H

; 982  :   int a;
; 983  :   int j;
; 984  :   int	b = 0;

	xor	r15d, r15d
	mov	r12, r8

; 985  :   bool brct = 0;

	xor	r14b, r14b
	mov	esi, edx
	mov	r13, rcx
	mov	r9, 145272973819904			; 0000842000000000H
$LL4@ForInitAnd:

; 986  :   char codebuff[256];
; 987  :   char param[256];
; 988  :   char init[256];
; 989  :   char op[4];
; 990  :   char *p;
; 991  :   //create valid command and add to LineQueue
; 992  :   do {
; 993  :     //extracting the first parameter "param" before the operator
; 994  :     a = 0;
; 995  :     while (buff[b] && !strchr("=!<>&|-+*^%/", buff[b]))

	movsxd	rbx, r15d
	xor	edi, edi
	add	rbx, r12
	cmp	BYTE PTR [rbx], dil
	je	SHORT $LN268@ForInitAnd
	npad	2
$LL5@ForInitAnd:
	movsx	edx, BYTE PTR [rbx]
	lea	rcx, OFFSET FLAT:$SG11439
	call	strchr
	test	rax, rax
	jne	SHORT $LN531@ForInitAnd

; 996  :     {
; 997  :       if (buff[b] == '-' || buff[b] == '+') break;

	movzx	ecx, BYTE PTR [rbx]
	lea	eax, DWORD PTR [rcx-43]
	test	al, 253					; 000000fdH
	je	SHORT $LN531@ForInitAnd

; 998  :       param[a] = buff[b];
; 999  :       b++;

	inc	rbx
	mov	BYTE PTR param$[rbp+rdi-256], cl
	inc	r15d

; 1000 :       a++;

	inc	rdi
	cmp	BYTE PTR [rbx], 0
	jne	SHORT $LL5@ForInitAnd
$LN531@ForInitAnd:
	mov	r9, 145272973819904			; 0000842000000000H
$LN268@ForInitAnd:

; 1001 :     }
; 1002 :     param[a] = '\0';
; 1003 :     //end of param
; 1004 :     //is it simple operator
; 1005 :     if ((buff[b + 1] == '+') || (buff[b + 1] == '-')) {            //if ++ or -- finish it here

	movsxd	rax, r15d
	movzx	edx, BYTE PTR [rax+r12+1]
	lea	rcx, QWORD PTR [rax+r12]
	mov	BYTE PTR param$[rbp+rdi-256], 0
	lea	eax, DWORD PTR [rdx-43]
	test	al, 253					; 000000fdH
	je	$LN23@ForInitAnd

; 1012 :     }
; 1013 : 
; 1014 :     //we finis here "inc REX" or  "dec REX" or "inc mem" or "dec mem"
; 1015 :     else						//if not ++ or -- 
; 1016 :     {							//extracting the operator
; 1017 :       op[0] = buff[b];

	movzx	ebx, BYTE PTR [rcx]

; 1018 :       b++;

	inc	r15d
	mov	BYTE PTR op$[rbp-256], bl

; 1019 :       if (op[0] == '=') {     //if operator is only '='

	cmp	bl, 61					; 0000003dH
	jne	SHORT $LN27@ForInitAnd

; 1020 :         op[1] = '\0';       //finish here

	xor	r8b, r8b
	mov	BYTE PTR op$[rbp-255], r8b

; 1021 :       }

	jmp	SHORT $LN30@ForInitAnd
$LN27@ForInitAnd:

; 1022 :       else {                 //extract next operator
; 1023 :         op[1] = buff[b];

	movsxd	rax, r15d

; 1024 :         b++;

	inc	r15d
	movzx	r8d, BYTE PTR [rax+r12]
	mov	BYTE PTR op$[rbp-255], r8b
	lea	eax, DWORD PTR [r8-60]
	test	al, 253					; 000000fdH
	jne	SHORT $LN29@ForInitAnd

; 1025 :         if ((op[1] == '<' || op[1] == '>') && (buff[b] == '=')) {

	movsxd	rax, r15d
	cmp	BYTE PTR [rax+r12], 61			; 0000003dH
	jne	SHORT $LN29@ForInitAnd

; 1026 :           op[2] = buff[b]; //if a second operator is shift sign "<<=" or ">>="

	mov	WORD PTR op$[rbp-254], 61		; 0000003dH

; 1027 :           op[3] = NULLC;
; 1028 :           b++;

	inc	r15d

; 1029 :         }

	jmp	SHORT $LN30@ForInitAnd
$LN29@ForInitAnd:

; 1030 :         else op[2] = NULLC; //not shift so we have two operands

	mov	BYTE PTR op$[rbp-254], 0
$LN30@ForInitAnd:

; 1031 : 
; 1032 :       }
; 1033 :       //we finished with param and op
; 1034 :       //now extracting the second parameter "init" after the operator
; 1035 :       for (a = 0; buff[b];) { //checking if we have a char in a single ' '

	movsxd	rax, r15d
	xor	edx, edx
	movzx	ecx, BYTE PTR [rax+r12]
	test	cl, cl
	je	SHORT $LN532@ForInitAnd
$LL7@ForInitAnd:

; 1036 :         if (buff[b] == '(' && buff[b - 1] != 39 && buff[b + 1] != 39 && b) break;

	cmp	cl, 40					; 00000028H
	je	SHORT $LN541@ForInitAnd

; 1037 :         if (buff[b] == ',' && buff[b - 1] != 39 && buff[b + 1] != 39 && b) break;

	cmp	cl, 44					; 0000002cH
	jne	SHORT $LN33@ForInitAnd
$LN541@ForInitAnd:
	cmp	BYTE PTR [rax+r12-1], 39		; 00000027H
	je	SHORT $LN33@ForInitAnd
	cmp	BYTE PTR [rax+r12+1], 39		; 00000027H
	je	SHORT $LN33@ForInitAnd
	test	rax, rax
	jne	SHORT $LN532@ForInitAnd
$LN33@ForInitAnd:

; 1038 :         init[a] = buff[b];
; 1039 :         b++;

	inc	rax
	mov	BYTE PTR init$[rbp+rdx-256], cl
	inc	r15d

; 1040 :         a++;

	inc	rdx
	movzx	ecx, BYTE PTR [rax+r12]
	test	cl, cl
	jne	SHORT $LL7@ForInitAnd
$LN532@ForInitAnd:

; 1041 :       }
; 1042 :       if (buff[b] == '(' && buff[b - 1] != 39 && buff[b + 1] != 39 && b) {

	movsxd	rax, r15d
	cmp	BYTE PTR [rax+r12], 40			; 00000028H
	lea	rcx, QWORD PTR [rax+r12]
	jne	SHORT $LN34@ForInitAnd
	cmp	BYTE PTR [rcx-1], 39			; 00000027H
	je	SHORT $LN34@ForInitAnd
	cmp	BYTE PTR [rcx+1], 39			; 00000027H
	je	SHORT $LN34@ForInitAnd
	test	r15d, r15d
	je	SHORT $LN34@ForInitAnd
	mov	al, 40					; 00000028H
	npad	6
$LL12@ForInitAnd:

; 1043 :         for (; buff[b] && buff[b] != ')'; b++, a++) {

	cmp	al, 41					; 00000029H
	je	SHORT $LN11@ForInitAnd
	inc	rcx

; 1044 :           init[a] = buff[b];

	mov	BYTE PTR init$[rbp+rdx-256], al
	inc	r15d
	inc	rdx
	movzx	eax, BYTE PTR [rcx]
	test	al, al
	jne	SHORT $LL12@ForInitAnd
$LN11@ForInitAnd:

; 1045 :         }
; 1046 :         if (buff[b] == ')' && buff[b - 1] != 39 && buff[b + 1] != 39) {

	movsxd	rax, r15d
	cmp	BYTE PTR [rax+r12], 41			; 00000029H
	jne	SHORT $LN35@ForInitAnd
	cmp	BYTE PTR [rax+r12-1], 39		; 00000027H
	je	SHORT $LN35@ForInitAnd
	cmp	BYTE PTR [rax+r12+1], 39		; 00000027H
	je	SHORT $LN35@ForInitAnd

; 1047 :           init[a] = buff[b];
; 1048 :           b++;

	inc	r15d
	mov	BYTE PTR init$[rbp+rdx-256], 41		; 00000029H

; 1049 :           a++;

	inc	rdx
$LN35@ForInitAnd:

; 1050 :         }
; 1051 :         brct = TRUE;

	mov	r14b, 1
$LN34@ForInitAnd:

; 1052 :       }
; 1053 :       init[a] = NULLC;
; 1054 :       b++;

	inc	r15d
	mov	BYTE PTR init$[rbp+rdx-256], 0
	cmp	bl, 47					; 0000002fH
	ja	$LN386@ForInitAnd
	movsx	rax, bl
	bt	r9, rax
	jae	$LN386@ForInitAnd

; 1055 :       //we finished with init
; 1056 :       //is operator devision, multiplication or mod
; 1057 :       if (op[0] == '/' || op[0] == '*' || op[0] == '%') {
; 1058 :         Tokenize(param, 0, tokenarray, 0);

	xor	r9d, r9d
	lea	rcx, QWORD PTR param$[rbp-256]
	mov	r8, r13
	xor	edx, edx
	call	Tokenize

; 1059 :         if (strcasecmp(param, reax[ModuleInfo.Ofssize]) && strcasecmp(init, reax[ModuleInfo.Ofssize])) { //param not rax init not rax?    

	movzx	edx, BYTE PTR ModuleInfo+404
	lea	rax, OFFSET FLAT:__ImageBase
	lea	rcx, QWORD PTR param$[rbp-256]
	mov	rdx, QWORD PTR reax[rax+rdx*8]
	call	_stricmp
	test	eax, eax
	je	$LN39@ForInitAnd
	movzx	edx, BYTE PTR ModuleInfo+404
	lea	rax, OFFSET FLAT:__ImageBase
	lea	rcx, QWORD PTR init$[rbp-256]
	mov	rdx, QWORD PTR reax[rax+rdx*8]
	call	_stricmp
	test	eax, eax
	je	$LN39@ForInitAnd

; 1060 :           if (tokenarray[0].token == T_REG) {			//is param register              

	movzx	eax, BYTE PTR [r13]
	cmp	al, 2
	jne	$LN41@ForInitAnd

; 1061 :             if (strcasecmp(param, recx[ModuleInfo.Ofssize])) {				//make sure that param is not rcx

	movzx	edx, BYTE PTR ModuleInfo+404
	lea	rax, OFFSET FLAT:recx
	lea	rcx, QWORD PTR param$[rbp-256]
	mov	rdx, QWORD PTR [rax+rdx*8]
	call	_stricmp
	test	eax, eax
	je	$LN43@ForInitAnd

; 1062 :               WriteAsmLine(" mov  ", reax[ModuleInfo.Ofssize], param);				// MOV RAX,param

	movzx	eax, BYTE PTR ModuleInfo+404
	lea	rdx, OFFSET FLAT:__ImageBase
	xor	ecx, ecx
	mov	r8, QWORD PTR reax[rdx+rax*8]
	npad	5
$LL157@ForInitAnd:
	movzx	eax, BYTE PTR $SG11467[rcx+rdx]
	mov	BYTE PTR codebuff$20[rsp+rcx], al
	lea	rcx, QWORD PTR [rcx+1]
	test	al, al
	jne	SHORT $LL157@ForInitAnd
	lea	rcx, QWORD PTR codebuff$20[rsp]
	dec	rcx
	npad	4
$LL528@ForInitAnd:
	cmp	BYTE PTR [rcx+1], 0
	lea	rcx, QWORD PTR [rcx+1]
	jne	SHORT $LL528@ForInitAnd
	xor	edx, edx
	npad	4
$LL529@ForInitAnd:
	movzx	eax, BYTE PTR [r8+rdx]
	mov	BYTE PTR [rcx+rdx], al
	lea	rdx, QWORD PTR [rdx+1]
	test	al, al
	jne	SHORT $LL529@ForInitAnd
	lea	rcx, QWORD PTR codebuff$20[rsp]
	dec	rcx
	npad	8
$LL526@ForInitAnd:
	cmp	BYTE PTR [rcx+1], 0
	lea	rcx, QWORD PTR [rcx+1]
	jne	SHORT $LL526@ForInitAnd
	xor	edx, edx
	lea	r8, OFFSET FLAT:$SG11401
	npad	13
$LL527@ForInitAnd:
	movzx	eax, BYTE PTR [r8+rdx]
	mov	BYTE PTR [rcx+rdx], al
	lea	rdx, QWORD PTR [rdx+1]
	test	al, al
	jne	SHORT $LL527@ForInitAnd
	lea	rcx, QWORD PTR codebuff$20[rsp]
	dec	rcx
	npad	8
$LL524@ForInitAnd:
	cmp	BYTE PTR [rcx+1], 0
	lea	rcx, QWORD PTR [rcx+1]
	jne	SHORT $LL524@ForInitAnd
	lea	r8, QWORD PTR param$[rbp-256]
	xor	edx, edx
	npad	13
$LL525@ForInitAnd:
	movzx	eax, BYTE PTR [r8+rdx]
	mov	BYTE PTR [rcx+rdx], al
	lea	rdx, QWORD PTR [rdx+1]
	test	al, al
	jne	SHORT $LL525@ForInitAnd
	lea	rcx, QWORD PTR codebuff$20[rsp]
	call	AddLineQueue
$LN43@ForInitAnd:

; 1063 :             }						if (op[0] == '/' || op[0] == '%') {

	cmp	bl, 47					; 0000002fH
	je	SHORT $LN45@ForInitAnd
	cmp	bl, 37					; 00000025H
	jne	SHORT $LN44@ForInitAnd
$LN45@ForInitAnd:

; 1064 :               strcpy(codebuff, " cdq ");			//extend to RDX if division	

	xor	ecx, ecx
	lea	r12, OFFSET FLAT:__ImageBase
	npad	3
$LL130@ForInitAnd:
	movzx	eax, BYTE PTR $SG11470[rcx+r12]
	mov	BYTE PTR codebuff$[rbp+rcx-256], al
	lea	rcx, QWORD PTR [rcx+1]
	test	al, al
	jne	SHORT $LL130@ForInitAnd

; 1065 :               AddLineQueue(codebuff);

	mov	r12, QWORD PTR buff$[rbp-256]
	lea	rcx, QWORD PTR codebuff$[rbp-256]
	call	AddLineQueue
$LN44@ForInitAnd:

; 1066 :             }
; 1067 :             Tokenize(init, 0, tokenarray, 0);

	xor	r9d, r9d
	lea	rcx, QWORD PTR init$[rbp-256]
	mov	r8, r13
	xor	edx, edx
	call	Tokenize

; 1068 :             if (tokenarray[0].token == T_NUM) {      //is init number? 

	cmp	BYTE PTR [r13], 10
	jne	$LN46@ForInitAnd

; 1069 :               WriteAsmLine(" mov  ", recx[ModuleInfo.Ofssize], init);        //MOV RCX,init

	movzx	eax, BYTE PTR ModuleInfo+404
	lea	r8, OFFSET FLAT:recx
	xor	ecx, ecx
	lea	r12, OFFSET FLAT:__ImageBase
	mov	r8, QWORD PTR [r8+rax*8]
	npad	1
$LL160@ForInitAnd:
	movzx	eax, BYTE PTR $SG11473[rcx+r12]
	mov	BYTE PTR codebuff$19[rsp+rcx], al
	lea	rcx, QWORD PTR [rcx+1]
	test	al, al
	jne	SHORT $LL160@ForInitAnd
	lea	rcx, QWORD PTR codebuff$19[rsp]
	dec	rcx
	npad	3
$LL522@ForInitAnd:
	cmp	BYTE PTR [rcx+1], 0
	lea	rcx, QWORD PTR [rcx+1]
	jne	SHORT $LL522@ForInitAnd
	xor	edx, edx
	npad	4
$LL523@ForInitAnd:
	movzx	eax, BYTE PTR [r8+rdx]
	mov	BYTE PTR [rcx+rdx], al
	lea	rdx, QWORD PTR [rdx+1]
	test	al, al
	jne	SHORT $LL523@ForInitAnd
	lea	rcx, QWORD PTR codebuff$19[rsp]
	dec	rcx
	npad	8
$LL520@ForInitAnd:
	cmp	BYTE PTR [rcx+1], 0
	lea	rcx, QWORD PTR [rcx+1]
	jne	SHORT $LL520@ForInitAnd
	xor	edx, edx
	lea	r13, OFFSET FLAT:$SG11401
	npad	13
$LL521@ForInitAnd:
	movzx	eax, BYTE PTR [rdx+r13]
	mov	BYTE PTR [rcx+rdx], al
	lea	rdx, QWORD PTR [rdx+1]
	test	al, al
	jne	SHORT $LL521@ForInitAnd
	mov	r13, QWORD PTR tokenarray$[rbp-256]
	lea	rcx, QWORD PTR codebuff$19[rsp]
	dec	rcx
	npad	1
$LL518@ForInitAnd:
	cmp	BYTE PTR [rcx+1], 0
	lea	rcx, QWORD PTR [rcx+1]
	jne	SHORT $LL518@ForInitAnd
	lea	r8, QWORD PTR init$[rbp-256]
	xor	edx, edx
	npad	13
$LL519@ForInitAnd:
	movzx	eax, BYTE PTR [r8+rdx]
	mov	BYTE PTR [rcx+rdx], al
	lea	rdx, QWORD PTR [rdx+1]
	test	al, al
	jne	SHORT $LL519@ForInitAnd
	lea	rcx, QWORD PTR codebuff$19[rsp]
	call	AddLineQueue

; 1070 :               if (op[0] == '/' || op[0] == '%')

	cmp	bl, 47					; 0000002fH
	je	SHORT $LN50@ForInitAnd
	cmp	bl, 37					; 00000025H
	je	SHORT $LN50@ForInitAnd

; 1072 :               else strcpy(codebuff, " imul ");		//IMUL RCX        

	xor	ecx, ecx
	lea	r12, OFFSET FLAT:__ImageBase
	npad	3
$LL132@ForInitAnd:
	movzx	eax, BYTE PTR $SG11478[rcx+r12]
	mov	BYTE PTR codebuff$[rbp+rcx-256], al
	lea	rcx, QWORD PTR [rcx+1]
	test	al, al
	jne	SHORT $LL132@ForInitAnd
	jmp	SHORT $LN542@ForInitAnd
$LN50@ForInitAnd:

; 1071 :                 strcpy(codebuff, " idiv ");		//IDIV RCX        

	xor	ecx, ecx
	lea	r12, OFFSET FLAT:__ImageBase
$LL131@ForInitAnd:
	movzx	eax, BYTE PTR $SG11477[rcx+r12]
	mov	BYTE PTR codebuff$[rbp+rcx-256], al
	lea	rcx, QWORD PTR [rcx+1]
	test	al, al
	jne	SHORT $LL131@ForInitAnd
$LN542@ForInitAnd:
	mov	r12, QWORD PTR buff$[rbp-256]

; 1073 :               strcat(codebuff, recx[ModuleInfo.Ofssize]);

	lea	rcx, QWORD PTR codebuff$[rbp-256]
	movzx	r8d, BYTE PTR ModuleInfo+404
	dec	rcx
	npad	5
$LL516@ForInitAnd:
	cmp	BYTE PTR [rcx+1], 0
	lea	rcx, QWORD PTR [rcx+1]
	jne	SHORT $LL516@ForInitAnd
	lea	rax, OFFSET FLAT:recx
	xor	edx, edx
	mov	r8, QWORD PTR [rax+r8*8]
	npad	9
$LL517@ForInitAnd:
	movzx	eax, BYTE PTR [r8+rdx]
	mov	BYTE PTR [rcx+rdx], al
	lea	rdx, QWORD PTR [rdx+1]
	test	al, al
	jne	SHORT $LL517@ForInitAnd

; 1074 :               AddLineQueue(codebuff);
; 1075 :               goto cont;

	jmp	$LN543@ForInitAnd
$LN46@ForInitAnd:

; 1076 :             }
; 1077 :             else {
; 1078 :               if (op[0] == '/' || op[0] == '%') //it is a variable

	cmp	bl, 47					; 0000002fH
	je	SHORT $LN53@ForInitAnd
	cmp	bl, 37					; 00000025H
	je	SHORT $LN53@ForInitAnd

; 1080 :               else strcpy(codebuff, " imul ");

	xor	ecx, ecx
	lea	r12, OFFSET FLAT:__ImageBase
	npad	8
$LL134@ForInitAnd:
	movzx	eax, BYTE PTR $SG11483[rcx+r12]
	mov	BYTE PTR codebuff$[rbp+rcx-256], al
	lea	rcx, QWORD PTR [rcx+1]
	test	al, al
	jne	SHORT $LL134@ForInitAnd
	mov	r12, QWORD PTR buff$[rbp-256]
	jmp	SHORT $LN52@ForInitAnd
$LN53@ForInitAnd:

; 1079 :                 strcpy(codebuff, " idiv ");

	xor	ecx, ecx
	lea	r13, OFFSET FLAT:__ImageBase
	npad	9
$LL133@ForInitAnd:
	movzx	eax, BYTE PTR $SG11482[rcx+r13]
	mov	BYTE PTR codebuff$[rbp+rcx-256], al
	lea	rcx, QWORD PTR [rcx+1]
	test	al, al
	jne	SHORT $LL133@ForInitAnd
	mov	r13, QWORD PTR tokenarray$[rbp-256]
$LN52@ForInitAnd:

; 1081 :               strcat(codebuff, init);

	lea	rcx, QWORD PTR codebuff$[rbp-256]
	dec	rcx
$LL514@ForInitAnd:
	cmp	BYTE PTR [rcx+1], 0
	lea	rcx, QWORD PTR [rcx+1]
	jne	SHORT $LL514@ForInitAnd
	lea	r8, QWORD PTR init$[rbp-256]
	xor	edx, edx
	npad	10
$LL515@ForInitAnd:
	movzx	eax, BYTE PTR [r8+rdx]
	mov	BYTE PTR [rcx+rdx], al
	lea	rdx, QWORD PTR [rdx+1]
	test	al, al
	jne	SHORT $LL515@ForInitAnd

; 1082 :               AddLineQueue(codebuff);
; 1083 :               goto cont;

	jmp	$LN543@ForInitAnd
$LN41@ForInitAnd:

; 1084 :             }
; 1085 :           }
; 1086 :           //if param is a variable
; 1087 :           else if (tokenarray[0].token == T_ID) {		 //YES             

	cmp	al, 8
	jne	$LN537@ForInitAnd

; 1088 :             WriteAsmLine(" mov  ", recx[ModuleInfo.Ofssize], init);        //MOV RCX,init

	movzx	eax, BYTE PTR ModuleInfo+404
	lea	r8, OFFSET FLAT:recx
	xor	ecx, ecx
	lea	r12, OFFSET FLAT:__ImageBase
	mov	r8, QWORD PTR [r8+rax*8]
	npad	8
$LL163@ForInitAnd:
	movzx	eax, BYTE PTR $SG11485[rcx+r12]
	mov	BYTE PTR codebuff$18[rsp+rcx], al
	lea	rcx, QWORD PTR [rcx+1]
	test	al, al
	jne	SHORT $LL163@ForInitAnd
	lea	rcx, QWORD PTR codebuff$18[rsp]
	dec	rcx
	npad	3
$LL512@ForInitAnd:
	cmp	BYTE PTR [rcx+1], 0
	lea	rcx, QWORD PTR [rcx+1]
	jne	SHORT $LL512@ForInitAnd
	xor	edx, edx
	npad	4
$LL513@ForInitAnd:
	movzx	eax, BYTE PTR [r8+rdx]
	mov	BYTE PTR [rcx+rdx], al
	lea	rdx, QWORD PTR [rdx+1]
	test	al, al
	jne	SHORT $LL513@ForInitAnd
	lea	rcx, QWORD PTR codebuff$18[rsp]
	dec	rcx
	npad	8
$LL510@ForInitAnd:
	cmp	BYTE PTR [rcx+1], 0
	lea	rcx, QWORD PTR [rcx+1]
	jne	SHORT $LL510@ForInitAnd
	xor	edx, edx
	lea	r13, OFFSET FLAT:$SG11401
	npad	13
$LL511@ForInitAnd:
	movzx	eax, BYTE PTR [rdx+r13]
	mov	BYTE PTR [rcx+rdx], al
	lea	rdx, QWORD PTR [rdx+1]
	test	al, al
	jne	SHORT $LL511@ForInitAnd
	lea	rcx, QWORD PTR codebuff$18[rsp]
	dec	rcx
	npad	8
$LL508@ForInitAnd:
	cmp	BYTE PTR [rcx+1], 0
	lea	rcx, QWORD PTR [rcx+1]
	jne	SHORT $LL508@ForInitAnd
	lea	r8, QWORD PTR init$[rbp-256]
	xor	edx, edx
	npad	13
$LL509@ForInitAnd:
	movzx	eax, BYTE PTR [r8+rdx]
	mov	BYTE PTR [rcx+rdx], al
	lea	rdx, QWORD PTR [rdx+1]
	test	al, al
	jne	SHORT $LL509@ForInitAnd
	lea	rcx, QWORD PTR codebuff$18[rsp]
	call	AddLineQueue

; 1089 :             WriteAsmLine(" mov  ", reax[ModuleInfo.Ofssize], param);		// MOV RAX,param

	movzx	eax, BYTE PTR ModuleInfo+404
	lea	rdx, OFFSET FLAT:__ImageBase
	xor	ecx, ecx
	mov	r8, QWORD PTR reax[rdx+rax*8]
	npad	14
$LL166@ForInitAnd:
	movzx	eax, BYTE PTR $SG11486[rcx+rdx]
	mov	BYTE PTR codebuff$17[rsp+rcx], al
	lea	rcx, QWORD PTR [rcx+1]
	test	al, al
	jne	SHORT $LL166@ForInitAnd
	lea	rcx, QWORD PTR codebuff$17[rsp]
	dec	rcx
	npad	4
$LL506@ForInitAnd:
	cmp	BYTE PTR [rcx+1], 0
	lea	rcx, QWORD PTR [rcx+1]
	jne	SHORT $LL506@ForInitAnd
	xor	edx, edx
	npad	4
$LL507@ForInitAnd:
	movzx	eax, BYTE PTR [r8+rdx]
	mov	BYTE PTR [rcx+rdx], al
	lea	rdx, QWORD PTR [rdx+1]
	test	al, al
	jne	SHORT $LL507@ForInitAnd
	lea	rcx, QWORD PTR codebuff$17[rsp]
	dec	rcx
	npad	8
$LL504@ForInitAnd:
	cmp	BYTE PTR [rcx+1], 0
	lea	rcx, QWORD PTR [rcx+1]
	jne	SHORT $LL504@ForInitAnd
	xor	edx, edx
	lea	r13, OFFSET FLAT:$SG11401
	npad	13
$LL505@ForInitAnd:
	movzx	eax, BYTE PTR [rdx+r13]
	mov	BYTE PTR [rcx+rdx], al
	lea	rdx, QWORD PTR [rdx+1]
	test	al, al
	jne	SHORT $LL505@ForInitAnd
	mov	r13, QWORD PTR tokenarray$[rbp-256]
	lea	rcx, QWORD PTR codebuff$17[rsp]
	dec	rcx
	npad	1
$LL502@ForInitAnd:
	cmp	BYTE PTR [rcx+1], 0
	lea	rcx, QWORD PTR [rcx+1]
	jne	SHORT $LL502@ForInitAnd
	lea	r8, QWORD PTR param$[rbp-256]
	xor	edx, edx
	npad	13
$LL503@ForInitAnd:
	movzx	eax, BYTE PTR [r8+rdx]
	mov	BYTE PTR [rcx+rdx], al
	lea	rdx, QWORD PTR [rdx+1]
	test	al, al
	jne	SHORT $LL503@ForInitAnd
	lea	rcx, QWORD PTR codebuff$17[rsp]
	call	AddLineQueue

; 1090 :             if (op[0] == '/' || op[0] == '%') {

	cmp	bl, 47					; 0000002fH
	je	SHORT $LN57@ForInitAnd
	cmp	bl, 37					; 00000025H
	je	SHORT $LN57@ForInitAnd

; 1094 :             }
; 1095 :             else strcpy(codebuff, " imul ");

	xor	ecx, ecx
	lea	r12, OFFSET FLAT:__ImageBase
	npad	3
$LL137@ForInitAnd:
	movzx	eax, BYTE PTR $SG11492[rcx+r12]
	mov	BYTE PTR codebuff$[rbp+rcx-256], al
	lea	rcx, QWORD PTR [rcx+1]
	test	al, al
	jne	SHORT $LL137@ForInitAnd
	jmp	SHORT $LN544@ForInitAnd
$LN57@ForInitAnd:

; 1091 :               strcpy(codebuff, " cdq ");

	xor	ecx, ecx
	lea	r13, OFFSET FLAT:__ImageBase
$LL135@ForInitAnd:
	movzx	eax, BYTE PTR $SG11490[rcx+r13]
	mov	BYTE PTR codebuff$[rbp+rcx-256], al
	lea	rcx, QWORD PTR [rcx+1]
	test	al, al
	jne	SHORT $LL135@ForInitAnd

; 1092 :               AddLineQueue(codebuff);

	mov	r13, QWORD PTR tokenarray$[rbp-256]
	lea	rcx, QWORD PTR codebuff$[rbp-256]
	call	AddLineQueue

; 1093 :               strcpy(codebuff, " idiv ");

	xor	ecx, ecx
	lea	r12, OFFSET FLAT:__ImageBase
	npad	2
$LL136@ForInitAnd:
	movzx	eax, BYTE PTR $SG11491[rcx+r12]
	mov	BYTE PTR codebuff$[rbp+rcx-256], al
	lea	rcx, QWORD PTR [rcx+1]
	test	al, al
	jne	SHORT $LL136@ForInitAnd
$LN544@ForInitAnd:
	mov	r12, QWORD PTR buff$[rbp-256]

; 1096 :             strcat(codebuff, recx[ModuleInfo.Ofssize]);

	lea	rcx, QWORD PTR codebuff$[rbp-256]
	movzx	r8d, BYTE PTR ModuleInfo+404
	dec	rcx
	npad	5
$LL500@ForInitAnd:
	cmp	BYTE PTR [rcx+1], 0
	lea	rcx, QWORD PTR [rcx+1]
	jne	SHORT $LL500@ForInitAnd
	lea	rax, OFFSET FLAT:recx
	xor	edx, edx
	mov	r8, QWORD PTR [rax+r8*8]
	npad	9
$LL501@ForInitAnd:
	movzx	eax, BYTE PTR [r8+rdx]
	mov	BYTE PTR [rcx+rdx], al
	lea	rdx, QWORD PTR [rdx+1]
	test	al, al
	jne	SHORT $LL501@ForInitAnd
$LN543@ForInitAnd:

; 1097 :             AddLineQueue(codebuff);

	lea	rcx, QWORD PTR codebuff$[rbp-256]
	call	AddLineQueue
$cont$553:

; 1098 :           cont:
; 1099 :             if (op[0] == '%') {
; 1100 :               WriteAsmLine(" mov  ", param, redx[ModuleInfo.Ofssize]);

	movzx	eax, BYTE PTR ModuleInfo+404
	xor	ecx, ecx
	cmp	bl, 37					; 00000025H
	lea	rbx, OFFSET FLAT:__ImageBase
	jne	$LN58@ForInitAnd
	mov	r8, QWORD PTR redx[rbx+rax*8]
	npad	6
$LL169@ForInitAnd:
	movzx	eax, BYTE PTR $SG11495[rcx+rbx]
	mov	BYTE PTR codebuff$16[rsp+rcx], al
	lea	rcx, QWORD PTR [rcx+1]
	test	al, al
	jne	SHORT $LL169@ForInitAnd
	lea	rcx, QWORD PTR codebuff$16[rsp]
	dec	rcx
	npad	4
$LL498@ForInitAnd:
	cmp	BYTE PTR [rcx+1], 0
	lea	rcx, QWORD PTR [rcx+1]
	jne	SHORT $LL498@ForInitAnd
	lea	r9, QWORD PTR param$[rbp-256]
	xor	edx, edx
	npad	13
$LL499@ForInitAnd:
	movzx	eax, BYTE PTR [r9+rdx]
	mov	BYTE PTR [rcx+rdx], al
	lea	rdx, QWORD PTR [rdx+1]
	test	al, al
	jne	SHORT $LL499@ForInitAnd
	lea	rcx, QWORD PTR codebuff$16[rsp]
	dec	rcx
	npad	8
$LL496@ForInitAnd:
	cmp	BYTE PTR [rcx+1], 0
	lea	rcx, QWORD PTR [rcx+1]
	jne	SHORT $LL496@ForInitAnd
	xor	edx, edx
	lea	r12, OFFSET FLAT:$SG11401
	npad	13
$LL497@ForInitAnd:
	movzx	eax, BYTE PTR [r12+rdx]
	mov	BYTE PTR [rcx+rdx], al
	lea	rdx, QWORD PTR [rdx+1]
	test	al, al
	jne	SHORT $LL497@ForInitAnd
	mov	r12, QWORD PTR buff$[rbp-256]
	lea	rcx, QWORD PTR codebuff$16[rsp]
	dec	rcx
	npad	1
$LL494@ForInitAnd:
	cmp	BYTE PTR [rcx+1], 0
	lea	rcx, QWORD PTR [rcx+1]
	jne	SHORT $LL494@ForInitAnd
	xor	edx, edx
	npad	4
$LL495@ForInitAnd:
	movzx	eax, BYTE PTR [r8+rdx]
	mov	BYTE PTR [rcx+rdx], al
	inc	rdx
	test	al, al
	jne	SHORT $LL495@ForInitAnd
	lea	rcx, QWORD PTR codebuff$16[rsp]
	call	AddLineQueue

; 1101 :               goto skip;

	jmp	$skip$554
$LN58@ForInitAnd:

; 1102 :             }
; 1103 :             else {
; 1104 :               WriteAsmLine(" mov  ", param, reax[ModuleInfo.Ofssize]);

	mov	r8, QWORD PTR reax[rbx+rax*8]
	npad	10
$LL172@ForInitAnd:
	movzx	eax, BYTE PTR $SG11496[rcx+rbx]
	mov	BYTE PTR codebuff$15[rsp+rcx], al
	lea	rcx, QWORD PTR [rcx+1]
	test	al, al
	jne	SHORT $LL172@ForInitAnd
	lea	rcx, QWORD PTR codebuff$15[rsp]
	dec	rcx
	npad	4
$LL492@ForInitAnd:
	cmp	BYTE PTR [rcx+1], 0
	lea	rcx, QWORD PTR [rcx+1]
	jne	SHORT $LL492@ForInitAnd
	lea	r9, QWORD PTR param$[rbp-256]
	xor	edx, edx
	npad	13
$LL493@ForInitAnd:
	movzx	eax, BYTE PTR [r9+rdx]
	mov	BYTE PTR [rcx+rdx], al
	lea	rdx, QWORD PTR [rdx+1]
	test	al, al
	jne	SHORT $LL493@ForInitAnd
	lea	rcx, QWORD PTR codebuff$15[rsp]
	dec	rcx
	npad	8
$LL490@ForInitAnd:
	cmp	BYTE PTR [rcx+1], 0
	lea	rcx, QWORD PTR [rcx+1]
	jne	SHORT $LL490@ForInitAnd
	xor	edx, edx
	lea	r13, OFFSET FLAT:$SG11401
	npad	13
$LL491@ForInitAnd:
	movzx	eax, BYTE PTR [rdx+r13]
	mov	BYTE PTR [rcx+rdx], al
	lea	rdx, QWORD PTR [rdx+1]
	test	al, al
	jne	SHORT $LL491@ForInitAnd
	mov	r13, QWORD PTR tokenarray$[rbp-256]
	lea	rcx, QWORD PTR codebuff$15[rsp]
	dec	rcx
	npad	1
$LL488@ForInitAnd:
	cmp	BYTE PTR [rcx+1], 0
	lea	rcx, QWORD PTR [rcx+1]
	jne	SHORT $LL488@ForInitAnd
	xor	edx, edx
	npad	4
$LL489@ForInitAnd:
	movzx	eax, BYTE PTR [r8+rdx]
	mov	BYTE PTR [rcx+rdx], al
	inc	rdx
	test	al, al
	jne	SHORT $LL489@ForInitAnd
	lea	rcx, QWORD PTR codebuff$15[rsp]
	call	AddLineQueue

; 1105 :               goto skip;

	jmp	$skip$554
$LN39@ForInitAnd:

; 1106 :             }
; 1107 :           }
; 1108 :         }
; 1109 :         // if param is not RAX and init is RCX
; 1110 :         else if ((strcasecmp(param, reax[ModuleInfo.Ofssize]) && !(strcasecmp(init, recx[ModuleInfo.Ofssize])))) {

	movzx	edx, BYTE PTR ModuleInfo+404
	lea	rax, OFFSET FLAT:__ImageBase
	lea	rcx, QWORD PTR param$[rbp-256]
	mov	rdx, QWORD PTR reax[rax+rdx*8]
	call	_stricmp
	test	eax, eax
	je	$LN60@ForInitAnd
	movzx	edx, BYTE PTR ModuleInfo+404
	lea	rax, OFFSET FLAT:recx
	lea	rcx, QWORD PTR init$[rbp-256]
	mov	rdx, QWORD PTR [rax+rdx*8]
	call	_stricmp
	test	eax, eax
	jne	$LN60@ForInitAnd

; 1111 :           if (op[0] == '/' || op[0] == '%') {

	cmp	bl, 47					; 0000002fH
	je	SHORT $LN64@ForInitAnd
	cmp	bl, 37					; 00000025H
	je	SHORT $LN64@ForInitAnd

; 1115 :           }
; 1116 :           else strcpy(codebuff, " imul ");

	xor	ecx, ecx
	lea	r12, OFFSET FLAT:__ImageBase
$LL140@ForInitAnd:
	movzx	eax, BYTE PTR $SG11504[rcx+r12]
	mov	BYTE PTR codebuff$[rbp+rcx-256], al
	lea	rcx, QWORD PTR [rcx+1]
	test	al, al
	jne	SHORT $LL140@ForInitAnd
	jmp	SHORT $LN545@ForInitAnd
$LN64@ForInitAnd:

; 1112 :             strcpy(codebuff, " cdq ");

	xor	ecx, ecx
	lea	r13, OFFSET FLAT:__ImageBase
$LL138@ForInitAnd:
	movzx	eax, BYTE PTR $SG11502[rcx+r13]
	mov	BYTE PTR codebuff$[rbp+rcx-256], al
	lea	rcx, QWORD PTR [rcx+1]
	test	al, al
	jne	SHORT $LL138@ForInitAnd

; 1113 :             AddLineQueue(codebuff);

	mov	r13, QWORD PTR tokenarray$[rbp-256]
	lea	rcx, QWORD PTR codebuff$[rbp-256]
	call	AddLineQueue

; 1114 :             strcpy(codebuff, " idiv ");

	xor	ecx, ecx
	lea	r12, OFFSET FLAT:__ImageBase
	npad	1
$LL139@ForInitAnd:
	movzx	eax, BYTE PTR $SG11503[rcx+r12]
	mov	BYTE PTR codebuff$[rbp+rcx-256], al
	lea	rcx, QWORD PTR [rcx+1]
	test	al, al
	jne	SHORT $LL139@ForInitAnd
$LN545@ForInitAnd:
	mov	r12, QWORD PTR buff$[rbp-256]

; 1117 :           strcat(codebuff, recx[ModuleInfo.Ofssize]);

	lea	rcx, QWORD PTR codebuff$[rbp-256]
	movzx	r8d, BYTE PTR ModuleInfo+404
	dec	rcx
	npad	5
$LL486@ForInitAnd:
	cmp	BYTE PTR [rcx+1], 0
	lea	rcx, QWORD PTR [rcx+1]
	jne	SHORT $LL486@ForInitAnd
	lea	rax, OFFSET FLAT:recx
	xor	edx, edx
	mov	r8, QWORD PTR [rax+r8*8]
	npad	9
$LL487@ForInitAnd:
	movzx	eax, BYTE PTR [r8+rdx]
	mov	BYTE PTR [rcx+rdx], al
	inc	rdx
	test	al, al
	jne	SHORT $LL487@ForInitAnd

; 1118 :           AddLineQueue(codebuff);

	lea	rcx, QWORD PTR codebuff$[rbp-256]
	call	AddLineQueue

; 1119 :           if (op[0] == '%') WriteAsmLine(" mov  ", param, redx[ModuleInfo.Ofssize]);

	cmp	bl, 37					; 00000025H
	jne	$skip$554
	movzx	eax, BYTE PTR ModuleInfo+404
	lea	rbx, OFFSET FLAT:__ImageBase
	xor	ecx, ecx
	mov	r8, QWORD PTR redx[rbx+rax*8]
	npad	7
$LL175@ForInitAnd:
	movzx	eax, BYTE PTR $SG11506[rcx+rbx]
	mov	BYTE PTR codebuff$14[rsp+rcx], al
	lea	rcx, QWORD PTR [rcx+1]
	test	al, al
	jne	SHORT $LL175@ForInitAnd
	lea	rcx, QWORD PTR codebuff$14[rsp]
	dec	rcx
	npad	4
$LL484@ForInitAnd:
	cmp	BYTE PTR [rcx+1], 0
	lea	rcx, QWORD PTR [rcx+1]
	jne	SHORT $LL484@ForInitAnd
	lea	r9, QWORD PTR param$[rbp-256]
	xor	edx, edx
	npad	13
$LL485@ForInitAnd:
	movzx	eax, BYTE PTR [r9+rdx]
	mov	BYTE PTR [rcx+rdx], al
	lea	rdx, QWORD PTR [rdx+1]
	test	al, al
	jne	SHORT $LL485@ForInitAnd
	lea	rcx, QWORD PTR codebuff$14[rsp]
	dec	rcx
	npad	8
$LL482@ForInitAnd:
	cmp	BYTE PTR [rcx+1], 0
	lea	rcx, QWORD PTR [rcx+1]
	jne	SHORT $LL482@ForInitAnd
	xor	edx, edx
	lea	r13, OFFSET FLAT:$SG11401
	npad	13
$LL483@ForInitAnd:
	movzx	eax, BYTE PTR [rdx+r13]
	mov	BYTE PTR [rcx+rdx], al
	lea	rdx, QWORD PTR [rdx+1]
	test	al, al
	jne	SHORT $LL483@ForInitAnd
	mov	r13, QWORD PTR tokenarray$[rbp-256]
	lea	rcx, QWORD PTR codebuff$14[rsp]
	dec	rcx
	npad	1
$LL480@ForInitAnd:
	cmp	BYTE PTR [rcx+1], 0
	lea	rcx, QWORD PTR [rcx+1]
	jne	SHORT $LL480@ForInitAnd
	xor	edx, edx
	npad	4
$LL481@ForInitAnd:
	movzx	eax, BYTE PTR [r8+rdx]
	mov	BYTE PTR [rcx+rdx], al
	inc	rdx
	test	al, al
	jne	SHORT $LL481@ForInitAnd
	lea	rcx, QWORD PTR codebuff$14[rsp]
	call	AddLineQueue

; 1120 :           goto skip;

	jmp	$skip$554
$LN60@ForInitAnd:

; 1121 :         }
; 1122 :         // if param is RAX and init is RCX
; 1123 :         else if ((!(strcasecmp(param, reax[ModuleInfo.Ofssize])) && (!(strcmp(init, recx[ModuleInfo.Ofssize]))))) {

	movzx	edx, BYTE PTR ModuleInfo+404
	lea	rax, OFFSET FLAT:__ImageBase
	lea	rcx, QWORD PTR param$[rbp-256]
	mov	rdx, QWORD PTR reax[rax+rdx*8]
	call	_stricmp
	movzx	r9d, BYTE PTR ModuleInfo+404
	test	eax, eax
	jne	$LN66@ForInitAnd
	movzx	eax, r9b
	lea	r10, OFFSET FLAT:recx
	lea	rcx, QWORD PTR init$[rbp-256]
	mov	r8, QWORD PTR [r10+rax*8]
	sub	r8, rcx
	npad	7
$LL478@ForInitAnd:
	movzx	edx, BYTE PTR [rcx]
	movzx	eax, BYTE PTR [rcx+r8]
	sub	edx, eax
	jne	SHORT $LN479@ForInitAnd
	inc	rcx
	test	eax, eax
	jne	SHORT $LL478@ForInitAnd
$LN479@ForInitAnd:
	test	edx, edx
	jne	$LN66@ForInitAnd

; 1124 :           if (op[0] == '/' || op[0] == '%') {

	cmp	bl, 47					; 0000002fH
	je	SHORT $LN70@ForInitAnd
	cmp	bl, 37					; 00000025H
	je	SHORT $LN70@ForInitAnd

; 1128 :           }
; 1129 :           else strcpy(codebuff, " imul ");

	xor	ecx, ecx
	lea	r12, OFFSET FLAT:__ImageBase
	npad	2
$LL143@ForInitAnd:
	movzx	eax, BYTE PTR $SG11514[rcx+r12]
	mov	BYTE PTR codebuff$[rbp+rcx-256], al
	lea	rcx, QWORD PTR [rcx+1]
	test	al, al
	jne	SHORT $LL143@ForInitAnd
	jmp	SHORT $LN546@ForInitAnd
$LN70@ForInitAnd:

; 1125 :             strcpy(codebuff, " cdq ");

	xor	ecx, ecx
	lea	r13, OFFSET FLAT:__ImageBase
$LL141@ForInitAnd:
	movzx	eax, BYTE PTR $SG11512[rcx+r13]
	mov	BYTE PTR codebuff$[rbp+rcx-256], al
	lea	rcx, QWORD PTR [rcx+1]
	test	al, al
	jne	SHORT $LL141@ForInitAnd

; 1126 :             AddLineQueue(codebuff);

	mov	r13, QWORD PTR tokenarray$[rbp-256]
	lea	rcx, QWORD PTR codebuff$[rbp-256]
	call	AddLineQueue

; 1127 :             strcpy(codebuff, " idiv ");

	xor	ecx, ecx
	lea	r12, OFFSET FLAT:__ImageBase
	npad	2
$LL142@ForInitAnd:
	movzx	eax, BYTE PTR $SG11513[rcx+r12]
	mov	BYTE PTR codebuff$[rbp+rcx-256], al
	lea	rcx, QWORD PTR [rcx+1]
	test	al, al
	jne	SHORT $LL142@ForInitAnd
	movzx	r9d, BYTE PTR ModuleInfo+404
	lea	r10, OFFSET FLAT:recx
$LN546@ForInitAnd:

; 1130 :           strcat(codebuff, recx[ModuleInfo.Ofssize]);

	mov	r12, QWORD PTR buff$[rbp-256]
	lea	rcx, QWORD PTR codebuff$[rbp-256]
	dec	rcx
	movzx	r8d, r9b
$LL476@ForInitAnd:
	cmp	BYTE PTR [rcx+1], 0
	lea	rcx, QWORD PTR [rcx+1]
	jne	SHORT $LL476@ForInitAnd
	mov	r8, QWORD PTR [r10+r8*8]
	xor	edx, edx
	npad	10
$LL477@ForInitAnd:
	movzx	eax, BYTE PTR [r8+rdx]
	mov	BYTE PTR [rcx+rdx], al
	inc	rdx
	test	al, al
	jne	SHORT $LL477@ForInitAnd

; 1131 :           AddLineQueue(codebuff);

	lea	rcx, QWORD PTR codebuff$[rbp-256]
	call	AddLineQueue

; 1132 :           if (op[0] == '%') WriteAsmLine(" mov  ", param, redx[ModuleInfo.Ofssize]);

	cmp	bl, 37					; 00000025H
	jne	$skip$554
	movzx	eax, BYTE PTR ModuleInfo+404
	lea	rbx, OFFSET FLAT:__ImageBase
	xor	ecx, ecx
	mov	r8, QWORD PTR redx[rbx+rax*8]
	npad	7
$LL178@ForInitAnd:
	movzx	eax, BYTE PTR $SG11516[rcx+rbx]
	mov	BYTE PTR codebuff$13[rsp+rcx], al
	lea	rcx, QWORD PTR [rcx+1]
	test	al, al
	jne	SHORT $LL178@ForInitAnd
	lea	rcx, QWORD PTR codebuff$13[rsp]
	dec	rcx
	npad	4
$LL474@ForInitAnd:
	cmp	BYTE PTR [rcx+1], 0
	lea	rcx, QWORD PTR [rcx+1]
	jne	SHORT $LL474@ForInitAnd
	lea	r9, QWORD PTR param$[rbp-256]
	xor	edx, edx
	npad	13
$LL475@ForInitAnd:
	movzx	eax, BYTE PTR [r9+rdx]
	mov	BYTE PTR [rcx+rdx], al
	lea	rdx, QWORD PTR [rdx+1]
	test	al, al
	jne	SHORT $LL475@ForInitAnd
	lea	rcx, QWORD PTR codebuff$13[rsp]
	dec	rcx
	npad	8
$LL472@ForInitAnd:
	cmp	BYTE PTR [rcx+1], 0
	lea	rcx, QWORD PTR [rcx+1]
	jne	SHORT $LL472@ForInitAnd
	xor	edx, edx
	lea	r13, OFFSET FLAT:$SG11401
	npad	13
$LL473@ForInitAnd:
	movzx	eax, BYTE PTR [rdx+r13]
	mov	BYTE PTR [rcx+rdx], al
	lea	rdx, QWORD PTR [rdx+1]
	test	al, al
	jne	SHORT $LL473@ForInitAnd
	mov	r13, QWORD PTR tokenarray$[rbp-256]
	lea	rcx, QWORD PTR codebuff$13[rsp]
	dec	rcx
	npad	1
$LL470@ForInitAnd:
	cmp	BYTE PTR [rcx+1], 0
	lea	rcx, QWORD PTR [rcx+1]
	jne	SHORT $LL470@ForInitAnd
	xor	edx, edx
	npad	4
$LL471@ForInitAnd:
	movzx	eax, BYTE PTR [r8+rdx]
	mov	BYTE PTR [rcx+rdx], al
	inc	rdx
	test	al, al
	jne	SHORT $LL471@ForInitAnd
	lea	rcx, QWORD PTR codebuff$13[rsp]
	call	AddLineQueue

; 1133 :           goto skip;

	jmp	$skip$554
$LN66@ForInitAnd:

; 1134 :         }
; 1135 :         // if param is RAX and init is not RCX
; 1136 :         else if (!(strcasecmp(param, reax[ModuleInfo.Ofssize]) && (strcasecmp(init, recx[ModuleInfo.Ofssize])))) {

	movzx	edx, r9b
	lea	rax, OFFSET FLAT:__ImageBase
	lea	rcx, QWORD PTR param$[rbp-256]
	mov	rdx, QWORD PTR reax[rax+rdx*8]
	call	_stricmp
	test	eax, eax
	je	SHORT $LN73@ForInitAnd
	movzx	edx, BYTE PTR ModuleInfo+404
	lea	rax, OFFSET FLAT:recx
	lea	rcx, QWORD PTR init$[rbp-256]
	mov	rdx, QWORD PTR [rax+rdx*8]
	call	_stricmp
	test	eax, eax
	jne	$LN537@ForInitAnd
$LN73@ForInitAnd:

; 1137 :           WriteAsmLine(" mov  ", recx[ModuleInfo.Ofssize], init);        //MOV RCX,init

	movzx	eax, BYTE PTR ModuleInfo+404
	lea	r8, OFFSET FLAT:recx
	xor	ecx, ecx
	lea	r12, OFFSET FLAT:__ImageBase
	mov	r8, QWORD PTR [r8+rax*8]
$LL181@ForInitAnd:
	movzx	eax, BYTE PTR $SG11519[rcx+r12]
	mov	BYTE PTR codebuff$12[rsp+rcx], al
	lea	rcx, QWORD PTR [rcx+1]
	test	al, al
	jne	SHORT $LL181@ForInitAnd
	lea	rcx, QWORD PTR codebuff$12[rsp]
	dec	rcx
	npad	1
$LL468@ForInitAnd:
	cmp	BYTE PTR [rcx+1], 0
	lea	rcx, QWORD PTR [rcx+1]
	jne	SHORT $LL468@ForInitAnd
	xor	edx, edx
	npad	4
$LL469@ForInitAnd:
	movzx	eax, BYTE PTR [r8+rdx]
	mov	BYTE PTR [rcx+rdx], al
	lea	rdx, QWORD PTR [rdx+1]
	test	al, al
	jne	SHORT $LL469@ForInitAnd
	lea	rcx, QWORD PTR codebuff$12[rsp]
	dec	rcx
	npad	8
$LL466@ForInitAnd:
	cmp	BYTE PTR [rcx+1], 0
	lea	rcx, QWORD PTR [rcx+1]
	jne	SHORT $LL466@ForInitAnd
	xor	edx, edx
	lea	r13, OFFSET FLAT:$SG11401
	npad	13
$LL467@ForInitAnd:
	movzx	eax, BYTE PTR [rdx+r13]
	mov	BYTE PTR [rcx+rdx], al
	lea	rdx, QWORD PTR [rdx+1]
	test	al, al
	jne	SHORT $LL467@ForInitAnd
	mov	r13, QWORD PTR tokenarray$[rbp-256]
	lea	rcx, QWORD PTR codebuff$12[rsp]
	dec	rcx
	npad	1
$LL464@ForInitAnd:
	cmp	BYTE PTR [rcx+1], 0
	lea	rcx, QWORD PTR [rcx+1]
	jne	SHORT $LL464@ForInitAnd
	lea	r8, QWORD PTR init$[rbp-256]
	xor	edx, edx
	npad	13
$LL465@ForInitAnd:
	movzx	eax, BYTE PTR [r8+rdx]
	mov	BYTE PTR [rcx+rdx], al
	lea	rdx, QWORD PTR [rdx+1]
	test	al, al
	jne	SHORT $LL465@ForInitAnd
	lea	rcx, QWORD PTR codebuff$12[rsp]
	call	AddLineQueue

; 1138 :           if (op[0] == '/' || op[0] == '%') {

	cmp	bl, 47					; 0000002fH
	je	SHORT $LN76@ForInitAnd
	cmp	bl, 37					; 00000025H
	je	SHORT $LN76@ForInitAnd

; 1142 :           }
; 1143 :           else strcpy(codebuff, " imul ");

	xor	ecx, ecx
	lea	r12, OFFSET FLAT:__ImageBase
	npad	3
$LL146@ForInitAnd:
	movzx	eax, BYTE PTR $SG11525[rcx+r12]
	mov	BYTE PTR codebuff$[rbp+rcx-256], al
	lea	rcx, QWORD PTR [rcx+1]
	test	al, al
	jne	SHORT $LL146@ForInitAnd
	jmp	SHORT $LN547@ForInitAnd
$LN76@ForInitAnd:

; 1139 :             strcpy(codebuff, " cdq ");

	xor	ecx, ecx
	lea	r13, OFFSET FLAT:__ImageBase
$LL144@ForInitAnd:
	movzx	eax, BYTE PTR $SG11523[rcx+r13]
	mov	BYTE PTR codebuff$[rbp+rcx-256], al
	lea	rcx, QWORD PTR [rcx+1]
	test	al, al
	jne	SHORT $LL144@ForInitAnd

; 1140 :             AddLineQueue(codebuff);

	mov	r13, QWORD PTR tokenarray$[rbp-256]
	lea	rcx, QWORD PTR codebuff$[rbp-256]
	call	AddLineQueue

; 1141 :             strcpy(codebuff, " idiv ");

	xor	ecx, ecx
	lea	r12, OFFSET FLAT:__ImageBase
	npad	2
$LL145@ForInitAnd:
	movzx	eax, BYTE PTR $SG11524[rcx+r12]
	mov	BYTE PTR codebuff$[rbp+rcx-256], al
	lea	rcx, QWORD PTR [rcx+1]
	test	al, al
	jne	SHORT $LL145@ForInitAnd
$LN547@ForInitAnd:
	mov	r12, QWORD PTR buff$[rbp-256]

; 1144 :           strcat(codebuff, recx[ModuleInfo.Ofssize]);

	lea	rcx, QWORD PTR codebuff$[rbp-256]
	movzx	r8d, BYTE PTR ModuleInfo+404
	dec	rcx
	npad	5
$LL462@ForInitAnd:
	cmp	BYTE PTR [rcx+1], 0
	lea	rcx, QWORD PTR [rcx+1]
	jne	SHORT $LL462@ForInitAnd
	lea	rax, OFFSET FLAT:recx
	xor	edx, edx
	mov	r8, QWORD PTR [rax+r8*8]
	npad	9
$LL463@ForInitAnd:
	movzx	eax, BYTE PTR [r8+rdx]
	mov	BYTE PTR [rcx+rdx], al
	inc	rdx
	test	al, al
	jne	SHORT $LL463@ForInitAnd

; 1145 :           AddLineQueue(codebuff);

	lea	rcx, QWORD PTR codebuff$[rbp-256]
	call	AddLineQueue

; 1146 :           if (op[0] == '%') WriteAsmLine(" mov  ", param, redx[ModuleInfo.Ofssize]);

	cmp	bl, 37					; 00000025H
	jne	$skip$554
	movzx	eax, BYTE PTR ModuleInfo+404
	lea	rbx, OFFSET FLAT:__ImageBase
	xor	ecx, ecx
	mov	r8, QWORD PTR redx[rbx+rax*8]
	npad	7
$LL184@ForInitAnd:
	movzx	eax, BYTE PTR $SG11527[rcx+rbx]
	mov	BYTE PTR codebuff$11[rsp+rcx], al
	lea	rcx, QWORD PTR [rcx+1]
	test	al, al
	jne	SHORT $LL184@ForInitAnd
	lea	rcx, QWORD PTR codebuff$11[rsp]
	dec	rcx
	npad	4
$LL460@ForInitAnd:
	cmp	BYTE PTR [rcx+1], 0
	lea	rcx, QWORD PTR [rcx+1]
	jne	SHORT $LL460@ForInitAnd
	lea	r9, QWORD PTR param$[rbp-256]
	xor	edx, edx
	npad	13
$LL461@ForInitAnd:
	movzx	eax, BYTE PTR [r9+rdx]
	mov	BYTE PTR [rcx+rdx], al
	lea	rdx, QWORD PTR [rdx+1]
	test	al, al
	jne	SHORT $LL461@ForInitAnd
	lea	rcx, QWORD PTR codebuff$11[rsp]
	dec	rcx
	npad	8
$LL458@ForInitAnd:
	cmp	BYTE PTR [rcx+1], 0
	lea	rcx, QWORD PTR [rcx+1]
	jne	SHORT $LL458@ForInitAnd
	xor	edx, edx
	lea	r12, OFFSET FLAT:$SG11401
	npad	13
$LL459@ForInitAnd:
	movzx	eax, BYTE PTR [r12+rdx]
	mov	BYTE PTR [rcx+rdx], al
	lea	rdx, QWORD PTR [rdx+1]
	test	al, al
	jne	SHORT $LL459@ForInitAnd
	mov	r12, QWORD PTR buff$[rbp-256]
	lea	rcx, QWORD PTR codebuff$11[rsp]
	dec	rcx
	npad	1
$LL456@ForInitAnd:
	cmp	BYTE PTR [rcx+1], 0
	lea	rcx, QWORD PTR [rcx+1]
	jne	SHORT $LL456@ForInitAnd
	xor	edx, edx
	npad	4
$LL457@ForInitAnd:
	movzx	eax, BYTE PTR [r8+rdx]
	mov	BYTE PTR [rcx+rdx], al
	inc	rdx
	test	al, al
	jne	SHORT $LL457@ForInitAnd
	lea	rcx, QWORD PTR codebuff$11[rsp]
	call	AddLineQueue

; 1147 :           goto skip;

	jmp	$skip$554
$LN386@ForInitAnd:

; 1148 :         }
; 1149 :       }
; 1150 :       //if operator not devision, multiplication or mod
; 1151 :       else if (op[0] == '-') strcpy(codebuff, " sub ");

	cmp	bl, 45					; 0000002dH
	jne	SHORT $LN78@ForInitAnd
	xor	ecx, ecx
	lea	rbx, OFFSET FLAT:__ImageBase
	npad	4
$LL147@ForInitAnd:
	movzx	eax, BYTE PTR $SG11530[rcx+rbx]
	mov	BYTE PTR codebuff$[rbp+rcx-256], al
	lea	rcx, QWORD PTR [rcx+1]
	test	al, al
	jne	SHORT $LL147@ForInitAnd
	jmp	$LN72@ForInitAnd
$LN78@ForInitAnd:

; 1152 :       else if (op[0] == '+') strcpy(codebuff, " add ");

	cmp	bl, 43					; 0000002bH
	jne	SHORT $LN80@ForInitAnd
	xor	ecx, ecx
	lea	rbx, OFFSET FLAT:__ImageBase
	npad	9
$LL148@ForInitAnd:
	movzx	eax, BYTE PTR $SG11533[rcx+rbx]
	mov	BYTE PTR codebuff$[rbp+rcx-256], al
	lea	rcx, QWORD PTR [rcx+1]
	test	al, al
	jne	SHORT $LL148@ForInitAnd
	jmp	$LN72@ForInitAnd
$LN80@ForInitAnd:

; 1153 :       else if (op[0] == '&') strcpy(codebuff, " and ");

	cmp	bl, 38					; 00000026H
	jne	SHORT $LN82@ForInitAnd
	xor	ecx, ecx
	lea	rbx, OFFSET FLAT:__ImageBase
	npad	9
$LL149@ForInitAnd:
	movzx	eax, BYTE PTR $SG11536[rcx+rbx]
	mov	BYTE PTR codebuff$[rbp+rcx-256], al
	lea	rcx, QWORD PTR [rcx+1]
	test	al, al
	jne	SHORT $LL149@ForInitAnd
	jmp	$LN72@ForInitAnd
$LN82@ForInitAnd:

; 1154 :       else if (op[0] == '|') strcpy(codebuff, " or ");

	cmp	bl, 124					; 0000007cH
	jne	SHORT $LN84@ForInitAnd
	xor	ecx, ecx
	lea	rbx, OFFSET FLAT:__ImageBase
	npad	9
$LL150@ForInitAnd:
	movzx	eax, BYTE PTR $SG11539[rcx+rbx]
	mov	BYTE PTR codebuff$[rbp+rcx-256], al
	lea	rcx, QWORD PTR [rcx+1]
	test	al, al
	jne	SHORT $LL150@ForInitAnd
	jmp	$LN72@ForInitAnd
$LN84@ForInitAnd:

; 1155 :       else if (op[0] == '^') strcpy(codebuff, " xor ");

	cmp	bl, 94					; 0000005eH
	jne	SHORT $LN86@ForInitAnd
	xor	ecx, ecx
	lea	rbx, OFFSET FLAT:__ImageBase
	npad	9
$LL151@ForInitAnd:
	movzx	eax, BYTE PTR $SG11542[rcx+rbx]
	mov	BYTE PTR codebuff$[rbp+rcx-256], al
	lea	rcx, QWORD PTR [rcx+1]
	test	al, al
	jne	SHORT $LL151@ForInitAnd
	jmp	SHORT $LN72@ForInitAnd
$LN86@ForInitAnd:

; 1156 :       else if (op[0] == '<' && op[1] == '<') strcpy(codebuff, " shl ");

	cmp	bl, 60					; 0000003cH
	jne	SHORT $LN88@ForInitAnd
	lea	rbx, OFFSET FLAT:__ImageBase
	cmp	r8b, 60					; 0000003cH
	jne	SHORT $LN72@ForInitAnd
	xor	ecx, ecx
	npad	6
$LL152@ForInitAnd:
	movzx	eax, BYTE PTR $SG11545[rcx+rbx]
	mov	BYTE PTR codebuff$[rbp+rcx-256], al
	lea	rcx, QWORD PTR [rcx+1]
	test	al, al
	jne	SHORT $LL152@ForInitAnd
	jmp	SHORT $LN72@ForInitAnd
$LN88@ForInitAnd:

; 1157 :       else if (op[0] == '>' && op[1] == '>') strcpy(codebuff, " shr ");

	cmp	bl, 62					; 0000003eH
	jne	SHORT $LN537@ForInitAnd
	lea	rbx, OFFSET FLAT:__ImageBase
	cmp	r8b, 62					; 0000003eH
	jne	SHORT $LN72@ForInitAnd
	xor	ecx, ecx
	npad	6
$LL153@ForInitAnd:
	movzx	eax, BYTE PTR $SG11547[rbx+rcx]
	mov	BYTE PTR codebuff$[rbp+rcx-256], al
	lea	rcx, QWORD PTR [rcx+1]
	test	al, al
	jne	SHORT $LL153@ForInitAnd
	jmp	SHORT $LN72@ForInitAnd
$LN537@ForInitAnd:
	lea	rbx, OFFSET FLAT:__ImageBase
$LN72@ForInitAnd:

; 1158 :       Tokenize(init, 0, tokenarray, 0);

	xor	r9d, r9d
	lea	rcx, QWORD PTR init$[rbp-256]
	mov	r8, r13
	xor	edx, edx
	call	Tokenize
	movzx	eax, BYTE PTR [r13]
	sub	al, 2
	test	al, 246					; 000000f6H
	je	$simple$555

; 1159 :       if (tokenarray[0].token == T_REG || tokenarray[0].token == T_NUM || tokenarray[0].token == T_FLOAT || tokenarray[0].token == T_DIRECTIVE)
; 1160 :         goto simple;
; 1161 :       Tokenize(param, 0, tokenarray, 0);

	xor	r9d, r9d
	lea	rcx, QWORD PTR param$[rbp-256]
	mov	r8, r13
	xor	edx, edx
	call	Tokenize

; 1162 :       if (tokenarray[0].token == T_REG) {

	cmp	BYTE PTR [r13], 2
	je	$simple$555

; 1212 :       else
; 1213 :       {
; 1214 :         if (init[0] == 39 && init[2] == 39)

	cmp	BYTE PTR init$[rbp-256], 39		; 00000027H
	jne	$LN124@ForInitAnd
	cmp	BYTE PTR init$[rbp-254], 39		; 00000027H
	jne	$LN124@ForInitAnd

; 1215 :           WriteAsmLine(" mov  byte ptr ", param, init);

	xor	ecx, ecx
	npad	5
$LL214@ForInitAnd:
	movzx	eax, BYTE PTR $SG11602[rcx+rbx]
	mov	BYTE PTR codebuff$1[rsp+rcx], al
	lea	rcx, QWORD PTR [rcx+1]
	test	al, al
	jne	SHORT $LL214@ForInitAnd
	lea	rcx, QWORD PTR codebuff$1[rsp]
	dec	rcx
	npad	4
$LL454@ForInitAnd:
	cmp	BYTE PTR [rcx+1], 0
	lea	rcx, QWORD PTR [rcx+1]
	jne	SHORT $LL454@ForInitAnd
	lea	r8, QWORD PTR param$[rbp-256]
	xor	edx, edx
	npad	13
$LL455@ForInitAnd:
	movzx	eax, BYTE PTR [r8+rdx]
	mov	BYTE PTR [rcx+rdx], al
	lea	rdx, QWORD PTR [rdx+1]
	test	al, al
	jne	SHORT $LL455@ForInitAnd
	lea	rcx, QWORD PTR codebuff$1[rsp]
	dec	rcx
	npad	8
$LL452@ForInitAnd:
	cmp	BYTE PTR [rcx+1], 0
	lea	rcx, QWORD PTR [rcx+1]
	jne	SHORT $LL452@ForInitAnd
	xor	edx, edx
	lea	r12, OFFSET FLAT:$SG11401
	npad	13
$LL453@ForInitAnd:
	movzx	eax, BYTE PTR [r12+rdx]
	mov	BYTE PTR [rcx+rdx], al
	lea	rdx, QWORD PTR [rdx+1]
	test	al, al
	jne	SHORT $LL453@ForInitAnd
	mov	r12, QWORD PTR buff$[rbp-256]
	lea	rcx, QWORD PTR codebuff$1[rsp]
	dec	rcx
	npad	1
$LL450@ForInitAnd:
	cmp	BYTE PTR [rcx+1], 0
	lea	rcx, QWORD PTR [rcx+1]
	jne	SHORT $LL450@ForInitAnd
	lea	r8, QWORD PTR init$[rbp-256]
	xor	edx, edx
	npad	13
$LL451@ForInitAnd:
	movzx	eax, BYTE PTR [r8+rdx]
	mov	BYTE PTR [rcx+rdx], al
	inc	rdx
	test	al, al
	jne	SHORT $LL451@ForInitAnd
	lea	rcx, QWORD PTR codebuff$1[rsp]
	call	AddLineQueue
	jmp	$skip$554
$LN124@ForInitAnd:

; 1216 :         else {
; 1217 :           WriteAsmLine(" mov  ", reax[ModuleInfo.Ofssize], init);

	movzx	edx, BYTE PTR ModuleInfo+404
	lea	r8, QWORD PTR init$[rbp-256]
	lea	rcx, OFFSET FLAT:$SG11603
	mov	rdx, QWORD PTR reax[rbx+rdx*8]
	call	WriteAsmLine

; 1218 :           WriteAsmLine(codebuff, param, reax[ModuleInfo.Ofssize]);

	movzx	r8d, BYTE PTR ModuleInfo+404
	lea	rdx, QWORD PTR param$[rbp-256]
	lea	rcx, QWORD PTR codebuff$[rbp-256]
	mov	r8, QWORD PTR reax[rbx+r8*8]
	call	WriteAsmLine
	jmp	$skip$554
$simple$555:

; 1163 :       simple:			Tokenize(param, 0, tokenarray, 0);

	xor	r9d, r9d
	lea	rcx, QWORD PTR param$[rbp-256]
	mov	r8, r13
	xor	edx, edx
	call	Tokenize

; 1164 : 
; 1165 :         if (strlen(init) == 1 && init[0] == '0')                        //REX=0?

	lea	rax, QWORD PTR init$[rbp-256]
	or	rcx, -1
$LL449@ForInitAnd:
	inc	rcx
	cmp	BYTE PTR [rax+rcx], 0
	jne	SHORT $LL449@ForInitAnd
	cmp	rcx, 1
	jne	$LN95@ForInitAnd
	cmp	BYTE PTR init$[rbp-256], 48		; 00000030H
	jne	$LN95@ForInitAnd

; 1166 :           WriteAsmLine(" xor  ", param, param);							            //XOR REX,REX //instead MOV REX,0				

	xor	ecx, ecx
	npad	10
$LL187@ForInitAnd:
	movzx	eax, BYTE PTR $SG11554[rcx+rbx]
	mov	BYTE PTR codebuff$10[rsp+rcx], al
	lea	rcx, QWORD PTR [rcx+1]
	test	al, al
	jne	SHORT $LL187@ForInitAnd
	lea	rcx, QWORD PTR codebuff$10[rsp]
	dec	rcx
	npad	4
$LL447@ForInitAnd:
	cmp	BYTE PTR [rcx+1], 0
	lea	rcx, QWORD PTR [rcx+1]
	jne	SHORT $LL447@ForInitAnd
	lea	r8, QWORD PTR param$[rbp-256]
	xor	edx, edx
	npad	13
$LL448@ForInitAnd:
	movzx	eax, BYTE PTR [r8+rdx]
	mov	BYTE PTR [rcx+rdx], al
	lea	rdx, QWORD PTR [rdx+1]
	test	al, al
	jne	SHORT $LL448@ForInitAnd
	lea	rcx, QWORD PTR codebuff$10[rsp]
	dec	rcx
	npad	8
$LL445@ForInitAnd:
	cmp	BYTE PTR [rcx+1], 0
	lea	rcx, QWORD PTR [rcx+1]
	jne	SHORT $LL445@ForInitAnd
	xor	edx, edx
	lea	r12, OFFSET FLAT:$SG11401
	npad	13
$LL446@ForInitAnd:
	movzx	eax, BYTE PTR [r12+rdx]
	mov	BYTE PTR [rcx+rdx], al
	lea	rdx, QWORD PTR [rdx+1]
	test	al, al
	jne	SHORT $LL446@ForInitAnd
	mov	r12, QWORD PTR buff$[rbp-256]
	lea	rcx, QWORD PTR codebuff$10[rsp]
	dec	rcx
	npad	1
$LL443@ForInitAnd:
	cmp	BYTE PTR [rcx+1], 0
	lea	rcx, QWORD PTR [rcx+1]
	jne	SHORT $LL443@ForInitAnd
	lea	r8, QWORD PTR param$[rbp-256]
	xor	edx, edx
	npad	13
$LL444@ForInitAnd:
	movzx	eax, BYTE PTR [r8+rdx]
	mov	BYTE PTR [rcx+rdx], al
	inc	rdx
	test	al, al
	jne	SHORT $LL444@ForInitAnd
	lea	rcx, QWORD PTR codebuff$10[rsp]
	call	AddLineQueue
	jmp	$skip$554
$LN95@ForInitAnd:

; 1167 :         else if ((strlen(op) == 1) && ((init[4] == ' ') || (init[4] == '\t'))) {  //op is '='

	lea	rdx, QWORD PTR op$[rbp-256]
	or	rax, -1
	npad	7
$LL442@ForInitAnd:
	inc	rax
	cmp	BYTE PTR [rdx+rax], 0
	jne	SHORT $LL442@ForInitAnd
	cmp	rax, 1
	jne	$LN122@ForInitAnd
	movzx	edx, BYTE PTR init$[rbp-252]
	cmp	dl, 32					; 00000020H
	je	SHORT $LN99@ForInitAnd
	cmp	dl, 9
	jne	$LN97@ForInitAnd
$LN99@ForInitAnd:

; 1168 :           if ((0 == _memicmp(init, "BYTE PTR", 8)) ||                   //reax=BYTE PTR al 
; 1169 :             (0 == _memicmp(init, "BPTR", 4)) ||
; 1170 :             (0 == _memicmp(init, "WPTR", 4)) ||

	mov	r8d, 8
	lea	rdx, OFFSET FLAT:$SG11561
	lea	rcx, QWORD PTR init$[rbp-256]
	call	_memicmp
	test	eax, eax
	je	$LN102@ForInitAnd
	mov	r8d, 4
	lea	rdx, OFFSET FLAT:$SG11562
	lea	rcx, QWORD PTR init$[rbp-256]
	call	_memicmp
	test	eax, eax
	je	$LN102@ForInitAnd
	mov	r8d, 4
	lea	rdx, OFFSET FLAT:$SG11563
	lea	rcx, QWORD PTR init$[rbp-256]
	call	_memicmp
	test	eax, eax
	je	$LN102@ForInitAnd
	mov	r8d, 8
	lea	rdx, OFFSET FLAT:$SG11564
	lea	rcx, QWORD PTR init$[rbp-256]
	call	_memicmp
	test	eax, eax
	je	$LN102@ForInitAnd

; 1174 :           else if (0 == _memicmp(init, "ADDR", 4))

	mov	r8d, 4
	lea	rdx, OFFSET FLAT:$SG11568
	lea	rcx, QWORD PTR init$[rbp-256]
	call	_memicmp
	test	eax, eax
	jne	SHORT $LN103@ForInitAnd

; 1175 :             WriteAsmLine(" lea  ", param, init + 5);

	lea	r8, QWORD PTR init$[rbp-251]
	lea	rdx, QWORD PTR param$[rbp-256]
	lea	rcx, OFFSET FLAT:$SG11569
	call	WriteAsmLine
	jmp	$skip$554
$LN103@ForInitAnd:

; 1176 :           else WriteAsmLine(" mov  ", param, init);

	xor	ecx, ecx
	npad	6
$LL193@ForInitAnd:
	movzx	eax, BYTE PTR $SG11570[rcx+rbx]
	mov	BYTE PTR codebuff$8[rsp+rcx], al
	lea	rcx, QWORD PTR [rcx+1]
	test	al, al
	jne	SHORT $LL193@ForInitAnd
	lea	rcx, QWORD PTR codebuff$8[rsp]
	dec	rcx
	npad	4
$LL440@ForInitAnd:
	cmp	BYTE PTR [rcx+1], 0
	lea	rcx, QWORD PTR [rcx+1]
	jne	SHORT $LL440@ForInitAnd
	lea	r8, QWORD PTR param$[rbp-256]
	xor	edx, edx
	npad	13
$LL441@ForInitAnd:
	movzx	eax, BYTE PTR [r8+rdx]
	mov	BYTE PTR [rcx+rdx], al
	lea	rdx, QWORD PTR [rdx+1]
	test	al, al
	jne	SHORT $LL441@ForInitAnd
	lea	rcx, QWORD PTR codebuff$8[rsp]
	dec	rcx
	npad	8
$LL438@ForInitAnd:
	cmp	BYTE PTR [rcx+1], 0
	lea	rcx, QWORD PTR [rcx+1]
	jne	SHORT $LL438@ForInitAnd
	xor	edx, edx
	lea	r12, OFFSET FLAT:$SG11401
	npad	13
$LL439@ForInitAnd:
	movzx	eax, BYTE PTR [r12+rdx]
	mov	BYTE PTR [rcx+rdx], al
	lea	rdx, QWORD PTR [rdx+1]
	test	al, al
	jne	SHORT $LL439@ForInitAnd
	mov	r12, QWORD PTR buff$[rbp-256]
	lea	rcx, QWORD PTR codebuff$8[rsp]
	dec	rcx
	npad	1
$LL436@ForInitAnd:
	cmp	BYTE PTR [rcx+1], 0
	lea	rcx, QWORD PTR [rcx+1]
	jne	SHORT $LL436@ForInitAnd
	lea	r8, QWORD PTR init$[rbp-256]
	xor	edx, edx
	npad	13
$LL437@ForInitAnd:
	movzx	eax, BYTE PTR [r8+rdx]
	mov	BYTE PTR [rcx+rdx], al
	inc	rdx
	test	al, al
	jne	SHORT $LL437@ForInitAnd
	lea	rcx, QWORD PTR codebuff$8[rsp]
	call	AddLineQueue
	jmp	$skip$554
$LN102@ForInitAnd:

; 1171 :             (0 == _memicmp(init, "WORD PTR", 8)))                     //reax=WORD PTR ax 
; 1172 : 
; 1173 :             WriteAsmLine(" movzx  ", param, init);                      //movzx reax,ax					    

	xor	ecx, ecx
$LL190@ForInitAnd:
	movzx	eax, BYTE PTR $SG11565[rbx+rcx]
	mov	BYTE PTR codebuff$9[rsp+rcx], al
	lea	rcx, QWORD PTR [rcx+1]
	test	al, al
	jne	SHORT $LL190@ForInitAnd
	lea	rcx, QWORD PTR codebuff$9[rsp]
	dec	rcx
	npad	4
$LL434@ForInitAnd:
	cmp	BYTE PTR [rcx+1], 0
	lea	rcx, QWORD PTR [rcx+1]
	jne	SHORT $LL434@ForInitAnd
	lea	r8, QWORD PTR param$[rbp-256]
	xor	edx, edx
	npad	13
$LL435@ForInitAnd:
	movzx	eax, BYTE PTR [r8+rdx]
	mov	BYTE PTR [rcx+rdx], al
	lea	rdx, QWORD PTR [rdx+1]
	test	al, al
	jne	SHORT $LL435@ForInitAnd
	lea	rcx, QWORD PTR codebuff$9[rsp]
	dec	rcx
	npad	8
$LL432@ForInitAnd:
	cmp	BYTE PTR [rcx+1], 0
	lea	rcx, QWORD PTR [rcx+1]
	jne	SHORT $LL432@ForInitAnd
	xor	edx, edx
	lea	r12, OFFSET FLAT:$SG11401
	npad	13
$LL433@ForInitAnd:
	movzx	eax, BYTE PTR [r12+rdx]
	mov	BYTE PTR [rcx+rdx], al
	lea	rdx, QWORD PTR [rdx+1]
	test	al, al
	jne	SHORT $LL433@ForInitAnd
	mov	r12, QWORD PTR buff$[rbp-256]
	lea	rcx, QWORD PTR codebuff$9[rsp]
	dec	rcx
	npad	1
$LL430@ForInitAnd:
	cmp	BYTE PTR [rcx+1], 0
	lea	rcx, QWORD PTR [rcx+1]
	jne	SHORT $LL430@ForInitAnd
	lea	r8, QWORD PTR init$[rbp-256]
	xor	edx, edx
	npad	13
$LL431@ForInitAnd:
	movzx	eax, BYTE PTR [r8+rdx]
	mov	BYTE PTR [rcx+rdx], al
	inc	rdx
	test	al, al
	jne	SHORT $LL431@ForInitAnd
	lea	rcx, QWORD PTR codebuff$9[rsp]
	call	AddLineQueue

; 1177 :         }

	jmp	$skip$554
$LN97@ForInitAnd:

; 1178 :         else if ((strlen(op) == 1) && ((init[6] == ' ') || (init[6] == '\t'))) {

	cmp	rax, 1
	jne	$LN122@ForInitAnd
	movzx	edx, BYTE PTR init$[rbp-250]
	cmp	dl, 32					; 00000020H
	je	SHORT $LN107@ForInitAnd
	cmp	dl, 9
	jne	$LN105@ForInitAnd
$LN107@ForInitAnd:

; 1179 :           if (0 == _memicmp(init, "OFFSET", 6))

	mov	r8d, 6
	lea	rdx, OFFSET FLAT:$SG11576
	lea	rcx, QWORD PTR init$[rbp-256]
	call	_memicmp
	test	eax, eax
	jne	SHORT $LN108@ForInitAnd

; 1180 :             WriteAsmLine(" lea  ", param, init + 7);

	lea	r8, QWORD PTR init$[rbp-249]
	lea	rdx, QWORD PTR param$[rbp-256]
	lea	rcx, OFFSET FLAT:$SG11577
	call	WriteAsmLine
	jmp	$skip$554
$LN108@ForInitAnd:

; 1181 :           else WriteAsmLine(" mov  ", param, init);

	xor	ecx, ecx
	npad	5
$LL196@ForInitAnd:
	movzx	eax, BYTE PTR $SG11578[rcx+rbx]
	mov	BYTE PTR codebuff$7[rsp+rcx], al
	lea	rcx, QWORD PTR [rcx+1]
	test	al, al
	jne	SHORT $LL196@ForInitAnd
	lea	rcx, QWORD PTR codebuff$7[rsp]
	dec	rcx
	npad	4
$LL428@ForInitAnd:
	cmp	BYTE PTR [rcx+1], 0
	lea	rcx, QWORD PTR [rcx+1]
	jne	SHORT $LL428@ForInitAnd
	lea	r8, QWORD PTR param$[rbp-256]
	xor	edx, edx
	npad	13
$LL429@ForInitAnd:
	movzx	eax, BYTE PTR [r8+rdx]
	mov	BYTE PTR [rcx+rdx], al
	lea	rdx, QWORD PTR [rdx+1]
	test	al, al
	jne	SHORT $LL429@ForInitAnd
	lea	rcx, QWORD PTR codebuff$7[rsp]
	dec	rcx
	npad	8
$LL426@ForInitAnd:
	cmp	BYTE PTR [rcx+1], 0
	lea	rcx, QWORD PTR [rcx+1]
	jne	SHORT $LL426@ForInitAnd
	xor	edx, edx
	lea	r12, OFFSET FLAT:$SG11401
	npad	13
$LL427@ForInitAnd:
	movzx	eax, BYTE PTR [r12+rdx]
	mov	BYTE PTR [rcx+rdx], al
	lea	rdx, QWORD PTR [rdx+1]
	test	al, al
	jne	SHORT $LL427@ForInitAnd
	mov	r12, QWORD PTR buff$[rbp-256]
	lea	rcx, QWORD PTR codebuff$7[rsp]
	dec	rcx
	npad	1
$LL424@ForInitAnd:
	cmp	BYTE PTR [rcx+1], 0
	lea	rcx, QWORD PTR [rcx+1]
	jne	SHORT $LL424@ForInitAnd
	lea	r8, QWORD PTR init$[rbp-256]
	xor	edx, edx
	npad	13
$LL425@ForInitAnd:
	movzx	eax, BYTE PTR [r8+rdx]
	mov	BYTE PTR [rcx+rdx], al
	inc	rdx
	test	al, al
	jne	SHORT $LL425@ForInitAnd
	lea	rcx, QWORD PTR codebuff$7[rsp]
	call	AddLineQueue

; 1182 :         }

	jmp	$skip$554
$LN105@ForInitAnd:

; 1183 :         else if ((strlen(op) == 1) && ((init[5] == ' ') || (init[5] == '\t'))) {            //op is '='

	cmp	rax, 1
	jne	$LN122@ForInitAnd
	movzx	edx, BYTE PTR init$[rbp-251]
	cmp	dl, 32					; 00000020H
	je	SHORT $LN112@ForInitAnd
	cmp	dl, 9
	jne	$LN110@ForInitAnd
$LN112@ForInitAnd:

; 1184 :           if ((0 == _memicmp(init, "DWORD PTR", 9) || 0 == _memicmp(init, "DPTR", 4)

	mov	r8d, 9
	lea	rdx, OFFSET FLAT:$SG11585
	lea	rcx, QWORD PTR init$[rbp-256]
	call	_memicmp
	test	eax, eax
	je	$LN116@ForInitAnd
	mov	r8d, 4
	lea	rdx, OFFSET FLAT:$SG11586
	lea	rcx, QWORD PTR init$[rbp-256]
	call	_memicmp
	test	eax, eax
	jne	SHORT $LN113@ForInitAnd
	movzx	eax, BYTE PTR param$[rbp-256]
	sub	al, 82					; 00000052H
	test	al, 223					; 000000dfH
	je	$LN116@ForInitAnd
$LN113@ForInitAnd:

; 1187 :           else WriteAsmLine(" mov  ", param, init);

	xor	ecx, ecx
	npad	2
$LL202@ForInitAnd:
	movzx	eax, BYTE PTR $SG11589[rcx+rbx]
	mov	BYTE PTR codebuff$5[rsp+rcx], al
	lea	rcx, QWORD PTR [rcx+1]
	test	al, al
	jne	SHORT $LL202@ForInitAnd
	lea	rcx, QWORD PTR codebuff$5[rsp]
	dec	rcx
	npad	4
$LL422@ForInitAnd:
	cmp	BYTE PTR [rcx+1], 0
	lea	rcx, QWORD PTR [rcx+1]
	jne	SHORT $LL422@ForInitAnd
	lea	r8, QWORD PTR param$[rbp-256]
	xor	edx, edx
	npad	13
$LL423@ForInitAnd:
	movzx	eax, BYTE PTR [r8+rdx]
	mov	BYTE PTR [rcx+rdx], al
	lea	rdx, QWORD PTR [rdx+1]
	test	al, al
	jne	SHORT $LL423@ForInitAnd
	lea	rcx, QWORD PTR codebuff$5[rsp]
	dec	rcx
	npad	8
$LL420@ForInitAnd:
	cmp	BYTE PTR [rcx+1], 0
	lea	rcx, QWORD PTR [rcx+1]
	jne	SHORT $LL420@ForInitAnd
	xor	edx, edx
	lea	r13, OFFSET FLAT:$SG11401
	npad	13
$LL421@ForInitAnd:
	movzx	eax, BYTE PTR [rdx+r13]
	mov	BYTE PTR [rcx+rdx], al
	lea	rdx, QWORD PTR [rdx+1]
	test	al, al
	jne	SHORT $LL421@ForInitAnd
	mov	r13, QWORD PTR tokenarray$[rbp-256]
	lea	rcx, QWORD PTR codebuff$5[rsp]
	dec	rcx
	npad	1
$LL418@ForInitAnd:
	cmp	BYTE PTR [rcx+1], 0
	lea	rcx, QWORD PTR [rcx+1]
	jne	SHORT $LL418@ForInitAnd
	lea	r8, QWORD PTR init$[rbp-256]
	xor	edx, edx
	npad	13
$LL419@ForInitAnd:
	movzx	eax, BYTE PTR [r8+rdx]
	mov	BYTE PTR [rcx+rdx], al
	inc	rdx
	test	al, al
	jne	SHORT $LL419@ForInitAnd
	lea	rcx, QWORD PTR codebuff$5[rsp]
	call	AddLineQueue
	jmp	$skip$554
$LN116@ForInitAnd:

; 1185 :             && (param[0] == 'r' || param[0] == 'R'))) 							   //rax=DWORD PTR eax
; 1186 :             WriteAsmLine(" movsxd  ", param, init);								     //movsxd rax,eax

	xor	ecx, ecx
$LL199@ForInitAnd:
	movzx	eax, BYTE PTR $SG11588[rcx+rbx]
	mov	BYTE PTR codebuff$6[rsp+rcx], al
	lea	rcx, QWORD PTR [rcx+1]
	test	al, al
	jne	SHORT $LL199@ForInitAnd
	lea	rcx, QWORD PTR codebuff$6[rsp]
	dec	rcx
	npad	4
$LL416@ForInitAnd:
	cmp	BYTE PTR [rcx+1], 0
	lea	rcx, QWORD PTR [rcx+1]
	jne	SHORT $LL416@ForInitAnd
	lea	r8, QWORD PTR param$[rbp-256]
	xor	edx, edx
	npad	13
$LL417@ForInitAnd:
	movzx	eax, BYTE PTR [r8+rdx]
	mov	BYTE PTR [rcx+rdx], al
	lea	rdx, QWORD PTR [rdx+1]
	test	al, al
	jne	SHORT $LL417@ForInitAnd
	lea	rcx, QWORD PTR codebuff$6[rsp]
	dec	rcx
	npad	8
$LL414@ForInitAnd:
	cmp	BYTE PTR [rcx+1], 0
	lea	rcx, QWORD PTR [rcx+1]
	jne	SHORT $LL414@ForInitAnd
	xor	edx, edx
	lea	r12, OFFSET FLAT:$SG11401
	npad	13
$LL415@ForInitAnd:
	movzx	eax, BYTE PTR [r12+rdx]
	mov	BYTE PTR [rcx+rdx], al
	lea	rdx, QWORD PTR [rdx+1]
	test	al, al
	jne	SHORT $LL415@ForInitAnd
	mov	r12, QWORD PTR buff$[rbp-256]
	lea	rcx, QWORD PTR codebuff$6[rsp]
	dec	rcx
	npad	1
$LL412@ForInitAnd:
	cmp	BYTE PTR [rcx+1], 0
	lea	rcx, QWORD PTR [rcx+1]
	jne	SHORT $LL412@ForInitAnd
	lea	r8, QWORD PTR init$[rbp-256]
	xor	edx, edx
	npad	13
$LL413@ForInitAnd:
	movzx	eax, BYTE PTR [r8+rdx]
	mov	BYTE PTR [rcx+rdx], al
	inc	rdx
	test	al, al
	jne	SHORT $LL413@ForInitAnd
	lea	rcx, QWORD PTR codebuff$6[rsp]
	call	AddLineQueue

; 1188 :         }

	jmp	$skip$554
$LN110@ForInitAnd:

; 1189 :         else if ((strlen(op) == 1) && brct) {											    //op is '='

	cmp	rax, 1
	jne	$LN122@ForInitAnd
	test	r14b, r14b
	je	$LN117@ForInitAnd

; 1190 :           for (j = strlen(init); j; j--) {

	movsxd	r8, ecx
	test	ecx, ecx
	je	SHORT $LN14@ForInitAnd
	npad	8
$LL15@ForInitAnd:
	lea	rdx, QWORD PTR init$[rbp-256]
	add	rdx, r8

; 1191 :             if (init[j] == ')') init[j] = NULLC;

	cmp	BYTE PTR [rdx], 41			; 00000029H
	jne	SHORT $LN119@ForInitAnd
	mov	BYTE PTR [rdx], 0
$LN119@ForInitAnd:

; 1192 :             if (init[j] == '(') {

	cmp	BYTE PTR [rdx], 40			; 00000028H
	jne	SHORT $LN13@ForInitAnd

; 1193 :               for (p = init, p += j; *p; p++) {

	mov	rcx, rdx
	mov	al, 40					; 00000028H
	npad	4
$LL18@ForInitAnd:

; 1194 :                 if (*p == ',' && cnt) --cnt;

	cmp	al, 44					; 0000002cH
	jne	SHORT $LN16@ForInitAnd
	test	esi, esi
	je	SHORT $LN16@ForInitAnd
	dec	esi
$LN16@ForInitAnd:

; 1193 :               for (p = init, p += j; *p; p++) {

	movzx	eax, BYTE PTR [rcx+1]
	inc	rcx
	test	al, al
	jne	SHORT $LL18@ForInitAnd

; 1195 :               }
; 1196 :               init[j] = ',';

	mov	BYTE PTR [rdx], 44			; 0000002cH
$LN13@ForInitAnd:

; 1190 :           for (j = strlen(init); j; j--) {

	sub	r8, 1
	jne	SHORT $LL15@ForInitAnd
$LN14@ForInitAnd:

; 1197 :             }
; 1198 :           }
; 1199 :           strcpy(codebuff, " invoke  ");

	xor	ecx, ecx
$LL154@ForInitAnd:
	movzx	eax, BYTE PTR $SG11595[rcx+rbx]
	mov	BYTE PTR codebuff$[rbp+rcx-256], al
	lea	rcx, QWORD PTR [rcx+1]
	test	al, al
	jne	SHORT $LL154@ForInitAnd

; 1200 :           strcat(codebuff, init);

	lea	rcx, QWORD PTR codebuff$[rbp-256]
	dec	rcx
	npad	5
$LL410@ForInitAnd:
	cmp	BYTE PTR [rcx+1], 0
	lea	rcx, QWORD PTR [rcx+1]
	jne	SHORT $LL410@ForInitAnd
	lea	r8, QWORD PTR init$[rbp-256]
	xor	edx, edx
	npad	13
$LL411@ForInitAnd:
	movzx	eax, BYTE PTR [r8+rdx]
	mov	BYTE PTR [rcx+rdx], al
	lea	rdx, QWORD PTR [rdx+1]
	test	al, al
	jne	SHORT $LL411@ForInitAnd

; 1201 :           AddLineQueue(codebuff);

	lea	rcx, QWORD PTR codebuff$[rbp-256]
	call	AddLineQueue

; 1202 :           WriteAsmLine(" mov  ", param, reax[ModuleInfo.Ofssize]);

	movzx	eax, BYTE PTR ModuleInfo+404
	xor	ecx, ecx
	mov	r8, QWORD PTR reax[rbx+rax*8]
	npad	6
$LL205@ForInitAnd:
	movzx	eax, BYTE PTR $SG11596[rcx+rbx]
	mov	BYTE PTR codebuff$4[rsp+rcx], al
	lea	rcx, QWORD PTR [rcx+1]
	test	al, al
	jne	SHORT $LL205@ForInitAnd
	lea	rcx, QWORD PTR codebuff$4[rsp]
	dec	rcx
	npad	4
$LL408@ForInitAnd:
	cmp	BYTE PTR [rcx+1], 0
	lea	rcx, QWORD PTR [rcx+1]
	jne	SHORT $LL408@ForInitAnd
	lea	r9, QWORD PTR param$[rbp-256]
	xor	edx, edx
	npad	13
$LL409@ForInitAnd:
	movzx	eax, BYTE PTR [r9+rdx]
	mov	BYTE PTR [rcx+rdx], al
	lea	rdx, QWORD PTR [rdx+1]
	test	al, al
	jne	SHORT $LL409@ForInitAnd
	lea	rcx, QWORD PTR codebuff$4[rsp]
	dec	rcx
	npad	8
$LL406@ForInitAnd:
	cmp	BYTE PTR [rcx+1], 0
	lea	rcx, QWORD PTR [rcx+1]
	jne	SHORT $LL406@ForInitAnd
	xor	edx, edx
	lea	r12, OFFSET FLAT:$SG11401
	npad	13
$LL407@ForInitAnd:
	movzx	eax, BYTE PTR [r12+rdx]
	mov	BYTE PTR [rcx+rdx], al
	lea	rdx, QWORD PTR [rdx+1]
	test	al, al
	jne	SHORT $LL407@ForInitAnd
	mov	r12, QWORD PTR buff$[rbp-256]
	lea	rcx, QWORD PTR codebuff$4[rsp]
	dec	rcx
	npad	1
$LL404@ForInitAnd:
	cmp	BYTE PTR [rcx+1], 0
	lea	rcx, QWORD PTR [rcx+1]
	jne	SHORT $LL404@ForInitAnd
	xor	edx, edx
	npad	4
$LL405@ForInitAnd:
	movzx	eax, BYTE PTR [r8+rdx]
	mov	BYTE PTR [rcx+rdx], al
	inc	rdx
	test	al, al
	jne	SHORT $LL405@ForInitAnd
	lea	rcx, QWORD PTR codebuff$4[rsp]
	call	AddLineQueue

; 1203 :           brct = FALSE;

	xor	r14b, r14b

; 1204 :         }

	jmp	$skip$554
$LN117@ForInitAnd:

; 1205 :         else {
; 1206 :           if (strlen(op) == 1)

	cmp	rax, 1
	jne	$LN122@ForInitAnd

; 1207 :             WriteAsmLine(" mov  ", param, init);

	xor	ecx, ecx
	npad	3
$LL208@ForInitAnd:
	movzx	eax, BYTE PTR $SG11599[rcx+rbx]
	mov	BYTE PTR codebuff$3[rsp+rcx], al
	lea	rcx, QWORD PTR [rcx+1]
	test	al, al
	jne	SHORT $LL208@ForInitAnd
	lea	rcx, QWORD PTR codebuff$3[rsp]
	dec	rcx
	npad	4
$LL402@ForInitAnd:
	cmp	BYTE PTR [rcx+1], 0
	lea	rcx, QWORD PTR [rcx+1]
	jne	SHORT $LL402@ForInitAnd
	lea	r8, QWORD PTR param$[rbp-256]
	xor	edx, edx
	npad	13
$LL403@ForInitAnd:
	movzx	eax, BYTE PTR [r8+rdx]
	mov	BYTE PTR [rcx+rdx], al
	lea	rdx, QWORD PTR [rdx+1]
	test	al, al
	jne	SHORT $LL403@ForInitAnd
	lea	rcx, QWORD PTR codebuff$3[rsp]
	dec	rcx
	npad	8
$LL400@ForInitAnd:
	cmp	BYTE PTR [rcx+1], 0
	lea	rcx, QWORD PTR [rcx+1]
	jne	SHORT $LL400@ForInitAnd
	xor	edx, edx
	lea	r12, OFFSET FLAT:$SG11401
	npad	13
$LL401@ForInitAnd:
	movzx	eax, BYTE PTR [r12+rdx]
	mov	BYTE PTR [rcx+rdx], al
	lea	rdx, QWORD PTR [rdx+1]
	test	al, al
	jne	SHORT $LL401@ForInitAnd
	mov	r12, QWORD PTR buff$[rbp-256]
	lea	rcx, QWORD PTR codebuff$3[rsp]
	dec	rcx
	npad	1
$LL398@ForInitAnd:
	cmp	BYTE PTR [rcx+1], 0
	lea	rcx, QWORD PTR [rcx+1]
	jne	SHORT $LL398@ForInitAnd
	lea	r8, QWORD PTR init$[rbp-256]
	xor	edx, edx
	npad	13
$LL399@ForInitAnd:
	movzx	eax, BYTE PTR [r8+rdx]
	mov	BYTE PTR [rcx+rdx], al
	inc	rdx
	test	al, al
	jne	SHORT $LL399@ForInitAnd
	lea	rcx, QWORD PTR codebuff$3[rsp]
	call	AddLineQueue
	jmp	$skip$554
$LN122@ForInitAnd:

; 1208 :           else
; 1209 :             WriteAsmLine(codebuff, param, init);

	xor	ecx, ecx
$LL211@ForInitAnd:
	movzx	eax, BYTE PTR codebuff$[rbp+rcx-256]
	mov	BYTE PTR codebuff$2[rsp+rcx], al
	lea	rcx, QWORD PTR [rcx+1]
	test	al, al
	jne	SHORT $LL211@ForInitAnd
	lea	rcx, QWORD PTR codebuff$2[rsp]
	dec	rcx
	npad	7
$LL396@ForInitAnd:
	cmp	BYTE PTR [rcx+1], 0
	lea	rcx, QWORD PTR [rcx+1]
	jne	SHORT $LL396@ForInitAnd
	lea	r8, QWORD PTR param$[rbp-256]
	xor	edx, edx
	npad	13
$LL397@ForInitAnd:
	movzx	eax, BYTE PTR [r8+rdx]
	mov	BYTE PTR [rcx+rdx], al
	lea	rdx, QWORD PTR [rdx+1]
	test	al, al
	jne	SHORT $LL397@ForInitAnd
	lea	rcx, QWORD PTR codebuff$2[rsp]
	dec	rcx
	npad	8
$LL394@ForInitAnd:
	cmp	BYTE PTR [rcx+1], 0
	lea	rcx, QWORD PTR [rcx+1]
	jne	SHORT $LL394@ForInitAnd
	xor	edx, edx
	lea	r12, OFFSET FLAT:$SG11401
	npad	13
$LL395@ForInitAnd:
	movzx	eax, BYTE PTR [r12+rdx]
	mov	BYTE PTR [rcx+rdx], al
	lea	rdx, QWORD PTR [rdx+1]
	test	al, al
	jne	SHORT $LL395@ForInitAnd
	mov	r12, QWORD PTR buff$[rbp-256]
	lea	rcx, QWORD PTR codebuff$2[rsp]
	dec	rcx
	npad	1
$LL392@ForInitAnd:
	cmp	BYTE PTR [rcx+1], 0
	lea	rcx, QWORD PTR [rcx+1]
	jne	SHORT $LL392@ForInitAnd
	lea	r8, QWORD PTR init$[rbp-256]
	xor	edx, edx
	npad	13
$LL393@ForInitAnd:
	movzx	eax, BYTE PTR [r8+rdx]
	mov	BYTE PTR [rcx+rdx], al
	inc	rdx
	test	al, al
	jne	SHORT $LL393@ForInitAnd
	lea	rcx, QWORD PTR codebuff$2[rsp]
	call	AddLineQueue

; 1210 :         }
; 1211 :       }

	jmp	$skip$554
$LN23@ForInitAnd:

; 1006 :       param[a] = '\0';
; 1007 :       if ((buff[b] == '+') && (buff[b + 1] == '+')) strcpy(codebuff, " inc ");

	movzx	eax, BYTE PTR [rcx]
	mov	BYTE PTR param$[rbp+rdi-256], 0
	cmp	al, 43					; 0000002bH
	jne	SHORT $LN24@ForInitAnd
	cmp	dl, al
	jne	SHORT $LN24@ForInitAnd
	xor	ecx, ecx
	lea	rbx, OFFSET FLAT:__ImageBase
	npad	6
$LL128@ForInitAnd:
	movzx	eax, BYTE PTR $SG11447[rcx+rbx]
	mov	BYTE PTR codebuff$[rbp+rcx-256], al
	lea	rcx, QWORD PTR [rcx+1]
	test	al, al
	jne	SHORT $LL128@ForInitAnd
	jmp	SHORT $LN26@ForInitAnd
$LN24@ForInitAnd:

; 1008 :       else if ((buff[b] == '-') && (buff[b + 1] == '-')) strcpy(codebuff, " dec ");

	cmp	al, 45					; 0000002dH
	jne	SHORT $LN26@ForInitAnd
	cmp	dl, al
	jne	SHORT $LN26@ForInitAnd
	xor	ecx, ecx
	lea	rbx, OFFSET FLAT:__ImageBase
	npad	9
$LL129@ForInitAnd:
	movzx	eax, BYTE PTR $SG11449[rcx+rbx]
	mov	BYTE PTR codebuff$[rbp+rcx-256], al
	lea	rcx, QWORD PTR [rcx+1]
	test	al, al
	jne	SHORT $LL129@ForInitAnd
$LN26@ForInitAnd:

; 1009 :       strcat(codebuff, param);

	lea	rcx, QWORD PTR codebuff$[rbp-256]
	dec	rcx
	npad	5
$LL390@ForInitAnd:
	cmp	BYTE PTR [rcx+1], 0
	lea	rcx, QWORD PTR [rcx+1]
	jne	SHORT $LL390@ForInitAnd
	lea	r8, QWORD PTR param$[rbp-256]
	xor	edx, edx
	npad	13
$LL391@ForInitAnd:
	movzx	eax, BYTE PTR [r8+rdx]
	mov	BYTE PTR [rcx+rdx], al
	inc	rdx
	test	al, al
	jne	SHORT $LL391@ForInitAnd

; 1010 :       AddLineQueue(codebuff);

	lea	rcx, QWORD PTR codebuff$[rbp-256]
	call	AddLineQueue

; 1011 :       b += 3;

	add	r15d, 3
$skip$554:

; 1219 :         }
; 1220 :       }
; 1221 :     }
; 1222 :   skip:
; 1223 :     if (cnt) cnt--;

	test	esi, esi
	je	SHORT $LN530@ForInitAnd

; 1224 :   } while (cnt);

	mov	r9, 145272973819904			; 0000842000000000H
	sub	esi, 1
	jne	$LL4@ForInitAnd
$LN530@ForInitAnd:

; 1225 :   return(NOT_ERROR);

	xor	eax, eax

; 1226 : }

	mov	rbx, QWORD PTR [rsp+1144]
	add	rsp, 1056				; 00000420H
	pop	r15
	pop	r14
	pop	r13
	pop	r12
	pop	rdi
	pop	rsi
	pop	rbp
	ret	0
ForInitAndNext ENDP
_TEXT	ENDS
; Function compile flags: /Ogtpy
; File d:\hjwasm\hjwasm2.13.1s\hjwasm2.13.1s\hll.c
;	COMDAT WriteAsmLine
_TEXT	SEGMENT
codebuff$ = 32
cmd$ = 304
s1$ = 312
s2$ = 320
WriteAsmLine PROC					; COMDAT

; 972  : static void WriteAsmLine(const char *cmd, const char *s1, const char *s2) {

	sub	rsp, 296				; 00000128H

; 973  :   char codebuff[256];
; 974  :   strcpy(codebuff, cmd);

	lea	r9, QWORD PTR codebuff$[rsp]
	mov	r10, rdx
	sub	r9, rcx
	npad	14
$LL3@WriteAsmLi:
	movzx	eax, BYTE PTR [rcx]
	mov	BYTE PTR [r9+rcx], al
	lea	rcx, QWORD PTR [rcx+1]
	test	al, al
	jne	SHORT $LL3@WriteAsmLi

; 975  :   strcat(codebuff, s1);

	lea	rcx, QWORD PTR codebuff$[rsp]
	dec	rcx
	npad	9
$LL11@WriteAsmLi:
	cmp	BYTE PTR [rcx+1], 0
	lea	rcx, QWORD PTR [rcx+1]
	jne	SHORT $LL11@WriteAsmLi
	xor	edx, edx
	npad	4
$LL12@WriteAsmLi:
	movzx	eax, BYTE PTR [r10+rdx]
	mov	BYTE PTR [rcx+rdx], al
	lea	rdx, QWORD PTR [rdx+1]
	test	al, al
	jne	SHORT $LL12@WriteAsmLi

; 976  :   strcat(codebuff, ", ");

	lea	rcx, QWORD PTR codebuff$[rsp]
	dec	rcx
	npad	8
$LL9@WriteAsmLi:
	cmp	BYTE PTR [rcx+1], 0
	lea	rcx, QWORD PTR [rcx+1]
	jne	SHORT $LL9@WriteAsmLi
	lea	r9, OFFSET FLAT:$SG11401
	xor	edx, edx
	npad	13
$LL10@WriteAsmLi:
	movzx	eax, BYTE PTR [r9+rdx]
	mov	BYTE PTR [rcx+rdx], al
	lea	rdx, QWORD PTR [rdx+1]
	test	al, al
	jne	SHORT $LL10@WriteAsmLi

; 977  :   strcat(codebuff, s2);

	lea	rcx, QWORD PTR codebuff$[rsp]
	dec	rcx
	npad	8
$LL7@WriteAsmLi:
	cmp	BYTE PTR [rcx+1], 0
	lea	rcx, QWORD PTR [rcx+1]
	jne	SHORT $LL7@WriteAsmLi
	xor	edx, edx
	npad	4
$LL8@WriteAsmLi:
	movzx	eax, BYTE PTR [r8+rdx]
	mov	BYTE PTR [rcx+rdx], al
	lea	rdx, QWORD PTR [rdx+1]
	test	al, al
	jne	SHORT $LL8@WriteAsmLi

; 978  :   AddLineQueue(codebuff);				// MOV RAX,param

	lea	rcx, QWORD PTR codebuff$[rsp]
	call	AddLineQueue

; 979  :   return;
; 980  : }

	add	rsp, 296				; 00000128H
	ret	0
WriteAsmLine ENDP
_TEXT	ENDS
; Function compile flags: /Ogtpy
; File d:\hjwasm\hjwasm2.13.1s\hjwasm2.13.1s\hll.c
;	COMDAT CheckCXZLines
_TEXT	SEGMENT
p$ = 48
CheckCXZLines PROC					; COMDAT

; 915  : {

	mov	QWORD PTR [rsp+8], rbx
	mov	QWORD PTR [rsp+16], rsi
	push	rdi
	sub	rsp, 32					; 00000020H

; 916  :   int lines = 0;
; 917  :   int i;
; 918  :   int addchars;
; 919  :   char *px;
; 920  :   bool NL = TRUE;
; 921  : 
; 922  :   DebugMsg1(("CheckCXZLines enter, p=>%s<\n", p));
; 923  :   /* syntax ".untilcxz 1" has a problem: there's no "jmp" generated at all.
; 924  :   * if this syntax is to be supported, activate the #if below.
; 925  :   */
; 926  :   for (; *p; p++) {

	movzx	eax, BYTE PTR [rcx]
	xor	edi, edi
	mov	rbx, rcx
	mov	sil, 1
	test	al, al
	je	$LN17@CheckCXZLi
$LL4@CheckCXZLi:

; 927  :     if (*p == EOLCHAR) {

	cmp	al, 10
	jne	SHORT $LN8@CheckCXZLi

; 928  :       NL = TRUE;

	mov	sil, 1

; 929  :       lines++;

	inc	edi

; 930  :     }

	jmp	$LN2@CheckCXZLi
$LN8@CheckCXZLi:

; 931  :     else if (NL) {

	test	sil, sil
	je	$LN2@CheckCXZLi

; 932  :       NL = FALSE;

	xor	sil, sil

; 933  :       if (*p == 'j') {

	cmp	al, 106					; 0000006aH
	jne	$LN2@CheckCXZLi

; 934  :         p++;
; 935  :         /* v2.06: rewritten */
; 936  :         if (*p == 'm' && lines == 0) {

	movzx	eax, BYTE PTR [rbx+1]
	cmp	al, 109					; 0000006dH
	jne	SHORT $LN12@CheckCXZLi
	test	edi, edi
	jne	SHORT $LN12@CheckCXZLi

; 937  :           addchars = 2; /* make room for 2 chars, to replace "jmp" by "loope" */

	lea	r8d, QWORD PTR [rdi+2]

; 938  :           px = "loope";

	lea	r9, OFFSET FLAT:$SG11374

; 939  :         }

	jmp	SHORT $LN15@CheckCXZLi
$LN12@CheckCXZLi:

; 940  :         else if (lines == 1 && (*p == 'z' || (*p == 'n' && *(p + 1) == 'z'))) {

	cmp	edi, 1
	jne	$LN14@CheckCXZLi
	cmp	al, 122					; 0000007aH
	je	SHORT $LN16@CheckCXZLi
	cmp	al, 110					; 0000006eH
	jne	$LN14@CheckCXZLi
	cmp	BYTE PTR [rbx+2], 122			; 0000007aH
	jne	$LN14@CheckCXZLi
$LN16@CheckCXZLi:

; 941  :           addchars = 3; /* make room for 3 chars, to replace "jz"/"jnz" by "loopz"/"loopnz" */

	mov	r8d, 3

; 942  :           px = "loop";

	lea	r9, OFFSET FLAT:$SG11378
$LN15@CheckCXZLi:

; 943  :         }
; 944  :         else
; 945  :           return(ERROR); /* anything else is "too complex" */
; 946  :                          //replace_instr:
; 947  :         for (p--, i = strlen(p); i >= 0; i--) {

	or	rax, -1
	npad	3
$LL29@CheckCXZLi:
	inc	rax
	cmp	BYTE PTR [rbx+rax], 0
	jne	SHORT $LL29@CheckCXZLi
	movsxd	rdx, eax
	test	eax, eax
	js	SHORT $LN6@CheckCXZLi
	lea	rax, QWORD PTR [rdx+r8]
	neg	r8
	add	rax, rbx
	inc	rdx
	npad	3
$LL7@CheckCXZLi:

; 948  :           *(p + addchars + i) = *(p + i);

	movzx	ecx, BYTE PTR [r8+rax]
	mov	BYTE PTR [rax], cl
	dec	rax
	sub	rdx, 1
	jne	SHORT $LL7@CheckCXZLi
$LN6@CheckCXZLi:

; 949  :         }
; 950  :         memcpy(p, px, strlen(px));

	or	r8, -1
$LL28@CheckCXZLi:
	inc	r8
	cmp	BYTE PTR [r9+r8], 0
	jne	SHORT $LL28@CheckCXZLi
	mov	rdx, r9
	mov	rcx, rbx
	call	memcpy
$LN2@CheckCXZLi:

; 916  :   int lines = 0;
; 917  :   int i;
; 918  :   int addchars;
; 919  :   char *px;
; 920  :   bool NL = TRUE;
; 921  : 
; 922  :   DebugMsg1(("CheckCXZLines enter, p=>%s<\n", p));
; 923  :   /* syntax ".untilcxz 1" has a problem: there's no "jmp" generated at all.
; 924  :   * if this syntax is to be supported, activate the #if below.
; 925  :   */
; 926  :   for (; *p; p++) {

	movzx	eax, BYTE PTR [rbx+1]
	inc	rbx
	test	al, al
	jne	$LL4@CheckCXZLi

; 951  :       }
; 952  : #if 0 /* handle ".untilcxz 1" like masm does */
; 953  :       else if (*p == ' ' && *(p + 1) == EOLCHAR && lines == 0) {
; 954  :         p++;
; 955  :         GetLabelStr(hll->labels[LSTART], p);
; 956  :         strcat(p, EOLSTR);
; 957  :         addchars = 5;
; 958  :         px = "loope";
; 959  :         goto replace_instr;
; 960  :       }
; 961  : #endif
; 962  :     }
; 963  :   }
; 964  :   if (lines > 2)

	cmp	edi, 2
	jg	SHORT $LN14@CheckCXZLi
$LN17@CheckCXZLi:

; 965  :     return(ERROR);
; 966  :   return(NOT_ERROR);

	xor	eax, eax

; 967  : }

	mov	rbx, QWORD PTR [rsp+48]
	mov	rsi, QWORD PTR [rsp+56]
	add	rsp, 32					; 00000020H
	pop	rdi
	ret	0
$LN14@CheckCXZLi:
	mov	rbx, QWORD PTR [rsp+48]
	or	eax, -1
	mov	rsi, QWORD PTR [rsp+56]
	add	rsp, 32					; 00000020H
	pop	rdi
	ret	0
CheckCXZLines ENDP
_TEXT	ENDS
; Function compile flags: /Ogtpy
; File d:\hjwasm\hjwasm2.13.1s\hjwasm2.13.1s\hll.c
;	COMDAT EvaluateHllExpression
_TEXT	SEGMENT
hllop$ = 64
hll$ = 96
i$ = 104
tokenarray$ = 112
ilabel$ = 120
is_true$ = 128
buffer$ = 136
EvaluateHllExpression PROC				; COMDAT

; 890  : {

	mov	QWORD PTR [rsp+8], rbx
	push	rdi
	sub	rsp, 80					; 00000050H

; 891  :   struct hll_opnd hllop = { NULL, 0 };

	xor	eax, eax
	mov	rdi, rdx
	mov	QWORD PTR hllop$[rsp], rax

; 892  : 
; 893  :   DebugMsg1(("EvaluateHllExpression enter\n"));
; 894  : 
; 895  :   *buffer = NULLC;
; 896  :   if (ERROR == GetExpression(hll, i, tokenarray, ilabel, is_true, buffer, &hllop))

	lea	rdx, QWORD PTR hllop$[rsp]
	mov	QWORD PTR [rsp+48], rdx
	mov	rbx, r8
	mov	DWORD PTR hllop$[rsp+8], eax
	mov	rdx, rdi
	mov	rax, QWORD PTR buffer$[rsp]
	mov	QWORD PTR [rsp+40], rax
	mov	BYTE PTR [rax], 0
	movzx	eax, BYTE PTR is_true$[rsp]
	mov	BYTE PTR [rsp+32], al
	call	GetExpression
	cmp	eax, -1
	jne	SHORT $LN2@EvaluateHl

; 897  :     return(ERROR);

	or	eax, eax

; 906  : }

	mov	rbx, QWORD PTR [rsp+96]
	add	rsp, 80					; 00000050H
	pop	rdi
	ret	0
$LN2@EvaluateHl:

; 898  :   /* v2.11: changed */
; 899  :   //if ( *buffer == EOLCHAR ) {
; 900  :   //DebugMsg(( "EvaluateHllExpression: EOL at pos 0 in line buffer\n" ));
; 901  :   if (tokenarray[*i].token != T_FINAL) {

	movsxd	rax, DWORD PTR [rdi]
	shl	rax, 5
	cmp	BYTE PTR [rax+rbx], 0
	je	SHORT $LN3@EvaluateHl

; 902  :     DebugMsg(("EvaluateHllExpression: unexpected tokens >%s<\n", tokenarray[*i].tokpos));
; 903  :     return(EmitError(SYNTAX_ERROR_IN_CONTROL_FLOW_DIRECTIVE));

	mov	ecx, 199				; 000000c7H
	call	EmitError

; 906  : }

	mov	rbx, QWORD PTR [rsp+96]
	add	rsp, 80					; 00000050H
	pop	rdi
	ret	0
$LN3@EvaluateHl:

; 904  :   }
; 905  :   return(NOT_ERROR);

	xor	eax, eax

; 906  : }

	mov	rbx, QWORD PTR [rsp+96]
	add	rsp, 80					; 00000050H
	pop	rdi
	ret	0
EvaluateHllExpression ENDP
_TEXT	ENDS
; Function compile flags: /Ogtpy
; File d:\hjwasm\hjwasm2.13.1s\hjwasm2.13.1s\hll.c
;	COMDAT QueueTestLines
_TEXT	SEGMENT
src$ = 48
QueueTestLines PROC					; COMDAT

; 853  : {

	push	rbx
	sub	rsp, 32					; 00000020H
	mov	rbx, rcx

; 854  :   char *start;
; 855  : 
; 856  :   DebugMsg1(("QueueTestLines(\"%s\") enter\n", src ? src : "NULL"));
; 857  :   while (src) {

	test	rcx, rcx
	je	SHORT $LN10@QueueTestL
	mov	QWORD PTR [rsp+48], rdi
	npad	13
$LL2@QueueTestL:

; 858  :     //if (*src == ' ') src++; /* v2.11: obsolete */
; 859  :     start = src;
; 860  :     if (src = strchr(src, EOLCHAR))

	mov	edx, 10
	mov	rcx, rbx
	mov	rdi, rbx
	call	strchr
	mov	rbx, rax
	test	rax, rax
	je	SHORT $LN4@QueueTestL

; 861  :       *src++ = NULLC;

	mov	BYTE PTR [rax], 0
	inc	rbx
$LN4@QueueTestL:

; 862  :     if (*start)

	cmp	BYTE PTR [rdi], 0
	je	SHORT $LN5@QueueTestL

; 863  :       AddLineQueue(start);

	mov	rcx, rdi
	call	AddLineQueue
$LN5@QueueTestL:

; 854  :   char *start;
; 855  : 
; 856  :   DebugMsg1(("QueueTestLines(\"%s\") enter\n", src ? src : "NULL"));
; 857  :   while (src) {

	test	rbx, rbx
	jne	SHORT $LL2@QueueTestL
	mov	rdi, QWORD PTR [rsp+48]
$LN10@QueueTestL:

; 864  :   }
; 865  : 
; 866  :   DebugMsg1(("QueueTestLines exit\n"));
; 867  :   return(NOT_ERROR);

	xor	eax, eax

; 868  : }

	add	rsp, 32					; 00000020H
	pop	rbx
	ret	0
QueueTestLines ENDP
_TEXT	ENDS
; Function compile flags: /Ogtpy
; File d:\hjwasm\hjwasm2.13.1s\hjwasm2.13.1s\hll.c
;	COMDAT GetAndExpression
_TEXT	SEGMENT
hll$ = 128
i$ = 136
tokenarray$ = 144
ilabel$ = 152
is_true$ = 160
buffer$ = 168
hllop$ = 176
GetAndExpression PROC					; COMDAT

; 701  : {

	mov	QWORD PTR [rsp+16], rbx
	mov	DWORD PTR [rsp+32], r9d
	mov	QWORD PTR [rsp+8], rcx
	push	rbp
	push	rsi
	push	rdi
	push	r12
	push	r13
	push	r14
	push	r15
	sub	rsp, 64					; 00000040H

; 702  :   char *ptr = buffer;
; 703  :   uint_32 truelabel = 0;
; 704  :   //char buff[16];
; 705  :   //char *nlabel;
; 706  :   //char *olabel;
; 707  : 
; 708  :   DebugMsg1(("%u GetAndExpression(>%.32s< buf=>%s<) enter\n", evallvl, tokenarray[*i].tokpos, buffer));
; 709  : 
; 710  :   if (ERROR == GetSimpleExpression(hll, i, tokenarray, ilabel, is_true, ptr, hllop))

	mov	r15, QWORD PTR hllop$[rsp]
	mov	rax, rcx
	mov	rcx, QWORD PTR buffer$[rsp]
	mov	ebx, r9d
	movzx	r12d, BYTE PTR is_true$[rsp]
	mov	rdi, rcx
	mov	QWORD PTR [rsp+48], r15
	mov	r13, r8
	mov	QWORD PTR [rsp+40], rcx
	mov	r14, rdx
	mov	rcx, rax
	mov	BYTE PTR [rsp+32], r12b
	xor	ebp, ebp
	call	GetSimpleExpression
	cmp	eax, -1
	jne	SHORT $LN20@GetAndExpr

; 711  :     return(ERROR);

	or	rax, -1
	jmp	$LN1@GetAndExpr
$LN20@GetAndExpr:

; 712  :   while (COP_AND == GetCOp(&tokenarray[*i])) {

	movsxd	rcx, DWORD PTR [r14]
	shl	rcx, 5
	add	rcx, r13
	call	GetCOp
	cmp	eax, 7
	jne	$LN10@GetAndExpr
	or	rsi, -1
	npad	7
$LL2@GetAndExpr:

; 713  : 
; 714  :     (*i)++;

	inc	DWORD PTR [r14]

; 715  :     DebugMsg1(("%u GetAndExpression: &&-operator found, is_true=%u, lastjmp=%s\n", evallvl, is_true, hllop->lastjmp ? hllop->lastjmp : "NULL"));
; 716  : 
; 717  :     if (is_true) {

	test	r12b, r12b
	je	$LN6@GetAndExpr

; 718  :       /* todo: please describe what's done here and why! */
; 719  :       if (hllop->lastjmp) {

	mov	rbx, QWORD PTR [r15]
	test	rbx, rbx
	je	$LN31@GetAndExpr

; 720  :         char *p = hllop->lastjmp;
; 721  :         InvertJump(p);          /* step 1 */

	mov	rcx, rbx
	call	InvertJump

; 722  :         if (truelabel == 0)     /* step 2 */

	test	ebp, ebp
	jne	SHORT $LN7@GetAndExpr

; 723  :           truelabel = GetHllLabel();

	mov	ebp, DWORD PTR ModuleInfo+352
	inc	ebp
	mov	DWORD PTR ModuleInfo+352, ebp
$LN7@GetAndExpr:

; 724  : 
; 725  :         if (*p && strlen(p) < 11) {/* v2.11: there might be a 0 at lastjmp */

	cmp	BYTE PTR [rbx], 0
	je	SHORT $LN8@GetAndExpr
	mov	rax, rsi
	npad	6
$LL30@GetAndExpr:
	inc	rax
	cmp	BYTE PTR [rbx+rax], 0
	jne	SHORT $LL30@GetAndExpr
	cmp	rax, 11
	jae	SHORT $LN8@GetAndExpr

; 726  :           p += 4;               /* skip 'jcc ' or 'jmp ' */
; 727  :           GetLabelStr(truelabel, p);

	mov	r8d, ebp
	lea	rdx, OFFSET FLAT:$SG11101
	lea	rcx, QWORD PTR [rbx+4]
	call	sprintf

; 728  :           strcat(p, EOLSTR);

	sub	rbx, -3
$LL28@GetAndExpr:
	cmp	BYTE PTR [rbx+1], 0
	lea	rbx, QWORD PTR [rbx+1]
	jne	SHORT $LL28@GetAndExpr
	xor	ecx, ecx
	lea	r12, OFFSET FLAT:$SG11283
	npad	7
$LL29@GetAndExpr:
	movzx	eax, BYTE PTR [r12+rcx]
	mov	BYTE PTR [rbx+rcx], al
	lea	rcx, QWORD PTR [rcx+1]
	test	al, al
	jne	SHORT $LL29@GetAndExpr
	movzx	r12d, BYTE PTR is_true$[rsp]
$LN8@GetAndExpr:

; 729  :         }
; 730  : 
; 731  :         DebugMsg1(("%u GetAndExpression: jmp inverted >%s<\n", evallvl, hllop->lastjmp));
; 732  :         ReplaceLabel(buffer, GetLabel(hll, ilabel), truelabel);

	mov	rcx, QWORD PTR hll$[rsp]
	mov	r8d, ebp
	movsxd	rbx, DWORD PTR ilabel$[rsp]
	mov	edx, DWORD PTR [rcx+rbx*4+32]
	mov	rcx, QWORD PTR buffer$[rsp]
	call	ReplaceLabel

; 733  :         hllop->lastjmp = NULL;

	mov	QWORD PTR [r15], 0
	jmp	SHORT $LN6@GetAndExpr
$LN31@GetAndExpr:
	mov	ebx, DWORD PTR ilabel$[rsp]
$LN6@GetAndExpr:

; 734  :       }
; 735  :     }
; 736  :     ptr += strlen(ptr);

	mov	rax, rsi
$LL27@GetAndExpr:
	inc	rax
	cmp	BYTE PTR [rdi+rax], 0
	jne	SHORT $LL27@GetAndExpr

; 737  :     hllop->lasttruelabel = 0; /* v2.08 */
; 738  :     if (ERROR == GetSimpleExpression(hll, i, tokenarray, ilabel, is_true, ptr, hllop))

	mov	rcx, QWORD PTR hll$[rsp]
	add	rdi, rax
	mov	QWORD PTR [rsp+48], r15
	mov	r9d, ebx
	mov	QWORD PTR [rsp+40], rdi
	mov	r8, r13
	mov	rdx, r14
	mov	BYTE PTR [rsp+32], r12b
	mov	DWORD PTR [r15+8], 0
	call	GetSimpleExpression
	cmp	eax, -1
	je	$LN21@GetAndExpr

; 712  :   while (COP_AND == GetCOp(&tokenarray[*i])) {

	movsxd	rcx, DWORD PTR [r14]
	shl	rcx, 5
	add	rcx, r13
	call	GetCOp
	cmp	eax, 7
	je	$LL2@GetAndExpr

; 740  :   };
; 741  : 
; 742  :   if (truelabel > 0) {

	test	ebp, ebp
	je	SHORT $LN10@GetAndExpr
	npad	2
$LL26@GetAndExpr:

; 743  :     ptr += strlen(ptr);

	inc	rsi
	cmp	BYTE PTR [rdi+rsi], 0
	jne	SHORT $LL26@GetAndExpr
	add	rdi, rsi

; 744  :     GetLabelStr(truelabel, ptr);

	lea	rdx, OFFSET FLAT:$SG11101
	mov	rcx, rdi
	mov	r8d, ebp
	call	sprintf

; 745  :     strcat(ptr, LABELQUAL EOLSTR);

	dec	rdi
$LL24@GetAndExpr:
	cmp	BYTE PTR [rdi+1], 0
	lea	rdi, QWORD PTR [rdi+1]
	jne	SHORT $LL24@GetAndExpr
	lea	rdx, OFFSET FLAT:$SG11286
	xor	ecx, ecx
	npad	12
$LL25@GetAndExpr:
	movzx	eax, BYTE PTR [rdx+rcx]
	mov	BYTE PTR [rdi+rcx], al
	lea	rcx, QWORD PTR [rcx+1]
	test	al, al
	jne	SHORT $LL25@GetAndExpr

; 746  :     DebugMsg1(("%u GetAndExpression: label added >%s<\n", evallvl, ptr));
; 747  :     hllop->lastjmp = NULL;

	mov	QWORD PTR [r15], 0
$LN10@GetAndExpr:

; 748  :   }
; 749  :   return(NOT_ERROR);

	xor	eax, eax
$LN1@GetAndExpr:

; 750  : }

	mov	rbx, QWORD PTR [rsp+136]
	add	rsp, 64					; 00000040H
	pop	r15
	pop	r14
	pop	r13
	pop	r12
	pop	rdi
	pop	rsi
	pop	rbp
	ret	0
$LN21@GetAndExpr:

; 739  :       return(ERROR);

	mov	eax, esi
	jmp	SHORT $LN1@GetAndExpr
GetAndExpression ENDP
_TEXT	ENDS
; Function compile flags: /Ogtpy
; File d:\hjwasm\hjwasm2.13.1s\hjwasm2.13.1s\hll.c
;	COMDAT ReplaceLabel
_TEXT	SEGMENT
newlbl$ = 32
oldlbl$ = 48
p$ = 80
olabel$ = 88
nlabel$ = 96
ReplaceLabel PROC					; COMDAT

; 680  : {

	mov	QWORD PTR [rsp+8], rbx
	push	rdi
	sub	rsp, 64					; 00000040H
	mov	ebx, r8d
	mov	rdi, rcx

; 681  :   char oldlbl[16];
; 682  :   char newlbl[16];
; 683  :   int i;
; 684  : 
; 685  :   GetLabelStr(olabel, oldlbl);

	mov	r8d, edx
	lea	rcx, QWORD PTR oldlbl$[rsp]
	lea	rdx, OFFSET FLAT:$SG11101
	call	sprintf

; 686  :   GetLabelStr(nlabel, newlbl);

	mov	r8d, ebx
	lea	rdx, OFFSET FLAT:$SG11101
	lea	rcx, QWORD PTR newlbl$[rsp]
	call	sprintf

; 687  : 
; 688  :   i = strlen(newlbl);

	lea	rax, QWORD PTR newlbl$[rsp]
	or	rbx, -1
$LL13@ReplaceLab:
	inc	rbx
	cmp	BYTE PTR [rax+rbx], 0
	jne	SHORT $LL13@ReplaceLab

; 689  : 
; 690  :   DebugMsg1(("%u ReplaceLabel(%s->%s, >%s<)\n", evallvl, oldlbl, newlbl, p));
; 691  :   while (p = strstr(p, oldlbl)) {

	lea	rdx, QWORD PTR oldlbl$[rsp]
	mov	rcx, rdi
	call	strstr
	mov	rdi, rax
	test	rax, rax
	je	SHORT $LN3@ReplaceLab
	movsxd	rbx, ebx
	npad	14
$LL2@ReplaceLab:

; 692  :     memcpy(p, newlbl, i);

	mov	r8, rbx
	lea	rdx, QWORD PTR newlbl$[rsp]
	mov	rcx, rdi
	call	memcpy

; 693  :     p += i;

	lea	rcx, QWORD PTR [rbx+rdi]
	lea	rdx, QWORD PTR oldlbl$[rsp]
	call	strstr
	mov	rdi, rax
	test	rax, rax
	jne	SHORT $LL2@ReplaceLab
$LN3@ReplaceLab:

; 694  :   }
; 695  : }

	mov	rbx, QWORD PTR [rsp+80]
	add	rsp, 64					; 00000040H
	pop	rdi
	ret	0
ReplaceLabel ENDP
_TEXT	ENDS
; Function compile flags: /Ogtpy
; File d:\hjwasm\hjwasm2.13.1s\hjwasm2.13.1s\hll.c
;	COMDAT InvertJump
_TEXT	SEGMENT
p$ = 8
InvertJump PROC						; COMDAT

; 629  :   if (*p == NULLC) { /* v2.11: convert 0 to "jmp" */

	cmp	BYTE PTR [rcx], 0
	jne	SHORT $LN2@InvertJump

; 630  :     strcpy(p, "jmp ");

	lea	rdx, OFFSET FLAT:$SG11225
	sub	rcx, rdx
	npad	1
$LL20@InvertJump:
	movzx	eax, BYTE PTR [rdx]
	mov	BYTE PTR [rcx+rdx], al
	lea	rdx, QWORD PTR [rdx+1]
	test	al, al
	jne	SHORT $LL20@InvertJump

; 666  :     *p = ' ';
; 667  :   else
; 668  :     *p = 'e';
; 669  :   return;
; 670  : }

	ret	0
$LN2@InvertJump:

; 631  :     return;
; 632  :   }
; 633  : 
; 634  :   p++;
; 635  :   if (*p == 'e' || *p == 'z' || *p == 'c' || *p == 's' || *p == 'p' || *p == 'o') {

	movzx	edx, BYTE PTR [rcx+1]
	lea	eax, DWORD PTR [rdx-99]
	cmp	al, 23
	ja	SHORT $LN24@InvertJump
	mov	r8d, 8466437				; 00813005H
	bt	r8d, eax
	jae	SHORT $LN24@InvertJump

; 636  :     *(p + 1) = *p;

	mov	BYTE PTR [rcx+2], dl

; 637  :     *p = 'n';

	mov	BYTE PTR [rcx+1], 110			; 0000006eH

; 666  :     *p = ' ';
; 667  :   else
; 668  :     *p = 'e';
; 669  :   return;
; 670  : }

	ret	0
$LN24@InvertJump:

; 638  :     return;
; 639  :   }
; 640  :   else if (*p == 'n') {

	cmp	dl, 110					; 0000006eH
	jne	SHORT $LN6@InvertJump

; 641  :     *p = *(p + 1);

	movzx	eax, BYTE PTR [rcx+2]
	mov	BYTE PTR [rcx+1], al

; 642  :     *(p + 1) = ' ';

	mov	BYTE PTR [rcx+2], 32			; 00000020H

; 666  :     *p = ' ';
; 667  :   else
; 668  :     *p = 'e';
; 669  :   return;
; 670  : }

	ret	0
$LN6@InvertJump:

; 643  :     return;
; 644  :   }
; 645  :   else if (*p == 'a') {

	cmp	dl, 97					; 00000061H
	jne	SHORT $LN8@InvertJump

; 646  :     *p++ = 'b';

	mov	BYTE PTR [rcx+1], 98			; 00000062H

; 647  :   }

	jmp	SHORT $LN26@InvertJump
$LN8@InvertJump:

; 648  :   else if (*p == 'b') {

	cmp	dl, 98					; 00000062H
	jne	SHORT $LN10@InvertJump

; 649  :     *p++ = 'a';

	mov	BYTE PTR [rcx+1], 97			; 00000061H

; 650  :   }

	jmp	SHORT $LN26@InvertJump
$LN10@InvertJump:

; 651  :   else if (*p == 'g') {

	cmp	dl, 103					; 00000067H
	jne	SHORT $LN12@InvertJump

; 652  :     *p++ = 'l';

	mov	BYTE PTR [rcx+1], 108			; 0000006cH

; 653  :   }

	jmp	SHORT $LN26@InvertJump
$LN12@InvertJump:

; 654  :   else if (*p == 'l') {

	cmp	dl, 108					; 0000006cH
	jne	SHORT $LN14@InvertJump

; 655  :     *p++ = 'g';

	mov	BYTE PTR [rcx+1], 103			; 00000067H
$LN26@InvertJump:
	add	rcx, 2

; 662  :     }
; 663  :     return;
; 664  :   }
; 665  :   if (*p == 'e')

	mov	eax, 101				; 00000065H
	mov	edx, 32					; 00000020H
	cmp	BYTE PTR [rcx], al
	cmove	eax, edx
	mov	BYTE PTR [rcx], al

; 666  :     *p = ' ';
; 667  :   else
; 668  :     *p = 'e';
; 669  :   return;
; 670  : }

	ret	0
$LN14@InvertJump:

; 656  :   }
; 657  :   else {
; 658  :     /* v2.11: convert "jmp" to 0 */
; 659  :     if (*p == 'm') {

	cmp	dl, 109					; 0000006dH
	jne	SHORT $LN18@InvertJump

; 660  :       p--;
; 661  :       *p = NULLC;

	mov	BYTE PTR [rcx], 0
$LN18@InvertJump:

; 666  :     *p = ' ';
; 667  :   else
; 668  :     *p = 'e';
; 669  :   return;
; 670  : }

	ret	0
InvertJump ENDP
_TEXT	ENDS
; Function compile flags: /Ogtpy
; File d:\hjwasm\hjwasm2.13.1s\hjwasm2.13.1s\hll.c
;	COMDAT GetSimpleExpression
_TEXT	SEGMENT
op1$ = 64
op2$ = 176
hll$ = 352
op2_pos$1$ = 360
i$ = 360
tokenarray$ = 368
ilabel$ = 376
is_true$ = 384
buffer$ = 392
hllop$ = 400
GetSimpleExpression PROC				; COMDAT

; 427  : {

	mov	DWORD PTR [rsp+32], r9d
	mov	QWORD PTR [rsp+8], rcx
	push	rbx
	push	rbp
	push	rsi
	push	rdi
	push	r12
	push	r13
	push	r15
	sub	rsp, 288				; 00000120H

; 428  :   enum c_bop op;
; 429  :   char instr;
; 430  :   int op1_pos;
; 431  :   int op1_end;
; 432  :   int op2_pos;
; 433  :   int op2_end;
; 434  :   char *p;
; 435  :   struct expr op1;
; 436  :   struct expr op2;
; 437  :   uint_32 label;
; 438  : 
; 439  :   DebugMsg1(("%u GetSimpleExpression(>%.32s< buf=>%s<) enter\n", evallvl, tokenarray[*i].tokpos, buffer));
; 440  : 
; 441  :   while (tokenarray[*i].string_ptr[0] == '!' && tokenarray[*i].string_ptr[1] == '\0') {

	movsxd	rax, DWORD PTR [rdx]
	mov	r12d, r9d
	movzx	ebp, BYTE PTR is_true$[rsp]
	mov	rsi, r8
	shl	rax, 5
	mov	rdi, rdx
	mov	r13, rcx
	mov	ebx, 1
	mov	r10, QWORD PTR [rax+r8+8]
	cmp	BYTE PTR [r10], 33			; 00000021H
	jne	SHORT $LN3@GetSimpleE
	npad	10
$LL2@GetSimpleE:
	movsxd	rcx, DWORD PTR [rdx]
	mov	rax, rcx
	shl	rax, 5
	mov	rax, QWORD PTR [rax+r8+8]
	cmp	BYTE PTR [rax+1], 0
	jne	SHORT $LN3@GetSimpleE

; 442  :     (*i)++; //GetCOp( i );

	inc	ecx

; 443  :     is_true = 1 - is_true;

	mov	eax, ebx
	sub	al, bpl
	mov	DWORD PTR [rdx], ecx
	movzx	ebp, al
	movsxd	rax, ecx
	shl	rax, 5
	mov	rax, QWORD PTR [rax+r8+8]
	cmp	BYTE PTR [rax], 33			; 00000021H
	je	SHORT $LL2@GetSimpleE
$LN3@GetSimpleE:

; 444  :   }
; 445  : 
; 446  :   /* the problem with '()' is that is might enclose just a standard Masm
; 447  :   * expression or a "hll" expression. The first case is to be handled
; 448  :   * entirely by the expression evaluator, while the latter case is to be
; 449  :   * handled HERE!
; 450  :   */
; 451  :   if (tokenarray[*i].token == T_OP_BRACKET) {

	movsxd	r15, DWORD PTR [rdx]
	mov	rax, r15
	mov	QWORD PTR [rsp+368], r14
	shl	rax, 5
	cmp	BYTE PTR [rax+r8], 40			; 00000028H
	jne	SHORT $LN18@GetSimpleE

; 452  :     int brcnt;
; 453  :     int j;
; 454  :     for (brcnt = 1, j = *i + 1; tokenarray[j].token != T_FINAL; j++) {

	inc	r15d
	movsxd	r14, r15d
	mov	rax, r14
	shl	rax, 5
	cmp	BYTE PTR [rax+r8], 0
	lea	rcx, QWORD PTR [rax+r8]
	je	$LN108@GetSimpleE
$LL6@GetSimpleE:
	movzx	eax, BYTE PTR [rcx]

; 455  :       if (tokenarray[j].token == T_OP_BRACKET)

	cmp	al, 40					; 00000028H
	jne	SHORT $LN12@GetSimpleE

; 456  :         brcnt++;

	inc	ebx
	jmp	SHORT $LN4@GetSimpleE
$LN12@GetSimpleE:

; 457  :       else if (tokenarray[j].token == T_CL_BRACKET) {

	cmp	al, 41					; 00000029H
	jne	SHORT $LN14@GetSimpleE

; 458  :         brcnt--;

	sub	ebx, 1

; 459  :         if (brcnt == 0) /* a standard Masm expression? */

	jne	SHORT $LN4@GetSimpleE
$LN18@GetSimpleE:

; 478  :     }
; 479  :   }
; 480  : 
; 481  :   /* get (first) operand */
; 482  :   op1_pos = *i;

	movsxd	r12, DWORD PTR [rdi]

; 483  :   if (ERROR == GetToken(hll, i, tokenarray, &op1))

	lea	r9, QWORD PTR op1$[rsp]
	mov	r8, rsi
	mov	rdx, rdi
	mov	rcx, r13
	call	GetToken
	cmp	eax, -1
	je	$LN119@GetSimpleE

; 484  :     return (ERROR);
; 485  :   op1_end = *i;

	movsxd	r15, DWORD PTR [rdi]

; 486  : 
; 487  :   op = GetCOp(&tokenarray[*i]); /* get operator */

	mov	rcx, r15
	shl	rcx, 5
	add	rcx, rsi
	call	GetCOp
	xor	r14d, r14d
	mov	ebx, eax
	lea	ecx, DWORD PTR [rax-7]
	cmp	ecx, 1
	jbe	$LN24@GetSimpleE

; 495  :   }
; 496  :   else if (op != COP_NONE)

	test	eax, eax
	je	$LN25@GetSimpleE

; 497  :     (*i)++;

	inc	DWORD PTR [rdi]
	jmp	$LN25@GetSimpleE
$LN14@GetSimpleE:

; 460  :           break;
; 461  :       }
; 462  :       else if ((GetCOp(&tokenarray[j])) != COP_NONE)

	movsxd	rcx, r15d
	shl	rcx, 5
	add	rcx, rsi
	call	GetCOp
	test	eax, eax
	jne	SHORT $LN100@GetSimpleE
$LN4@GetSimpleE:

; 452  :     int brcnt;
; 453  :     int j;
; 454  :     for (brcnt = 1, j = *i + 1; tokenarray[j].token != T_FINAL; j++) {

	inc	r14
	inc	r15d
	mov	rax, r14
	shl	rax, 5
	cmp	BYTE PTR [rax+rsi], 0
	lea	rcx, QWORD PTR [rax+rsi]
	jne	$LL6@GetSimpleE
$LN100@GetSimpleE:

; 463  :         break;
; 464  :     }
; 465  :     if (brcnt) {

	test	ebx, ebx
	je	$LN18@GetSimpleE
$LN108@GetSimpleE:

; 466  :       (*i)++;
; 467  :       DebugMsg1(("%u GetSimpleExpression: calling GetExpression, i=%u\n", evallvl, *i));
; 468  :       if (ERROR == GetExpression(hll, i, tokenarray, ilabel, is_true, buffer, hllop))

	mov	rax, QWORD PTR hllop$[rsp]
	mov	r9d, r12d
	inc	DWORD PTR [rdi]
	mov	r8, rsi
	mov	QWORD PTR [rsp+48], rax
	mov	rdx, rdi
	mov	rax, QWORD PTR buffer$[rsp]
	mov	rcx, r13
	mov	QWORD PTR [rsp+40], rax
	mov	BYTE PTR [rsp+32], bpl
	call	GetExpression
	cmp	eax, -1
	jne	SHORT $LN19@GetSimpleE
$LN119@GetSimpleE:

; 469  :         return(ERROR);

	or	rax, -1
	jmp	$LN1@GetSimpleE
$LN19@GetSimpleE:

; 470  : 
; 471  :       if (tokenarray[*i].token != T_CL_BRACKET) {

	movsxd	rcx, DWORD PTR [rdi]
	mov	rax, rcx
	shl	rax, 5
	cmp	BYTE PTR [rax+rsi], 41			; 00000029H
	jne	$LN28@GetSimpleE

; 472  :         //if (( tokenarray[*i].token == T_FINAL ) || ( tokenarray[*i].token == T_CL_BRACKET ))
; 473  :         DebugMsg(("GetSimpleExpression: expected ')', found: %s\n", tokenarray[*i].string_ptr));
; 474  :         return(EmitError(SYNTAX_ERROR_IN_CONTROL_FLOW_DIRECTIVE));
; 475  :       }
; 476  :       (*i)++;

	lea	eax, DWORD PTR [rcx+1]
	mov	DWORD PTR [rdi], eax

; 477  :       return(NOT_ERROR);

	xor	eax, eax
	jmp	$LN1@GetSimpleE
$LN24@GetSimpleE:

; 488  : 
; 489  :                                 /* lower precedence operator ( && or || ) detected? */
; 490  :   if (op == COP_AND || op == COP_OR) {
; 491  :     /* v2.11: next 2 lines removed - && and || operators need a valid first operand */
; 492  :     //if ( op1.kind == EXPR_EMPTY )
; 493  :     //    return( NOT_ERROR );
; 494  :     op = COP_NONE;

	mov	ebx, r14d
$LN25@GetSimpleE:

; 498  : 
; 499  :   label = GetLabel(hll, ilabel);

	movsxd	rax, DWORD PTR ilabel$[rsp]
	mov	r13d, DWORD PTR [r13+rax*4+32]

; 500  : 
; 501  :   DebugMsg1(("%u GetSimpleExpression: EvalOperand ok, kind=%X, i=%u [%s]\n", evallvl, op1.kind, *i, tokenarray[*i].tokpos));
; 502  : 
; 503  :   /* check for special operators with implicite operand:
; 504  :   * COP_ZERO, COP_CARRY, COP_SIGN, COP_PARITY, COP_OVERFLOW
; 505  :   */
; 506  :   if (op >= COP_ZERO) {

	cmp	ebx, 11
	jl	SHORT $LN26@GetSimpleE

; 507  :     if (op1.kind != EXPR_EMPTY) {

	cmp	DWORD PTR op1$[rsp+60], -2
	jne	$LN28@GetSimpleE

; 508  :       DebugMsg(("GetSimpleExpression: non-empty expression rejected: %s\n", tokenarray[op1_pos].tokpos));
; 509  :       return(EmitError(SYNTAX_ERROR_IN_CONTROL_FLOW_DIRECTIVE));
; 510  :     }
; 511  :     p = buffer;
; 512  :     hllop->lastjmp = p;

	mov	rax, QWORD PTR hllop$[rsp]

; 513  :     RenderJcc(p, flaginstr[op - COP_ZERO], !is_true, label);

	lea	rdx, OFFSET FLAT:__ImageBase
	mov	rcx, QWORD PTR buffer$[rsp]
	test	bpl, bpl
	mov	r9d, r13d
	sete	r14b
	mov	QWORD PTR [rax], rcx
	mov	r8d, r14d
	movsxd	rax, ebx
	movzx	edx, BYTE PTR flaginstr[rax+rdx-11]
	call	RenderJcc

; 514  :     return(NOT_ERROR);

	xor	eax, eax
	jmp	$LN1@GetSimpleE
$LN26@GetSimpleE:

; 515  :   }
; 516  : 
; 517  :   switch (op1.kind) {

	mov	ecx, DWORD PTR op1$[rsp+60]
	cmp	ecx, -2
	je	$LN28@GetSimpleE
	cmp	ecx, 3
	je	$LN29@GetSimpleE

; 524  :   }
; 525  : 
; 526  :   if (op == COP_NONE) {

	test	ebx, ebx
	jne	$LN30@GetSimpleE

; 527  :     switch (op1.kind) {

	test	ecx, ecx
	je	$LN34@GetSimpleE
	sub	ecx, 1
	je	SHORT $LN32@GetSimpleE
	cmp	ecx, 1
	jne	$LN37@GetSimpleE

; 528  :     case EXPR_REG:
; 529  :       if (op1.indirect == FALSE) {

	test	BYTE PTR op1$[rsp+72], cl
	jne	SHORT $LN32@GetSimpleE

; 530  :         p = RenderInstr(buffer, "test", op1_pos, op1_end, op1_pos, op1_end, tokenarray);

	mov	rcx, QWORD PTR buffer$[rsp]
	lea	rdx, OFFSET FLAT:$SG11198
	mov	QWORD PTR [rsp+48], rsi
	mov	r9d, r15d
	mov	DWORD PTR [rsp+40], r15d
	mov	r8d, r12d
	mov	DWORD PTR [rsp+32], r12d
	call	RenderInstr

; 531  :         hllop->lastjmp = p;

	mov	rcx, QWORD PTR hllop$[rsp]

; 532  :         RenderJcc(p, 'z', is_true, label);

	mov	r9d, r13d
	movzx	r8d, bpl
	mov	dl, 122					; 0000007aH
	mov	QWORD PTR [rcx], rax
	mov	rcx, rax
	call	RenderJcc

; 561  :       }
; 562  :       break;
; 563  : #ifdef DEBUG_OUT
; 564  :     default: /**/myassert(0); break;
; 565  : #endif
; 566  :     }
; 567  :     return(NOT_ERROR);

	xor	eax, eax
	jmp	$LN1@GetSimpleE
$LN32@GetSimpleE:

; 533  :         break;
; 534  :       }
; 535  :       /* no break */
; 536  :     case EXPR_ADDR:
; 537  :       p = RenderInstr(buffer, "cmp", op1_pos, op1_end, EMPTY, 0, tokenarray);

	lea	rdx, OFFSET FLAT:$SG11200
	or	rax, -1
$LL113@GetSimpleE:
	inc	rax
	cmp	BYTE PTR [rdx+rax], r14b
	jne	SHORT $LL113@GetSimpleE
	mov	rcx, QWORD PTR buffer$[rsp]
	movsxd	rdi, eax
	mov	r8, rdi
	call	memcpy
	add	rdi, QWORD PTR buffer$[rsp]
	mov	rax, r15
	shl	rax, 5
	mov	rdx, r12
	shl	rdx, 5
	mov	BYTE PTR [rdi], 32			; 00000020H
	inc	rdi
	mov	eax, DWORD PTR [rax+rsi+24]
	mov	rcx, rdi
	sub	eax, DWORD PTR [rdx+rsi+24]
	mov	rdx, QWORD PTR [rdx+rsi+24]
	movsxd	rbx, eax
	mov	r8, rbx
	call	memcpy
	add	rdi, rbx
	lea	rdx, OFFSET FLAT:$SG11094
	mov	rcx, rdi
	xor	r8d, r8d
	call	sprintf
	movsxd	rdx, eax

; 538  :       hllop->lastjmp = p;
; 539  :       RenderJcc(p, 'z', is_true, label);

	mov	r9d, r13d
	mov	rax, QWORD PTR hllop$[rsp]
	add	rdi, rdx
	movzx	r8d, bpl
	mov	dl, 122					; 0000007aH
	mov	BYTE PTR [rdi], 10
	inc	rdi
	mov	rcx, rdi
	mov	BYTE PTR [rdi], r14b
	mov	QWORD PTR [rax], rdi
	call	RenderJcc

; 561  :       }
; 562  :       break;
; 563  : #ifdef DEBUG_OUT
; 564  :     default: /**/myassert(0); break;
; 565  : #endif
; 566  :     }
; 567  :     return(NOT_ERROR);

	xor	eax, eax
	jmp	$LN1@GetSimpleE
$LN34@GetSimpleE:
	mov	eax, DWORD PTR op1$[rsp+4]
	inc	eax
	cmp	eax, 1
	jbe	SHORT $LN35@GetSimpleE

; 540  :       break;
; 541  :     case EXPR_CONST:
; 542  : #if 0
; 543  :       /* v2.05: string constant is allowed! */
; 544  :       if (op1.string != NULL) {
; 545  :         return(EmitError(SYNTAX_ERROR_IN_CONTROL_FLOW_DIRECTIVE));
; 546  :       }
; 547  : #endif
; 548  :       /* v2.11: error if constant doesn't fit in 32-bits */
; 549  :       if (op1.hvalue != 0 && op1.hvalue != -1)
; 550  :         return(EmitConstError(&op1));

	lea	rcx, QWORD PTR op1$[rsp]
	call	EmitConstError
	jmp	$LN1@GetSimpleE
$LN35@GetSimpleE:

; 551  : 
; 552  :       hllop->lastjmp = buffer;

	mov	rax, QWORD PTR hllop$[rsp]
	mov	rcx, QWORD PTR buffer$[rsp]
	mov	QWORD PTR [rax], rcx

; 553  : 
; 554  :       if ((is_true == TRUE && op1.value) ||

	cmp	bpl, 1
	jne	SHORT $LN39@GetSimpleE
	cmp	DWORD PTR op1$[rsp], r14d
	jne	SHORT $LN38@GetSimpleE
$LN36@GetSimpleE:

; 557  :       }
; 558  :       else {
; 559  :         //strcpy( buffer, " " EOLSTR ); /* v2.11: obsolete */
; 560  :         *buffer = NULLC;

	mov	BYTE PTR [rcx], r14b
$LN37@GetSimpleE:

; 561  :       }
; 562  :       break;
; 563  : #ifdef DEBUG_OUT
; 564  :     default: /**/myassert(0); break;
; 565  : #endif
; 566  :     }
; 567  :     return(NOT_ERROR);

	xor	eax, eax
	jmp	$LN1@GetSimpleE
$LN39@GetSimpleE:

; 553  : 
; 554  :       if ((is_true == TRUE && op1.value) ||

	test	bpl, bpl
	jne	SHORT $LN36@GetSimpleE
	cmp	DWORD PTR op1$[rsp], r14d
	jne	SHORT $LN36@GetSimpleE
$LN38@GetSimpleE:

; 555  :         (is_true == FALSE && op1.value == 0)) {
; 556  :         sprintf(buffer, "jmp " LABELFMT EOLSTR, label);

	mov	r8d, r13d
	lea	rdx, OFFSET FLAT:$SG11207
	call	sprintf

; 561  :       }
; 562  :       break;
; 563  : #ifdef DEBUG_OUT
; 564  :     default: /**/myassert(0); break;
; 565  : #endif
; 566  :     }
; 567  :     return(NOT_ERROR);

	xor	eax, eax
	jmp	$LN1@GetSimpleE
$LN30@GetSimpleE:

; 568  :   }
; 569  : 
; 570  :   /* get second operand for binary operator */
; 571  :   op2_pos = *i;

	mov	eax, DWORD PTR [rdi]

; 572  :   if (ERROR == GetToken(hll, i, tokenarray, &op2)) {

	lea	r9, QWORD PTR op2$[rsp]
	mov	rcx, QWORD PTR hll$[rsp]
	mov	r8, rsi
	mov	rdx, rdi
	mov	DWORD PTR op2_pos$1$[rsp], eax
	call	GetToken
	cmp	eax, -1
	je	$LN119@GetSimpleE

; 573  :     return(ERROR);
; 574  :   }
; 575  :   DebugMsg1(("%u GetSimpleExpression: EvalOperand 2 ok, type=%X, i=%u [%s]\n", evallvl, op2.type, *i, tokenarray[*i].tokpos));
; 576  :   if (op2.kind != EXPR_CONST && op2.kind != EXPR_ADDR && op2.kind != EXPR_REG) {
; 577  :     DebugMsg(("GetSimpleExpression: syntax error, op2.kind=%u\n", op2.kind));
; 578  :     return(EmitError(SYNTAX_ERROR_IN_CONTROL_FLOW_DIRECTIVE));

	mov	ecx, DWORD PTR op2$[rsp+60]
	cmp	ecx, 2
	ja	$LN28@GetSimpleE

; 579  :   }
; 580  :   op2_end = *i;

	mov	edx, DWORD PTR [rdi]

; 581  : 
; 582  :   /* now generate ASM code for expression */
; 583  : 
; 584  :   if (op == COP_ANDB) {

	cmp	ebx, 9
	jne	SHORT $LN42@GetSimpleE

; 585  :     p = RenderInstr(buffer, "test", op1_pos, op1_end, op2_pos, op2_end, tokenarray);

	mov	eax, DWORD PTR op2_pos$1$[rsp]
	mov	r9d, r15d
	mov	rcx, QWORD PTR buffer$[rsp]
	mov	r8d, r12d
	mov	QWORD PTR [rsp+48], rsi
	mov	DWORD PTR [rsp+40], edx
	lea	rdx, OFFSET FLAT:$SG11212
	mov	DWORD PTR [rsp+32], eax
	call	RenderInstr

; 586  :     hllop->lastjmp = p;

	mov	rcx, QWORD PTR hllop$[rsp]

; 587  :     RenderJcc(p, 'e', is_true, label);

	mov	dl, 101					; 00000065H
	movzx	r8d, bpl

; 606  :     RenderJcc(p, instr, neg_cjmptype[op - COP_EQ] ? is_true : !is_true, label);

	mov	r9d, r13d
	mov	QWORD PTR [rcx], rax
	mov	rcx, rax
	call	RenderJcc

; 607  :   }
; 608  :   else {
; 609  :     DebugMsg(("GetSimpleExpression: unexpected operator %s\n", tokenarray[op1_pos].tokpos));
; 610  :     return(EmitError(SYNTAX_ERROR_IN_CONTROL_FLOW_DIRECTIVE));
; 611  :   }
; 612  :   return(NOT_ERROR);

	xor	eax, eax
	jmp	$LN1@GetSimpleE
$LN42@GetSimpleE:

; 588  :   }
; 589  :   else if (op <= COP_LE) { /* ==, !=, >, <, >= or <= operator */

	cmp	ebx, 6
	jg	$LN28@GetSimpleE

; 590  :                            /*
; 591  :                            * optimisation: generate 'or EAX,EAX' instead of 'cmp EAX,0'.
; 592  :                            * v2.11: use op2.value64 instead of op2.value
; 593  :                            */
; 594  :     if (Options.masm_compat_gencode &&
; 595  :       (op == COP_EQ || op == COP_NE) &&
; 596  :       op1.kind == EXPR_REG && op1.indirect == FALSE &&
; 597  :       op2.kind == EXPR_CONST && op2.value64 == 0) {

	cmp	BYTE PTR Options+128, r14b
	je	SHORT $LN46@GetSimpleE
	lea	eax, DWORD PTR [rbx-1]
	cmp	eax, 1
	ja	SHORT $LN46@GetSimpleE
	cmp	DWORD PTR op1$[rsp+60], 2
	jne	SHORT $LN46@GetSimpleE
	test	BYTE PTR op1$[rsp+72], 1
	jne	SHORT $LN46@GetSimpleE
	test	ecx, ecx
	jne	SHORT $LN46@GetSimpleE
	cmp	QWORD PTR op2$[rsp], r14
	jne	SHORT $LN46@GetSimpleE

; 598  :       p = RenderInstr(buffer, "or", op1_pos, op1_end, op1_pos, op1_end, tokenarray);

	mov	QWORD PTR [rsp+48], rsi
	lea	rdx, OFFSET FLAT:$SG11218
	mov	DWORD PTR [rsp+40], r15d
	mov	DWORD PTR [rsp+32], r12d

; 599  :     }

	jmp	SHORT $LN116@GetSimpleE
$LN46@GetSimpleE:

; 600  :     else {
; 601  :       p = RenderInstr(buffer, "cmp", op1_pos, op1_end, op2_pos, op2_end, tokenarray);

	mov	eax, DWORD PTR op2_pos$1$[rsp]
	mov	QWORD PTR [rsp+48], rsi
	mov	DWORD PTR [rsp+40], edx
	lea	rdx, OFFSET FLAT:$SG11219
	mov	DWORD PTR [rsp+32], eax
$LN116@GetSimpleE:
	mov	rcx, QWORD PTR buffer$[rsp]
	mov	r9d, r15d
	mov	r8d, r12d
	call	RenderInstr
	mov	r10, rax

; 602  :     }
; 603  : 
; 604  :     instr = ((IS_SIGNED(op1.mem_type) || IS_SIGNED(op2.mem_type)) ? signed_cjmptype[op - COP_EQ] : unsigned_cjmptype[op - COP_EQ]);

	mov	eax, DWORD PTR op1$[rsp+64]
	and	al, -64					; ffffffffffffffc0H
	cmp	al, 64					; 00000040H
	je	SHORT $LN50@GetSimpleE
	mov	eax, DWORD PTR op2$[rsp+64]
	and	al, -64					; ffffffffffffffc0H
	cmp	al, 64					; 00000040H
	je	SHORT $LN50@GetSimpleE
	movsxd	rcx, ebx
	lea	rdx, OFFSET FLAT:__ImageBase
	movzx	r11d, BYTE PTR unsigned_cjmptype[rcx+rdx-1]
	jmp	SHORT $LN51@GetSimpleE
$LN50@GetSimpleE:
	movsxd	rcx, ebx
	lea	rdx, OFFSET FLAT:__ImageBase
	movzx	r11d, BYTE PTR signed_cjmptype[rcx+rdx-1]
$LN51@GetSimpleE:

; 605  :     hllop->lastjmp = p;

	mov	rax, QWORD PTR hllop$[rsp]
	mov	QWORD PTR [rax], r10

; 606  :     RenderJcc(p, instr, neg_cjmptype[op - COP_EQ] ? is_true : !is_true, label);

	cmp	BYTE PTR neg_cjmptype[rcx+rdx-1], r14b
	je	SHORT $LN52@GetSimpleE
	movzx	r14d, bpl
	jmp	SHORT $LN53@GetSimpleE
$LN52@GetSimpleE:
	test	bpl, bpl
	sete	r14b
$LN53@GetSimpleE:
	mov	r8d, r14d
	movzx	edx, r11b
	mov	rcx, r10
	mov	r9d, r13d
	call	RenderJcc

; 607  :   }
; 608  :   else {
; 609  :     DebugMsg(("GetSimpleExpression: unexpected operator %s\n", tokenarray[op1_pos].tokpos));
; 610  :     return(EmitError(SYNTAX_ERROR_IN_CONTROL_FLOW_DIRECTIVE));
; 611  :   }
; 612  :   return(NOT_ERROR);

	xor	eax, eax
	jmp	SHORT $LN1@GetSimpleE
$LN29@GetSimpleE:

; 521  :   case EXPR_FLOAT:
; 522  :     DebugMsg(("GetSimpleExpression: float expression rejected: %s\n", tokenarray[op1_pos].tokpos));
; 523  :     return(EmitError(REAL_OR_BCD_NUMBER_NOT_ALLOWED)); /* v2.10: added */

	mov	ecx, 270				; 0000010eH
	jmp	SHORT $LN118@GetSimpleE
$LN28@GetSimpleE:

; 518  :   case EXPR_EMPTY:
; 519  :     DebugMsg(("GetSimpleExpression: empty expression rejected\n"));
; 520  :     return(EmitError(SYNTAX_ERROR_IN_CONTROL_FLOW_DIRECTIVE)); /* v2.09: changed from NOT_ERROR to ERROR */

	mov	ecx, 199				; 000000c7H
$LN118@GetSimpleE:
	call	EmitError
$LN1@GetSimpleE:
	mov	r14, QWORD PTR [rsp+368]

; 613  : }

	add	rsp, 288				; 00000120H
	pop	r15
	pop	r13
	pop	r12
	pop	rdi
	pop	rsi
	pop	rbp
	pop	rbx
	ret	0
GetSimpleExpression ENDP
_TEXT	ENDS
; Function compile flags: /Ogtpy
; File d:\hjwasm\hjwasm2.13.1s\hjwasm2.13.1s\hll.c
;	COMDAT GetLabel
_TEXT	SEGMENT
hll$ = 8
index$ = 16
GetLabel PROC						; COMDAT

; 415  :   /**/myassert(hll->labels[index]);
; 416  :   return(hll->labels[index]);

	movsxd	rax, edx
	mov	eax, DWORD PTR [rcx+rax*4+32]

; 417  : }

	ret	0
GetLabel ENDP
_TEXT	ENDS
; Function compile flags: /Ogtpy
; File d:\hjwasm\hjwasm2.13.1s\hjwasm2.13.1s\hll.c
;	COMDAT GetToken
_TEXT	SEGMENT
hll$ = 80
i$ = 88
tokenarray$ = 96
opnd$ = 104
GetToken PROC						; COMDAT

; 384  : {

	mov	QWORD PTR [rsp+32], rbp
	push	rdi
	push	r14
	push	r15
	sub	rsp, 48					; 00000030H

; 385  :   int end_tok;
; 386  : 
; 387  :   /* scan for the next C operator in the token array.
; 388  :   * because the ASM evaluator may report an error if such a thing
; 389  :   * is found ( CARRY?, ZERO? and alikes will be regarded as - not yet defined - labels )
; 390  :   */
; 391  :   for (end_tok = *i; end_tok < Token_Count; end_tok++) {

	movsxd	rdi, DWORD PTR [rdx]
	mov	rbp, r9
	cmp	edi, DWORD PTR ModuleInfo+496
	mov	r15, r8
	mov	r14, rdx
	jge	$LN81@GetToken
	mov	QWORD PTR [rsp+80], rbx
	mov	QWORD PTR [rsp+88], rsi
	mov	rsi, rdi
	shl	rsi, 5
	mov	QWORD PTR [rsp+96], r12
	add	rsi, r8
	mov	r12, 5764607806502076416		; 5000004200000000H
	npad	7
$LL4@GetToken:

; 392  :     if ((GetCOp(&tokenarray[end_tok])) != COP_NONE)

	movzx	ecx, BYTE PTR [rsi]
	mov	rbx, QWORD PTR [rsi+8]
	cmp	cl, 9
	jne	SHORT $LN24@GetToken
	mov	eax, DWORD PTR [rsi+16]
	cmp	eax, 2
	jne	SHORT $LN15@GetToken
	movzx	ecx, WORD PTR [rbx]
	cmp	ecx, 15677				; 00003d3dH
	jg	SHORT $LN56@GetToken
	je	$LN84@GetToken
	sub	ecx, 9766				; 00002626H
	je	$LN84@GetToken
	sub	ecx, 5883				; 000016fbH
	je	$LN84@GetToken
	sub	ecx, 27
	jmp	$LN85@GetToken
$LN56@GetToken:
	cmp	ecx, 15678				; 00003d3eH
	je	$LN84@GetToken
	cmp	ecx, 31868				; 00007c7cH
	jmp	$LN85@GetToken
$LN15@GetToken:
	cmp	eax, 1
	jne	SHORT $LN24@GetToken
	movzx	eax, BYTE PTR [rbx]
	cmp	al, 62					; 0000003eH
	ja	$LN51@GetToken
	bt	r12, rax
	jb	$LN84@GetToken
	jmp	$LN51@GetToken
$LN24@GetToken:
	cmp	cl, 8
	jne	$LN51@GetToken
	or	rcx, -1
	npad	8
$LL80@GetToken:
	inc	rcx
	cmp	BYTE PTR [rbx+rcx], 0
	jne	SHORT $LL80@GetToken
	movsxd	rax, ecx
	cmp	BYTE PTR [rax+rbx-1], 63		; 0000003fH
	jne	$LN51@GetToken
	cmp	ecx, 5
	jne	SHORT $LN33@GetToken
	lea	r8d, QWORD PTR [rcx-1]
	mov	rcx, rbx
	lea	rdx, OFFSET FLAT:$SG11004
	call	_memicmp
	test	eax, eax
	je	$LN84@GetToken
	mov	r8d, 4
	lea	rdx, OFFSET FLAT:$SG11010
	mov	rcx, rbx
	call	_memicmp
	test	eax, eax
	je	$LN84@GetToken
	mov	r8d, 4
	lea	rdx, OFFSET FLAT:$SG11019
	jmp	$LN86@GetToken
$LN33@GetToken:
	cmp	ecx, 6
	jne	SHORT $LN37@GetToken
	lea	r8d, QWORD PTR [rcx-1]
	mov	rcx, rbx
	lea	rdx, OFFSET FLAT:$SG11007
	call	_memicmp
	test	eax, eax
	je	$LN84@GetToken
	mov	r8d, 5
	lea	rdx, OFFSET FLAT:$SG11025
	mov	rcx, rbx
	call	_memicmp
	test	eax, eax
	je	SHORT $LN84@GetToken
	mov	r8d, 5
	lea	rdx, OFFSET FLAT:$SG11028
	mov	rcx, rbx
	call	_memicmp
	test	eax, eax
	je	SHORT $LN84@GetToken
	mov	r8d, 5
	lea	rdx, OFFSET FLAT:$SG11031
	jmp	SHORT $LN86@GetToken
$LN37@GetToken:
	cmp	ecx, 7
	jne	SHORT $LN39@GetToken
	lea	r8d, QWORD PTR [rcx-1]
	lea	rdx, OFFSET FLAT:$SG11013
	jmp	SHORT $LN86@GetToken
$LN39@GetToken:
	cmp	ecx, 9
	jne	SHORT $LN43@GetToken
	lea	r8d, QWORD PTR [rcx-1]
	lea	rdx, OFFSET FLAT:$SG11016
	jmp	SHORT $LN86@GetToken
$LN43@GetToken:
	cmp	ecx, 8
	jne	SHORT $LN51@GetToken
	lea	r8d, QWORD PTR [rcx-1]
	lea	rdx, OFFSET FLAT:$SG11022
$LN86@GetToken:
	mov	rcx, rbx
	call	_memicmp
	test	eax, eax
$LN85@GetToken:
	je	SHORT $LN84@GetToken
$LN51@GetToken:

; 385  :   int end_tok;
; 386  : 
; 387  :   /* scan for the next C operator in the token array.
; 388  :   * because the ASM evaluator may report an error if such a thing
; 389  :   * is found ( CARRY?, ZERO? and alikes will be regarded as - not yet defined - labels )
; 390  :   */
; 391  :   for (end_tok = *i; end_tok < Token_Count; end_tok++) {

	inc	edi
	add	rsi, 32					; 00000020H
	cmp	edi, DWORD PTR ModuleInfo+496
	jl	$LL4@GetToken
$LN84@GetToken:
	mov	rsi, QWORD PTR [rsp+88]
	mov	rbx, QWORD PTR [rsp+80]
	mov	r12, QWORD PTR [rsp+96]
$LN81@GetToken:

; 393  :       break;
; 394  :   }
; 395  :   if (end_tok == *i) {

	cmp	edi, DWORD PTR [r14]
	jne	SHORT $LN6@GetToken

; 396  :     opnd->kind = EXPR_EMPTY;

	mov	DWORD PTR [rbp+60], -2
$LN8@GetToken:

; 407  :   }
; 408  : 
; 409  :   return(NOT_ERROR);

	xor	eax, eax

; 410  : }

	mov	rbp, QWORD PTR [rsp+104]
	add	rsp, 48					; 00000030H
	pop	r15
	pop	r14
	pop	rdi
	ret	0
$LN6@GetToken:

; 397  :     return(NOT_ERROR);
; 398  :   }
; 399  :   if (ERROR == EvalOperand(i, tokenarray, end_tok, opnd, 0))

	mov	r9, rbp
	mov	BYTE PTR [rsp+32], 0
	mov	r8d, edi
	mov	rdx, r15
	mov	rcx, r14
	call	EvalOperand
	cmp	eax, -1
	jne	SHORT $LN7@GetToken

; 400  :     return(ERROR);

	or	eax, eax

; 410  : }

	mov	rbp, QWORD PTR [rsp+104]
	add	rsp, 48					; 00000030H
	pop	r15
	pop	r14
	pop	rdi
	ret	0
$LN7@GetToken:

; 401  : 
; 402  :   /* v2.11: emit error 'syntax error in control flow directive'.
; 403  :   * May happen for expressions like ".if 1 + CARRY?"
; 404  :   */
; 405  :   if (*i > end_tok) {

	cmp	DWORD PTR [r14], edi
	jle	SHORT $LN8@GetToken

; 406  :     return(EmitError(SYNTAX_ERROR_IN_CONTROL_FLOW_DIRECTIVE));

	mov	ecx, 199				; 000000c7H

; 410  : }

	mov	rbp, QWORD PTR [rsp+104]
	add	rsp, 48					; 00000030H
	pop	r15
	pop	r14
	pop	rdi

; 406  :     return(EmitError(SYNTAX_ERROR_IN_CONTROL_FLOW_DIRECTIVE));

	jmp	EmitError
GetToken ENDP
_TEXT	ENDS
; Function compile flags: /Ogtpy
; File d:\hjwasm\hjwasm2.13.1s\hjwasm2.13.1s\hll.c
;	COMDAT RenderJcc
_TEXT	SEGMENT
dst$ = 48
cc$ = 56
neg$ = 64
label$ = 72
RenderJcc PROC						; COMDAT

; 359  : {

	push	rbx
	sub	rsp, 32					; 00000020H

; 360  : #ifdef DEBUG_OUT
; 361  :   char *old = dst;
; 362  : #endif
; 363  :   /* create the jump opcode: j[n]cc */
; 364  :   *dst++ = 'j';

	mov	BYTE PTR [rcx], 106			; 0000006aH
	lea	rbx, QWORD PTR [rcx+1]

; 365  :   if (neg)

	test	r8d, r8d
	je	SHORT $LN2@RenderJcc

; 366  :     *dst++ = 'n';

	mov	BYTE PTR [rbx], 110			; 0000006eH
	inc	rbx
$LN2@RenderJcc:

; 367  :   *dst++ = cc;

	mov	BYTE PTR [rbx], dl
	inc	rbx

; 368  :   if (neg == FALSE)

	test	r8d, r8d
	jne	SHORT $LN3@RenderJcc

; 369  :     *dst++ = ' '; /* make sure there's room for the inverse jmp */

	mov	BYTE PTR [rbx], 32			; 00000020H
	inc	rbx
$LN3@RenderJcc:

; 370  : 
; 371  :   *dst++ = ' ';
; 372  :   GetLabelStr(label, dst);

	mov	r8d, r9d
	mov	BYTE PTR [rbx], 32			; 00000020H
	lea	rdx, OFFSET FLAT:$SG11101
	lea	rcx, QWORD PTR [rbx+1]
	call	sprintf

; 373  :   dst += strlen(dst);

	or	rax, -1
$LL7@RenderJcc:
	inc	rax
	cmp	BYTE PTR [rbx+rax+1], 0
	jne	SHORT $LL7@RenderJcc

; 374  :   *dst++ = EOLCHAR;

	mov	WORD PTR [rbx+rax+1], 10

; 375  :   *dst = NULLC;
; 376  :   DebugMsg1(("%u RenderJcc()=>%s<\n", evallvl, old));
; 377  :   return(dst);

	add	rbx, 2
	add	rax, rbx

; 378  : }

	add	rsp, 32					; 00000020H
	pop	rbx
	ret	0
RenderJcc ENDP
_TEXT	ENDS
; Function compile flags: /Ogtpy
; File d:\hjwasm\hjwasm2.13.1s\hjwasm2.13.1s\hll.c
;	COMDAT GetLabelStr
_TEXT	SEGMENT
label$ = 48
buff$ = 56
GetLabelStr PROC					; COMDAT

; 350  : {

	push	rbx
	sub	rsp, 32					; 00000020H
	mov	rbx, rdx

; 351  :   sprintf(buff, LABELFMT, label);

	mov	r8d, ecx
	mov	rcx, rbx
	lea	rdx, OFFSET FLAT:$SG11101
	call	sprintf

; 352  :   return(buff);

	mov	rax, rbx

; 353  : }

	add	rsp, 32					; 00000020H
	pop	rbx
	ret	0
GetLabelStr ENDP
_TEXT	ENDS
; Function compile flags: /Ogtpy
; File d:\hjwasm\hjwasm2.13.1s\hjwasm2.13.1s\hll.c
;	COMDAT RenderInstr
_TEXT	SEGMENT
dst$ = 48
instr$ = 56
start1$ = 64
end1$ = 72
start2$ = 80
end2$ = 88
tokenarray$ = 96
RenderInstr PROC					; COMDAT

; 317  : {

	mov	QWORD PTR [rsp+8], rbx
	mov	QWORD PTR [rsp+16], rbp
	mov	QWORD PTR [rsp+24], rsi
	push	rdi
	sub	rsp, 32					; 00000020H
	movsxd	rbp, r9d
	mov	rbx, rcx
	movsxd	rsi, r8d

; 318  :   int i;
; 319  : #ifdef DEBUG_OUT
; 320  :   char *old = dst;
; 321  : #endif
; 322  :   i = strlen(instr);

	or	rax, -1
$LL6@RenderInst:
	inc	rax
	cmp	BYTE PTR [rdx+rax], 0
	jne	SHORT $LL6@RenderInst

; 323  :   /* copy the instruction */
; 324  :   memcpy(dst, instr, i);

	movsxd	rdi, eax
	mov	r8, rdi
	call	memcpy

; 325  :   dst += i;

	add	rbx, rdi

; 326  :   /* copy the first operand's tokens */
; 327  :   *dst++ = ' ';
; 328  :   i = tokenarray[end1].tokpos - tokenarray[start1].tokpos;

	mov	rdx, rsi
	mov	rsi, QWORD PTR tokenarray$[rsp]
	mov	rax, rbp
	shl	rdx, 5
	shl	rax, 5
	mov	BYTE PTR [rbx], 32			; 00000020H
	inc	rbx
	mov	ecx, DWORD PTR [rax+rsi+24]
	sub	ecx, DWORD PTR [rdx+rsi+24]

; 329  :   memcpy(dst, tokenarray[start1].tokpos, i);

	mov	rdx, QWORD PTR [rdx+rsi+24]
	movsxd	rdi, ecx
	mov	rcx, rbx
	mov	r8, rdi
	call	memcpy

; 330  :   dst += i;
; 331  :   if (start2 != EMPTY) {

	movsxd	rax, DWORD PTR start2$[rsp]
	add	rbx, rdi
	cmp	eax, -2
	je	SHORT $LN2@RenderInst

; 332  :     *dst++ = ',';

	mov	WORD PTR [rbx], 8236			; 0000202cH

; 333  :     /* copy the second operand's tokens */
; 334  :     *dst++ = ' ';
; 335  :     i = tokenarray[end2].tokpos - tokenarray[start2].tokpos;

	mov	rdx, rax
	movsxd	rax, DWORD PTR end2$[rsp]
	add	rbx, 2
	shl	rdx, 5
	shl	rax, 5
	mov	ecx, DWORD PTR [rax+rsi+24]
	sub	ecx, DWORD PTR [rdx+rsi+24]

; 336  :     memcpy(dst, tokenarray[start2].tokpos, i);

	mov	rdx, QWORD PTR [rdx+rsi+24]
	movsxd	rdi, ecx
	mov	rcx, rbx
	mov	r8, rdi
	call	memcpy

; 337  :     dst += i;

	add	rbx, rdi

; 338  :   }

	jmp	SHORT $LN4@RenderInst
$LN2@RenderInst:

; 339  :   else if (end2 != EMPTY) {

	mov	r8d, DWORD PTR end2$[rsp]
	cmp	r8d, -2
	je	SHORT $LN4@RenderInst

; 340  :     dst += sprintf(dst, ", %d", end2);

	lea	rdx, OFFSET FLAT:$SG11094
	mov	rcx, rbx
	call	sprintf
	movsxd	rcx, eax
	add	rbx, rcx
$LN4@RenderInst:

; 341  :   }
; 342  :   *dst++ = EOLCHAR;
; 343  :   *dst = NULLC;
; 344  :   DebugMsg1(("%u RenderInstr(%s)=>%s<\n", evallvl, instr, old));
; 345  :   return(dst);
; 346  : }

	mov	rbp, QWORD PTR [rsp+56]
	lea	rax, QWORD PTR [rbx+1]
	mov	rsi, QWORD PTR [rsp+64]
	mov	WORD PTR [rbx], 10
	mov	rbx, QWORD PTR [rsp+48]
	add	rsp, 32					; 00000020H
	pop	rdi
	ret	0
RenderInstr ENDP
_TEXT	ENDS
; Function compile flags: /Ogtpy
; File d:\hjwasm\hjwasm2.13.1s\hjwasm2.13.1s\hll.c
;	COMDAT bubblesort64
_TEXT	SEGMENT
hll$ = 16
lbl$ = 24
src$ = 32
n$ = 40
bubblesort64 PROC					; COMDAT

; 287  : static void bubblesort64(struct hll_item *hll, uint_16 *lbl, int_64 *src, int n) {

	mov	QWORD PTR [rsp+24], rbp
	mov	QWORD PTR [rsp+32], rdi
	push	r14
	movsxd	rdi, r9d
	mov	r14, r8
	mov	r11, rdx
	mov	rbp, rcx

; 288  :   /*******************************************************************************************************************************/
; 289  :   int i;
; 290  :   int j;
; 291  :   int_64 temp1;
; 292  :   uint_16 temp2;
; 293  :   for (i = 0; i < n; ++i)

	test	r9d, r9d
	jle	SHORT $LN3@bubblesort
	mov	QWORD PTR [rsp+16], rbx
	mov	r10, r8
	mov	QWORD PTR [rsp+24], rsi
	mov	ebx, 1
	mov	esi, edi
$LL4@bubblesort:

; 294  :   {
; 295  :     for (j = i + 1; j < n; ++j)

	cmp	ebx, edi
	jge	SHORT $LN2@bubblesort
	mov	r9d, edi
	lea	r8, QWORD PTR [r11+2]
	sub	r9d, ebx
	lea	rax, QWORD PTR [r10+8]
$LL7@bubblesort:

; 296  :     {
; 297  :       if (src[i] > src[j])

	mov	rcx, QWORD PTR [r10]
	mov	rdx, QWORD PTR [rax]
	cmp	rcx, rdx
	jle	SHORT $LN5@bubblesort

; 298  :       {
; 299  :         temp1 = src[i];
; 300  :         src[i] = src[j];

	mov	QWORD PTR [r10], rdx

; 301  :         src[j] = temp1;

	mov	QWORD PTR [rax], rcx

; 302  :         temp2 = lbl[i];
; 303  :         lbl[i] = lbl[j];

	movzx	ecx, WORD PTR [r8]
	movzx	edx, WORD PTR [r11]
	mov	WORD PTR [r11], cx

; 304  :         lbl[j] = temp2;

	mov	WORD PTR [r8], dx
$LN5@bubblesort:

; 294  :   {
; 295  :     for (j = i + 1; j < n; ++j)

	add	rax, 8
	add	r8, 2
	sub	r9, 1
	jne	SHORT $LL7@bubblesort
$LN2@bubblesort:

; 288  :   /*******************************************************************************************************************************/
; 289  :   int i;
; 290  :   int j;
; 291  :   int_64 temp1;
; 292  :   uint_16 temp2;
; 293  :   for (i = 0; i < n; ++i)

	inc	ebx
	add	r10, 8
	add	r11, 2
	sub	rsi, 1
	jne	SHORT $LL4@bubblesort
	mov	rsi, QWORD PTR [rsp+24]
	mov	rbx, QWORD PTR [rsp+16]
$LN3@bubblesort:

; 305  :       }
; 306  :     }
; 307  :   }
; 308  : 
; 309  :   hll->mincase64 = src[0];

	mov	rdx, QWORD PTR [r14]
	mov	QWORD PTR [rbp+136], rdx

; 310  :   hll->maxcase64 = src[n - 1];

	mov	rcx, QWORD PTR [r14+rdi*8-8]

; 311  :   hll->delta64 = hll->maxcase64 - hll->mincase64;
; 312  : }

	mov	rdi, QWORD PTR [rsp+40]
	mov	QWORD PTR [rbp+128], rcx
	sub	rcx, rdx
	mov	QWORD PTR [rbp+144], rcx
	mov	rbp, QWORD PTR [rsp+32]
	pop	r14
	ret	0
bubblesort64 ENDP
_TEXT	ENDS
; Function compile flags: /Ogtpy
; File d:\hjwasm\hjwasm2.13.1s\hjwasm2.13.1s\hll.c
;	COMDAT bubblesort
_TEXT	SEGMENT
hll$ = 16
lbl$ = 24
src$ = 32
n$ = 40
bubblesort PROC						; COMDAT

; 259  : static void bubblesort(struct hll_item *hll, uint_16 *lbl, int *src, int n) {

	mov	QWORD PTR [rsp+24], rbp
	mov	QWORD PTR [rsp+32], rdi
	push	r14
	movsxd	rdi, r9d
	mov	r14, r8
	mov	r11, rdx
	mov	rbp, rcx

; 260  :   /*******************************************************************************************************************************/
; 261  :   int i;
; 262  :   int j;
; 263  :   int temp1;
; 264  :   uint_16 temp2;
; 265  : 
; 266  :   for (i = 0; i < n; ++i)

	test	r9d, r9d
	jle	SHORT $LN3@bubblesort
	mov	QWORD PTR [rsp+16], rbx
	mov	r10, r8
	mov	QWORD PTR [rsp+24], rsi
	mov	ebx, 1
	mov	esi, edi
$LL4@bubblesort:

; 267  :   {
; 268  :     for (j = i + 1; j < n; ++j)

	cmp	ebx, edi
	jge	SHORT $LN2@bubblesort
	mov	r9d, edi
	lea	r8, QWORD PTR [r11+2]
	sub	r9d, ebx
	lea	rax, QWORD PTR [r10+4]
$LL7@bubblesort:

; 269  :     {
; 270  :       if (src[i] > src[j])

	mov	ecx, DWORD PTR [r10]
	mov	edx, DWORD PTR [rax]
	cmp	ecx, edx
	jle	SHORT $LN5@bubblesort

; 271  :       {
; 272  :         temp1 = src[i];
; 273  :         src[i] = src[j];

	mov	DWORD PTR [r10], edx

; 274  :         src[j] = temp1;

	mov	DWORD PTR [rax], ecx

; 275  :         temp2 = lbl[i];
; 276  :         lbl[i] = lbl[j];

	movzx	ecx, WORD PTR [r8]
	movzx	edx, WORD PTR [r11]
	mov	WORD PTR [r11], cx

; 277  :         lbl[j] = temp2;

	mov	WORD PTR [r8], dx
$LN5@bubblesort:

; 267  :   {
; 268  :     for (j = i + 1; j < n; ++j)

	add	rax, 4
	add	r8, 2
	sub	r9, 1
	jne	SHORT $LL7@bubblesort
$LN2@bubblesort:

; 260  :   /*******************************************************************************************************************************/
; 261  :   int i;
; 262  :   int j;
; 263  :   int temp1;
; 264  :   uint_16 temp2;
; 265  : 
; 266  :   for (i = 0; i < n; ++i)

	inc	ebx
	add	r10, 4
	add	r11, 2
	sub	rsi, 1
	jne	SHORT $LL4@bubblesort
	mov	rsi, QWORD PTR [rsp+24]
	mov	rbx, QWORD PTR [rsp+16]
$LN3@bubblesort:

; 278  :       }
; 279  :     }
; 280  :   }
; 281  : 
; 282  :   hll->mincase = src[0];

	mov	edx, DWORD PTR [r14]
	mov	DWORD PTR [rbp+112], edx

; 283  :   hll->maxcase = src[n - 1];

	mov	ecx, DWORD PTR [r14+rdi*4-4]

; 284  :   hll->delta = hll->maxcase - hll->mincase;
; 285  : }

	mov	rdi, QWORD PTR [rsp+40]
	mov	DWORD PTR [rbp+108], ecx
	sub	ecx, edx
	mov	DWORD PTR [rbp+116], ecx
	mov	rbp, QWORD PTR [rsp+32]
	pop	r14
	ret	0
bubblesort ENDP
_TEXT	ENDS
; Function compile flags: /Ogtpy
; File d:\hjwasm\hjwasm2.13.1s\hjwasm2.13.1s\hll.c
;	COMDAT GetCOp
_TEXT	SEGMENT
item$ = 48
GetCOp	PROC						; COMDAT

; 199  : {

	push	rbx
	sub	rsp, 32					; 00000020H

; 200  :   int size;
; 201  :   enum c_bop rc;
; 202  :   char *p = item->string_ptr;
; 203  : 
; 204  :   size = (item->token == T_STRING ? item->stringlen : 0);

	movzx	eax, BYTE PTR [rcx]
	mov	rbx, QWORD PTR [rcx+8]
	cmp	al, 9
	jne	$LN15@GetCOp
	mov	edx, DWORD PTR [rcx+16]

; 205  : 
; 206  :   if (size == 2) {

	cmp	edx, 2
	jne	SHORT $LN6@GetCOp

; 207  :     switch (*(uint_16 *)p) {

	movzx	ecx, WORD PTR [rbx]
	cmp	ecx, 15677				; 00003d3dH
	jg	SHORT $LN47@GetCOp
	je	SHORT $LN8@GetCOp
	sub	ecx, 9766				; 00002626H
	je	SHORT $LN12@GetCOp
	sub	ecx, 5883				; 000016fbH
	je	SHORT $LN9@GetCOp
	cmp	ecx, 27
	jne	$LN42@GetCOp

; 211  :     case CHARS_LE:  rc = COP_LE;  break;

	lea	eax, QWORD PTR [rdx+4]

; 256  :   }
; 257  :   return(rc);
; 258  : }

	add	rsp, 32					; 00000020H
	pop	rbx
	ret	0
$LN9@GetCOp:

; 209  :     case CHARS_NE:  rc = COP_NE;  break;

	mov	eax, 2

; 256  :   }
; 257  :   return(rc);
; 258  : }

	add	rsp, 32					; 00000020H
	pop	rbx
	ret	0
$LN12@GetCOp:

; 212  :     case CHARS_AND: rc = COP_AND; break;

	mov	eax, 7

; 256  :   }
; 257  :   return(rc);
; 258  : }

	add	rsp, 32					; 00000020H
	pop	rbx
	ret	0
$LN8@GetCOp:

; 208  :     case CHARS_EQ:  rc = COP_EQ;  break;

	mov	eax, 1

; 256  :   }
; 257  :   return(rc);
; 258  : }

	add	rsp, 32					; 00000020H
	pop	rbx
	ret	0
$LN47@GetCOp:

; 207  :     switch (*(uint_16 *)p) {

	cmp	ecx, 15678				; 00003d3eH
	je	SHORT $LN10@GetCOp
	cmp	ecx, 31868				; 00007c7cH
	jne	$LN42@GetCOp

; 213  :     case CHARS_OR:  rc = COP_OR;  break;

	mov	eax, 8

; 256  :   }
; 257  :   return(rc);
; 258  : }

	add	rsp, 32					; 00000020H
	pop	rbx
	ret	0
$LN10@GetCOp:

; 210  :     case CHARS_GE:  rc = COP_GE;  break;

	mov	eax, 5

; 256  :   }
; 257  :   return(rc);
; 258  : }

	add	rsp, 32					; 00000020H
	pop	rbx
	ret	0
$LN6@GetCOp:

; 214  :     default: return(COP_NONE);
; 215  :     }
; 216  :   }
; 217  :   else if (size == 1) {

	cmp	edx, 1
	jne	SHORT $LN15@GetCOp

; 218  :     switch (*p) {

	movzx	eax, BYTE PTR [rbx]
	cmp	al, 33					; 00000021H
	je	SHORT $LN20@GetCOp
	cmp	al, 38					; 00000026H
	je	SHORT $LN19@GetCOp
	cmp	al, 60					; 0000003cH
	je	SHORT $LN18@GetCOp
	cmp	al, 62					; 0000003eH
	jne	$LN42@GetCOp

; 219  :     case '>': rc = COP_GT;   break;

	lea	eax, QWORD PTR [rdx+2]

; 256  :   }
; 257  :   return(rc);
; 258  : }

	add	rsp, 32					; 00000020H
	pop	rbx
	ret	0
$LN18@GetCOp:

; 220  :     case '<': rc = COP_LT;   break;

	mov	eax, 4

; 256  :   }
; 257  :   return(rc);
; 258  : }

	add	rsp, 32					; 00000020H
	pop	rbx
	ret	0
$LN19@GetCOp:

; 221  :     case '&': rc = COP_ANDB; break;

	mov	eax, 9

; 256  :   }
; 257  :   return(rc);
; 258  : }

	add	rsp, 32					; 00000020H
	pop	rbx
	ret	0
$LN20@GetCOp:

; 222  :     case '!': rc = COP_NEG;  break;

	mov	eax, 10

; 256  :   }
; 257  :   return(rc);
; 258  : }

	add	rsp, 32					; 00000020H
	pop	rbx
	ret	0
$LN15@GetCOp:

; 223  :     default: return(COP_NONE);
; 224  :     }
; 225  :   }
; 226  :   else {
; 227  :     if (item->token != T_ID)

	cmp	al, 8
	jne	$LN42@GetCOp

; 228  :       return(COP_NONE);
; 229  :     /* a valid "flag" string must end with a question mark */
; 230  :     size = strlen(p);

	or	rcx, -1
	npad	7
$LL53@GetCOp:
	inc	rcx
	cmp	BYTE PTR [rbx+rcx], 0
	jne	SHORT $LL53@GetCOp

; 231  :     if (*(p + size - 1) != '?')

	movsxd	rax, ecx
	cmp	BYTE PTR [rax+rbx-1], 63		; 0000003fH
	jne	$LN42@GetCOp

; 232  :       return(COP_NONE);
; 233  :     if (size == 5 && (0 == _memicmp(p, "ZERO", 4)))

	cmp	ecx, 5
	jne	SHORT $LN24@GetCOp
	lea	r8d, QWORD PTR [rcx-1]
	mov	rcx, rbx
	lea	rdx, OFFSET FLAT:$SG11004
	call	_memicmp
	test	eax, eax
	jne	SHORT $LN48@GetCOp

; 234  :       rc = COP_ZERO;

	mov	eax, 11

; 256  :   }
; 257  :   return(rc);
; 258  : }

	add	rsp, 32					; 00000020H
	pop	rbx
	ret	0
$LN48@GetCOp:

; 237  :     else if (size == 5 && (0 == _memicmp(p, "SIGN", 4)))

	mov	r8d, 4
	lea	rdx, OFFSET FLAT:$SG11010
	mov	rcx, rbx
	call	_memicmp
	test	eax, eax
	jne	SHORT $LN50@GetCOp

; 238  :       rc = COP_SIGN;

	mov	eax, 13

; 256  :   }
; 257  :   return(rc);
; 258  : }

	add	rsp, 32					; 00000020H
	pop	rbx
	ret	0
$LN50@GetCOp:

; 243  :     //added by habran
; 244  :     else if (size == 5 && (0 == _memicmp(p, "LESS", 4)))

	mov	r8d, 4
	lea	rdx, OFFSET FLAT:$SG11019
	mov	rcx, rbx
	call	_memicmp
	test	eax, eax
	jne	$LN42@GetCOp

; 245  :       rc = COP_LESS;

	mov	eax, 16

; 256  :   }
; 257  :   return(rc);
; 258  : }

	add	rsp, 32					; 00000020H
	pop	rbx
	ret	0
$LN24@GetCOp:

; 235  :     else if (size == 6 && (0 == _memicmp(p, "CARRY", 5)))

	cmp	ecx, 6
	jne	$LN28@GetCOp
	lea	r8d, QWORD PTR [rcx-1]
	mov	rcx, rbx
	lea	rdx, OFFSET FLAT:$SG11007
	call	_memicmp
	test	eax, eax
	jne	SHORT $LN49@GetCOp

; 236  :       rc = COP_CARRY;

	mov	eax, 12

; 256  :   }
; 257  :   return(rc);
; 258  : }

	add	rsp, 32					; 00000020H
	pop	rbx
	ret	0
$LN49@GetCOp:

; 248  :     else if (size == 6 && (0 == _memicmp(p, "ABOVE", 5)))

	mov	r8d, 5
	lea	rdx, OFFSET FLAT:$SG11025
	mov	rcx, rbx
	call	_memicmp
	test	eax, eax
	jne	SHORT $LN51@GetCOp

; 249  :       rc = COP_ABOVE;

	mov	eax, 18

; 256  :   }
; 257  :   return(rc);
; 258  : }

	add	rsp, 32					; 00000020H
	pop	rbx
	ret	0
$LN51@GetCOp:

; 250  :     else if (size == 6 && (0 == _memicmp(p, "EQUAL", 5)))

	mov	r8d, 5
	lea	rdx, OFFSET FLAT:$SG11028
	mov	rcx, rbx
	call	_memicmp
	test	eax, eax
	jne	SHORT $LN52@GetCOp

; 251  :       rc = COP_EQUAL;

	mov	eax, 19

; 256  :   }
; 257  :   return(rc);
; 258  : }

	add	rsp, 32					; 00000020H
	pop	rbx
	ret	0
$LN52@GetCOp:

; 252  :     else if (size == 6 && (0 == _memicmp(p, "BELOW", 5)))

	mov	r8d, 5
	lea	rdx, OFFSET FLAT:$SG11031
	mov	rcx, rbx
	call	_memicmp
	test	eax, eax
	jne	$LN42@GetCOp

; 253  :       rc = COP_BELOW;

	mov	eax, 20

; 256  :   }
; 257  :   return(rc);
; 258  : }

	add	rsp, 32					; 00000020H
	pop	rbx
	ret	0
$LN28@GetCOp:

; 239  :     else if (size == 7 && (0 == _memicmp(p, "PARITY", 6)))

	cmp	ecx, 7
	jne	SHORT $LN30@GetCOp
	lea	r8d, QWORD PTR [rcx-1]
	mov	rcx, rbx
	lea	rdx, OFFSET FLAT:$SG11013
	call	_memicmp
	test	eax, eax
	jne	SHORT $LN42@GetCOp

; 240  :       rc = COP_PARITY;

	mov	eax, 14

; 256  :   }
; 257  :   return(rc);
; 258  : }

	add	rsp, 32					; 00000020H
	pop	rbx
	ret	0
$LN30@GetCOp:

; 241  :     else if (size == 9 && (0 == _memicmp(p, "OVERFLOW", 8)))

	cmp	ecx, 9
	jne	SHORT $LN34@GetCOp
	lea	r8d, QWORD PTR [rcx-1]
	mov	rcx, rbx
	lea	rdx, OFFSET FLAT:$SG11016
	call	_memicmp
	test	eax, eax
	jne	SHORT $LN42@GetCOp

; 242  :       rc = COP_OVERFLOW;

	mov	eax, 15

; 256  :   }
; 257  :   return(rc);
; 258  : }

	add	rsp, 32					; 00000020H
	pop	rbx
	ret	0
$LN34@GetCOp:

; 246  :     else if (size == 8 && (0 == _memicmp(p, "GREATER", 7)))

	cmp	ecx, 8
	jne	SHORT $LN42@GetCOp
	lea	r8d, QWORD PTR [rcx-1]
	mov	rcx, rbx
	lea	rdx, OFFSET FLAT:$SG11022
	call	_memicmp
	test	eax, eax
	jne	SHORT $LN42@GetCOp

; 247  :       rc = COP_GREATER;

	mov	eax, 17

; 256  :   }
; 257  :   return(rc);
; 258  : }

	add	rsp, 32					; 00000020H
	pop	rbx
	ret	0
$LN42@GetCOp:

; 254  :     else
; 255  :       return(COP_NONE);

	xor	eax, eax

; 256  :   }
; 257  :   return(rc);
; 258  : }

	add	rsp, 32					; 00000020H
	pop	rbx
	ret	0
GetCOp	ENDP
_TEXT	ENDS
; Function compile flags: /Ogtpy
; File d:\hjwasm\hjwasm2.13.1s\hjwasm2.13.1s\hll.c
;	COMDAT GetHllLabel
_TEXT	SEGMENT
GetHllLabel PROC					; COMDAT

; 179  :   return (++ModuleInfo.hll_label);

	mov	eax, DWORD PTR ModuleInfo+352
	inc	eax
	mov	DWORD PTR ModuleInfo+352, eax

; 180  : }

	ret	0
GetHllLabel ENDP
_TEXT	ENDS
; Function compile flags: /Ogtpy
; File d:\hjwasm\hjwasm2.13.1s\hjwasm2.13.1s\hll.c
;	COMDAT GetExpression
_TEXT	SEGMENT
buff$1 = 64
hll$ = 144
i$ = 152
tokenarray$ = 160
ilabel$ = 168
is_true$ = 176
buffer$ = 184
hllop$ = 192
GetExpression PROC					; COMDAT

; 756  : {

	mov	QWORD PTR [rsp+8], rbx
	mov	DWORD PTR [rsp+32], r9d
	mov	QWORD PTR [rsp+24], r8
	push	rbp
	push	rsi
	push	rdi
	push	r12
	push	r13
	push	r14
	push	r15
	sub	rsp, 80					; 00000050H

; 757  :   char *ptr = buffer;
; 758  :   uint_32 truelabel = 0;
; 759  : 
; 760  :   DebugMsg1(("%u GetExpression(>%.32s< buf=>%s<) enter\n", ++evallvl, tokenarray[*i].tokpos, buffer));
; 761  : 
; 762  :   /* v2.08: structure changed from for(;;) to while() to increase
; 763  :   * readability and - optionally - handle the second operand differently
; 764  :   * than the first.
; 765  :   */
; 766  : 
; 767  :   if (ERROR == GetAndExpression(hll, i, tokenarray, ilabel, is_true, ptr, hllop)) {

	mov	r15, QWORD PTR hllop$[rsp]
	mov	r13, rcx
	mov	rcx, QWORD PTR buffer$[rsp]
	mov	rbx, r8
	movzx	ebp, BYTE PTR is_true$[rsp]
	mov	rdi, rcx
	mov	QWORD PTR [rsp+48], r15
	mov	r12, rdx
	mov	QWORD PTR [rsp+40], rcx
	xor	r14d, r14d
	mov	rcx, r13
	mov	BYTE PTR [rsp+32], bpl
	call	GetAndExpression
	cmp	eax, -1
	jne	SHORT $LN30@GetExpress

; 768  :     DebugMsg1(("%u GetExpression exit, error\n", evallvl--));
; 769  :     return(ERROR);

	or	rax, -1
	jmp	$LN1@GetExpress
$LN30@GetExpress:

; 770  :   }
; 771  :   while (COP_OR == GetCOp(&tokenarray[*i])) {

	movsxd	rcx, DWORD PTR [r12]
	shl	rcx, 5
	add	rcx, rbx
	call	GetCOp
	cmp	eax, 8
	jne	$LN13@GetExpress
	or	rsi, -1
	npad	9
$LL2@GetExpress:

; 772  : 
; 773  :     uint_32 nlabel;
; 774  :     uint_32 olabel;
; 775  :     char buff[16];
; 776  : 
; 777  :     /* the generated code of last simple expression has to be modified
; 778  :     1. the last jump must be inverted
; 779  :     2. a "is_true" label must be created (it's used to jump "behind" the expr)
; 780  :     3. create a new label
; 781  :     4. the current "false" label must be generated
; 782  : 
; 783  :     if it is a .REPEAT, step 4 is slightly more difficult, since the "false"
; 784  :     label is already "gone":
; 785  :     4a. create a new label
; 786  :     4b. replace the "false" label in the generated code by the new label
; 787  :     */
; 788  : 
; 789  :     (*i)++;

	inc	DWORD PTR [r12]

; 790  :     DebugMsg1(("%u GetExpression: ||-operator found, is_true=%u, lastjmp=%s\n", evallvl, is_true, hllop->lastjmp ? hllop->lastjmp : "NULL"));
; 791  : 
; 792  :     if (is_true == FALSE) {

	test	bpl, bpl
	jne	$LN11@GetExpress

; 793  :       if (hllop->lastjmp) {

	mov	rbx, QWORD PTR [r15]
	test	rbx, rbx
	je	$LN42@GetExpress

; 794  :         char *p = hllop->lastjmp;
; 795  :         InvertJump(p);           /* step 1 */

	mov	rcx, rbx
	call	InvertJump

; 796  :         if (truelabel == 0)      /* step 2 */

	test	r14d, r14d
	jne	SHORT $LN7@GetExpress

; 797  :           truelabel = GetHllLabel();

	mov	r14d, DWORD PTR ModuleInfo+352
	inc	r14d
	mov	DWORD PTR ModuleInfo+352, r14d
$LN7@GetExpress:

; 798  :         if (*p) { /* v2.11: there might be a 0 at lastjmp */

	cmp	BYTE PTR [rbx], 0
	je	SHORT $LN8@GetExpress

; 799  :           p += 4;                /* skip 'jcc ' or 'jmp ' */
; 800  :           GetLabelStr(truelabel, p);

	mov	r8d, r14d
	lea	rdx, OFFSET FLAT:$SG11101
	lea	rcx, QWORD PTR [rbx+4]
	call	sprintf

; 801  :           strcat(p, EOLSTR);

	sub	rbx, -3
$LL40@GetExpress:
	cmp	BYTE PTR [rbx+1], 0
	lea	rbx, QWORD PTR [rbx+1]
	jne	SHORT $LL40@GetExpress
	xor	ecx, ecx
	lea	r15, OFFSET FLAT:$SG11316
	npad	10
$LL41@GetExpress:
	movzx	eax, BYTE PTR [r15+rcx]
	mov	BYTE PTR [rbx+rcx], al
	lea	rcx, QWORD PTR [rcx+1]
	test	al, al
	jne	SHORT $LL41@GetExpress
	mov	r15, QWORD PTR hllop$[rsp]
$LN8@GetExpress:

; 802  :         }
; 803  :         /* v2.08: if-block added */
; 804  :         if (hllop->lasttruelabel)

	mov	edx, DWORD PTR [r15+8]
	test	edx, edx
	je	SHORT $LN9@GetExpress

; 805  :           ReplaceLabel(ptr, hllop->lasttruelabel, truelabel);

	mov	r8d, r14d
	mov	rcx, rdi
	call	ReplaceLabel
$LN9@GetExpress:

; 806  :         DebugMsg1(("%u GetExpression: jmp inverted, dest changed >%s<\n", evallvl, ptr));
; 807  :         hllop->lastjmp = NULL;
; 808  : 
; 809  :         nlabel = GetHllLabel();  /* step 3 */
; 810  :         olabel = GetLabel(hll, ilabel);

	movsxd	rax, DWORD PTR ilabel$[rsp]
	mov	QWORD PTR [r15], 0
	mov	ebx, DWORD PTR ModuleInfo+352
	inc	ebx
	mov	DWORD PTR ModuleInfo+352, ebx

; 811  :         if (hll->cmd == HLL_REPEAT) {

	cmp	DWORD PTR [r13+96], 2
	mov	ebp, DWORD PTR [r13+rax*4+32]
	jne	SHORT $LN10@GetExpress

; 812  :           ReplaceLabel(buffer, olabel, nlabel);

	mov	rcx, QWORD PTR buffer$[rsp]
	mov	r8d, ebx
	mov	edx, ebp
	call	ReplaceLabel

; 813  :           sprintf(ptr + strlen(ptr), "%s" LABELQUAL EOLSTR, GetLabelStr(nlabel, buff));

	mov	r8d, ebx
	lea	rdx, OFFSET FLAT:$SG11101
	lea	rcx, QWORD PTR buff$1[rsp]
	call	sprintf
	mov	rcx, rsi
	npad	3
$LL39@GetExpress:
	inc	rcx
	cmp	BYTE PTR [rdi+rcx], 0
	jne	SHORT $LL39@GetExpress
	add	rcx, rdi
	lea	r8, QWORD PTR buff$1[rsp]
	lea	rdx, OFFSET FLAT:$SG11320
	call	sprintf

; 814  :         }

	jmp	SHORT $LN46@GetExpress
$LN10@GetExpress:

; 815  :         else {
; 816  :           sprintf(ptr + strlen(ptr), "%s" LABELQUAL EOLSTR, GetLabelStr(olabel, buff));

	mov	r8d, ebp
	lea	rdx, OFFSET FLAT:$SG11101
	lea	rcx, QWORD PTR buff$1[rsp]
	call	sprintf
	mov	rcx, rsi
$LL38@GetExpress:
	inc	rcx
	cmp	BYTE PTR [rdi+rcx], 0
	jne	SHORT $LL38@GetExpress
	add	rcx, rdi
	lea	r8, QWORD PTR buff$1[rsp]
	lea	rdx, OFFSET FLAT:$SG11321
	call	sprintf

; 817  :           ReplaceLabel(buffer, olabel, nlabel);

	mov	rcx, QWORD PTR buffer$[rsp]
	mov	r8d, ebx
	mov	edx, ebp
	call	ReplaceLabel
$LN46@GetExpress:
	movzx	ebp, BYTE PTR is_true$[rsp]
$LN42@GetExpress:
	mov	rbx, QWORD PTR tokenarray$[rsp]
$LN11@GetExpress:

; 818  :         }
; 819  :         DebugMsg1(("%u GetExpression: dest changed, label added >%s<\n", evallvl, ptr));
; 820  :       }
; 821  :     }
; 822  :     ptr += strlen(ptr);

	mov	rax, rsi
	npad	8
$LL37@GetExpress:
	inc	rax
	cmp	BYTE PTR [rdi+rax], 0
	jne	SHORT $LL37@GetExpress

; 823  :     hllop->lasttruelabel = 0; /* v2.08 */
; 824  :     if (ERROR == GetAndExpression(hll, i, tokenarray, ilabel, is_true, ptr, hllop)) {

	mov	r9d, DWORD PTR ilabel$[rsp]
	add	rdi, rax
	mov	QWORD PTR [rsp+48], r15
	mov	r8, rbx
	mov	QWORD PTR [rsp+40], rdi
	mov	rdx, r12
	mov	rcx, r13
	mov	BYTE PTR [rsp+32], bpl
	mov	DWORD PTR [r15+8], 0
	call	GetAndExpression
	cmp	eax, -1
	je	$LN31@GetExpress

; 770  :   }
; 771  :   while (COP_OR == GetCOp(&tokenarray[*i])) {

	movsxd	rcx, DWORD PTR [r12]
	shl	rcx, 5
	add	rcx, rbx
	call	GetCOp
	cmp	eax, 8
	je	$LL2@GetExpress

; 827  :     }
; 828  :   }
; 829  :   if (truelabel > 0) {

	test	r14d, r14d
	je	$LN13@GetExpress

; 830  :     /* v2.08: this is needed, but ober-hackish. to be improved... */
; 831  :     if (hllop->lastjmp && hllop->lasttruelabel) {

	cmp	QWORD PTR [r15], 0
	je	SHORT $LL14@GetExpress
	mov	edx, DWORD PTR [r15+8]
	test	edx, edx
	je	SHORT $LL14@GetExpress

; 832  :       DebugMsg1(("%u GetExpression: suppressed ReplaceLabel %u -> %u, lastjmp=%s\n", evallvl, hllop->lasttruelabel, truelabel, hllop->lastjmp));
; 833  :       ReplaceLabel(ptr, hllop->lasttruelabel, truelabel);

	mov	r8d, r14d
	mov	rcx, rdi
	call	ReplaceLabel

; 834  :       *(strchr(hllop->lastjmp, EOLCHAR) + 1) = NULLC;

	mov	rcx, QWORD PTR [r15]
	mov	edx, 10
	call	strchr
	mov	BYTE PTR [rax+1], 0
	npad	2
$LL14@GetExpress:

; 835  :     }
; 836  :     ptr += strlen(ptr);

	inc	rsi
	cmp	BYTE PTR [rdi+rsi], 0
	jne	SHORT $LL14@GetExpress
	add	rdi, rsi

; 837  :     GetLabelStr(truelabel, ptr);

	lea	rdx, OFFSET FLAT:$SG11101
	mov	rcx, rdi
	mov	r8d, r14d
	call	sprintf

; 838  :     strcat(ptr, LABELQUAL EOLSTR);

	dec	rdi
$LL34@GetExpress:
	cmp	BYTE PTR [rdi+1], 0
	lea	rdi, QWORD PTR [rdi+1]
	jne	SHORT $LL34@GetExpress
	lea	rdx, OFFSET FLAT:$SG11325
	xor	ecx, ecx
	npad	12
$LL35@GetExpress:
	movzx	eax, BYTE PTR [rdx+rcx]
	mov	BYTE PTR [rdi+rcx], al
	lea	rcx, QWORD PTR [rcx+1]
	test	al, al
	jne	SHORT $LL35@GetExpress

; 839  :     DebugMsg1(("%u GetExpression: label added >%s<\n", evallvl, ptr));
; 840  :     hllop->lasttruelabel = truelabel; /* v2.08 */

	mov	DWORD PTR [r15+8], r14d
$LN13@GetExpress:

; 841  :   }
; 842  :   DebugMsg1(("%u GetExpression exit\n", evallvl--));
; 843  :   return(NOT_ERROR);

	xor	eax, eax
$LN1@GetExpress:

; 844  : }

	mov	rbx, QWORD PTR [rsp+144]
	add	rsp, 80					; 00000050H
	pop	r15
	pop	r14
	pop	r13
	pop	r12
	pop	rdi
	pop	rsi
	pop	rbp
	ret	0
$LN31@GetExpress:

; 825  :       DebugMsg1(("%u GetExpression exit, error\n", evallvl--));
; 826  :       return(ERROR);

	mov	eax, esi
	jmp	SHORT $LN1@GetExpress
GetExpression ENDP
_TEXT	ENDS
; Function compile flags: /Ogtpy
; File d:\hjwasm\hjwasm2.13.1s\hjwasm2.13.1s\hll.c
_TEXT	SEGMENT
HllCheckOpen PROC

; 2274 :   if (HllStack) {

	cmp	QWORD PTR ModuleInfo+224, 0
	je	SHORT $LN2@HllCheckOp

; 2275 :     //EmitErr( BLOCK_NESTING_ERROR, ".if-.repeat-.while" );
; 2276 :     EmitErr(UNMATCHED_BLOCK_NESTING, ".if-.repeat-.while");

	lea	rdx, OFFSET FLAT:$SG12124
	mov	ecx, 142				; 0000008eH
	jmp	EmitErr
$LN2@HllCheckOp:

; 2277 :   }
; 2278 :   DebugMsg(("HllCheckOpen: allocated items:%u, reused items:%u, .while cond-blocks/bytes:%u/%u\n", cntAlloc, cntReused, cntCond, cntCondBytes));
; 2279 : }

	ret	0
HllCheckOpen ENDP
_TEXT	ENDS
; Function compile flags: /Ogtpy
; File d:\hjwasm\hjwasm2.13.1s\hjwasm2.13.1s\hll.c
_TEXT	SEGMENT
pass$ = 8
HllInit	PROC

; 2302 :   //if ( pass == PASS_1 )
; 2303 :   //    HllFree = NULL;
; 2304 : 
; 2305 :   //HllStack = NULL; /* empty stack of open hll directives */
; 2306 :   ModuleInfo.hll_label = 0; /* init hll label counter */

	mov	DWORD PTR ModuleInfo+352, 0

; 2307 : #ifdef DEBUG_OUT
; 2308 :   evallvl = 0;
; 2309 :   if (pass == PASS_1) {
; 2310 :     cntAlloc = 0;
; 2311 :     cntReused = 0;
; 2312 :     cntCond = 0;
; 2313 :     cntCondBytes = 0;
; 2314 :   }
; 2315 : #endif
; 2316 :   return;
; 2317 : }

	ret	0
HllInit	ENDP
_TEXT	ENDS
; Function compile flags: /Ogtpy
; File c:\program files (x86)\windows kits\10\include\10.0.10150.0\ucrt\stdio.h
;	COMDAT sprintf
_TEXT	SEGMENT
_Buffer$ = 80
_Format$ = 88
sprintf	PROC						; COMDAT

; 1776 : {

$LN8:
	mov	QWORD PTR [rsp+16], rdx
	mov	QWORD PTR [rsp+24], r8
	mov	QWORD PTR [rsp+32], r9
	push	rbx
	push	rsi
	push	rdi
	sub	rsp, 48					; 00000030H
	mov	rbx, rdx

; 1777 :     int _Result;
; 1778 :     va_list _ArgList;
; 1779 :     __crt_va_start(_ArgList, _Format);

	lea	rsi, QWORD PTR _Format$[rsp+8]
	mov	rdi, rcx

; 1780 : 
; 1781 :     #pragma warning(push)
; 1782 :     #pragma warning(disable: 4996) // Deprecation
; 1783 :     _Result = _vsprintf_l(_Buffer, _Format, NULL, _ArgList);

	call	__local_stdio_printf_options
	mov	r9, rbx
	mov	QWORD PTR [rsp+40], rsi
	or	rbx, -1
	mov	QWORD PTR [rsp+32], 0
	mov	r8, rbx
	mov	rdx, rdi
	mov	rcx, QWORD PTR [rax]
	or	rcx, 1
	call	__stdio_common_vsprintf
	test	eax, eax
	cmovs	eax, ebx

; 1784 :     #pragma warning(pop)
; 1785 : 
; 1786 :     __crt_va_end(_ArgList);
; 1787 :     return _Result;
; 1788 : }

	add	rsp, 48					; 00000030H
	pop	rdi
	pop	rsi
	pop	rbx
	ret	0
sprintf	ENDP
_TEXT	ENDS
; Function compile flags: /Ogtpy
; File c:\program files (x86)\windows kits\10\include\10.0.10150.0\ucrt\stdio.h
;	COMDAT _vsprintf_l
_TEXT	SEGMENT
_Buffer$ = 64
_Format$ = 72
_Locale$ = 80
_ArgList$ = 88
_vsprintf_l PROC					; COMDAT

; 1455 : {

$LN6:
	mov	QWORD PTR [rsp+8], rbx
	mov	QWORD PTR [rsp+16], rbp
	mov	QWORD PTR [rsp+24], rsi
	push	rdi
	sub	rsp, 48					; 00000030H
	mov	rbx, r9
	mov	rdi, r8
	mov	rsi, rdx
	mov	rbp, rcx

; 1456 :     #pragma warning(push)
; 1457 :     #pragma warning(disable: 4996) // Deprecation
; 1458 :     return _vsnprintf_l(_Buffer, (size_t)-1, _Format, _Locale, _ArgList);

	call	__local_stdio_printf_options
	mov	QWORD PTR [rsp+40], rbx
	mov	r9, rsi
	or	rbx, -1
	mov	QWORD PTR [rsp+32], rdi
	mov	r8, rbx
	mov	rdx, rbp
	mov	rcx, QWORD PTR [rax]
	or	rcx, 1
	call	__stdio_common_vsprintf

; 1459 :     #pragma warning(pop)
; 1460 : }

	mov	rbp, QWORD PTR [rsp+72]
	test	eax, eax
	mov	rsi, QWORD PTR [rsp+80]
	cmovs	eax, ebx
	mov	rbx, QWORD PTR [rsp+64]
	add	rsp, 48					; 00000030H
	pop	rdi
	ret	0
_vsprintf_l ENDP
_TEXT	ENDS
; Function compile flags: /Ogtpy
; File c:\program files (x86)\windows kits\10\include\10.0.10150.0\ucrt\stdio.h
;	COMDAT _vsnprintf_l
_TEXT	SEGMENT
_Buffer$ = 64
_BufferCount$ = 72
_Format$ = 80
_Locale$ = 88
_ArgList$ = 96
_vsnprintf_l PROC					; COMDAT

; 1385 : {

$LN4:
	mov	QWORD PTR [rsp+8], rbx
	mov	QWORD PTR [rsp+16], rbp
	mov	QWORD PTR [rsp+24], rsi
	push	rdi
	sub	rsp, 48					; 00000030H
	mov	rbx, r9
	mov	rdi, r8
	mov	rsi, rdx
	mov	rbp, rcx

; 1386 :     int const _Result = __stdio_common_vsprintf(

	call	__local_stdio_printf_options
	mov	r9, rdi
	mov	r8, rsi
	mov	rdx, rbp
	mov	rcx, QWORD PTR [rax]
	mov	rax, QWORD PTR _ArgList$[rsp]
	or	rcx, 1
	mov	QWORD PTR [rsp+40], rax
	mov	QWORD PTR [rsp+32], rbx
	call	__stdio_common_vsprintf

; 1387 :         _CRT_INTERNAL_LOCAL_PRINTF_OPTIONS | _CRT_INTERNAL_PRINTF_LEGACY_VSPRINTF_NULL_TERMINATION,
; 1388 :         _Buffer, _BufferCount, _Format, _Locale, _ArgList);
; 1389 : 
; 1390 :     return _Result < 0 ? -1 : _Result;
; 1391 : }

	mov	rbx, QWORD PTR [rsp+64]
	or	ecx, -1
	mov	rbp, QWORD PTR [rsp+72]
	test	eax, eax
	mov	rsi, QWORD PTR [rsp+80]
	cmovs	eax, ecx
	add	rsp, 48					; 00000030H
	pop	rdi
	ret	0
_vsnprintf_l ENDP
_TEXT	ENDS
; Function compile flags: /Ogtpy
; File c:\program files (x86)\windows kits\10\include\10.0.10150.0\ucrt\corecrt_stdio_config.h
;	COMDAT __local_stdio_printf_options
_TEXT	SEGMENT
__local_stdio_printf_options PROC			; COMDAT

; 74   :     static unsigned __int64 _OptionsStorage;
; 75   :     return &_OptionsStorage;

	lea	rax, OFFSET FLAT:?_OptionsStorage@?1??__local_stdio_printf_options@@9@9 ; `__local_stdio_printf_options'::`2'::_OptionsStorage

; 76   : }

	ret	0
__local_stdio_printf_options ENDP
_TEXT	ENDS
END
