; Listing generated by Microsoft (R) Optimizing Compiler Version 19.00.23026.0 

include listing.inc

INCLUDELIB LIBCMT
INCLUDELIB OLDNAMES

_BSS	SEGMENT
$SG11633 DB	01H DUP (?)
	ALIGN	4

$SG11641 DB	01H DUP (?)
	ALIGN	4

$SG11644 DB	02H DUP (?)
	ALIGN	4

$SG11649 DB	01H DUP (?)
_BSS	ENDS
_DATA	SEGMENT
COMM	decoflags:BYTE
COMM	broadflags:BYTE
COMM	evex:BYTE
COMM	ZEROLOCALS:BYTE
COMM	mid:DWORD
COMM	ncase:DWORD
COMM	casen:DWORD
COMM	maxcase:DWORD
COMM	mincase:DWORD
COMM	delta:DWORD
COMM	pcases:QWORD
COMM	plabels:QWORD
_DATA	ENDS
CONST	SEGMENT
reax	DB	'rax', 00H, 00H
	ORG $+3
recx	DB	'rcx', 00H, 00H
	ORG $+3
redx	DB	'rdx', 00H, 00H
CONST	ENDS
_DATA	SEGMENT
$SG11279 DB	0aH, 00H
	ORG $+2
$SG11283 DB	'%s:', 0aH, 00H
	ORG $+3
$SG11284 DB	'%s:', 0aH, 00H
	ORG $+3
$SG11288 DB	':', 0aH, 00H
	ORG $+1
$SG11337 DB	'loope', 00H
	ORG $+2
$SG11341 DB	'loop', 00H
	ORG $+3
$SG11355 DB	', ', 00H
	ORG $+1
$SG11615 DB	'eax', 00H
$SG11393 DB	'=!<>&|-+*^%/', 00H
	ORG $+3
$SG11401 DB	' inc ', 00H
	ORG $+2
$SG11403 DB	' dec ', 00H
	ORG $+2
$SG11421 DB	' mov  ', 00H
	ORG $+1
$SG11424 DB	' cdq ', 00H
	ORG $+2
$SG11427 DB	' mov  ', 00H
	ORG $+1
$SG11431 DB	' idiv ', 00H
	ORG $+1
$SG11432 DB	' imul ', 00H
	ORG $+1
$SG11436 DB	' idiv ', 00H
	ORG $+1
$SG11437 DB	' imul ', 00H
	ORG $+1
$SG11439 DB	' mov  ', 00H
	ORG $+1
$SG11440 DB	' mov  ', 00H
	ORG $+1
$SG11444 DB	' cdq ', 00H
	ORG $+2
$SG11445 DB	' idiv ', 00H
	ORG $+1
$SG11446 DB	' imul ', 00H
	ORG $+1
$SG11449 DB	' mov  ', 00H
	ORG $+1
$SG11450 DB	' mov  ', 00H
	ORG $+1
$SG11456 DB	' cdq ', 00H
	ORG $+2
$SG11457 DB	' idiv ', 00H
	ORG $+1
$SG11458 DB	' imul ', 00H
	ORG $+1
$SG11460 DB	' mov  ', 00H
	ORG $+1
$SG11466 DB	' cdq ', 00H
	ORG $+2
$SG11467 DB	' idiv ', 00H
	ORG $+1
$SG11468 DB	' imul ', 00H
	ORG $+1
$SG11470 DB	' mov  ', 00H
	ORG $+1
$SG11473 DB	' mov  ', 00H
	ORG $+1
$SG11477 DB	' cdq ', 00H
	ORG $+2
$SG11478 DB	' idiv ', 00H
	ORG $+1
$SG11479 DB	' imul ', 00H
	ORG $+1
$SG11481 DB	' mov  ', 00H
	ORG $+1
$SG11484 DB	' sub ', 00H
	ORG $+2
$SG11487 DB	' add ', 00H
	ORG $+2
$SG11490 DB	' and ', 00H
	ORG $+2
$SG11493 DB	' or ', 00H
	ORG $+3
$SG11496 DB	' xor ', 00H
	ORG $+2
$SG11499 DB	' shl ', 00H
	ORG $+2
$SG11501 DB	' shr ', 00H
	ORG $+2
$SG11508 DB	' xor  ', 00H
	ORG $+1
$SG11515 DB	'BYTE PTR', 00H
	ORG $+3
$SG11516 DB	'BPTR', 00H
	ORG $+3
$SG11517 DB	'WPTR', 00H
	ORG $+3
$SG11523 DB	' lea  ', 00H
	ORG $+1
$SG11650 DB	'%s:', 00H
$SG11518 DB	'WORD PTR', 00H
	ORG $+3
$SG11524 DB	' mov  ', 00H
	ORG $+1
$SG11658 DB	'jmp', 00H
$SG11519 DB	' movzx  ', 00H
	ORG $+3
$SG11522 DB	'ADDR', 00H
	ORG $+3
$SG11530 DB	'OFFSET', 00H
	ORG $+1
$SG11531 DB	' lea  ', 00H
	ORG $+1
$SG11532 DB	' mov  ', 00H
	ORG $+1
$SG11660 DB	'%s:', 00H
$SG11539 DB	'DWORD PTR', 00H
	ORG $+2
$SG11540 DB	'DPTR', 00H
	ORG $+3
$SG11543 DB	' mov  ', 00H
	ORG $+1
$SG11699 DB	'%s:', 00H
$SG11542 DB	' movsxd  ', 00H
	ORG $+2
$SG11550 DB	' mov  ', 00H
	ORG $+1
$SG11702 DB	'%s:', 00H
$SG11549 DB	' invoke  ', 00H
	ORG $+2
$SG11553 DB	' mov  ', 00H
	ORG $+1
$SG11735 DB	'%s:', 00H
$SG11556 DB	' mov  byte ptr ', 00H
$SG11557 DB	' mov  ', 00H
	ORG $+1
$SG11616 DB	' mov eax, %s', 00H
	ORG $+3
$SG11617 DB	'jmp %s', 00H
	ORG $+1
$SG11625 DB	'(::)', 00H
	ORG $+3
$SG11640 DB	' jmp %s', 00H
$SG11643 DB	'.for ', 00H
	ORG $+2
$SG11645 DB	'.for', 00H, 00H
	ORG $+2
$SG11659 DB	'jmp %s', 00H
	ORG $+1
$SG11711 DB	'cmp  eax,%d', 00H
$SG11712 DB	'je  %s', 00H
	ORG $+1
$SG11739 DB	'cdq', 00H
$SG11713 DB	'cmp  eax,%d', 00H
$SG11714 DB	'je  %s', 00H
	ORG $+1
$SG11748 DB	'%s:', 00H
$SG11715 DB	'cmp  eax,%d', 00H
$SG11716 DB	'je  %s', 00H
	ORG $+1
$SG11717 DB	'jmp %s', 00H
	ORG $+1
$SG11753 DB	'%s:', 00H
$SG11720 DB	'cmp eax,%d', 00H
	ORG $+1
$SG11721 DB	'ja  %s', 00H
	ORG $+1
$SG11757 DB	'%s:', 00H
$SG11722 DB	'sub eax,%d', 00H
	ORG $+1
$SG11723 DB	'jc  %s', 00H
	ORG $+1
$SG11763 DB	'%s:', 00H
$SG11724 DB	'lea  rdx,%s', 00H
$SG11767 DB	'%s:', 00H
$SG11725 DB	'movzx  rax,BYTE PTR[rdx+rax]', 00H
	ORG $+3
$SG11726 DB	'lea  rdx,%s', 00H
$SG11776 DB	'%s:', 00H
$SG11727 DB	'jmp  QWORD PTR[rdx+rax*8]', 00H
	ORG $+2
$SG11744 DB	'je  %s', 00H
	ORG $+1
$SG11782 DB	'%s:', 00H
$SG11729 DB	'mov     r8d,eax', 00H
$SG11730 DB	'mov     r10d,%d', 00H
$SG11731 DB	'xor     r9d,r9d', 00H
$SG11732 DB	'lea     r11,%s', 00H
	ORG $+1
$SG11733 DB	'test    r10d,r10d', 00H
	ORG $+2
$SG11745 DB	'jge %s', 00H
	ORG $+1
$SG11784 DB	'%s:', 00H
$SG11734 DB	'js      %s', 00H
	ORG $+1
$SG11791 DB	'%s:', 00H
$SG11738 DB	'lea     eax,[r10+r9]', 00H
	ORG $+3
$SG11740 DB	'sub     eax,edx', 00H
$SG11741 DB	'sar     eax,1', 00H
	ORG $+2
$SG11742 DB	'movsxd  rcx,eax', 00H
$SG11743 DB	'cmp     [r11+rcx*4],r8d', 00H
$SG11746 DB	'lea     r9d,[rax+1]', 00H
$SG11747 DB	'jmp %s', 00H
	ORG $+1
$SG11795 DB	'%s:', 00H
$SG11751 DB	'lea     r11,%s', 00H
	ORG $+1
$SG11752 DB	'jmp     qword ptr[r11+rcx*8]', 00H
	ORG $+3
$SG11756 DB	'lea     r10d,[rax-1]', 00H
	ORG $+3
$SG11760 DB	'cmp     r9d,r10d', 00H
	ORG $+3
$SG11761 DB	'jle %s', 00H
	ORG $+1
$SG11805 DB	'%s:', 00H
$SG11762 DB	'jmp  %s', 00H
$SG11765 DB	' dq %s', 00H
	ORG $+1
$SG11766 DB	' dq %s', 00H
	ORG $+1
$SG11769 DB	' db %d', 00H
	ORG $+1
$SG11770 DB	' db %d', 00H
	ORG $+1
$SG11772 DB	' dd %d', 00H
	ORG $+1
$SG11785 DB	' jmp %s', 00H
$SG11787 DB	' jmp %s', 00H
$SG11801 DB	'loop %s', 00H
$SG11809 DB	'%s:', 00H
$SG11845 DB	'%s:', 00H
$SG11848 DB	'%s:', 00H
$SG11862 DB	'jmp %s', 00H
	ORG $+1
$SG11864 DB	'%s:', 00H
$SG11881 DB	'jmp %s', 00H
	ORG $+1
$SG11888 DB	'.if-.repeat-.while', 00H
	ORG $+1
$SG10990 DB	'ZERO', 00H
	ORG $+3
$SG10993 DB	'CARRY', 00H
	ORG $+2
$SG10996 DB	'SIGN', 00H
	ORG $+3
$SG10999 DB	'PARITY', 00H
	ORG $+1
$SG11163 DB	'cmp', 00H
$SG11002 DB	'OVERFLOW', 00H
	ORG $+3
$SG11005 DB	'LESS', 00H
	ORG $+3
$SG11011 DB	'ABOVE', 00H
	ORG $+2
$SG11064 DB	'@C%04X', 00H
	ORG $+1
$SG11181 DB	'or', 00H
	ORG $+1
$SG11008 DB	'GREATER', 00H
$SG11014 DB	'EQUAL', 00H
	ORG $+2
$SG11017 DB	'BELOW', 00H
	ORG $+2
$SG11057 DB	', %d', 00H
	ORG $+3
$SG11161 DB	'test', 00H
	ORG $+3
$SG11170 DB	'jmp @C%04X', 0aH, 00H
$SG11175 DB	'test', 00H
	ORG $+3
$SG11182 DB	'cmp', 00H
$SG11188 DB	'jmp ', 00H
	ORG $+3
$SG11246 DB	0aH, 00H
	ORG $+2
$SG11249 DB	':', 0aH, 00H
_DATA	ENDS
PUBLIC	__local_stdio_printf_options
PUBLIC	sprintf
PUBLIC	HllInit
PUBLIC	HllCheckOpen
PUBLIC	HllStartDir
PUBLIC	HllEndDir
PUBLIC	HllExitDir
EXTRN	tolower:PROC
EXTRN	strchr:PROC
EXTRN	strstr:PROC
EXTRN	_memicmp:PROC
EXTRN	_stricmp:PROC
EXTRN	__stdio_common_vsprintf:PROC
EXTRN	EmitError:PROC
EXTRN	EmitErr:PROC
EXTRN	LclAlloc:PROC
EXTRN	EvalOperand:PROC
EXTRN	EmitConstError:PROC
EXTRN	GetCurrOffset:PROC
EXTRN	LstWrite:PROC
EXTRN	AddLineQueue:PROC
EXTRN	AddLineQueueX:PROC
EXTRN	RunLineQueue:PROC
EXTRN	Tokenize:PROC
EXTRN	myatoi128:PROC
EXTRN	__chkstk:PROC
EXTRN	memcpy:PROC
EXTRN	Options:BYTE
EXTRN	ModuleInfo:BYTE
EXTRN	Parse_Pass:DWORD
EXTRN	__ImageBase:BYTE
_DATA	SEGMENT
COMM	?_OptionsStorage@?1??__local_stdio_printf_options@@9@9:QWORD							; `__local_stdio_printf_options'::`2'::_OptionsStorage
_DATA	ENDS
;	COMDAT pdata
pdata	SEGMENT
$pdata$_vsnprintf_l DD imagerel $LN4
	DD	imagerel $LN4+102
	DD	imagerel $unwind$_vsnprintf_l
pdata	ENDS
;	COMDAT pdata
pdata	SEGMENT
$pdata$_vsprintf_l DD imagerel $LN6
	DD	imagerel $LN6+98
	DD	imagerel $unwind$_vsprintf_l
pdata	ENDS
;	COMDAT pdata
pdata	SEGMENT
$pdata$sprintf DD imagerel $LN8
	DD	imagerel $LN8+90
	DD	imagerel $unwind$sprintf
pdata	ENDS
;	COMDAT pdata
pdata	SEGMENT
$pdata$GetExpression DD imagerel GetExpression
	DD	imagerel GetExpression+769
	DD	imagerel $unwind$GetExpression
pdata	ENDS
;	COMDAT pdata
pdata	SEGMENT
$pdata$GetCOp DD imagerel GetCOp
	DD	imagerel GetCOp+658
	DD	imagerel $unwind$GetCOp
pdata	ENDS
;	COMDAT pdata
pdata	SEGMENT
$pdata$bubblesort DD imagerel bubblesort
	DD	imagerel bubblesort+21
	DD	imagerel $unwind$bubblesort
pdata	ENDS
;	COMDAT pdata
pdata	SEGMENT
$pdata$1$bubblesort DD imagerel bubblesort+21
	DD	imagerel bubblesort+136
	DD	imagerel $chain$1$bubblesort
pdata	ENDS
;	COMDAT pdata
pdata	SEGMENT
$pdata$2$bubblesort DD imagerel bubblesort+136
	DD	imagerel bubblesort+179
	DD	imagerel $chain$2$bubblesort
pdata	ENDS
;	COMDAT pdata
pdata	SEGMENT
$pdata$RenderInstr DD imagerel RenderInstr
	DD	imagerel RenderInstr+240
	DD	imagerel $unwind$RenderInstr
pdata	ENDS
;	COMDAT pdata
pdata	SEGMENT
$pdata$GetLabelStr DD imagerel GetLabelStr
	DD	imagerel GetLabelStr+36
	DD	imagerel $unwind$GetLabelStr
pdata	ENDS
;	COMDAT pdata
pdata	SEGMENT
$pdata$RenderJcc DD imagerel RenderJcc
	DD	imagerel RenderJcc+96
	DD	imagerel $unwind$RenderJcc
pdata	ENDS
;	COMDAT pdata
pdata	SEGMENT
$pdata$GetToken DD imagerel GetToken
	DD	imagerel GetToken+38
	DD	imagerel $unwind$GetToken
pdata	ENDS
;	COMDAT pdata
pdata	SEGMENT
$pdata$2$GetToken DD imagerel GetToken+38
	DD	imagerel GetToken+520
	DD	imagerel $chain$2$GetToken
pdata	ENDS
;	COMDAT pdata
pdata	SEGMENT
$pdata$3$GetToken DD imagerel GetToken+520
	DD	imagerel GetToken+622
	DD	imagerel $chain$3$GetToken
pdata	ENDS
;	COMDAT pdata
pdata	SEGMENT
$pdata$GetSimpleExpression DD imagerel GetSimpleExpression
	DD	imagerel GetSimpleExpression+1376
	DD	imagerel $unwind$GetSimpleExpression
pdata	ENDS
;	COMDAT pdata
pdata	SEGMENT
$pdata$ReplaceLabel DD imagerel ReplaceLabel
	DD	imagerel ReplaceLabel+161
	DD	imagerel $unwind$ReplaceLabel
pdata	ENDS
;	COMDAT pdata
pdata	SEGMENT
$pdata$GetAndExpression DD imagerel GetAndExpression
	DD	imagerel GetAndExpression+564
	DD	imagerel $unwind$GetAndExpression
pdata	ENDS
;	COMDAT pdata
pdata	SEGMENT
$pdata$QueueTestLines DD imagerel QueueTestLines
	DD	imagerel QueueTestLines+14
	DD	imagerel $unwind$QueueTestLines
pdata	ENDS
;	COMDAT pdata
pdata	SEGMENT
$pdata$0$QueueTestLines DD imagerel QueueTestLines+14
	DD	imagerel QueueTestLines+85
	DD	imagerel $chain$0$QueueTestLines
pdata	ENDS
;	COMDAT pdata
pdata	SEGMENT
$pdata$1$QueueTestLines DD imagerel QueueTestLines+85
	DD	imagerel QueueTestLines+93
	DD	imagerel $chain$1$QueueTestLines
pdata	ENDS
;	COMDAT pdata
pdata	SEGMENT
$pdata$EvaluateHllExpression DD imagerel EvaluateHllExpression
	DD	imagerel EvaluateHllExpression+138
	DD	imagerel $unwind$EvaluateHllExpression
pdata	ENDS
;	COMDAT pdata
pdata	SEGMENT
$pdata$CheckCXZLines DD imagerel CheckCXZLines
	DD	imagerel CheckCXZLines+274
	DD	imagerel $unwind$CheckCXZLines
pdata	ENDS
;	COMDAT pdata
pdata	SEGMENT
$pdata$WriteAsmLine DD imagerel WriteAsmLine
	DD	imagerel WriteAsmLine+226
	DD	imagerel $unwind$WriteAsmLine
pdata	ENDS
;	COMDAT pdata
pdata	SEGMENT
$pdata$ForInitAndNext DD imagerel ForInitAndNext
	DD	imagerel ForInitAndNext+8498
	DD	imagerel $unwind$ForInitAndNext
pdata	ENDS
pdata	SEGMENT
$pdata$HllStartDir DD imagerel $LN294
	DD	imagerel $LN294+28
	DD	imagerel $unwind$HllStartDir
$pdata$4$HllStartDir DD imagerel $LN294+28
	DD	imagerel $LN294+481
	DD	imagerel $chain$4$HllStartDir
$pdata$5$HllStartDir DD imagerel $LN294+481
	DD	imagerel $LN294+653
	DD	imagerel $chain$5$HllStartDir
$pdata$6$HllStartDir DD imagerel $LN294+653
	DD	imagerel $LN294+2631
	DD	imagerel $chain$6$HllStartDir
$pdata$7$HllStartDir DD imagerel $LN294+2631
	DD	imagerel $LN294+2672
	DD	imagerel $chain$7$HllStartDir
$pdata$8$HllStartDir DD imagerel $LN294+2672
	DD	imagerel $LN294+2719
	DD	imagerel $chain$8$HllStartDir
$pdata$9$HllStartDir DD imagerel $LN294+2719
	DD	imagerel $LN294+2767
	DD	imagerel $chain$9$HllStartDir
$pdata$HllEndDir DD imagerel $LN205
	DD	imagerel $LN205+101
	DD	imagerel $unwind$HllEndDir
$pdata$1$HllEndDir DD imagerel $LN205+101
	DD	imagerel $LN205+1715
	DD	imagerel $chain$1$HllEndDir
$pdata$2$HllEndDir DD imagerel $LN205+1715
	DD	imagerel $LN205+1767
	DD	imagerel $chain$2$HllEndDir
$pdata$3$HllEndDir DD imagerel $LN205+1767
	DD	imagerel $LN205+1880
	DD	imagerel $chain$3$HllEndDir
$pdata$4$HllEndDir DD imagerel $LN205+1880
	DD	imagerel $LN205+1898
	DD	imagerel $chain$4$HllEndDir
$pdata$5$HllEndDir DD imagerel $LN205+1898
	DD	imagerel $LN205+3124
	DD	imagerel $chain$5$HllEndDir
$pdata$6$HllEndDir DD imagerel $LN205+3124
	DD	imagerel $LN205+3160
	DD	imagerel $chain$6$HllEndDir
$pdata$HllExitDir DD imagerel $LN125
	DD	imagerel $LN125+84
	DD	imagerel $unwind$HllExitDir
$pdata$0$HllExitDir DD imagerel $LN125+84
	DD	imagerel $LN125+1186
	DD	imagerel $chain$0$HllExitDir
$pdata$1$HllExitDir DD imagerel $LN125+1186
	DD	imagerel $LN125+1290
	DD	imagerel $chain$1$HllExitDir
$pdata$3$HllExitDir DD imagerel $LN125+1290
	DD	imagerel $LN125+1323
	DD	imagerel $chain$3$HllExitDir
$pdata$4$HllExitDir DD imagerel $LN125+1323
	DD	imagerel $LN125+1401
	DD	imagerel $chain$4$HllExitDir
$pdata$5$HllExitDir DD imagerel $LN125+1401
	DD	imagerel $LN125+1415
	DD	imagerel $chain$5$HllExitDir
$pdata$6$HllExitDir DD imagerel $LN125+1415
	DD	imagerel $LN125+1568
	DD	imagerel $chain$6$HllExitDir
$pdata$7$HllExitDir DD imagerel $LN125+1568
	DD	imagerel $LN125+1616
	DD	imagerel $chain$7$HllExitDir
pdata	ENDS
CONST	SEGMENT
	ORG $+3
flaginstr DB	07aH
	DB	063H
	DB	073H
	DB	070H
	DB	06fH
	DB	06cH
	DB	067H
	DB	061H
	DB	065H
	DB	062H
	ORG $+2
unsigned_cjmptype DB 07aH
	DB	07aH
	DB	061H
	DB	062H
	DB	062H
	DB	061H
	ORG $+2
signed_cjmptype DB 07aH
	DB	07aH
	DB	067H
	DB	06cH
	DB	06cH
	DB	067H
	ORG $+2
neg_cjmptype DB	00H
	DB	01H
	DB	00H
	DB	00H
	DB	01H
	DB	01H
CONST	ENDS
xdata	SEGMENT
$unwind$HllStartDir DD 041c01H
	DD	038f011cH
	DD	05005c007H
$chain$4$HllStartDir DD 0a5b21H
	DD	0395745bH
	DD	038cf433H
	DD	038ed428H
	DD	03946410H
	DD	03933408H
	DD	imagerel $LN294
	DD	imagerel $LN294+28
	DD	imagerel $unwind$HllStartDir
$chain$5$HllStartDir DD 020821H
	DD	038de408H
	DD	imagerel $LN294+28
	DD	imagerel $LN294+481
	DD	imagerel $chain$4$HllStartDir
$chain$6$HllStartDir DD 021H
	DD	imagerel $LN294+28
	DD	imagerel $LN294+481
	DD	imagerel $chain$4$HllStartDir
$chain$7$HllStartDir DD 040021H
	DD	038cf400H
	DD	03946400H
	DD	imagerel $LN294
	DD	imagerel $LN294+28
	DD	imagerel $unwind$HllStartDir
$chain$8$HllStartDir DD 020021H
	DD	03946400H
	DD	imagerel $LN294
	DD	imagerel $LN294+28
	DD	imagerel $unwind$HllStartDir
$chain$9$HllStartDir DD 021H
	DD	imagerel $LN294
	DD	imagerel $LN294+28
	DD	imagerel $unwind$HllStartDir
$unwind$HllEndDir DD 061801H
	DD	010d0118H
	DD	06007c009H
	DD	050053006H
$chain$1$HllEndDir DD 041021H
	DD	0115e410H
	DD	01137408H
	DD	imagerel $LN205
	DD	imagerel $LN205+101
	DD	imagerel $unwind$HllEndDir
$chain$2$HllEndDir DD 020821H
	DD	010cf408H
	DD	imagerel $LN205+101
	DD	imagerel $LN205+1715
	DD	imagerel $chain$1$HllEndDir
$chain$3$HllEndDir DD 020821H
	DD	0114d408H
	DD	imagerel $LN205+1715
	DD	imagerel $LN205+1767
	DD	imagerel $chain$2$HllEndDir
$chain$4$HllEndDir DD 021H
	DD	imagerel $LN205+1715
	DD	imagerel $LN205+1767
	DD	imagerel $chain$2$HllEndDir
$chain$5$HllEndDir DD 021H
	DD	imagerel $LN205+101
	DD	imagerel $LN205+1715
	DD	imagerel $chain$1$HllEndDir
$chain$6$HllEndDir DD 021H
	DD	imagerel $LN205
	DD	imagerel $LN205+101
	DD	imagerel $unwind$HllEndDir
$unwind$HllExitDir DD 071901H
	DD	010e0119H
	DD	07008c00aH
	DD	030066007H
	DD	05005H
$chain$0$HllExitDir DD 020821H
	DD	0116d408H
	DD	imagerel $LN125
	DD	imagerel $LN125+84
	DD	imagerel $unwind$HllExitDir
$chain$1$HllExitDir DD 020821H
	DD	010cf408H
	DD	imagerel $LN125+84
	DD	imagerel $LN125+1186
	DD	imagerel $chain$0$HllExitDir
$chain$3$HllExitDir DD 020021H
	DD	010cf400H
	DD	imagerel $LN125+84
	DD	imagerel $LN125+1186
	DD	imagerel $chain$0$HllExitDir
$chain$4$HllExitDir DD 020821H
	DD	010de408H
	DD	imagerel $LN125+1290
	DD	imagerel $LN125+1323
	DD	imagerel $chain$3$HllExitDir
$chain$5$HllExitDir DD 021H
	DD	imagerel $LN125+1290
	DD	imagerel $LN125+1323
	DD	imagerel $chain$3$HllExitDir
$chain$6$HllExitDir DD 021H
	DD	imagerel $LN125+84
	DD	imagerel $LN125+1186
	DD	imagerel $chain$0$HllExitDir
$chain$7$HllExitDir DD 021H
	DD	imagerel $LN125
	DD	imagerel $LN125+84
	DD	imagerel $unwind$HllExitDir
xdata	ENDS
;	COMDAT xdata
xdata	SEGMENT
$unwind$ForInitAndNext DD 0b2901H
	DD	08f3429H
	DD	0840129H
	DD	0e018f01aH
	DD	0c014d016H
	DD	060117012H
	DD	05010H
xdata	ENDS
;	COMDAT xdata
xdata	SEGMENT
$unwind$WriteAsmLine DD 020701H
	DD	0250107H
xdata	ENDS
;	COMDAT xdata
xdata	SEGMENT
$unwind$CheckCXZLines DD 060f01H
	DD	07640fH
	DD	06340fH
	DD	0700b320fH
xdata	ENDS
;	COMDAT xdata
xdata	SEGMENT
$unwind$EvaluateHllExpression DD 040a01H
	DD	0c340aH
	DD	07006920aH
xdata	ENDS
;	COMDAT xdata
xdata	SEGMENT
$chain$1$QueueTestLines DD 021H
	DD	imagerel QueueTestLines
	DD	imagerel QueueTestLines+14
	DD	imagerel $unwind$QueueTestLines
xdata	ENDS
;	COMDAT xdata
xdata	SEGMENT
$chain$0$QueueTestLines DD 020521H
	DD	067405H
	DD	imagerel QueueTestLines
	DD	imagerel QueueTestLines+14
	DD	imagerel $unwind$QueueTestLines
xdata	ENDS
;	COMDAT xdata
xdata	SEGMENT
$unwind$QueueTestLines DD 020601H
	DD	030023206H
xdata	ENDS
;	COMDAT xdata
xdata	SEGMENT
$unwind$GetAndExpression DD 0a1e01H
	DD	011341eH
	DD	0f01a721eH
	DD	0d016e018H
	DD	07012c014H
	DD	050106011H
xdata	ENDS
;	COMDAT xdata
xdata	SEGMENT
$unwind$ReplaceLabel DD 040a01H
	DD	0a340aH
	DD	07006720aH
xdata	ENDS
;	COMDAT xdata
xdata	SEGMENT
$unwind$GetSimpleExpression DD 0b9001H
	DD	02ee490H
	DD	024011bH
	DD	0d012f014H
	DD	0700ec010H
	DD	0500c600dH
	DD	0300bH
xdata	ENDS
;	COMDAT xdata
xdata	SEGMENT
$chain$3$GetToken DD 021H
	DD	imagerel GetToken
	DD	imagerel GetToken+38
	DD	imagerel $unwind$GetToken
xdata	ENDS
;	COMDAT xdata
xdata	SEGMENT
$chain$2$GetToken DD 061621H
	DD	0cc416H
	DD	0b640aH
	DD	0a3405H
	DD	imagerel GetToken
	DD	imagerel GetToken+38
	DD	imagerel $unwind$GetToken
xdata	ENDS
;	COMDAT xdata
xdata	SEGMENT
$unwind$GetToken DD 060e01H
	DD	0d540eH
	DD	0f00a520eH
	DD	07006e008H
xdata	ENDS
;	COMDAT xdata
xdata	SEGMENT
$unwind$RenderJcc DD 020601H
	DD	030023206H
xdata	ENDS
;	COMDAT xdata
xdata	SEGMENT
$unwind$GetLabelStr DD 020601H
	DD	030023206H
xdata	ENDS
;	COMDAT xdata
xdata	SEGMENT
$unwind$RenderInstr DD 081401H
	DD	086414H
	DD	075414H
	DD	063414H
	DD	070103214H
xdata	ENDS
;	COMDAT xdata
xdata	SEGMENT
$chain$2$bubblesort DD 021H
	DD	imagerel bubblesort
	DD	imagerel bubblesort+21
	DD	imagerel $unwind$bubblesort
xdata	ENDS
;	COMDAT xdata
xdata	SEGMENT
$chain$1$bubblesort DD 040d21H
	DD	03640dH
	DD	023405H
	DD	imagerel bubblesort
	DD	imagerel bubblesort+21
	DD	imagerel $unwind$bubblesort
xdata	ENDS
;	COMDAT xdata
xdata	SEGMENT
$unwind$bubblesort DD 030701H
	DD	047407H
	DD	0e007H
xdata	ENDS
;	COMDAT xdata
xdata	SEGMENT
$unwind$GetCOp DD 020601H
	DD	030023206H
xdata	ENDS
;	COMDAT xdata
xdata	SEGMENT
$unwind$GetExpression DD 0a1e01H
	DD	012341eH
	DD	0f01a921eH
	DD	0d016e018H
	DD	07012c014H
	DD	050106011H
xdata	ENDS
;	COMDAT xdata
xdata	SEGMENT
$unwind$sprintf DD 041601H
	DD	070125216H
	DD	030106011H
xdata	ENDS
;	COMDAT xdata
xdata	SEGMENT
$unwind$_vsprintf_l DD 081401H
	DD	0a6414H
	DD	095414H
	DD	083414H
	DD	070105214H
xdata	ENDS
;	COMDAT xdata
xdata	SEGMENT
$unwind$_vsnprintf_l DD 081401H
	DD	0a6414H
	DD	095414H
	DD	083414H
	DD	070105214H
xdata	ENDS
; Function compile flags: /Ogtpy
; File d:\hjwasm\hjwasm2.13.1s\hjwasm2.13.1s\hll.c
_TEXT	SEGMENT
buff$ = 64
hllop$1 = 80
hllop$2 = 80
buffer$ = 96
i$ = 2208
n$ = 2216
tokenarray$ = 2216
HllExitDir PROC

; 1848 : {

$LN125:
	mov	DWORD PTR [rsp+8], ecx
	push	rbp
	push	rbx
	push	rsi
	push	rdi
	push	r12
	lea	rbp, QWORD PTR [rsp-1904]
	sub	rsp, 2160				; 00000870H

; 1849 :   //int               level;
; 1850 :   //struct asym       *sym;
; 1851 :   struct hll_item     *hll;
; 1852 :   ret_code            rc = NOT_ERROR;
; 1853 : //#ifdef _WIN64
; 1854 :   uint_64             n;
; 1855 : //#else
; 1856 : //  uint_32             n;
; 1857 : //#endif
; 1858 :   int                 j;
; 1859 :   int                 idx;
; 1860 :   int                 cmd = tokenarray[i].tokval;
; 1861 :   char buff[16];
; 1862 :   char buffer[MAX_LINE_LEN * 2];
; 1863 : 
; 1864 :   DebugMsg1(("HllExitDir(%s) enter\n", tokenarray[i].string_ptr));
; 1865 : 
; 1866 :   hll = HllStack;

	mov	rbx, QWORD PTR ModuleInfo+224
	mov	r12, rdx
	movsxd	rdx, ecx
	xor	esi, esi
	shl	rdx, 5
	mov	edi, DWORD PTR [rdx+r12+16]

; 1867 : 
; 1868 :   if (hll == NULL) {

	test	rbx, rbx
	jne	SHORT $LN7@HllExitDir

; 1869 :     DebugMsg(("HllExitDir stack error\n"));
; 1870 :     return(EmitError(DIRECTIVE_MUST_BE_IN_CONTROL_BLOCK));

	mov	ecx, 245				; 000000f5H
	call	EmitError

; 2020 : }

	add	rsp, 2160				; 00000870H
	pop	r12
	pop	rdi
	pop	rsi
	pop	rbx
	pop	rbp
	ret	0
$LN7@HllExitDir:

; 1871 :   }
; 1872 :   switch (cmd) {

	lea	eax, DWORD PTR [rdi-331]
	mov	QWORD PTR [rsp+2224], r13
	mov	r13d, 4
	cmp	eax, 11
	ja	$LN39@HllExitDir
	lea	r8, OFFSET FLAT:__ImageBase
	cdqe
	mov	ecx, DWORD PTR $LN110@HllExitDir[r8+rax*4]
	add	rcx, r8
	jmp	rcx
$LN8@HllExitDir:

; 1873 :   case T_DOT_DEFAULT:
; 1874 :     if (hll->flags & HLLF_ELSEOCCURED){

	test	BYTE PTR [rbx+80], 1
	jne	$LN123@HllExitDir

; 1875 :       DebugMsg(("HllExitDir stack error\n"));
; 1876 :       return(EmitError(DIRECTIVE_MUST_BE_IN_CONTROL_BLOCK));
; 1877 :     }
; 1878 :     AddLineQueueX("%s" LABELQUAL, GetLabelStr(hll->labels[LDEF], buff));

	mov	r8d, DWORD PTR [rbx+28]
	lea	rdx, OFFSET FLAT:$SG11064
	lea	rcx, QWORD PTR buff$[rsp]
	call	sprintf
	lea	rdx, QWORD PTR buff$[rsp]
	lea	rcx, OFFSET FLAT:$SG11845
	call	AddLineQueueX

; 1879 :     hll->flags |= HLLF_ELSEOCCURED;

	or	DWORD PTR [rbx+80], 1

; 1880 :      i++;

	inc	DWORD PTR i$[rbp-256]

; 1881 :     break;

	jmp	$LN39@HllExitDir
$LN10@HllExitDir:

; 1882 :   case T_DOT_CASE:
; 1883 :     if (hll->cmd != HLL_SWITCH){

	cmp	DWORD PTR [rbx+72], 5
	jne	$LN123@HllExitDir

; 1884 :       DebugMsg(("HllExitDir stack error\n"));
; 1885 :       return(EmitError(DIRECTIVE_MUST_BE_IN_CONTROL_BLOCK));
; 1886 :     }
; 1887 :     hll->labels[LTEST] = GetHllLabel();

	mov	eax, DWORD PTR ModuleInfo+352

; 1888 :     AddLineQueueX("%s" LABELQUAL, GetLabelStr(hll->labels[LTEST], buff));

	lea	rdx, OFFSET FLAT:$SG11064
	inc	eax
	lea	rcx, QWORD PTR buff$[rsp]
	mov	DWORD PTR ModuleInfo+352, eax
	mov	r8d, eax
	mov	DWORD PTR [rbx+8], eax
	call	sprintf
	lea	rdx, QWORD PTR buff$[rsp]
	lea	rcx, OFFSET FLAT:$SG11848
	call	AddLineQueueX

; 1889 :     i++;

	mov	r8d, DWORD PTR i$[rbp-256]
	inc	r8d

; 1890 :     if (tokenarray[i].token != T_FINAL){

	movsxd	rax, r8d
	shl	rax, 5
	mov	DWORD PTR i$[rbp-256], r8d
	cmp	BYTE PTR [rax+r12], sil
	je	$LN12@HllExitDir

; 1891 :       strcpy(buffer, tokenarray[i].tokpos);

	mov	rcx, QWORD PTR [rax+r12+24]
	lea	rdx, QWORD PTR buffer$[rsp]
	npad	4
$LL46@HllExitDir:
	movzx	eax, BYTE PTR [rcx]
	lea	rcx, QWORD PTR [rcx+1]
	mov	BYTE PTR [rdx], al
	lea	rdx, QWORD PTR [rdx+1]
	test	al, al
	jne	SHORT $LL46@HllExitDir

; 1892 :       i++;

	inc	r8d

; 1897 :     }
; 1898 :     if (!pcases){

	cmp	QWORD PTR pcases, rsi
	mov	DWORD PTR i$[rbp-256], r8d
	jne	SHORT $LN16@HllExitDir

; 1899 :       if (casen > 256){

	movsxd	rax, DWORD PTR casen
	cmp	eax, 256				; 00000100H
	jle	SHORT $LN15@HllExitDir

; 1900 :         pcases = LclAlloc(sizeof(int) * casen);

	mov	rcx, rax
	shl	rcx, 2
	call	LclAlloc

; 1901 :         plabels = LclAlloc(sizeof(uint_16) * casen);

	movsxd	rcx, DWORD PTR casen
	add	rcx, rcx

; 1902 :       }

	jmp	SHORT $LN121@HllExitDir
$LN15@HllExitDir:

; 1903 :       else{
; 1904 :         pcases = LclAlloc(sizeof(int) * 256);

	mov	ecx, 1024				; 00000400H
	call	LclAlloc

; 1905 :         plabels = LclAlloc(sizeof(uint_16) * 256);

	mov	ecx, 512				; 00000200H
$LN121@HllExitDir:
	mov	QWORD PTR pcases, rax
	call	LclAlloc
	mov	QWORD PTR plabels, rax
$LN16@HllExitDir:

; 1906 :       }
; 1907 :     }
; 1908 :     j = strlen(buffer);

	lea	rax, QWORD PTR buffer$[rsp]
	or	rdx, -1
$LL109@HllExitDir:
	inc	rdx
	cmp	BYTE PTR [rax+rdx], sil
	jne	SHORT $LL109@HllExitDir

; 1909 :     if ((buffer[j-1] | 0x20) == 'h' )

	movsxd	rax, edx
	movzx	ecx, BYTE PTR buffer$[rsp+rax-1]
	or	cl, 32					; 00000020H
	cmp	cl, 104					; 00000068H
	jne	SHORT $LN17@HllExitDir

; 1910 :       myatoi128( buffer, &n, 16, j-1);

	lea	r9d, DWORD PTR [rdx-1]
	mov	r8d, 16
	jmp	SHORT $LN122@HllExitDir
$LN17@HllExitDir:

; 1911 : #if CHEXPREFIX
; 1912 :     else if (((buffer[1] | 0x20)== 'x') && (*buffer == '0'))

	movzx	eax, BYTE PTR buffer$[rsp+1]
	or	al, 32					; 00000020H
	cmp	al, 120					; 00000078H
	jne	SHORT $LN19@HllExitDir
	cmp	BYTE PTR buffer$[rsp], 48		; 00000030H
	jne	SHORT $LN19@HllExitDir

; 1913 :       myatoi128( buffer, &n, 16, j-2);

	lea	r9d, DWORD PTR [rdx-2]
	mov	r8d, 16
	jmp	SHORT $LN122@HllExitDir
$LN19@HllExitDir:

; 1914 : #endif
; 1915 :     else 
; 1916 :       myatoi128( buffer, &n, 10, j);

	mov	r9d, edx
	mov	r8d, 10
$LN122@HllExitDir:
	lea	rdx, QWORD PTR n$[rbp-256]
	lea	rcx, QWORD PTR buffer$[rsp]
	call	myatoi128

; 1917 :     pcases[hll->casecnt] = (int_32)n;

	mov	edx, DWORD PTR [rbx+68]

; 1918 :     myatoi128( buff+2, &n, 16, 4);

	mov	r9d, r13d
	mov	ecx, DWORD PTR n$[rbp-256]
	mov	r8d, 16
	mov	rax, QWORD PTR pcases
	mov	DWORD PTR [rax+rdx*4], ecx
	lea	rdx, QWORD PTR n$[rbp-256]
	lea	rcx, QWORD PTR buff$[rsp+2]
	call	myatoi128

; 1919 :     plabels[hll->casecnt] = (uint_16)n;

	mov	edx, DWORD PTR [rbx+68]
	mov	rax, QWORD PTR plabels
	movzx	ecx, WORD PTR n$[rbp-256]
	mov	WORD PTR [rax+rdx*2], cx

; 1920 :     hll->casecnt++;

	inc	DWORD PTR [rbx+68]

; 1921 : 	  break;

	jmp	$LN39@HllExitDir
$LN12@HllExitDir:

; 1893 :     }
; 1894 :     else{
; 1895 :       DebugMsg(("HllExitDir stack error\n"));
; 1896 :       return(EmitError(MISSING_OPERATOR_IN_EXPRESSION));

	mov	ecx, 150				; 00000096H
	call	EmitError
	jmp	$LN120@HllExitDir
$LN21@HllExitDir:

; 1922 :   case T_DOT_ELSE:
; 1923 :   case T_DOT_ELSEIF:
; 1924 :     if (hll->cmd != HLL_IF) {

	cmp	DWORD PTR [rbx+72], esi
	je	SHORT $LN22@HllExitDir

; 1925 :       DebugMsg(("HllExitDir(%s): labels[LTEST]=%X\n", tokenarray[i].string_ptr, hll->labels[LTEST]));
; 1926 :       return(EmitErr(BLOCK_NESTING_ERROR, tokenarray[i].string_ptr));

	mov	rdx, QWORD PTR [rdx+r12+8]
	mov	ecx, 80					; 00000050H
	call	EmitErr
	jmp	$LN120@HllExitDir
$LN22@HllExitDir:

; 1927 :     }
; 1928 :     /* v2.08: check for multiple ELSE clauses */
; 1929 :     if (hll->flags & HLLF_ELSEOCCURED) {

	test	BYTE PTR [rbx+80], 1
	je	SHORT $LN23@HllExitDir

; 1930 :       return(EmitError(DOT_ELSE_CLAUSE_ALREADY_OCCURED_IN_THIS_DOT_IF_BLOCK));

	mov	ecx, 67					; 00000043H
	call	EmitError
	jmp	$LN120@HllExitDir
$LN23@HllExitDir:

; 1931 :     }
; 1932 : 
; 1933 :     /* the 'exit'-label is only needed if an .ELSE branch exists.
; 1934 :     * That's why it is created delayed.
; 1935 :     */
; 1936 :     if (hll->labels[LEXIT] == 0)

	cmp	DWORD PTR [rbx+12], esi
	jne	SHORT $LN24@HllExitDir

; 1937 :       hll->labels[LEXIT] = GetHllLabel();

	mov	eax, DWORD PTR ModuleInfo+352
	inc	eax
	mov	DWORD PTR ModuleInfo+352, eax
	mov	DWORD PTR [rbx+12], eax
$LN24@HllExitDir:

; 1938 :     AddLineQueueX(JMPPREFIX "jmp %s", GetLabelStr(hll->labels[LEXIT], buff));

	mov	r8d, DWORD PTR [rbx+12]
	lea	rdx, OFFSET FLAT:$SG11064
	lea	rcx, QWORD PTR buff$[rsp]
	call	sprintf
	lea	rdx, QWORD PTR buff$[rsp]
	lea	rcx, OFFSET FLAT:$SG11862
	call	AddLineQueueX

; 1939 : 
; 1940 :     if (hll->labels[LTEST] > 0) {

	mov	r8d, DWORD PTR [rbx+8]
	test	r8d, r8d
	je	SHORT $LN25@HllExitDir

; 1941 :       AddLineQueueX("%s" LABELQUAL, GetLabelStr(hll->labels[LTEST], buff));

	lea	rdx, OFFSET FLAT:$SG11064
	lea	rcx, QWORD PTR buff$[rsp]
	call	sprintf
	lea	rdx, QWORD PTR buff$[rsp]
	lea	rcx, OFFSET FLAT:$SG11864
	call	AddLineQueueX

; 1942 :       hll->labels[LTEST] = 0;

	mov	DWORD PTR [rbx+8], esi
$LN25@HllExitDir:

; 1943 :     }
; 1944 :     i++;

	inc	DWORD PTR i$[rbp-256]

; 1945 :     if (cmd == T_DOT_ELSEIF) {

	cmp	edi, 334				; 0000014eH
	jne	$LN26@HllExitDir

; 1946 :       /* create new labels[LTEST] label */
; 1947 :       hll->labels[LTEST] = GetHllLabel();

	mov	eax, DWORD PTR ModuleInfo+352

; 1948 :       rc = EvaluateHllExpression(hll, &i, tokenarray, LTEST, FALSE, buffer);

	lea	rdx, QWORD PTR i$[rbp-256]
	inc	eax
	mov	QWORD PTR hllop$2[rsp], rsi
	mov	DWORD PTR ModuleInfo+352, eax
	xor	r9d, r9d
	mov	DWORD PTR [rbx+8], eax
	mov	r8, r12
	lea	rax, QWORD PTR hllop$2[rsp]
	mov	DWORD PTR hllop$2[rsp+8], esi
	mov	QWORD PTR [rsp+48], rax
	mov	rcx, rbx
	lea	rax, QWORD PTR buffer$[rsp]
	mov	BYTE PTR buffer$[rsp], sil
	mov	QWORD PTR [rsp+40], rax
	mov	BYTE PTR [rsp+32], sil
	call	GetExpression
	cmp	eax, -1
	jne	SHORT $LN62@HllExitDir
	or	esi, eax
	jmp	$LN39@HllExitDir
$LN62@HllExitDir:
	movsxd	rax, DWORD PTR i$[rbp-256]
	shl	rax, 5
	cmp	BYTE PTR [rax+r12], sil
	je	SHORT $LN63@HllExitDir
	mov	ecx, 199				; 000000c7H
	call	EmitError
	mov	esi, eax

; 1949 :       if (rc == NOT_ERROR)

	test	eax, eax
	jne	$LN39@HllExitDir

; 1948 :       rc = EvaluateHllExpression(hll, &i, tokenarray, LTEST, FALSE, buffer);

$LN63@HllExitDir:

; 1950 :         QueueTestLines(buffer);

	lea	rbx, QWORD PTR buffer$[rsp]
	npad	8
$LL66@HllExitDir:
	mov	edx, 10
	mov	rcx, rbx
	mov	rdi, rbx
	call	strchr
	mov	rbx, rax
	test	rax, rax
	je	SHORT $LN68@HllExitDir
	mov	BYTE PTR [rax], 0
	inc	rbx
$LN68@HllExitDir:
	cmp	BYTE PTR [rdi], 0
	je	SHORT $LN69@HllExitDir
	mov	rcx, rdi
	call	AddLineQueue
$LN69@HllExitDir:
	test	rbx, rbx
	jne	SHORT $LL66@HllExitDir

; 1951 :     }

	jmp	$LN39@HllExitDir
$LN26@HllExitDir:

; 1952 :     else
; 1953 :       hll->flags |= HLLF_ELSEOCCURED;

	or	DWORD PTR [rbx+80], 1

; 1954 : 
; 1955 :     break;

	jmp	$LN39@HllExitDir
	npad	2
$LL116@HllExitDir:

; 1956 :   case T_DOT_BREAK:
; 1957 :   case T_DOT_CONTINUE:
; 1958 :     for (; hll && hll->cmd == HLL_IF; hll = hll->next);

	cmp	DWORD PTR [rbx+72], esi
	jne	SHORT $LN30@HllExitDir
	mov	rbx, QWORD PTR [rbx]
	test	rbx, rbx
	jne	SHORT $LL116@HllExitDir
$LN123@HllExitDir:

; 1959 :     if (hll == NULL) {
; 1960 :       return(EmitError(DIRECTIVE_MUST_BE_IN_CONTROL_BLOCK));

	mov	ecx, 245				; 000000f5H
	call	EmitError
	jmp	$LN120@HllExitDir
$LN30@HllExitDir:

; 1961 :     }
; 1962 :     /* v2.11: create 'exit' and 'test' labels delayed.
; 1963 :     */
; 1964 :     if (cmd == T_DOT_BREAK) {

	cmp	edi, 331				; 0000014bH
	jne	SHORT $LN31@HllExitDir

; 1965 :       if (hll->labels[LEXIT] == 0)

	cmp	DWORD PTR [rbx+12], esi
	jne	SHORT $LN33@HllExitDir

; 1966 :         hll->labels[LEXIT] = GetHllLabel();

	mov	eax, DWORD PTR ModuleInfo+352
	inc	eax
	mov	DWORD PTR ModuleInfo+352, eax
	mov	DWORD PTR [rbx+12], eax
$LN33@HllExitDir:

; 1967 :       idx = LEXIT;

	mov	ecx, 1

; 1968 :     }

	jmp	SHORT $LN35@HllExitDir
$LN31@HllExitDir:

; 1969 :     else if (hll->cmd == HLL_FOR) {

	mov	eax, DWORD PTR [rbx+72]
	cmp	eax, r13d
	jne	SHORT $LN34@HllExitDir

; 1970 :       /* added by habran 
; 1971 :          .CONTINUE label is created here for .FOR loops only if it exists.
; 1972 :          It is different than .WHILE because it has to first alter counters
; 1973 :       */
; 1974 :         if (hll->labels[LCONT] == 0) hll->labels[LCONT] = GetHllLabel();

	cmp	DWORD PTR [rbx+24], esi
	jne	SHORT $LN36@HllExitDir
	mov	eax, DWORD PTR ModuleInfo+352
	inc	eax
	mov	DWORD PTR ModuleInfo+352, eax
	mov	DWORD PTR [rbx+24], eax
$LN36@HllExitDir:

; 1975 :         idx = (hll->labels[LCONT] ? LCONT : LSTART);

	cmp	DWORD PTR [rbx+24], esi
	mov	ecx, 2
	cmovne	ecx, r13d

; 1976 :       }else {

	jmp	SHORT $LN35@HllExitDir
$LN34@HllExitDir:

; 1977 :             /* 'test' is not created for .WHILE loops here; because
; 1978 :              * if it doesn't exist, there's no condition to test.
; 1979 :              */
; 1980 :             if ( hll->cmd == HLL_REPEAT && hll->labels[LTEST] == 0 )

	cmp	eax, 2
	jne	SHORT $LN37@HllExitDir
	cmp	DWORD PTR [rbx+8], esi
	jne	SHORT $LN37@HllExitDir

; 1981 :                 hll->labels[LTEST] = GetHllLabel();

	mov	eax, DWORD PTR ModuleInfo+352
	inc	eax
	mov	DWORD PTR ModuleInfo+352, eax
	mov	DWORD PTR [rbx+8], eax
$LN37@HllExitDir:

; 1982 :             idx = ( hll->labels[LTEST] ? LTEST : LSTART );

	cmp	DWORD PTR [rbx+8], esi
	mov	ecx, 2
	cmovne	ecx, esi
$LN35@HllExitDir:

; 1983 :         }
; 1984 : 
; 1985 :     /* .BREAK .IF ... or .CONTINUE .IF ? */
; 1986 :     i++;

	mov	eax, DWORD PTR i$[rbp-256]
	inc	eax
	mov	DWORD PTR i$[rbp-256], eax

; 1987 :     if (tokenarray[i].token != T_FINAL) {

	cdqe
	shl	rax, 5
	lea	rdx, QWORD PTR [rax+r12]
	movzx	eax, BYTE PTR [rax+r12]
	test	al, al
	je	$LN38@HllExitDir

; 1988 :       if (tokenarray[i].token == T_DIRECTIVE && tokenarray[i].tokval == T_DOT_IF) {

	cmp	al, 3
	jne	$LN39@HllExitDir
	cmp	DWORD PTR [rdx+16], 327			; 00000147H
	jne	$LN39@HllExitDir

; 1989 :         enum hll_cmd savedcmd = hll->cmd;
; 1990 :         hll->cmd = HLL_BREAK;
; 1991 :         i++;
; 1992 :         /* v2.11: set rc and don't exit if an error occurs; see hll3.aso */
; 1993 :         rc = EvaluateHllExpression(hll, &i, tokenarray, idx, TRUE, buffer);

	lea	rax, QWORD PTR hllop$1[rsp]
	mov	QWORD PTR [rsp+2144], r15
	mov	r15d, DWORD PTR [rbx+72]
	lea	rdx, QWORD PTR i$[rbp-256]
	mov	QWORD PTR [rsp+48], rax
	mov	r9d, ecx
	mov	DWORD PTR [rbx+72], 3
	lea	rax, QWORD PTR buffer$[rsp]
	inc	DWORD PTR i$[rbp-256]
	mov	r8, r12
	mov	QWORD PTR [rsp+40], rax
	mov	rcx, rbx
	mov	BYTE PTR [rsp+32], 1
	mov	QWORD PTR hllop$1[rsp], rsi
	mov	DWORD PTR hllop$1[rsp+8], esi
	mov	BYTE PTR buffer$[rsp], sil
	call	GetExpression
	cmp	eax, -1
	jne	SHORT $LN78@HllExitDir

; 1996 :         hll->cmd = savedcmd;

	mov	DWORD PTR [rbx+72], r15d
	or	esi, eax
	mov	r15, QWORD PTR [rsp+2144]

; 1997 :       }
; 1998 :     }

	jmp	$LN39@HllExitDir

; 1989 :         enum hll_cmd savedcmd = hll->cmd;
; 1990 :         hll->cmd = HLL_BREAK;
; 1991 :         i++;
; 1992 :         /* v2.11: set rc and don't exit if an error occurs; see hll3.aso */
; 1993 :         rc = EvaluateHllExpression(hll, &i, tokenarray, idx, TRUE, buffer);

$LN78@HllExitDir:
	movsxd	rax, DWORD PTR i$[rbp-256]
	shl	rax, 5
	cmp	BYTE PTR [rax+r12], sil
	je	SHORT $LN79@HllExitDir
	mov	ecx, 199				; 000000c7H
	call	EmitError
	mov	esi, eax

; 1994 :         if (rc == NOT_ERROR)

	test	eax, eax
	jne	SHORT $LN83@HllExitDir

; 1989 :         enum hll_cmd savedcmd = hll->cmd;
; 1990 :         hll->cmd = HLL_BREAK;
; 1991 :         i++;
; 1992 :         /* v2.11: set rc and don't exit if an error occurs; see hll3.aso */
; 1993 :         rc = EvaluateHllExpression(hll, &i, tokenarray, idx, TRUE, buffer);

$LN79@HllExitDir:

; 1995 :           QueueTestLines(buffer);

	mov	QWORD PTR [rsp+2152], r14
	lea	rdi, QWORD PTR buffer$[rsp]
	npad	8
$LL82@HllExitDir:
	mov	edx, 10
	mov	rcx, rdi
	mov	r14, rdi
	call	strchr
	mov	rdi, rax
	test	rax, rax
	je	SHORT $LN84@HllExitDir
	mov	BYTE PTR [rax], 0
	inc	rdi
$LN84@HllExitDir:
	cmp	BYTE PTR [r14], 0
	je	SHORT $LN85@HllExitDir
	mov	rcx, r14
	call	AddLineQueue
$LN85@HllExitDir:
	test	rdi, rdi
	jne	SHORT $LL82@HllExitDir
	mov	r14, QWORD PTR [rsp+2152]
$LN83@HllExitDir:

; 1996 :         hll->cmd = savedcmd;

	mov	DWORD PTR [rbx+72], r15d
	mov	r15, QWORD PTR [rsp+2144]

; 1997 :       }
; 1998 :     }

	jmp	SHORT $LN39@HllExitDir
$LN38@HllExitDir:

; 1999 :     else {
; 2000 :       AddLineQueueX(JMPPREFIX "jmp %s", GetLabelStr(hll->labels[idx], buff));

	movsxd	rax, ecx
	lea	rdx, OFFSET FLAT:$SG11064
	lea	rcx, QWORD PTR buff$[rsp]
	mov	r8d, DWORD PTR [rbx+rax*4+8]
	call	sprintf
	lea	rdx, QWORD PTR buff$[rsp]
	lea	rcx, OFFSET FLAT:$SG11881
	call	AddLineQueueX
$LN39@HllExitDir:

; 2001 :     }
; 2002 :     break;
; 2003 : #ifdef DEBUG_OUT
; 2004 :   default: /**/myassert(0); break;
; 2005 : #endif
; 2006 :   }
; 2007 :   if (tokenarray[i].token != T_FINAL && rc == NOT_ERROR) {

	movsxd	rax, DWORD PTR i$[rbp-256]
	shl	rax, 5
	cmp	BYTE PTR [rax+r12], 0
	je	SHORT $LN42@HllExitDir
	test	esi, esi
	jne	SHORT $LN42@HllExitDir

; 2008 :     EmitErr(SYNTAX_ERROR_EX, tokenarray[i].tokpos);

	mov	rdx, QWORD PTR [rax+r12+24]
	mov	ecx, 209				; 000000d1H
	call	EmitErr

; 2009 :     rc = ERROR;

	or	esi, -1
$LN42@HllExitDir:

; 2010 :   }
; 2011 : 
; 2012 :   if (ModuleInfo.list)

	test	DWORD PTR ModuleInfo+408, 2048		; 00000800H
	je	SHORT $LN43@HllExitDir

; 2013 :     LstWrite(LSTTYPE_DIRECTIVE, GetCurrOffset(), NULL);

	call	GetCurrOffset
	mov	edx, eax
	xor	r8d, r8d
	mov	ecx, r13d
	call	LstWrite
$LN43@HllExitDir:

; 2014 : 
; 2015 :   /* v2.11: always run line-queue if it's not empty. */
; 2016 :   if (is_linequeue_populated())

	cmp	QWORD PTR ModuleInfo+184, 0
	je	SHORT $LN44@HllExitDir

; 2017 :     RunLineQueue();

	call	RunLineQueue
$LN44@HllExitDir:

; 2018 : 
; 2019 :   return(rc);

	mov	eax, esi
$LN120@HllExitDir:
	mov	r13, QWORD PTR [rsp+2224]

; 2020 : }

	add	rsp, 2160				; 00000870H
	pop	r12
	pop	rdi
	pop	rsi
	pop	rbx
	pop	rbp
	ret	0
	npad	2
$LN110@HllExitDir:
	DD	$LL116@HllExitDir
	DD	$LL116@HllExitDir
	DD	$LN21@HllExitDir
	DD	$LN21@HllExitDir
	DD	$LN39@HllExitDir
	DD	$LN39@HllExitDir
	DD	$LN39@HllExitDir
	DD	$LN39@HllExitDir
	DD	$LN39@HllExitDir
	DD	$LN39@HllExitDir
	DD	$LN10@HllExitDir
	DD	$LN8@HllExitDir
HllExitDir ENDP
_TEXT	ENDS
; Function compile flags: /Ogtpy
; File d:\hjwasm\hjwasm2.13.1s\hjwasm2.13.1s\hll.c
_TEXT	SEGMENT
buff$ = 64
hllop$1 = 80
hllop$2 = 80
buffer$ = 96
i$ = 2192
tokenarray$ = 2200
HllEndDir PROC

; 1496 : {

$LN205:
	mov	DWORD PTR [rsp+8], ecx
	push	rbp
	push	rbx
	push	rsi
	push	r12
	lea	rbp, QWORD PTR [rsp-1896]
	sub	rsp, 2152				; 00000868H

; 1497 :   //struct asym       *sym;
; 1498 :   struct hll_item     *hll;
; 1499 :   ret_code            rc = NOT_ERROR;
; 1500 :   int                 cmd = tokenarray[i].tokval;
; 1501 :   int                 j,n;
; 1502 :   int                 temp;
; 1503 :   char buff[16];
; 1504 :   //char buffer[MAX_LINE_LEN*2];
; 1505 : 
; 1506 : 
; 1507 :   char buffer[MAX_LINE_LEN * 2];
; 1508 : 
; 1509 :   DebugMsg1(("HllEndDir(%s) enter\n", tokenarray[i].string_ptr));
; 1510 : 
; 1511 :   if (HllStack == NULL) {

	mov	rbx, QWORD PTR ModuleInfo+224
	xor	esi, esi
	movsxd	rax, ecx
	mov	r12, rdx
	shl	rax, 5
	mov	ecx, DWORD PTR [rax+rdx+16]
	test	rbx, rbx
	jne	SHORT $LN15@HllEndDir

; 1512 :     DebugMsg(("HllEndDir: hll stack is empty\n"));
; 1513 :     return(EmitError(DIRECTIVE_MUST_BE_IN_CONTROL_BLOCK));

	mov	ecx, 245				; 000000f5H
	call	EmitError

; 1834 : }

	add	rsp, 2152				; 00000868H
	pop	r12
	pop	rsi
	pop	rbx
	pop	rbp
	ret	0
$LN15@HllEndDir:

; 1514 :   }
; 1515 : 
; 1516 :   hll = HllStack;
; 1517 :   HllStack = hll->next;

	mov	rax, QWORD PTR [rbx]
	mov	QWORD PTR ModuleInfo+224, rax

; 1518 :   /* v2.06: move the item to the free stack */
; 1519 :   hll->next = HllFree;

	mov	rax, QWORD PTR ModuleInfo+232
	mov	QWORD PTR [rbx], rax

; 1520 :   HllFree = hll;
; 1521 : 
; 1522 :   switch (cmd) {

	lea	eax, DWORD PTR [rcx-335]
	mov	QWORD PTR [rsp+2200], rdi
	mov	QWORD PTR [rsp+2216], r14
	mov	QWORD PTR ModuleInfo+232, rbx
	cmp	eax, 8
	ja	$LN193@HllEndDir
	lea	rdx, OFFSET FLAT:__ImageBase
	cdqe
	mov	ecx, DWORD PTR $LN190@HllEndDir[rdx+rax*4]
	add	rcx, rdx
	jmp	rcx
$LN16@HllEndDir:

; 1523 :   case T_DOT_ENDIF:
; 1524 :     if (hll->cmd != HLL_IF) {

	cmp	DWORD PTR [rbx+72], esi
	jne	$LN203@HllEndDir

; 1525 :       DebugMsg(("HllEndDir: no .IF on the hll stack\n"));
; 1526 :       return(EmitErr(BLOCK_NESTING_ERROR, tokenarray[i].string_ptr));
; 1527 :     }
; 1528 :     i++;

	inc	DWORD PTR i$[rbp-256]

; 1529 :     /* if a test label isn't created yet, create it */
; 1530 :     if (hll->labels[LTEST]) {

	mov	r8d, DWORD PTR [rbx+8]
	test	r8d, r8d
	je	$LN193@HllEndDir

; 1531 :       AddLineQueueX("%s" LABELQUAL, GetLabelStr(hll->labels[LTEST], buff));

	lea	rdx, OFFSET FLAT:$SG11064
	lea	rcx, QWORD PTR buff$[rsp]
	call	sprintf
	lea	rdx, QWORD PTR buff$[rsp]
	lea	rcx, OFFSET FLAT:$SG11699
	call	AddLineQueueX

; 1532 :     }
; 1533 :     break;

	jmp	$LN193@HllEndDir
$LN19@HllEndDir:

; 1534 :     // added by habran
; 1535 :   case T_DOT_ENDSWITCH:
; 1536 : 	  if ( hll->cmd != HLL_SWITCH ){

	cmp	DWORD PTR [rbx+72], 5
	je	SHORT $LN20@HllEndDir

; 1537 :       DebugMsg(("HllExitDir stack error\n"));
; 1538 :       return(EmitError(DIRECTIVE_MUST_BE_IN_CONTROL_BLOCK));

	mov	ecx, 245				; 000000f5H
	call	EmitError
	jmp	$LN201@HllEndDir
$LN20@HllEndDir:

; 1539 :     }
; 1540 : 	  i++;

	inc	DWORD PTR i$[rbp-256]

; 1541 :     casen = hll->casecnt;
; 1542 :     AddLineQueueX("%s" LABELQUAL, GetLabelStr(hll->labels[LSTART], buff));   

	lea	rdx, OFFSET FLAT:$SG11064
	mov	eax, DWORD PTR [rbx+68]
	lea	rcx, QWORD PTR buff$[rsp]
	mov	DWORD PTR casen, eax
	mov	r8d, DWORD PTR [rbx+16]
	call	sprintf
	lea	rdx, QWORD PTR buff$[rsp]
	lea	rcx, OFFSET FLAT:$SG11702
	call	AddLineQueueX

; 1543 :       if (Parse_Pass){

	cmp	DWORD PTR Parse_Pass, esi
	je	$LN31@HllEndDir

; 1544 :         if (casen < 4)  

	mov	r8d, DWORD PTR casen
	cmp	r8d, 4
	jge	SHORT $LN22@HllEndDir

; 1545 :           hll->cflag = 1;

	mov	BYTE PTR [rbx+77], 1
	jmp	SHORT $LN25@HllEndDir
$LN22@HllEndDir:

; 1546 :         else 
; 1547 :         {
; 1548 :           if (plabels){

	mov	rcx, QWORD PTR plabels
	test	rcx, rcx
	je	SHORT $LN25@HllEndDir

; 1549 :             bubblesort(plabels, pcases, casen);

	mov	rdx, QWORD PTR pcases
	call	bubblesort

; 1550 :             if (delta < 256)

	cmp	DWORD PTR delta, 256			; 00000100H
	setge	al
	add	al, 2
	mov	BYTE PTR [rbx+77], al
$LN25@HllEndDir:

; 1551 :               hll->cflag = 2;
; 1552 :             else
; 1553 :               hll->cflag = 3;
; 1554 :           }
; 1555 :         }
; 1556 :         if (hll->cflag == 1){

	movzx	eax, BYTE PTR [rbx+77]
	cmp	al, 1
	jne	$LN27@HllEndDir

; 1557 :           AddLineQueueX("cmp  eax,%d",pcases[0]);

	mov	rax, QWORD PTR pcases
	lea	rcx, OFFSET FLAT:$SG11711
	mov	edx, DWORD PTR [rax]
	call	AddLineQueueX

; 1558 :           AddLineQueueX("je  %s", GetLabelStr(plabels[0], buff));

	mov	rax, QWORD PTR plabels
	lea	rdx, OFFSET FLAT:$SG11064
	lea	rcx, QWORD PTR buff$[rsp]
	movzx	r8d, WORD PTR [rax]
	call	sprintf
	lea	rdx, QWORD PTR buff$[rsp]
	lea	rcx, OFFSET FLAT:$SG11712
	call	AddLineQueueX

; 1559 :           AddLineQueueX("cmp  eax,%d",pcases[1]);

	mov	rax, QWORD PTR pcases
	lea	rcx, OFFSET FLAT:$SG11713
	mov	edx, DWORD PTR [rax+4]
	call	AddLineQueueX

; 1560 :           AddLineQueueX("je  %s", GetLabelStr(plabels[1], buff));

	mov	rax, QWORD PTR plabels
	lea	rdx, OFFSET FLAT:$SG11064
	lea	rcx, QWORD PTR buff$[rsp]
	movzx	r8d, WORD PTR [rax+2]
	call	sprintf
	lea	rdx, QWORD PTR buff$[rsp]
	lea	rcx, OFFSET FLAT:$SG11714
	call	AddLineQueueX

; 1561 :           AddLineQueueX("cmp  eax,%d",pcases[2]);

	mov	rax, QWORD PTR pcases
	lea	rcx, OFFSET FLAT:$SG11715
	mov	edx, DWORD PTR [rax+8]
	call	AddLineQueueX

; 1562 :           AddLineQueueX("je  %s", GetLabelStr(plabels[2], buff));

	mov	rax, QWORD PTR plabels
	lea	rdx, OFFSET FLAT:$SG11064
	lea	rcx, QWORD PTR buff$[rsp]
	movzx	r8d, WORD PTR [rax+4]
	call	sprintf
	lea	rdx, QWORD PTR buff$[rsp]
	lea	rcx, OFFSET FLAT:$SG11716
	call	AddLineQueueX

; 1563 :           AddLineQueueX("jmp %s", GetLabelStr(hll->labels[LDEF], buff));

	mov	r8d, DWORD PTR [rbx+28]
	lea	rdx, OFFSET FLAT:$SG11064
	lea	rcx, QWORD PTR buff$[rsp]
	call	sprintf
	lea	rcx, OFFSET FLAT:$SG11717

; 1564 :         }

	jmp	$LN202@HllEndDir
$LN27@HllEndDir:

; 1565 :         else if (hll->cflag == 2){

	cmp	al, 2
	jne	$LN29@HllEndDir

; 1566 :           AddLineQueueX("cmp eax,%d",maxcase);

	mov	edx, DWORD PTR maxcase
	lea	rcx, OFFSET FLAT:$SG11720
	call	AddLineQueueX

; 1567 :           AddLineQueueX("ja  %s", GetLabelStr(hll->labels[LDEF], buff));

	mov	r8d, DWORD PTR [rbx+28]
	lea	rdx, OFFSET FLAT:$SG11064
	lea	rcx, QWORD PTR buff$[rsp]
	call	sprintf
	lea	rdx, QWORD PTR buff$[rsp]
	lea	rcx, OFFSET FLAT:$SG11721
	call	AddLineQueueX

; 1568 :           AddLineQueueX("sub eax,%d",mincase);

	mov	edx, DWORD PTR mincase
	lea	rcx, OFFSET FLAT:$SG11722
	call	AddLineQueueX

; 1569 :           AddLineQueueX("jc  %s", GetLabelStr(hll->labels[LDEF], buff));

	mov	r8d, DWORD PTR [rbx+28]
	lea	rdx, OFFSET FLAT:$SG11064
	lea	rcx, QWORD PTR buff$[rsp]
	call	sprintf
	lea	rdx, QWORD PTR buff$[rsp]
	lea	rcx, OFFSET FLAT:$SG11723
	call	AddLineQueueX

; 1570 : #ifdef _WIN64
; 1571 :           AddLineQueueX("lea  rdx,%s", GetLabelStr(hll->labels[LDATA2], buff));

	mov	r8d, DWORD PTR [rbx+36]
	lea	rdx, OFFSET FLAT:$SG11064
	lea	rcx, QWORD PTR buff$[rsp]
	call	sprintf
	lea	rdx, QWORD PTR buff$[rsp]
	lea	rcx, OFFSET FLAT:$SG11724
	call	AddLineQueueX

; 1572 :           AddLineQueueX("movzx  rax,BYTE PTR[rdx+rax]");

	lea	rcx, OFFSET FLAT:$SG11725
	call	AddLineQueueX

; 1573 :           AddLineQueueX("lea  rdx,%s", GetLabelStr(hll->labels[LDATA1], buff));

	mov	r8d, DWORD PTR [rbx+32]
	lea	rdx, OFFSET FLAT:$SG11064
	lea	rcx, QWORD PTR buff$[rsp]
	call	sprintf
	lea	rdx, QWORD PTR buff$[rsp]
	lea	rcx, OFFSET FLAT:$SG11726
	call	AddLineQueueX

; 1574 :           AddLineQueueX("jmp  QWORD PTR[rdx+rax*8]");

	lea	rcx, OFFSET FLAT:$SG11727
	call	AddLineQueueX

; 1575 : #else
; 1576 :           AddLineQueueX("lea  edx,%s", GetLabelStr(hll->labels[LDATA2], buff));
; 1577 :           AddLineQueueX("movzx  eax,BYTE PTR[edx+eax]");
; 1578 :           AddLineQueueX("lea  edx,%s", GetLabelStr(hll->labels[LDATA1], buff));
; 1579 :           AddLineQueueX("jmp  DWORD PTR[edx+eax*4]");
; 1580 : #endif
; 1581 : 
; 1582 :         }

	jmp	$LN31@HllEndDir
$LN29@HllEndDir:

; 1583 :         /* simple binary tree 
; 1584 :          while (low <= high) {
; 1585 :             int mid = (low + high) / 2;
; 1586 :             if (pcases[mid] == casen) 
; 1587 :               return mid;
; 1588 :             else if (pcases[mid] < x) 
; 1589 :               low = mid + 1;
; 1590 :             else high = mid - 1;
; 1591 :          }*/
; 1592 :        else if (hll->cflag == 3){

	cmp	al, 3
	jne	$LN31@HllEndDir

; 1593 : #ifdef _WIN64
; 1594 :           AddLineQueueX("mov     r8d,eax");

	lea	rcx, OFFSET FLAT:$SG11729
	call	AddLineQueueX

; 1595 :           AddLineQueueX("mov     r10d,%d", casen - 1)  ;//int high = len - 1;

	mov	edx, DWORD PTR casen
	lea	rcx, OFFSET FLAT:$SG11730
	dec	edx
	call	AddLineQueueX

; 1596 :           AddLineQueueX("xor     r9d,r9d")      ;//int low = 0;

	lea	rcx, OFFSET FLAT:$SG11731
	call	AddLineQueueX

; 1597 :           AddLineQueueX("lea     r11,%s", GetLabelStr(hll->labels[LDATA2], buff));//int pcases

	mov	r8d, DWORD PTR [rbx+36]
	lea	rdx, OFFSET FLAT:$SG11064
	lea	rcx, QWORD PTR buff$[rsp]
	call	sprintf
	lea	rdx, QWORD PTR buff$[rsp]
	lea	rcx, OFFSET FLAT:$SG11732
	call	AddLineQueueX

; 1598 :           AddLineQueueX("test    r10d,r10d")     ;//while (low <= high) {

	lea	rcx, OFFSET FLAT:$SG11733
	call	AddLineQueueX

; 1599 :           AddLineQueueX("js      %s", GetLabelStr(hll->labels[LDEF], buff));

	mov	r8d, DWORD PTR [rbx+28]
	lea	rdx, OFFSET FLAT:$SG11064
	lea	rcx, QWORD PTR buff$[rsp]
	call	sprintf
	lea	rcx, OFFSET FLAT:$SG11734
$LN202@HllEndDir:
	lea	rdx, QWORD PTR buff$[rsp]
	call	AddLineQueueX
$LN31@HllEndDir:

; 1600 : #else
; 1601 :           AddLineQueueX("push	ebx");
; 1602 :           AddLineQueueX("push	esi");
; 1603 :           AddLineQueueX("push	edi");
; 1604 :           AddLineQueueX("mov     esi,eax");
; 1605 :           AddLineQueueX("mov     ebx,%d", casen - 1)  ;//int high = len - 1;
; 1606 :           AddLineQueueX("xor     ecx,ecx")      ;//int low = 0;
; 1607 :           AddLineQueueX("lea     edi,%s", GetLabelStr(hll->labels[LDATA2], buff));//int pcases
; 1608 :           AddLineQueueX("test    ebx,ebx")     ;//while (low <= high) {
; 1609 :           AddLineQueueX("js      %s", GetLabelStr(hll->labels[LDEF], buff));
; 1610 : #endif
; 1611 :         }
; 1612 :       }
; 1613 :       AddLineQueueX("%s" LABELQUAL, GetLabelStr(hll->labels[LTOP], buff)); 

	mov	r8d, DWORD PTR [rbx+40]
	lea	rdx, OFFSET FLAT:$SG11064
	lea	rcx, QWORD PTR buff$[rsp]
	call	sprintf
	lea	rdx, QWORD PTR buff$[rsp]
	lea	rcx, OFFSET FLAT:$SG11735
	call	AddLineQueueX

; 1614 :       if (Parse_Pass){

	cmp	DWORD PTR Parse_Pass, esi
	je	$LN33@HllEndDir

; 1615 :         if (hll->cflag == 3){

	cmp	BYTE PTR [rbx+77], 3
	jne	$LN33@HllEndDir

; 1616 : #ifdef _WIN64
; 1617 :           AddLineQueueX("lea     eax,[r10+r9]");//int mid = (low + high) / 2;

	lea	rcx, OFFSET FLAT:$SG11738
	call	AddLineQueueX

; 1618 :           AddLineQueueX("cdq");

	lea	rcx, OFFSET FLAT:$SG11739
	call	AddLineQueueX

; 1619 :           AddLineQueueX("sub     eax,edx");

	lea	rcx, OFFSET FLAT:$SG11740
	call	AddLineQueueX

; 1620 :           AddLineQueueX("sar     eax,1");

	lea	rcx, OFFSET FLAT:$SG11741
	call	AddLineQueueX

; 1621 :           AddLineQueueX("movsxd  rcx,eax");//if (pcases[mid] == x) return mid;

	lea	rcx, OFFSET FLAT:$SG11742
	call	AddLineQueueX

; 1622 :           AddLineQueueX("cmp     [r11+rcx*4],r8d");

	lea	rcx, OFFSET FLAT:$SG11743
	call	AddLineQueueX

; 1623 :           AddLineQueueX("je  %s", GetLabelStr(hll->labels[LJUMP], buff));

	mov	r8d, DWORD PTR [rbx+44]
	lea	rdx, OFFSET FLAT:$SG11064
	lea	rcx, QWORD PTR buff$[rsp]
	call	sprintf
	lea	rdx, QWORD PTR buff$[rsp]
	lea	rcx, OFFSET FLAT:$SG11744
	call	AddLineQueueX

; 1624 :           AddLineQueueX("jge %s", GetLabelStr(hll->labels[LSKIP], buff));//else if (pcases[mid] < casen) 

	mov	r8d, DWORD PTR [rbx+20]
	lea	rdx, OFFSET FLAT:$SG11064
	lea	rcx, QWORD PTR buff$[rsp]
	call	sprintf
	lea	rdx, QWORD PTR buff$[rsp]
	lea	rcx, OFFSET FLAT:$SG11745
	call	AddLineQueueX

; 1625 :           AddLineQueueX("lea     r9d,[rax+1]");                          //low = mid + 1

	lea	rcx, OFFSET FLAT:$SG11746
	call	AddLineQueueX

; 1626 :           AddLineQueueX("jmp %s", GetLabelStr(hll->labels[LCONT], buff));

	mov	r8d, DWORD PTR [rbx+24]
	lea	rdx, OFFSET FLAT:$SG11064
	lea	rcx, QWORD PTR buff$[rsp]
	call	sprintf
	lea	rdx, QWORD PTR buff$[rsp]
	lea	rcx, OFFSET FLAT:$SG11747
	call	AddLineQueueX
$LN33@HllEndDir:

; 1627 : #else
; 1628 :           AddLineQueueX("lea     eax,[ecx + ebx]");//int eax = (ecx + ebx) / 2;
; 1629 :           AddLineQueueX("cdq");
; 1630 :           AddLineQueueX("sub     eax,edx");
; 1631 :           AddLineQueueX("sar     eax,1");
; 1632 :           AddLineQueueX("cmp     [edi+eax*4],esi");
; 1633 :           AddLineQueueX("je  %s", GetLabelStr(hll->labels[LJUMP], buff));
; 1634 :           AddLineQueueX("jge %s", GetLabelStr(hll->labels[LSKIP], buff));//else if (pcases[mid] < casen) 
; 1635 :           AddLineQueueX("lea     ecx,[eax+1]");                          //low = mid + 1
; 1636 :           AddLineQueueX("jmp %s", GetLabelStr(hll->labels[LCONT], buff));
; 1637 : 
; 1638 : #endif
; 1639 :         }
; 1640 :       }
; 1641 :          AddLineQueueX("%s" LABELQUAL, GetLabelStr(hll->labels[LJUMP], buff));

	mov	r8d, DWORD PTR [rbx+44]
	lea	rdx, OFFSET FLAT:$SG11064
	lea	rcx, QWORD PTR buff$[rsp]
	call	sprintf
	lea	rdx, QWORD PTR buff$[rsp]
	lea	rcx, OFFSET FLAT:$SG11748
	call	AddLineQueueX

; 1642 :          if (Parse_Pass){

	cmp	DWORD PTR Parse_Pass, esi
	je	SHORT $LN35@HllEndDir

; 1643 :            if (hll->cflag == 3){

	cmp	BYTE PTR [rbx+77], 3
	jne	SHORT $LN35@HllEndDir

; 1644 : #ifdef _WIN64
; 1645 :              AddLineQueueX("lea     r11,%s", GetLabelStr(hll->labels[LDATA1], buff));

	mov	r8d, DWORD PTR [rbx+32]
	lea	rdx, OFFSET FLAT:$SG11064
	lea	rcx, QWORD PTR buff$[rsp]
	call	sprintf
	lea	rdx, QWORD PTR buff$[rsp]
	lea	rcx, OFFSET FLAT:$SG11751
	call	AddLineQueueX

; 1646 :              AddLineQueueX("jmp     qword ptr[r11+rcx*8]");

	lea	rcx, OFFSET FLAT:$SG11752
	call	AddLineQueueX
$LN35@HllEndDir:

; 1647 : #else
; 1648 :              AddLineQueueX("lea edx,%s", GetLabelStr(hll->labels[LDATA1], buff));
; 1649 :              AddLineQueueX("pop	edi");
; 1650 :              AddLineQueueX("pop	esi");
; 1651 :              AddLineQueueX("pop	ebx");
; 1652 :              AddLineQueueX("jmp dword ptr[edx+eax*4]");
; 1653 : #endif
; 1654 :            }
; 1655 :          }
; 1656 :          AddLineQueueX("%s" LABELQUAL, GetLabelStr(hll->labels[LSKIP], buff));

	mov	r8d, DWORD PTR [rbx+20]
	lea	rdx, OFFSET FLAT:$SG11064
	lea	rcx, QWORD PTR buff$[rsp]
	call	sprintf
	lea	rdx, QWORD PTR buff$[rsp]
	lea	rcx, OFFSET FLAT:$SG11753
	call	AddLineQueueX

; 1657 :         if (Parse_Pass){

	cmp	DWORD PTR Parse_Pass, esi
	je	SHORT $LN37@HllEndDir

; 1658 :           if (hll->cflag == 3){

	cmp	BYTE PTR [rbx+77], 3
	jne	SHORT $LN37@HllEndDir

; 1659 : #ifdef _WIN64
; 1660 :             AddLineQueueX("lea     r10d,[rax-1]");//else high = mid - 1;

	lea	rcx, OFFSET FLAT:$SG11756
	call	AddLineQueueX
$LN37@HllEndDir:

; 1661 : #else
; 1662 :            AddLineQueueX("lea     ebx,[eax-1]");//else high = mid - 1;
; 1663 : 
; 1664 : #endif
; 1665 :           }
; 1666 :         }
; 1667 :           AddLineQueueX("%s" LABELQUAL, GetLabelStr(hll->labels[LCONT], buff)); 

	mov	r8d, DWORD PTR [rbx+24]
	lea	rdx, OFFSET FLAT:$SG11064
	lea	rcx, QWORD PTR buff$[rsp]
	call	sprintf
	lea	rdx, QWORD PTR buff$[rsp]
	lea	rcx, OFFSET FLAT:$SG11757
	call	AddLineQueueX

; 1668 :           if (Parse_Pass){

	cmp	DWORD PTR Parse_Pass, esi
	je	SHORT $LN39@HllEndDir

; 1669 :             if (hll->cflag == 3){

	cmp	BYTE PTR [rbx+77], 3
	jne	SHORT $LN39@HllEndDir

; 1670 : #if  _WIN64
; 1671 :               AddLineQueueX("cmp     r9d,r10d");

	lea	rcx, OFFSET FLAT:$SG11760
	call	AddLineQueueX

; 1672 :               AddLineQueueX("jle %s", GetLabelStr(hll->labels[LTOP], buff));

	mov	r8d, DWORD PTR [rbx+40]
	lea	rdx, OFFSET FLAT:$SG11064
	lea	rcx, QWORD PTR buff$[rsp]
	call	sprintf
	lea	rdx, QWORD PTR buff$[rsp]
	lea	rcx, OFFSET FLAT:$SG11761
	call	AddLineQueueX

; 1673 :               AddLineQueueX("jmp  %s", GetLabelStr(hll->labels[LDEF], buff));

	mov	r8d, DWORD PTR [rbx+28]
	lea	rdx, OFFSET FLAT:$SG11064
	lea	rcx, QWORD PTR buff$[rsp]
	call	sprintf
	lea	rdx, QWORD PTR buff$[rsp]
	lea	rcx, OFFSET FLAT:$SG11762
	call	AddLineQueueX
$LN39@HllEndDir:

; 1674 : #else
; 1675 :               AddLineQueueX("cmp     ecx,ebx");
; 1676 :               AddLineQueueX("jle %s", GetLabelStr(hll->labels[LTOP], buff));
; 1677 :               AddLineQueueX("pop	edi");
; 1678 :               AddLineQueueX("pop	esi");
; 1679 :               AddLineQueueX("pop	ebx");
; 1680 :               AddLineQueueX("jmp  %s", GetLabelStr(hll->labels[LDEF], buff));
; 1681 : #endif
; 1682 :             }
; 1683 :           }
; 1684 :       AddLineQueueX("%s" LABELQUAL, GetLabelStr(hll->labels[LDATA1], buff));

	mov	r8d, DWORD PTR [rbx+32]
	lea	rdx, OFFSET FLAT:$SG11064
	lea	rcx, QWORD PTR buff$[rsp]
	call	sprintf
	lea	rdx, QWORD PTR buff$[rsp]
	lea	rcx, OFFSET FLAT:$SG11763
	call	AddLineQueueX

; 1685 : 
; 1686 :       if (hll->cflag > 1){

	cmp	BYTE PTR [rbx+77], 1
	jle	SHORT $LN40@HllEndDir

; 1687 : #ifdef _WIN64
; 1688 :         for (j = 0; j < casen; j++){

	cmp	DWORD PTR casen, esi
	mov	edi, esi
	jle	SHORT $LN5@HllEndDir
	mov	r14, rsi
$LL6@HllEndDir:

; 1689 :           AddLineQueueX(" dq %s", GetLabelStr(plabels[j], buff));

	mov	rax, QWORD PTR plabels
	lea	rdx, OFFSET FLAT:$SG11064
	lea	rcx, QWORD PTR buff$[rsp]
	movzx	r8d, WORD PTR [r14+rax]
	call	sprintf
	lea	rdx, QWORD PTR buff$[rsp]
	lea	rcx, OFFSET FLAT:$SG11765
	call	AddLineQueueX
	inc	edi
	lea	r14, QWORD PTR [r14+2]
	cmp	edi, DWORD PTR casen
	jl	SHORT $LL6@HllEndDir
$LN5@HllEndDir:

; 1690 :           }
; 1691 :         AddLineQueueX(" dq %s", GetLabelStr(hll->labels[LDEF], buff));

	mov	r8d, DWORD PTR [rbx+28]
	lea	rdx, OFFSET FLAT:$SG11064
	lea	rcx, QWORD PTR buff$[rsp]
	call	sprintf
	lea	rdx, QWORD PTR buff$[rsp]
	lea	rcx, OFFSET FLAT:$SG11766
	call	AddLineQueueX
$LN40@HllEndDir:

; 1692 : #else
; 1693 :         for (j = 0; j < casen; j++){
; 1694 :           AddLineQueueX(" dd %s", GetLabelStr(plabels[j], buff));
; 1695 :           }
; 1696 :         AddLineQueueX(" dd %s", GetLabelStr(hll->labels[LDEF], buff));
; 1697 : #endif
; 1698 :       }
; 1699 :        AddLineQueueX("%s" LABELQUAL, GetLabelStr(hll->labels[LDATA2], buff));

	mov	r8d, DWORD PTR [rbx+36]
	lea	rdx, OFFSET FLAT:$SG11064
	lea	rcx, QWORD PTR buff$[rsp]
	mov	QWORD PTR [rsp+2144], r15
	call	sprintf
	lea	rdx, QWORD PTR buff$[rsp]
	lea	rcx, OFFSET FLAT:$SG11767
	call	AddLineQueueX

; 1700 :        if (hll->cflag == 2){

	cmp	BYTE PTR [rbx+77], 2

; 1701 :            n = 0;
; 1702 :            for (j = 0; j < casen; j++){

	mov	ecx, DWORD PTR casen
	jne	SHORT $LN8@HllEndDir
	mov	r14d, esi
	mov	r15d, esi
	test	ecx, ecx
	jle	SHORT $LN8@HllEndDir
	mov	QWORD PTR [rsp+2208], r13
	mov	r13, rsi
$LL9@HllEndDir:

; 1704 :              temp -= mincase;

	mov	rax, QWORD PTR pcases
	mov	edx, DWORD PTR [rax+r13]
	sub	edx, DWORD PTR mincase

; 1705 :              while (n < temp){

	cmp	r14d, edx
	jge	SHORT $LN199@HllEndDir

; 1703 :              temp = pcases[j];

	sub	edx, r14d
	mov	edi, edx

; 1705 :              while (n < temp){

	add	r14d, edx
$LL10@HllEndDir:

; 1706 :                AddLineQueueX(" db %d", casen);

	mov	edx, ecx
	lea	rcx, OFFSET FLAT:$SG11769
	call	AddLineQueueX
	sub	rdi, 1
	je	SHORT $LN199@HllEndDir

; 1705 :              while (n < temp){

	mov	ecx, DWORD PTR casen
	jmp	SHORT $LL10@HllEndDir
$LN199@HllEndDir:

; 1707 :                n++;
; 1708 :              }
; 1709 :              AddLineQueueX(" db %d", j);

	mov	edx, r15d
	lea	rcx, OFFSET FLAT:$SG11770
	call	AddLineQueueX
	mov	ecx, DWORD PTR casen

; 1710 :              n++;

	inc	r14d
	inc	r15d
	add	r13, 4
	cmp	r15d, ecx
	jl	SHORT $LL9@HllEndDir
	mov	r13, QWORD PTR [rsp+2208]
$LN8@HllEndDir:

; 1711 :            }
; 1712 :        }
; 1713 :        if (hll->cflag == 3){

	cmp	BYTE PTR [rbx+77], 3
	mov	r15, QWORD PTR [rsp+2144]
	jne	$LN193@HllEndDir

; 1714 :            n = 0;
; 1715 :            for (j = 0; j < casen; j++){

	mov	r14d, esi
	test	ecx, ecx
	jle	$LN193@HllEndDir
	mov	rdi, rsi
	npad	8
$LL14@HllEndDir:

; 1716 :                AddLineQueueX(" dd %d", pcases[j]);

	mov	rax, QWORD PTR pcases
	lea	rcx, OFFSET FLAT:$SG11772
	mov	edx, DWORD PTR [rdi+rax]
	call	AddLineQueueX
	inc	r14d
	lea	rdi, QWORD PTR [rdi+4]
	cmp	r14d, DWORD PTR casen
	jl	SHORT $LL14@HllEndDir

; 1717 :              }
; 1718 :        }
; 1719 : 
; 1720 :        LclFree(pcases);
; 1721 :        LclFree(plabels);
; 1722 : 	  break;

	jmp	$LN193@HllEndDir
$LN43@HllEndDir:

; 1723 :   case T_DOT_ENDFOR:
; 1724 :     if (hll->cmd != HLL_FOR) {

	cmp	DWORD PTR [rbx+72], 4
	je	SHORT $LN44@HllEndDir

; 1725 :       DebugMsg(("HllEndDir: no .FOR on the hll stack\n"));
; 1726 :       EmitErr(BLOCK_NESTING_ERROR, tokenarray[i].string_ptr);

	movsxd	rdx, DWORD PTR i$[rbp-256]
	mov	ecx, 80					; 00000050H
	shl	rdx, 5
	mov	rdx, QWORD PTR [rdx+r12+8]
	call	EmitErr

; 1727 :       return(ERROR);

	or	eax, -1
	jmp	$LN201@HllEndDir
$LN44@HllEndDir:

; 1728 :     }
; 1729 :     i++;

	inc	DWORD PTR i$[rbp-256]

; 1730 :     //Insert .CONTINUE label here if there is any 
; 1731 :     if (hll->labels[LCONT])

	mov	r8d, DWORD PTR [rbx+24]
	test	r8d, r8d
	je	SHORT $LN45@HllEndDir

; 1732 :       AddLineQueueX("%s" LABELQUAL, GetLabelStr(hll->labels[LCONT], buff));

	lea	rdx, OFFSET FLAT:$SG11064
	lea	rcx, QWORD PTR buff$[rsp]
	call	sprintf
	lea	rdx, QWORD PTR buff$[rsp]
	lea	rcx, OFFSET FLAT:$SG11776
	call	AddLineQueueX
$LN45@HllEndDir:

; 1733 :     //forever loop '.for (::)'
; 1734 :     if (hll->cmcnt == 0) goto adlabel;

	mov	edx, DWORD PTR [rbx+64]
	test	edx, edx
	je	$adlabel$206

; 1735 :     //If counters exist  
; 1736 :     else if (hll->counterlines[0]){

	mov	r8, QWORD PTR [rbx+56]
	cmp	BYTE PTR [r8], sil
	je	SHORT $LN48@HllEndDir

; 1737 :       //here we write counters
; 1738 :       if (hll->counterlines) {      //if there is something after second ':' expand it here

	test	r8, r8
	je	SHORT $LN50@HllEndDir

; 1739 :         ForInitAndNext(tokenarray, hll->cmcnt, hll->counterlines);

	mov	rcx, r12
	call	ForInitAndNext
$LN50@HllEndDir:

; 1740 :         LclFree(hll->counterlines);
; 1741 :       } 
; 1742 :       //first jump from the top happens here after the counters
; 1743 :       AddLineQueueX("%s" LABELQUAL, GetLabelStr(hll->labels[LSKIP], buff));

	mov	r8d, DWORD PTR [rbx+20]
	lea	rdx, OFFSET FLAT:$SG11064
	lea	rcx, QWORD PTR buff$[rsp]
	call	sprintf
	lea	rdx, QWORD PTR buff$[rsp]
	lea	rcx, OFFSET FLAT:$SG11782
	call	AddLineQueueX

; 1744 :       /* create test label */
; 1745 :       if (hll->labels[LTEST]) {

	mov	r8d, DWORD PTR [rbx+8]
	test	r8d, r8d
	je	SHORT $LN51@HllEndDir

; 1746 :         AddLineQueueX("%s" LABELQUAL, GetLabelStr(hll->labels[LTEST], buff));

	lea	rdx, OFFSET FLAT:$SG11064
	lea	rcx, QWORD PTR buff$[rsp]
	call	sprintf
	lea	rdx, QWORD PTR buff$[rsp]
	lea	rcx, OFFSET FLAT:$SG11784
	call	AddLineQueueX
$LN51@HllEndDir:

; 1747 :       }
; 1748 :       QueueTestLines(hll->condlines);

	mov	rcx, QWORD PTR [rbx+48]
	call	QueueTestLines

; 1749 :       LclFree(hll->condlines);
; 1750 :     }

	jmp	SHORT $LN49@HllEndDir
$LN48@HllEndDir:

; 1751 :     else
; 1752 :       AddLineQueueX(" jmp %s", GetLabelStr(hll->labels[LSTART], buff));

	mov	r8d, DWORD PTR [rbx+16]
	lea	rdx, OFFSET FLAT:$SG11064
	lea	rcx, QWORD PTR buff$[rsp]
	call	sprintf
	lea	rdx, QWORD PTR buff$[rsp]
	lea	rcx, OFFSET FLAT:$SG11785
	call	AddLineQueueX
$LN49@HllEndDir:

; 1753 :     if (!hll->cond)

	cmp	BYTE PTR [rbx+76], sil
	jne	SHORT $LN52@HllEndDir
$adlabel$206:

; 1754 :  adlabel:
; 1755 :       AddLineQueueX(" jmp %s", GetLabelStr(hll->labels[LSTART], buff));

	mov	r8d, DWORD PTR [rbx+16]
	lea	rdx, OFFSET FLAT:$SG11064
	lea	rcx, QWORD PTR buff$[rsp]
	call	sprintf
	lea	rdx, QWORD PTR buff$[rsp]
	lea	rcx, OFFSET FLAT:$SG11787
	call	AddLineQueueX
$LN52@HllEndDir:

; 1756 :     tokenarray[i].token = T_FINAL;

	movsxd	rax, DWORD PTR i$[rbp-256]
	shl	rax, 5
	mov	BYTE PTR [rax+r12], sil

; 1757 :     break;

	jmp	$LN193@HllEndDir
$LN53@HllEndDir:

; 1758 :     //end of .ENDFOR
; 1759 :   case T_DOT_ENDW:
; 1760 :     if (hll->cmd != HLL_WHILE) {

	cmp	DWORD PTR [rbx+72], 1
	jne	$LN203@HllEndDir

; 1761 :       DebugMsg(("HllEndDir: no .WHILE on the hll stack\n"));
; 1762 :       return(EmitErr(BLOCK_NESTING_ERROR, tokenarray[i].string_ptr));
; 1763 :     }
; 1764 :     i++;

	inc	DWORD PTR i$[rbp-256]

; 1765 :     /* create test label */
; 1766 :     if (hll->labels[LTEST]) {

	mov	r8d, DWORD PTR [rbx+8]
	test	r8d, r8d
	je	SHORT $LN55@HllEndDir

; 1767 :       AddLineQueueX("%s" LABELQUAL, GetLabelStr(hll->labels[LTEST], buff));

	lea	rdx, OFFSET FLAT:$SG11064
	lea	rcx, QWORD PTR buff$[rsp]
	call	sprintf
	lea	rdx, QWORD PTR buff$[rsp]
	lea	rcx, OFFSET FLAT:$SG11791
	call	AddLineQueueX
$LN55@HllEndDir:

; 1768 :     }
; 1769 :     QueueTestLines(hll->condlines);

	mov	rcx, QWORD PTR [rbx+48]
	call	QueueTestLines

; 1770 :     LclFree(hll->condlines);
; 1771 :     break;

	jmp	$LN193@HllEndDir
$LN56@HllEndDir:

; 1772 :   case T_DOT_UNTILCXZ:
; 1773 :     if (hll->cmd != HLL_REPEAT) {

	cmp	DWORD PTR [rbx+72], 2
	jne	$LN203@HllEndDir

; 1774 :       DebugMsg(("HllEndDir: no .REPEAT on the hll stack\n"));
; 1775 :       return(EmitErr(BLOCK_NESTING_ERROR, tokenarray[i].string_ptr));
; 1776 :     }
; 1777 :     i++;

	mov	eax, DWORD PTR i$[rbp-256]
	inc	eax
	mov	DWORD PTR i$[rbp-256], eax

; 1778 :     if (hll->labels[LTEST]) /* v2.11: LTEST only needed if .CONTINUE has occured */

	mov	r8d, DWORD PTR [rbx+8]
	test	r8d, r8d
	je	SHORT $LN58@HllEndDir

; 1779 :       AddLineQueueX("%s" LABELQUAL, GetLabelStr(hll->labels[LTEST], buff));

	lea	rdx, OFFSET FLAT:$SG11064
	lea	rcx, QWORD PTR buff$[rsp]
	call	sprintf
	lea	rdx, QWORD PTR buff$[rsp]
	lea	rcx, OFFSET FLAT:$SG11795
	call	AddLineQueueX
	mov	eax, DWORD PTR i$[rbp-256]
$LN58@HllEndDir:

; 1780 : 
; 1781 :     /* read in optional (simple) expression */
; 1782 :     if (tokenarray[i].token != T_FINAL) {

	cdqe
	shl	rax, 5
	cmp	BYTE PTR [rax+r12], sil
	je	$LN59@HllEndDir

; 1783 :       rc = EvaluateHllExpression(hll, &i, tokenarray, LSTART, FALSE, buffer);

	lea	rax, QWORD PTR hllop$2[rsp]
	mov	QWORD PTR hllop$2[rsp], rsi
	mov	QWORD PTR [rsp+48], rax
	lea	rdx, QWORD PTR i$[rbp-256]
	lea	rax, QWORD PTR buffer$[rsp]
	mov	DWORD PTR hllop$2[rsp+8], esi
	mov	QWORD PTR [rsp+40], rax
	mov	r9d, 2
	mov	r8, r12
	mov	BYTE PTR [rsp+32], sil
	mov	rcx, rbx
	mov	BYTE PTR buffer$[rsp], sil
	call	GetExpression
	cmp	eax, -1
	jne	SHORT $LN141@HllEndDir
	or	esi, eax
	jmp	$LN193@HllEndDir
$LN141@HllEndDir:
	movsxd	rax, DWORD PTR i$[rbp-256]
	shl	rax, 5
	cmp	BYTE PTR [rax+r12], sil
	je	SHORT $LN188@HllEndDir
	mov	ecx, 199				; 000000c7H
	call	EmitError
	mov	esi, eax

; 1784 :       if (rc == NOT_ERROR) {

	test	eax, eax
	jne	$LN193@HllEndDir
$LN188@HllEndDir:

; 1785 :         rc = CheckCXZLines(buffer);

	lea	rcx, QWORD PTR buffer$[rsp]
	call	CheckCXZLines
	mov	esi, eax

; 1786 :         if (rc == NOT_ERROR)

	test	eax, eax
	jne	SHORT $LN62@HllEndDir

; 1787 :           QueueTestLines(buffer); /* write condition lines */

	lea	rdi, QWORD PTR buffer$[rsp]
	npad	2
$LL145@HllEndDir:
	mov	edx, 10
	mov	rcx, rdi
	mov	r14, rdi
	call	strchr
	mov	rdi, rax
	test	rax, rax
	je	SHORT $LN147@HllEndDir
	mov	BYTE PTR [rax], 0
	inc	rdi
$LN147@HllEndDir:
	cmp	BYTE PTR [r14], 0
	je	SHORT $LN148@HllEndDir
	mov	rcx, r14
	call	AddLineQueue
$LN148@HllEndDir:
	test	rdi, rdi
	jne	SHORT $LL145@HllEndDir
	jmp	$LN193@HllEndDir
$LN62@HllEndDir:

; 1788 :         else
; 1789 :           EmitError(EXPR_TOO_COMPLEX_FOR_UNTILCXZ);

	mov	ecx, 191				; 000000bfH
	call	EmitError

; 1790 :       }
; 1791 :     }

	jmp	$LN193@HllEndDir
$LN59@HllEndDir:

; 1792 :     else {
; 1793 :       AddLineQueueX(JMPPREFIX "loop %s", GetLabelStr(hll->labels[LSTART], buff));

	mov	r8d, DWORD PTR [rbx+16]
	lea	rdx, OFFSET FLAT:$SG11064
	lea	rcx, QWORD PTR buff$[rsp]
	call	sprintf
	lea	rdx, QWORD PTR buff$[rsp]
	lea	rcx, OFFSET FLAT:$SG11801
	call	AddLineQueueX

; 1794 :     }
; 1795 :     break;

	jmp	$LN193@HllEndDir
$LN64@HllEndDir:

; 1796 :   case T_DOT_UNTIL:
; 1797 :     if (hll->cmd != HLL_REPEAT) {

	cmp	DWORD PTR [rbx+72], 2
	je	SHORT $LN65@HllEndDir
$LN203@HllEndDir:

; 1798 :       DebugMsg(("HllEndDir: no .REPEAT on the hll stack\n"));
; 1799 :       return(EmitErr(BLOCK_NESTING_ERROR, tokenarray[i].string_ptr));

	movsxd	rdx, DWORD PTR i$[rbp-256]
	mov	ecx, 80					; 00000050H
	shl	rdx, 5
	mov	rdx, QWORD PTR [rdx+r12+8]
	call	EmitErr
	jmp	$LN201@HllEndDir
$LN65@HllEndDir:

; 1800 :     }
; 1801 :     i++;

	inc	DWORD PTR i$[rbp-256]

; 1802 :     if (hll->labels[LTEST]) /* v2.11: LTEST only needed if .CONTINUE has occured */

	mov	r8d, DWORD PTR [rbx+8]
	test	r8d, r8d
	je	SHORT $LN66@HllEndDir

; 1803 :       AddLineQueueX("%s" LABELQUAL, GetLabelStr(hll->labels[LTEST], buff));

	lea	rdx, OFFSET FLAT:$SG11064
	lea	rcx, QWORD PTR buff$[rsp]
	call	sprintf
	lea	rdx, QWORD PTR buff$[rsp]
	lea	rcx, OFFSET FLAT:$SG11805
	call	AddLineQueueX
$LN66@HllEndDir:

; 1804 : 
; 1805 :     /* read in (optional) expression */
; 1806 :     /* if expression is missing, just generate nothing */
; 1807 :     if (tokenarray[i].token != T_FINAL) {

	movsxd	rax, DWORD PTR i$[rbp-256]
	shl	rax, 5
	cmp	BYTE PTR [rax+r12], sil
	je	$LN193@HllEndDir

; 1808 :       rc = EvaluateHllExpression(hll, &i, tokenarray, LSTART, FALSE, buffer);

	lea	rax, QWORD PTR hllop$1[rsp]
	mov	QWORD PTR hllop$1[rsp], rsi
	mov	QWORD PTR [rsp+48], rax
	lea	rdx, QWORD PTR i$[rbp-256]
	lea	rax, QWORD PTR buffer$[rsp]
	mov	DWORD PTR hllop$1[rsp+8], esi
	mov	QWORD PTR [rsp+40], rax
	mov	r9d, 2
	mov	r8, r12
	mov	BYTE PTR [rsp+32], sil
	mov	rcx, rbx
	mov	BYTE PTR buffer$[rsp], sil
	call	GetExpression
	cmp	eax, -1
	jne	SHORT $LN155@HllEndDir
	or	esi, eax
	jmp	SHORT $LN193@HllEndDir
$LN155@HllEndDir:
	movsxd	rax, DWORD PTR i$[rbp-256]
	shl	rax, 5
	cmp	BYTE PTR [rax+r12], sil
	je	SHORT $LN156@HllEndDir
	mov	ecx, 199				; 000000c7H
	call	EmitError
	mov	esi, eax

; 1809 :       if (rc == NOT_ERROR)

	test	eax, eax
	jne	SHORT $LN193@HllEndDir

; 1808 :       rc = EvaluateHllExpression(hll, &i, tokenarray, LSTART, FALSE, buffer);

$LN156@HllEndDir:

; 1810 :         QueueTestLines(buffer); /* write condition lines */

	lea	rdi, QWORD PTR buffer$[rsp]
	npad	7
$LL159@HllEndDir:
	mov	edx, 10
	mov	rcx, rdi
	mov	r14, rdi
	call	strchr
	mov	rdi, rax
	test	rax, rax
	je	SHORT $LN161@HllEndDir
	mov	BYTE PTR [rax], 0
	inc	rdi
$LN161@HllEndDir:
	cmp	BYTE PTR [r14], 0
	je	SHORT $LN162@HllEndDir
	mov	rcx, r14
	call	AddLineQueue
$LN162@HllEndDir:
	test	rdi, rdi
	jne	SHORT $LL159@HllEndDir
$LN193@HllEndDir:

; 1811 :     }
; 1812 :     break;
; 1813 : #ifdef DEBUG_OUT
; 1814 :   default: /**/myassert(0); break;
; 1815 : #endif
; 1816 :   }
; 1817 : 
; 1818 :   /* create the exit label if it has been referenced */
; 1819 :   if (hll->labels[LEXIT])

	mov	r8d, DWORD PTR [rbx+12]
	test	r8d, r8d
	je	SHORT $LN69@HllEndDir

; 1820 :     AddLineQueueX("%s" LABELQUAL, GetLabelStr(hll->labels[LEXIT], buff));

	lea	rdx, OFFSET FLAT:$SG11064
	lea	rcx, QWORD PTR buff$[rsp]
	call	sprintf
	lea	rdx, QWORD PTR buff$[rsp]
	lea	rcx, OFFSET FLAT:$SG11809
	call	AddLineQueueX
$LN69@HllEndDir:

; 1821 : 
; 1822 :   if (tokenarray[i].token != T_FINAL && rc == NOT_ERROR) {

	movsxd	rax, DWORD PTR i$[rbp-256]
	shl	rax, 5
	cmp	BYTE PTR [rax+r12], 0
	je	SHORT $LN70@HllEndDir
	test	esi, esi
	jne	SHORT $LN70@HllEndDir

; 1823 :     EmitErr(SYNTAX_ERROR_EX, tokenarray[i].tokpos);

	mov	rdx, QWORD PTR [rax+r12+24]
	mov	ecx, 209				; 000000d1H
	call	EmitErr

; 1824 :     rc = ERROR;

	or	esi, -1
$LN70@HllEndDir:

; 1825 :   }
; 1826 :   if (ModuleInfo.list)

	test	DWORD PTR ModuleInfo+408, 2048		; 00000800H
	je	SHORT $LN71@HllEndDir

; 1827 :     LstWrite(LSTTYPE_DIRECTIVE, GetCurrOffset(), NULL);

	call	GetCurrOffset
	xor	r8d, r8d
	mov	edx, eax
	lea	ecx, QWORD PTR [r8+4]
	call	LstWrite
$LN71@HllEndDir:

; 1828 : 
; 1829 :   /* v2.11: always run line-queue if it's not empty. */
; 1830 :   if (is_linequeue_populated())

	cmp	QWORD PTR ModuleInfo+184, 0
	je	SHORT $LN72@HllEndDir

; 1831 :     RunLineQueue();

	call	RunLineQueue
$LN72@HllEndDir:

; 1832 : 
; 1833 :   return(rc);

	mov	eax, esi
$LN201@HllEndDir:
	mov	rdi, QWORD PTR [rsp+2200]
	mov	r14, QWORD PTR [rsp+2216]

; 1834 : }

	add	rsp, 2152				; 00000868H
	pop	r12
	pop	rsi
	pop	rbx
	pop	rbp
	ret	0
	npad	3
$LN190@HllEndDir:
	DD	$LN16@HllEndDir
	DD	$LN53@HllEndDir
	DD	$LN64@HllEndDir
	DD	$LN56@HllEndDir
	DD	$LN43@HllEndDir
	DD	$LN193@HllEndDir
	DD	$LN193@HllEndDir
	DD	$LN193@HllEndDir
	DD	$LN19@HllEndDir
HllEndDir ENDP
_TEXT	ENDS
; Function compile flags: /Ogtpy
; File d:\hjwasm\hjwasm2.13.1s\hjwasm2.13.1s\hll.c
_TEXT	SEGMENT
hllop$1 = 64
hllop$2 = 64
hllop$3 = 64
buff$ = 80
forbuff$ = 96
forbuffcnt$ = 1120
forbuffcond$ = 2144
buffer$ = 3168
forbuffinit$ = 5216
transformed$ = 6240
i$ = 7312
tokenarray$ = 7320
HllStartDir PROC

; 1203 : {

$LN294:
	mov	DWORD PTR [rsp+8], ecx
	push	rbp
	push	r12
	lea	rbp, QWORD PTR [rsp-7032]
	mov	eax, 7288				; 00001c78H
	call	__chkstk
	sub	rsp, rax
	mov	QWORD PTR [rsp+7320], rbx
	mov	QWORD PTR [rsp+7328], rsi

; 1204 :   struct hll_item      *hll;
; 1205 :   ret_code             rc = NOT_ERROR;
; 1206 :   int                  cmd = tokenarray[i].tokval;
; 1207 :   char buff[16];
; 1208 :   char buffer[MAX_LINE_LEN * 2];
; 1209 :   char codebuff[256];
; 1210 :   char param[256];
; 1211 :   char init[256];
; 1212 :   char limit[MAX_LINE_LEN];
; 1213 :   char op[4];
; 1214 :   char forbuff[MAX_LINE_LEN];
; 1215 :   char forbuffinit[MAX_LINE_LEN];
; 1216 :   char forbuffcond[MAX_LINE_LEN];
; 1217 :   char forbuffcnt[MAX_LINE_LEN];
; 1218 :   char transformed[MAX_LINE_LEN];
; 1219 :   int a;
; 1220 :   int j;
; 1221 :   int b;
; 1222 :   int e;
; 1223 :   int size;
; 1224 :   int eqcnt;
; 1225 :   int cmcnt;
; 1226 :   char *p;
; 1227 :   char c;
; 1228 : 
; 1229 :   DebugMsg1(("HllStartDir(%s) enter\n", tokenarray[i].string_ptr));
; 1230 : 
; 1231 :   i++; /* skip directive */
; 1232 : 
; 1233 :   /* v2.06: is there an item on the free stack? */
; 1234 :   if (HllFree) {

	mov	rsi, QWORD PTR ModuleInfo+232
	movsxd	rax, ecx
	inc	ecx
	shl	rax, 5
	mov	QWORD PTR [rsp+7280], r13
	xor	r13d, r13d
	mov	QWORD PTR [rsp+7264], r15
	mov	r15, rdx
	mov	r12d, r13d
	mov	ebx, DWORD PTR [rax+rdx+16]
	mov	DWORD PTR i$[rbp-256], ecx
	test	rsi, rsi
	jne	SHORT $LN17@HllStartDi

; 1235 :     hll = HllFree;
; 1236 :     DebugCmd(cntReused++);
; 1237 :   }
; 1238 :   else {
; 1239 :     hll = LclAlloc(sizeof(struct hll_item));

	lea	ecx, QWORD PTR [rsi+88]
	call	LclAlloc
	mov	rsi, rax
$LN17@HllStartDi:

; 1240 :     DebugCmd(cntAlloc++);
; 1241 :   }
; 1242 : 
; 1243 :   /* structure for .IF .ELSE .ENDIF
; 1244 :   *    cond jump to LTEST-label
; 1245 :   *    ...
; 1246 :   *    jmp LEXIT
; 1247 :   *  LTEST:
; 1248 :   *    ...
; 1249 :   *  LEXIT:
; 1250 : 
; 1251 :   * structure for .IF .ELSEIF
; 1252 :   *    cond jump to LTEST
; 1253 :   *    ...
; 1254 :   *    jmp LEXIT
; 1255 :   *  LTEST:
; 1256 :   *    cond jump to (new) LTEST
; 1257 :   *    ...
; 1258 :   *    jmp LEXIT
; 1259 :   *  LTEST:
; 1260 :   *    ...
; 1261 : 
; 1262 :   * structure for .WHILE and .REPEAT:
; 1263 :   *   jmp LTEST (for .WHILE only)
; 1264 :   * LSTART:
; 1265 :   *   ...
; 1266 :   * LTEST: (jumped to by .continue)
; 1267 :   *   a) test end condition, cond jump to LSTART label
; 1268 :   *   b) unconditional jump to LSTART label
; 1269 :   * LEXIT: (jumped to by .BREAK)
; 1270 :   */
; 1271 : 
; 1272 :   hll->labels[LEXIT] = 0;

	mov	QWORD PTR [rsp+7336], rdi
	mov	DWORD PTR [rsi+12], r13d

; 1273 : 
; 1274 :   switch (cmd) {

	cmp	ebx, 327				; 00000147H
	je	$LN18@HllStartDi
	jle	$LN20@HllStartDi
	cmp	ebx, 329				; 00000149H
	jle	$LN48@HllStartDi
	cmp	ebx, 330				; 0000014aH
	je	$LN24@HllStartDi
	cmp	ebx, 340				; 00000154H
	jne	$LN20@HllStartDi

; 1288 :       }
; 1289 :     }
; 1290 :     break;
; 1291 :     // added by habran
; 1292 :   case T_DOT_SWITCH:
; 1293 : 	  hll->cmd		= HLL_SWITCH;

	mov	DWORD PTR [rsi+72], 5

; 1294 : 	  hll->flags	= HLLF_WHILE;

	mov	DWORD PTR [rsi+80], 4

; 1295 :     hll->labels[LEXIT]  = 0;

	mov	DWORD PTR [rsi+12], r13d

; 1296 : 	  hll->labels[LSTART] = GetHllLabel();    /* used by .ENDSWITCH  */ 

	mov	eax, DWORD PTR ModuleInfo+352
	inc	eax
	mov	DWORD PTR ModuleInfo+352, eax
	mov	DWORD PTR [rsi+16], eax

; 1297 : 	  hll->labels[LTEST]	= GetHllLabel();    /* used by .CASE  */      

	mov	eax, DWORD PTR ModuleInfo+352
	inc	eax
	mov	DWORD PTR ModuleInfo+352, eax
	mov	DWORD PTR [rsi+8], eax

; 1298 :     hll->labels[LDEF]	  = GetHllLabel();    /* used by .CASE  */      

	mov	eax, DWORD PTR ModuleInfo+352
	inc	eax
	mov	DWORD PTR ModuleInfo+352, eax
	mov	DWORD PTR [rsi+28], eax
	mov	eax, DWORD PTR ModuleInfo+352
	inc	eax
	mov	DWORD PTR ModuleInfo+352, eax
	mov	DWORD PTR [rsi+32], eax
	mov	eax, DWORD PTR ModuleInfo+352
	inc	eax
	mov	DWORD PTR ModuleInfo+352, eax
	mov	DWORD PTR [rsi+36], eax
	mov	eax, DWORD PTR ModuleInfo+352
	inc	eax
	mov	DWORD PTR ModuleInfo+352, eax
	mov	DWORD PTR [rsi+40], eax

; 1299 : 	  hll->labels[LDATA1]	= GetHllLabel();    /* used by .ENDSWITCH  */ 
; 1300 : 	  hll->labels[LDATA2]	= GetHllLabel();    /* used by .ENDSWITCH */  
; 1301 :     hll->labels[LTOP]   = GetHllLabel();    /* used by .ENDSWITCH  */ 
; 1302 :     hll->labels[LCONT]  = GetHllLabel();    /* used by .ENDSWITCH */  

	mov	eax, DWORD PTR ModuleInfo+352
	inc	eax
	mov	DWORD PTR ModuleInfo+352, eax
	mov	DWORD PTR [rsi+24], eax

; 1303 :     hll->labels[LSKIP]  = GetHllLabel();    /* used by .ENDSWITCH  */ 

	mov	eax, DWORD PTR ModuleInfo+352
	inc	eax
	mov	DWORD PTR ModuleInfo+352, eax
	mov	DWORD PTR [rsi+20], eax

; 1304 :     hll->labels[LJUMP]  = GetHllLabel();    /* used by .ENDSWITCH */  

	mov	eax, DWORD PTR ModuleInfo+352
	inc	eax
	mov	DWORD PTR ModuleInfo+352, eax
	mov	DWORD PTR [rsi+44], eax

; 1305 :     hll->casecnt		      = 0;

	mov	DWORD PTR [rsi+68], r13d

; 1306 :     if (tokenarray[i].token != T_FINAL) {

	movsxd	rax, DWORD PTR i$[rbp-256]
	shl	rax, 5
	cmp	BYTE PTR [rax+r15], r12b
	je	SHORT $LN22@HllStartDi

; 1307 :       p = tokenarray[i].tokpos;
; 1308 :         if (0 != _memicmp(p, "eax", 3)){

	mov	rcx, QWORD PTR [rax+r15+24]
	lea	rdx, OFFSET FLAT:$SG11615
	mov	r8d, 3
	call	_memicmp
	test	eax, eax
	je	SHORT $LN23@HllStartDi

; 1309 :         AddLineQueueX(" mov eax, %s", tokenarray[i].tokpos);

	movsxd	rdx, DWORD PTR i$[rbp-256]
	lea	rcx, OFFSET FLAT:$SG11616
	shl	rdx, 5
	mov	rdx, QWORD PTR [rdx+r15+24]
	call	AddLineQueueX
$LN23@HllStartDi:

; 1310 :       }
; 1311 :       i++;

	inc	DWORD PTR i$[rbp-256]
$LN22@HllStartDi:

; 1312 :     }
; 1313 :     AddLineQueueX( JMPPREFIX "jmp %s", GetLabelStr(hll->labels[LSTART], buff));

	mov	r8d, DWORD PTR [rsi+16]
	lea	rdx, OFFSET FLAT:$SG11064
	lea	rcx, QWORD PTR buff$[rsp]
	call	sprintf
	lea	rdx, QWORD PTR buff$[rsp]
	lea	rcx, OFFSET FLAT:$SG11617
	call	AddLineQueueX

; 1314 :     break;

	jmp	$LN20@HllStartDi
$LN24@HllStartDi:

; 1315 :   case T_DOT_FOR:
; 1316 :     /* create the label to loop start */
; 1317 :     //hll->labels[LEXIT] = 0; //this is needed for .FOR loop
; 1318 :     hll->labels[LSTART] = GetHllLabel();

	mov	eax, DWORD PTR ModuleInfo+352
	inc	eax
	mov	QWORD PTR [rsp+7272], r14
	mov	DWORD PTR ModuleInfo+352, eax

; 1319 :     hll->labels[LSKIP] = GetHllLabel();
; 1320 :     hll->labels[LCONT] = 0;
; 1321 :     hll->labels[LTEST] = 0;
; 1322 :     hll->flags = 0;
; 1323 :     hll->cmd = HLL_FOR;
; 1324 :     //copy string to the buffer and get read of spaces
; 1325 :     p = tokenarray[i].tokpos;
; 1326 :     for (b = 0; *p; p++)

	mov	r14d, r13d
	mov	DWORD PTR [rsi+16], eax
	mov	eax, DWORD PTR ModuleInfo+352
	inc	eax
	mov	DWORD PTR ModuleInfo+352, eax
	mov	DWORD PTR [rsi+20], eax
	mov	DWORD PTR [rsi+24], r13d
	mov	DWORD PTR [rsi+8], r13d
	mov	DWORD PTR [rsi+80], r13d
	mov	DWORD PTR [rsi+72], 4
	movsxd	rax, DWORD PTR i$[rbp-256]
	shl	rax, 5
	mov	rdi, QWORD PTR [rax+r15+24]
	movzx	eax, BYTE PTR [rdi]
	test	al, al
	je	SHORT $LN5@HllStartDi
	lea	rbx, QWORD PTR forbuff$[rsp]
$LL6@HllStartDi:

; 1327 :     {
; 1328 :       if ((*p == ' ') || (*p == '\t')) {

	cmp	al, 32					; 00000020H
	je	SHORT $LN27@HllStartDi
	cmp	al, 9
	jne	SHORT $LN292@HllStartDi
$LN27@HllStartDi:

; 1329 :         //if there is QWORD PTR, DWORD PTR, WORD PTR, BYTE PTR, OFFSET or ADDR leave a space between
; 1330 :         c = tolower(*(p + 1));

	movsx	ecx, BYTE PTR [rdi+1]
	call	tolower

; 1331 :         if ((c >= 'a') && (c <= 'z')){

	sub	al, 97					; 00000061H
	cmp	al, 25
	ja	SHORT $LN4@HllStartDi

; 1332 :           forbuff[b] = *p;

	movzx	eax, BYTE PTR [rdi]
$LN292@HllStartDi:

; 1333 :           b++;

	inc	r14d
	mov	BYTE PTR [rbx], al
	inc	rbx
$LN4@HllStartDi:

; 1319 :     hll->labels[LSKIP] = GetHllLabel();
; 1320 :     hll->labels[LCONT] = 0;
; 1321 :     hll->labels[LTEST] = 0;
; 1322 :     hll->flags = 0;
; 1323 :     hll->cmd = HLL_FOR;
; 1324 :     //copy string to the buffer and get read of spaces
; 1325 :     p = tokenarray[i].tokpos;
; 1326 :     for (b = 0; *p; p++)

	movzx	eax, BYTE PTR [rdi+1]
	inc	rdi
	test	al, al
	jne	SHORT $LL6@HllStartDi
$LN5@HllStartDi:

; 1334 :         }
; 1335 :       }
; 1336 :       else {
; 1337 :         forbuff[b] = *p;
; 1338 :         b++;
; 1339 :       }
; 1340 :     }
; 1341 :     forbuff[b] = NULLC;

	movsxd	rax, r14d

; 1342 :     if (0 == _memicmp(forbuff, "(::)", 4)){

	lea	rdx, OFFSET FLAT:$SG11625
	mov	r8d, 4
	lea	rcx, QWORD PTR forbuff$[rsp]
	mov	BYTE PTR forbuff$[rsp+rax], r12b
	call	_memicmp
	mov	r14, QWORD PTR [rsp+7272]
	test	eax, eax
	jne	SHORT $LN29@HllStartDi

; 1343 :       hll->cmcnt = 0;

	mov	DWORD PTR [rsi+64], r13d

; 1344 :     }

	jmp	$LN46@HllStartDi
$LN29@HllStartDi:

; 1345 :     else {
; 1346 :       //count initializers
; 1347 :       eqcnt = 1;
; 1348 :       forbuffinit[0] = NULLC;
; 1349 :       for (j = 1, b = 0; forbuff[j];){

	mov	r9d, r13d
	mov	BYTE PTR forbuffinit$[rbp-256], r12b
	mov	r10d, 1
	mov	r8d, r10d
	cmp	BYTE PTR forbuff$[rsp+1], r9b
	je	SHORT $LN290@HllStartDi
	mov	ecx, r10d
	mov	rax, r13
$LL7@HllStartDi:

; 1350 :         c = forbuff[j];

	movzx	edx, BYTE PTR forbuff$[rsp+rcx]

; 1351 :         if (c == ':') {

	cmp	dl, 58					; 0000003aH
	jne	SHORT $LN32@HllStartDi

; 1352 :           if (forbuff[j - 1] != 39 && forbuff[j + 1] != 39) break;

	cmp	BYTE PTR forbuff$[rsp+rcx-1], 39	; 00000027H
	je	SHORT $LN33@HllStartDi
	cmp	BYTE PTR forbuff$[rsp+rcx+1], 39	; 00000027H
	jne	SHORT $LN290@HllStartDi

; 1353 :         }
; 1354 :         if (c == ',' && forbuff[j - 1] != 39 && forbuff[j + 1] != 39) eqcnt++;

	jmp	SHORT $LN33@HllStartDi
$LN32@HllStartDi:
	cmp	dl, 44					; 0000002cH
	jne	SHORT $LN33@HllStartDi
	cmp	BYTE PTR forbuff$[rsp+rcx-1], 39	; 00000027H
	je	SHORT $LN33@HllStartDi
	cmp	BYTE PTR forbuff$[rsp+rcx+1], 39	; 00000027H
	je	SHORT $LN33@HllStartDi
	inc	r10d
$LN33@HllStartDi:

; 1355 :         forbuffinit[b] = c;

	mov	BYTE PTR forbuffinit$[rbp+rax-256], dl

; 1356 :         if (c == 39 && forbuffinit[b - 2] == 39){

	cmp	dl, 39					; 00000027H
	jne	SHORT $LN34@HllStartDi
	cmp	BYTE PTR forbuffinit$[rbp+rax-258], dl
	jne	SHORT $LN34@HllStartDi

; 1357 :           b++;

	inc	r9d

; 1358 :           forbuffinit[b] = ' ';

	mov	BYTE PTR forbuffinit$[rbp+rax-255], 32	; 00000020H
	inc	rax
$LN34@HllStartDi:

; 1359 :         }
; 1360 :         j++;

	inc	rcx
	inc	r8d

; 1361 :         b++;

	inc	r9d
	inc	rax
	cmp	BYTE PTR forbuff$[rsp+rcx], r12b
	jne	SHORT $LL7@HllStartDi
$LN290@HllStartDi:

; 1362 :       }
; 1363 :       forbuffinit[b] = NULLC;

	movsxd	rax, r9d

; 1365 :       //coppy the condition to the buffer
; 1366 :       forbuffcond[0] = NULLC;
; 1367 :       hll->labels[LTEST] = 0;
; 1368 :       for (b = 0; forbuff[j] && forbuff[j] != ':'; forbuffcond[b] = forbuff[j], j++, b++);

	lea	rcx, QWORD PTR forbuff$[rsp]
	inc	r8d
	mov	DWORD PTR [rsi+8], r13d
	mov	r9d, r13d
	mov	BYTE PTR forbuffcond$[rbp-256], r12b
	mov	BYTE PTR forbuffinit$[rbp+rax-256], r12b
	movsxd	rax, r8d
	add	rcx, rax
	cmp	BYTE PTR [rcx], r9b
	je	SHORT $LN291@HllStartDi

; 1364 :       j++;

	lea	rax, QWORD PTR forbuffcond$[rbp-256]
	npad	1
$LL12@HllStartDi:

; 1365 :       //coppy the condition to the buffer
; 1366 :       forbuffcond[0] = NULLC;
; 1367 :       hll->labels[LTEST] = 0;
; 1368 :       for (b = 0; forbuff[j] && forbuff[j] != ':'; forbuffcond[b] = forbuff[j], j++, b++);

	movzx	edx, BYTE PTR [rcx]
	cmp	dl, 58					; 0000003aH
	je	SHORT $LN291@HllStartDi
	inc	rcx
	mov	BYTE PTR [rax], dl
	inc	r8d
	inc	r9d
	inc	rax
	cmp	BYTE PTR [rcx], r12b
	jne	SHORT $LL12@HllStartDi
$LN291@HllStartDi:

; 1369 :       if (forbuffcond[b - 2] == '>' && forbuffcond[b - 1] == '0') forbuffcond[b - 2] = NULLC;

	movsxd	rax, r9d
	cmp	BYTE PTR forbuffcond$[rbp+rax-258], 62	; 0000003eH
	jne	SHORT $LN35@HllStartDi
	cmp	BYTE PTR forbuffcond$[rbp+rax-257], 48	; 00000030H
	jne	SHORT $LN35@HllStartDi
	mov	BYTE PTR forbuffcond$[rbp+rax-258], r12b
$LN35@HllStartDi:

; 1370 :       forbuffcond[b] = NULLC;
; 1371 :       if (!b) hll->cond = FALSE;

	test	r9d, r9d
	mov	BYTE PTR forbuffcond$[rbp+rax-256], r12b

; 1372 :       else    hll->cond = TRUE;
; 1373 :       j++;
; 1374 :       //copy the counter to the buffer
; 1375 :       cmcnt = 0;

	mov	edi, r13d

; 1376 :       forbuffcnt[0] = NULLC;
; 1377 :       hll->condlines = "";
; 1378 :       for (b = 0; forbuff[j] != ')';b++,j++){

	mov	edx, r13d
	setne	al
	mov	BYTE PTR forbuffcnt$[rbp-256], dil
	inc	r8d
	mov	BYTE PTR [rsi+76], al
	movsxd	rcx, r8d
	lea	rax, OFFSET FLAT:$SG11633
	mov	QWORD PTR [rsi+48], rax
	cmp	BYTE PTR forbuff$[rsp+rcx], 41		; 00000029H
	je	SHORT $LN14@HllStartDi
	mov	rax, r13
	npad	13
$LL15@HllStartDi:

; 1379 :         forbuffcnt[b] = forbuff[j];

	movzx	r8d, BYTE PTR forbuff$[rsp+rcx]
	mov	BYTE PTR forbuffcnt$[rbp+rax-256], r8b

; 1380 :         if (forbuffcnt[b] == ',' && forbuff[j - 1] != 39 && forbuff[j + 1] != 39) ++cmcnt;

	cmp	r8b, 44					; 0000002cH
	jne	SHORT $LN38@HllStartDi
	cmp	BYTE PTR forbuff$[rsp+rcx-1], 39	; 00000027H
	je	SHORT $LN13@HllStartDi
	cmp	BYTE PTR forbuff$[rsp+rcx+1], 39	; 00000027H
	je	SHORT $LN13@HllStartDi
	inc	edi

; 1381 :         if (forbuffcnt[b] == 39 && forbuffcnt[b - 2] == 39){

	jmp	SHORT $LN13@HllStartDi
$LN38@HllStartDi:
	cmp	r8b, 39					; 00000027H
	jne	SHORT $LN13@HllStartDi
	cmp	BYTE PTR forbuffcnt$[rbp+rax-258], r8b
	jne	SHORT $LN13@HllStartDi

; 1382 :           b++;

	inc	edx

; 1383 :           forbuffcnt[b] = ' ';

	mov	BYTE PTR forbuffcnt$[rbp+rax-255], 32	; 00000020H
	inc	rax
$LN13@HllStartDi:

; 1376 :       forbuffcnt[0] = NULLC;
; 1377 :       hll->condlines = "";
; 1378 :       for (b = 0; forbuff[j] != ')';b++,j++){

	inc	rcx
	inc	edx
	inc	rax
	cmp	BYTE PTR forbuff$[rsp+rcx], 41		; 00000029H
	jne	SHORT $LL15@HllStartDi
$LN14@HllStartDi:

; 1384 :         }
; 1385 :       }
; 1386 :       if (forbuffcnt[b - 1] == ')') b--;

	movsxd	rax, edx
	cmp	BYTE PTR forbuffcnt$[rbp+rax-257], 41	; 00000029H
	jne	SHORT $LN40@HllStartDi
	dec	edx
$LN40@HllStartDi:

; 1387 :       forbuffcnt[b] = NULLC;

	movsxd	rax, edx
	mov	BYTE PTR forbuffcnt$[rbp+rax-256], r12b

; 1388 :       //create valid command and add to LineQueue to initiate .for loop vars
; 1389 :       //anything that is before the first ':'
; 1390 :       if (forbuffinit[0]) ForInitAndNext(tokenarray, eqcnt, forbuffinit);

	cmp	BYTE PTR forbuffinit$[rbp-256], r12b
	je	SHORT $LN41@HllStartDi
	lea	r8, QWORD PTR forbuffinit$[rbp-256]
	mov	edx, r10d
	mov	rcx, r15
	call	ForInitAndNext
$LN41@HllStartDi:

; 1391 :       //note hll->counterlines is new var in the struct hll_item for store of forbuffcnt used in .ENDFOR
; 1392 :       //hll->cmcnt is also new var in the struct hll_item for commas counter used in .ENDFOR
; 1393 :       //copy forbuffcnt context to hll->counterlines 
; 1394 :       //forbuffcnt contains anything that is written after the second ':'
; 1395 :       hll->cmcnt = 0;

	mov	DWORD PTR [rsi+64], r13d

; 1396 :       if (forbuffcnt[0])

	cmp	BYTE PTR forbuffcnt$[rbp-256], r12b
	je	SHORT $LN42@HllStartDi

; 1397 :       {
; 1398 :       //skip altering conditions the first time
; 1399 :         AddLineQueueX(" jmp %s", GetLabelStr(hll->labels[LSKIP], buff));

	mov	r8d, DWORD PTR [rsi+20]
	lea	rdx, OFFSET FLAT:$SG11064
	lea	rcx, QWORD PTR buff$[rsp]
	call	sprintf
	lea	rdx, QWORD PTR buff$[rsp]
	lea	rcx, OFFSET FLAT:$SG11640
	call	AddLineQueueX

; 1400 :         size = strlen(forbuffcnt) + 1;

	lea	rcx, QWORD PTR forbuffcnt$[rbp-256]
	or	rax, -1
$LL288@HllStartDi:
	inc	rax
	cmp	BYTE PTR [rcx+rax], r12b
	jne	SHORT $LL288@HllStartDi
	inc	eax

; 1401 :         hll->counterlines = LclAlloc(size);

	movsxd	rbx, eax
	mov	rcx, rbx
	call	LclAlloc

; 1402 :         memcpy(hll->counterlines, forbuffcnt, size);

	mov	r8, rbx
	mov	QWORD PTR [rsi+56], rax
	lea	rdx, QWORD PTR forbuffcnt$[rbp-256]
	mov	rcx, rax
	call	memcpy

; 1403 :         hll->cmcnt = cmcnt + 1;

	lea	eax, DWORD PTR [rdi+1]
	mov	DWORD PTR [rsi+64], eax

; 1404 :       }

	jmp	SHORT $LN43@HllStartDi
$LN42@HllStartDi:

; 1405 :       else hll->counterlines = "";    //there is nothing after the second ':'

	lea	rax, OFFSET FLAT:$SG11641
	mov	QWORD PTR [rsi+56], rax
$LN43@HllStartDi:

; 1406 :       if (forbuffcond[0]){

	cmp	BYTE PTR forbuffcond$[rbp-256], r12b
	je	$LN46@HllStartDi

; 1407 :         strcpy(transformed, ".for ");

	mov	rcx, r13
	lea	rdx, OFFSET FLAT:$SG11643
	npad	5
$LL60@HllStartDi:
	movzx	eax, BYTE PTR [rcx+rdx]
	mov	BYTE PTR transformed$[rbp+rcx-256], al
	lea	rcx, QWORD PTR [rcx+1]
	test	al, al
	jne	SHORT $LL60@HllStartDi

; 1408 :         strcat(transformed, forbuffcond);

	lea	rcx, QWORD PTR transformed$[rbp-256]
	dec	rcx
	npad	3
$LL286@HllStartDi:
	cmp	BYTE PTR [rcx+1], r12b
	lea	rcx, QWORD PTR [rcx+1]
	jne	SHORT $LL286@HllStartDi
	lea	r8, QWORD PTR forbuffcond$[rbp-256]
	xor	edx, edx
	npad	13
$LL287@HllStartDi:
	movzx	eax, BYTE PTR [r8+rdx]
	mov	BYTE PTR [rcx+rdx], al
	lea	rdx, QWORD PTR [rdx+1]
	test	al, al
	jne	SHORT $LL287@HllStartDi

; 1409 :         strcat(transformed, "\0");

	lea	rcx, QWORD PTR transformed$[rbp-256]
	dec	rcx
	npad	6
$LL284@HllStartDi:
	cmp	BYTE PTR [rcx+1], r12b
	lea	rcx, QWORD PTR [rcx+1]
	jne	SHORT $LL284@HllStartDi
	lea	r8, OFFSET FLAT:$SG11644
	xor	edx, edx
	npad	13
$LL285@HllStartDi:
	movzx	eax, BYTE PTR [r8+rdx]
	mov	BYTE PTR [rcx+rdx], al
	lea	rdx, QWORD PTR [rdx+1]
	test	al, al
	jne	SHORT $LL285@HllStartDi

; 1410 :         tokenarray[0].string_ptr = ".for\0";

	lea	rax, OFFSET FLAT:$SG11645

; 1411 :         tokenarray[0].tokpos = transformed;
; 1412 :         Token_Count = Tokenize(tokenarray[0].tokpos, 0, tokenarray, 0);

	xor	r9d, r9d
	mov	QWORD PTR [r15+8], rax
	lea	rcx, QWORD PTR transformed$[rbp-256]
	lea	rax, QWORD PTR transformed$[rbp-256]
	mov	r8, r15
	xor	edx, edx
	mov	QWORD PTR [r15+24], rax
	call	Tokenize
	mov	DWORD PTR ModuleInfo+496, eax

; 1413 :         if (tokenarray[i].token != T_FINAL) {

	movsxd	rax, DWORD PTR i$[rbp-256]
	shl	rax, 5
	cmp	BYTE PTR [rax+r15], r12b
	je	$LN45@HllStartDi

; 1414 :           rc = EvaluateHllExpression(hll, &i, tokenarray, LSTART, TRUE, buffer);

	lea	rax, QWORD PTR hllop$2[rsp]
	mov	QWORD PTR hllop$2[rsp], r13
	mov	QWORD PTR [rsp+48], rax
	lea	rdx, QWORD PTR i$[rbp-256]
	lea	rax, QWORD PTR buffer$[rbp-256]
	mov	DWORD PTR hllop$2[rsp+8], r13d
	mov	QWORD PTR [rsp+40], rax
	lea	rbx, QWORD PTR buffer$[rbp-256]
	mov	r9d, 2
	mov	BYTE PTR [rsp+32], 1
	mov	r8, r15
	mov	BYTE PTR buffer$[rbp-256], r12b
	mov	rcx, rsi
	call	GetAndExpression
	cmp	eax, -1
	je	$LN275@HllStartDi
	movsxd	rcx, DWORD PTR i$[rbp-256]
	shl	rcx, 5
	add	rcx, r15
	call	GetCOp
	cmp	eax, 8
	jne	SHORT $LN100@HllStartDi
$LL104@HllStartDi:
	inc	DWORD PTR i$[rbp-256]
	or	rax, -1
	npad	5
$LL283@HllStartDi:
	inc	rax
	cmp	BYTE PTR [rbx+rax], r12b
	jne	SHORT $LL283@HllStartDi
	add	rbx, rax
	mov	DWORD PTR hllop$2[rsp+8], r13d
	lea	rax, QWORD PTR hllop$2[rsp]
	mov	r9d, 2
	mov	QWORD PTR [rsp+48], rax
	lea	rdx, QWORD PTR i$[rbp-256]
	mov	QWORD PTR [rsp+40], rbx
	mov	r8, r15
	mov	rcx, rsi
	mov	BYTE PTR [rsp+32], 1
	call	GetAndExpression
	cmp	eax, -1
	je	SHORT $LN275@HllStartDi
	movsxd	rcx, DWORD PTR i$[rbp-256]
	shl	rcx, 5
	add	rcx, r15
	call	GetCOp
	cmp	eax, 8
	je	SHORT $LL104@HllStartDi
$LN100@HllStartDi:
	movsxd	rax, DWORD PTR i$[rbp-256]
	shl	rax, 5
	cmp	BYTE PTR [rax+r15], r12b
	je	SHORT $LN276@HllStartDi
	mov	ecx, 199				; 000000c7H
	call	EmitError
	mov	r12d, eax

; 1415 :           if (rc == NOT_ERROR) {

	test	eax, eax
	jne	SHORT $LN46@HllStartDi
$LN276@HllStartDi:

; 1416 :             size = strlen(buffer) + 1;

	lea	rcx, QWORD PTR buffer$[rbp-256]
	or	rax, -1
$LL282@HllStartDi:
	inc	rax
	cmp	BYTE PTR [rcx+rax], r13b
	jne	SHORT $LL282@HllStartDi
	inc	eax

; 1417 :             hll->condlines = LclAlloc(size);

	movsxd	rbx, eax
	mov	rcx, rbx
	call	LclAlloc

; 1418 :             memcpy(hll->condlines, buffer, size);

	mov	r8, rbx
	mov	QWORD PTR [rsi+48], rax
	lea	rdx, QWORD PTR buffer$[rbp-256]
	mov	rcx, rax
	call	memcpy

; 1419 :             DebugCmd(cntCond++); DebugCmd(cntCondBytes += size);
; 1420 :           }
; 1421 :         }

	jmp	SHORT $LN46@HllStartDi
$LN275@HllStartDi:

; 1414 :           rc = EvaluateHllExpression(hll, &i, tokenarray, LSTART, TRUE, buffer);

	or	r12d, -1
	jmp	SHORT $LN46@HllStartDi
$LN45@HllStartDi:

; 1422 :         else
; 1423 :           hll->condlines = "";

	lea	rax, OFFSET FLAT:$SG11649
	mov	QWORD PTR [rsi+48], rax
$LN46@HllStartDi:

; 1424 :       }
; 1425 :     }
; 1426 :     AddLineQueueX("%s" LABELQUAL, GetLabelStr(hll->labels[LSTART], buff));

	mov	r8d, DWORD PTR [rsi+16]
	lea	rdx, OFFSET FLAT:$SG11064
	lea	rcx, QWORD PTR buff$[rsp]
	call	sprintf
	lea	rdx, QWORD PTR buff$[rsp]
	lea	rcx, OFFSET FLAT:$SG11650
	call	AddLineQueueX

; 1427 :     tokenarray[i].token = T_FINAL;

	movsxd	rax, DWORD PTR i$[rbp-256]
	shl	rax, 5
	mov	BYTE PTR [rax+r15], r13b

; 1428 :     break;

	jmp	$LN20@HllStartDi
$LN48@HllStartDi:

; 1429 :     //end of .FOR
; 1430 :   case T_DOT_WHILE:
; 1431 :   case T_DOT_REPEAT:
; 1432 :     /* create the label to start of loop */
; 1433 :     hll->labels[LSTART] = GetHllLabel();

	mov	eax, DWORD PTR ModuleInfo+352
	inc	eax
	mov	DWORD PTR ModuleInfo+352, eax
	mov	DWORD PTR [rsi+16], eax

; 1434 :     hll->labels[LTEST] = 0; /* v2.11: test label is created only if needed */

	mov	DWORD PTR [rsi+8], r13d

; 1435 :     //hll->labels[LEXIT] = GetHllLabel(); /* v2.11: LEXIT is only needed for .BREAK */
; 1436 :     if (cmd == T_DOT_WHILE) {

	cmp	ebx, 329				; 00000149H
	jne	$LN49@HllStartDi

; 1437 :       hll->cmd = HLL_WHILE;
; 1438 :       hll->condlines = NULL;

	mov	QWORD PTR [rsi+48], r13
	mov	r10d, 1
	mov	DWORD PTR [rsi+72], r10d

; 1439 :       if (tokenarray[i].token != T_FINAL) {

	movsxd	rax, DWORD PTR i$[rbp-256]
	shl	rax, 5
	cmp	BYTE PTR [rax+r15], r12b

; 1440 :         rc = EvaluateHllExpression(hll, &i, tokenarray, LSTART, TRUE, buffer);

	mov	BYTE PTR buffer$[rbp-256], r12b
	je	$LN52@HllStartDi
	lea	rax, QWORD PTR hllop$1[rsp]
	mov	QWORD PTR hllop$1[rsp], r13
	mov	QWORD PTR [rsp+48], rax
	lea	r9d, QWORD PTR [r10+1]
	lea	rax, QWORD PTR buffer$[rbp-256]
	mov	DWORD PTR hllop$1[rsp+8], r13d
	mov	QWORD PTR [rsp+40], rax
	lea	rdx, QWORD PTR i$[rbp-256]
	mov	r8, r15
	mov	BYTE PTR [rsp+32], r10b
	mov	rcx, rsi
	lea	rbx, QWORD PTR buffer$[rbp-256]
	call	GetAndExpression
	cmp	eax, -1
	je	$LN277@HllStartDi
	movsxd	rcx, DWORD PTR i$[rbp-256]
	shl	rcx, 5
	add	rcx, r15
	call	GetCOp
	cmp	eax, 8
	jne	SHORT $LN153@HllStartDi
	npad	2
$LL157@HllStartDi:
	inc	DWORD PTR i$[rbp-256]
	or	rax, -1
	npad	6
$LL281@HllStartDi:
	inc	rax
	cmp	BYTE PTR [rbx+rax], r12b
	jne	SHORT $LL281@HllStartDi
	add	rbx, rax
	mov	DWORD PTR hllop$1[rsp+8], r13d
	lea	rax, QWORD PTR hllop$1[rsp]
	mov	r9d, 2
	mov	QWORD PTR [rsp+48], rax
	lea	rdx, QWORD PTR i$[rbp-256]
	mov	QWORD PTR [rsp+40], rbx
	mov	r8, r15
	mov	rcx, rsi
	mov	BYTE PTR [rsp+32], 1
	call	GetAndExpression
	cmp	eax, -1
	je	SHORT $LN277@HllStartDi
	movsxd	rcx, DWORD PTR i$[rbp-256]
	shl	rcx, 5
	add	rcx, r15
	call	GetCOp
	cmp	eax, 8
	je	SHORT $LL157@HllStartDi
$LN153@HllStartDi:
	movsxd	rax, DWORD PTR i$[rbp-256]
	shl	rax, 5
	cmp	BYTE PTR [rax+r15], r12b
	je	SHORT $LN278@HllStartDi
	mov	ecx, 199				; 000000c7H
	call	EmitError
	mov	r12d, eax

; 1441 :         if (rc == NOT_ERROR) {

	test	eax, eax
	jne	SHORT $LN52@HllStartDi
$LN278@HllStartDi:

; 1442 :           int size;
; 1443 :           size = strlen(buffer) + 1;

	lea	rcx, QWORD PTR buffer$[rbp-256]
	or	rax, -1
$LL280@HllStartDi:
	inc	rax
	cmp	BYTE PTR [rcx+rax], r13b
	jne	SHORT $LL280@HllStartDi
	inc	eax

; 1444 :           hll->condlines = LclAlloc(size);

	movsxd	rbx, eax
	mov	rcx, rbx
	call	LclAlloc

; 1445 :           memcpy(hll->condlines, buffer, size);

	mov	r8, rbx
	mov	QWORD PTR [rsi+48], rax
	lea	rdx, QWORD PTR buffer$[rbp-256]
	mov	rcx, rax
	call	memcpy

; 1446 :           DebugCmd(cntCond++); DebugCmd(cntCondBytes += size);
; 1447 :         }
; 1448 :       }

	jmp	SHORT $LN52@HllStartDi
$LN277@HllStartDi:

; 1440 :         rc = EvaluateHllExpression(hll, &i, tokenarray, LSTART, TRUE, buffer);

	or	r12d, -1
$LN52@HllStartDi:

; 1449 :       else
; 1450 :         buffer[0] = NULLC;  /* just ".while" without expression is accepted */
; 1451 : 
; 1452 :       /* create a jump to test label */
; 1453 :       /* optimisation: if line at 'test' label is just a jump, dont create label and don't jump! */
; 1454 :       if (_memicmp(buffer, "jmp", 3)) {

	mov	r8d, 3
	lea	rdx, OFFSET FLAT:$SG11658
	lea	rcx, QWORD PTR buffer$[rbp-256]
	call	_memicmp
	test	eax, eax
	je	SHORT $LN50@HllStartDi

; 1455 :         hll->labels[LTEST] = GetHllLabel();

	mov	eax, DWORD PTR ModuleInfo+352

; 1456 :         AddLineQueueX(JMPPREFIX "jmp %s", GetLabelStr(hll->labels[LTEST], buff));

	lea	rdx, OFFSET FLAT:$SG11064
	inc	eax
	lea	rcx, QWORD PTR buff$[rsp]
	mov	DWORD PTR ModuleInfo+352, eax
	mov	r8d, eax
	mov	DWORD PTR [rsi+8], eax
	call	sprintf
	lea	rdx, QWORD PTR buff$[rsp]
	lea	rcx, OFFSET FLAT:$SG11659
	call	AddLineQueueX

; 1457 :       }
; 1458 :     }

	jmp	SHORT $LN50@HllStartDi
$LN49@HllStartDi:

; 1459 :     else {
; 1460 :       hll->cmd = HLL_REPEAT;

	mov	DWORD PTR [rsi+72], 2
$LN50@HllStartDi:

; 1461 :     }
; 1462 :     AddLineQueueX("%s" LABELQUAL, GetLabelStr(hll->labels[LSTART], buff));

	mov	r8d, DWORD PTR [rsi+16]
	lea	rdx, OFFSET FLAT:$SG11064
	lea	rcx, QWORD PTR buff$[rsp]
	call	sprintf
	lea	rdx, QWORD PTR buff$[rsp]
	lea	rcx, OFFSET FLAT:$SG11660
	call	AddLineQueueX
	jmp	$LN20@HllStartDi
$LN18@HllStartDi:

; 1275 :   case T_DOT_IF:
; 1276 :     hll->labels[LSTART] = 0; /* not used by .IF */

	mov	DWORD PTR [rsi+16], r13d

; 1277 :     hll->labels[LTEST] = GetHllLabel();
; 1278 :     hll->cmd = HLL_IF;
; 1279 :     hll->flags = 0;
; 1280 :     /* get the C-style expression, convert to ASM code lines */
; 1281 :     rc = EvaluateHllExpression(hll, &i, tokenarray, LTEST, FALSE, buffer);

	lea	rdx, QWORD PTR i$[rbp-256]
	mov	eax, DWORD PTR ModuleInfo+352
	xor	r9d, r9d
	inc	eax
	mov	QWORD PTR hllop$3[rsp], r13
	mov	DWORD PTR ModuleInfo+352, eax
	mov	r8, r15
	mov	DWORD PTR [rsi+8], eax
	mov	rcx, rsi
	lea	rax, QWORD PTR hllop$3[rsp]
	mov	DWORD PTR [rsi+72], r13d
	mov	QWORD PTR [rsp+48], rax
	lea	rax, QWORD PTR buffer$[rbp-256]
	mov	QWORD PTR [rsp+40], rax
	mov	DWORD PTR [rsi+80], r13d
	mov	BYTE PTR [rsp+32], r12b
	mov	DWORD PTR hllop$3[rsp+8], r13d
	mov	BYTE PTR buffer$[rbp-256], r12b
	call	GetExpression
	cmp	eax, -1
	jne	SHORT $LN64@HllStartDi
	or	r12d, eax
	jmp	SHORT $LN20@HllStartDi
$LN64@HllStartDi:
	movsxd	rax, DWORD PTR i$[rbp-256]
	shl	rax, 5
	cmp	BYTE PTR [rax+r15], r12b
	je	SHORT $LN279@HllStartDi
	mov	ecx, 199				; 000000c7H
	call	EmitError
	mov	r12d, eax

; 1282 :     if (rc == NOT_ERROR) {

	test	eax, eax
	jne	SHORT $LN20@HllStartDi
$LN279@HllStartDi:

; 1283 :       QueueTestLines(buffer);

	lea	rbx, QWORD PTR buffer$[rbp-256]
	npad	15
$LL68@HllStartDi:
	mov	edx, 10
	mov	rcx, rbx
	mov	rdi, rbx
	call	strchr
	mov	rbx, rax
	test	rax, rax
	je	SHORT $LN70@HllStartDi
	mov	BYTE PTR [rax], r13b
	inc	rbx
$LN70@HllStartDi:
	cmp	BYTE PTR [rdi], r13b
	je	SHORT $LN71@HllStartDi
	mov	rcx, rdi
	call	AddLineQueue
$LN71@HllStartDi:
	test	rbx, rbx
	jne	SHORT $LL68@HllStartDi

; 1284 :       /* if no lines have been created, the LTEST label isn't needed */
; 1285 :       //if ( !is_linequeue_populated() ) {
; 1286 :       if (buffer[0] == NULLC) {

	cmp	BYTE PTR buffer$[rbp-256], r13b
	jne	SHORT $LN20@HllStartDi

; 1287 :         hll->labels[LTEST] = 0;

	mov	DWORD PTR [rsi+8], r13d
$LN20@HllStartDi:

; 1463 :     break;
; 1464 : #ifdef DEBUG_OUT
; 1465 :   default: /**/myassert(0); break;
; 1466 : #endif
; 1467 :   }
; 1468 : 
; 1469 :   if (tokenarray[i].token != T_FINAL && rc == NOT_ERROR) {

	movsxd	rax, DWORD PTR i$[rbp-256]
	mov	r13, QWORD PTR [rsp+7280]
	mov	rdi, QWORD PTR [rsp+7336]
	mov	rbx, QWORD PTR [rsp+7320]
	shl	rax, 5
	cmp	BYTE PTR [rax+r15], 0
	je	SHORT $LN55@HllStartDi
	test	r12d, r12d
	jne	SHORT $LN55@HllStartDi

; 1470 :     DebugMsg(("HllStartDir: unexpected token [%s]\n", tokenarray[i].tokpos));
; 1471 :     EmitErr(SYNTAX_ERROR_EX, tokenarray[i].tokpos);

	mov	rdx, QWORD PTR [rax+r15+24]
	mov	ecx, 209				; 000000d1H
	call	EmitErr

; 1472 :     rc = ERROR;

	or	r12d, -1
$LN55@HllStartDi:

; 1473 :     //return( ERROR ); /* v2.08: continue and parse the line queue */
; 1474 :   }
; 1475 :   /* v2.06: remove the item from the free stack */
; 1476 :   if (hll == HllFree)

	cmp	rsi, QWORD PTR ModuleInfo+232
	mov	r15, QWORD PTR [rsp+7264]
	jne	SHORT $LN56@HllStartDi

; 1477 :     HllFree = hll->next;

	mov	rax, QWORD PTR [rsi]
	mov	QWORD PTR ModuleInfo+232, rax
$LN56@HllStartDi:

; 1478 :   hll->next = HllStack;

	mov	rax, QWORD PTR ModuleInfo+224
	mov	QWORD PTR [rsi], rax

; 1479 :   HllStack = hll;
; 1480 : 
; 1481 :   if (ModuleInfo.list)

	test	DWORD PTR ModuleInfo+408, 2048		; 00000800H
	mov	QWORD PTR ModuleInfo+224, rsi
	mov	rsi, QWORD PTR [rsp+7328]
	je	SHORT $LN57@HllStartDi

; 1482 :     LstWrite(LSTTYPE_DIRECTIVE, GetCurrOffset(), NULL);

	call	GetCurrOffset
	xor	r8d, r8d
	mov	edx, eax
	lea	ecx, QWORD PTR [r8+4]
	call	LstWrite
$LN57@HllStartDi:

; 1483 : 
; 1484 :   if (is_linequeue_populated()) /* might be NULL! (".if 1") */

	cmp	QWORD PTR ModuleInfo+184, 0
	je	SHORT $LN289@HllStartDi

; 1485 :     RunLineQueue();

	call	RunLineQueue
$LN289@HllStartDi:

; 1486 : 
; 1487 :   return(rc);

	mov	eax, r12d

; 1488 : }

	add	rsp, 7288				; 00001c78H
	pop	r12
	pop	rbp
	ret	0
HllStartDir ENDP
_TEXT	ENDS
; Function compile flags: /Ogtpy
; File d:\hjwasm\hjwasm2.13.1s\hjwasm2.13.1s\hll.c
;	COMDAT ForInitAndNext
_TEXT	SEGMENT
codebuff$1 = 32
codebuff$2 = 32
codebuff$3 = 32
codebuff$4 = 32
codebuff$5 = 32
codebuff$6 = 32
codebuff$7 = 32
codebuff$8 = 32
codebuff$9 = 32
codebuff$10 = 32
codebuff$11 = 32
codebuff$12 = 32
codebuff$13 = 32
codebuff$14 = 32
codebuff$15 = 32
codebuff$16 = 32
codebuff$17 = 32
codebuff$18 = 32
codebuff$19 = 32
codebuff$20 = 32
codebuff$21 = 32
codebuff$22 = 32
codebuff$ = 288
init$ = 544
param$ = 800
tokenarray$ = 1120
op$ = 1128
cnt$ = 1128
buff$ = 1136
ForInitAndNext PROC					; COMDAT

; 952  : static ret_code ForInitAndNext(struct asm_tok tokenarray[], int cnt, char *buff){

	mov	QWORD PTR [rsp+32], rbx
	mov	QWORD PTR [rsp+24], r8
	mov	QWORD PTR [rsp+8], rcx
	push	rbp
	push	rsi
	push	rdi
	push	r12
	push	r13
	push	r14
	push	r15
	lea	rbp, QWORD PTR [rsp-800]
	sub	rsp, 1056				; 00000420H

; 953  :   int a;
; 954  :   int j;
; 955  :   int	b = 0;

	xor	r15d, r15d
	mov	r12, r8

; 956  :   bool brct = 0;

	xor	sil, sil
	mov	r14d, edx
	mov	r13, rcx
	mov	r9, 145272973819904			; 0000842000000000H
$LL4@ForInitAnd:

; 957  :   char codebuff[256];
; 958  :   char param[256];
; 959  :   char init[256];
; 960  :   char op[4];
; 961  :   char *p;
; 962  :   //create valid command and add to LineQueue
; 963  :   do {
; 964  :     //extracting the first parameter "param" before the operator
; 965  :     a = 0;
; 966  :     while (buff[b] && !strchr("=!<>&|-+*^%/", buff[b]))

	movsxd	rbx, r15d
	xor	edi, edi
	add	rbx, r12
	cmp	BYTE PTR [rbx], dil
	je	SHORT $LN276@ForInitAnd
	npad	1
$LL5@ForInitAnd:
	movsx	edx, BYTE PTR [rbx]
	lea	rcx, OFFSET FLAT:$SG11393
	call	strchr
	test	rax, rax
	jne	SHORT $LN555@ForInitAnd

; 967  :     {
; 968  :       if (buff[b] == '-' || buff[b] == '+') break;

	movzx	ecx, BYTE PTR [rbx]
	lea	eax, DWORD PTR [rcx-43]
	test	al, 253					; 000000fdH
	je	SHORT $LN555@ForInitAnd

; 969  :       param[a] = buff[b];
; 970  :       b++;

	inc	rbx
	mov	BYTE PTR param$[rbp+rdi-256], cl
	inc	r15d

; 971  :       a++;

	inc	rdi
	cmp	BYTE PTR [rbx], 0
	jne	SHORT $LL5@ForInitAnd
$LN555@ForInitAnd:
	mov	r9, 145272973819904			; 0000842000000000H
$LN276@ForInitAnd:

; 972  :     }
; 973  :     param[a] = '\0';
; 974  :     //end of param
; 975  :     //is it simple operator
; 976  :     if ((buff[b + 1] == '+') || (buff[b + 1] == '-')){            //if ++ or -- finish it here

	movsxd	rax, r15d
	movzx	edx, BYTE PTR [rax+r12+1]
	lea	rcx, QWORD PTR [rax+r12]
	mov	BYTE PTR param$[rbp+rdi-256], 0
	lea	eax, DWORD PTR [rdx-43]
	test	al, 253					; 000000fdH
	je	$LN23@ForInitAnd

; 983  :     }
; 984  : 
; 985  :     //we finis here "inc REX" or  "dec REX" or "inc mem" or "dec mem"
; 986  :     else						//if not ++ or -- 
; 987  :     {							//extracting the operator
; 988  :       op[0] = buff[b];

	movzx	ebx, BYTE PTR [rcx]

; 989  :       b++;

	inc	r15d
	mov	BYTE PTR op$[rbp-256], bl

; 990  :       if (op[0] == '='){     //if operator is only '='

	cmp	bl, 61					; 0000003dH
	jne	SHORT $LN27@ForInitAnd

; 991  :         op[1] = '\0';       //finish here

	xor	r8b, r8b
	mov	BYTE PTR op$[rbp-255], r8b

; 992  :       }

	jmp	SHORT $LN30@ForInitAnd
$LN27@ForInitAnd:

; 993  :       else {                 //extract next operator
; 994  :         op[1] = buff[b];

	movsxd	rax, r15d

; 995  :         b++;

	inc	r15d
	movzx	r8d, BYTE PTR [rax+r12]
	mov	BYTE PTR op$[rbp-255], r8b
	lea	eax, DWORD PTR [r8-60]
	test	al, 253					; 000000fdH
	jne	SHORT $LN29@ForInitAnd

; 996  :         if ((op[1] == '<' || op[1] == '>') && (buff[b] == '=')){

	movsxd	rax, r15d
	cmp	BYTE PTR [rax+r12], 61			; 0000003dH
	jne	SHORT $LN29@ForInitAnd

; 997  :           op[2] = buff[b]; //if a second operator is shift sign "<<=" or ">>="

	mov	WORD PTR op$[rbp-254], 61		; 0000003dH

; 998  :           op[3] = NULLC;
; 999  :           b++;

	inc	r15d

; 1000 :         }

	jmp	SHORT $LN30@ForInitAnd
$LN29@ForInitAnd:

; 1001 :         else op[2] = NULLC; //not shift so we have two operands

	mov	BYTE PTR op$[rbp-254], 0
$LN30@ForInitAnd:

; 1002 : 
; 1003 :       }
; 1004 :       //we finished with param and op
; 1005 :       //now extracting the second parameter "init" after the operator
; 1006 :       for (a = 0; buff[b];){ //checking if we have a char in a single ' '

	movsxd	rax, r15d
	xor	edx, edx
	movzx	ecx, BYTE PTR [rax+r12]
	test	cl, cl
	je	SHORT $LN556@ForInitAnd
$LL7@ForInitAnd:

; 1007 :         if (buff[b] == '(' && buff[b - 1] != 39 && buff[b + 1] != 39 && b) break;

	cmp	cl, 40					; 00000028H
	je	SHORT $LN565@ForInitAnd

; 1008 :         if (buff[b] == ',' && buff[b - 1] != 39 && buff[b + 1] != 39 && b) break;

	cmp	cl, 44					; 0000002cH
	jne	SHORT $LN33@ForInitAnd
$LN565@ForInitAnd:
	cmp	BYTE PTR [rax+r12-1], 39		; 00000027H
	je	SHORT $LN33@ForInitAnd
	cmp	BYTE PTR [rax+r12+1], 39		; 00000027H
	je	SHORT $LN33@ForInitAnd
	test	rax, rax
	jne	SHORT $LN556@ForInitAnd
$LN33@ForInitAnd:

; 1009 :         init[a] = buff[b];
; 1010 :         b++;

	inc	rax
	mov	BYTE PTR init$[rbp+rdx-256], cl
	inc	r15d

; 1011 :         a++;

	inc	rdx
	movzx	ecx, BYTE PTR [rax+r12]
	test	cl, cl
	jne	SHORT $LL7@ForInitAnd
$LN556@ForInitAnd:

; 1012 :       }
; 1013 :       if (buff[b] == '(' && buff[b - 1] != 39 && buff[b + 1] != 39 && b){

	movsxd	rax, r15d
	cmp	BYTE PTR [rax+r12], 40			; 00000028H
	lea	rcx, QWORD PTR [rax+r12]
	jne	SHORT $LN34@ForInitAnd
	cmp	BYTE PTR [rcx-1], 39			; 00000027H
	je	SHORT $LN34@ForInitAnd
	cmp	BYTE PTR [rcx+1], 39			; 00000027H
	je	SHORT $LN34@ForInitAnd
	test	r15d, r15d
	je	SHORT $LN34@ForInitAnd
	mov	al, 40					; 00000028H
	npad	6
$LL12@ForInitAnd:

; 1014 :         for (; buff[b] && buff[b] != ')'; b++, a++){

	cmp	al, 41					; 00000029H
	je	SHORT $LN11@ForInitAnd
	inc	rcx

; 1015 :           init[a] = buff[b];

	mov	BYTE PTR init$[rbp+rdx-256], al
	inc	r15d
	inc	rdx
	movzx	eax, BYTE PTR [rcx]
	test	al, al
	jne	SHORT $LL12@ForInitAnd
$LN11@ForInitAnd:

; 1016 :         }
; 1017 :         if (buff[b] == ')' && buff[b - 1] != 39 && buff[b + 1] != 39){

	movsxd	rax, r15d
	cmp	BYTE PTR [rax+r12], 41			; 00000029H
	jne	SHORT $LN35@ForInitAnd
	cmp	BYTE PTR [rax+r12-1], 39		; 00000027H
	je	SHORT $LN35@ForInitAnd
	cmp	BYTE PTR [rax+r12+1], 39		; 00000027H
	je	SHORT $LN35@ForInitAnd

; 1018 :           init[a] = buff[b];
; 1019 :           b++;

	inc	r15d
	mov	BYTE PTR init$[rbp+rdx-256], 41		; 00000029H

; 1020 :           a++;

	inc	rdx
$LN35@ForInitAnd:

; 1021 :         }
; 1022 :         brct = TRUE;

	mov	sil, 1
$LN34@ForInitAnd:

; 1023 :       }
; 1024 :       init[a] = NULLC;
; 1025 :       b++;

	inc	r15d
	mov	BYTE PTR init$[rbp+rdx-256], 0
	cmp	bl, 47					; 0000002fH
	ja	$LN398@ForInitAnd
	movsx	rax, bl
	bt	r9, rax
	jae	$LN398@ForInitAnd

; 1026 :       //we finished with init
; 1027 :       //is operator devision, multiplication or mod
; 1028 :       if (op[0] == '/' || op[0] == '*' || op[0] == '%') {
; 1029 :         Tokenize(param, 0, tokenarray, 0);

	xor	r9d, r9d
	lea	rcx, QWORD PTR param$[rbp-256]
	mov	r8, r13
	xor	edx, edx
	call	Tokenize

; 1030 :         if (strcasecmp(param, reax) && strcasecmp(init, reax)){ //param not rax init not rax?    

	lea	rdx, OFFSET FLAT:reax
	lea	rcx, QWORD PTR param$[rbp-256]
	call	_stricmp
	test	eax, eax
	je	$LN39@ForInitAnd
	lea	rdx, OFFSET FLAT:reax
	lea	rcx, QWORD PTR init$[rbp-256]
	call	_stricmp
	test	eax, eax
	je	$LN39@ForInitAnd

; 1031 :           if (tokenarray[0].token == T_REG){			//is param register              

	movzx	eax, BYTE PTR [r13]
	cmp	al, 2
	jne	$LN41@ForInitAnd

; 1032 :             if (strcasecmp(param, recx)){				//make sure that param is not rcx

	lea	rdx, OFFSET FLAT:recx
	lea	rcx, QWORD PTR param$[rbp-256]
	call	_stricmp
	test	eax, eax
	je	$LN43@ForInitAnd

; 1033 :               WriteAsmLine(" mov  ", reax, param);				// MOV RAX,param

	xor	ecx, ecx
	lea	rdx, OFFSET FLAT:__ImageBase
	npad	13
$LL157@ForInitAnd:
	movzx	eax, BYTE PTR $SG11421[rcx+rdx]
	mov	BYTE PTR codebuff$22[rsp+rcx], al
	lea	rcx, QWORD PTR [rcx+1]
	test	al, al
	jne	SHORT $LL157@ForInitAnd
	lea	rcx, QWORD PTR codebuff$22[rsp]
	dec	rcx
	npad	4
$LL552@ForInitAnd:
	cmp	BYTE PTR [rcx+1], 0
	lea	rcx, QWORD PTR [rcx+1]
	jne	SHORT $LL552@ForInitAnd
	xor	edx, edx
	lea	r12, OFFSET FLAT:reax
	npad	13
$LL553@ForInitAnd:
	movzx	eax, BYTE PTR [r12+rdx]
	mov	BYTE PTR [rcx+rdx], al
	lea	rdx, QWORD PTR [rdx+1]
	test	al, al
	jne	SHORT $LL553@ForInitAnd
	mov	r12, QWORD PTR buff$[rbp-256]
	lea	rcx, QWORD PTR codebuff$22[rsp]
	dec	rcx
	npad	1
$LL550@ForInitAnd:
	cmp	BYTE PTR [rcx+1], 0
	lea	rcx, QWORD PTR [rcx+1]
	jne	SHORT $LL550@ForInitAnd
	xor	edx, edx
	lea	r8, OFFSET FLAT:$SG11355
	npad	13
$LL551@ForInitAnd:
	movzx	eax, BYTE PTR [r8+rdx]
	mov	BYTE PTR [rcx+rdx], al
	lea	rdx, QWORD PTR [rdx+1]
	test	al, al
	jne	SHORT $LL551@ForInitAnd
	lea	rcx, QWORD PTR codebuff$22[rsp]
	dec	rcx
	npad	8
$LL548@ForInitAnd:
	cmp	BYTE PTR [rcx+1], 0
	lea	rcx, QWORD PTR [rcx+1]
	jne	SHORT $LL548@ForInitAnd
	lea	r8, QWORD PTR param$[rbp-256]
	xor	edx, edx
	npad	13
$LL549@ForInitAnd:
	movzx	eax, BYTE PTR [r8+rdx]
	mov	BYTE PTR [rcx+rdx], al
	lea	rdx, QWORD PTR [rdx+1]
	test	al, al
	jne	SHORT $LL549@ForInitAnd
	lea	rcx, QWORD PTR codebuff$22[rsp]
	call	AddLineQueue
$LN43@ForInitAnd:

; 1034 :             }						if (op[0] == '/' || op[0] == '%'){

	cmp	bl, 47					; 0000002fH
	je	SHORT $LN45@ForInitAnd
	cmp	bl, 37					; 00000025H
	jne	SHORT $LN44@ForInitAnd
$LN45@ForInitAnd:

; 1035 :               strcpy(codebuff, " cdq ");			//extend to RDX if division	

	xor	ecx, ecx
	lea	r12, OFFSET FLAT:__ImageBase
	npad	3
$LL130@ForInitAnd:
	movzx	eax, BYTE PTR $SG11424[rcx+r12]
	mov	BYTE PTR codebuff$[rbp+rcx-256], al
	lea	rcx, QWORD PTR [rcx+1]
	test	al, al
	jne	SHORT $LL130@ForInitAnd

; 1036 :               AddLineQueue(codebuff);

	mov	r12, QWORD PTR buff$[rbp-256]
	lea	rcx, QWORD PTR codebuff$[rbp-256]
	call	AddLineQueue
$LN44@ForInitAnd:

; 1037 :             }
; 1038 :             Tokenize(init, 0, tokenarray, 0);

	xor	r9d, r9d
	lea	rcx, QWORD PTR init$[rbp-256]
	mov	r8, r13
	xor	edx, edx
	call	Tokenize

; 1039 :             if (tokenarray[0].token == T_NUM){      //is init number? 

	cmp	BYTE PTR [r13], 10
	jne	$LN46@ForInitAnd

; 1040 :               WriteAsmLine(" mov  ", recx, init);        //MOV RCX,init

	xor	ecx, ecx
	lea	r12, OFFSET FLAT:__ImageBase
	npad	3
$LL160@ForInitAnd:
	movzx	eax, BYTE PTR $SG11427[rcx+r12]
	mov	BYTE PTR codebuff$21[rsp+rcx], al
	lea	rcx, QWORD PTR [rcx+1]
	test	al, al
	jne	SHORT $LL160@ForInitAnd
	lea	rcx, QWORD PTR codebuff$21[rsp]
	dec	rcx
	npad	3
$LL546@ForInitAnd:
	cmp	BYTE PTR [rcx+1], 0
	lea	rcx, QWORD PTR [rcx+1]
	jne	SHORT $LL546@ForInitAnd
	xor	edx, edx
	lea	r12, OFFSET FLAT:recx
	npad	13
$LL547@ForInitAnd:
	movzx	eax, BYTE PTR [r12+rdx]
	mov	BYTE PTR [rcx+rdx], al
	lea	rdx, QWORD PTR [rdx+1]
	test	al, al
	jne	SHORT $LL547@ForInitAnd
	lea	rcx, QWORD PTR codebuff$21[rsp]
	dec	rcx
	npad	8
$LL544@ForInitAnd:
	cmp	BYTE PTR [rcx+1], 0
	lea	rcx, QWORD PTR [rcx+1]
	jne	SHORT $LL544@ForInitAnd
	xor	edx, edx
	lea	r13, OFFSET FLAT:$SG11355
	npad	13
$LL545@ForInitAnd:
	movzx	eax, BYTE PTR [rdx+r13]
	mov	BYTE PTR [rcx+rdx], al
	lea	rdx, QWORD PTR [rdx+1]
	test	al, al
	jne	SHORT $LL545@ForInitAnd
	lea	rcx, QWORD PTR codebuff$21[rsp]
	dec	rcx
	npad	8
$LL542@ForInitAnd:
	cmp	BYTE PTR [rcx+1], 0
	lea	rcx, QWORD PTR [rcx+1]
	jne	SHORT $LL542@ForInitAnd
	lea	r8, QWORD PTR init$[rbp-256]
	xor	edx, edx
	npad	13
$LL543@ForInitAnd:
	movzx	eax, BYTE PTR [r8+rdx]
	mov	BYTE PTR [rcx+rdx], al
	lea	rdx, QWORD PTR [rdx+1]
	test	al, al
	jne	SHORT $LL543@ForInitAnd
	lea	rcx, QWORD PTR codebuff$21[rsp]
	call	AddLineQueue

; 1041 :               if (op[0] == '/' || op[0] == '%')

	cmp	bl, 47					; 0000002fH
	je	SHORT $LN50@ForInitAnd
	cmp	bl, 37					; 00000025H
	je	SHORT $LN50@ForInitAnd

; 1043 :               else strcpy(codebuff, " imul ");		//IMUL RCX        

	xor	ecx, ecx
	lea	r12, OFFSET FLAT:__ImageBase
	npad	3
$LL132@ForInitAnd:
	movzx	eax, BYTE PTR $SG11432[rcx+r12]
	mov	BYTE PTR codebuff$[rbp+rcx-256], al
	lea	rcx, QWORD PTR [rcx+1]
	test	al, al
	jne	SHORT $LL132@ForInitAnd
	jmp	SHORT $LN566@ForInitAnd
$LN50@ForInitAnd:

; 1042 :                 strcpy(codebuff, " idiv ");		//IDIV RCX        

	xor	ecx, ecx
	lea	r12, OFFSET FLAT:__ImageBase
$LL131@ForInitAnd:
	movzx	eax, BYTE PTR $SG11431[rcx+r12]
	mov	BYTE PTR codebuff$[rbp+rcx-256], al
	lea	rcx, QWORD PTR [rcx+1]
	test	al, al
	jne	SHORT $LL131@ForInitAnd
$LN566@ForInitAnd:
	mov	r12, QWORD PTR buff$[rbp-256]

; 1044 :               strcat(codebuff, recx);

	lea	rcx, QWORD PTR codebuff$[rbp-256]
	dec	rcx
$LL540@ForInitAnd:
	cmp	BYTE PTR [rcx+1], 0
	lea	rcx, QWORD PTR [rcx+1]
	jne	SHORT $LL540@ForInitAnd
	xor	edx, edx
	lea	r13, OFFSET FLAT:recx
	npad	10
$LL541@ForInitAnd:
	movzx	eax, BYTE PTR [rdx+r13]
	mov	BYTE PTR [rcx+rdx], al
	lea	rdx, QWORD PTR [rdx+1]
	test	al, al
	jne	SHORT $LL541@ForInitAnd

; 1045 :               AddLineQueue(codebuff);
; 1046 :               goto cont;

	jmp	$LN567@ForInitAnd
$LN46@ForInitAnd:

; 1047 :             }
; 1048 :             else {
; 1049 :               if (op[0] == '/' || op[0] == '%') //it is a variable

	cmp	bl, 47					; 0000002fH
	je	SHORT $LN53@ForInitAnd
	cmp	bl, 37					; 00000025H
	je	SHORT $LN53@ForInitAnd

; 1051 :               else strcpy(codebuff, " imul ");

	xor	ecx, ecx
	lea	r12, OFFSET FLAT:__ImageBase
	npad	8
$LL134@ForInitAnd:
	movzx	eax, BYTE PTR $SG11437[rcx+r12]
	mov	BYTE PTR codebuff$[rbp+rcx-256], al
	lea	rcx, QWORD PTR [rcx+1]
	test	al, al
	jne	SHORT $LL134@ForInitAnd
	mov	r12, QWORD PTR buff$[rbp-256]
	jmp	SHORT $LN52@ForInitAnd
$LN53@ForInitAnd:

; 1050 :                 strcpy(codebuff, " idiv ");

	xor	ecx, ecx
	lea	r13, OFFSET FLAT:__ImageBase
	npad	9
$LL133@ForInitAnd:
	movzx	eax, BYTE PTR $SG11436[rcx+r13]
	mov	BYTE PTR codebuff$[rbp+rcx-256], al
	lea	rcx, QWORD PTR [rcx+1]
	test	al, al
	jne	SHORT $LL133@ForInitAnd
	mov	r13, QWORD PTR tokenarray$[rbp-256]
$LN52@ForInitAnd:

; 1052 :               strcat(codebuff, init);

	lea	rcx, QWORD PTR codebuff$[rbp-256]
	dec	rcx
$LL538@ForInitAnd:
	cmp	BYTE PTR [rcx+1], 0
	lea	rcx, QWORD PTR [rcx+1]
	jne	SHORT $LL538@ForInitAnd
	lea	r8, QWORD PTR init$[rbp-256]
	xor	edx, edx
	npad	10
$LL539@ForInitAnd:
	movzx	eax, BYTE PTR [r8+rdx]
	mov	BYTE PTR [rcx+rdx], al
	lea	rdx, QWORD PTR [rdx+1]
	test	al, al
	jne	SHORT $LL539@ForInitAnd

; 1053 :               AddLineQueue(codebuff);
; 1054 :               goto cont;

	jmp	$LN568@ForInitAnd
$LN41@ForInitAnd:

; 1055 :             }
; 1056 :           }
; 1057 :           //if param is a variable
; 1058 :           else if (tokenarray[0].token == T_ID){		 //YES             

	cmp	al, 8
	jne	$LN561@ForInitAnd

; 1059 :             WriteAsmLine(" mov  ", recx, init);        //MOV RCX,init

	xor	ecx, ecx
	lea	r12, OFFSET FLAT:__ImageBase
	npad	10
$LL163@ForInitAnd:
	movzx	eax, BYTE PTR $SG11439[rcx+r12]
	mov	BYTE PTR codebuff$20[rsp+rcx], al
	lea	rcx, QWORD PTR [rcx+1]
	test	al, al
	jne	SHORT $LL163@ForInitAnd
	lea	rcx, QWORD PTR codebuff$20[rsp]
	dec	rcx
	npad	3
$LL536@ForInitAnd:
	cmp	BYTE PTR [rcx+1], 0
	lea	rcx, QWORD PTR [rcx+1]
	jne	SHORT $LL536@ForInitAnd
	xor	edx, edx
	lea	r13, OFFSET FLAT:recx
	npad	13
$LL537@ForInitAnd:
	movzx	eax, BYTE PTR [rdx+r13]
	mov	BYTE PTR [rcx+rdx], al
	lea	rdx, QWORD PTR [rdx+1]
	test	al, al
	jne	SHORT $LL537@ForInitAnd
	lea	rcx, QWORD PTR codebuff$20[rsp]
	dec	rcx
	npad	8
$LL534@ForInitAnd:
	cmp	BYTE PTR [rcx+1], 0
	lea	rcx, QWORD PTR [rcx+1]
	jne	SHORT $LL534@ForInitAnd
	xor	edx, edx
	lea	r13, OFFSET FLAT:$SG11355
	npad	13
$LL535@ForInitAnd:
	movzx	eax, BYTE PTR [rdx+r13]
	mov	BYTE PTR [rcx+rdx], al
	lea	rdx, QWORD PTR [rdx+1]
	test	al, al
	jne	SHORT $LL535@ForInitAnd
	lea	rcx, QWORD PTR codebuff$20[rsp]
	dec	rcx
	npad	8
$LL532@ForInitAnd:
	cmp	BYTE PTR [rcx+1], 0
	lea	rcx, QWORD PTR [rcx+1]
	jne	SHORT $LL532@ForInitAnd
	lea	r8, QWORD PTR init$[rbp-256]
	xor	edx, edx
	npad	13
$LL533@ForInitAnd:
	movzx	eax, BYTE PTR [r8+rdx]
	mov	BYTE PTR [rcx+rdx], al
	lea	rdx, QWORD PTR [rdx+1]
	test	al, al
	jne	SHORT $LL533@ForInitAnd
	lea	rcx, QWORD PTR codebuff$20[rsp]
	call	AddLineQueue

; 1060 :             WriteAsmLine(" mov  ", reax, param);		// MOV RAX,param

	xor	ecx, ecx
	lea	r12, OFFSET FLAT:__ImageBase
$LL166@ForInitAnd:
	movzx	eax, BYTE PTR $SG11440[rcx+r12]
	mov	BYTE PTR codebuff$19[rsp+rcx], al
	lea	rcx, QWORD PTR [rcx+1]
	test	al, al
	jne	SHORT $LL166@ForInitAnd
	lea	rcx, QWORD PTR codebuff$19[rsp]
	dec	rcx
$LL530@ForInitAnd:
	cmp	BYTE PTR [rcx+1], 0
	lea	rcx, QWORD PTR [rcx+1]
	jne	SHORT $LL530@ForInitAnd
	xor	edx, edx
	lea	r12, OFFSET FLAT:reax
	npad	13
$LL531@ForInitAnd:
	movzx	eax, BYTE PTR [r12+rdx]
	mov	BYTE PTR [rcx+rdx], al
	lea	rdx, QWORD PTR [rdx+1]
	test	al, al
	jne	SHORT $LL531@ForInitAnd
	lea	rcx, QWORD PTR codebuff$19[rsp]
	dec	rcx
	npad	8
$LL528@ForInitAnd:
	cmp	BYTE PTR [rcx+1], 0
	lea	rcx, QWORD PTR [rcx+1]
	jne	SHORT $LL528@ForInitAnd
	xor	edx, edx
	lea	r13, OFFSET FLAT:$SG11355
	npad	13
$LL529@ForInitAnd:
	movzx	eax, BYTE PTR [rdx+r13]
	mov	BYTE PTR [rcx+rdx], al
	lea	rdx, QWORD PTR [rdx+1]
	test	al, al
	jne	SHORT $LL529@ForInitAnd
	lea	rcx, QWORD PTR codebuff$19[rsp]
	dec	rcx
	npad	8
$LL526@ForInitAnd:
	cmp	BYTE PTR [rcx+1], 0
	lea	rcx, QWORD PTR [rcx+1]
	jne	SHORT $LL526@ForInitAnd
	lea	r8, QWORD PTR param$[rbp-256]
	xor	edx, edx
	npad	13
$LL527@ForInitAnd:
	movzx	eax, BYTE PTR [r8+rdx]
	mov	BYTE PTR [rcx+rdx], al
	lea	rdx, QWORD PTR [rdx+1]
	test	al, al
	jne	SHORT $LL527@ForInitAnd
	lea	rcx, QWORD PTR codebuff$19[rsp]
	call	AddLineQueue

; 1061 :             if (op[0] == '/' || op[0] == '%'){

	cmp	bl, 47					; 0000002fH
	je	SHORT $LN57@ForInitAnd
	cmp	bl, 37					; 00000025H
	je	SHORT $LN57@ForInitAnd

; 1065 :             }
; 1066 :             else strcpy(codebuff, " imul ");

	xor	ecx, ecx
	lea	r12, OFFSET FLAT:__ImageBase
	npad	3
$LL137@ForInitAnd:
	movzx	eax, BYTE PTR $SG11446[rcx+r12]
	mov	BYTE PTR codebuff$[rbp+rcx-256], al
	lea	rcx, QWORD PTR [rcx+1]
	test	al, al
	jne	SHORT $LL137@ForInitAnd
	jmp	SHORT $LN569@ForInitAnd
$LN57@ForInitAnd:

; 1062 :               strcpy(codebuff, " cdq ");

	xor	ecx, ecx
	lea	r13, OFFSET FLAT:__ImageBase
$LL135@ForInitAnd:
	movzx	eax, BYTE PTR $SG11444[rcx+r13]
	mov	BYTE PTR codebuff$[rbp+rcx-256], al
	lea	rcx, QWORD PTR [rcx+1]
	test	al, al
	jne	SHORT $LL135@ForInitAnd

; 1063 :               AddLineQueue(codebuff);

	lea	rcx, QWORD PTR codebuff$[rbp-256]
	call	AddLineQueue

; 1064 :               strcpy(codebuff, " idiv ");

	xor	ecx, ecx
	lea	r12, OFFSET FLAT:__ImageBase
	npad	9
$LL136@ForInitAnd:
	movzx	eax, BYTE PTR $SG11445[rcx+r12]
	mov	BYTE PTR codebuff$[rbp+rcx-256], al
	lea	rcx, QWORD PTR [rcx+1]
	test	al, al
	jne	SHORT $LL136@ForInitAnd
$LN569@ForInitAnd:
	mov	r12, QWORD PTR buff$[rbp-256]

; 1067 :             strcat(codebuff, recx);

	lea	rcx, QWORD PTR codebuff$[rbp-256]
	dec	rcx
$LL524@ForInitAnd:
	cmp	BYTE PTR [rcx+1], 0
	lea	rcx, QWORD PTR [rcx+1]
	jne	SHORT $LL524@ForInitAnd
	xor	edx, edx
	lea	r13, OFFSET FLAT:recx
	npad	10
$LL525@ForInitAnd:
	movzx	eax, BYTE PTR [rdx+r13]
	mov	BYTE PTR [rcx+rdx], al
	lea	rdx, QWORD PTR [rdx+1]
	test	al, al
	jne	SHORT $LL525@ForInitAnd
$LN567@ForInitAnd:
	mov	r13, QWORD PTR tokenarray$[rbp-256]
$LN568@ForInitAnd:

; 1068 :             AddLineQueue(codebuff);

	lea	rcx, QWORD PTR codebuff$[rbp-256]
	call	AddLineQueue
$cont$577:

; 1069 :           cont:
; 1070 :             if (op[0] == '%') {
; 1071 :               WriteAsmLine(" mov  ", param, redx);

	xor	ecx, ecx
	cmp	bl, 37					; 00000025H
	lea	rbx, OFFSET FLAT:__ImageBase
	jne	$LL172@ForInitAnd
	npad	14
$LL169@ForInitAnd:
	movzx	eax, BYTE PTR $SG11449[rcx+rbx]
	mov	BYTE PTR codebuff$18[rsp+rcx], al
	lea	rcx, QWORD PTR [rcx+1]
	test	al, al
	jne	SHORT $LL169@ForInitAnd
	lea	rcx, QWORD PTR codebuff$18[rsp]
	dec	rcx
	npad	4
$LL522@ForInitAnd:
	cmp	BYTE PTR [rcx+1], 0
	lea	rcx, QWORD PTR [rcx+1]
	jne	SHORT $LL522@ForInitAnd
	lea	r8, QWORD PTR param$[rbp-256]
	xor	edx, edx
	npad	13
$LL523@ForInitAnd:
	movzx	eax, BYTE PTR [r8+rdx]
	mov	BYTE PTR [rcx+rdx], al
	lea	rdx, QWORD PTR [rdx+1]
	test	al, al
	jne	SHORT $LL523@ForInitAnd
	lea	rcx, QWORD PTR codebuff$18[rsp]
	dec	rcx
	npad	8
$LL520@ForInitAnd:
	cmp	BYTE PTR [rcx+1], 0
	lea	rcx, QWORD PTR [rcx+1]
	jne	SHORT $LL520@ForInitAnd
	xor	edx, edx
	lea	rbx, OFFSET FLAT:$SG11355
	npad	13
$LL521@ForInitAnd:
	movzx	eax, BYTE PTR [rbx+rdx]
	mov	BYTE PTR [rcx+rdx], al
	lea	rdx, QWORD PTR [rdx+1]
	test	al, al
	jne	SHORT $LL521@ForInitAnd
	lea	rcx, QWORD PTR codebuff$18[rsp]
	dec	rcx
	npad	9
$LL518@ForInitAnd:
	cmp	BYTE PTR [rcx+1], 0
	lea	rcx, QWORD PTR [rcx+1]
	jne	SHORT $LL518@ForInitAnd
	xor	edx, edx
	lea	r13, OFFSET FLAT:redx
	npad	13
$LL519@ForInitAnd:
	movzx	eax, BYTE PTR [rdx+r13]
	mov	BYTE PTR [rcx+rdx], al
	inc	rdx
	test	al, al
	jne	SHORT $LL519@ForInitAnd
	mov	r13, QWORD PTR tokenarray$[rbp-256]
	lea	rcx, QWORD PTR codebuff$18[rsp]
	call	AddLineQueue

; 1072 :               goto skip;

	jmp	$skip$578
	npad	11

; 1073 :             }
; 1074 :             else {
; 1075 :               WriteAsmLine(" mov  ", param, reax);

$LL172@ForInitAnd:
	movzx	eax, BYTE PTR $SG11450[rcx+rbx]
	mov	BYTE PTR codebuff$17[rsp+rcx], al
	lea	rcx, QWORD PTR [rcx+1]
	test	al, al
	jne	SHORT $LL172@ForInitAnd
	lea	rcx, QWORD PTR codebuff$17[rsp]
	dec	rcx
	npad	4
$LL516@ForInitAnd:
	cmp	BYTE PTR [rcx+1], 0
	lea	rcx, QWORD PTR [rcx+1]
	jne	SHORT $LL516@ForInitAnd
	lea	r8, QWORD PTR param$[rbp-256]
	xor	edx, edx
	npad	13
$LL517@ForInitAnd:
	movzx	eax, BYTE PTR [r8+rdx]
	mov	BYTE PTR [rcx+rdx], al
	lea	rdx, QWORD PTR [rdx+1]
	test	al, al
	jne	SHORT $LL517@ForInitAnd
	lea	rcx, QWORD PTR codebuff$17[rsp]
	dec	rcx
	npad	8
$LL514@ForInitAnd:
	cmp	BYTE PTR [rcx+1], 0
	lea	rcx, QWORD PTR [rcx+1]
	jne	SHORT $LL514@ForInitAnd
	xor	edx, edx
	lea	rbx, OFFSET FLAT:$SG11355
	npad	13
$LL515@ForInitAnd:
	movzx	eax, BYTE PTR [rbx+rdx]
	mov	BYTE PTR [rcx+rdx], al
	lea	rdx, QWORD PTR [rdx+1]
	test	al, al
	jne	SHORT $LL515@ForInitAnd
	lea	rcx, QWORD PTR codebuff$17[rsp]
	dec	rcx
	npad	9
$LL512@ForInitAnd:
	cmp	BYTE PTR [rcx+1], 0
	lea	rcx, QWORD PTR [rcx+1]
	jne	SHORT $LL512@ForInitAnd
	xor	edx, edx
	lea	r12, OFFSET FLAT:reax
	npad	13
$LL513@ForInitAnd:
	movzx	eax, BYTE PTR [r12+rdx]
	mov	BYTE PTR [rcx+rdx], al
	inc	rdx
	test	al, al
	jne	SHORT $LL513@ForInitAnd
	mov	r12, QWORD PTR buff$[rbp-256]
	lea	rcx, QWORD PTR codebuff$17[rsp]
	call	AddLineQueue

; 1076 :               goto skip;

	jmp	$skip$578
$LN39@ForInitAnd:

; 1077 :             }
; 1078 :           }
; 1079 :         }
; 1080 :         // if param is not RAX and init is RCX
; 1081 :         else if ((strcasecmp(param, reax) && !(strcasecmp(init, recx)))){

	lea	rdx, OFFSET FLAT:reax
	lea	rcx, QWORD PTR param$[rbp-256]
	call	_stricmp
	test	eax, eax
	je	$LN60@ForInitAnd
	lea	rdx, OFFSET FLAT:recx
	lea	rcx, QWORD PTR init$[rbp-256]
	call	_stricmp
	test	eax, eax
	jne	$LN60@ForInitAnd

; 1082 :           if (op[0] == '/' || op[0] == '%'){

	cmp	bl, 47					; 0000002fH
	je	SHORT $LN64@ForInitAnd
	cmp	bl, 37					; 00000025H
	je	SHORT $LN64@ForInitAnd

; 1086 :           }
; 1087 :           else strcpy(codebuff, " imul ");

	xor	ecx, ecx
	lea	r12, OFFSET FLAT:__ImageBase
	npad	2
$LL140@ForInitAnd:
	movzx	eax, BYTE PTR $SG11458[rcx+r12]
	mov	BYTE PTR codebuff$[rbp+rcx-256], al
	lea	rcx, QWORD PTR [rcx+1]
	test	al, al
	jne	SHORT $LL140@ForInitAnd
	jmp	SHORT $LN570@ForInitAnd
$LN64@ForInitAnd:

; 1083 :             strcpy(codebuff, " cdq ");

	xor	ecx, ecx
	lea	r13, OFFSET FLAT:__ImageBase
$LL138@ForInitAnd:
	movzx	eax, BYTE PTR $SG11456[rcx+r13]
	mov	BYTE PTR codebuff$[rbp+rcx-256], al
	lea	rcx, QWORD PTR [rcx+1]
	test	al, al
	jne	SHORT $LL138@ForInitAnd

; 1084 :             AddLineQueue(codebuff);

	lea	rcx, QWORD PTR codebuff$[rbp-256]
	call	AddLineQueue

; 1085 :             strcpy(codebuff, " idiv ");

	xor	ecx, ecx
	lea	r12, OFFSET FLAT:__ImageBase
	npad	9
$LL139@ForInitAnd:
	movzx	eax, BYTE PTR $SG11457[rcx+r12]
	mov	BYTE PTR codebuff$[rbp+rcx-256], al
	lea	rcx, QWORD PTR [rcx+1]
	test	al, al
	jne	SHORT $LL139@ForInitAnd
$LN570@ForInitAnd:
	mov	r12, QWORD PTR buff$[rbp-256]

; 1088 :           strcat(codebuff, recx);

	lea	rcx, QWORD PTR codebuff$[rbp-256]
	dec	rcx
$LL510@ForInitAnd:
	cmp	BYTE PTR [rcx+1], 0
	lea	rcx, QWORD PTR [rcx+1]
	jne	SHORT $LL510@ForInitAnd
	xor	edx, edx
	lea	r13, OFFSET FLAT:recx
	npad	10
$LL511@ForInitAnd:
	movzx	eax, BYTE PTR [rdx+r13]
	mov	BYTE PTR [rcx+rdx], al
	inc	rdx
	test	al, al
	jne	SHORT $LL511@ForInitAnd

; 1089 :           AddLineQueue(codebuff);

	mov	r13, QWORD PTR tokenarray$[rbp-256]
	lea	rcx, QWORD PTR codebuff$[rbp-256]
	call	AddLineQueue

; 1090 :           if (op[0] == '%') WriteAsmLine(" mov  ", param, redx);

	cmp	bl, 37					; 00000025H
	jne	$skip$578
	xor	ecx, ecx
	lea	rbx, OFFSET FLAT:__ImageBase
	npad	15
$LL175@ForInitAnd:
	movzx	eax, BYTE PTR $SG11460[rcx+rbx]
	mov	BYTE PTR codebuff$16[rsp+rcx], al
	lea	rcx, QWORD PTR [rcx+1]
	test	al, al
	jne	SHORT $LL175@ForInitAnd
	lea	rcx, QWORD PTR codebuff$16[rsp]
	dec	rcx
	npad	4
$LL508@ForInitAnd:
	cmp	BYTE PTR [rcx+1], 0
	lea	rcx, QWORD PTR [rcx+1]
	jne	SHORT $LL508@ForInitAnd
	lea	r8, QWORD PTR param$[rbp-256]
	xor	edx, edx
	npad	13
$LL509@ForInitAnd:
	movzx	eax, BYTE PTR [r8+rdx]
	mov	BYTE PTR [rcx+rdx], al
	lea	rdx, QWORD PTR [rdx+1]
	test	al, al
	jne	SHORT $LL509@ForInitAnd
	lea	rcx, QWORD PTR codebuff$16[rsp]
	dec	rcx
	npad	8
$LL506@ForInitAnd:
	cmp	BYTE PTR [rcx+1], 0
	lea	rcx, QWORD PTR [rcx+1]
	jne	SHORT $LL506@ForInitAnd
	xor	edx, edx
	lea	rbx, OFFSET FLAT:$SG11355
	npad	13
$LL507@ForInitAnd:
	movzx	eax, BYTE PTR [rbx+rdx]
	mov	BYTE PTR [rcx+rdx], al
	lea	rdx, QWORD PTR [rdx+1]
	test	al, al
	jne	SHORT $LL507@ForInitAnd
	lea	rcx, QWORD PTR codebuff$16[rsp]
	dec	rcx
	npad	9
$LL504@ForInitAnd:
	cmp	BYTE PTR [rcx+1], 0
	lea	rcx, QWORD PTR [rcx+1]
	jne	SHORT $LL504@ForInitAnd
	xor	edx, edx
	lea	r12, OFFSET FLAT:redx
	npad	13
$LL505@ForInitAnd:
	movzx	eax, BYTE PTR [r12+rdx]
	mov	BYTE PTR [rcx+rdx], al
	inc	rdx
	test	al, al
	jne	SHORT $LL505@ForInitAnd
	mov	r12, QWORD PTR buff$[rbp-256]
	lea	rcx, QWORD PTR codebuff$16[rsp]
	call	AddLineQueue

; 1091 :           goto skip;

	jmp	$skip$578
$LN60@ForInitAnd:

; 1092 :         }
; 1093 :         // if param is RAX and init is RCX
; 1094 :         else if ((!(strcasecmp(param, reax)) && (!(strcmp(init, recx))))){

	lea	rdx, OFFSET FLAT:reax
	lea	rcx, QWORD PTR param$[rbp-256]
	call	_stricmp
	test	eax, eax
	jne	$LN66@ForInitAnd
	lea	r9, OFFSET FLAT:recx
	mov	r8, r9
	lea	rax, QWORD PTR init$[rbp-256]
	sub	r8, rax
$LL502@ForInitAnd:
	movzx	edx, BYTE PTR [rax]
	movzx	ecx, BYTE PTR [rax+r8]
	sub	edx, ecx
	jne	SHORT $LN503@ForInitAnd
	inc	rax
	test	ecx, ecx
	jne	SHORT $LL502@ForInitAnd
$LN503@ForInitAnd:
	test	edx, edx
	jne	$LN66@ForInitAnd

; 1095 :           if (op[0] == '/' || op[0] == '%'){

	cmp	bl, 47					; 0000002fH
	je	SHORT $LN70@ForInitAnd
	cmp	bl, 37					; 00000025H
	je	SHORT $LN70@ForInitAnd

; 1099 :           }
; 1100 :           else strcpy(codebuff, " imul ");

	xor	ecx, ecx
	lea	r12, OFFSET FLAT:__ImageBase
$LL143@ForInitAnd:
	movzx	eax, BYTE PTR $SG11468[rcx+r12]
	mov	BYTE PTR codebuff$[rbp+rcx-256], al
	lea	rcx, QWORD PTR [rcx+1]
	test	al, al
	jne	SHORT $LL143@ForInitAnd
	jmp	SHORT $LN571@ForInitAnd
$LN70@ForInitAnd:

; 1096 :             strcpy(codebuff, " cdq ");

	xor	ecx, ecx
	lea	r13, OFFSET FLAT:__ImageBase
$LL141@ForInitAnd:
	movzx	eax, BYTE PTR $SG11466[rcx+r13]
	mov	BYTE PTR codebuff$[rbp+rcx-256], al
	lea	rcx, QWORD PTR [rcx+1]
	test	al, al
	jne	SHORT $LL141@ForInitAnd

; 1097 :             AddLineQueue(codebuff);

	mov	r13, QWORD PTR tokenarray$[rbp-256]
	lea	rcx, QWORD PTR codebuff$[rbp-256]
	call	AddLineQueue

; 1098 :             strcpy(codebuff, " idiv ");

	xor	ecx, ecx
	lea	r12, OFFSET FLAT:__ImageBase
$LL142@ForInitAnd:
	movzx	eax, BYTE PTR $SG11467[rcx+r12]
	mov	BYTE PTR codebuff$[rbp+rcx-256], al
	lea	rcx, QWORD PTR [rcx+1]
	test	al, al
	jne	SHORT $LL142@ForInitAnd
	lea	r9, OFFSET FLAT:recx
$LN571@ForInitAnd:
	mov	r12, QWORD PTR buff$[rbp-256]

; 1101 :           strcat(codebuff, recx);

	lea	rcx, QWORD PTR codebuff$[rbp-256]
	dec	rcx
	npad	6
$LL500@ForInitAnd:
	cmp	BYTE PTR [rcx+1], 0
	lea	rcx, QWORD PTR [rcx+1]
	jne	SHORT $LL500@ForInitAnd
	xor	edx, edx
	npad	4
$LL501@ForInitAnd:
	movzx	eax, BYTE PTR [r9+rdx]
	mov	BYTE PTR [rcx+rdx], al
	inc	rdx
	test	al, al
	jne	SHORT $LL501@ForInitAnd

; 1102 :           AddLineQueue(codebuff);

	lea	rcx, QWORD PTR codebuff$[rbp-256]
	call	AddLineQueue

; 1103 :           if (op[0] == '%') WriteAsmLine(" mov  ", param, redx);

	cmp	bl, 37					; 00000025H
	jne	$skip$578
	xor	ecx, ecx
	lea	rbx, OFFSET FLAT:__ImageBase
	npad	6
$LL178@ForInitAnd:
	movzx	eax, BYTE PTR $SG11470[rcx+rbx]
	mov	BYTE PTR codebuff$15[rsp+rcx], al
	lea	rcx, QWORD PTR [rcx+1]
	test	al, al
	jne	SHORT $LL178@ForInitAnd
	lea	rcx, QWORD PTR codebuff$15[rsp]
	dec	rcx
	npad	4
$LL498@ForInitAnd:
	cmp	BYTE PTR [rcx+1], 0
	lea	rcx, QWORD PTR [rcx+1]
	jne	SHORT $LL498@ForInitAnd
	lea	r8, QWORD PTR param$[rbp-256]
	xor	edx, edx
	npad	13
$LL499@ForInitAnd:
	movzx	eax, BYTE PTR [r8+rdx]
	mov	BYTE PTR [rcx+rdx], al
	lea	rdx, QWORD PTR [rdx+1]
	test	al, al
	jne	SHORT $LL499@ForInitAnd
	lea	rcx, QWORD PTR codebuff$15[rsp]
	dec	rcx
	npad	8
$LL496@ForInitAnd:
	cmp	BYTE PTR [rcx+1], 0
	lea	rcx, QWORD PTR [rcx+1]
	jne	SHORT $LL496@ForInitAnd
	xor	edx, edx
	lea	rbx, OFFSET FLAT:$SG11355
	npad	13
$LL497@ForInitAnd:
	movzx	eax, BYTE PTR [rbx+rdx]
	mov	BYTE PTR [rcx+rdx], al
	lea	rdx, QWORD PTR [rdx+1]
	test	al, al
	jne	SHORT $LL497@ForInitAnd
	lea	rcx, QWORD PTR codebuff$15[rsp]
	dec	rcx
	npad	9
$LL494@ForInitAnd:
	cmp	BYTE PTR [rcx+1], 0
	lea	rcx, QWORD PTR [rcx+1]
	jne	SHORT $LL494@ForInitAnd
	xor	edx, edx
	lea	r13, OFFSET FLAT:redx
	npad	13
$LL495@ForInitAnd:
	movzx	eax, BYTE PTR [rdx+r13]
	mov	BYTE PTR [rcx+rdx], al
	inc	rdx
	test	al, al
	jne	SHORT $LL495@ForInitAnd
	mov	r13, QWORD PTR tokenarray$[rbp-256]
	lea	rcx, QWORD PTR codebuff$15[rsp]
	call	AddLineQueue

; 1104 :           goto skip;

	jmp	$skip$578
$LN66@ForInitAnd:

; 1105 :         }
; 1106 :         // if param is RAX and init is not RCX
; 1107 :         else if (!(strcasecmp(param, reax) && (strcasecmp(init, recx)))){

	lea	rdx, OFFSET FLAT:reax
	lea	rcx, QWORD PTR param$[rbp-256]
	call	_stricmp
	test	eax, eax
	je	SHORT $LN73@ForInitAnd
	lea	rdx, OFFSET FLAT:recx
	lea	rcx, QWORD PTR init$[rbp-256]
	call	_stricmp
	test	eax, eax
	jne	$LN561@ForInitAnd
$LN73@ForInitAnd:

; 1108 :           WriteAsmLine(" mov  ", recx, init);        //MOV RCX,init

	xor	ecx, ecx
	lea	r12, OFFSET FLAT:__ImageBase
$LL181@ForInitAnd:
	movzx	eax, BYTE PTR $SG11473[rcx+r12]
	mov	BYTE PTR codebuff$14[rsp+rcx], al
	lea	rcx, QWORD PTR [rcx+1]
	test	al, al
	jne	SHORT $LL181@ForInitAnd
	lea	rcx, QWORD PTR codebuff$14[rsp]
	dec	rcx
	npad	3
$LL492@ForInitAnd:
	cmp	BYTE PTR [rcx+1], 0
	lea	rcx, QWORD PTR [rcx+1]
	jne	SHORT $LL492@ForInitAnd
	xor	edx, edx
	lea	r13, OFFSET FLAT:recx
	npad	13
$LL493@ForInitAnd:
	movzx	eax, BYTE PTR [rdx+r13]
	mov	BYTE PTR [rcx+rdx], al
	lea	rdx, QWORD PTR [rdx+1]
	test	al, al
	jne	SHORT $LL493@ForInitAnd
	lea	rcx, QWORD PTR codebuff$14[rsp]
	dec	rcx
	npad	8
$LL490@ForInitAnd:
	cmp	BYTE PTR [rcx+1], 0
	lea	rcx, QWORD PTR [rcx+1]
	jne	SHORT $LL490@ForInitAnd
	xor	edx, edx
	lea	r13, OFFSET FLAT:$SG11355
	npad	13
$LL491@ForInitAnd:
	movzx	eax, BYTE PTR [rdx+r13]
	mov	BYTE PTR [rcx+rdx], al
	lea	rdx, QWORD PTR [rdx+1]
	test	al, al
	jne	SHORT $LL491@ForInitAnd
	mov	r13, QWORD PTR tokenarray$[rbp-256]
	lea	rcx, QWORD PTR codebuff$14[rsp]
	dec	rcx
	npad	1
$LL488@ForInitAnd:
	cmp	BYTE PTR [rcx+1], 0
	lea	rcx, QWORD PTR [rcx+1]
	jne	SHORT $LL488@ForInitAnd
	lea	r8, QWORD PTR init$[rbp-256]
	xor	edx, edx
	npad	13
$LL489@ForInitAnd:
	movzx	eax, BYTE PTR [r8+rdx]
	mov	BYTE PTR [rcx+rdx], al
	lea	rdx, QWORD PTR [rdx+1]
	test	al, al
	jne	SHORT $LL489@ForInitAnd
	lea	rcx, QWORD PTR codebuff$14[rsp]
	call	AddLineQueue

; 1109 :           if (op[0] == '/' || op[0] == '%'){

	cmp	bl, 47					; 0000002fH
	je	SHORT $LN76@ForInitAnd
	cmp	bl, 37					; 00000025H
	je	SHORT $LN76@ForInitAnd

; 1113 :           }
; 1114 :           else strcpy(codebuff, " imul ");

	xor	ecx, ecx
	lea	r12, OFFSET FLAT:__ImageBase
	npad	3
$LL146@ForInitAnd:
	movzx	eax, BYTE PTR $SG11479[rcx+r12]
	mov	BYTE PTR codebuff$[rbp+rcx-256], al
	lea	rcx, QWORD PTR [rcx+1]
	test	al, al
	jne	SHORT $LL146@ForInitAnd
	jmp	SHORT $LN75@ForInitAnd
$LN76@ForInitAnd:

; 1110 :             strcpy(codebuff, " cdq ");

	xor	ecx, ecx
	lea	r13, OFFSET FLAT:__ImageBase
$LL144@ForInitAnd:
	movzx	eax, BYTE PTR $SG11477[rcx+r13]
	mov	BYTE PTR codebuff$[rbp+rcx-256], al
	lea	rcx, QWORD PTR [rcx+1]
	test	al, al
	jne	SHORT $LL144@ForInitAnd

; 1111 :             AddLineQueue(codebuff);

	mov	r13, QWORD PTR tokenarray$[rbp-256]
	lea	rcx, QWORD PTR codebuff$[rbp-256]
	call	AddLineQueue

; 1112 :             strcpy(codebuff, " idiv ");

	xor	ecx, ecx
	lea	r12, OFFSET FLAT:__ImageBase
	npad	2
$LL145@ForInitAnd:
	movzx	eax, BYTE PTR $SG11478[rcx+r12]
	mov	BYTE PTR codebuff$[rbp+rcx-256], al
	lea	rcx, QWORD PTR [rcx+1]
	test	al, al
	jne	SHORT $LL145@ForInitAnd
$LN75@ForInitAnd:

; 1115 :           strcat(codebuff, recx);

	lea	rcx, QWORD PTR codebuff$[rbp-256]
	dec	rcx
	npad	4
$LL486@ForInitAnd:
	cmp	BYTE PTR [rcx+1], 0
	lea	rcx, QWORD PTR [rcx+1]
	jne	SHORT $LL486@ForInitAnd
	xor	edx, edx
	lea	r12, OFFSET FLAT:recx
	npad	13
$LL487@ForInitAnd:
	movzx	eax, BYTE PTR [r12+rdx]
	mov	BYTE PTR [rcx+rdx], al
	inc	rdx
	test	al, al
	jne	SHORT $LL487@ForInitAnd

; 1116 :           AddLineQueue(codebuff);

	mov	r12, QWORD PTR buff$[rbp-256]
	lea	rcx, QWORD PTR codebuff$[rbp-256]
	call	AddLineQueue

; 1117 :           if (op[0] == '%') WriteAsmLine(" mov  ", param, redx);

	cmp	bl, 37					; 00000025H
	jne	$skip$578
	xor	ecx, ecx
	lea	rbx, OFFSET FLAT:__ImageBase
	npad	15
$LL184@ForInitAnd:
	movzx	eax, BYTE PTR $SG11481[rcx+rbx]
	mov	BYTE PTR codebuff$13[rsp+rcx], al
	lea	rcx, QWORD PTR [rcx+1]
	test	al, al
	jne	SHORT $LL184@ForInitAnd
	lea	rcx, QWORD PTR codebuff$13[rsp]
	dec	rcx
	npad	4
$LL484@ForInitAnd:
	cmp	BYTE PTR [rcx+1], 0
	lea	rcx, QWORD PTR [rcx+1]
	jne	SHORT $LL484@ForInitAnd
	lea	r8, QWORD PTR param$[rbp-256]
	xor	edx, edx
	npad	13
$LL485@ForInitAnd:
	movzx	eax, BYTE PTR [r8+rdx]
	mov	BYTE PTR [rcx+rdx], al
	lea	rdx, QWORD PTR [rdx+1]
	test	al, al
	jne	SHORT $LL485@ForInitAnd
	lea	rcx, QWORD PTR codebuff$13[rsp]
	dec	rcx
	npad	8
$LL482@ForInitAnd:
	cmp	BYTE PTR [rcx+1], 0
	lea	rcx, QWORD PTR [rcx+1]
	jne	SHORT $LL482@ForInitAnd
	xor	edx, edx
	lea	rbx, OFFSET FLAT:$SG11355
	npad	13
$LL483@ForInitAnd:
	movzx	eax, BYTE PTR [rbx+rdx]
	mov	BYTE PTR [rcx+rdx], al
	lea	rdx, QWORD PTR [rdx+1]
	test	al, al
	jne	SHORT $LL483@ForInitAnd
	lea	rcx, QWORD PTR codebuff$13[rsp]
	dec	rcx
	npad	9
$LL480@ForInitAnd:
	cmp	BYTE PTR [rcx+1], 0
	lea	rcx, QWORD PTR [rcx+1]
	jne	SHORT $LL480@ForInitAnd
	xor	edx, edx
	lea	r12, OFFSET FLAT:redx
	npad	13
$LL481@ForInitAnd:
	movzx	eax, BYTE PTR [r12+rdx]
	mov	BYTE PTR [rcx+rdx], al
	inc	rdx
	test	al, al
	jne	SHORT $LL481@ForInitAnd
	mov	r12, QWORD PTR buff$[rbp-256]
	lea	rcx, QWORD PTR codebuff$13[rsp]
	call	AddLineQueue

; 1118 :           goto skip;

	jmp	$skip$578
$LN398@ForInitAnd:

; 1119 :         }
; 1120 :       }
; 1121 :       //if operator not devision, multiplication or mod
; 1122 :       else if (op[0] == '-') strcpy(codebuff, " sub ");

	cmp	bl, 45					; 0000002dH
	jne	SHORT $LN78@ForInitAnd
	xor	ecx, ecx
	lea	rbx, OFFSET FLAT:__ImageBase
	npad	13
$LL147@ForInitAnd:
	movzx	eax, BYTE PTR $SG11484[rcx+rbx]
	mov	BYTE PTR codebuff$[rbp+rcx-256], al
	lea	rcx, QWORD PTR [rcx+1]
	test	al, al
	jne	SHORT $LL147@ForInitAnd
	jmp	$LN72@ForInitAnd
$LN78@ForInitAnd:

; 1123 :       else if (op[0] == '+') strcpy(codebuff, " add ");

	cmp	bl, 43					; 0000002bH
	jne	SHORT $LN80@ForInitAnd
	xor	ecx, ecx
	lea	rbx, OFFSET FLAT:__ImageBase
	npad	9
$LL148@ForInitAnd:
	movzx	eax, BYTE PTR $SG11487[rcx+rbx]
	mov	BYTE PTR codebuff$[rbp+rcx-256], al
	lea	rcx, QWORD PTR [rcx+1]
	test	al, al
	jne	SHORT $LL148@ForInitAnd
	jmp	$LN72@ForInitAnd
$LN80@ForInitAnd:

; 1124 :       else if (op[0] == '&') strcpy(codebuff, " and ");

	cmp	bl, 38					; 00000026H
	jne	SHORT $LN82@ForInitAnd
	xor	ecx, ecx
	lea	rbx, OFFSET FLAT:__ImageBase
	npad	9
$LL149@ForInitAnd:
	movzx	eax, BYTE PTR $SG11490[rcx+rbx]
	mov	BYTE PTR codebuff$[rbp+rcx-256], al
	lea	rcx, QWORD PTR [rcx+1]
	test	al, al
	jne	SHORT $LL149@ForInitAnd
	jmp	$LN72@ForInitAnd
$LN82@ForInitAnd:

; 1125 :       else if (op[0] == '|') strcpy(codebuff, " or ");

	cmp	bl, 124					; 0000007cH
	jne	SHORT $LN84@ForInitAnd
	xor	ecx, ecx
	lea	rbx, OFFSET FLAT:__ImageBase
	npad	9
$LL150@ForInitAnd:
	movzx	eax, BYTE PTR $SG11493[rcx+rbx]
	mov	BYTE PTR codebuff$[rbp+rcx-256], al
	lea	rcx, QWORD PTR [rcx+1]
	test	al, al
	jne	SHORT $LL150@ForInitAnd
	jmp	$LN72@ForInitAnd
$LN84@ForInitAnd:

; 1126 :       else if (op[0] == '^') strcpy(codebuff, " xor ");

	cmp	bl, 94					; 0000005eH
	jne	SHORT $LN86@ForInitAnd
	xor	ecx, ecx
	lea	rbx, OFFSET FLAT:__ImageBase
	npad	9
$LL151@ForInitAnd:
	movzx	eax, BYTE PTR $SG11496[rcx+rbx]
	mov	BYTE PTR codebuff$[rbp+rcx-256], al
	lea	rcx, QWORD PTR [rcx+1]
	test	al, al
	jne	SHORT $LL151@ForInitAnd
	jmp	SHORT $LN72@ForInitAnd
$LN86@ForInitAnd:

; 1127 :       else if (op[0] == '<' && op[1] == '<') strcpy(codebuff, " shl ");

	cmp	bl, 60					; 0000003cH
	jne	SHORT $LN88@ForInitAnd
	lea	rbx, OFFSET FLAT:__ImageBase
	cmp	r8b, 60					; 0000003cH
	jne	SHORT $LN72@ForInitAnd
	xor	ecx, ecx
	npad	6
$LL152@ForInitAnd:
	movzx	eax, BYTE PTR $SG11499[rcx+rbx]
	mov	BYTE PTR codebuff$[rbp+rcx-256], al
	lea	rcx, QWORD PTR [rcx+1]
	test	al, al
	jne	SHORT $LL152@ForInitAnd
	jmp	SHORT $LN72@ForInitAnd
$LN88@ForInitAnd:

; 1128 :       else if (op[0] == '>' && op[1] == '>') strcpy(codebuff, " shr ");

	cmp	bl, 62					; 0000003eH
	jne	SHORT $LN561@ForInitAnd
	lea	rbx, OFFSET FLAT:__ImageBase
	cmp	r8b, 62					; 0000003eH
	jne	SHORT $LN72@ForInitAnd
	xor	ecx, ecx
	npad	6
$LL153@ForInitAnd:
	movzx	eax, BYTE PTR $SG11501[rcx+rbx]
	mov	BYTE PTR codebuff$[rbp+rcx-256], al
	lea	rcx, QWORD PTR [rcx+1]
	test	al, al
	jne	SHORT $LL153@ForInitAnd
	jmp	SHORT $LN72@ForInitAnd
$LN561@ForInitAnd:
	lea	rbx, OFFSET FLAT:__ImageBase
$LN72@ForInitAnd:

; 1129 :       Tokenize(init, 0, tokenarray, 0);

	xor	r9d, r9d
	lea	rcx, QWORD PTR init$[rbp-256]
	mov	r8, r13
	xor	edx, edx
	call	Tokenize
	movzx	eax, BYTE PTR [r13]
	sub	al, 2
	test	al, 246					; 000000f6H
	je	$simple$579

; 1130 :       if (tokenarray[0].token == T_REG || tokenarray[0].token == T_NUM || tokenarray[0].token == T_FLOAT || tokenarray[0].token == T_DIRECTIVE)
; 1131 :         goto simple;
; 1132 :       Tokenize(param, 0, tokenarray, 0);

	xor	r9d, r9d
	lea	rcx, QWORD PTR param$[rbp-256]
	mov	r8, r13
	xor	edx, edx
	call	Tokenize

; 1133 :       if (tokenarray[0].token == T_REG){

	cmp	BYTE PTR [r13], 2
	je	$simple$579

; 1183 :       else
; 1184 :       {
; 1185 :         if (init[0] == 39 && init[2] == 39)

	cmp	BYTE PTR init$[rbp-256], 39		; 00000027H
	jne	$LN124@ForInitAnd
	cmp	BYTE PTR init$[rbp-254], 39		; 00000027H
	jne	$LN124@ForInitAnd

; 1186 :           WriteAsmLine(" mov  byte ptr ", param, init);

	xor	ecx, ecx
	npad	5
$LL214@ForInitAnd:
	movzx	eax, BYTE PTR $SG11556[rcx+rbx]
	mov	BYTE PTR codebuff$3[rsp+rcx], al
	lea	rcx, QWORD PTR [rcx+1]
	test	al, al
	jne	SHORT $LL214@ForInitAnd
	lea	rcx, QWORD PTR codebuff$3[rsp]
	dec	rcx
	npad	4
$LL478@ForInitAnd:
	cmp	BYTE PTR [rcx+1], 0
	lea	rcx, QWORD PTR [rcx+1]
	jne	SHORT $LL478@ForInitAnd
	lea	r8, QWORD PTR param$[rbp-256]
	xor	edx, edx
	npad	13
$LL479@ForInitAnd:
	movzx	eax, BYTE PTR [r8+rdx]
	mov	BYTE PTR [rcx+rdx], al
	lea	rdx, QWORD PTR [rdx+1]
	test	al, al
	jne	SHORT $LL479@ForInitAnd
	lea	rcx, QWORD PTR codebuff$3[rsp]
	dec	rcx
	npad	8
$LL476@ForInitAnd:
	cmp	BYTE PTR [rcx+1], 0
	lea	rcx, QWORD PTR [rcx+1]
	jne	SHORT $LL476@ForInitAnd
	xor	edx, edx
	lea	rbx, OFFSET FLAT:$SG11355
	npad	13
$LL477@ForInitAnd:
	movzx	eax, BYTE PTR [rbx+rdx]
	mov	BYTE PTR [rcx+rdx], al
	lea	rdx, QWORD PTR [rdx+1]
	test	al, al
	jne	SHORT $LL477@ForInitAnd
	lea	rcx, QWORD PTR codebuff$3[rsp]
	dec	rcx
	npad	9
$LL474@ForInitAnd:
	cmp	BYTE PTR [rcx+1], 0
	lea	rcx, QWORD PTR [rcx+1]
	jne	SHORT $LL474@ForInitAnd
	lea	r8, QWORD PTR init$[rbp-256]
	xor	edx, edx
	npad	13
$LL475@ForInitAnd:
	movzx	eax, BYTE PTR [r8+rdx]
	mov	BYTE PTR [rcx+rdx], al
	inc	rdx
	test	al, al
	jne	SHORT $LL475@ForInitAnd
	lea	rcx, QWORD PTR codebuff$3[rsp]
	call	AddLineQueue
	jmp	$skip$578
$LN124@ForInitAnd:

; 1187 :         else {
; 1188 :           WriteAsmLine(" mov  ", reax, init);

	xor	ecx, ecx
$LL217@ForInitAnd:
	movzx	eax, BYTE PTR $SG11557[rcx+rbx]
	mov	BYTE PTR codebuff$2[rsp+rcx], al
	lea	rcx, QWORD PTR [rcx+1]
	test	al, al
	jne	SHORT $LL217@ForInitAnd
	lea	rcx, QWORD PTR codebuff$2[rsp]
	dec	rcx
	npad	4
$LL472@ForInitAnd:
	cmp	BYTE PTR [rcx+1], 0
	lea	rcx, QWORD PTR [rcx+1]
	jne	SHORT $LL472@ForInitAnd
	xor	edx, edx
	lea	r12, OFFSET FLAT:reax
	npad	13
$LL473@ForInitAnd:
	movzx	eax, BYTE PTR [r12+rdx]
	mov	BYTE PTR [rcx+rdx], al
	lea	rdx, QWORD PTR [rdx+1]
	test	al, al
	jne	SHORT $LL473@ForInitAnd
	lea	rcx, QWORD PTR codebuff$2[rsp]
	dec	rcx
	npad	8
$LL470@ForInitAnd:
	cmp	BYTE PTR [rcx+1], 0
	lea	rcx, QWORD PTR [rcx+1]
	jne	SHORT $LL470@ForInitAnd
	xor	edx, edx
	lea	rbx, OFFSET FLAT:$SG11355
	npad	13
$LL471@ForInitAnd:
	movzx	eax, BYTE PTR [rbx+rdx]
	mov	BYTE PTR [rcx+rdx], al
	lea	rdx, QWORD PTR [rdx+1]
	test	al, al
	jne	SHORT $LL471@ForInitAnd
	lea	rcx, QWORD PTR codebuff$2[rsp]
	dec	rcx
	npad	9
$LL468@ForInitAnd:
	cmp	BYTE PTR [rcx+1], 0
	lea	rcx, QWORD PTR [rcx+1]
	jne	SHORT $LL468@ForInitAnd
	lea	r8, QWORD PTR init$[rbp-256]
	xor	edx, edx
	npad	13
$LL469@ForInitAnd:
	movzx	eax, BYTE PTR [r8+rdx]
	mov	BYTE PTR [rcx+rdx], al
	lea	rdx, QWORD PTR [rdx+1]
	test	al, al
	jne	SHORT $LL469@ForInitAnd
	lea	rcx, QWORD PTR codebuff$2[rsp]
	call	AddLineQueue

; 1189 :           WriteAsmLine(codebuff, param, reax);

	xor	ecx, ecx
	npad	4
$LL220@ForInitAnd:
	movzx	eax, BYTE PTR codebuff$[rbp+rcx-256]
	mov	BYTE PTR codebuff$1[rsp+rcx], al
	lea	rcx, QWORD PTR [rcx+1]
	test	al, al
	jne	SHORT $LL220@ForInitAnd
	lea	rcx, QWORD PTR codebuff$1[rsp]
	dec	rcx
	npad	7
$LL466@ForInitAnd:
	cmp	BYTE PTR [rcx+1], 0
	lea	rcx, QWORD PTR [rcx+1]
	jne	SHORT $LL466@ForInitAnd
	lea	r8, QWORD PTR param$[rbp-256]
	xor	edx, edx
	npad	13
$LL467@ForInitAnd:
	movzx	eax, BYTE PTR [r8+rdx]
	mov	BYTE PTR [rcx+rdx], al
	lea	rdx, QWORD PTR [rdx+1]
	test	al, al
	jne	SHORT $LL467@ForInitAnd
	lea	rcx, QWORD PTR codebuff$1[rsp]
	dec	rcx
	npad	8
$LL464@ForInitAnd:
	cmp	BYTE PTR [rcx+1], 0
	lea	rcx, QWORD PTR [rcx+1]
	jne	SHORT $LL464@ForInitAnd
	xor	edx, edx
	npad	4
$LL465@ForInitAnd:
	movzx	eax, BYTE PTR [rbx+rdx]
	mov	BYTE PTR [rcx+rdx], al
	lea	rdx, QWORD PTR [rdx+1]
	test	al, al
	jne	SHORT $LL465@ForInitAnd
	lea	rcx, QWORD PTR codebuff$1[rsp]
	dec	rcx
	npad	9
$LL462@ForInitAnd:
	cmp	BYTE PTR [rcx+1], 0
	lea	rcx, QWORD PTR [rcx+1]
	jne	SHORT $LL462@ForInitAnd
	xor	edx, edx
	lea	r12, OFFSET FLAT:reax
	npad	13
$LL463@ForInitAnd:
	movzx	eax, BYTE PTR [r12+rdx]
	mov	BYTE PTR [rcx+rdx], al
	inc	rdx
	test	al, al
	jne	SHORT $LL463@ForInitAnd
	mov	r12, QWORD PTR buff$[rbp-256]
	lea	rcx, QWORD PTR codebuff$1[rsp]
	call	AddLineQueue
	jmp	$skip$578
$simple$579:

; 1134 :       simple:			Tokenize(param, 0, tokenarray, 0);

	xor	r9d, r9d
	lea	rcx, QWORD PTR param$[rbp-256]
	mov	r8, r13
	xor	edx, edx
	call	Tokenize

; 1135 : 
; 1136 :         if (strlen(init) == 1 && init[0] == '0')                        //REX=0?

	lea	rax, QWORD PTR init$[rbp-256]
	or	rcx, -1
$LL461@ForInitAnd:
	inc	rcx
	cmp	BYTE PTR [rax+rcx], 0
	jne	SHORT $LL461@ForInitAnd
	cmp	rcx, 1
	jne	$LN95@ForInitAnd
	cmp	BYTE PTR init$[rbp-256], 48		; 00000030H
	jne	$LN95@ForInitAnd

; 1137 :           WriteAsmLine(" xor  ", param, param);							            //XOR REX,REX //instead MOV REX,0				

	xor	ecx, ecx
	npad	10
$LL187@ForInitAnd:
	movzx	eax, BYTE PTR $SG11508[rcx+rbx]
	mov	BYTE PTR codebuff$12[rsp+rcx], al
	lea	rcx, QWORD PTR [rcx+1]
	test	al, al
	jne	SHORT $LL187@ForInitAnd
	lea	rcx, QWORD PTR codebuff$12[rsp]
	dec	rcx
	npad	4
$LL459@ForInitAnd:
	cmp	BYTE PTR [rcx+1], 0
	lea	rcx, QWORD PTR [rcx+1]
	jne	SHORT $LL459@ForInitAnd
	lea	r8, QWORD PTR param$[rbp-256]
	xor	edx, edx
	npad	13
$LL460@ForInitAnd:
	movzx	eax, BYTE PTR [r8+rdx]
	mov	BYTE PTR [rcx+rdx], al
	lea	rdx, QWORD PTR [rdx+1]
	test	al, al
	jne	SHORT $LL460@ForInitAnd
	lea	rcx, QWORD PTR codebuff$12[rsp]
	dec	rcx
	npad	8
$LL457@ForInitAnd:
	cmp	BYTE PTR [rcx+1], 0
	lea	rcx, QWORD PTR [rcx+1]
	jne	SHORT $LL457@ForInitAnd
	xor	edx, edx
	lea	rbx, OFFSET FLAT:$SG11355
	npad	13
$LL458@ForInitAnd:
	movzx	eax, BYTE PTR [rbx+rdx]
	mov	BYTE PTR [rcx+rdx], al
	lea	rdx, QWORD PTR [rdx+1]
	test	al, al
	jne	SHORT $LL458@ForInitAnd
	lea	rcx, QWORD PTR codebuff$12[rsp]
	dec	rcx
	npad	9
$LL455@ForInitAnd:
	cmp	BYTE PTR [rcx+1], 0
	lea	rcx, QWORD PTR [rcx+1]
	jne	SHORT $LL455@ForInitAnd
	lea	r8, QWORD PTR param$[rbp-256]
	xor	edx, edx
	npad	13
$LL456@ForInitAnd:
	movzx	eax, BYTE PTR [r8+rdx]
	mov	BYTE PTR [rcx+rdx], al
	inc	rdx
	test	al, al
	jne	SHORT $LL456@ForInitAnd
	lea	rcx, QWORD PTR codebuff$12[rsp]
	call	AddLineQueue
	jmp	$skip$578
$LN95@ForInitAnd:

; 1138 :         else if ((strlen(op) == 1) && ((init[4] == ' ') || (init[4] == '\t'))){  //op is '='

	lea	rdx, QWORD PTR op$[rbp-256]
	or	rax, -1
	npad	7
$LL454@ForInitAnd:
	inc	rax
	cmp	BYTE PTR [rdx+rax], 0
	jne	SHORT $LL454@ForInitAnd
	cmp	rax, 1
	jne	$LN122@ForInitAnd
	movzx	edx, BYTE PTR init$[rbp-252]
	cmp	dl, 32					; 00000020H
	je	SHORT $LN99@ForInitAnd
	cmp	dl, 9
	jne	$LN97@ForInitAnd
$LN99@ForInitAnd:

; 1139 :           if ((0 == _memicmp(init, "BYTE PTR", 8)) ||                   //reax=BYTE PTR al 
; 1140 :             (0 == _memicmp(init, "BPTR", 4)) ||
; 1141 :             (0 == _memicmp(init, "WPTR", 4)) ||

	mov	r8d, 8
	lea	rdx, OFFSET FLAT:$SG11515
	lea	rcx, QWORD PTR init$[rbp-256]
	call	_memicmp
	test	eax, eax
	je	$LN102@ForInitAnd
	mov	r8d, 4
	lea	rdx, OFFSET FLAT:$SG11516
	lea	rcx, QWORD PTR init$[rbp-256]
	call	_memicmp
	test	eax, eax
	je	$LN102@ForInitAnd
	mov	r8d, 4
	lea	rdx, OFFSET FLAT:$SG11517
	lea	rcx, QWORD PTR init$[rbp-256]
	call	_memicmp
	test	eax, eax
	je	$LN102@ForInitAnd
	mov	r8d, 8
	lea	rdx, OFFSET FLAT:$SG11518
	lea	rcx, QWORD PTR init$[rbp-256]
	call	_memicmp
	test	eax, eax
	je	$LN102@ForInitAnd

; 1145 :           else if (0 == _memicmp(init, "ADDR", 4))

	mov	r8d, 4
	lea	rdx, OFFSET FLAT:$SG11522
	lea	rcx, QWORD PTR init$[rbp-256]
	call	_memicmp
	test	eax, eax
	jne	SHORT $LN103@ForInitAnd

; 1146 :             WriteAsmLine(" lea  ", param, init + 5);

	lea	r8, QWORD PTR init$[rbp-251]
	lea	rdx, QWORD PTR param$[rbp-256]
	lea	rcx, OFFSET FLAT:$SG11523
	call	WriteAsmLine
	jmp	$skip$578
$LN103@ForInitAnd:

; 1147 :           else WriteAsmLine(" mov  ", param, init);

	xor	ecx, ecx
	npad	6
$LL193@ForInitAnd:
	movzx	eax, BYTE PTR $SG11524[rcx+rbx]
	mov	BYTE PTR codebuff$10[rsp+rcx], al
	lea	rcx, QWORD PTR [rcx+1]
	test	al, al
	jne	SHORT $LL193@ForInitAnd
	lea	rcx, QWORD PTR codebuff$10[rsp]
	dec	rcx
	npad	4
$LL452@ForInitAnd:
	cmp	BYTE PTR [rcx+1], 0
	lea	rcx, QWORD PTR [rcx+1]
	jne	SHORT $LL452@ForInitAnd
	lea	r8, QWORD PTR param$[rbp-256]
	xor	edx, edx
	npad	13
$LL453@ForInitAnd:
	movzx	eax, BYTE PTR [r8+rdx]
	mov	BYTE PTR [rcx+rdx], al
	lea	rdx, QWORD PTR [rdx+1]
	test	al, al
	jne	SHORT $LL453@ForInitAnd
	lea	rcx, QWORD PTR codebuff$10[rsp]
	dec	rcx
	npad	8
$LL450@ForInitAnd:
	cmp	BYTE PTR [rcx+1], 0
	lea	rcx, QWORD PTR [rcx+1]
	jne	SHORT $LL450@ForInitAnd
	xor	edx, edx
	lea	rbx, OFFSET FLAT:$SG11355
	npad	13
$LL451@ForInitAnd:
	movzx	eax, BYTE PTR [rbx+rdx]
	mov	BYTE PTR [rcx+rdx], al
	lea	rdx, QWORD PTR [rdx+1]
	test	al, al
	jne	SHORT $LL451@ForInitAnd
	lea	rcx, QWORD PTR codebuff$10[rsp]
	dec	rcx
	npad	9
$LL448@ForInitAnd:
	cmp	BYTE PTR [rcx+1], 0
	lea	rcx, QWORD PTR [rcx+1]
	jne	SHORT $LL448@ForInitAnd
	lea	r8, QWORD PTR init$[rbp-256]
	xor	edx, edx
	npad	13
$LL449@ForInitAnd:
	movzx	eax, BYTE PTR [r8+rdx]
	mov	BYTE PTR [rcx+rdx], al
	inc	rdx
	test	al, al
	jne	SHORT $LL449@ForInitAnd
	lea	rcx, QWORD PTR codebuff$10[rsp]
	call	AddLineQueue
	jmp	$skip$578
$LN102@ForInitAnd:

; 1142 :             (0 == _memicmp(init, "WORD PTR", 8)))                     //reax=WORD PTR ax 
; 1143 : 
; 1144 :             WriteAsmLine(" movzx  ", param, init);                      //movzx reax,ax					    

	xor	ecx, ecx
$LL190@ForInitAnd:
	movzx	eax, BYTE PTR $SG11519[rcx+rbx]
	mov	BYTE PTR codebuff$11[rsp+rcx], al
	lea	rcx, QWORD PTR [rcx+1]
	test	al, al
	jne	SHORT $LL190@ForInitAnd
	lea	rcx, QWORD PTR codebuff$11[rsp]
	dec	rcx
	npad	4
$LL446@ForInitAnd:
	cmp	BYTE PTR [rcx+1], 0
	lea	rcx, QWORD PTR [rcx+1]
	jne	SHORT $LL446@ForInitAnd
	lea	r8, QWORD PTR param$[rbp-256]
	xor	edx, edx
	npad	13
$LL447@ForInitAnd:
	movzx	eax, BYTE PTR [r8+rdx]
	mov	BYTE PTR [rcx+rdx], al
	lea	rdx, QWORD PTR [rdx+1]
	test	al, al
	jne	SHORT $LL447@ForInitAnd
	lea	rcx, QWORD PTR codebuff$11[rsp]
	dec	rcx
	npad	8
$LL444@ForInitAnd:
	cmp	BYTE PTR [rcx+1], 0
	lea	rcx, QWORD PTR [rcx+1]
	jne	SHORT $LL444@ForInitAnd
	xor	edx, edx
	lea	rbx, OFFSET FLAT:$SG11355
	npad	13
$LL445@ForInitAnd:
	movzx	eax, BYTE PTR [rbx+rdx]
	mov	BYTE PTR [rcx+rdx], al
	lea	rdx, QWORD PTR [rdx+1]
	test	al, al
	jne	SHORT $LL445@ForInitAnd
	lea	rcx, QWORD PTR codebuff$11[rsp]
	dec	rcx
	npad	9
$LL442@ForInitAnd:
	cmp	BYTE PTR [rcx+1], 0
	lea	rcx, QWORD PTR [rcx+1]
	jne	SHORT $LL442@ForInitAnd
	lea	r8, QWORD PTR init$[rbp-256]
	xor	edx, edx
	npad	13
$LL443@ForInitAnd:
	movzx	eax, BYTE PTR [r8+rdx]
	mov	BYTE PTR [rcx+rdx], al
	inc	rdx
	test	al, al
	jne	SHORT $LL443@ForInitAnd
	lea	rcx, QWORD PTR codebuff$11[rsp]
	call	AddLineQueue

; 1148 :         }

	jmp	$skip$578
$LN97@ForInitAnd:

; 1149 :         else if ((strlen(op) == 1) && ((init[6] == ' ') || (init[6] == '\t'))){

	cmp	rax, 1
	jne	$LN122@ForInitAnd
	movzx	edx, BYTE PTR init$[rbp-250]
	cmp	dl, 32					; 00000020H
	je	SHORT $LN107@ForInitAnd
	cmp	dl, 9
	jne	$LN105@ForInitAnd
$LN107@ForInitAnd:

; 1150 :           if (0 == _memicmp(init, "OFFSET", 6))

	mov	r8d, 6
	lea	rdx, OFFSET FLAT:$SG11530
	lea	rcx, QWORD PTR init$[rbp-256]
	call	_memicmp
	test	eax, eax
	jne	SHORT $LN108@ForInitAnd

; 1151 :             WriteAsmLine(" lea  ", param, init + 7);

	lea	r8, QWORD PTR init$[rbp-249]
	lea	rdx, QWORD PTR param$[rbp-256]
	lea	rcx, OFFSET FLAT:$SG11531
	call	WriteAsmLine
	jmp	$skip$578
$LN108@ForInitAnd:

; 1152 :           else WriteAsmLine(" mov  ", param, init);

	xor	ecx, ecx
	npad	5
$LL196@ForInitAnd:
	movzx	eax, BYTE PTR $SG11532[rcx+rbx]
	mov	BYTE PTR codebuff$9[rsp+rcx], al
	lea	rcx, QWORD PTR [rcx+1]
	test	al, al
	jne	SHORT $LL196@ForInitAnd
	lea	rcx, QWORD PTR codebuff$9[rsp]
	dec	rcx
	npad	4
$LL440@ForInitAnd:
	cmp	BYTE PTR [rcx+1], 0
	lea	rcx, QWORD PTR [rcx+1]
	jne	SHORT $LL440@ForInitAnd
	lea	r8, QWORD PTR param$[rbp-256]
	xor	edx, edx
	npad	13
$LL441@ForInitAnd:
	movzx	eax, BYTE PTR [r8+rdx]
	mov	BYTE PTR [rcx+rdx], al
	lea	rdx, QWORD PTR [rdx+1]
	test	al, al
	jne	SHORT $LL441@ForInitAnd
	lea	rcx, QWORD PTR codebuff$9[rsp]
	dec	rcx
	npad	8
$LL438@ForInitAnd:
	cmp	BYTE PTR [rcx+1], 0
	lea	rcx, QWORD PTR [rcx+1]
	jne	SHORT $LL438@ForInitAnd
	xor	edx, edx
	lea	rbx, OFFSET FLAT:$SG11355
	npad	13
$LL439@ForInitAnd:
	movzx	eax, BYTE PTR [rbx+rdx]
	mov	BYTE PTR [rcx+rdx], al
	lea	rdx, QWORD PTR [rdx+1]
	test	al, al
	jne	SHORT $LL439@ForInitAnd
	lea	rcx, QWORD PTR codebuff$9[rsp]
	dec	rcx
	npad	9
$LL436@ForInitAnd:
	cmp	BYTE PTR [rcx+1], 0
	lea	rcx, QWORD PTR [rcx+1]
	jne	SHORT $LL436@ForInitAnd
	lea	r8, QWORD PTR init$[rbp-256]
	xor	edx, edx
	npad	13
$LL437@ForInitAnd:
	movzx	eax, BYTE PTR [r8+rdx]
	mov	BYTE PTR [rcx+rdx], al
	inc	rdx
	test	al, al
	jne	SHORT $LL437@ForInitAnd
	lea	rcx, QWORD PTR codebuff$9[rsp]
	call	AddLineQueue

; 1153 :         }

	jmp	$skip$578
$LN105@ForInitAnd:

; 1154 :         else if ((strlen(op) == 1) && ((init[5] == ' ') || (init[5] == '\t'))){            //op is '='

	cmp	rax, 1
	jne	$LN122@ForInitAnd
	movzx	edx, BYTE PTR init$[rbp-251]
	cmp	dl, 32					; 00000020H
	je	SHORT $LN112@ForInitAnd
	cmp	dl, 9
	jne	$LN110@ForInitAnd
$LN112@ForInitAnd:

; 1155 :           if ((0 == _memicmp(init, "DWORD PTR", 9) || 0 == _memicmp(init, "DPTR", 4)

	mov	r8d, 9
	lea	rdx, OFFSET FLAT:$SG11539
	lea	rcx, QWORD PTR init$[rbp-256]
	call	_memicmp
	test	eax, eax
	je	$LN116@ForInitAnd
	mov	r8d, 4
	lea	rdx, OFFSET FLAT:$SG11540
	lea	rcx, QWORD PTR init$[rbp-256]
	call	_memicmp
	test	eax, eax
	jne	SHORT $LN113@ForInitAnd
	movzx	eax, BYTE PTR param$[rbp-256]
	sub	al, 82					; 00000052H
	test	al, 223					; 000000dfH
	je	$LN116@ForInitAnd
$LN113@ForInitAnd:

; 1158 :           else WriteAsmLine(" mov  ", param, init);

	xor	ecx, ecx
	npad	2
$LL202@ForInitAnd:
	movzx	eax, BYTE PTR $SG11543[rcx+rbx]
	mov	BYTE PTR codebuff$7[rsp+rcx], al
	lea	rcx, QWORD PTR [rcx+1]
	test	al, al
	jne	SHORT $LL202@ForInitAnd
	lea	rcx, QWORD PTR codebuff$7[rsp]
	dec	rcx
	npad	4
$LL434@ForInitAnd:
	cmp	BYTE PTR [rcx+1], 0
	lea	rcx, QWORD PTR [rcx+1]
	jne	SHORT $LL434@ForInitAnd
	lea	r8, QWORD PTR param$[rbp-256]
	xor	edx, edx
	npad	13
$LL435@ForInitAnd:
	movzx	eax, BYTE PTR [r8+rdx]
	mov	BYTE PTR [rcx+rdx], al
	lea	rdx, QWORD PTR [rdx+1]
	test	al, al
	jne	SHORT $LL435@ForInitAnd
	lea	rcx, QWORD PTR codebuff$7[rsp]
	dec	rcx
	npad	8
$LL432@ForInitAnd:
	cmp	BYTE PTR [rcx+1], 0
	lea	rcx, QWORD PTR [rcx+1]
	jne	SHORT $LL432@ForInitAnd
	xor	edx, edx
	lea	rbx, OFFSET FLAT:$SG11355
	npad	13
$LL433@ForInitAnd:
	movzx	eax, BYTE PTR [rbx+rdx]
	mov	BYTE PTR [rcx+rdx], al
	lea	rdx, QWORD PTR [rdx+1]
	test	al, al
	jne	SHORT $LL433@ForInitAnd
	lea	rcx, QWORD PTR codebuff$7[rsp]
	dec	rcx
	npad	9
$LL430@ForInitAnd:
	cmp	BYTE PTR [rcx+1], 0
	lea	rcx, QWORD PTR [rcx+1]
	jne	SHORT $LL430@ForInitAnd
	lea	r8, QWORD PTR init$[rbp-256]
	xor	edx, edx
	npad	13
$LL431@ForInitAnd:
	movzx	eax, BYTE PTR [r8+rdx]
	mov	BYTE PTR [rcx+rdx], al
	inc	rdx
	test	al, al
	jne	SHORT $LL431@ForInitAnd
	lea	rcx, QWORD PTR codebuff$7[rsp]
	call	AddLineQueue
	jmp	$skip$578
$LN116@ForInitAnd:

; 1156 :             && (param[0] == 'r' || param[0] == 'R'))) 							   //rax=DWORD PTR eax
; 1157 :             WriteAsmLine(" movsxd  ", param, init);								     //movsxd rax,eax

	xor	ecx, ecx
$LL199@ForInitAnd:
	movzx	eax, BYTE PTR $SG11542[rcx+rbx]
	mov	BYTE PTR codebuff$8[rsp+rcx], al
	lea	rcx, QWORD PTR [rcx+1]
	test	al, al
	jne	SHORT $LL199@ForInitAnd
	lea	rcx, QWORD PTR codebuff$8[rsp]
	dec	rcx
	npad	4
$LL428@ForInitAnd:
	cmp	BYTE PTR [rcx+1], 0
	lea	rcx, QWORD PTR [rcx+1]
	jne	SHORT $LL428@ForInitAnd
	lea	r8, QWORD PTR param$[rbp-256]
	xor	edx, edx
	npad	13
$LL429@ForInitAnd:
	movzx	eax, BYTE PTR [r8+rdx]
	mov	BYTE PTR [rcx+rdx], al
	lea	rdx, QWORD PTR [rdx+1]
	test	al, al
	jne	SHORT $LL429@ForInitAnd
	lea	rcx, QWORD PTR codebuff$8[rsp]
	dec	rcx
	npad	8
$LL426@ForInitAnd:
	cmp	BYTE PTR [rcx+1], 0
	lea	rcx, QWORD PTR [rcx+1]
	jne	SHORT $LL426@ForInitAnd
	xor	edx, edx
	lea	rbx, OFFSET FLAT:$SG11355
	npad	13
$LL427@ForInitAnd:
	movzx	eax, BYTE PTR [rbx+rdx]
	mov	BYTE PTR [rcx+rdx], al
	lea	rdx, QWORD PTR [rdx+1]
	test	al, al
	jne	SHORT $LL427@ForInitAnd
	lea	rcx, QWORD PTR codebuff$8[rsp]
	dec	rcx
	npad	9
$LL424@ForInitAnd:
	cmp	BYTE PTR [rcx+1], 0
	lea	rcx, QWORD PTR [rcx+1]
	jne	SHORT $LL424@ForInitAnd
	lea	r8, QWORD PTR init$[rbp-256]
	xor	edx, edx
	npad	13
$LL425@ForInitAnd:
	movzx	eax, BYTE PTR [r8+rdx]
	mov	BYTE PTR [rcx+rdx], al
	inc	rdx
	test	al, al
	jne	SHORT $LL425@ForInitAnd
	lea	rcx, QWORD PTR codebuff$8[rsp]
	call	AddLineQueue

; 1159 :         }

	jmp	$skip$578
$LN110@ForInitAnd:

; 1160 :         else if ((strlen(op) == 1) && brct){											    //op is '='

	cmp	rax, 1
	jne	$LN122@ForInitAnd
	test	sil, sil
	je	$LN117@ForInitAnd

; 1161 :           for (j = strlen(init); j; j--){

	movsxd	r8, ecx
	test	ecx, ecx
	je	SHORT $LN14@ForInitAnd
	npad	8
$LL15@ForInitAnd:
	lea	rdx, QWORD PTR init$[rbp-256]
	add	rdx, r8

; 1162 :             if (init[j] == ')') init[j] = NULLC;

	cmp	BYTE PTR [rdx], 41			; 00000029H
	jne	SHORT $LN119@ForInitAnd
	mov	BYTE PTR [rdx], 0
$LN119@ForInitAnd:

; 1163 :             if (init[j] == '('){

	cmp	BYTE PTR [rdx], 40			; 00000028H
	jne	SHORT $LN13@ForInitAnd

; 1164 :               for (p = init, p += j; *p; p++){

	mov	rcx, rdx
	mov	al, 40					; 00000028H
	npad	4
$LL18@ForInitAnd:

; 1165 :                 if (*p == ',' && cnt) --cnt;

	cmp	al, 44					; 0000002cH
	jne	SHORT $LN16@ForInitAnd
	test	r14d, r14d
	je	SHORT $LN16@ForInitAnd
	dec	r14d
$LN16@ForInitAnd:

; 1164 :               for (p = init, p += j; *p; p++){

	movzx	eax, BYTE PTR [rcx+1]
	inc	rcx
	test	al, al
	jne	SHORT $LL18@ForInitAnd

; 1166 :               }
; 1167 :               init[j] = ',';

	mov	BYTE PTR [rdx], 44			; 0000002cH
$LN13@ForInitAnd:

; 1161 :           for (j = strlen(init); j; j--){

	sub	r8, 1
	jne	SHORT $LL15@ForInitAnd
$LN14@ForInitAnd:

; 1168 :             }
; 1169 :           }
; 1170 :           strcpy(codebuff, " invoke  ");

	xor	ecx, ecx
	npad	14
$LL154@ForInitAnd:
	movzx	eax, BYTE PTR $SG11549[rcx+rbx]
	mov	BYTE PTR codebuff$[rbp+rcx-256], al
	lea	rcx, QWORD PTR [rcx+1]
	test	al, al
	jne	SHORT $LL154@ForInitAnd

; 1171 :           strcat(codebuff, init);

	lea	rcx, QWORD PTR codebuff$[rbp-256]
	dec	rcx
	npad	5
$LL422@ForInitAnd:
	cmp	BYTE PTR [rcx+1], 0
	lea	rcx, QWORD PTR [rcx+1]
	jne	SHORT $LL422@ForInitAnd
	lea	r8, QWORD PTR init$[rbp-256]
	xor	edx, edx
	npad	13
$LL423@ForInitAnd:
	movzx	eax, BYTE PTR [r8+rdx]
	mov	BYTE PTR [rcx+rdx], al
	lea	rdx, QWORD PTR [rdx+1]
	test	al, al
	jne	SHORT $LL423@ForInitAnd

; 1172 :           AddLineQueue(codebuff);

	lea	rcx, QWORD PTR codebuff$[rbp-256]
	call	AddLineQueue

; 1173 :           WriteAsmLine(" mov  ", param, reax);

	xor	ecx, ecx
	npad	5
$LL205@ForInitAnd:
	movzx	eax, BYTE PTR $SG11550[rcx+rbx]
	mov	BYTE PTR codebuff$6[rsp+rcx], al
	lea	rcx, QWORD PTR [rcx+1]
	test	al, al
	jne	SHORT $LL205@ForInitAnd
	lea	rcx, QWORD PTR codebuff$6[rsp]
	dec	rcx
	npad	4
$LL420@ForInitAnd:
	cmp	BYTE PTR [rcx+1], 0
	lea	rcx, QWORD PTR [rcx+1]
	jne	SHORT $LL420@ForInitAnd
	lea	r8, QWORD PTR param$[rbp-256]
	xor	edx, edx
	npad	13
$LL421@ForInitAnd:
	movzx	eax, BYTE PTR [r8+rdx]
	mov	BYTE PTR [rcx+rdx], al
	lea	rdx, QWORD PTR [rdx+1]
	test	al, al
	jne	SHORT $LL421@ForInitAnd
	lea	rcx, QWORD PTR codebuff$6[rsp]
	dec	rcx
	npad	8
$LL418@ForInitAnd:
	cmp	BYTE PTR [rcx+1], 0
	lea	rcx, QWORD PTR [rcx+1]
	jne	SHORT $LL418@ForInitAnd
	xor	edx, edx
	lea	rbx, OFFSET FLAT:$SG11355
	npad	13
$LL419@ForInitAnd:
	movzx	eax, BYTE PTR [rbx+rdx]
	mov	BYTE PTR [rcx+rdx], al
	lea	rdx, QWORD PTR [rdx+1]
	test	al, al
	jne	SHORT $LL419@ForInitAnd
	lea	rcx, QWORD PTR codebuff$6[rsp]
	dec	rcx
	npad	9
$LL416@ForInitAnd:
	cmp	BYTE PTR [rcx+1], 0
	lea	rcx, QWORD PTR [rcx+1]
	jne	SHORT $LL416@ForInitAnd
	xor	edx, edx
	lea	r12, OFFSET FLAT:reax
	npad	13
$LL417@ForInitAnd:
	movzx	eax, BYTE PTR [r12+rdx]
	mov	BYTE PTR [rcx+rdx], al
	inc	rdx
	test	al, al
	jne	SHORT $LL417@ForInitAnd
	mov	r12, QWORD PTR buff$[rbp-256]
	lea	rcx, QWORD PTR codebuff$6[rsp]
	call	AddLineQueue

; 1174 :           brct = FALSE;

	xor	sil, sil

; 1175 :         }

	jmp	$skip$578
$LN117@ForInitAnd:

; 1176 :         else {
; 1177 :           if (strlen(op) == 1)

	cmp	rax, 1
	jne	$LN122@ForInitAnd

; 1178 :             WriteAsmLine(" mov  ", param, init);

	xor	ecx, ecx
	npad	12
$LL208@ForInitAnd:
	movzx	eax, BYTE PTR $SG11553[rcx+rbx]
	mov	BYTE PTR codebuff$5[rsp+rcx], al
	lea	rcx, QWORD PTR [rcx+1]
	test	al, al
	jne	SHORT $LL208@ForInitAnd
	lea	rcx, QWORD PTR codebuff$5[rsp]
	dec	rcx
	npad	4
$LL414@ForInitAnd:
	cmp	BYTE PTR [rcx+1], 0
	lea	rcx, QWORD PTR [rcx+1]
	jne	SHORT $LL414@ForInitAnd
	lea	r8, QWORD PTR param$[rbp-256]
	xor	edx, edx
	npad	13
$LL415@ForInitAnd:
	movzx	eax, BYTE PTR [r8+rdx]
	mov	BYTE PTR [rcx+rdx], al
	lea	rdx, QWORD PTR [rdx+1]
	test	al, al
	jne	SHORT $LL415@ForInitAnd
	lea	rcx, QWORD PTR codebuff$5[rsp]
	dec	rcx
	npad	8
$LL412@ForInitAnd:
	cmp	BYTE PTR [rcx+1], 0
	lea	rcx, QWORD PTR [rcx+1]
	jne	SHORT $LL412@ForInitAnd
	xor	edx, edx
	lea	rbx, OFFSET FLAT:$SG11355
	npad	13
$LL413@ForInitAnd:
	movzx	eax, BYTE PTR [rbx+rdx]
	mov	BYTE PTR [rcx+rdx], al
	lea	rdx, QWORD PTR [rdx+1]
	test	al, al
	jne	SHORT $LL413@ForInitAnd
	lea	rcx, QWORD PTR codebuff$5[rsp]
	dec	rcx
	npad	9
$LL410@ForInitAnd:
	cmp	BYTE PTR [rcx+1], 0
	lea	rcx, QWORD PTR [rcx+1]
	jne	SHORT $LL410@ForInitAnd
	lea	r8, QWORD PTR init$[rbp-256]
	xor	edx, edx
	npad	13
$LL411@ForInitAnd:
	movzx	eax, BYTE PTR [r8+rdx]
	mov	BYTE PTR [rcx+rdx], al
	inc	rdx
	test	al, al
	jne	SHORT $LL411@ForInitAnd
	lea	rcx, QWORD PTR codebuff$5[rsp]
	call	AddLineQueue
	jmp	$skip$578
$LN122@ForInitAnd:

; 1179 :           else
; 1180 :             WriteAsmLine(codebuff, param, init);

	xor	ecx, ecx
$LL211@ForInitAnd:
	movzx	eax, BYTE PTR codebuff$[rbp+rcx-256]
	mov	BYTE PTR codebuff$4[rsp+rcx], al
	lea	rcx, QWORD PTR [rcx+1]
	test	al, al
	jne	SHORT $LL211@ForInitAnd
	lea	rcx, QWORD PTR codebuff$4[rsp]
	dec	rcx
	npad	7
$LL408@ForInitAnd:
	cmp	BYTE PTR [rcx+1], 0
	lea	rcx, QWORD PTR [rcx+1]
	jne	SHORT $LL408@ForInitAnd
	lea	r8, QWORD PTR param$[rbp-256]
	xor	edx, edx
	npad	13
$LL409@ForInitAnd:
	movzx	eax, BYTE PTR [r8+rdx]
	mov	BYTE PTR [rcx+rdx], al
	lea	rdx, QWORD PTR [rdx+1]
	test	al, al
	jne	SHORT $LL409@ForInitAnd
	lea	rcx, QWORD PTR codebuff$4[rsp]
	dec	rcx
	npad	8
$LL406@ForInitAnd:
	cmp	BYTE PTR [rcx+1], 0
	lea	rcx, QWORD PTR [rcx+1]
	jne	SHORT $LL406@ForInitAnd
	xor	edx, edx
	lea	rbx, OFFSET FLAT:$SG11355
	npad	13
$LL407@ForInitAnd:
	movzx	eax, BYTE PTR [rbx+rdx]
	mov	BYTE PTR [rcx+rdx], al
	lea	rdx, QWORD PTR [rdx+1]
	test	al, al
	jne	SHORT $LL407@ForInitAnd
	lea	rcx, QWORD PTR codebuff$4[rsp]
	dec	rcx
	npad	9
$LL404@ForInitAnd:
	cmp	BYTE PTR [rcx+1], 0
	lea	rcx, QWORD PTR [rcx+1]
	jne	SHORT $LL404@ForInitAnd
	lea	r8, QWORD PTR init$[rbp-256]
	xor	edx, edx
	npad	13
$LL405@ForInitAnd:
	movzx	eax, BYTE PTR [r8+rdx]
	mov	BYTE PTR [rcx+rdx], al
	inc	rdx
	test	al, al
	jne	SHORT $LL405@ForInitAnd
	lea	rcx, QWORD PTR codebuff$4[rsp]
	call	AddLineQueue

; 1181 :         }
; 1182 :       }

	jmp	$skip$578
$LN23@ForInitAnd:

; 977  :       param[a] = '\0';
; 978  :       if ((buff[b] == '+') && (buff[b + 1] == '+')) strcpy(codebuff, " inc ");

	movzx	eax, BYTE PTR [rcx]
	mov	BYTE PTR param$[rbp+rdi-256], 0
	cmp	al, 43					; 0000002bH
	jne	SHORT $LN24@ForInitAnd
	cmp	dl, al
	jne	SHORT $LN24@ForInitAnd
	xor	ecx, ecx
	lea	rbx, OFFSET FLAT:__ImageBase
	npad	6
$LL128@ForInitAnd:
	movzx	eax, BYTE PTR $SG11401[rcx+rbx]
	mov	BYTE PTR codebuff$[rbp+rcx-256], al
	lea	rcx, QWORD PTR [rcx+1]
	test	al, al
	jne	SHORT $LL128@ForInitAnd
	jmp	SHORT $LN26@ForInitAnd
$LN24@ForInitAnd:

; 979  :       else if ((buff[b] == '-') && (buff[b + 1] == '-')) strcpy(codebuff, " dec ");

	cmp	al, 45					; 0000002dH
	jne	SHORT $LN26@ForInitAnd
	cmp	dl, al
	jne	SHORT $LN26@ForInitAnd
	xor	ecx, ecx
	lea	rbx, OFFSET FLAT:__ImageBase
	npad	9
$LL129@ForInitAnd:
	movzx	eax, BYTE PTR $SG11403[rcx+rbx]
	mov	BYTE PTR codebuff$[rbp+rcx-256], al
	lea	rcx, QWORD PTR [rcx+1]
	test	al, al
	jne	SHORT $LL129@ForInitAnd
$LN26@ForInitAnd:

; 980  :       strcat(codebuff, param);

	lea	rcx, QWORD PTR codebuff$[rbp-256]
	dec	rcx
	npad	5
$LL402@ForInitAnd:
	cmp	BYTE PTR [rcx+1], 0
	lea	rcx, QWORD PTR [rcx+1]
	jne	SHORT $LL402@ForInitAnd
	lea	r8, QWORD PTR param$[rbp-256]
	xor	edx, edx
	npad	13
$LL403@ForInitAnd:
	movzx	eax, BYTE PTR [r8+rdx]
	mov	BYTE PTR [rcx+rdx], al
	inc	rdx
	test	al, al
	jne	SHORT $LL403@ForInitAnd

; 981  :       AddLineQueue(codebuff);

	lea	rcx, QWORD PTR codebuff$[rbp-256]
	call	AddLineQueue

; 982  :       b += 3;

	add	r15d, 3
$skip$578:

; 1190 :         }
; 1191 :       }
; 1192 :     }
; 1193 :   skip:
; 1194 :     if (cnt) cnt--;

	test	r14d, r14d
	je	SHORT $LN554@ForInitAnd

; 1195 :   } while (cnt);

	mov	r9, 145272973819904			; 0000842000000000H
	sub	r14d, 1
	jne	$LL4@ForInitAnd
$LN554@ForInitAnd:

; 1196 :   return(NOT_ERROR);

	xor	eax, eax

; 1197 : }

	mov	rbx, QWORD PTR [rsp+1144]
	add	rsp, 1056				; 00000420H
	pop	r15
	pop	r14
	pop	r13
	pop	r12
	pop	rdi
	pop	rsi
	pop	rbp
	ret	0
ForInitAndNext ENDP
_TEXT	ENDS
; Function compile flags: /Ogtpy
; File d:\hjwasm\hjwasm2.13.1s\hjwasm2.13.1s\hll.c
;	COMDAT WriteAsmLine
_TEXT	SEGMENT
codebuff$ = 32
cmd$ = 304
s1$ = 312
s2$ = 320
WriteAsmLine PROC					; COMDAT

; 943  : static void WriteAsmLine(const char *cmd, const char *s1, const char *s2){

	sub	rsp, 296				; 00000128H

; 944  :   char codebuff[256];
; 945  :   strcpy(codebuff, cmd);

	lea	r9, QWORD PTR codebuff$[rsp]
	mov	r10, rdx
	sub	r9, rcx
	npad	14
$LL3@WriteAsmLi:
	movzx	eax, BYTE PTR [rcx]
	mov	BYTE PTR [r9+rcx], al
	lea	rcx, QWORD PTR [rcx+1]
	test	al, al
	jne	SHORT $LL3@WriteAsmLi

; 946  :   strcat(codebuff, s1);

	lea	rcx, QWORD PTR codebuff$[rsp]
	dec	rcx
	npad	9
$LL11@WriteAsmLi:
	cmp	BYTE PTR [rcx+1], 0
	lea	rcx, QWORD PTR [rcx+1]
	jne	SHORT $LL11@WriteAsmLi
	xor	edx, edx
	npad	4
$LL12@WriteAsmLi:
	movzx	eax, BYTE PTR [r10+rdx]
	mov	BYTE PTR [rcx+rdx], al
	lea	rdx, QWORD PTR [rdx+1]
	test	al, al
	jne	SHORT $LL12@WriteAsmLi

; 947  :   strcat(codebuff, ", ");

	lea	rcx, QWORD PTR codebuff$[rsp]
	dec	rcx
	npad	8
$LL9@WriteAsmLi:
	cmp	BYTE PTR [rcx+1], 0
	lea	rcx, QWORD PTR [rcx+1]
	jne	SHORT $LL9@WriteAsmLi
	lea	r9, OFFSET FLAT:$SG11355
	xor	edx, edx
	npad	13
$LL10@WriteAsmLi:
	movzx	eax, BYTE PTR [r9+rdx]
	mov	BYTE PTR [rcx+rdx], al
	lea	rdx, QWORD PTR [rdx+1]
	test	al, al
	jne	SHORT $LL10@WriteAsmLi

; 948  :   strcat(codebuff, s2);

	lea	rcx, QWORD PTR codebuff$[rsp]
	dec	rcx
	npad	8
$LL7@WriteAsmLi:
	cmp	BYTE PTR [rcx+1], 0
	lea	rcx, QWORD PTR [rcx+1]
	jne	SHORT $LL7@WriteAsmLi
	xor	edx, edx
	npad	4
$LL8@WriteAsmLi:
	movzx	eax, BYTE PTR [r8+rdx]
	mov	BYTE PTR [rcx+rdx], al
	lea	rdx, QWORD PTR [rdx+1]
	test	al, al
	jne	SHORT $LL8@WriteAsmLi

; 949  :   AddLineQueue(codebuff);				// MOV RAX,param

	lea	rcx, QWORD PTR codebuff$[rsp]
	call	AddLineQueue

; 950  :   return;
; 951  : }

	add	rsp, 296				; 00000128H
	ret	0
WriteAsmLine ENDP
_TEXT	ENDS
; Function compile flags: /Ogtpy
; File d:\hjwasm\hjwasm2.13.1s\hjwasm2.13.1s\hll.c
;	COMDAT CheckCXZLines
_TEXT	SEGMENT
p$ = 48
CheckCXZLines PROC					; COMDAT

; 881  : {

	mov	QWORD PTR [rsp+8], rbx
	mov	QWORD PTR [rsp+16], rsi
	push	rdi
	sub	rsp, 32					; 00000020H

; 882  :   int lines = 0;
; 883  :   int i;
; 884  :   int addchars;
; 885  :   char *px;
; 886  :   bool NL = TRUE;
; 887  : 
; 888  :   DebugMsg1(("CheckCXZLines enter, p=>%s<\n", p));
; 889  :   /* syntax ".untilcxz 1" has a problem: there's no "jmp" generated at all.
; 890  :   * if this syntax is to be supported, activate the #if below.
; 891  :   */
; 892  :   for (; *p; p++) {

	movzx	eax, BYTE PTR [rcx]
	xor	edi, edi
	mov	rbx, rcx
	mov	sil, 1
	test	al, al
	je	$LN17@CheckCXZLi
$LL4@CheckCXZLi:

; 893  :     if (*p == EOLCHAR) {

	cmp	al, 10
	jne	SHORT $LN8@CheckCXZLi

; 894  :       NL = TRUE;

	mov	sil, 1

; 895  :       lines++;

	inc	edi

; 896  :     }

	jmp	$LN2@CheckCXZLi
$LN8@CheckCXZLi:

; 897  :     else if (NL) {

	test	sil, sil
	je	$LN2@CheckCXZLi

; 898  :       NL = FALSE;

	xor	sil, sil

; 899  :       if (*p == 'j') {

	cmp	al, 106					; 0000006aH
	jne	$LN2@CheckCXZLi

; 900  :         p++;
; 901  :         /* v2.06: rewritten */
; 902  :         if (*p == 'm' && lines == 0) {

	movzx	eax, BYTE PTR [rbx+1]
	cmp	al, 109					; 0000006dH
	jne	SHORT $LN12@CheckCXZLi
	test	edi, edi
	jne	SHORT $LN12@CheckCXZLi

; 903  :           addchars = 2; /* make room for 2 chars, to replace "jmp" by "loope" */

	lea	r8d, QWORD PTR [rdi+2]

; 904  :           px = "loope";

	lea	r9, OFFSET FLAT:$SG11337

; 905  :         }

	jmp	SHORT $LN15@CheckCXZLi
$LN12@CheckCXZLi:

; 906  :         else if (lines == 1 && (*p == 'z' || (*p == 'n' && *(p + 1) == 'z'))) {

	cmp	edi, 1
	jne	$LN14@CheckCXZLi
	cmp	al, 122					; 0000007aH
	je	SHORT $LN16@CheckCXZLi
	cmp	al, 110					; 0000006eH
	jne	$LN14@CheckCXZLi
	cmp	BYTE PTR [rbx+2], 122			; 0000007aH
	jne	$LN14@CheckCXZLi
$LN16@CheckCXZLi:

; 907  :           addchars = 3; /* make room for 3 chars, to replace "jz"/"jnz" by "loopz"/"loopnz" */

	mov	r8d, 3

; 908  :           px = "loop";

	lea	r9, OFFSET FLAT:$SG11341
$LN15@CheckCXZLi:

; 909  :         }
; 910  :         else
; 911  :           return(ERROR); /* anything else is "too complex" */
; 912  :         //replace_instr:
; 913  :         for (p--, i = strlen(p); i >= 0; i--) {

	or	rax, -1
	npad	3
$LL29@CheckCXZLi:
	inc	rax
	cmp	BYTE PTR [rbx+rax], 0
	jne	SHORT $LL29@CheckCXZLi
	movsxd	rdx, eax
	test	eax, eax
	js	SHORT $LN6@CheckCXZLi
	lea	rax, QWORD PTR [rdx+r8]
	neg	r8
	add	rax, rbx
	inc	rdx
	npad	3
$LL7@CheckCXZLi:

; 914  :           *(p + addchars + i) = *(p + i);

	movzx	ecx, BYTE PTR [r8+rax]
	mov	BYTE PTR [rax], cl
	dec	rax
	sub	rdx, 1
	jne	SHORT $LL7@CheckCXZLi
$LN6@CheckCXZLi:

; 915  :         }
; 916  :         memcpy(p, px, strlen(px));

	or	r8, -1
$LL28@CheckCXZLi:
	inc	r8
	cmp	BYTE PTR [r9+r8], 0
	jne	SHORT $LL28@CheckCXZLi
	mov	rdx, r9
	mov	rcx, rbx
	call	memcpy
$LN2@CheckCXZLi:

; 882  :   int lines = 0;
; 883  :   int i;
; 884  :   int addchars;
; 885  :   char *px;
; 886  :   bool NL = TRUE;
; 887  : 
; 888  :   DebugMsg1(("CheckCXZLines enter, p=>%s<\n", p));
; 889  :   /* syntax ".untilcxz 1" has a problem: there's no "jmp" generated at all.
; 890  :   * if this syntax is to be supported, activate the #if below.
; 891  :   */
; 892  :   for (; *p; p++) {

	movzx	eax, BYTE PTR [rbx+1]
	inc	rbx
	test	al, al
	jne	$LL4@CheckCXZLi

; 917  :       }
; 918  : #if 0 /* handle ".untilcxz 1" like masm does */
; 919  :       else if (*p == ' ' && *(p + 1) == EOLCHAR && lines == 0) {
; 920  :         p++;
; 921  :         GetLabelStr(hll->labels[LSTART], p);
; 922  :         strcat(p, EOLSTR);
; 923  :         addchars = 5;
; 924  :         px = "loope";
; 925  :         goto replace_instr;
; 926  :       }
; 927  : #endif
; 928  :     }
; 929  :   }
; 930  :   if (lines > 2)

	cmp	edi, 2
	jg	SHORT $LN14@CheckCXZLi
$LN17@CheckCXZLi:

; 931  :     return(ERROR);
; 932  :   return(NOT_ERROR);

	xor	eax, eax

; 933  : }

	mov	rbx, QWORD PTR [rsp+48]
	mov	rsi, QWORD PTR [rsp+56]
	add	rsp, 32					; 00000020H
	pop	rdi
	ret	0
$LN14@CheckCXZLi:
	mov	rbx, QWORD PTR [rsp+48]
	or	eax, -1
	mov	rsi, QWORD PTR [rsp+56]
	add	rsp, 32					; 00000020H
	pop	rdi
	ret	0
CheckCXZLines ENDP
_TEXT	ENDS
; Function compile flags: /Ogtpy
; File d:\hjwasm\hjwasm2.13.1s\hjwasm2.13.1s\hll.c
;	COMDAT EvaluateHllExpression
_TEXT	SEGMENT
hllop$ = 64
hll$ = 96
i$ = 104
tokenarray$ = 112
ilabel$ = 120
is_true$ = 128
buffer$ = 136
EvaluateHllExpression PROC				; COMDAT

; 856  : {

	mov	QWORD PTR [rsp+8], rbx
	push	rdi
	sub	rsp, 80					; 00000050H

; 857  :   struct hll_opnd hllop = { NULL, 0 };

	xor	eax, eax
	mov	rdi, rdx
	mov	QWORD PTR hllop$[rsp], rax

; 858  : 
; 859  :   DebugMsg1(("EvaluateHllExpression enter\n"));
; 860  : 
; 861  :   *buffer = NULLC;
; 862  :   if (ERROR == GetExpression(hll, i, tokenarray, ilabel, is_true, buffer, &hllop))

	lea	rdx, QWORD PTR hllop$[rsp]
	mov	QWORD PTR [rsp+48], rdx
	mov	rbx, r8
	mov	DWORD PTR hllop$[rsp+8], eax
	mov	rdx, rdi
	mov	rax, QWORD PTR buffer$[rsp]
	mov	QWORD PTR [rsp+40], rax
	mov	BYTE PTR [rax], 0
	movzx	eax, BYTE PTR is_true$[rsp]
	mov	BYTE PTR [rsp+32], al
	call	GetExpression
	cmp	eax, -1
	jne	SHORT $LN2@EvaluateHl

; 863  :     return(ERROR);

	or	eax, eax

; 872  : }

	mov	rbx, QWORD PTR [rsp+96]
	add	rsp, 80					; 00000050H
	pop	rdi
	ret	0
$LN2@EvaluateHl:

; 864  :   /* v2.11: changed */
; 865  :   //if ( *buffer == EOLCHAR ) {
; 866  :   //DebugMsg(( "EvaluateHllExpression: EOL at pos 0 in line buffer\n" ));
; 867  :   if (tokenarray[*i].token != T_FINAL) {

	movsxd	rax, DWORD PTR [rdi]
	shl	rax, 5
	cmp	BYTE PTR [rax+rbx], 0
	je	SHORT $LN3@EvaluateHl

; 868  :     DebugMsg(("EvaluateHllExpression: unexpected tokens >%s<\n", tokenarray[*i].tokpos));
; 869  :     return(EmitError(SYNTAX_ERROR_IN_CONTROL_FLOW_DIRECTIVE));

	mov	ecx, 199				; 000000c7H
	call	EmitError

; 872  : }

	mov	rbx, QWORD PTR [rsp+96]
	add	rsp, 80					; 00000050H
	pop	rdi
	ret	0
$LN3@EvaluateHl:

; 870  :   }
; 871  :   return(NOT_ERROR);

	xor	eax, eax

; 872  : }

	mov	rbx, QWORD PTR [rsp+96]
	add	rsp, 80					; 00000050H
	pop	rdi
	ret	0
EvaluateHllExpression ENDP
_TEXT	ENDS
; Function compile flags: /Ogtpy
; File d:\hjwasm\hjwasm2.13.1s\hjwasm2.13.1s\hll.c
;	COMDAT QueueTestLines
_TEXT	SEGMENT
src$ = 48
QueueTestLines PROC					; COMDAT

; 819  : {

	push	rbx
	sub	rsp, 32					; 00000020H
	mov	rbx, rcx

; 820  :   char *start;
; 821  : 
; 822  :   DebugMsg1(("QueueTestLines(\"%s\") enter\n", src ? src : "NULL"));
; 823  :   while (src) {

	test	rcx, rcx
	je	SHORT $LN10@QueueTestL
	mov	QWORD PTR [rsp+48], rdi
	npad	13
$LL2@QueueTestL:

; 824  :     //if (*src == ' ') src++; /* v2.11: obsolete */
; 825  :     start = src;
; 826  :     if (src = strchr(src, EOLCHAR))

	mov	edx, 10
	mov	rcx, rbx
	mov	rdi, rbx
	call	strchr
	mov	rbx, rax
	test	rax, rax
	je	SHORT $LN4@QueueTestL

; 827  :       *src++ = NULLC;

	mov	BYTE PTR [rax], 0
	inc	rbx
$LN4@QueueTestL:

; 828  :     if (*start)

	cmp	BYTE PTR [rdi], 0
	je	SHORT $LN5@QueueTestL

; 829  :       AddLineQueue(start);

	mov	rcx, rdi
	call	AddLineQueue
$LN5@QueueTestL:

; 820  :   char *start;
; 821  : 
; 822  :   DebugMsg1(("QueueTestLines(\"%s\") enter\n", src ? src : "NULL"));
; 823  :   while (src) {

	test	rbx, rbx
	jne	SHORT $LL2@QueueTestL
	mov	rdi, QWORD PTR [rsp+48]
$LN10@QueueTestL:

; 830  :   }
; 831  : 
; 832  :   DebugMsg1(("QueueTestLines exit\n"));
; 833  :   return(NOT_ERROR);

	xor	eax, eax

; 834  : }

	add	rsp, 32					; 00000020H
	pop	rbx
	ret	0
QueueTestLines ENDP
_TEXT	ENDS
; Function compile flags: /Ogtpy
; File d:\hjwasm\hjwasm2.13.1s\hjwasm2.13.1s\hll.c
;	COMDAT GetAndExpression
_TEXT	SEGMENT
hll$ = 128
i$ = 136
tokenarray$ = 144
ilabel$ = 152
is_true$ = 160
buffer$ = 168
hllop$ = 176
GetAndExpression PROC					; COMDAT

; 667  : {

	mov	QWORD PTR [rsp+16], rbx
	mov	DWORD PTR [rsp+32], r9d
	mov	QWORD PTR [rsp+8], rcx
	push	rbp
	push	rsi
	push	rdi
	push	r12
	push	r13
	push	r14
	push	r15
	sub	rsp, 64					; 00000040H

; 668  :   char *ptr = buffer;
; 669  :   uint_32 truelabel = 0;
; 670  :   //char buff[16];
; 671  :   //char *nlabel;
; 672  :   //char *olabel;
; 673  : 
; 674  :   DebugMsg1(("%u GetAndExpression(>%.32s< buf=>%s<) enter\n", evallvl, tokenarray[*i].tokpos, buffer));
; 675  : 
; 676  :   if (ERROR == GetSimpleExpression(hll, i, tokenarray, ilabel, is_true, ptr, hllop))

	mov	r15, QWORD PTR hllop$[rsp]
	mov	rax, rcx
	mov	rcx, QWORD PTR buffer$[rsp]
	mov	ebx, r9d
	movzx	r12d, BYTE PTR is_true$[rsp]
	mov	rdi, rcx
	mov	QWORD PTR [rsp+48], r15
	mov	r13, r8
	mov	QWORD PTR [rsp+40], rcx
	mov	r14, rdx
	mov	rcx, rax
	mov	BYTE PTR [rsp+32], r12b
	xor	ebp, ebp
	call	GetSimpleExpression
	cmp	eax, -1
	jne	SHORT $LN20@GetAndExpr

; 677  :     return(ERROR);

	or	rax, -1
	jmp	$LN1@GetAndExpr
$LN20@GetAndExpr:

; 678  :   while (COP_AND == GetCOp(&tokenarray[*i])) {

	movsxd	rcx, DWORD PTR [r14]
	shl	rcx, 5
	add	rcx, r13
	call	GetCOp
	cmp	eax, 7
	jne	$LN10@GetAndExpr
	or	rsi, -1
	npad	7
$LL2@GetAndExpr:

; 679  : 
; 680  :     (*i)++;

	inc	DWORD PTR [r14]

; 681  :     DebugMsg1(("%u GetAndExpression: &&-operator found, is_true=%u, lastjmp=%s\n", evallvl, is_true, hllop->lastjmp ? hllop->lastjmp : "NULL"));
; 682  : 
; 683  :     if (is_true) {

	test	r12b, r12b
	je	$LN6@GetAndExpr

; 684  :       /* todo: please describe what's done here and why! */
; 685  :       if (hllop->lastjmp) {

	mov	rbx, QWORD PTR [r15]
	test	rbx, rbx
	je	$LN31@GetAndExpr

; 686  :         char *p = hllop->lastjmp;
; 687  :         InvertJump(p);          /* step 1 */

	mov	rcx, rbx
	call	InvertJump

; 688  :         if (truelabel == 0)     /* step 2 */

	test	ebp, ebp
	jne	SHORT $LN7@GetAndExpr

; 689  :           truelabel = GetHllLabel();

	mov	ebp, DWORD PTR ModuleInfo+352
	inc	ebp
	mov	DWORD PTR ModuleInfo+352, ebp
$LN7@GetAndExpr:

; 690  : 
; 691  : 		if (*p && strlen(p) < 11) {/* v2.11: there might be a 0 at lastjmp */

	cmp	BYTE PTR [rbx], 0
	je	SHORT $LN8@GetAndExpr
	mov	rax, rsi
	npad	6
$LL30@GetAndExpr:
	inc	rax
	cmp	BYTE PTR [rbx+rax], 0
	jne	SHORT $LL30@GetAndExpr
	cmp	rax, 11
	jae	SHORT $LN8@GetAndExpr

; 692  :           p += 4;               /* skip 'jcc ' or 'jmp ' */
; 693  :           GetLabelStr(truelabel, p);

	mov	r8d, ebp
	lea	rdx, OFFSET FLAT:$SG11064
	lea	rcx, QWORD PTR [rbx+4]
	call	sprintf

; 694  :           strcat(p, EOLSTR);

	sub	rbx, -3
$LL28@GetAndExpr:
	cmp	BYTE PTR [rbx+1], 0
	lea	rbx, QWORD PTR [rbx+1]
	jne	SHORT $LL28@GetAndExpr
	xor	ecx, ecx
	lea	r12, OFFSET FLAT:$SG11246
	npad	7
$LL29@GetAndExpr:
	movzx	eax, BYTE PTR [r12+rcx]
	mov	BYTE PTR [rbx+rcx], al
	lea	rcx, QWORD PTR [rcx+1]
	test	al, al
	jne	SHORT $LL29@GetAndExpr
	movzx	r12d, BYTE PTR is_true$[rsp]
$LN8@GetAndExpr:

; 695  :         }
; 696  : 
; 697  :         DebugMsg1(("%u GetAndExpression: jmp inverted >%s<\n", evallvl, hllop->lastjmp));
; 698  :         ReplaceLabel(buffer, GetLabel(hll, ilabel), truelabel);

	mov	rcx, QWORD PTR hll$[rsp]
	mov	r8d, ebp
	movsxd	rbx, DWORD PTR ilabel$[rsp]
	mov	edx, DWORD PTR [rcx+rbx*4+8]
	mov	rcx, QWORD PTR buffer$[rsp]
	call	ReplaceLabel

; 699  :         hllop->lastjmp = NULL;

	mov	QWORD PTR [r15], 0
	jmp	SHORT $LN6@GetAndExpr
$LN31@GetAndExpr:
	mov	ebx, DWORD PTR ilabel$[rsp]
$LN6@GetAndExpr:

; 700  :       }
; 701  :     }
; 702  :     ptr += strlen(ptr);

	mov	rax, rsi
$LL27@GetAndExpr:
	inc	rax
	cmp	BYTE PTR [rdi+rax], 0
	jne	SHORT $LL27@GetAndExpr

; 703  :     hllop->lasttruelabel = 0; /* v2.08 */
; 704  :     if (ERROR == GetSimpleExpression(hll, i, tokenarray, ilabel, is_true, ptr, hllop))

	mov	rcx, QWORD PTR hll$[rsp]
	add	rdi, rax
	mov	QWORD PTR [rsp+48], r15
	mov	r9d, ebx
	mov	QWORD PTR [rsp+40], rdi
	mov	r8, r13
	mov	rdx, r14
	mov	BYTE PTR [rsp+32], r12b
	mov	DWORD PTR [r15+8], 0
	call	GetSimpleExpression
	cmp	eax, -1
	je	$LN21@GetAndExpr

; 678  :   while (COP_AND == GetCOp(&tokenarray[*i])) {

	movsxd	rcx, DWORD PTR [r14]
	shl	rcx, 5
	add	rcx, r13
	call	GetCOp
	cmp	eax, 7
	je	$LL2@GetAndExpr

; 706  :   };
; 707  : 
; 708  :   if (truelabel > 0) {

	test	ebp, ebp
	je	SHORT $LN10@GetAndExpr
	npad	2
$LL26@GetAndExpr:

; 709  :     ptr += strlen(ptr);

	inc	rsi
	cmp	BYTE PTR [rdi+rsi], 0
	jne	SHORT $LL26@GetAndExpr
	add	rdi, rsi

; 710  :     GetLabelStr(truelabel, ptr);

	lea	rdx, OFFSET FLAT:$SG11064
	mov	rcx, rdi
	mov	r8d, ebp
	call	sprintf

; 711  :     strcat(ptr, LABELQUAL EOLSTR);

	dec	rdi
$LL24@GetAndExpr:
	cmp	BYTE PTR [rdi+1], 0
	lea	rdi, QWORD PTR [rdi+1]
	jne	SHORT $LL24@GetAndExpr
	lea	rdx, OFFSET FLAT:$SG11249
	xor	ecx, ecx
	npad	12
$LL25@GetAndExpr:
	movzx	eax, BYTE PTR [rdx+rcx]
	mov	BYTE PTR [rdi+rcx], al
	lea	rcx, QWORD PTR [rcx+1]
	test	al, al
	jne	SHORT $LL25@GetAndExpr

; 712  :     DebugMsg1(("%u GetAndExpression: label added >%s<\n", evallvl, ptr));
; 713  :     hllop->lastjmp = NULL;

	mov	QWORD PTR [r15], 0
$LN10@GetAndExpr:

; 714  :   }
; 715  :   return(NOT_ERROR);

	xor	eax, eax
$LN1@GetAndExpr:

; 716  : }

	mov	rbx, QWORD PTR [rsp+136]
	add	rsp, 64					; 00000040H
	pop	r15
	pop	r14
	pop	r13
	pop	r12
	pop	rdi
	pop	rsi
	pop	rbp
	ret	0
$LN21@GetAndExpr:

; 705  :       return(ERROR);

	mov	eax, esi
	jmp	SHORT $LN1@GetAndExpr
GetAndExpression ENDP
_TEXT	ENDS
; Function compile flags: /Ogtpy
; File d:\hjwasm\hjwasm2.13.1s\hjwasm2.13.1s\hll.c
;	COMDAT ReplaceLabel
_TEXT	SEGMENT
newlbl$ = 32
oldlbl$ = 48
p$ = 80
olabel$ = 88
nlabel$ = 96
ReplaceLabel PROC					; COMDAT

; 646  : {

	mov	QWORD PTR [rsp+8], rbx
	push	rdi
	sub	rsp, 64					; 00000040H
	mov	ebx, r8d
	mov	rdi, rcx

; 647  :   char oldlbl[16];
; 648  :   char newlbl[16];
; 649  :   int i;
; 650  : 
; 651  :   GetLabelStr(olabel, oldlbl);

	mov	r8d, edx
	lea	rcx, QWORD PTR oldlbl$[rsp]
	lea	rdx, OFFSET FLAT:$SG11064
	call	sprintf

; 652  :   GetLabelStr(nlabel, newlbl);

	mov	r8d, ebx
	lea	rdx, OFFSET FLAT:$SG11064
	lea	rcx, QWORD PTR newlbl$[rsp]
	call	sprintf

; 653  : 
; 654  :   i = strlen(newlbl);

	lea	rax, QWORD PTR newlbl$[rsp]
	or	rbx, -1
$LL13@ReplaceLab:
	inc	rbx
	cmp	BYTE PTR [rax+rbx], 0
	jne	SHORT $LL13@ReplaceLab

; 655  : 
; 656  :   DebugMsg1(("%u ReplaceLabel(%s->%s, >%s<)\n", evallvl, oldlbl, newlbl, p));
; 657  :   while (p = strstr(p, oldlbl)) {

	lea	rdx, QWORD PTR oldlbl$[rsp]
	mov	rcx, rdi
	call	strstr
	mov	rdi, rax
	test	rax, rax
	je	SHORT $LN3@ReplaceLab
	movsxd	rbx, ebx
	npad	14
$LL2@ReplaceLab:

; 658  :     memcpy(p, newlbl, i);

	mov	r8, rbx
	lea	rdx, QWORD PTR newlbl$[rsp]
	mov	rcx, rdi
	call	memcpy

; 659  :     p += i;

	lea	rcx, QWORD PTR [rbx+rdi]
	lea	rdx, QWORD PTR oldlbl$[rsp]
	call	strstr
	mov	rdi, rax
	test	rax, rax
	jne	SHORT $LL2@ReplaceLab
$LN3@ReplaceLab:

; 660  :   }
; 661  : }

	mov	rbx, QWORD PTR [rsp+80]
	add	rsp, 64					; 00000040H
	pop	rdi
	ret	0
ReplaceLabel ENDP
_TEXT	ENDS
; Function compile flags: /Ogtpy
; File d:\hjwasm\hjwasm2.13.1s\hjwasm2.13.1s\hll.c
;	COMDAT InvertJump
_TEXT	SEGMENT
p$ = 8
InvertJump PROC						; COMDAT

; 595  :   if (*p == NULLC) { /* v2.11: convert 0 to "jmp" */

	cmp	BYTE PTR [rcx], 0
	jne	SHORT $LN2@InvertJump

; 596  :     strcpy(p, "jmp ");

	lea	rdx, OFFSET FLAT:$SG11188
	sub	rcx, rdx
	npad	1
$LL20@InvertJump:
	movzx	eax, BYTE PTR [rdx]
	mov	BYTE PTR [rcx+rdx], al
	lea	rdx, QWORD PTR [rdx+1]
	test	al, al
	jne	SHORT $LL20@InvertJump

; 632  :     *p = ' ';
; 633  :   else
; 634  :     *p = 'e';
; 635  :   return;
; 636  : }

	ret	0
$LN2@InvertJump:

; 597  :     return;
; 598  :   }
; 599  : 
; 600  :   p++;
; 601  :   if (*p == 'e' || *p == 'z' || *p == 'c' || *p == 's' || *p == 'p' || *p == 'o') {

	movzx	edx, BYTE PTR [rcx+1]
	lea	eax, DWORD PTR [rdx-99]
	cmp	al, 23
	ja	SHORT $LN24@InvertJump
	mov	r8d, 8466437				; 00813005H
	bt	r8d, eax
	jae	SHORT $LN24@InvertJump

; 602  :     *(p + 1) = *p;

	mov	BYTE PTR [rcx+2], dl

; 603  :     *p = 'n';

	mov	BYTE PTR [rcx+1], 110			; 0000006eH

; 632  :     *p = ' ';
; 633  :   else
; 634  :     *p = 'e';
; 635  :   return;
; 636  : }

	ret	0
$LN24@InvertJump:

; 604  :     return;
; 605  :   }
; 606  :   else if (*p == 'n') {

	cmp	dl, 110					; 0000006eH
	jne	SHORT $LN6@InvertJump

; 607  :     *p = *(p + 1);

	movzx	eax, BYTE PTR [rcx+2]
	mov	BYTE PTR [rcx+1], al

; 608  :     *(p + 1) = ' ';

	mov	BYTE PTR [rcx+2], 32			; 00000020H

; 632  :     *p = ' ';
; 633  :   else
; 634  :     *p = 'e';
; 635  :   return;
; 636  : }

	ret	0
$LN6@InvertJump:

; 609  :     return;
; 610  :   }
; 611  :   else if (*p == 'a') {

	cmp	dl, 97					; 00000061H
	jne	SHORT $LN8@InvertJump

; 612  :     *p++ = 'b';

	mov	BYTE PTR [rcx+1], 98			; 00000062H

; 613  :   }

	jmp	SHORT $LN26@InvertJump
$LN8@InvertJump:

; 614  :   else if (*p == 'b') {

	cmp	dl, 98					; 00000062H
	jne	SHORT $LN10@InvertJump

; 615  :     *p++ = 'a';

	mov	BYTE PTR [rcx+1], 97			; 00000061H

; 616  :   }

	jmp	SHORT $LN26@InvertJump
$LN10@InvertJump:

; 617  :   else if (*p == 'g') {

	cmp	dl, 103					; 00000067H
	jne	SHORT $LN12@InvertJump

; 618  :     *p++ = 'l';

	mov	BYTE PTR [rcx+1], 108			; 0000006cH

; 619  :   }

	jmp	SHORT $LN26@InvertJump
$LN12@InvertJump:

; 620  :   else if (*p == 'l') {

	cmp	dl, 108					; 0000006cH
	jne	SHORT $LN14@InvertJump

; 621  :     *p++ = 'g';

	mov	BYTE PTR [rcx+1], 103			; 00000067H
$LN26@InvertJump:
	add	rcx, 2

; 628  :     }
; 629  :     return;
; 630  :   }
; 631  :   if (*p == 'e')

	mov	eax, 101				; 00000065H
	mov	edx, 32					; 00000020H
	cmp	BYTE PTR [rcx], al
	cmove	eax, edx
	mov	BYTE PTR [rcx], al

; 632  :     *p = ' ';
; 633  :   else
; 634  :     *p = 'e';
; 635  :   return;
; 636  : }

	ret	0
$LN14@InvertJump:

; 622  :   }
; 623  :   else {
; 624  :     /* v2.11: convert "jmp" to 0 */
; 625  :     if (*p == 'm') {

	cmp	dl, 109					; 0000006dH
	jne	SHORT $LN18@InvertJump

; 626  :       p--;
; 627  :       *p = NULLC;

	mov	BYTE PTR [rcx], 0
$LN18@InvertJump:

; 632  :     *p = ' ';
; 633  :   else
; 634  :     *p = 'e';
; 635  :   return;
; 636  : }

	ret	0
InvertJump ENDP
_TEXT	ENDS
; Function compile flags: /Ogtpy
; File d:\hjwasm\hjwasm2.13.1s\hjwasm2.13.1s\hll.c
;	COMDAT GetSimpleExpression
_TEXT	SEGMENT
op1$ = 64
op2$ = 176
hll$ = 352
op2_pos$1$ = 360
i$ = 360
tokenarray$ = 368
ilabel$ = 376
is_true$ = 384
buffer$ = 392
hllop$ = 400
GetSimpleExpression PROC				; COMDAT

; 393  : {

	mov	DWORD PTR [rsp+32], r9d
	mov	QWORD PTR [rsp+8], rcx
	push	rbx
	push	rbp
	push	rsi
	push	rdi
	push	r12
	push	r13
	push	r15
	sub	rsp, 288				; 00000120H

; 394  :   enum c_bop op;
; 395  :   char instr;
; 396  :   int op1_pos;
; 397  :   int op1_end;
; 398  :   int op2_pos;
; 399  :   int op2_end;
; 400  :   char *p;
; 401  :   struct expr op1;
; 402  :   struct expr op2;
; 403  :   uint_32 label;
; 404  : 
; 405  :   DebugMsg1(("%u GetSimpleExpression(>%.32s< buf=>%s<) enter\n", evallvl, tokenarray[*i].tokpos, buffer));
; 406  : 
; 407  :   while (tokenarray[*i].string_ptr[0] == '!' && tokenarray[*i].string_ptr[1] == '\0') {

	movsxd	rax, DWORD PTR [rdx]
	mov	r12d, r9d
	movzx	ebp, BYTE PTR is_true$[rsp]
	mov	rsi, r8
	shl	rax, 5
	mov	rdi, rdx
	mov	r13, rcx
	mov	ebx, 1
	mov	r10, QWORD PTR [rax+r8+8]
	cmp	BYTE PTR [r10], 33			; 00000021H
	jne	SHORT $LN3@GetSimpleE
	npad	10
$LL2@GetSimpleE:
	movsxd	rcx, DWORD PTR [rdx]
	mov	rax, rcx
	shl	rax, 5
	mov	rax, QWORD PTR [rax+r8+8]
	cmp	BYTE PTR [rax+1], 0
	jne	SHORT $LN3@GetSimpleE

; 408  :     (*i)++; //GetCOp( i );

	inc	ecx

; 409  :     is_true = 1 - is_true;

	mov	eax, ebx
	sub	al, bpl
	mov	DWORD PTR [rdx], ecx
	movzx	ebp, al
	movsxd	rax, ecx
	shl	rax, 5
	mov	rax, QWORD PTR [rax+r8+8]
	cmp	BYTE PTR [rax], 33			; 00000021H
	je	SHORT $LL2@GetSimpleE
$LN3@GetSimpleE:

; 410  :   }
; 411  : 
; 412  :   /* the problem with '()' is that is might enclose just a standard Masm
; 413  :   * expression or a "hll" expression. The first case is to be handled
; 414  :   * entirely by the expression evaluator, while the latter case is to be
; 415  :   * handled HERE!
; 416  :   */
; 417  :   if (tokenarray[*i].token == T_OP_BRACKET) {

	movsxd	r15, DWORD PTR [rdx]
	mov	rax, r15
	mov	QWORD PTR [rsp+368], r14
	shl	rax, 5
	cmp	BYTE PTR [rax+r8], 40			; 00000028H
	jne	SHORT $LN18@GetSimpleE

; 418  :     int brcnt;
; 419  :     int j;
; 420  :     for (brcnt = 1, j = *i + 1; tokenarray[j].token != T_FINAL; j++) {

	inc	r15d
	movsxd	r14, r15d
	mov	rax, r14
	shl	rax, 5
	cmp	BYTE PTR [rax+r8], 0
	lea	rcx, QWORD PTR [rax+r8]
	je	$LN108@GetSimpleE
$LL6@GetSimpleE:
	movzx	eax, BYTE PTR [rcx]

; 421  :       if (tokenarray[j].token == T_OP_BRACKET)

	cmp	al, 40					; 00000028H
	jne	SHORT $LN12@GetSimpleE

; 422  :         brcnt++;

	inc	ebx
	jmp	SHORT $LN4@GetSimpleE
$LN12@GetSimpleE:

; 423  :       else if (tokenarray[j].token == T_CL_BRACKET) {

	cmp	al, 41					; 00000029H
	jne	SHORT $LN14@GetSimpleE

; 424  :         brcnt--;

	sub	ebx, 1

; 425  :         if (brcnt == 0) /* a standard Masm expression? */

	jne	SHORT $LN4@GetSimpleE
$LN18@GetSimpleE:

; 444  :     }
; 445  :   }
; 446  : 
; 447  :   /* get (first) operand */
; 448  :   op1_pos = *i;

	movsxd	r12, DWORD PTR [rdi]

; 449  :   if (ERROR == GetToken(hll, i, tokenarray, &op1))

	lea	r9, QWORD PTR op1$[rsp]
	mov	r8, rsi
	mov	rdx, rdi
	mov	rcx, r13
	call	GetToken
	cmp	eax, -1
	je	$LN119@GetSimpleE

; 450  :     return (ERROR);
; 451  :   op1_end = *i;

	movsxd	r15, DWORD PTR [rdi]

; 452  : 
; 453  :   op = GetCOp(&tokenarray[*i]); /* get operator */

	mov	rcx, r15
	shl	rcx, 5
	add	rcx, rsi
	call	GetCOp
	xor	r14d, r14d
	mov	ebx, eax
	lea	ecx, DWORD PTR [rax-7]
	cmp	ecx, 1
	jbe	$LN24@GetSimpleE

; 461  :   }
; 462  :   else if (op != COP_NONE)

	test	eax, eax
	je	$LN25@GetSimpleE

; 463  :     (*i)++;

	inc	DWORD PTR [rdi]
	jmp	$LN25@GetSimpleE
$LN14@GetSimpleE:

; 426  :           break;
; 427  :       }
; 428  :       else if ((GetCOp(&tokenarray[j])) != COP_NONE)

	movsxd	rcx, r15d
	shl	rcx, 5
	add	rcx, rsi
	call	GetCOp
	test	eax, eax
	jne	SHORT $LN100@GetSimpleE
$LN4@GetSimpleE:

; 418  :     int brcnt;
; 419  :     int j;
; 420  :     for (brcnt = 1, j = *i + 1; tokenarray[j].token != T_FINAL; j++) {

	inc	r14
	inc	r15d
	mov	rax, r14
	shl	rax, 5
	cmp	BYTE PTR [rax+rsi], 0
	lea	rcx, QWORD PTR [rax+rsi]
	jne	$LL6@GetSimpleE
$LN100@GetSimpleE:

; 429  :         break;
; 430  :     }
; 431  :     if (brcnt) {

	test	ebx, ebx
	je	$LN18@GetSimpleE
$LN108@GetSimpleE:

; 432  :       (*i)++;
; 433  :       DebugMsg1(("%u GetSimpleExpression: calling GetExpression, i=%u\n", evallvl, *i));
; 434  :       if (ERROR == GetExpression(hll, i, tokenarray, ilabel, is_true, buffer, hllop))

	mov	rax, QWORD PTR hllop$[rsp]
	mov	r9d, r12d
	inc	DWORD PTR [rdi]
	mov	r8, rsi
	mov	QWORD PTR [rsp+48], rax
	mov	rdx, rdi
	mov	rax, QWORD PTR buffer$[rsp]
	mov	rcx, r13
	mov	QWORD PTR [rsp+40], rax
	mov	BYTE PTR [rsp+32], bpl
	call	GetExpression
	cmp	eax, -1
	jne	SHORT $LN19@GetSimpleE
$LN119@GetSimpleE:

; 435  :         return(ERROR);

	or	rax, -1
	jmp	$LN1@GetSimpleE
$LN19@GetSimpleE:

; 436  : 
; 437  :       if (tokenarray[*i].token != T_CL_BRACKET) {

	movsxd	rcx, DWORD PTR [rdi]
	mov	rax, rcx
	shl	rax, 5
	cmp	BYTE PTR [rax+rsi], 41			; 00000029H
	jne	$LN28@GetSimpleE

; 438  :         //if (( tokenarray[*i].token == T_FINAL ) || ( tokenarray[*i].token == T_CL_BRACKET ))
; 439  :         DebugMsg(("GetSimpleExpression: expected ')', found: %s\n", tokenarray[*i].string_ptr));
; 440  :         return(EmitError(SYNTAX_ERROR_IN_CONTROL_FLOW_DIRECTIVE));
; 441  :       }
; 442  :       (*i)++;

	lea	eax, DWORD PTR [rcx+1]
	mov	DWORD PTR [rdi], eax

; 443  :       return(NOT_ERROR);

	xor	eax, eax
	jmp	$LN1@GetSimpleE
$LN24@GetSimpleE:

; 454  : 
; 455  :   /* lower precedence operator ( && or || ) detected? */
; 456  :   if (op == COP_AND || op == COP_OR) {
; 457  :     /* v2.11: next 2 lines removed - && and || operators need a valid first operand */
; 458  :     //if ( op1.kind == EXPR_EMPTY )
; 459  :     //    return( NOT_ERROR );
; 460  :     op = COP_NONE;

	mov	ebx, r14d
$LN25@GetSimpleE:

; 464  : 
; 465  :   label = GetLabel(hll, ilabel);

	movsxd	rax, DWORD PTR ilabel$[rsp]
	mov	r13d, DWORD PTR [r13+rax*4+8]

; 466  : 
; 467  :   DebugMsg1(("%u GetSimpleExpression: EvalOperand ok, kind=%X, i=%u [%s]\n", evallvl, op1.kind, *i, tokenarray[*i].tokpos));
; 468  : 
; 469  :   /* check for special operators with implicite operand:
; 470  :   * COP_ZERO, COP_CARRY, COP_SIGN, COP_PARITY, COP_OVERFLOW
; 471  :   */
; 472  :   if (op >= COP_ZERO) {

	cmp	ebx, 11
	jl	SHORT $LN26@GetSimpleE

; 473  :     if (op1.kind != EXPR_EMPTY) {

	cmp	DWORD PTR op1$[rsp+60], -2
	jne	$LN28@GetSimpleE

; 474  :       DebugMsg(("GetSimpleExpression: non-empty expression rejected: %s\n", tokenarray[op1_pos].tokpos));
; 475  :       return(EmitError(SYNTAX_ERROR_IN_CONTROL_FLOW_DIRECTIVE));
; 476  :     }
; 477  :     p = buffer;
; 478  :     hllop->lastjmp = p;

	mov	rax, QWORD PTR hllop$[rsp]

; 479  :        RenderJcc(p, flaginstr[op - COP_ZERO], !is_true, label);

	lea	rdx, OFFSET FLAT:__ImageBase
	mov	rcx, QWORD PTR buffer$[rsp]
	test	bpl, bpl
	mov	r9d, r13d
	sete	r14b
	mov	QWORD PTR [rax], rcx
	mov	r8d, r14d
	movsxd	rax, ebx
	movzx	edx, BYTE PTR flaginstr[rax+rdx-11]
	call	RenderJcc

; 480  :     return(NOT_ERROR);

	xor	eax, eax
	jmp	$LN1@GetSimpleE
$LN26@GetSimpleE:

; 481  :   }
; 482  : 
; 483  :   switch (op1.kind) {

	mov	ecx, DWORD PTR op1$[rsp+60]
	cmp	ecx, -2
	je	$LN28@GetSimpleE
	cmp	ecx, 3
	je	$LN29@GetSimpleE

; 490  :   }
; 491  : 
; 492  :   if (op == COP_NONE) {

	test	ebx, ebx
	jne	$LN30@GetSimpleE

; 493  :     switch (op1.kind) {

	test	ecx, ecx
	je	$LN34@GetSimpleE
	sub	ecx, 1
	je	SHORT $LN32@GetSimpleE
	cmp	ecx, 1
	jne	$LN37@GetSimpleE

; 494  :     case EXPR_REG:
; 495  :       if (op1.indirect == FALSE) {

	test	BYTE PTR op1$[rsp+72], cl
	jne	SHORT $LN32@GetSimpleE

; 496  :         p = RenderInstr(buffer, "test", op1_pos, op1_end, op1_pos, op1_end, tokenarray);

	mov	rcx, QWORD PTR buffer$[rsp]
	lea	rdx, OFFSET FLAT:$SG11161
	mov	QWORD PTR [rsp+48], rsi
	mov	r9d, r15d
	mov	DWORD PTR [rsp+40], r15d
	mov	r8d, r12d
	mov	DWORD PTR [rsp+32], r12d
	call	RenderInstr

; 497  :         hllop->lastjmp = p;

	mov	rcx, QWORD PTR hllop$[rsp]

; 498  :         RenderJcc(p, 'z', is_true, label);

	mov	r9d, r13d
	movzx	r8d, bpl
	mov	dl, 122					; 0000007aH
	mov	QWORD PTR [rcx], rax
	mov	rcx, rax
	call	RenderJcc

; 527  :       }
; 528  :       break;
; 529  : #ifdef DEBUG_OUT
; 530  :     default: /**/myassert(0); break;
; 531  : #endif
; 532  :     }
; 533  :     return(NOT_ERROR);

	xor	eax, eax
	jmp	$LN1@GetSimpleE
$LN32@GetSimpleE:

; 499  :         break;
; 500  :       }
; 501  :       /* no break */
; 502  :     case EXPR_ADDR:
; 503  :       p = RenderInstr(buffer, "cmp", op1_pos, op1_end, EMPTY, 0, tokenarray);

	lea	rdx, OFFSET FLAT:$SG11163
	or	rax, -1
$LL113@GetSimpleE:
	inc	rax
	cmp	BYTE PTR [rdx+rax], r14b
	jne	SHORT $LL113@GetSimpleE
	mov	rcx, QWORD PTR buffer$[rsp]
	movsxd	rdi, eax
	mov	r8, rdi
	call	memcpy
	add	rdi, QWORD PTR buffer$[rsp]
	mov	rax, r15
	shl	rax, 5
	mov	rdx, r12
	shl	rdx, 5
	mov	BYTE PTR [rdi], 32			; 00000020H
	inc	rdi
	mov	eax, DWORD PTR [rax+rsi+24]
	mov	rcx, rdi
	sub	eax, DWORD PTR [rdx+rsi+24]
	mov	rdx, QWORD PTR [rdx+rsi+24]
	movsxd	rbx, eax
	mov	r8, rbx
	call	memcpy
	add	rdi, rbx
	lea	rdx, OFFSET FLAT:$SG11057
	mov	rcx, rdi
	xor	r8d, r8d
	call	sprintf
	movsxd	rdx, eax

; 504  :       hllop->lastjmp = p;
; 505  :       RenderJcc(p, 'z', is_true, label);

	mov	r9d, r13d
	mov	rax, QWORD PTR hllop$[rsp]
	add	rdi, rdx
	movzx	r8d, bpl
	mov	dl, 122					; 0000007aH
	mov	BYTE PTR [rdi], 10
	inc	rdi
	mov	rcx, rdi
	mov	BYTE PTR [rdi], r14b
	mov	QWORD PTR [rax], rdi
	call	RenderJcc

; 527  :       }
; 528  :       break;
; 529  : #ifdef DEBUG_OUT
; 530  :     default: /**/myassert(0); break;
; 531  : #endif
; 532  :     }
; 533  :     return(NOT_ERROR);

	xor	eax, eax
	jmp	$LN1@GetSimpleE
$LN34@GetSimpleE:
	mov	eax, DWORD PTR op1$[rsp+4]
	inc	eax
	cmp	eax, 1
	jbe	SHORT $LN35@GetSimpleE

; 506  :       break;
; 507  :     case EXPR_CONST:
; 508  : #if 0
; 509  :       /* v2.05: string constant is allowed! */
; 510  :       if (op1.string != NULL) {
; 511  :         return(EmitError(SYNTAX_ERROR_IN_CONTROL_FLOW_DIRECTIVE));
; 512  :       }
; 513  : #endif
; 514  :       /* v2.11: error if constant doesn't fit in 32-bits */
; 515  :       if (op1.hvalue != 0 && op1.hvalue != -1)
; 516  :         return(EmitConstError(&op1));

	lea	rcx, QWORD PTR op1$[rsp]
	call	EmitConstError
	jmp	$LN1@GetSimpleE
$LN35@GetSimpleE:

; 517  : 
; 518  :       hllop->lastjmp = buffer;

	mov	rax, QWORD PTR hllop$[rsp]
	mov	rcx, QWORD PTR buffer$[rsp]
	mov	QWORD PTR [rax], rcx

; 519  : 
; 520  :       if ((is_true == TRUE && op1.value) ||

	cmp	bpl, 1
	jne	SHORT $LN39@GetSimpleE
	cmp	DWORD PTR op1$[rsp], r14d
	jne	SHORT $LN38@GetSimpleE
$LN36@GetSimpleE:

; 523  :       }
; 524  :       else {
; 525  :         //strcpy( buffer, " " EOLSTR ); /* v2.11: obsolete */
; 526  :         *buffer = NULLC;

	mov	BYTE PTR [rcx], r14b
$LN37@GetSimpleE:

; 527  :       }
; 528  :       break;
; 529  : #ifdef DEBUG_OUT
; 530  :     default: /**/myassert(0); break;
; 531  : #endif
; 532  :     }
; 533  :     return(NOT_ERROR);

	xor	eax, eax
	jmp	$LN1@GetSimpleE
$LN39@GetSimpleE:

; 519  : 
; 520  :       if ((is_true == TRUE && op1.value) ||

	test	bpl, bpl
	jne	SHORT $LN36@GetSimpleE
	cmp	DWORD PTR op1$[rsp], r14d
	jne	SHORT $LN36@GetSimpleE
$LN38@GetSimpleE:

; 521  :         (is_true == FALSE && op1.value == 0)) {
; 522  :         sprintf(buffer, "jmp " LABELFMT EOLSTR, label);

	mov	r8d, r13d
	lea	rdx, OFFSET FLAT:$SG11170
	call	sprintf

; 527  :       }
; 528  :       break;
; 529  : #ifdef DEBUG_OUT
; 530  :     default: /**/myassert(0); break;
; 531  : #endif
; 532  :     }
; 533  :     return(NOT_ERROR);

	xor	eax, eax
	jmp	$LN1@GetSimpleE
$LN30@GetSimpleE:

; 534  :   }
; 535  : 
; 536  :   /* get second operand for binary operator */
; 537  :   op2_pos = *i;

	mov	eax, DWORD PTR [rdi]

; 538  :   if (ERROR == GetToken(hll, i, tokenarray, &op2)) {

	lea	r9, QWORD PTR op2$[rsp]
	mov	rcx, QWORD PTR hll$[rsp]
	mov	r8, rsi
	mov	rdx, rdi
	mov	DWORD PTR op2_pos$1$[rsp], eax
	call	GetToken
	cmp	eax, -1
	je	$LN119@GetSimpleE

; 539  :     return(ERROR);
; 540  :   }
; 541  :   DebugMsg1(("%u GetSimpleExpression: EvalOperand 2 ok, type=%X, i=%u [%s]\n", evallvl, op2.type, *i, tokenarray[*i].tokpos));
; 542  :   if (op2.kind != EXPR_CONST && op2.kind != EXPR_ADDR && op2.kind != EXPR_REG) {
; 543  :     DebugMsg(("GetSimpleExpression: syntax error, op2.kind=%u\n", op2.kind));
; 544  :     return(EmitError(SYNTAX_ERROR_IN_CONTROL_FLOW_DIRECTIVE));

	mov	ecx, DWORD PTR op2$[rsp+60]
	cmp	ecx, 2
	ja	$LN28@GetSimpleE

; 545  :   }
; 546  :   op2_end = *i;

	mov	edx, DWORD PTR [rdi]

; 547  : 
; 548  :   /* now generate ASM code for expression */
; 549  : 
; 550  :   if (op == COP_ANDB) {

	cmp	ebx, 9
	jne	SHORT $LN42@GetSimpleE

; 551  :     p = RenderInstr(buffer, "test", op1_pos, op1_end, op2_pos, op2_end, tokenarray);

	mov	eax, DWORD PTR op2_pos$1$[rsp]
	mov	r9d, r15d
	mov	rcx, QWORD PTR buffer$[rsp]
	mov	r8d, r12d
	mov	QWORD PTR [rsp+48], rsi
	mov	DWORD PTR [rsp+40], edx
	lea	rdx, OFFSET FLAT:$SG11175
	mov	DWORD PTR [rsp+32], eax
	call	RenderInstr

; 552  :     hllop->lastjmp = p;

	mov	rcx, QWORD PTR hllop$[rsp]

; 553  :     RenderJcc(p, 'e', is_true, label);

	mov	dl, 101					; 00000065H
	movzx	r8d, bpl

; 572  :     RenderJcc(p, instr, neg_cjmptype[op - COP_EQ] ? is_true : !is_true, label);

	mov	r9d, r13d
	mov	QWORD PTR [rcx], rax
	mov	rcx, rax
	call	RenderJcc

; 573  :   }
; 574  :   else {
; 575  :     DebugMsg(("GetSimpleExpression: unexpected operator %s\n", tokenarray[op1_pos].tokpos));
; 576  :     return(EmitError(SYNTAX_ERROR_IN_CONTROL_FLOW_DIRECTIVE));
; 577  :   }
; 578  :   return(NOT_ERROR);

	xor	eax, eax
	jmp	$LN1@GetSimpleE
$LN42@GetSimpleE:

; 554  :   }
; 555  :   else if (op <= COP_LE) { /* ==, !=, >, <, >= or <= operator */

	cmp	ebx, 6
	jg	$LN28@GetSimpleE

; 556  :     /*
; 557  :     * optimisation: generate 'or EAX,EAX' instead of 'cmp EAX,0'.
; 558  :     * v2.11: use op2.value64 instead of op2.value
; 559  :     */
; 560  :     if (Options.masm_compat_gencode &&
; 561  :       (op == COP_EQ || op == COP_NE) &&
; 562  :       op1.kind == EXPR_REG && op1.indirect == FALSE &&
; 563  :       op2.kind == EXPR_CONST && op2.value64 == 0) {

	cmp	BYTE PTR Options+128, r14b
	je	SHORT $LN46@GetSimpleE
	lea	eax, DWORD PTR [rbx-1]
	cmp	eax, 1
	ja	SHORT $LN46@GetSimpleE
	cmp	DWORD PTR op1$[rsp+60], 2
	jne	SHORT $LN46@GetSimpleE
	test	BYTE PTR op1$[rsp+72], 1
	jne	SHORT $LN46@GetSimpleE
	test	ecx, ecx
	jne	SHORT $LN46@GetSimpleE
	cmp	QWORD PTR op2$[rsp], r14
	jne	SHORT $LN46@GetSimpleE

; 564  :       p = RenderInstr(buffer, "or", op1_pos, op1_end, op1_pos, op1_end, tokenarray);

	mov	QWORD PTR [rsp+48], rsi
	lea	rdx, OFFSET FLAT:$SG11181
	mov	DWORD PTR [rsp+40], r15d
	mov	DWORD PTR [rsp+32], r12d

; 565  :     }

	jmp	SHORT $LN116@GetSimpleE
$LN46@GetSimpleE:

; 566  :     else {
; 567  :       p = RenderInstr(buffer, "cmp", op1_pos, op1_end, op2_pos, op2_end, tokenarray);

	mov	eax, DWORD PTR op2_pos$1$[rsp]
	mov	QWORD PTR [rsp+48], rsi
	mov	DWORD PTR [rsp+40], edx
	lea	rdx, OFFSET FLAT:$SG11182
	mov	DWORD PTR [rsp+32], eax
$LN116@GetSimpleE:
	mov	rcx, QWORD PTR buffer$[rsp]
	mov	r9d, r15d
	mov	r8d, r12d
	call	RenderInstr
	mov	r10, rax

; 568  :     }
; 569  : 
; 570  :     instr = ((IS_SIGNED(op1.mem_type) || IS_SIGNED(op2.mem_type)) ? signed_cjmptype[op - COP_EQ] : unsigned_cjmptype[op - COP_EQ]);

	mov	eax, DWORD PTR op1$[rsp+64]
	and	al, -64					; ffffffffffffffc0H
	cmp	al, 64					; 00000040H
	je	SHORT $LN50@GetSimpleE
	mov	eax, DWORD PTR op2$[rsp+64]
	and	al, -64					; ffffffffffffffc0H
	cmp	al, 64					; 00000040H
	je	SHORT $LN50@GetSimpleE
	movsxd	rcx, ebx
	lea	rdx, OFFSET FLAT:__ImageBase
	movzx	r11d, BYTE PTR unsigned_cjmptype[rcx+rdx-1]
	jmp	SHORT $LN51@GetSimpleE
$LN50@GetSimpleE:
	movsxd	rcx, ebx
	lea	rdx, OFFSET FLAT:__ImageBase
	movzx	r11d, BYTE PTR signed_cjmptype[rcx+rdx-1]
$LN51@GetSimpleE:

; 571  :     hllop->lastjmp = p;

	mov	rax, QWORD PTR hllop$[rsp]
	mov	QWORD PTR [rax], r10

; 572  :     RenderJcc(p, instr, neg_cjmptype[op - COP_EQ] ? is_true : !is_true, label);

	cmp	BYTE PTR neg_cjmptype[rcx+rdx-1], r14b
	je	SHORT $LN52@GetSimpleE
	movzx	r14d, bpl
	jmp	SHORT $LN53@GetSimpleE
$LN52@GetSimpleE:
	test	bpl, bpl
	sete	r14b
$LN53@GetSimpleE:
	mov	r8d, r14d
	movzx	edx, r11b
	mov	rcx, r10
	mov	r9d, r13d
	call	RenderJcc

; 573  :   }
; 574  :   else {
; 575  :     DebugMsg(("GetSimpleExpression: unexpected operator %s\n", tokenarray[op1_pos].tokpos));
; 576  :     return(EmitError(SYNTAX_ERROR_IN_CONTROL_FLOW_DIRECTIVE));
; 577  :   }
; 578  :   return(NOT_ERROR);

	xor	eax, eax
	jmp	SHORT $LN1@GetSimpleE
$LN29@GetSimpleE:

; 487  :   case EXPR_FLOAT:
; 488  :     DebugMsg(("GetSimpleExpression: float expression rejected: %s\n", tokenarray[op1_pos].tokpos));
; 489  :     return(EmitError(REAL_OR_BCD_NUMBER_NOT_ALLOWED)); /* v2.10: added */

	mov	ecx, 270				; 0000010eH
	jmp	SHORT $LN118@GetSimpleE
$LN28@GetSimpleE:

; 484  :   case EXPR_EMPTY:
; 485  :     DebugMsg(("GetSimpleExpression: empty expression rejected\n"));
; 486  :     return(EmitError(SYNTAX_ERROR_IN_CONTROL_FLOW_DIRECTIVE)); /* v2.09: changed from NOT_ERROR to ERROR */

	mov	ecx, 199				; 000000c7H
$LN118@GetSimpleE:
	call	EmitError
$LN1@GetSimpleE:
	mov	r14, QWORD PTR [rsp+368]

; 579  : }

	add	rsp, 288				; 00000120H
	pop	r15
	pop	r13
	pop	r12
	pop	rdi
	pop	rsi
	pop	rbp
	pop	rbx
	ret	0
GetSimpleExpression ENDP
_TEXT	ENDS
; Function compile flags: /Ogtpy
; File d:\hjwasm\hjwasm2.13.1s\hjwasm2.13.1s\hll.c
;	COMDAT GetLabel
_TEXT	SEGMENT
hll$ = 8
index$ = 16
GetLabel PROC						; COMDAT

; 381  :   /**/myassert(hll->labels[index]);
; 382  :   return(hll->labels[index]);

	movsxd	rax, edx
	mov	eax, DWORD PTR [rcx+rax*4+8]

; 383  : }

	ret	0
GetLabel ENDP
_TEXT	ENDS
; Function compile flags: /Ogtpy
; File d:\hjwasm\hjwasm2.13.1s\hjwasm2.13.1s\hll.c
;	COMDAT GetToken
_TEXT	SEGMENT
hll$ = 80
i$ = 88
tokenarray$ = 96
opnd$ = 104
GetToken PROC						; COMDAT

; 350  : {

	mov	QWORD PTR [rsp+32], rbp
	push	rdi
	push	r14
	push	r15
	sub	rsp, 48					; 00000030H

; 351  :   int end_tok;
; 352  : 
; 353  :   /* scan for the next C operator in the token array.
; 354  :   * because the ASM evaluator may report an error if such a thing
; 355  :   * is found ( CARRY?, ZERO? and alikes will be regarded as - not yet defined - labels )
; 356  :   */
; 357  :   for (end_tok = *i; end_tok < Token_Count; end_tok++) {

	movsxd	rdi, DWORD PTR [rdx]
	mov	rbp, r9
	cmp	edi, DWORD PTR ModuleInfo+496
	mov	r15, r8
	mov	r14, rdx
	jge	$LN81@GetToken
	mov	QWORD PTR [rsp+80], rbx
	mov	QWORD PTR [rsp+88], rsi
	mov	rsi, rdi
	shl	rsi, 5
	mov	QWORD PTR [rsp+96], r12
	add	rsi, r8
	mov	r12, 5764607806502076416		; 5000004200000000H
	npad	7
$LL4@GetToken:

; 358  :     if ((GetCOp(&tokenarray[end_tok])) != COP_NONE)

	movzx	ecx, BYTE PTR [rsi]
	mov	rbx, QWORD PTR [rsi+8]
	cmp	cl, 9
	jne	SHORT $LN24@GetToken
	mov	eax, DWORD PTR [rsi+16]
	cmp	eax, 2
	jne	SHORT $LN15@GetToken
	movzx	ecx, WORD PTR [rbx]
	cmp	ecx, 15677				; 00003d3dH
	jg	SHORT $LN56@GetToken
	je	$LN84@GetToken
	sub	ecx, 9766				; 00002626H
	je	$LN84@GetToken
	sub	ecx, 5883				; 000016fbH
	je	$LN84@GetToken
	sub	ecx, 27
	jmp	$LN85@GetToken
$LN56@GetToken:
	cmp	ecx, 15678				; 00003d3eH
	je	$LN84@GetToken
	cmp	ecx, 31868				; 00007c7cH
	jmp	$LN85@GetToken
$LN15@GetToken:
	cmp	eax, 1
	jne	SHORT $LN24@GetToken
	movzx	eax, BYTE PTR [rbx]
	cmp	al, 62					; 0000003eH
	ja	$LN51@GetToken
	bt	r12, rax
	jb	$LN84@GetToken
	jmp	$LN51@GetToken
$LN24@GetToken:
	cmp	cl, 8
	jne	$LN51@GetToken
	or	rcx, -1
	npad	8
$LL80@GetToken:
	inc	rcx
	cmp	BYTE PTR [rbx+rcx], 0
	jne	SHORT $LL80@GetToken
	movsxd	rax, ecx
	cmp	BYTE PTR [rax+rbx-1], 63		; 0000003fH
	jne	$LN51@GetToken
	cmp	ecx, 5
	jne	SHORT $LN33@GetToken
	lea	r8d, QWORD PTR [rcx-1]
	mov	rcx, rbx
	lea	rdx, OFFSET FLAT:$SG10990
	call	_memicmp
	test	eax, eax
	je	$LN84@GetToken
	mov	r8d, 4
	lea	rdx, OFFSET FLAT:$SG10996
	mov	rcx, rbx
	call	_memicmp
	test	eax, eax
	je	$LN84@GetToken
	mov	r8d, 4
	lea	rdx, OFFSET FLAT:$SG11005
	jmp	$LN86@GetToken
$LN33@GetToken:
	cmp	ecx, 6
	jne	SHORT $LN37@GetToken
	lea	r8d, QWORD PTR [rcx-1]
	mov	rcx, rbx
	lea	rdx, OFFSET FLAT:$SG10993
	call	_memicmp
	test	eax, eax
	je	$LN84@GetToken
	mov	r8d, 5
	lea	rdx, OFFSET FLAT:$SG11011
	mov	rcx, rbx
	call	_memicmp
	test	eax, eax
	je	SHORT $LN84@GetToken
	mov	r8d, 5
	lea	rdx, OFFSET FLAT:$SG11014
	mov	rcx, rbx
	call	_memicmp
	test	eax, eax
	je	SHORT $LN84@GetToken
	mov	r8d, 5
	lea	rdx, OFFSET FLAT:$SG11017
	jmp	SHORT $LN86@GetToken
$LN37@GetToken:
	cmp	ecx, 7
	jne	SHORT $LN39@GetToken
	lea	r8d, QWORD PTR [rcx-1]
	lea	rdx, OFFSET FLAT:$SG10999
	jmp	SHORT $LN86@GetToken
$LN39@GetToken:
	cmp	ecx, 9
	jne	SHORT $LN43@GetToken
	lea	r8d, QWORD PTR [rcx-1]
	lea	rdx, OFFSET FLAT:$SG11002
	jmp	SHORT $LN86@GetToken
$LN43@GetToken:
	cmp	ecx, 8
	jne	SHORT $LN51@GetToken
	lea	r8d, QWORD PTR [rcx-1]
	lea	rdx, OFFSET FLAT:$SG11008
$LN86@GetToken:
	mov	rcx, rbx
	call	_memicmp
	test	eax, eax
$LN85@GetToken:
	je	SHORT $LN84@GetToken
$LN51@GetToken:

; 351  :   int end_tok;
; 352  : 
; 353  :   /* scan for the next C operator in the token array.
; 354  :   * because the ASM evaluator may report an error if such a thing
; 355  :   * is found ( CARRY?, ZERO? and alikes will be regarded as - not yet defined - labels )
; 356  :   */
; 357  :   for (end_tok = *i; end_tok < Token_Count; end_tok++) {

	inc	edi
	add	rsi, 32					; 00000020H
	cmp	edi, DWORD PTR ModuleInfo+496
	jl	$LL4@GetToken
$LN84@GetToken:
	mov	rsi, QWORD PTR [rsp+88]
	mov	rbx, QWORD PTR [rsp+80]
	mov	r12, QWORD PTR [rsp+96]
$LN81@GetToken:

; 359  :       break;
; 360  :   }
; 361  :   if (end_tok == *i) {

	cmp	edi, DWORD PTR [r14]
	jne	SHORT $LN6@GetToken

; 362  :     opnd->kind = EXPR_EMPTY;

	mov	DWORD PTR [rbp+60], -2
$LN8@GetToken:

; 373  :   }
; 374  : 
; 375  :   return(NOT_ERROR);

	xor	eax, eax

; 376  : }

	mov	rbp, QWORD PTR [rsp+104]
	add	rsp, 48					; 00000030H
	pop	r15
	pop	r14
	pop	rdi
	ret	0
$LN6@GetToken:

; 363  :     return(NOT_ERROR);
; 364  :   }
; 365  :   if (ERROR == EvalOperand(i, tokenarray, end_tok, opnd, 0))

	mov	r9, rbp
	mov	BYTE PTR [rsp+32], 0
	mov	r8d, edi
	mov	rdx, r15
	mov	rcx, r14
	call	EvalOperand
	cmp	eax, -1
	jne	SHORT $LN7@GetToken

; 366  :     return(ERROR);

	or	eax, eax

; 376  : }

	mov	rbp, QWORD PTR [rsp+104]
	add	rsp, 48					; 00000030H
	pop	r15
	pop	r14
	pop	rdi
	ret	0
$LN7@GetToken:

; 367  : 
; 368  :   /* v2.11: emit error 'syntax error in control flow directive'.
; 369  :   * May happen for expressions like ".if 1 + CARRY?"
; 370  :   */
; 371  :   if (*i > end_tok) {

	cmp	DWORD PTR [r14], edi
	jle	SHORT $LN8@GetToken

; 372  :     return(EmitError(SYNTAX_ERROR_IN_CONTROL_FLOW_DIRECTIVE));

	mov	ecx, 199				; 000000c7H

; 376  : }

	mov	rbp, QWORD PTR [rsp+104]
	add	rsp, 48					; 00000030H
	pop	r15
	pop	r14
	pop	rdi

; 372  :     return(EmitError(SYNTAX_ERROR_IN_CONTROL_FLOW_DIRECTIVE));

	jmp	EmitError
GetToken ENDP
_TEXT	ENDS
; Function compile flags: /Ogtpy
; File d:\hjwasm\hjwasm2.13.1s\hjwasm2.13.1s\hll.c
;	COMDAT RenderJcc
_TEXT	SEGMENT
dst$ = 48
cc$ = 56
neg$ = 64
label$ = 72
RenderJcc PROC						; COMDAT

; 325  : {

	push	rbx
	sub	rsp, 32					; 00000020H

; 326  : #ifdef DEBUG_OUT
; 327  :   char *old = dst;
; 328  : #endif
; 329  :   /* create the jump opcode: j[n]cc */
; 330  :   *dst++ = 'j';

	mov	BYTE PTR [rcx], 106			; 0000006aH
	lea	rbx, QWORD PTR [rcx+1]

; 331  :   if (neg)

	test	r8d, r8d
	je	SHORT $LN2@RenderJcc

; 332  :     *dst++ = 'n';

	mov	BYTE PTR [rbx], 110			; 0000006eH
	inc	rbx
$LN2@RenderJcc:

; 333  :   *dst++ = cc;

	mov	BYTE PTR [rbx], dl
	inc	rbx

; 334  :   if (neg == FALSE)

	test	r8d, r8d
	jne	SHORT $LN3@RenderJcc

; 335  :     *dst++ = ' '; /* make sure there's room for the inverse jmp */

	mov	BYTE PTR [rbx], 32			; 00000020H
	inc	rbx
$LN3@RenderJcc:

; 336  : 
; 337  :   *dst++ = ' ';
; 338  :   GetLabelStr(label, dst);

	mov	r8d, r9d
	mov	BYTE PTR [rbx], 32			; 00000020H
	lea	rdx, OFFSET FLAT:$SG11064
	lea	rcx, QWORD PTR [rbx+1]
	call	sprintf

; 339  :   dst += strlen(dst);

	or	rax, -1
$LL7@RenderJcc:
	inc	rax
	cmp	BYTE PTR [rbx+rax+1], 0
	jne	SHORT $LL7@RenderJcc

; 340  :   *dst++ = EOLCHAR;

	mov	WORD PTR [rbx+rax+1], 10

; 341  :   *dst = NULLC;
; 342  :   DebugMsg1(("%u RenderJcc()=>%s<\n", evallvl, old));
; 343  :   return(dst);

	add	rbx, 2
	add	rax, rbx

; 344  : }

	add	rsp, 32					; 00000020H
	pop	rbx
	ret	0
RenderJcc ENDP
_TEXT	ENDS
; Function compile flags: /Ogtpy
; File d:\hjwasm\hjwasm2.13.1s\hjwasm2.13.1s\hll.c
;	COMDAT GetLabelStr
_TEXT	SEGMENT
label$ = 48
buff$ = 56
GetLabelStr PROC					; COMDAT

; 316  : {

	push	rbx
	sub	rsp, 32					; 00000020H
	mov	rbx, rdx

; 317  :   sprintf(buff, LABELFMT, label);

	mov	r8d, ecx
	mov	rcx, rbx
	lea	rdx, OFFSET FLAT:$SG11064
	call	sprintf

; 318  :   return(buff);

	mov	rax, rbx

; 319  : }

	add	rsp, 32					; 00000020H
	pop	rbx
	ret	0
GetLabelStr ENDP
_TEXT	ENDS
; Function compile flags: /Ogtpy
; File d:\hjwasm\hjwasm2.13.1s\hjwasm2.13.1s\hll.c
;	COMDAT RenderInstr
_TEXT	SEGMENT
dst$ = 48
instr$ = 56
start1$ = 64
end1$ = 72
start2$ = 80
end2$ = 88
tokenarray$ = 96
RenderInstr PROC					; COMDAT

; 283  : {

	mov	QWORD PTR [rsp+8], rbx
	mov	QWORD PTR [rsp+16], rbp
	mov	QWORD PTR [rsp+24], rsi
	push	rdi
	sub	rsp, 32					; 00000020H
	movsxd	rbp, r9d
	mov	rbx, rcx
	movsxd	rsi, r8d

; 284  :   int i;
; 285  : #ifdef DEBUG_OUT
; 286  :   char *old = dst;
; 287  : #endif
; 288  :   i = strlen(instr);

	or	rax, -1
$LL6@RenderInst:
	inc	rax
	cmp	BYTE PTR [rdx+rax], 0
	jne	SHORT $LL6@RenderInst

; 289  :   /* copy the instruction */
; 290  :   memcpy(dst, instr, i);

	movsxd	rdi, eax
	mov	r8, rdi
	call	memcpy

; 291  :   dst += i;

	add	rbx, rdi

; 292  :   /* copy the first operand's tokens */
; 293  :   *dst++ = ' ';
; 294  :   i = tokenarray[end1].tokpos - tokenarray[start1].tokpos;

	mov	rdx, rsi
	mov	rsi, QWORD PTR tokenarray$[rsp]
	mov	rax, rbp
	shl	rdx, 5
	shl	rax, 5
	mov	BYTE PTR [rbx], 32			; 00000020H
	inc	rbx
	mov	ecx, DWORD PTR [rax+rsi+24]
	sub	ecx, DWORD PTR [rdx+rsi+24]

; 295  :   memcpy(dst, tokenarray[start1].tokpos, i);

	mov	rdx, QWORD PTR [rdx+rsi+24]
	movsxd	rdi, ecx
	mov	rcx, rbx
	mov	r8, rdi
	call	memcpy

; 296  :   dst += i;
; 297  :   if (start2 != EMPTY) {

	movsxd	rax, DWORD PTR start2$[rsp]
	add	rbx, rdi
	cmp	eax, -2
	je	SHORT $LN2@RenderInst

; 298  :     *dst++ = ',';

	mov	WORD PTR [rbx], 8236			; 0000202cH

; 299  :     /* copy the second operand's tokens */
; 300  :     *dst++ = ' ';
; 301  :     i = tokenarray[end2].tokpos - tokenarray[start2].tokpos;

	mov	rdx, rax
	movsxd	rax, DWORD PTR end2$[rsp]
	add	rbx, 2
	shl	rdx, 5
	shl	rax, 5
	mov	ecx, DWORD PTR [rax+rsi+24]
	sub	ecx, DWORD PTR [rdx+rsi+24]

; 302  :     memcpy(dst, tokenarray[start2].tokpos, i);

	mov	rdx, QWORD PTR [rdx+rsi+24]
	movsxd	rdi, ecx
	mov	rcx, rbx
	mov	r8, rdi
	call	memcpy

; 303  :     dst += i; 

	add	rbx, rdi

; 304  :   }

	jmp	SHORT $LN4@RenderInst
$LN2@RenderInst:

; 305  :   else if (end2 != EMPTY) {

	mov	r8d, DWORD PTR end2$[rsp]
	cmp	r8d, -2
	je	SHORT $LN4@RenderInst

; 306  :     dst += sprintf(dst, ", %d", end2);

	lea	rdx, OFFSET FLAT:$SG11057
	mov	rcx, rbx
	call	sprintf
	movsxd	rcx, eax
	add	rbx, rcx
$LN4@RenderInst:

; 307  :   }
; 308  :   *dst++ = EOLCHAR;
; 309  :   *dst = NULLC;
; 310  :   DebugMsg1(("%u RenderInstr(%s)=>%s<\n", evallvl, instr, old));
; 311  :   return(dst);
; 312  : }

	mov	rbp, QWORD PTR [rsp+56]
	lea	rax, QWORD PTR [rbx+1]
	mov	rsi, QWORD PTR [rsp+64]
	mov	WORD PTR [rbx], 10
	mov	rbx, QWORD PTR [rsp+48]
	add	rsp, 32					; 00000020H
	pop	rdi
	ret	0
RenderInstr ENDP
_TEXT	ENDS
; Function compile flags: /Ogtpy
; File d:\hjwasm\hjwasm2.13.1s\hjwasm2.13.1s\hll.c
;	COMDAT bubblesort
_TEXT	SEGMENT
lbl$ = 16
src$ = 24
n$ = 32
bubblesort PROC						; COMDAT

; 251  : static void bubblesort(uint_16 *lbl, int *src, int n){

	mov	QWORD PTR [rsp+24], rdi
	push	r14
	mov	edi, r8d
	mov	r14, rdx
	mov	r11, rcx

; 252  :   /*******************************************************************************************************************************/
; 253  :   int i;
; 254  :   int j;
; 255  :   int temp1;
; 256  :   uint_16 temp2;
; 257  : 
; 258  :    for (i = 0; i < n; ++i)

	test	r8d, r8d
	jle	SHORT $LN3@bubblesort
	mov	QWORD PTR [rsp+16], rbx
	mov	r9, rdx
	mov	QWORD PTR [rsp+24], rsi
	mov	ebx, 1
	mov	esi, edi
	npad	7
$LL4@bubblesort:

; 259  :     {
; 260  :      for (j = i + 1; j < n; ++j)

	cmp	ebx, edi
	jge	SHORT $LN2@bubblesort
	mov	r10d, edi
	lea	r8, QWORD PTR [r11+2]
	sub	r10d, ebx
	lea	rax, QWORD PTR [r9+4]
$LL7@bubblesort:

; 261  :        {
; 262  :           if (src[i] > src[j])

	mov	ecx, DWORD PTR [r9]
	mov	edx, DWORD PTR [rax]
	cmp	ecx, edx
	jle	SHORT $LN5@bubblesort

; 263  :             {
; 264  :                 temp1 =  src[i];
; 265  :                 src[i] = src[j];

	mov	DWORD PTR [r9], edx

; 266  :                 src[j] = temp1;

	mov	DWORD PTR [rax], ecx

; 267  :                 temp2 =  lbl[i];
; 268  :                 lbl[i] = lbl[j];

	movzx	ecx, WORD PTR [r8]
	movzx	edx, WORD PTR [r11]
	mov	WORD PTR [r11], cx

; 269  :                 lbl[j] = temp2;

	mov	WORD PTR [r8], dx
$LN5@bubblesort:

; 259  :     {
; 260  :      for (j = i + 1; j < n; ++j)

	add	rax, 4
	add	r8, 2
	sub	r10, 1
	jne	SHORT $LL7@bubblesort
$LN2@bubblesort:

; 252  :   /*******************************************************************************************************************************/
; 253  :   int i;
; 254  :   int j;
; 255  :   int temp1;
; 256  :   uint_16 temp2;
; 257  : 
; 258  :    for (i = 0; i < n; ++i)

	inc	ebx
	add	r9, 4
	add	r11, 2
	sub	rsi, 1
	jne	SHORT $LL4@bubblesort
	mov	rsi, QWORD PTR [rsp+24]
	mov	rbx, QWORD PTR [rsp+16]
$LN3@bubblesort:

; 270  :             }
; 271  :         }
; 272  :     }
; 273  : 
; 274  :   mincase = src[0];

	mov	edx, DWORD PTR [r14]

; 275  :   maxcase = src[casen-1];

	movsxd	rax, DWORD PTR casen

; 276  :   delta = maxcase - mincase;
; 277  : }

	mov	rdi, QWORD PTR [rsp+32]
	mov	DWORD PTR mincase, edx
	mov	ecx, DWORD PTR [r14+rax*4-4]
	mov	DWORD PTR maxcase, ecx
	sub	ecx, edx
	mov	DWORD PTR delta, ecx
	pop	r14
	ret	0
bubblesort ENDP
_TEXT	ENDS
; Function compile flags: /Ogtpy
; File d:\hjwasm\hjwasm2.13.1s\hjwasm2.13.1s\hll.c
;	COMDAT GetCOp
_TEXT	SEGMENT
item$ = 48
GetCOp	PROC						; COMDAT

; 191  : {

	push	rbx
	sub	rsp, 32					; 00000020H

; 192  :   int size;
; 193  :   enum c_bop rc;
; 194  :   char *p = item->string_ptr;
; 195  : 
; 196  :   size = (item->token == T_STRING ? item->stringlen : 0);

	movzx	eax, BYTE PTR [rcx]
	mov	rbx, QWORD PTR [rcx+8]
	cmp	al, 9
	jne	$LN15@GetCOp
	mov	edx, DWORD PTR [rcx+16]

; 197  : 
; 198  :   if (size == 2) {

	cmp	edx, 2
	jne	SHORT $LN6@GetCOp

; 199  :     switch (*(uint_16 *)p) {

	movzx	ecx, WORD PTR [rbx]
	cmp	ecx, 15677				; 00003d3dH
	jg	SHORT $LN47@GetCOp
	je	SHORT $LN8@GetCOp
	sub	ecx, 9766				; 00002626H
	je	SHORT $LN12@GetCOp
	sub	ecx, 5883				; 000016fbH
	je	SHORT $LN9@GetCOp
	cmp	ecx, 27
	jne	$LN42@GetCOp

; 203  :     case CHARS_LE:  rc = COP_LE;  break;

	lea	eax, QWORD PTR [rdx+4]

; 248  :   }
; 249  :   return(rc);
; 250  : }

	add	rsp, 32					; 00000020H
	pop	rbx
	ret	0
$LN9@GetCOp:

; 201  :     case CHARS_NE:  rc = COP_NE;  break;

	mov	eax, 2

; 248  :   }
; 249  :   return(rc);
; 250  : }

	add	rsp, 32					; 00000020H
	pop	rbx
	ret	0
$LN12@GetCOp:

; 204  :     case CHARS_AND: rc = COP_AND; break;

	mov	eax, 7

; 248  :   }
; 249  :   return(rc);
; 250  : }

	add	rsp, 32					; 00000020H
	pop	rbx
	ret	0
$LN8@GetCOp:

; 200  :     case CHARS_EQ:  rc = COP_EQ;  break;

	mov	eax, 1

; 248  :   }
; 249  :   return(rc);
; 250  : }

	add	rsp, 32					; 00000020H
	pop	rbx
	ret	0
$LN47@GetCOp:

; 199  :     switch (*(uint_16 *)p) {

	cmp	ecx, 15678				; 00003d3eH
	je	SHORT $LN10@GetCOp
	cmp	ecx, 31868				; 00007c7cH
	jne	$LN42@GetCOp

; 205  :     case CHARS_OR:  rc = COP_OR;  break;

	mov	eax, 8

; 248  :   }
; 249  :   return(rc);
; 250  : }

	add	rsp, 32					; 00000020H
	pop	rbx
	ret	0
$LN10@GetCOp:

; 202  :     case CHARS_GE:  rc = COP_GE;  break;

	mov	eax, 5

; 248  :   }
; 249  :   return(rc);
; 250  : }

	add	rsp, 32					; 00000020H
	pop	rbx
	ret	0
$LN6@GetCOp:

; 206  :     default: return(COP_NONE);
; 207  :     }
; 208  :   }
; 209  :   else if (size == 1) {

	cmp	edx, 1
	jne	SHORT $LN15@GetCOp

; 210  :     switch (*p) {

	movzx	eax, BYTE PTR [rbx]
	cmp	al, 33					; 00000021H
	je	SHORT $LN20@GetCOp
	cmp	al, 38					; 00000026H
	je	SHORT $LN19@GetCOp
	cmp	al, 60					; 0000003cH
	je	SHORT $LN18@GetCOp
	cmp	al, 62					; 0000003eH
	jne	$LN42@GetCOp

; 211  :     case '>': rc = COP_GT;   break;

	lea	eax, QWORD PTR [rdx+2]

; 248  :   }
; 249  :   return(rc);
; 250  : }

	add	rsp, 32					; 00000020H
	pop	rbx
	ret	0
$LN18@GetCOp:

; 212  :     case '<': rc = COP_LT;   break;

	mov	eax, 4

; 248  :   }
; 249  :   return(rc);
; 250  : }

	add	rsp, 32					; 00000020H
	pop	rbx
	ret	0
$LN19@GetCOp:

; 213  :     case '&': rc = COP_ANDB; break;

	mov	eax, 9

; 248  :   }
; 249  :   return(rc);
; 250  : }

	add	rsp, 32					; 00000020H
	pop	rbx
	ret	0
$LN20@GetCOp:

; 214  :     case '!': rc = COP_NEG;  break;

	mov	eax, 10

; 248  :   }
; 249  :   return(rc);
; 250  : }

	add	rsp, 32					; 00000020H
	pop	rbx
	ret	0
$LN15@GetCOp:

; 215  :     default: return(COP_NONE);
; 216  :     }
; 217  :   }
; 218  :   else {
; 219  :     if (item->token != T_ID)

	cmp	al, 8
	jne	$LN42@GetCOp

; 220  :       return(COP_NONE);
; 221  :     /* a valid "flag" string must end with a question mark */
; 222  :     size = strlen(p);

	or	rcx, -1
	npad	7
$LL53@GetCOp:
	inc	rcx
	cmp	BYTE PTR [rbx+rcx], 0
	jne	SHORT $LL53@GetCOp

; 223  :     if (*(p + size - 1) != '?')

	movsxd	rax, ecx
	cmp	BYTE PTR [rax+rbx-1], 63		; 0000003fH
	jne	$LN42@GetCOp

; 224  :       return(COP_NONE);
; 225  :     if (size == 5 && (0 == _memicmp(p, "ZERO", 4)))

	cmp	ecx, 5
	jne	SHORT $LN24@GetCOp
	lea	r8d, QWORD PTR [rcx-1]
	mov	rcx, rbx
	lea	rdx, OFFSET FLAT:$SG10990
	call	_memicmp
	test	eax, eax
	jne	SHORT $LN48@GetCOp

; 226  :       rc = COP_ZERO;

	mov	eax, 11

; 248  :   }
; 249  :   return(rc);
; 250  : }

	add	rsp, 32					; 00000020H
	pop	rbx
	ret	0
$LN48@GetCOp:

; 229  :     else if (size == 5 && (0 == _memicmp(p, "SIGN", 4)))

	mov	r8d, 4
	lea	rdx, OFFSET FLAT:$SG10996
	mov	rcx, rbx
	call	_memicmp
	test	eax, eax
	jne	SHORT $LN50@GetCOp

; 230  :       rc = COP_SIGN;

	mov	eax, 13

; 248  :   }
; 249  :   return(rc);
; 250  : }

	add	rsp, 32					; 00000020H
	pop	rbx
	ret	0
$LN50@GetCOp:

; 235  :     //added by habran
; 236  :     else if (size == 5 && (0 == _memicmp(p, "LESS", 4)))

	mov	r8d, 4
	lea	rdx, OFFSET FLAT:$SG11005
	mov	rcx, rbx
	call	_memicmp
	test	eax, eax
	jne	$LN42@GetCOp

; 237  :       rc = COP_LESS;

	mov	eax, 16

; 248  :   }
; 249  :   return(rc);
; 250  : }

	add	rsp, 32					; 00000020H
	pop	rbx
	ret	0
$LN24@GetCOp:

; 227  :     else if (size == 6 && (0 == _memicmp(p, "CARRY", 5)))

	cmp	ecx, 6
	jne	$LN28@GetCOp
	lea	r8d, QWORD PTR [rcx-1]
	mov	rcx, rbx
	lea	rdx, OFFSET FLAT:$SG10993
	call	_memicmp
	test	eax, eax
	jne	SHORT $LN49@GetCOp

; 228  :       rc = COP_CARRY;

	mov	eax, 12

; 248  :   }
; 249  :   return(rc);
; 250  : }

	add	rsp, 32					; 00000020H
	pop	rbx
	ret	0
$LN49@GetCOp:

; 240  :     else if (size == 6 && (0 == _memicmp(p, "ABOVE", 5)))

	mov	r8d, 5
	lea	rdx, OFFSET FLAT:$SG11011
	mov	rcx, rbx
	call	_memicmp
	test	eax, eax
	jne	SHORT $LN51@GetCOp

; 241  :       rc = COP_ABOVE;

	mov	eax, 18

; 248  :   }
; 249  :   return(rc);
; 250  : }

	add	rsp, 32					; 00000020H
	pop	rbx
	ret	0
$LN51@GetCOp:

; 242  :     else if (size == 6 && (0 == _memicmp(p, "EQUAL", 5)))

	mov	r8d, 5
	lea	rdx, OFFSET FLAT:$SG11014
	mov	rcx, rbx
	call	_memicmp
	test	eax, eax
	jne	SHORT $LN52@GetCOp

; 243  :       rc = COP_EQUAL;

	mov	eax, 19

; 248  :   }
; 249  :   return(rc);
; 250  : }

	add	rsp, 32					; 00000020H
	pop	rbx
	ret	0
$LN52@GetCOp:

; 244  :     else if (size == 6 && (0 == _memicmp(p, "BELOW", 5)))

	mov	r8d, 5
	lea	rdx, OFFSET FLAT:$SG11017
	mov	rcx, rbx
	call	_memicmp
	test	eax, eax
	jne	$LN42@GetCOp

; 245  :       rc = COP_BELOW;

	mov	eax, 20

; 248  :   }
; 249  :   return(rc);
; 250  : }

	add	rsp, 32					; 00000020H
	pop	rbx
	ret	0
$LN28@GetCOp:

; 231  :     else if (size == 7 && (0 == _memicmp(p, "PARITY", 6)))

	cmp	ecx, 7
	jne	SHORT $LN30@GetCOp
	lea	r8d, QWORD PTR [rcx-1]
	mov	rcx, rbx
	lea	rdx, OFFSET FLAT:$SG10999
	call	_memicmp
	test	eax, eax
	jne	SHORT $LN42@GetCOp

; 232  :       rc = COP_PARITY;

	mov	eax, 14

; 248  :   }
; 249  :   return(rc);
; 250  : }

	add	rsp, 32					; 00000020H
	pop	rbx
	ret	0
$LN30@GetCOp:

; 233  :     else if (size == 9 && (0 == _memicmp(p, "OVERFLOW", 8)))

	cmp	ecx, 9
	jne	SHORT $LN34@GetCOp
	lea	r8d, QWORD PTR [rcx-1]
	mov	rcx, rbx
	lea	rdx, OFFSET FLAT:$SG11002
	call	_memicmp
	test	eax, eax
	jne	SHORT $LN42@GetCOp

; 234  :       rc = COP_OVERFLOW;

	mov	eax, 15

; 248  :   }
; 249  :   return(rc);
; 250  : }

	add	rsp, 32					; 00000020H
	pop	rbx
	ret	0
$LN34@GetCOp:

; 238  :     else if (size == 8 && (0 == _memicmp(p, "GREATER", 7)))

	cmp	ecx, 8
	jne	SHORT $LN42@GetCOp
	lea	r8d, QWORD PTR [rcx-1]
	mov	rcx, rbx
	lea	rdx, OFFSET FLAT:$SG11008
	call	_memicmp
	test	eax, eax
	jne	SHORT $LN42@GetCOp

; 239  :       rc = COP_GREATER;

	mov	eax, 17

; 248  :   }
; 249  :   return(rc);
; 250  : }

	add	rsp, 32					; 00000020H
	pop	rbx
	ret	0
$LN42@GetCOp:

; 246  :     else
; 247  :       return(COP_NONE);

	xor	eax, eax

; 248  :   }
; 249  :   return(rc);
; 250  : }

	add	rsp, 32					; 00000020H
	pop	rbx
	ret	0
GetCOp	ENDP
_TEXT	ENDS
; Function compile flags: /Ogtpy
; File d:\hjwasm\hjwasm2.13.1s\hjwasm2.13.1s\hll.c
;	COMDAT GetHllLabel
_TEXT	SEGMENT
GetHllLabel PROC					; COMDAT

; 171  :   return (++ModuleInfo.hll_label);

	mov	eax, DWORD PTR ModuleInfo+352
	inc	eax
	mov	DWORD PTR ModuleInfo+352, eax

; 172  : }

	ret	0
GetHllLabel ENDP
_TEXT	ENDS
; Function compile flags: /Ogtpy
; File d:\hjwasm\hjwasm2.13.1s\hjwasm2.13.1s\hll.c
;	COMDAT GetExpression
_TEXT	SEGMENT
buff$1 = 64
hll$ = 144
i$ = 152
tokenarray$ = 160
ilabel$ = 168
is_true$ = 176
buffer$ = 184
hllop$ = 192
GetExpression PROC					; COMDAT

; 722  : {

	mov	QWORD PTR [rsp+8], rbx
	mov	DWORD PTR [rsp+32], r9d
	mov	QWORD PTR [rsp+24], r8
	push	rbp
	push	rsi
	push	rdi
	push	r12
	push	r13
	push	r14
	push	r15
	sub	rsp, 80					; 00000050H

; 723  :   char *ptr = buffer;
; 724  :   uint_32 truelabel = 0;
; 725  : 
; 726  :   DebugMsg1(("%u GetExpression(>%.32s< buf=>%s<) enter\n", ++evallvl, tokenarray[*i].tokpos, buffer));
; 727  : 
; 728  :   /* v2.08: structure changed from for(;;) to while() to increase
; 729  :   * readability and - optionally - handle the second operand differently
; 730  :   * than the first.
; 731  :   */
; 732  : 
; 733  :   if (ERROR == GetAndExpression(hll, i, tokenarray, ilabel, is_true, ptr, hllop)) {

	mov	r15, QWORD PTR hllop$[rsp]
	mov	r13, rcx
	mov	rcx, QWORD PTR buffer$[rsp]
	mov	rbx, r8
	movzx	ebp, BYTE PTR is_true$[rsp]
	mov	rdi, rcx
	mov	QWORD PTR [rsp+48], r15
	mov	r12, rdx
	mov	QWORD PTR [rsp+40], rcx
	xor	r14d, r14d
	mov	rcx, r13
	mov	BYTE PTR [rsp+32], bpl
	call	GetAndExpression
	cmp	eax, -1
	jne	SHORT $LN30@GetExpress

; 734  :     DebugMsg1(("%u GetExpression exit, error\n", evallvl--));
; 735  :     return(ERROR);

	or	rax, -1
	jmp	$LN1@GetExpress
$LN30@GetExpress:

; 736  :   }
; 737  :   while (COP_OR == GetCOp(&tokenarray[*i])) {

	movsxd	rcx, DWORD PTR [r12]
	shl	rcx, 5
	add	rcx, rbx
	call	GetCOp
	cmp	eax, 8
	jne	$LN13@GetExpress
	or	rsi, -1
	npad	9
$LL2@GetExpress:

; 738  : 
; 739  :     uint_32 nlabel;
; 740  :     uint_32 olabel;
; 741  :     char buff[16];
; 742  : 
; 743  :     /* the generated code of last simple expression has to be modified
; 744  :     1. the last jump must be inverted
; 745  :     2. a "is_true" label must be created (it's used to jump "behind" the expr)
; 746  :     3. create a new label
; 747  :     4. the current "false" label must be generated
; 748  : 
; 749  :     if it is a .REPEAT, step 4 is slightly more difficult, since the "false"
; 750  :     label is already "gone":
; 751  :     4a. create a new label
; 752  :     4b. replace the "false" label in the generated code by the new label
; 753  :     */
; 754  : 
; 755  :     (*i)++;

	inc	DWORD PTR [r12]

; 756  :     DebugMsg1(("%u GetExpression: ||-operator found, is_true=%u, lastjmp=%s\n", evallvl, is_true, hllop->lastjmp ? hllop->lastjmp : "NULL"));
; 757  : 
; 758  :     if (is_true == FALSE) {

	test	bpl, bpl
	jne	$LN11@GetExpress

; 759  :       if (hllop->lastjmp) {

	mov	rbx, QWORD PTR [r15]
	test	rbx, rbx
	je	$LN42@GetExpress

; 760  :         char *p = hllop->lastjmp;
; 761  :         InvertJump(p);           /* step 1 */

	mov	rcx, rbx
	call	InvertJump

; 762  :         if (truelabel == 0)      /* step 2 */

	test	r14d, r14d
	jne	SHORT $LN7@GetExpress

; 763  :           truelabel = GetHllLabel();

	mov	r14d, DWORD PTR ModuleInfo+352
	inc	r14d
	mov	DWORD PTR ModuleInfo+352, r14d
$LN7@GetExpress:

; 764  :         if (*p) { /* v2.11: there might be a 0 at lastjmp */

	cmp	BYTE PTR [rbx], 0
	je	SHORT $LN8@GetExpress

; 765  :           p += 4;                /* skip 'jcc ' or 'jmp ' */
; 766  :           GetLabelStr(truelabel, p);

	mov	r8d, r14d
	lea	rdx, OFFSET FLAT:$SG11064
	lea	rcx, QWORD PTR [rbx+4]
	call	sprintf

; 767  :           strcat(p, EOLSTR);

	sub	rbx, -3
$LL40@GetExpress:
	cmp	BYTE PTR [rbx+1], 0
	lea	rbx, QWORD PTR [rbx+1]
	jne	SHORT $LL40@GetExpress
	xor	ecx, ecx
	lea	r15, OFFSET FLAT:$SG11279
	npad	10
$LL41@GetExpress:
	movzx	eax, BYTE PTR [r15+rcx]
	mov	BYTE PTR [rbx+rcx], al
	lea	rcx, QWORD PTR [rcx+1]
	test	al, al
	jne	SHORT $LL41@GetExpress
	mov	r15, QWORD PTR hllop$[rsp]
$LN8@GetExpress:

; 768  :         }
; 769  :         /* v2.08: if-block added */
; 770  :         if (hllop->lasttruelabel)

	mov	edx, DWORD PTR [r15+8]
	test	edx, edx
	je	SHORT $LN9@GetExpress

; 771  :           ReplaceLabel(ptr, hllop->lasttruelabel, truelabel);

	mov	r8d, r14d
	mov	rcx, rdi
	call	ReplaceLabel
$LN9@GetExpress:

; 772  :         DebugMsg1(("%u GetExpression: jmp inverted, dest changed >%s<\n", evallvl, ptr));
; 773  :         hllop->lastjmp = NULL;
; 774  : 
; 775  :         nlabel = GetHllLabel();  /* step 3 */
; 776  :         olabel = GetLabel(hll, ilabel);

	movsxd	rax, DWORD PTR ilabel$[rsp]
	mov	QWORD PTR [r15], 0
	mov	ebx, DWORD PTR ModuleInfo+352
	inc	ebx
	mov	DWORD PTR ModuleInfo+352, ebx

; 777  :         if (hll->cmd == HLL_REPEAT) {

	cmp	DWORD PTR [r13+72], 2
	mov	ebp, DWORD PTR [r13+rax*4+8]
	jne	SHORT $LN10@GetExpress

; 778  :           ReplaceLabel(buffer, olabel, nlabel);

	mov	rcx, QWORD PTR buffer$[rsp]
	mov	r8d, ebx
	mov	edx, ebp
	call	ReplaceLabel

; 779  :           sprintf(ptr + strlen(ptr), "%s" LABELQUAL EOLSTR, GetLabelStr(nlabel, buff));

	mov	r8d, ebx
	lea	rdx, OFFSET FLAT:$SG11064
	lea	rcx, QWORD PTR buff$1[rsp]
	call	sprintf
	mov	rcx, rsi
	npad	3
$LL39@GetExpress:
	inc	rcx
	cmp	BYTE PTR [rdi+rcx], 0
	jne	SHORT $LL39@GetExpress
	add	rcx, rdi
	lea	r8, QWORD PTR buff$1[rsp]
	lea	rdx, OFFSET FLAT:$SG11283
	call	sprintf

; 780  :         }

	jmp	SHORT $LN46@GetExpress
$LN10@GetExpress:

; 781  :         else {
; 782  :           sprintf(ptr + strlen(ptr), "%s" LABELQUAL EOLSTR, GetLabelStr(olabel, buff));

	mov	r8d, ebp
	lea	rdx, OFFSET FLAT:$SG11064
	lea	rcx, QWORD PTR buff$1[rsp]
	call	sprintf
	mov	rcx, rsi
$LL38@GetExpress:
	inc	rcx
	cmp	BYTE PTR [rdi+rcx], 0
	jne	SHORT $LL38@GetExpress
	add	rcx, rdi
	lea	r8, QWORD PTR buff$1[rsp]
	lea	rdx, OFFSET FLAT:$SG11284
	call	sprintf

; 783  :           ReplaceLabel(buffer, olabel, nlabel);

	mov	rcx, QWORD PTR buffer$[rsp]
	mov	r8d, ebx
	mov	edx, ebp
	call	ReplaceLabel
$LN46@GetExpress:
	movzx	ebp, BYTE PTR is_true$[rsp]
$LN42@GetExpress:
	mov	rbx, QWORD PTR tokenarray$[rsp]
$LN11@GetExpress:

; 784  :         }
; 785  :         DebugMsg1(("%u GetExpression: dest changed, label added >%s<\n", evallvl, ptr));
; 786  :       }
; 787  :     }
; 788  :     ptr += strlen(ptr);

	mov	rax, rsi
	npad	8
$LL37@GetExpress:
	inc	rax
	cmp	BYTE PTR [rdi+rax], 0
	jne	SHORT $LL37@GetExpress

; 789  :     hllop->lasttruelabel = 0; /* v2.08 */
; 790  :     if (ERROR == GetAndExpression(hll, i, tokenarray, ilabel, is_true, ptr, hllop)) {

	mov	r9d, DWORD PTR ilabel$[rsp]
	add	rdi, rax
	mov	QWORD PTR [rsp+48], r15
	mov	r8, rbx
	mov	QWORD PTR [rsp+40], rdi
	mov	rdx, r12
	mov	rcx, r13
	mov	BYTE PTR [rsp+32], bpl
	mov	DWORD PTR [r15+8], 0
	call	GetAndExpression
	cmp	eax, -1
	je	$LN31@GetExpress

; 736  :   }
; 737  :   while (COP_OR == GetCOp(&tokenarray[*i])) {

	movsxd	rcx, DWORD PTR [r12]
	shl	rcx, 5
	add	rcx, rbx
	call	GetCOp
	cmp	eax, 8
	je	$LL2@GetExpress

; 793  :     }
; 794  :   }
; 795  :   if (truelabel > 0) {

	test	r14d, r14d
	je	$LN13@GetExpress

; 796  :     /* v2.08: this is needed, but ober-hackish. to be improved... */
; 797  :     if (hllop->lastjmp && hllop->lasttruelabel) {

	cmp	QWORD PTR [r15], 0
	je	SHORT $LL14@GetExpress
	mov	edx, DWORD PTR [r15+8]
	test	edx, edx
	je	SHORT $LL14@GetExpress

; 798  :       DebugMsg1(("%u GetExpression: suppressed ReplaceLabel %u -> %u, lastjmp=%s\n", evallvl, hllop->lasttruelabel, truelabel, hllop->lastjmp));
; 799  :       ReplaceLabel(ptr, hllop->lasttruelabel, truelabel);

	mov	r8d, r14d
	mov	rcx, rdi
	call	ReplaceLabel

; 800  :       *(strchr(hllop->lastjmp, EOLCHAR) + 1) = NULLC;

	mov	rcx, QWORD PTR [r15]
	mov	edx, 10
	call	strchr
	mov	BYTE PTR [rax+1], 0
	npad	2
$LL14@GetExpress:

; 801  :     }
; 802  :     ptr += strlen(ptr);

	inc	rsi
	cmp	BYTE PTR [rdi+rsi], 0
	jne	SHORT $LL14@GetExpress
	add	rdi, rsi

; 803  :     GetLabelStr(truelabel, ptr);

	lea	rdx, OFFSET FLAT:$SG11064
	mov	rcx, rdi
	mov	r8d, r14d
	call	sprintf

; 804  :     strcat(ptr, LABELQUAL EOLSTR);

	dec	rdi
$LL34@GetExpress:
	cmp	BYTE PTR [rdi+1], 0
	lea	rdi, QWORD PTR [rdi+1]
	jne	SHORT $LL34@GetExpress
	lea	rdx, OFFSET FLAT:$SG11288
	xor	ecx, ecx
	npad	12
$LL35@GetExpress:
	movzx	eax, BYTE PTR [rdx+rcx]
	mov	BYTE PTR [rdi+rcx], al
	lea	rcx, QWORD PTR [rcx+1]
	test	al, al
	jne	SHORT $LL35@GetExpress

; 805  :     DebugMsg1(("%u GetExpression: label added >%s<\n", evallvl, ptr));
; 806  :     hllop->lasttruelabel = truelabel; /* v2.08 */

	mov	DWORD PTR [r15+8], r14d
$LN13@GetExpress:

; 807  :   }
; 808  :   DebugMsg1(("%u GetExpression exit\n", evallvl--));
; 809  :   return(NOT_ERROR);

	xor	eax, eax
$LN1@GetExpress:

; 810  : }

	mov	rbx, QWORD PTR [rsp+144]
	add	rsp, 80					; 00000050H
	pop	r15
	pop	r14
	pop	r13
	pop	r12
	pop	rdi
	pop	rsi
	pop	rbp
	ret	0
$LN31@GetExpress:

; 791  :       DebugMsg1(("%u GetExpression exit, error\n", evallvl--));
; 792  :       return(ERROR);

	mov	eax, esi
	jmp	SHORT $LN1@GetExpress
GetExpression ENDP
_TEXT	ENDS
; Function compile flags: /Ogtpy
; File d:\hjwasm\hjwasm2.13.1s\hjwasm2.13.1s\hll.c
_TEXT	SEGMENT
HllCheckOpen PROC

; 2027 :   if (HllStack) {

	cmp	QWORD PTR ModuleInfo+224, 0
	je	SHORT $LN2@HllCheckOp

; 2028 :     //EmitErr( BLOCK_NESTING_ERROR, ".if-.repeat-.while" );
; 2029 :     EmitErr(UNMATCHED_BLOCK_NESTING, ".if-.repeat-.while");

	lea	rdx, OFFSET FLAT:$SG11888
	mov	ecx, 142				; 0000008eH
	jmp	EmitErr
$LN2@HllCheckOp:

; 2030 :   }
; 2031 :   DebugMsg(("HllCheckOpen: allocated items:%u, reused items:%u, .while cond-blocks/bytes:%u/%u\n", cntAlloc, cntReused, cntCond, cntCondBytes));
; 2032 : }

	ret	0
HllCheckOpen ENDP
_TEXT	ENDS
; Function compile flags: /Ogtpy
; File d:\hjwasm\hjwasm2.13.1s\hjwasm2.13.1s\hll.c
_TEXT	SEGMENT
pass$ = 8
HllInit	PROC

; 2055 :   //if ( pass == PASS_1 )
; 2056 :   //    HllFree = NULL;
; 2057 : 
; 2058 :   //HllStack = NULL; /* empty stack of open hll directives */
; 2059 :   ModuleInfo.hll_label = 0; /* init hll label counter */

	mov	DWORD PTR ModuleInfo+352, 0

; 2060 : #ifdef DEBUG_OUT
; 2061 :   evallvl = 0;
; 2062 :   if (pass == PASS_1) {
; 2063 :     cntAlloc = 0;
; 2064 :     cntReused = 0;
; 2065 :     cntCond = 0;
; 2066 :     cntCondBytes = 0;
; 2067 :   }
; 2068 : #endif
; 2069 :   return;
; 2070 : }

	ret	0
HllInit	ENDP
_TEXT	ENDS
; Function compile flags: /Ogtpy
; File c:\program files (x86)\windows kits\10\include\10.0.10150.0\ucrt\stdio.h
;	COMDAT sprintf
_TEXT	SEGMENT
_Buffer$ = 80
_Format$ = 88
sprintf	PROC						; COMDAT

; 1776 : {

$LN8:
	mov	QWORD PTR [rsp+16], rdx
	mov	QWORD PTR [rsp+24], r8
	mov	QWORD PTR [rsp+32], r9
	push	rbx
	push	rsi
	push	rdi
	sub	rsp, 48					; 00000030H
	mov	rbx, rdx

; 1777 :     int _Result;
; 1778 :     va_list _ArgList;
; 1779 :     __crt_va_start(_ArgList, _Format);

	lea	rsi, QWORD PTR _Format$[rsp+8]
	mov	rdi, rcx

; 1780 : 
; 1781 :     #pragma warning(push)
; 1782 :     #pragma warning(disable: 4996) // Deprecation
; 1783 :     _Result = _vsprintf_l(_Buffer, _Format, NULL, _ArgList);

	call	__local_stdio_printf_options
	mov	r9, rbx
	mov	QWORD PTR [rsp+40], rsi
	or	rbx, -1
	mov	QWORD PTR [rsp+32], 0
	mov	r8, rbx
	mov	rdx, rdi
	mov	rcx, QWORD PTR [rax]
	or	rcx, 1
	call	__stdio_common_vsprintf
	test	eax, eax
	cmovs	eax, ebx

; 1784 :     #pragma warning(pop)
; 1785 : 
; 1786 :     __crt_va_end(_ArgList);
; 1787 :     return _Result;
; 1788 : }

	add	rsp, 48					; 00000030H
	pop	rdi
	pop	rsi
	pop	rbx
	ret	0
sprintf	ENDP
_TEXT	ENDS
; Function compile flags: /Ogtpy
; File c:\program files (x86)\windows kits\10\include\10.0.10150.0\ucrt\stdio.h
;	COMDAT _vsprintf_l
_TEXT	SEGMENT
_Buffer$ = 64
_Format$ = 72
_Locale$ = 80
_ArgList$ = 88
_vsprintf_l PROC					; COMDAT

; 1455 : {

$LN6:
	mov	QWORD PTR [rsp+8], rbx
	mov	QWORD PTR [rsp+16], rbp
	mov	QWORD PTR [rsp+24], rsi
	push	rdi
	sub	rsp, 48					; 00000030H
	mov	rbx, r9
	mov	rdi, r8
	mov	rsi, rdx
	mov	rbp, rcx

; 1456 :     #pragma warning(push)
; 1457 :     #pragma warning(disable: 4996) // Deprecation
; 1458 :     return _vsnprintf_l(_Buffer, (size_t)-1, _Format, _Locale, _ArgList);

	call	__local_stdio_printf_options
	mov	QWORD PTR [rsp+40], rbx
	mov	r9, rsi
	or	rbx, -1
	mov	QWORD PTR [rsp+32], rdi
	mov	r8, rbx
	mov	rdx, rbp
	mov	rcx, QWORD PTR [rax]
	or	rcx, 1
	call	__stdio_common_vsprintf

; 1459 :     #pragma warning(pop)
; 1460 : }

	mov	rbp, QWORD PTR [rsp+72]
	test	eax, eax
	mov	rsi, QWORD PTR [rsp+80]
	cmovs	eax, ebx
	mov	rbx, QWORD PTR [rsp+64]
	add	rsp, 48					; 00000030H
	pop	rdi
	ret	0
_vsprintf_l ENDP
_TEXT	ENDS
; Function compile flags: /Ogtpy
; File c:\program files (x86)\windows kits\10\include\10.0.10150.0\ucrt\stdio.h
;	COMDAT _vsnprintf_l
_TEXT	SEGMENT
_Buffer$ = 64
_BufferCount$ = 72
_Format$ = 80
_Locale$ = 88
_ArgList$ = 96
_vsnprintf_l PROC					; COMDAT

; 1385 : {

$LN4:
	mov	QWORD PTR [rsp+8], rbx
	mov	QWORD PTR [rsp+16], rbp
	mov	QWORD PTR [rsp+24], rsi
	push	rdi
	sub	rsp, 48					; 00000030H
	mov	rbx, r9
	mov	rdi, r8
	mov	rsi, rdx
	mov	rbp, rcx

; 1386 :     int const _Result = __stdio_common_vsprintf(

	call	__local_stdio_printf_options
	mov	r9, rdi
	mov	r8, rsi
	mov	rdx, rbp
	mov	rcx, QWORD PTR [rax]
	mov	rax, QWORD PTR _ArgList$[rsp]
	or	rcx, 1
	mov	QWORD PTR [rsp+40], rax
	mov	QWORD PTR [rsp+32], rbx
	call	__stdio_common_vsprintf

; 1387 :         _CRT_INTERNAL_LOCAL_PRINTF_OPTIONS | _CRT_INTERNAL_PRINTF_LEGACY_VSPRINTF_NULL_TERMINATION,
; 1388 :         _Buffer, _BufferCount, _Format, _Locale, _ArgList);
; 1389 : 
; 1390 :     return _Result < 0 ? -1 : _Result;
; 1391 : }

	mov	rbx, QWORD PTR [rsp+64]
	or	ecx, -1
	mov	rbp, QWORD PTR [rsp+72]
	test	eax, eax
	mov	rsi, QWORD PTR [rsp+80]
	cmovs	eax, ecx
	add	rsp, 48					; 00000030H
	pop	rdi
	ret	0
_vsnprintf_l ENDP
_TEXT	ENDS
; Function compile flags: /Ogtpy
; File c:\program files (x86)\windows kits\10\include\10.0.10150.0\ucrt\corecrt_stdio_config.h
;	COMDAT __local_stdio_printf_options
_TEXT	SEGMENT
__local_stdio_printf_options PROC			; COMDAT

; 74   :     static unsigned __int64 _OptionsStorage;
; 75   :     return &_OptionsStorage;

	lea	rax, OFFSET FLAT:?_OptionsStorage@?1??__local_stdio_printf_options@@9@9 ; `__local_stdio_printf_options'::`2'::_OptionsStorage

; 76   : }

	ret	0
__local_stdio_printf_options ENDP
_TEXT	ENDS
END
