; Listing generated by Microsoft (R) Optimizing Compiler Version 19.00.23026.0 

include listing.inc

INCLUDELIB LIBCMT
INCLUDELIB OLDNAMES

_BSS	SEGMENT
$SG11577 DB	01H DUP (?)
	ALIGN	4

$SG11585 DB	01H DUP (?)
	ALIGN	4

$SG11588 DB	02H DUP (?)
	ALIGN	4

$SG11593 DB	01H DUP (?)
_BSS	ENDS
_DATA	SEGMENT
COMM	decoflags:BYTE
COMM	broadflags:BYTE
COMM	evex:BYTE
COMM	ZEROLOCALS:BYTE
_DATA	ENDS
CONST	SEGMENT
reax	DB	'rax', 00H, 00H
	ORG $+3
recx	DB	'rcx', 00H, 00H
	ORG $+3
redx	DB	'rdx', 00H, 00H
CONST	ENDS
_DATA	SEGMENT
$SG11287 DB	'loope', 00H
	ORG $+2
$SG11291 DB	'loop', 00H
	ORG $+3
$SG11305 DB	', ', 00H
	ORG $+1
$SG11594 DB	'%s:', 00H
$SG11343 DB	'=!<>&|-+*^%/', 00H
	ORG $+3
$SG11351 DB	' inc ', 00H
	ORG $+2
$SG11353 DB	' dec ', 00H
	ORG $+2
$SG11371 DB	' mov  ', 00H
	ORG $+1
$SG11374 DB	' cdq ', 00H
	ORG $+2
$SG11377 DB	' mov  ', 00H
	ORG $+1
$SG11381 DB	' idiv ', 00H
	ORG $+1
$SG11382 DB	' imul ', 00H
	ORG $+1
$SG11386 DB	' idiv ', 00H
	ORG $+1
$SG11387 DB	' imul ', 00H
	ORG $+1
$SG11389 DB	' mov  ', 00H
	ORG $+1
$SG11390 DB	' mov  ', 00H
	ORG $+1
$SG11394 DB	' cdq ', 00H
	ORG $+2
$SG11395 DB	' idiv ', 00H
	ORG $+1
$SG11396 DB	' imul ', 00H
	ORG $+1
$SG11399 DB	' mov  ', 00H
	ORG $+1
$SG11400 DB	' mov  ', 00H
	ORG $+1
$SG11406 DB	' cdq ', 00H
	ORG $+2
$SG11407 DB	' idiv ', 00H
	ORG $+1
$SG11408 DB	' imul ', 00H
	ORG $+1
$SG11410 DB	' mov  ', 00H
	ORG $+1
$SG11416 DB	' cdq ', 00H
	ORG $+2
$SG11417 DB	' idiv ', 00H
	ORG $+1
$SG11418 DB	' imul ', 00H
	ORG $+1
$SG11420 DB	' mov  ', 00H
	ORG $+1
$SG11423 DB	' mov  ', 00H
	ORG $+1
$SG11427 DB	' cdq ', 00H
	ORG $+2
$SG11428 DB	' idiv ', 00H
	ORG $+1
$SG11429 DB	' imul ', 00H
	ORG $+1
$SG11431 DB	' mov  ', 00H
	ORG $+1
$SG11434 DB	' sub ', 00H
	ORG $+2
$SG11437 DB	' add ', 00H
	ORG $+2
$SG11440 DB	' and ', 00H
	ORG $+2
$SG11443 DB	' or ', 00H
	ORG $+3
$SG11446 DB	' xor ', 00H
	ORG $+2
$SG11449 DB	' shl ', 00H
	ORG $+2
$SG11451 DB	' shr ', 00H
	ORG $+2
$SG11458 DB	' xor  ', 00H
	ORG $+1
$SG11465 DB	'BYTE PTR', 00H
	ORG $+3
$SG11466 DB	'BPTR', 00H
	ORG $+3
$SG11467 DB	'WPTR', 00H
	ORG $+3
$SG11473 DB	' lea  ', 00H
	ORG $+1
$SG11602 DB	'jmp', 00H
$SG11468 DB	'WORD PTR', 00H
	ORG $+3
$SG11474 DB	' mov  ', 00H
	ORG $+1
$SG11604 DB	'%s:', 00H
$SG11469 DB	' movzx  ', 00H
	ORG $+3
$SG11472 DB	'ADDR', 00H
	ORG $+3
$SG11480 DB	'OFFSET', 00H
	ORG $+1
$SG11481 DB	' lea  ', 00H
	ORG $+1
$SG11482 DB	' mov  ', 00H
	ORG $+1
$SG11629 DB	'%s:', 00H
$SG11489 DB	'DWORD PTR', 00H
	ORG $+2
$SG11490 DB	'DPTR', 00H
	ORG $+3
$SG11493 DB	' mov  ', 00H
	ORG $+1
$SG11633 DB	'%s:', 00H
$SG11492 DB	' movsxd  ', 00H
	ORG $+2
$SG11500 DB	' mov  ', 00H
	ORG $+1
$SG11639 DB	'%s:', 00H
$SG11499 DB	' invoke  ', 00H
	ORG $+2
$SG11503 DB	' mov  ', 00H
	ORG $+1
$SG11641 DB	'%s:', 00H
$SG11506 DB	' mov  byte ptr ', 00H
$SG11507 DB	' mov  ', 00H
	ORG $+1
$SG11569 DB	'(::)', 00H
	ORG $+3
$SG11584 DB	' jmp %s', 00H
$SG11587 DB	'.for ', 00H
	ORG $+2
$SG11589 DB	'.for', 00H, 00H
	ORG $+2
$SG11603 DB	'jmp %s', 00H
	ORG $+1
$SG11642 DB	' jmp %s', 00H
$SG11644 DB	' jmp %s', 00H
$SG11648 DB	'%s:', 00H
$SG11652 DB	'%s:', 00H
$SG11658 DB	'loop %s', 00H
$SG11662 DB	'%s:', 00H
$SG11666 DB	'%s:', 00H
$SG11696 DB	'jmp %s', 00H
	ORG $+1
$SG11698 DB	'%s:', 00H
$SG11715 DB	'jmp %s', 00H
	ORG $+1
$SG11113 DB	'cmp', 00H
$SG11722 DB	'.if-.repeat-.while', 00H
	ORG $+1
$SG10959 DB	'ZERO', 00H
	ORG $+3
$SG10962 DB	'CARRY', 00H
	ORG $+2
$SG10965 DB	'SIGN', 00H
	ORG $+3
$SG10968 DB	'PARITY', 00H
	ORG $+1
$SG11131 DB	'or', 00H
	ORG $+1
$SG10971 DB	'OVERFLOW', 00H
	ORG $+3
$SG10974 DB	'LESS', 00H
	ORG $+3
$SG10980 DB	'ABOVE', 00H
	ORG $+2
$SG11014 DB	'@C%04X', 00H
	ORG $+1
$SG11132 DB	'cmp', 00H
$SG10977 DB	'GREATER', 00H
$SG10983 DB	'EQUAL', 00H
	ORG $+2
$SG10986 DB	'BELOW', 00H
	ORG $+2
$SG11007 DB	', %d', 00H
	ORG $+3
$SG11111 DB	'test', 00H
	ORG $+3
$SG11120 DB	'jmp @C%04X', 0aH, 00H
$SG11125 DB	'test', 00H
	ORG $+3
$SG11138 DB	'jmp ', 00H
	ORG $+3
$SG11196 DB	0aH, 00H
	ORG $+2
$SG11199 DB	':', 0aH, 00H
	ORG $+1
$SG11229 DB	0aH, 00H
	ORG $+2
$SG11233 DB	'%s:', 0aH, 00H
	ORG $+3
$SG11234 DB	'%s:', 0aH, 00H
	ORG $+3
$SG11238 DB	':', 0aH, 00H
_DATA	ENDS
PUBLIC	__local_stdio_printf_options
PUBLIC	sprintf
PUBLIC	HllInit
PUBLIC	HllCheckOpen
PUBLIC	HllStartDir
PUBLIC	HllEndDir
PUBLIC	HllExitDir
EXTRN	tolower:PROC
EXTRN	__stdio_common_vsprintf:PROC
EXTRN	strchr:PROC
EXTRN	strstr:PROC
EXTRN	_memicmp:PROC
EXTRN	_stricmp:PROC
EXTRN	EmitError:PROC
EXTRN	EmitErr:PROC
EXTRN	LclAlloc:PROC
EXTRN	EvalOperand:PROC
EXTRN	EmitConstError:PROC
EXTRN	GetCurrOffset:PROC
EXTRN	LstWrite:PROC
EXTRN	AddLineQueue:PROC
EXTRN	AddLineQueueX:PROC
EXTRN	RunLineQueue:PROC
EXTRN	Tokenize:PROC
EXTRN	__chkstk:PROC
EXTRN	memcpy:PROC
EXTRN	Options:BYTE
EXTRN	ModuleInfo:BYTE
EXTRN	__ImageBase:BYTE
_DATA	SEGMENT
COMM	?_OptionsStorage@?1??__local_stdio_printf_options@@9@9:QWORD							; `__local_stdio_printf_options'::`2'::_OptionsStorage
_DATA	ENDS
;	COMDAT pdata
pdata	SEGMENT
$pdata$_vsnprintf_l DD imagerel $LN4
	DD	imagerel $LN4+102
	DD	imagerel $unwind$_vsnprintf_l
pdata	ENDS
;	COMDAT pdata
pdata	SEGMENT
$pdata$_vsprintf_l DD imagerel $LN6
	DD	imagerel $LN6+98
	DD	imagerel $unwind$_vsprintf_l
pdata	ENDS
;	COMDAT pdata
pdata	SEGMENT
$pdata$sprintf DD imagerel $LN8
	DD	imagerel $LN8+90
	DD	imagerel $unwind$sprintf
pdata	ENDS
;	COMDAT pdata
pdata	SEGMENT
$pdata$GetExpression DD imagerel GetExpression
	DD	imagerel GetExpression+769
	DD	imagerel $unwind$GetExpression
pdata	ENDS
;	COMDAT pdata
pdata	SEGMENT
$pdata$GetCOp DD imagerel GetCOp
	DD	imagerel GetCOp+658
	DD	imagerel $unwind$GetCOp
pdata	ENDS
;	COMDAT pdata
pdata	SEGMENT
$pdata$RenderInstr DD imagerel RenderInstr
	DD	imagerel RenderInstr+240
	DD	imagerel $unwind$RenderInstr
pdata	ENDS
;	COMDAT pdata
pdata	SEGMENT
$pdata$GetLabelStr DD imagerel GetLabelStr
	DD	imagerel GetLabelStr+36
	DD	imagerel $unwind$GetLabelStr
pdata	ENDS
;	COMDAT pdata
pdata	SEGMENT
$pdata$RenderJcc DD imagerel RenderJcc
	DD	imagerel RenderJcc+96
	DD	imagerel $unwind$RenderJcc
pdata	ENDS
;	COMDAT pdata
pdata	SEGMENT
$pdata$GetToken DD imagerel GetToken
	DD	imagerel GetToken+38
	DD	imagerel $unwind$GetToken
pdata	ENDS
;	COMDAT pdata
pdata	SEGMENT
$pdata$2$GetToken DD imagerel GetToken+38
	DD	imagerel GetToken+520
	DD	imagerel $chain$2$GetToken
pdata	ENDS
;	COMDAT pdata
pdata	SEGMENT
$pdata$3$GetToken DD imagerel GetToken+520
	DD	imagerel GetToken+622
	DD	imagerel $chain$3$GetToken
pdata	ENDS
;	COMDAT pdata
pdata	SEGMENT
$pdata$GetSimpleExpression DD imagerel GetSimpleExpression
	DD	imagerel GetSimpleExpression+1376
	DD	imagerel $unwind$GetSimpleExpression
pdata	ENDS
;	COMDAT pdata
pdata	SEGMENT
$pdata$ReplaceLabel DD imagerel ReplaceLabel
	DD	imagerel ReplaceLabel+161
	DD	imagerel $unwind$ReplaceLabel
pdata	ENDS
;	COMDAT pdata
pdata	SEGMENT
$pdata$GetAndExpression DD imagerel GetAndExpression
	DD	imagerel GetAndExpression+564
	DD	imagerel $unwind$GetAndExpression
pdata	ENDS
;	COMDAT pdata
pdata	SEGMENT
$pdata$QueueTestLines DD imagerel QueueTestLines
	DD	imagerel QueueTestLines+14
	DD	imagerel $unwind$QueueTestLines
pdata	ENDS
;	COMDAT pdata
pdata	SEGMENT
$pdata$0$QueueTestLines DD imagerel QueueTestLines+14
	DD	imagerel QueueTestLines+85
	DD	imagerel $chain$0$QueueTestLines
pdata	ENDS
;	COMDAT pdata
pdata	SEGMENT
$pdata$1$QueueTestLines DD imagerel QueueTestLines+85
	DD	imagerel QueueTestLines+93
	DD	imagerel $chain$1$QueueTestLines
pdata	ENDS
;	COMDAT pdata
pdata	SEGMENT
$pdata$EvaluateHllExpression DD imagerel EvaluateHllExpression
	DD	imagerel EvaluateHllExpression+138
	DD	imagerel $unwind$EvaluateHllExpression
pdata	ENDS
;	COMDAT pdata
pdata	SEGMENT
$pdata$CheckCXZLines DD imagerel CheckCXZLines
	DD	imagerel CheckCXZLines+274
	DD	imagerel $unwind$CheckCXZLines
pdata	ENDS
;	COMDAT pdata
pdata	SEGMENT
$pdata$WriteAsmLine DD imagerel WriteAsmLine
	DD	imagerel WriteAsmLine+226
	DD	imagerel $unwind$WriteAsmLine
pdata	ENDS
;	COMDAT pdata
pdata	SEGMENT
$pdata$ForInitAndNext DD imagerel ForInitAndNext
	DD	imagerel ForInitAndNext+8498
	DD	imagerel $unwind$ForInitAndNext
pdata	ENDS
pdata	SEGMENT
$pdata$HllStartDir DD imagerel $LN250
	DD	imagerel $LN250+28
	DD	imagerel $unwind$HllStartDir
$pdata$4$HllStartDir DD imagerel $LN250+28
	DD	imagerel $LN250+179
	DD	imagerel $chain$4$HllStartDir
$pdata$5$HllStartDir DD imagerel $LN250+179
	DD	imagerel $LN250+359
	DD	imagerel $chain$5$HllStartDir
$pdata$6$HllStartDir DD imagerel $LN250+359
	DD	imagerel $LN250+2343
	DD	imagerel $chain$6$HllStartDir
$pdata$7$HllStartDir DD imagerel $LN250+2343
	DD	imagerel $LN250+2384
	DD	imagerel $chain$7$HllStartDir
$pdata$8$HllStartDir DD imagerel $LN250+2384
	DD	imagerel $LN250+2431
	DD	imagerel $chain$8$HllStartDir
$pdata$9$HllStartDir DD imagerel $LN250+2431
	DD	imagerel $LN250+2479
	DD	imagerel $chain$9$HllStartDir
$pdata$HllEndDir DD imagerel $LN95
	DD	imagerel $LN95+93
	DD	imagerel $unwind$HllEndDir
$pdata$1$HllEndDir DD imagerel $LN95+93
	DD	imagerel $LN95+1379
	DD	imagerel $chain$1$HllEndDir
$pdata$2$HllEndDir DD imagerel $LN95+1379
	DD	imagerel $LN95+1400
	DD	imagerel $chain$2$HllEndDir
$pdata$HllExitDir DD imagerel $LN97
	DD	imagerel $LN97+706
	DD	imagerel $unwind$HllExitDir
$pdata$1$HllExitDir DD imagerel $LN97+706
	DD	imagerel $LN97+810
	DD	imagerel $chain$1$HllExitDir
$pdata$3$HllExitDir DD imagerel $LN97+810
	DD	imagerel $LN97+843
	DD	imagerel $chain$3$HllExitDir
$pdata$4$HllExitDir DD imagerel $LN97+843
	DD	imagerel $LN97+921
	DD	imagerel $chain$4$HllExitDir
$pdata$5$HllExitDir DD imagerel $LN97+921
	DD	imagerel $LN97+935
	DD	imagerel $chain$5$HllExitDir
$pdata$6$HllExitDir DD imagerel $LN97+935
	DD	imagerel $LN97+1086
	DD	imagerel $chain$6$HllExitDir
pdata	ENDS
CONST	SEGMENT
	ORG $+3
flaginstr DB	07aH
	DB	063H
	DB	073H
	DB	070H
	DB	06fH
	DB	06cH
	DB	067H
	DB	061H
	DB	065H
	DB	062H
	ORG $+2
unsigned_cjmptype DB 07aH
	DB	07aH
	DB	061H
	DB	062H
	DB	062H
	DB	061H
	ORG $+2
signed_cjmptype DB 07aH
	DB	07aH
	DB	067H
	DB	06cH
	DB	06cH
	DB	067H
	ORG $+2
neg_cjmptype DB	00H
	DB	01H
	DB	00H
	DB	00H
	DB	01H
	DB	01H
CONST	ENDS
xdata	SEGMENT
$unwind$HllStartDir DD 041c01H
	DD	0221011cH
	DD	05005f007H
$chain$4$HllStartDir DD 0a5d21H
	DD	0227745dH
	DD	021ee432H
	DD	021fd427H
	DD	0220c410H
	DD	02253408H
	DD	imagerel $LN250
	DD	imagerel $LN250+28
	DD	imagerel $unwind$HllStartDir
$chain$5$HllStartDir DD 020821H
	DD	02266408H
	DD	imagerel $LN250+28
	DD	imagerel $LN250+179
	DD	imagerel $chain$4$HllStartDir
$chain$6$HllStartDir DD 021H
	DD	imagerel $LN250+28
	DD	imagerel $LN250+179
	DD	imagerel $chain$4$HllStartDir
$chain$7$HllStartDir DD 040021H
	DD	021ee400H
	DD	021fd400H
	DD	imagerel $LN250
	DD	imagerel $LN250+28
	DD	imagerel $unwind$HllStartDir
$chain$8$HllStartDir DD 020021H
	DD	021ee400H
	DD	imagerel $LN250
	DD	imagerel $LN250+28
	DD	imagerel $unwind$HllStartDir
$chain$9$HllStartDir DD 021H
	DD	imagerel $LN250
	DD	imagerel $LN250+28
	DD	imagerel $unwind$HllStartDir
$unwind$HllEndDir DD 071d01H
	DD	0a9741dH
	DD	0a2011dH
	DD	0e00cf00eH
	DD	0500aH
$chain$1$HllEndDir DD 041721H
	DD	0a86417H
	DD	0a73408H
	DD	imagerel $LN95
	DD	imagerel $LN95+93
	DD	imagerel $unwind$HllEndDir
$chain$2$HllEndDir DD 021H
	DD	imagerel $LN95
	DD	imagerel $LN95+93
	DD	imagerel $unwind$HllEndDir
$unwind$HllExitDir DD 095601H
	DD	0aad456H
	DD	0a20119H
	DD	07008f00aH
	DD	030066007H
	DD	05005H
$chain$1$HllExitDir DD 020821H
	DD	0a9c408H
	DD	imagerel $LN97
	DD	imagerel $LN97+706
	DD	imagerel $unwind$HllExitDir
$chain$3$HllExitDir DD 020021H
	DD	0a9c400H
	DD	imagerel $LN97
	DD	imagerel $LN97+706
	DD	imagerel $unwind$HllExitDir
$chain$4$HllExitDir DD 020821H
	DD	0abe408H
	DD	imagerel $LN97+810
	DD	imagerel $LN97+843
	DD	imagerel $chain$3$HllExitDir
$chain$5$HllExitDir DD 021H
	DD	imagerel $LN97+810
	DD	imagerel $LN97+843
	DD	imagerel $chain$3$HllExitDir
$chain$6$HllExitDir DD 021H
	DD	imagerel $LN97
	DD	imagerel $LN97+706
	DD	imagerel $unwind$HllExitDir
xdata	ENDS
;	COMDAT xdata
xdata	SEGMENT
$unwind$ForInitAndNext DD 0b2901H
	DD	08f3429H
	DD	0840129H
	DD	0e018f01aH
	DD	0c014d016H
	DD	060117012H
	DD	05010H
xdata	ENDS
;	COMDAT xdata
xdata	SEGMENT
$unwind$WriteAsmLine DD 020701H
	DD	0250107H
xdata	ENDS
;	COMDAT xdata
xdata	SEGMENT
$unwind$CheckCXZLines DD 060f01H
	DD	07640fH
	DD	06340fH
	DD	0700b320fH
xdata	ENDS
;	COMDAT xdata
xdata	SEGMENT
$unwind$EvaluateHllExpression DD 040a01H
	DD	0c340aH
	DD	07006920aH
xdata	ENDS
;	COMDAT xdata
xdata	SEGMENT
$chain$1$QueueTestLines DD 021H
	DD	imagerel QueueTestLines
	DD	imagerel QueueTestLines+14
	DD	imagerel $unwind$QueueTestLines
xdata	ENDS
;	COMDAT xdata
xdata	SEGMENT
$chain$0$QueueTestLines DD 020521H
	DD	067405H
	DD	imagerel QueueTestLines
	DD	imagerel QueueTestLines+14
	DD	imagerel $unwind$QueueTestLines
xdata	ENDS
;	COMDAT xdata
xdata	SEGMENT
$unwind$QueueTestLines DD 020601H
	DD	030023206H
xdata	ENDS
;	COMDAT xdata
xdata	SEGMENT
$unwind$GetAndExpression DD 0a1e01H
	DD	011341eH
	DD	0f01a721eH
	DD	0d016e018H
	DD	07012c014H
	DD	050106011H
xdata	ENDS
;	COMDAT xdata
xdata	SEGMENT
$unwind$ReplaceLabel DD 040a01H
	DD	0a340aH
	DD	07006720aH
xdata	ENDS
;	COMDAT xdata
xdata	SEGMENT
$unwind$GetSimpleExpression DD 0b9001H
	DD	02ee490H
	DD	024011bH
	DD	0d012f014H
	DD	0700ec010H
	DD	0500c600dH
	DD	0300bH
xdata	ENDS
;	COMDAT xdata
xdata	SEGMENT
$chain$3$GetToken DD 021H
	DD	imagerel GetToken
	DD	imagerel GetToken+38
	DD	imagerel $unwind$GetToken
xdata	ENDS
;	COMDAT xdata
xdata	SEGMENT
$chain$2$GetToken DD 061621H
	DD	0cc416H
	DD	0b640aH
	DD	0a3405H
	DD	imagerel GetToken
	DD	imagerel GetToken+38
	DD	imagerel $unwind$GetToken
xdata	ENDS
;	COMDAT xdata
xdata	SEGMENT
$unwind$GetToken DD 060e01H
	DD	0d540eH
	DD	0f00a520eH
	DD	07006e008H
xdata	ENDS
;	COMDAT xdata
xdata	SEGMENT
$unwind$RenderJcc DD 020601H
	DD	030023206H
xdata	ENDS
;	COMDAT xdata
xdata	SEGMENT
$unwind$GetLabelStr DD 020601H
	DD	030023206H
xdata	ENDS
;	COMDAT xdata
xdata	SEGMENT
$unwind$RenderInstr DD 081401H
	DD	086414H
	DD	075414H
	DD	063414H
	DD	070103214H
xdata	ENDS
;	COMDAT xdata
xdata	SEGMENT
$unwind$GetCOp DD 020601H
	DD	030023206H
xdata	ENDS
;	COMDAT xdata
xdata	SEGMENT
$unwind$GetExpression DD 0a1e01H
	DD	012341eH
	DD	0f01a921eH
	DD	0d016e018H
	DD	07012c014H
	DD	050106011H
xdata	ENDS
;	COMDAT xdata
xdata	SEGMENT
$unwind$sprintf DD 041601H
	DD	070125216H
	DD	030106011H
xdata	ENDS
;	COMDAT xdata
xdata	SEGMENT
$unwind$_vsprintf_l DD 081401H
	DD	0a6414H
	DD	095414H
	DD	083414H
	DD	070105214H
xdata	ENDS
;	COMDAT xdata
xdata	SEGMENT
$unwind$_vsnprintf_l DD 081401H
	DD	0a6414H
	DD	095414H
	DD	083414H
	DD	070105214H
xdata	ENDS
; Function compile flags: /Ogtpy
; File d:\hjwasm\hjwasm2.13.1s\hjwasm2.13.1s\hll.c
_TEXT	SEGMENT
buff$ = 64
hllop$1 = 80
hllop$2 = 80
buffer$ = 96
i$ = 1344
tokenarray$ = 1352
HllExitDir PROC

; 1590 : {

$LN97:
	mov	DWORD PTR [rsp+8], ecx
	push	rbp
	push	rbx
	push	rsi
	push	rdi
	push	r15
	lea	rbp, QWORD PTR [rsp-1040]
	sub	rsp, 1296				; 00000510H

; 1591 :   //int               level;
; 1592 :   //struct asym       *sym;
; 1593 :   struct hll_item     *hll;
; 1594 :   ret_code            rc = NOT_ERROR;
; 1595 :   int                 idx;
; 1596 :   int                 cmd = tokenarray[i].tokval;
; 1597 :   char buff[16];
; 1598 :   char buffer[MAX_LINE_LEN * 2];
; 1599 : 
; 1600 :   DebugMsg1(("HllExitDir(%s) enter\n", tokenarray[i].string_ptr));
; 1601 : 
; 1602 :   hll = HllStack;

	mov	rbx, QWORD PTR ModuleInfo+224
	mov	r15, rdx
	movsxd	rdx, ecx
	xor	esi, esi
	shl	rdx, 5
	mov	edi, DWORD PTR [rdx+r15+16]

; 1603 : 
; 1604 :   if (hll == NULL) {

	test	rbx, rbx
	jne	SHORT $LN7@HllExitDir

; 1605 :     DebugMsg(("HllExitDir stack error\n"));
; 1606 :     return(EmitError(DIRECTIVE_MUST_BE_IN_CONTROL_BLOCK));

	mov	ecx, 245				; 000000f5H
	call	EmitError

; 1708 : }

	add	rsp, 1296				; 00000510H
	pop	r15
	pop	rdi
	pop	rsi
	pop	rbx
	pop	rbp
	ret	0
$LN7@HllExitDir:
	mov	QWORD PTR [rsp+1360], r13

; 1607 :   }
; 1608 : 
; 1609 :   switch (cmd) {

	mov	r13d, 4
	cmp	edi, 331				; 0000014bH
	jl	$LN26@HllExitDir
	cmp	edi, 332				; 0000014cH
	jle	$LL91@HllExitDir
	cmp	edi, 334				; 0000014eH
	jg	$LN26@HllExitDir

; 1610 :   case T_DOT_ELSE:
; 1611 :   case T_DOT_ELSEIF:
; 1612 :     if (hll->cmd != HLL_IF) {

	cmp	DWORD PTR [rbx+52], esi
	je	SHORT $LN9@HllExitDir

; 1613 :       DebugMsg(("HllExitDir(%s): labels[LTEST]=%X\n", tokenarray[i].string_ptr, hll->labels[LTEST]));
; 1614 :       return(EmitErr(BLOCK_NESTING_ERROR, tokenarray[i].string_ptr));

	mov	rdx, QWORD PTR [rdx+r15+8]
	lea	ecx, QWORD PTR [r13+76]
	call	EmitErr
	jmp	$LN95@HllExitDir
$LN9@HllExitDir:

; 1615 :     }
; 1616 :     /* v2.08: check for multiple ELSE clauses */
; 1617 :     if (hll->flags & HLLF_ELSEOCCURED) {

	test	BYTE PTR [rbx+60], 1
	je	SHORT $LN10@HllExitDir

; 1618 :       return(EmitError(DOT_ELSE_CLAUSE_ALREADY_OCCURED_IN_THIS_DOT_IF_BLOCK));

	mov	ecx, 67					; 00000043H
	call	EmitError
	jmp	$LN95@HllExitDir
$LN10@HllExitDir:

; 1619 :     }
; 1620 : 
; 1621 :     /* the 'exit'-label is only needed if an .ELSE branch exists.
; 1622 :     * That's why it is created delayed.
; 1623 :     */
; 1624 :     if (hll->labels[LEXIT] == 0)

	cmp	DWORD PTR [rbx+12], esi
	jne	SHORT $LN11@HllExitDir

; 1625 :       hll->labels[LEXIT] = GetHllLabel();

	mov	eax, DWORD PTR ModuleInfo+352
	inc	eax
	mov	DWORD PTR ModuleInfo+352, eax
	mov	DWORD PTR [rbx+12], eax
$LN11@HllExitDir:

; 1626 :     AddLineQueueX(JMPPREFIX "jmp %s", GetLabelStr(hll->labels[LEXIT], buff));

	mov	r8d, DWORD PTR [rbx+12]
	lea	rdx, OFFSET FLAT:$SG11014
	lea	rcx, QWORD PTR buff$[rsp]
	call	sprintf
	lea	rdx, QWORD PTR buff$[rsp]
	lea	rcx, OFFSET FLAT:$SG11696
	call	AddLineQueueX

; 1627 : 
; 1628 :     if (hll->labels[LTEST] > 0) {

	mov	r8d, DWORD PTR [rbx+8]
	test	r8d, r8d
	je	SHORT $LN12@HllExitDir

; 1629 :       AddLineQueueX("%s" LABELQUAL, GetLabelStr(hll->labels[LTEST], buff));

	lea	rdx, OFFSET FLAT:$SG11014
	lea	rcx, QWORD PTR buff$[rsp]
	call	sprintf
	lea	rdx, QWORD PTR buff$[rsp]
	lea	rcx, OFFSET FLAT:$SG11698
	call	AddLineQueueX

; 1630 :       hll->labels[LTEST] = 0;

	mov	DWORD PTR [rbx+8], esi
$LN12@HllExitDir:

; 1631 :     }
; 1632 :     i++;

	inc	DWORD PTR i$[rbp-256]

; 1633 :     if (cmd == T_DOT_ELSEIF) {

	cmp	edi, 334				; 0000014eH
	jne	$LN13@HllExitDir

; 1634 :       /* create new labels[LTEST] label */
; 1635 :       hll->labels[LTEST] = GetHllLabel();

	mov	eax, DWORD PTR ModuleInfo+352

; 1636 :       rc = EvaluateHllExpression(hll, &i, tokenarray, LTEST, FALSE, buffer);

	lea	rdx, QWORD PTR i$[rbp-256]
	inc	eax
	mov	QWORD PTR hllop$2[rsp], rsi
	mov	DWORD PTR ModuleInfo+352, eax
	xor	r9d, r9d
	mov	DWORD PTR [rbx+8], eax
	mov	r8, r15
	lea	rax, QWORD PTR hllop$2[rsp]
	mov	DWORD PTR hllop$2[rsp+8], esi
	mov	QWORD PTR [rsp+48], rax
	mov	rcx, rbx
	lea	rax, QWORD PTR buffer$[rsp]
	mov	BYTE PTR buffer$[rsp], sil
	mov	QWORD PTR [rsp+40], rax
	mov	BYTE PTR [rsp+32], sil
	call	GetExpression
	cmp	eax, -1
	jne	SHORT $LN42@HllExitDir
	or	esi, eax
	jmp	$LN26@HllExitDir
$LN42@HllExitDir:
	movsxd	rax, DWORD PTR i$[rbp-256]
	shl	rax, 5
	cmp	BYTE PTR [rax+r15], sil
	je	SHORT $LN43@HllExitDir
	mov	ecx, 199				; 000000c7H
	call	EmitError
	mov	esi, eax

; 1637 :       if (rc == NOT_ERROR)

	test	eax, eax
	jne	$LN26@HllExitDir

; 1636 :       rc = EvaluateHllExpression(hll, &i, tokenarray, LTEST, FALSE, buffer);

$LN43@HllExitDir:

; 1638 :         QueueTestLines(buffer);

	lea	rbx, QWORD PTR buffer$[rsp]
	npad	4
$LL46@HllExitDir:
	mov	edx, 10
	mov	rcx, rbx
	mov	rdi, rbx
	call	strchr
	mov	rbx, rax
	test	rax, rax
	je	SHORT $LN48@HllExitDir
	mov	BYTE PTR [rax], 0
	inc	rbx
$LN48@HllExitDir:
	cmp	BYTE PTR [rdi], 0
	je	SHORT $LN49@HllExitDir
	mov	rcx, rdi
	call	AddLineQueue
$LN49@HllExitDir:
	test	rbx, rbx
	jne	SHORT $LL46@HllExitDir

; 1639 :     }

	jmp	$LN26@HllExitDir
$LN13@HllExitDir:

; 1640 :     else
; 1641 :       hll->flags |= HLLF_ELSEOCCURED;

	or	DWORD PTR [rbx+60], 1

; 1642 : 
; 1643 :     break;

	jmp	$LN26@HllExitDir
	npad	2
$LL91@HllExitDir:

; 1644 :   case T_DOT_BREAK:
; 1645 :   case T_DOT_CONTINUE:
; 1646 :     for (; hll && hll->cmd == HLL_IF; hll = hll->next);

	cmp	DWORD PTR [rbx+52], esi
	jne	SHORT $LN17@HllExitDir
	mov	rbx, QWORD PTR [rbx]
	test	rbx, rbx
	jne	SHORT $LL91@HllExitDir

; 1647 :     if (hll == NULL) {
; 1648 :       return(EmitError(DIRECTIVE_MUST_BE_IN_CONTROL_BLOCK));

	mov	ecx, 245				; 000000f5H
	call	EmitError
	jmp	$LN95@HllExitDir
$LN17@HllExitDir:

; 1649 :     }
; 1650 :     /* v2.11: create 'exit' and 'test' labels delayed.
; 1651 :     */
; 1652 :     if (cmd == T_DOT_BREAK) {

	cmp	edi, 331				; 0000014bH
	jne	SHORT $LN18@HllExitDir

; 1653 :       if (hll->labels[LEXIT] == 0)

	cmp	DWORD PTR [rbx+12], esi
	jne	SHORT $LN20@HllExitDir

; 1654 :         hll->labels[LEXIT] = GetHllLabel();

	mov	eax, DWORD PTR ModuleInfo+352
	inc	eax
	mov	DWORD PTR ModuleInfo+352, eax
	mov	DWORD PTR [rbx+12], eax
$LN20@HllExitDir:

; 1655 :       idx = LEXIT;

	mov	ecx, 1

; 1656 :     }

	jmp	SHORT $LN22@HllExitDir
$LN18@HllExitDir:

; 1657 :     else if (hll->cmd == HLL_FOR) {

	mov	eax, DWORD PTR [rbx+52]
	cmp	eax, r13d
	jne	SHORT $LN21@HllExitDir

; 1658 :       /* added by habran 
; 1659 :          .CONTINUE label is created here for .FOR loops only if it exists.
; 1660 :          It is different than .WHILE because it has to first alter counters
; 1661 :       */
; 1662 :         if (hll->labels[LCONT] == 0) hll->labels[LCONT] = GetHllLabel();

	cmp	DWORD PTR [rbx+24], esi
	jne	SHORT $LN23@HllExitDir
	mov	eax, DWORD PTR ModuleInfo+352
	inc	eax
	mov	DWORD PTR ModuleInfo+352, eax
	mov	DWORD PTR [rbx+24], eax
$LN23@HllExitDir:

; 1663 :         idx = (hll->labels[LCONT] ? LCONT : LSTART);

	cmp	DWORD PTR [rbx+24], esi
	mov	ecx, 2
	cmovne	ecx, r13d

; 1664 :       }else {

	jmp	SHORT $LN22@HllExitDir
$LN21@HllExitDir:

; 1665 :             /* 'test' is not created for .WHILE loops here; because
; 1666 :              * if it doesn't exist, there's no condition to test.
; 1667 :              */
; 1668 :             if ( hll->cmd == HLL_REPEAT && hll->labels[LTEST] == 0 )

	cmp	eax, 2
	jne	SHORT $LN24@HllExitDir
	cmp	DWORD PTR [rbx+8], esi
	jne	SHORT $LN24@HllExitDir

; 1669 :                 hll->labels[LTEST] = GetHllLabel();

	mov	eax, DWORD PTR ModuleInfo+352
	inc	eax
	mov	DWORD PTR ModuleInfo+352, eax
	mov	DWORD PTR [rbx+8], eax
$LN24@HllExitDir:

; 1670 :             idx = ( hll->labels[LTEST] ? LTEST : LSTART );

	cmp	DWORD PTR [rbx+8], esi
	mov	ecx, 2
	cmovne	ecx, esi
$LN22@HllExitDir:

; 1671 :         }
; 1672 : 
; 1673 :     /* .BREAK .IF ... or .CONTINUE .IF ? */
; 1674 :     i++;

	mov	eax, DWORD PTR i$[rbp-256]
	inc	eax
	mov	DWORD PTR i$[rbp-256], eax

; 1675 :     if (tokenarray[i].token != T_FINAL) {

	cdqe
	shl	rax, 5
	lea	rdx, QWORD PTR [rax+r15]
	movzx	eax, BYTE PTR [rax+r15]
	test	al, al
	je	$LN25@HllExitDir

; 1676 :       if (tokenarray[i].token == T_DIRECTIVE && tokenarray[i].tokval == T_DOT_IF) {

	cmp	al, 3
	jne	$LN26@HllExitDir
	cmp	DWORD PTR [rdx+16], 327			; 00000147H
	jne	$LN26@HllExitDir

; 1677 :         enum hll_cmd savedcmd = hll->cmd;
; 1678 :         hll->cmd = HLL_BREAK;
; 1679 :         i++;
; 1680 :         /* v2.11: set rc and don't exit if an error occurs; see hll3.aso */
; 1681 :         rc = EvaluateHllExpression(hll, &i, tokenarray, idx, TRUE, buffer);

	lea	rax, QWORD PTR hllop$1[rsp]
	mov	QWORD PTR [rsp+1352], r12
	mov	r12d, DWORD PTR [rbx+52]
	lea	rdx, QWORD PTR i$[rbp-256]
	mov	QWORD PTR [rsp+48], rax
	mov	r9d, ecx
	mov	DWORD PTR [rbx+52], 3
	lea	rax, QWORD PTR buffer$[rsp]
	inc	DWORD PTR i$[rbp-256]
	mov	r8, r15
	mov	QWORD PTR [rsp+40], rax
	mov	rcx, rbx
	mov	BYTE PTR [rsp+32], 1
	mov	QWORD PTR hllop$1[rsp], rsi
	mov	DWORD PTR hllop$1[rsp+8], esi
	mov	BYTE PTR buffer$[rsp], sil
	call	GetExpression
	cmp	eax, -1
	jne	SHORT $LN58@HllExitDir

; 1684 :         hll->cmd = savedcmd;

	mov	DWORD PTR [rbx+52], r12d
	or	esi, eax
	mov	r12, QWORD PTR [rsp+1352]

; 1685 :       }
; 1686 :     }

	jmp	$LN26@HllExitDir

; 1677 :         enum hll_cmd savedcmd = hll->cmd;
; 1678 :         hll->cmd = HLL_BREAK;
; 1679 :         i++;
; 1680 :         /* v2.11: set rc and don't exit if an error occurs; see hll3.aso */
; 1681 :         rc = EvaluateHllExpression(hll, &i, tokenarray, idx, TRUE, buffer);

$LN58@HllExitDir:
	movsxd	rax, DWORD PTR i$[rbp-256]
	shl	rax, 5
	cmp	BYTE PTR [rax+r15], sil
	je	SHORT $LN59@HllExitDir
	mov	ecx, 199				; 000000c7H
	call	EmitError
	mov	esi, eax

; 1682 :         if (rc == NOT_ERROR)

	test	eax, eax
	jne	SHORT $LN63@HllExitDir

; 1677 :         enum hll_cmd savedcmd = hll->cmd;
; 1678 :         hll->cmd = HLL_BREAK;
; 1679 :         i++;
; 1680 :         /* v2.11: set rc and don't exit if an error occurs; see hll3.aso */
; 1681 :         rc = EvaluateHllExpression(hll, &i, tokenarray, idx, TRUE, buffer);

$LN59@HllExitDir:

; 1683 :           QueueTestLines(buffer);

	mov	QWORD PTR [rsp+1368], r14
	lea	rdi, QWORD PTR buffer$[rsp]
	npad	8
$LL62@HllExitDir:
	mov	edx, 10
	mov	rcx, rdi
	mov	r14, rdi
	call	strchr
	mov	rdi, rax
	test	rax, rax
	je	SHORT $LN64@HllExitDir
	mov	BYTE PTR [rax], 0
	inc	rdi
$LN64@HllExitDir:
	cmp	BYTE PTR [r14], 0
	je	SHORT $LN65@HllExitDir
	mov	rcx, r14
	call	AddLineQueue
$LN65@HllExitDir:
	test	rdi, rdi
	jne	SHORT $LL62@HllExitDir
	mov	r14, QWORD PTR [rsp+1368]
$LN63@HllExitDir:

; 1684 :         hll->cmd = savedcmd;

	mov	DWORD PTR [rbx+52], r12d
	mov	r12, QWORD PTR [rsp+1352]

; 1685 :       }
; 1686 :     }

	jmp	SHORT $LN26@HllExitDir
$LN25@HllExitDir:

; 1687 :     else {
; 1688 :       AddLineQueueX(JMPPREFIX "jmp %s", GetLabelStr(hll->labels[idx], buff));

	movsxd	rax, ecx
	lea	rdx, OFFSET FLAT:$SG11014
	lea	rcx, QWORD PTR buff$[rsp]
	mov	r8d, DWORD PTR [rbx+rax*4+8]
	call	sprintf
	lea	rdx, QWORD PTR buff$[rsp]
	lea	rcx, OFFSET FLAT:$SG11715
	call	AddLineQueueX
$LN26@HllExitDir:

; 1689 :     }
; 1690 :     break;
; 1691 : #ifdef DEBUG_OUT
; 1692 :   default: /**/myassert(0); break;
; 1693 : #endif
; 1694 :   }
; 1695 :   if (tokenarray[i].token != T_FINAL && rc == NOT_ERROR) {

	movsxd	rax, DWORD PTR i$[rbp-256]
	shl	rax, 5
	cmp	BYTE PTR [rax+r15], 0
	je	SHORT $LN29@HllExitDir
	test	esi, esi
	jne	SHORT $LN29@HllExitDir

; 1696 :     EmitErr(SYNTAX_ERROR_EX, tokenarray[i].tokpos);

	mov	rdx, QWORD PTR [rax+r15+24]
	mov	ecx, 209				; 000000d1H
	call	EmitErr

; 1697 :     rc = ERROR;

	or	esi, -1
$LN29@HllExitDir:

; 1698 :   }
; 1699 : 
; 1700 :   if (ModuleInfo.list)

	test	DWORD PTR ModuleInfo+408, 2048		; 00000800H
	je	SHORT $LN30@HllExitDir

; 1701 :     LstWrite(LSTTYPE_DIRECTIVE, GetCurrOffset(), NULL);

	call	GetCurrOffset
	mov	edx, eax
	xor	r8d, r8d
	mov	ecx, r13d
	call	LstWrite
$LN30@HllExitDir:

; 1702 : 
; 1703 :   /* v2.11: always run line-queue if it's not empty. */
; 1704 :   if (is_linequeue_populated())

	cmp	QWORD PTR ModuleInfo+184, 0
	je	SHORT $LN31@HllExitDir

; 1705 :     RunLineQueue();

	call	RunLineQueue
$LN31@HllExitDir:

; 1706 : 
; 1707 :   return(rc);

	mov	eax, esi
$LN95@HllExitDir:
	mov	r13, QWORD PTR [rsp+1360]

; 1708 : }

	add	rsp, 1296				; 00000510H
	pop	r15
	pop	rdi
	pop	rsi
	pop	rbx
	pop	rbp
	ret	0
HllExitDir ENDP
_TEXT	ENDS
; Function compile flags: /Ogtpy
; File d:\hjwasm\hjwasm2.13.1s\hjwasm2.13.1s\hll.c
_TEXT	SEGMENT
buff$ = 64
hllop$1 = 80
hllop$2 = 80
buffer$ = 96
i$ = 1328
tokenarray$ = 1336
HllEndDir PROC

; 1428 : {

$LN95:
	mov	QWORD PTR [rsp+32], rdi
	mov	DWORD PTR [rsp+8], ecx
	push	rbp
	push	r14
	push	r15
	lea	rbp, QWORD PTR [rsp-1040]
	sub	rsp, 1296				; 00000510H

; 1429 :   //struct asym       *sym;
; 1430 :   struct hll_item     *hll;
; 1431 :   ret_code            rc = NOT_ERROR;
; 1432 :   int                 cmd = tokenarray[i].tokval;
; 1433 :   char buff[16];
; 1434 :   //char buffer[MAX_LINE_LEN*2];
; 1435 : 
; 1436 : 
; 1437 :   char buffer[MAX_LINE_LEN * 2];
; 1438 : 
; 1439 :   DebugMsg1(("HllEndDir(%s) enter\n", tokenarray[i].string_ptr));
; 1440 : 
; 1441 :   if (HllStack == NULL) {

	mov	rdi, QWORD PTR ModuleInfo+224
	xor	r14d, r14d
	movsxd	rax, ecx
	mov	r15, rdx
	shl	rax, 5
	mov	ecx, DWORD PTR [rax+rdx+16]
	test	rdi, rdi
	jne	SHORT $LN4@HllEndDir

; 1442 :     DebugMsg(("HllEndDir: hll stack is empty\n"));
; 1443 :     return(EmitError(DIRECTIVE_MUST_BE_IN_CONTROL_BLOCK));

	mov	ecx, 245				; 000000f5H
	call	EmitError
	jmp	$LN1@HllEndDir
$LN4@HllEndDir:

; 1444 :   }
; 1445 : 
; 1446 :   hll = HllStack;
; 1447 :   HllStack = hll->next;

	mov	rax, QWORD PTR [rdi]
	mov	QWORD PTR ModuleInfo+224, rax

; 1448 :   /* v2.06: move the item to the free stack */
; 1449 :   hll->next = HllFree;

	mov	rax, QWORD PTR ModuleInfo+232
	mov	QWORD PTR [rdi], rax
	mov	QWORD PTR [rsp+1336], rbx

; 1450 :   HllFree = hll;

	mov	QWORD PTR ModuleInfo+232, rdi
	mov	QWORD PTR [rsp+1344], rsi

; 1451 : 
; 1452 :   switch (cmd) {

	sub	ecx, 335				; 0000014fH
	je	$LN5@HllEndDir
	sub	ecx, 1
	je	$LN18@HllEndDir
	sub	ecx, 1
	je	$LN29@HllEndDir
	sub	ecx, 1
	je	$LN21@HllEndDir
	cmp	ecx, 1
	jne	$LN7@HllEndDir

; 1462 :     }
; 1463 :     break;
; 1464 :     // added by habran
; 1465 :   case T_DOT_ENDFOR:
; 1466 :     if (hll->cmd != HLL_FOR) {

	cmp	DWORD PTR [rdi+52], 4
	je	SHORT $LN9@HllEndDir

; 1467 :       DebugMsg(("HllEndDir: no .FOR on the hll stack\n"));
; 1468 :       EmitErr(BLOCK_NESTING_ERROR, tokenarray[i].string_ptr);

	movsxd	rdx, DWORD PTR i$[rbp-256]
	mov	ecx, 80					; 00000050H
	shl	rdx, 5
	mov	rdx, QWORD PTR [rdx+r15+8]
	call	EmitErr

; 1469 :       return(ERROR);

	or	eax, -1
	jmp	$LN91@HllEndDir
$LN9@HllEndDir:

; 1470 :     }
; 1471 :     i++;

	inc	DWORD PTR i$[rbp-256]

; 1472 :     //Insert .CONTINUE label here if there is any 
; 1473 :     if (hll->labels[LCONT])

	mov	r8d, DWORD PTR [rdi+24]
	test	r8d, r8d
	je	SHORT $LN10@HllEndDir

; 1474 :       AddLineQueueX("%s" LABELQUAL, GetLabelStr(hll->labels[LCONT], buff));

	lea	rdx, OFFSET FLAT:$SG11014
	lea	rcx, QWORD PTR buff$[rsp]
	call	sprintf
	lea	rdx, QWORD PTR buff$[rsp]
	lea	rcx, OFFSET FLAT:$SG11633
	call	AddLineQueueX
$LN10@HllEndDir:

; 1475 :     //forever loop '.for (::)'
; 1476 :     if (hll->cmcnt == 0) goto adlabel;

	mov	edx, DWORD PTR [rdi+48]
	test	edx, edx
	je	$adlabel$96

; 1477 :     //If counters exist  
; 1478 :     else if (hll->counterlines[0]){

	mov	r8, QWORD PTR [rdi+40]
	cmp	BYTE PTR [r8], r14b
	je	SHORT $LN13@HllEndDir

; 1479 :       //here we write counters
; 1480 :       if (hll->counterlines) {      //if there is something after second ':' expand it here

	test	r8, r8
	je	SHORT $LN15@HllEndDir

; 1481 :         ForInitAndNext(tokenarray, hll->cmcnt, hll->counterlines);

	mov	rcx, r15
	call	ForInitAndNext
$LN15@HllEndDir:

; 1482 :         LclFree(hll->counterlines);
; 1483 :       } 
; 1484 :       //first jump from the top happens here after the counters
; 1485 :       AddLineQueueX("%s" LABELQUAL, GetLabelStr(hll->labels[LSKIP], buff));

	mov	r8d, DWORD PTR [rdi+20]
	lea	rdx, OFFSET FLAT:$SG11014
	lea	rcx, QWORD PTR buff$[rsp]
	call	sprintf
	lea	rdx, QWORD PTR buff$[rsp]
	lea	rcx, OFFSET FLAT:$SG11639
	call	AddLineQueueX

; 1486 :       /* create test label */
; 1487 :       if (hll->labels[LTEST]) {

	mov	r8d, DWORD PTR [rdi+8]
	test	r8d, r8d
	je	SHORT $LN16@HllEndDir

; 1488 :         AddLineQueueX("%s" LABELQUAL, GetLabelStr(hll->labels[LTEST], buff));

	lea	rdx, OFFSET FLAT:$SG11014
	lea	rcx, QWORD PTR buff$[rsp]
	call	sprintf
	lea	rdx, QWORD PTR buff$[rsp]
	lea	rcx, OFFSET FLAT:$SG11641
	call	AddLineQueueX
$LN16@HllEndDir:

; 1489 :       }
; 1490 :       QueueTestLines(hll->condlines);

	mov	rcx, QWORD PTR [rdi+32]
	call	QueueTestLines

; 1491 :       LclFree(hll->condlines);
; 1492 :     }

	jmp	SHORT $LN14@HllEndDir
$LN13@HllEndDir:

; 1493 :     else
; 1494 :       AddLineQueueX(" jmp %s", GetLabelStr(hll->labels[LSTART], buff));

	mov	r8d, DWORD PTR [rdi+16]
	lea	rdx, OFFSET FLAT:$SG11014
	lea	rcx, QWORD PTR buff$[rsp]
	call	sprintf
	lea	rdx, QWORD PTR buff$[rsp]
	lea	rcx, OFFSET FLAT:$SG11642
	call	AddLineQueueX
$LN14@HllEndDir:

; 1495 :     if (!hll->cond)

	cmp	BYTE PTR [rdi+56], r14b
	jne	SHORT $LN17@HllEndDir
$adlabel$96:

; 1496 :  adlabel:
; 1497 :       AddLineQueueX(" jmp %s", GetLabelStr(hll->labels[LSTART], buff));

	mov	r8d, DWORD PTR [rdi+16]
	lea	rdx, OFFSET FLAT:$SG11014
	lea	rcx, QWORD PTR buff$[rsp]
	call	sprintf
	lea	rdx, QWORD PTR buff$[rsp]
	lea	rcx, OFFSET FLAT:$SG11644
	call	AddLineQueueX
$LN17@HllEndDir:

; 1498 :     tokenarray[i].token = T_FINAL;

	movsxd	rax, DWORD PTR i$[rbp-256]
	shl	rax, 5
	mov	BYTE PTR [rax+r15], r14b

; 1499 :     break;

	jmp	$LN7@HllEndDir
$LN21@HllEndDir:

; 1514 :   case T_DOT_UNTILCXZ:
; 1515 :     if (hll->cmd != HLL_REPEAT) {

	cmp	DWORD PTR [rdi+52], 2
	jne	$LN93@HllEndDir

; 1516 :       DebugMsg(("HllEndDir: no .REPEAT on the hll stack\n"));
; 1517 :       return(EmitErr(BLOCK_NESTING_ERROR, tokenarray[i].string_ptr));
; 1518 :     }
; 1519 :     i++;

	mov	eax, DWORD PTR i$[rbp-256]
	inc	eax
	mov	DWORD PTR i$[rbp-256], eax

; 1520 :     if (hll->labels[LTEST]) /* v2.11: LTEST only needed if .CONTINUE has occured */

	mov	r8d, DWORD PTR [rdi+8]
	test	r8d, r8d
	je	SHORT $LN23@HllEndDir

; 1521 :       AddLineQueueX("%s" LABELQUAL, GetLabelStr(hll->labels[LTEST], buff));

	lea	rdx, OFFSET FLAT:$SG11014
	lea	rcx, QWORD PTR buff$[rsp]
	call	sprintf
	lea	rdx, QWORD PTR buff$[rsp]
	lea	rcx, OFFSET FLAT:$SG11652
	call	AddLineQueueX
	mov	eax, DWORD PTR i$[rbp-256]
$LN23@HllEndDir:

; 1522 : 
; 1523 :     /* read in optional (simple) expression */
; 1524 :     if (tokenarray[i].token != T_FINAL) {

	cdqe
	shl	rax, 5
	cmp	BYTE PTR [rax+r15], r14b
	je	$LN24@HllEndDir

; 1525 :       rc = EvaluateHllExpression(hll, &i, tokenarray, LSTART, FALSE, buffer);

	lea	rax, QWORD PTR hllop$2[rsp]
	mov	QWORD PTR hllop$2[rsp], r14
	mov	QWORD PTR [rsp+48], rax
	lea	rdx, QWORD PTR i$[rbp-256]
	lea	rax, QWORD PTR buffer$[rsp]
	mov	DWORD PTR hllop$2[rsp+8], r14d
	mov	QWORD PTR [rsp+40], rax
	mov	r9d, 2
	mov	r8, r15
	mov	BYTE PTR [rsp+32], r14b
	mov	rcx, rdi
	mov	BYTE PTR buffer$[rsp], r14b
	call	GetExpression
	cmp	eax, -1
	jne	SHORT $LN56@HllEndDir
	or	r14d, eax
	jmp	$LN7@HllEndDir
$LN56@HllEndDir:
	movsxd	rax, DWORD PTR i$[rbp-256]
	shl	rax, 5
	cmp	BYTE PTR [rax+r15], r14b
	je	SHORT $LN87@HllEndDir
	mov	ecx, 199				; 000000c7H
	call	EmitError
	mov	r14d, eax

; 1526 :       if (rc == NOT_ERROR) {

	test	eax, eax
	jne	$LN7@HllEndDir
$LN87@HllEndDir:

; 1527 :         rc = CheckCXZLines(buffer);

	lea	rcx, QWORD PTR buffer$[rsp]
	call	CheckCXZLines
	mov	r14d, eax

; 1528 :         if (rc == NOT_ERROR)

	test	eax, eax
	jne	SHORT $LN27@HllEndDir

; 1529 :           QueueTestLines(buffer); /* write condition lines */

	lea	rbx, QWORD PTR buffer$[rsp]
	npad	14
$LL60@HllEndDir:
	mov	edx, 10
	mov	rcx, rbx
	mov	rsi, rbx
	call	strchr
	mov	rbx, rax
	test	rax, rax
	je	SHORT $LN62@HllEndDir
	mov	BYTE PTR [rax], 0
	inc	rbx
$LN62@HllEndDir:
	cmp	BYTE PTR [rsi], 0
	je	SHORT $LN63@HllEndDir
	mov	rcx, rsi
	call	AddLineQueue
$LN63@HllEndDir:
	test	rbx, rbx
	jne	SHORT $LL60@HllEndDir
	jmp	$LN7@HllEndDir
$LN27@HllEndDir:

; 1530 :         else
; 1531 :           EmitError(EXPR_TOO_COMPLEX_FOR_UNTILCXZ);

	mov	ecx, 191				; 000000bfH
	call	EmitError

; 1532 :       }
; 1533 :     }

	jmp	$LN7@HllEndDir
$LN24@HllEndDir:

; 1534 :     else {
; 1535 :       AddLineQueueX(JMPPREFIX "loop %s", GetLabelStr(hll->labels[LSTART], buff));

	mov	r8d, DWORD PTR [rdi+16]
	lea	rdx, OFFSET FLAT:$SG11014
	lea	rcx, QWORD PTR buff$[rsp]
	call	sprintf
	lea	rcx, OFFSET FLAT:$SG11658

; 1536 :     }
; 1537 :     break;

	jmp	$LN92@HllEndDir
$LN29@HllEndDir:

; 1538 :   case T_DOT_UNTIL:
; 1539 :     if (hll->cmd != HLL_REPEAT) {

	cmp	DWORD PTR [rdi+52], 2
	jne	$LN93@HllEndDir

; 1540 :       DebugMsg(("HllEndDir: no .REPEAT on the hll stack\n"));
; 1541 :       return(EmitErr(BLOCK_NESTING_ERROR, tokenarray[i].string_ptr));
; 1542 :     }
; 1543 :     i++;

	inc	DWORD PTR i$[rbp-256]

; 1544 :     if (hll->labels[LTEST]) /* v2.11: LTEST only needed if .CONTINUE has occured */

	mov	r8d, DWORD PTR [rdi+8]
	test	r8d, r8d
	je	SHORT $LN31@HllEndDir

; 1545 :       AddLineQueueX("%s" LABELQUAL, GetLabelStr(hll->labels[LTEST], buff));

	lea	rdx, OFFSET FLAT:$SG11014
	lea	rcx, QWORD PTR buff$[rsp]
	call	sprintf
	lea	rdx, QWORD PTR buff$[rsp]
	lea	rcx, OFFSET FLAT:$SG11662
	call	AddLineQueueX
$LN31@HllEndDir:

; 1546 : 
; 1547 :     /* read in (optional) expression */
; 1548 :     /* if expression is missing, just generate nothing */
; 1549 :     if (tokenarray[i].token != T_FINAL) {

	movsxd	rax, DWORD PTR i$[rbp-256]
	shl	rax, 5
	cmp	BYTE PTR [rax+r15], r14b
	je	$LN7@HllEndDir

; 1550 :       rc = EvaluateHllExpression(hll, &i, tokenarray, LSTART, FALSE, buffer);

	lea	rax, QWORD PTR hllop$1[rsp]
	mov	QWORD PTR hllop$1[rsp], r14
	mov	QWORD PTR [rsp+48], rax
	lea	rdx, QWORD PTR i$[rbp-256]
	lea	rax, QWORD PTR buffer$[rsp]
	mov	DWORD PTR hllop$1[rsp+8], r14d
	mov	QWORD PTR [rsp+40], rax
	mov	r9d, 2
	mov	r8, r15
	mov	BYTE PTR [rsp+32], r14b
	mov	rcx, rdi
	mov	BYTE PTR buffer$[rsp], r14b
	call	GetExpression
	cmp	eax, -1
	jne	SHORT $LN70@HllEndDir
	or	r14d, eax
	jmp	$LN7@HllEndDir
$LN70@HllEndDir:
	movsxd	rax, DWORD PTR i$[rbp-256]
	shl	rax, 5
	cmp	BYTE PTR [rax+r15], r14b
	je	SHORT $LN71@HllEndDir
	mov	ecx, 199				; 000000c7H
	call	EmitError
	mov	r14d, eax

; 1551 :       if (rc == NOT_ERROR)

	test	eax, eax
	jne	$LN7@HllEndDir

; 1550 :       rc = EvaluateHllExpression(hll, &i, tokenarray, LSTART, FALSE, buffer);

$LN71@HllEndDir:

; 1552 :         QueueTestLines(buffer); /* write condition lines */

	lea	rbx, QWORD PTR buffer$[rsp]
	npad	3
$LL74@HllEndDir:
	mov	edx, 10
	mov	rcx, rbx
	mov	rsi, rbx
	call	strchr
	mov	rbx, rax
	test	rax, rax
	je	SHORT $LN76@HllEndDir
	mov	BYTE PTR [rax], 0
	inc	rbx
$LN76@HllEndDir:
	cmp	BYTE PTR [rsi], 0
	je	SHORT $LN77@HllEndDir
	mov	rcx, rsi
	call	AddLineQueue
$LN77@HllEndDir:
	test	rbx, rbx
	jne	SHORT $LL74@HllEndDir
	jmp	$LN7@HllEndDir
$LN18@HllEndDir:

; 1500 :     //end of .ENDFOR
; 1501 :   case T_DOT_ENDW:
; 1502 :     if (hll->cmd != HLL_WHILE) {

	cmp	DWORD PTR [rdi+52], 1
	jne	SHORT $LN93@HllEndDir

; 1503 :       DebugMsg(("HllEndDir: no .WHILE on the hll stack\n"));
; 1504 :       return(EmitErr(BLOCK_NESTING_ERROR, tokenarray[i].string_ptr));
; 1505 :     }
; 1506 :     i++;

	inc	DWORD PTR i$[rbp-256]

; 1507 :     /* create test label */
; 1508 :     if (hll->labels[LTEST]) {

	mov	r8d, DWORD PTR [rdi+8]
	test	r8d, r8d
	je	SHORT $LN20@HllEndDir

; 1509 :       AddLineQueueX("%s" LABELQUAL, GetLabelStr(hll->labels[LTEST], buff));

	lea	rdx, OFFSET FLAT:$SG11014
	lea	rcx, QWORD PTR buff$[rsp]
	call	sprintf
	lea	rdx, QWORD PTR buff$[rsp]
	lea	rcx, OFFSET FLAT:$SG11648
	call	AddLineQueueX
$LN20@HllEndDir:

; 1510 :     }
; 1511 :     QueueTestLines(hll->condlines);

	mov	rcx, QWORD PTR [rdi+32]
	call	QueueTestLines

; 1512 :     LclFree(hll->condlines);
; 1513 :     break;

	jmp	SHORT $LN7@HllEndDir
$LN5@HllEndDir:

; 1453 :   case T_DOT_ENDIF:
; 1454 :     if (hll->cmd != HLL_IF) {

	cmp	DWORD PTR [rdi+52], r14d
	je	SHORT $LN6@HllEndDir
$LN93@HllEndDir:

; 1455 :       DebugMsg(("HllEndDir: no .IF on the hll stack\n"));
; 1456 :       return(EmitErr(BLOCK_NESTING_ERROR, tokenarray[i].string_ptr));

	movsxd	rdx, DWORD PTR i$[rbp-256]
	mov	ecx, 80					; 00000050H
	shl	rdx, 5
	mov	rdx, QWORD PTR [rdx+r15+8]
	call	EmitErr
	jmp	$LN91@HllEndDir
$LN6@HllEndDir:

; 1457 :     }
; 1458 :     i++;

	inc	DWORD PTR i$[rbp-256]

; 1459 :     /* if a test label isn't created yet, create it */
; 1460 :     if (hll->labels[LTEST]) {

	mov	r8d, DWORD PTR [rdi+8]
	test	r8d, r8d
	je	SHORT $LN7@HllEndDir

; 1461 :       AddLineQueueX("%s" LABELQUAL, GetLabelStr(hll->labels[LTEST], buff));

	lea	rdx, OFFSET FLAT:$SG11014
	lea	rcx, QWORD PTR buff$[rsp]
	call	sprintf
	lea	rcx, OFFSET FLAT:$SG11629
$LN92@HllEndDir:
	lea	rdx, QWORD PTR buff$[rsp]
	call	AddLineQueueX
$LN7@HllEndDir:

; 1553 :     }
; 1554 :     break;
; 1555 : #ifdef DEBUG_OUT
; 1556 :   default: /**/myassert(0); break;
; 1557 : #endif
; 1558 :   }
; 1559 : 
; 1560 :   /* create the exit label if it has been referenced */
; 1561 :   if (hll->labels[LEXIT])

	mov	r8d, DWORD PTR [rdi+12]
	test	r8d, r8d
	je	SHORT $LN34@HllEndDir

; 1562 :     AddLineQueueX("%s" LABELQUAL, GetLabelStr(hll->labels[LEXIT], buff));

	lea	rdx, OFFSET FLAT:$SG11014
	lea	rcx, QWORD PTR buff$[rsp]
	call	sprintf
	lea	rdx, QWORD PTR buff$[rsp]
	lea	rcx, OFFSET FLAT:$SG11666
	call	AddLineQueueX
$LN34@HllEndDir:

; 1563 : 
; 1564 :   if (tokenarray[i].token != T_FINAL && rc == NOT_ERROR) {

	movsxd	rax, DWORD PTR i$[rbp-256]
	shl	rax, 5
	cmp	BYTE PTR [rax+r15], 0
	je	SHORT $LN35@HllEndDir
	test	r14d, r14d
	jne	SHORT $LN35@HllEndDir

; 1565 :     EmitErr(SYNTAX_ERROR_EX, tokenarray[i].tokpos);

	mov	rdx, QWORD PTR [rax+r15+24]
	mov	ecx, 209				; 000000d1H
	call	EmitErr

; 1566 :     rc = ERROR;

	or	r14d, -1
$LN35@HllEndDir:

; 1567 :   }
; 1568 :   if (ModuleInfo.list)

	test	DWORD PTR ModuleInfo+408, 2048		; 00000800H
	je	SHORT $LN36@HllEndDir

; 1569 :     LstWrite(LSTTYPE_DIRECTIVE, GetCurrOffset(), NULL);

	call	GetCurrOffset
	xor	r8d, r8d
	mov	edx, eax
	lea	ecx, QWORD PTR [r8+4]
	call	LstWrite
$LN36@HllEndDir:

; 1570 : 
; 1571 :   /* v2.11: always run line-queue if it's not empty. */
; 1572 :   if (is_linequeue_populated())

	cmp	QWORD PTR ModuleInfo+184, 0
	je	SHORT $LN37@HllEndDir

; 1573 :     RunLineQueue();

	call	RunLineQueue
$LN37@HllEndDir:

; 1574 : 
; 1575 :   return(rc);

	mov	eax, r14d
$LN91@HllEndDir:
	mov	rbx, QWORD PTR [rsp+1336]
	mov	rsi, QWORD PTR [rsp+1344]
$LN1@HllEndDir:

; 1576 : }

	mov	rdi, QWORD PTR [rsp+1352]
	add	rsp, 1296				; 00000510H
	pop	r15
	pop	r14
	pop	rbp
	ret	0
HllEndDir ENDP
_TEXT	ENDS
; Function compile flags: /Ogtpy
; File d:\hjwasm\hjwasm2.13.1s\hjwasm2.13.1s\hll.c
_TEXT	SEGMENT
hllop$1 = 64
hllop$2 = 64
hllop$3 = 64
buff$ = 80
forbuff$ = 96
forbuffcnt$ = 704
forbuffcond$ = 1312
buffer$ = 1920
forbuffinit$ = 3120
transformed$ = 3728
i$ = 4384
tokenarray$ = 4392
HllStartDir PROC

; 1158 : {

$LN250:
	mov	DWORD PTR [rsp+8], ecx
	push	rbp
	push	r15
	lea	rbp, QWORD PTR [rsp-4104]
	mov	eax, 4360				; 00001108H
	call	__chkstk
	sub	rsp, rax
	mov	QWORD PTR [rsp+4392], rbx
	mov	QWORD PTR [rsp+4352], r12

; 1159 :   struct hll_item      *hll;
; 1160 :   ret_code             rc = NOT_ERROR;

	xor	r12d, r12d

; 1161 :   int                  cmd = tokenarray[i].tokval;

	movsxd	rax, ecx
	mov	r15d, r12d
	shl	rax, 5

; 1162 :   char buff[16];
; 1163 :   char buffer[MAX_LINE_LEN * 2];
; 1164 :   char codebuff[256];
; 1165 :   char param[256];
; 1166 :   char init[256];
; 1167 :   char limit[MAX_LINE_LEN];
; 1168 :   char op[4];
; 1169 :   char forbuff[MAX_LINE_LEN];
; 1170 :   char forbuffinit[MAX_LINE_LEN];
; 1171 :   char forbuffcond[MAX_LINE_LEN];
; 1172 :   char forbuffcnt[MAX_LINE_LEN];
; 1173 :   char transformed[MAX_LINE_LEN];
; 1174 :   int a;
; 1175 :   int j;
; 1176 :   int b;
; 1177 :   int e;
; 1178 :   int size;
; 1179 :   int eqcnt;
; 1180 :   int cmcnt;
; 1181 :   char *p;
; 1182 :   char c;
; 1183 : 
; 1184 :   DebugMsg1(("HllStartDir(%s) enter\n", tokenarray[i].string_ptr));
; 1185 : 
; 1186 :   i++; /* skip directive */

	inc	ecx
	mov	QWORD PTR [rsp+4344], r13
	mov	r13, rdx
	mov	QWORD PTR [rsp+4336], r14

; 1187 : 
; 1188 :   /* v2.06: is there an item on the free stack? */
; 1189 :   if (HllFree) {

	mov	r14, QWORD PTR ModuleInfo+232
	mov	ebx, DWORD PTR [rax+rdx+16]
	mov	DWORD PTR i$[rbp-256], ecx
	test	r14, r14
	jne	SHORT $LN17@HllStartDi

; 1190 :     hll = HllFree;
; 1191 :     DebugCmd(cntReused++);
; 1192 :   }
; 1193 :   else {
; 1194 :     hll = LclAlloc(sizeof(struct hll_item));

	lea	ecx, QWORD PTR [r12+64]
	call	LclAlloc
	mov	r14, rax
$LN17@HllStartDi:

; 1195 :     DebugCmd(cntAlloc++);
; 1196 :   }
; 1197 : 
; 1198 :   /* structure for .IF .ELSE .ENDIF
; 1199 :   *    cond jump to LTEST-label
; 1200 :   *    ...
; 1201 :   *    jmp LEXIT
; 1202 :   *  LTEST:
; 1203 :   *    ...
; 1204 :   *  LEXIT:
; 1205 : 
; 1206 :   * structure for .IF .ELSEIF
; 1207 :   *    cond jump to LTEST
; 1208 :   *    ...
; 1209 :   *    jmp LEXIT
; 1210 :   *  LTEST:
; 1211 :   *    cond jump to (new) LTEST
; 1212 :   *    ...
; 1213 :   *    jmp LEXIT
; 1214 :   *  LTEST:
; 1215 :   *    ...
; 1216 : 
; 1217 :   * structure for .WHILE and .REPEAT:
; 1218 :   *   jmp LTEST (for .WHILE only)
; 1219 :   * LSTART:
; 1220 :   *   ...
; 1221 :   * LTEST: (jumped to by .continue)
; 1222 :   *   a) test end condition, cond jump to LSTART label
; 1223 :   *   b) unconditional jump to LSTART label
; 1224 :   * LEXIT: (jumped to by .BREAK)
; 1225 :   */
; 1226 : 
; 1227 :   hll->labels[LEXIT] = 0;

	mov	QWORD PTR [rsp+4408], rdi
	mov	DWORD PTR [r14+12], r12d

; 1228 : 
; 1229 :   switch (cmd) {

	cmp	ebx, 327				; 00000147H
	je	$LN18@HllStartDi
	jle	$LN20@HllStartDi
	cmp	ebx, 329				; 00000149H
	jle	$LN45@HllStartDi
	cmp	ebx, 330				; 0000014aH
	jne	$LN20@HllStartDi

; 1243 :       }
; 1244 :     }
; 1245 :     break;
; 1246 :     // added by habran
; 1247 :   case T_DOT_FOR:
; 1248 :     /* create the label to loop start */
; 1249 :     hll->labels[LEXIT] = 0; //this is needed for .FOR loop

	mov	DWORD PTR [r14+12], r12d

; 1250 :     hll->labels[LSTART] = GetHllLabel();

	mov	eax, DWORD PTR ModuleInfo+352
	inc	eax
	mov	QWORD PTR [rsp+4400], rsi
	mov	DWORD PTR ModuleInfo+352, eax

; 1251 :     hll->labels[LSKIP] = GetHllLabel();
; 1252 :     hll->labels[LCONT] = 0;
; 1253 :     hll->labels[LTEST] = 0;
; 1254 :     hll->flags = 0;
; 1255 :     hll->cmd = HLL_FOR;
; 1256 :     //copy string to the buffer and get read of spaces
; 1257 :     p = tokenarray[i].tokpos;
; 1258 :     for (b = 0; *p; p++)

	mov	esi, r12d
	mov	DWORD PTR [r14+16], eax
	mov	eax, DWORD PTR ModuleInfo+352
	inc	eax
	mov	DWORD PTR ModuleInfo+352, eax
	mov	DWORD PTR [r14+20], eax
	mov	DWORD PTR [r14+24], r12d
	mov	DWORD PTR [r14+8], r12d
	mov	DWORD PTR [r14+60], r12d
	mov	DWORD PTR [r14+52], 4
	movsxd	rax, DWORD PTR i$[rbp-256]
	shl	rax, 5
	mov	rdi, QWORD PTR [rax+r13+24]
	movzx	eax, BYTE PTR [rdi]
	test	al, al
	je	SHORT $LN5@HllStartDi
	lea	rbx, QWORD PTR forbuff$[rsp]
	npad	6
$LL6@HllStartDi:

; 1259 :     {
; 1260 :       if ((*p == ' ') || (*p == '\t')) {

	cmp	al, 32					; 00000020H
	je	SHORT $LN24@HllStartDi
	cmp	al, 9
	jne	SHORT $LN248@HllStartDi
$LN24@HllStartDi:

; 1261 :         //if there is QWORD PTR, DWORD PTR, WORD PTR, BYTE PTR, OFFSET or ADDR leave a space between
; 1262 :         c = tolower(*(p + 1));

	movsx	ecx, BYTE PTR [rdi+1]
	call	tolower

; 1263 :         if ((c >= 'a') && (c <= 'z')){

	sub	al, 97					; 00000061H
	cmp	al, 25
	ja	SHORT $LN4@HllStartDi

; 1264 :           forbuff[b] = *p;

	movzx	eax, BYTE PTR [rdi]
$LN248@HllStartDi:

; 1265 :           b++;

	inc	esi
	mov	BYTE PTR [rbx], al
	inc	rbx
$LN4@HllStartDi:

; 1251 :     hll->labels[LSKIP] = GetHllLabel();
; 1252 :     hll->labels[LCONT] = 0;
; 1253 :     hll->labels[LTEST] = 0;
; 1254 :     hll->flags = 0;
; 1255 :     hll->cmd = HLL_FOR;
; 1256 :     //copy string to the buffer and get read of spaces
; 1257 :     p = tokenarray[i].tokpos;
; 1258 :     for (b = 0; *p; p++)

	movzx	eax, BYTE PTR [rdi+1]
	inc	rdi
	test	al, al
	jne	SHORT $LL6@HllStartDi
$LN5@HllStartDi:

; 1266 :         }
; 1267 :       }
; 1268 :       else {
; 1269 :         forbuff[b] = *p;
; 1270 :         b++;
; 1271 :       }
; 1272 :     }
; 1273 :     forbuff[b] = NULLC;

	movsxd	rax, esi

; 1274 :     if (0 == _memicmp(forbuff, "(::)", 4)){

	lea	rdx, OFFSET FLAT:$SG11569
	mov	r8d, 4
	lea	rcx, QWORD PTR forbuff$[rsp]
	mov	BYTE PTR forbuff$[rsp+rax], r12b
	call	_memicmp
	mov	rsi, QWORD PTR [rsp+4400]
	test	eax, eax
	jne	SHORT $LN26@HllStartDi

; 1275 :       hll->cmcnt = 0;

	mov	DWORD PTR [r14+48], r12d

; 1276 :     }

	jmp	$LN43@HllStartDi
$LN26@HllStartDi:

; 1277 :     else {
; 1278 :       //count initializers
; 1279 :       eqcnt = 1;
; 1280 :       forbuffinit[0] = NULLC;
; 1281 :       for (j = 1, b = 0; forbuff[j];){

	mov	r9d, r12d
	mov	BYTE PTR forbuffinit$[rbp-256], r12b
	mov	r10d, 1
	mov	r8d, r10d
	cmp	BYTE PTR forbuff$[rsp+1], r9b
	je	SHORT $LN246@HllStartDi
	mov	ecx, r10d
	mov	rax, r12
$LL7@HllStartDi:

; 1282 :         c = forbuff[j];

	movzx	edx, BYTE PTR forbuff$[rsp+rcx]

; 1283 :         if (c == ':') {

	cmp	dl, 58					; 0000003aH
	jne	SHORT $LN29@HllStartDi

; 1284 :           if (forbuff[j - 1] != 39 && forbuff[j + 1] != 39) break;

	cmp	BYTE PTR forbuff$[rsp+rcx-1], 39	; 00000027H
	je	SHORT $LN30@HllStartDi
	cmp	BYTE PTR forbuff$[rsp+rcx+1], 39	; 00000027H
	jne	SHORT $LN246@HllStartDi

; 1285 :         }
; 1286 :         if (c == ',' && forbuff[j - 1] != 39 && forbuff[j + 1] != 39) eqcnt++;

	jmp	SHORT $LN30@HllStartDi
$LN29@HllStartDi:
	cmp	dl, 44					; 0000002cH
	jne	SHORT $LN30@HllStartDi
	cmp	BYTE PTR forbuff$[rsp+rcx-1], 39	; 00000027H
	je	SHORT $LN30@HllStartDi
	cmp	BYTE PTR forbuff$[rsp+rcx+1], 39	; 00000027H
	je	SHORT $LN30@HllStartDi
	inc	r10d
$LN30@HllStartDi:

; 1287 :         forbuffinit[b] = c;

	mov	BYTE PTR forbuffinit$[rbp+rax-256], dl

; 1288 :         if (c == 39 && forbuffinit[b - 2] == 39){

	cmp	dl, 39					; 00000027H
	jne	SHORT $LN31@HllStartDi
	cmp	BYTE PTR forbuffinit$[rbp+rax-258], dl
	jne	SHORT $LN31@HllStartDi

; 1289 :           b++;

	inc	r9d

; 1290 :           forbuffinit[b] = ' ';

	mov	BYTE PTR forbuffinit$[rbp+rax-255], 32	; 00000020H
	inc	rax
$LN31@HllStartDi:

; 1291 :         }
; 1292 :         j++;

	inc	rcx
	inc	r8d

; 1293 :         b++;

	inc	r9d
	inc	rax
	cmp	BYTE PTR forbuff$[rsp+rcx], r12b
	jne	SHORT $LL7@HllStartDi
$LN246@HllStartDi:

; 1294 :       }
; 1295 :       forbuffinit[b] = NULLC;

	movsxd	rax, r9d

; 1297 :       //coppy the condition to the buffer
; 1298 :       forbuffcond[0] = NULLC;
; 1299 :       hll->labels[LTEST] = 0;
; 1300 :       for (b = 0; forbuff[j] && forbuff[j] != ':'; forbuffcond[b] = forbuff[j], j++, b++);

	lea	rcx, QWORD PTR forbuff$[rsp]
	inc	r8d
	mov	DWORD PTR [r14+8], r12d
	mov	r9d, r12d
	mov	BYTE PTR forbuffcond$[rbp-256], r12b
	mov	BYTE PTR forbuffinit$[rbp+rax-256], r12b
	movsxd	rax, r8d
	add	rcx, rax
	cmp	BYTE PTR [rcx], r9b
	je	SHORT $LN247@HllStartDi

; 1296 :       j++;

	lea	rax, QWORD PTR forbuffcond$[rbp-256]
	npad	7
$LL12@HllStartDi:

; 1297 :       //coppy the condition to the buffer
; 1298 :       forbuffcond[0] = NULLC;
; 1299 :       hll->labels[LTEST] = 0;
; 1300 :       for (b = 0; forbuff[j] && forbuff[j] != ':'; forbuffcond[b] = forbuff[j], j++, b++);

	movzx	edx, BYTE PTR [rcx]
	cmp	dl, 58					; 0000003aH
	je	SHORT $LN247@HllStartDi
	inc	rcx
	mov	BYTE PTR [rax], dl
	inc	r8d
	inc	r9d
	inc	rax
	cmp	BYTE PTR [rcx], r12b
	jne	SHORT $LL12@HllStartDi
$LN247@HllStartDi:

; 1301 :       if (forbuffcond[b - 2] == '>' && forbuffcond[b - 1] == '0') forbuffcond[b - 2] = NULLC;

	movsxd	rax, r9d
	cmp	BYTE PTR forbuffcond$[rbp+rax-258], 62	; 0000003eH
	jne	SHORT $LN32@HllStartDi
	cmp	BYTE PTR forbuffcond$[rbp+rax-257], 48	; 00000030H
	jne	SHORT $LN32@HllStartDi
	mov	BYTE PTR forbuffcond$[rbp+rax-258], r12b
$LN32@HllStartDi:

; 1302 :       forbuffcond[b] = NULLC;
; 1303 :       if (!b) hll->cond = FALSE;

	test	r9d, r9d
	mov	BYTE PTR forbuffcond$[rbp+rax-256], r12b

; 1304 :       else    hll->cond = TRUE;
; 1305 :       j++;
; 1306 :       //copy the counter to the buffer
; 1307 :       cmcnt = 0;

	mov	edi, r12d

; 1308 :       forbuffcnt[0] = NULLC;
; 1309 :       hll->condlines = "";
; 1310 :       for (b = 0; forbuff[j] != ')';b++,j++){

	mov	edx, r12d
	setne	al
	mov	BYTE PTR forbuffcnt$[rbp-256], dil
	inc	r8d
	mov	BYTE PTR [r14+56], al
	movsxd	rcx, r8d
	lea	rax, OFFSET FLAT:$SG11577
	mov	QWORD PTR [r14+32], rax
	cmp	BYTE PTR forbuff$[rsp+rcx], 41		; 00000029H
	je	SHORT $LN14@HllStartDi
	mov	rax, r12
	npad	12
$LL15@HllStartDi:

; 1311 :         forbuffcnt[b] = forbuff[j];

	movzx	r8d, BYTE PTR forbuff$[rsp+rcx]
	mov	BYTE PTR forbuffcnt$[rbp+rax-256], r8b

; 1312 :         if (forbuffcnt[b] == ',' && forbuff[j - 1] != 39 && forbuff[j + 1] != 39) ++cmcnt;

	cmp	r8b, 44					; 0000002cH
	jne	SHORT $LN35@HllStartDi
	cmp	BYTE PTR forbuff$[rsp+rcx-1], 39	; 00000027H
	je	SHORT $LN13@HllStartDi
	cmp	BYTE PTR forbuff$[rsp+rcx+1], 39	; 00000027H
	je	SHORT $LN13@HllStartDi
	inc	edi

; 1313 :         if (forbuffcnt[b] == 39 && forbuffcnt[b - 2] == 39){

	jmp	SHORT $LN13@HllStartDi
$LN35@HllStartDi:
	cmp	r8b, 39					; 00000027H
	jne	SHORT $LN13@HllStartDi
	cmp	BYTE PTR forbuffcnt$[rbp+rax-258], r8b
	jne	SHORT $LN13@HllStartDi

; 1314 :           b++;

	inc	edx

; 1315 :           forbuffcnt[b] = ' ';

	mov	BYTE PTR forbuffcnt$[rbp+rax-255], 32	; 00000020H
	inc	rax
$LN13@HllStartDi:

; 1308 :       forbuffcnt[0] = NULLC;
; 1309 :       hll->condlines = "";
; 1310 :       for (b = 0; forbuff[j] != ')';b++,j++){

	inc	rcx
	inc	edx
	inc	rax
	cmp	BYTE PTR forbuff$[rsp+rcx], 41		; 00000029H
	jne	SHORT $LL15@HllStartDi
$LN14@HllStartDi:

; 1316 :         }
; 1317 :       }
; 1318 :       if (forbuffcnt[b - 1] == ')') b--;

	movsxd	rax, edx
	cmp	BYTE PTR forbuffcnt$[rbp+rax-257], 41	; 00000029H
	jne	SHORT $LN37@HllStartDi
	dec	edx
$LN37@HllStartDi:

; 1319 :       forbuffcnt[b] = NULLC;

	movsxd	rax, edx
	mov	BYTE PTR forbuffcnt$[rbp+rax-256], r12b

; 1320 :       //create valid command and add to LineQueue to initiate .for loop vars
; 1321 :       //anything that is before the first ':'
; 1322 :       if (forbuffinit[0]) ForInitAndNext(tokenarray, eqcnt, forbuffinit);

	cmp	BYTE PTR forbuffinit$[rbp-256], r12b
	je	SHORT $LN38@HllStartDi
	lea	r8, QWORD PTR forbuffinit$[rbp-256]
	mov	edx, r10d
	mov	rcx, r13
	call	ForInitAndNext
$LN38@HllStartDi:

; 1323 :       //note hll->counterlines is new var in the struct hll_item for store of forbuffcnt used in .ENDFOR
; 1324 :       //hll->cmcnt is also new var in the struct hll_item for commas counter used in .ENDFOR
; 1325 :       //copy forbuffcnt context to hll->counterlines 
; 1326 :       //forbuffcnt contains anything that is written after the second ':'
; 1327 :       hll->cmcnt = 0;

	mov	DWORD PTR [r14+48], r12d

; 1328 :       if (forbuffcnt[0])

	cmp	BYTE PTR forbuffcnt$[rbp-256], r12b
	je	SHORT $LN39@HllStartDi

; 1329 :       {
; 1330 :       //skip altering conditions the first time
; 1331 :         AddLineQueueX(" jmp %s", GetLabelStr(hll->labels[LSKIP], buff));

	mov	r8d, DWORD PTR [r14+20]
	lea	rdx, OFFSET FLAT:$SG11014
	lea	rcx, QWORD PTR buff$[rsp]
	call	sprintf
	lea	rdx, QWORD PTR buff$[rsp]
	lea	rcx, OFFSET FLAT:$SG11584
	call	AddLineQueueX

; 1332 :         size = strlen(forbuffcnt) + 1;

	lea	rcx, QWORD PTR forbuffcnt$[rbp-256]
	or	rax, -1
$LL244@HllStartDi:
	inc	rax
	cmp	BYTE PTR [rcx+rax], r12b
	jne	SHORT $LL244@HllStartDi
	inc	eax

; 1333 :         hll->counterlines = LclAlloc(size);

	movsxd	rbx, eax
	mov	rcx, rbx
	call	LclAlloc

; 1334 :         memcpy(hll->counterlines, forbuffcnt, size);

	mov	r8, rbx
	mov	QWORD PTR [r14+40], rax
	lea	rdx, QWORD PTR forbuffcnt$[rbp-256]
	mov	rcx, rax
	call	memcpy

; 1335 :         hll->cmcnt = cmcnt + 1;

	lea	eax, DWORD PTR [rdi+1]
	mov	DWORD PTR [r14+48], eax

; 1336 :       }

	jmp	SHORT $LN40@HllStartDi
$LN39@HllStartDi:

; 1337 :       else hll->counterlines = "";    //there is nothing after the second ':'

	lea	rax, OFFSET FLAT:$SG11585
	mov	QWORD PTR [r14+40], rax
$LN40@HllStartDi:

; 1338 :       if (forbuffcond[0]){

	cmp	BYTE PTR forbuffcond$[rbp-256], r12b
	je	$LN43@HllStartDi

; 1339 :         strcpy(transformed, ".for ");

	mov	rcx, r12
	lea	rdx, OFFSET FLAT:$SG11587
	npad	4
$LL57@HllStartDi:
	movzx	eax, BYTE PTR [rcx+rdx]
	mov	BYTE PTR transformed$[rbp+rcx-256], al
	lea	rcx, QWORD PTR [rcx+1]
	test	al, al
	jne	SHORT $LL57@HllStartDi

; 1340 :         strcat(transformed, forbuffcond);

	lea	rcx, QWORD PTR transformed$[rbp-256]
	dec	rcx
	npad	3
$LL242@HllStartDi:
	cmp	BYTE PTR [rcx+1], r12b
	lea	rcx, QWORD PTR [rcx+1]
	jne	SHORT $LL242@HllStartDi
	lea	r8, QWORD PTR forbuffcond$[rbp-256]
	xor	edx, edx
	npad	13
$LL243@HllStartDi:
	movzx	eax, BYTE PTR [r8+rdx]
	mov	BYTE PTR [rcx+rdx], al
	lea	rdx, QWORD PTR [rdx+1]
	test	al, al
	jne	SHORT $LL243@HllStartDi

; 1341 :         strcat(transformed, "\0");

	lea	rcx, QWORD PTR transformed$[rbp-256]
	dec	rcx
	npad	6
$LL240@HllStartDi:
	cmp	BYTE PTR [rcx+1], r12b
	lea	rcx, QWORD PTR [rcx+1]
	jne	SHORT $LL240@HllStartDi
	lea	r8, OFFSET FLAT:$SG11588
	xor	edx, edx
	npad	13
$LL241@HllStartDi:
	movzx	eax, BYTE PTR [r8+rdx]
	mov	BYTE PTR [rcx+rdx], al
	lea	rdx, QWORD PTR [rdx+1]
	test	al, al
	jne	SHORT $LL241@HllStartDi

; 1342 :         tokenarray[0].string_ptr = ".for\0";

	lea	rax, OFFSET FLAT:$SG11589

; 1343 :         tokenarray[0].tokpos = transformed;
; 1344 :         Token_Count = Tokenize(tokenarray[0].tokpos, 0, tokenarray, 0);

	xor	r9d, r9d
	mov	QWORD PTR [r13+8], rax
	lea	rcx, QWORD PTR transformed$[rbp-256]
	lea	rax, QWORD PTR transformed$[rbp-256]
	mov	r8, r13
	xor	edx, edx
	mov	QWORD PTR [r13+24], rax
	call	Tokenize
	mov	DWORD PTR ModuleInfo+496, eax

; 1345 :         if (tokenarray[i].token != T_FINAL) {

	movsxd	rax, DWORD PTR i$[rbp-256]
	shl	rax, 5
	cmp	BYTE PTR [rax+r13], r12b
	je	$LN42@HllStartDi

; 1346 :           rc = EvaluateHllExpression(hll, &i, tokenarray, LSTART, TRUE, buffer);

	lea	rax, QWORD PTR hllop$2[rsp]
	mov	QWORD PTR hllop$2[rsp], r12
	mov	QWORD PTR [rsp+48], rax
	lea	rdx, QWORD PTR i$[rbp-256]
	lea	rax, QWORD PTR buffer$[rbp-256]
	mov	DWORD PTR hllop$2[rsp+8], r12d
	mov	QWORD PTR [rsp+40], rax
	lea	rbx, QWORD PTR buffer$[rbp-256]
	mov	r9d, 2
	mov	BYTE PTR [rsp+32], 1
	mov	r8, r13
	mov	BYTE PTR buffer$[rbp-256], r12b
	mov	rcx, r14
	call	GetAndExpression
	cmp	eax, -1
	je	$LN231@HllStartDi
	movsxd	rcx, DWORD PTR i$[rbp-256]
	shl	rcx, 5
	add	rcx, r13
	call	GetCOp
	cmp	eax, 8
	jne	SHORT $LN77@HllStartDi
$LL81@HllStartDi:
	inc	DWORD PTR i$[rbp-256]
	or	rax, -1
	npad	5
$LL239@HllStartDi:
	inc	rax
	cmp	BYTE PTR [rbx+rax], r12b
	jne	SHORT $LL239@HllStartDi
	add	rbx, rax
	mov	DWORD PTR hllop$2[rsp+8], r12d
	lea	rax, QWORD PTR hllop$2[rsp]
	mov	r9d, 2
	mov	QWORD PTR [rsp+48], rax
	lea	rdx, QWORD PTR i$[rbp-256]
	mov	QWORD PTR [rsp+40], rbx
	mov	r8, r13
	mov	rcx, r14
	mov	BYTE PTR [rsp+32], 1
	call	GetAndExpression
	cmp	eax, -1
	je	SHORT $LN231@HllStartDi
	movsxd	rcx, DWORD PTR i$[rbp-256]
	shl	rcx, 5
	add	rcx, r13
	call	GetCOp
	cmp	eax, 8
	je	SHORT $LL81@HllStartDi
$LN77@HllStartDi:
	movsxd	rax, DWORD PTR i$[rbp-256]
	shl	rax, 5
	cmp	BYTE PTR [rax+r13], r12b
	je	SHORT $LN232@HllStartDi
	mov	ecx, 199				; 000000c7H
	call	EmitError
	mov	r15d, eax

; 1347 :           if (rc == NOT_ERROR) {

	test	eax, eax
	jne	SHORT $LN43@HllStartDi
$LN232@HllStartDi:

; 1348 :             size = strlen(buffer) + 1;

	lea	rcx, QWORD PTR buffer$[rbp-256]
	or	rax, -1
$LL238@HllStartDi:
	inc	rax
	cmp	BYTE PTR [rcx+rax], r12b
	jne	SHORT $LL238@HllStartDi
	inc	eax

; 1349 :             hll->condlines = LclAlloc(size);

	movsxd	rbx, eax
	mov	rcx, rbx
	call	LclAlloc

; 1350 :             memcpy(hll->condlines, buffer, size);

	mov	r8, rbx
	mov	QWORD PTR [r14+32], rax
	lea	rdx, QWORD PTR buffer$[rbp-256]
	mov	rcx, rax
	call	memcpy

; 1351 :             DebugCmd(cntCond++); DebugCmd(cntCondBytes += size);
; 1352 :           }
; 1353 :         }

	jmp	SHORT $LN43@HllStartDi
$LN231@HllStartDi:

; 1346 :           rc = EvaluateHllExpression(hll, &i, tokenarray, LSTART, TRUE, buffer);

	or	r15d, -1
	jmp	SHORT $LN43@HllStartDi
$LN42@HllStartDi:

; 1354 :         else
; 1355 :           hll->condlines = "";

	lea	rax, OFFSET FLAT:$SG11593
	mov	QWORD PTR [r14+32], rax
$LN43@HllStartDi:

; 1356 :       }
; 1357 :     }
; 1358 :     AddLineQueueX("%s" LABELQUAL, GetLabelStr(hll->labels[LSTART], buff));

	mov	r8d, DWORD PTR [r14+16]
	lea	rdx, OFFSET FLAT:$SG11014
	lea	rcx, QWORD PTR buff$[rsp]
	call	sprintf
	lea	rdx, QWORD PTR buff$[rsp]
	lea	rcx, OFFSET FLAT:$SG11594
	call	AddLineQueueX

; 1359 :     tokenarray[i].token = T_FINAL;

	movsxd	rax, DWORD PTR i$[rbp-256]
	shl	rax, 5
	mov	BYTE PTR [rax+r13], r12b

; 1360 :     break;

	jmp	$LN20@HllStartDi
$LN45@HllStartDi:

; 1361 :     //end of .FOR
; 1362 :   case T_DOT_WHILE:
; 1363 :   case T_DOT_REPEAT:
; 1364 :     /* create the label to start of loop */
; 1365 :     hll->labels[LSTART] = GetHllLabel();

	mov	eax, DWORD PTR ModuleInfo+352
	inc	eax
	mov	DWORD PTR ModuleInfo+352, eax
	mov	DWORD PTR [r14+16], eax

; 1366 :     hll->labels[LTEST] = 0; /* v2.11: test label is created only if needed */

	mov	DWORD PTR [r14+8], r12d

; 1367 :     //hll->labels[LEXIT] = GetHllLabel(); /* v2.11: LEXIT is only needed for .BREAK */
; 1368 :     if (cmd == T_DOT_WHILE) {

	cmp	ebx, 329				; 00000149H
	jne	$LN46@HllStartDi

; 1369 :       hll->cmd = HLL_WHILE;
; 1370 :       hll->condlines = NULL;

	mov	QWORD PTR [r14+32], r12
	mov	r10d, 1
	mov	DWORD PTR [r14+52], r10d

; 1371 :       if (tokenarray[i].token != T_FINAL) {

	movsxd	rax, DWORD PTR i$[rbp-256]
	shl	rax, 5
	cmp	BYTE PTR [rax+r13], r12b

; 1372 :         rc = EvaluateHllExpression(hll, &i, tokenarray, LSTART, TRUE, buffer);

	mov	BYTE PTR buffer$[rbp-256], r12b
	je	$LN49@HllStartDi
	lea	rax, QWORD PTR hllop$1[rsp]
	mov	QWORD PTR hllop$1[rsp], r12
	mov	QWORD PTR [rsp+48], rax
	lea	r9d, QWORD PTR [r10+1]
	lea	rax, QWORD PTR buffer$[rbp-256]
	mov	DWORD PTR hllop$1[rsp+8], r12d
	mov	QWORD PTR [rsp+40], rax
	lea	rdx, QWORD PTR i$[rbp-256]
	mov	r8, r13
	mov	BYTE PTR [rsp+32], r10b
	mov	rcx, r14
	lea	rbx, QWORD PTR buffer$[rbp-256]
	call	GetAndExpression
	cmp	eax, -1
	je	$LN233@HllStartDi
	movsxd	rcx, DWORD PTR i$[rbp-256]
	shl	rcx, 5
	add	rcx, r13
	call	GetCOp
	cmp	eax, 8
	jne	SHORT $LN130@HllStartDi
	npad	1
$LL134@HllStartDi:
	inc	DWORD PTR i$[rbp-256]
	or	rax, -1
	npad	6
$LL237@HllStartDi:
	inc	rax
	cmp	BYTE PTR [rbx+rax], r12b
	jne	SHORT $LL237@HllStartDi
	add	rbx, rax
	mov	DWORD PTR hllop$1[rsp+8], r12d
	lea	rax, QWORD PTR hllop$1[rsp]
	mov	r9d, 2
	mov	QWORD PTR [rsp+48], rax
	lea	rdx, QWORD PTR i$[rbp-256]
	mov	QWORD PTR [rsp+40], rbx
	mov	r8, r13
	mov	rcx, r14
	mov	BYTE PTR [rsp+32], 1
	call	GetAndExpression
	cmp	eax, -1
	je	SHORT $LN233@HllStartDi
	movsxd	rcx, DWORD PTR i$[rbp-256]
	shl	rcx, 5
	add	rcx, r13
	call	GetCOp
	cmp	eax, 8
	je	SHORT $LL134@HllStartDi
$LN130@HllStartDi:
	movsxd	rax, DWORD PTR i$[rbp-256]
	shl	rax, 5
	cmp	BYTE PTR [rax+r13], r12b
	je	SHORT $LN234@HllStartDi
	mov	ecx, 199				; 000000c7H
	call	EmitError
	mov	r15d, eax

; 1373 :         if (rc == NOT_ERROR) {

	test	eax, eax
	jne	SHORT $LN49@HllStartDi
$LN234@HllStartDi:

; 1374 :           int size;
; 1375 :           size = strlen(buffer) + 1;

	lea	rcx, QWORD PTR buffer$[rbp-256]
	or	rax, -1
$LL236@HllStartDi:
	inc	rax
	cmp	BYTE PTR [rcx+rax], r12b
	jne	SHORT $LL236@HllStartDi
	inc	eax

; 1376 :           hll->condlines = LclAlloc(size);

	movsxd	rbx, eax
	mov	rcx, rbx
	call	LclAlloc

; 1377 :           memcpy(hll->condlines, buffer, size);

	mov	r8, rbx
	mov	QWORD PTR [r14+32], rax
	lea	rdx, QWORD PTR buffer$[rbp-256]
	mov	rcx, rax
	call	memcpy

; 1378 :           DebugCmd(cntCond++); DebugCmd(cntCondBytes += size);
; 1379 :         }
; 1380 :       }

	jmp	SHORT $LN49@HllStartDi
$LN233@HllStartDi:

; 1372 :         rc = EvaluateHllExpression(hll, &i, tokenarray, LSTART, TRUE, buffer);

	or	r15d, -1
$LN49@HllStartDi:

; 1381 :       else
; 1382 :         buffer[0] = NULLC;  /* just ".while" without expression is accepted */
; 1383 : 
; 1384 :       /* create a jump to test label */
; 1385 :       /* optimisation: if line at 'test' label is just a jump, dont create label and don't jump! */
; 1386 :       if (_memicmp(buffer, "jmp", 3)) {

	mov	r8d, 3
	lea	rdx, OFFSET FLAT:$SG11602
	lea	rcx, QWORD PTR buffer$[rbp-256]
	call	_memicmp
	test	eax, eax
	je	SHORT $LN47@HllStartDi

; 1387 :         hll->labels[LTEST] = GetHllLabel();

	mov	eax, DWORD PTR ModuleInfo+352

; 1388 :         AddLineQueueX(JMPPREFIX "jmp %s", GetLabelStr(hll->labels[LTEST], buff));

	lea	rdx, OFFSET FLAT:$SG11014
	inc	eax
	lea	rcx, QWORD PTR buff$[rsp]
	mov	DWORD PTR ModuleInfo+352, eax
	mov	r8d, eax
	mov	DWORD PTR [r14+8], eax
	call	sprintf
	lea	rdx, QWORD PTR buff$[rsp]
	lea	rcx, OFFSET FLAT:$SG11603
	call	AddLineQueueX

; 1389 :       }
; 1390 :     }

	jmp	SHORT $LN47@HllStartDi
$LN46@HllStartDi:

; 1391 :     else {
; 1392 :       hll->cmd = HLL_REPEAT;

	mov	DWORD PTR [r14+52], 2
$LN47@HllStartDi:

; 1393 :     }
; 1394 :     AddLineQueueX("%s" LABELQUAL, GetLabelStr(hll->labels[LSTART], buff));

	mov	r8d, DWORD PTR [r14+16]
	lea	rdx, OFFSET FLAT:$SG11014
	lea	rcx, QWORD PTR buff$[rsp]
	call	sprintf
	lea	rdx, QWORD PTR buff$[rsp]
	lea	rcx, OFFSET FLAT:$SG11604
	call	AddLineQueueX
	jmp	$LN20@HllStartDi
$LN18@HllStartDi:

; 1230 :   case T_DOT_IF:
; 1231 :     hll->labels[LSTART] = 0; /* not used by .IF */

	mov	DWORD PTR [r14+16], r12d

; 1232 :     hll->labels[LTEST] = GetHllLabel();
; 1233 :     hll->cmd = HLL_IF;
; 1234 :     hll->flags = 0;
; 1235 :     /* get the C-style expression, convert to ASM code lines */
; 1236 :     rc = EvaluateHllExpression(hll, &i, tokenarray, LTEST, FALSE, buffer);

	lea	rdx, QWORD PTR i$[rbp-256]
	mov	eax, DWORD PTR ModuleInfo+352
	xor	r9d, r9d
	inc	eax
	mov	QWORD PTR hllop$3[rsp], r12
	mov	DWORD PTR ModuleInfo+352, eax
	mov	r8, r13
	mov	DWORD PTR [r14+8], eax
	mov	rcx, r14
	lea	rax, QWORD PTR hllop$3[rsp]
	mov	DWORD PTR [r14+52], r12d
	mov	QWORD PTR [rsp+48], rax
	lea	rax, QWORD PTR buffer$[rbp-256]
	mov	QWORD PTR [rsp+40], rax
	mov	DWORD PTR [r14+60], r12d
	mov	BYTE PTR [rsp+32], r12b
	mov	DWORD PTR hllop$3[rsp+8], r12d
	mov	BYTE PTR buffer$[rbp-256], r12b
	call	GetExpression
	cmp	eax, -1
	jne	SHORT $LN61@HllStartDi
	or	r15d, eax
	jmp	SHORT $LN20@HllStartDi
$LN61@HllStartDi:
	movsxd	rax, DWORD PTR i$[rbp-256]
	shl	rax, 5
	cmp	BYTE PTR [rax+r13], r12b
	je	SHORT $LN235@HllStartDi
	mov	ecx, 199				; 000000c7H
	call	EmitError
	mov	r15d, eax

; 1237 :     if (rc == NOT_ERROR) {

	test	eax, eax
	jne	SHORT $LN20@HllStartDi
$LN235@HllStartDi:

; 1238 :       QueueTestLines(buffer);

	lea	rbx, QWORD PTR buffer$[rbp-256]
	npad	12
$LL65@HllStartDi:
	mov	edx, 10
	mov	rcx, rbx
	mov	rdi, rbx
	call	strchr
	mov	rbx, rax
	test	rax, rax
	je	SHORT $LN67@HllStartDi
	mov	BYTE PTR [rax], r12b
	inc	rbx
$LN67@HllStartDi:
	cmp	BYTE PTR [rdi], r12b
	je	SHORT $LN68@HllStartDi
	mov	rcx, rdi
	call	AddLineQueue
$LN68@HllStartDi:
	test	rbx, rbx
	jne	SHORT $LL65@HllStartDi

; 1239 :       /* if no lines have been created, the LTEST label isn't needed */
; 1240 :       //if ( !is_linequeue_populated() ) {
; 1241 :       if (buffer[0] == NULLC) {

	cmp	BYTE PTR buffer$[rbp-256], r12b
	jne	SHORT $LN20@HllStartDi

; 1242 :         hll->labels[LTEST] = 0;

	mov	DWORD PTR [r14+8], r12d
$LN20@HllStartDi:

; 1395 :     break;
; 1396 : #ifdef DEBUG_OUT
; 1397 :   default: /**/myassert(0); break;
; 1398 : #endif
; 1399 :   }
; 1400 : 
; 1401 :   if (tokenarray[i].token != T_FINAL && rc == NOT_ERROR) {

	movsxd	rax, DWORD PTR i$[rbp-256]
	mov	r12, QWORD PTR [rsp+4352]
	mov	rdi, QWORD PTR [rsp+4408]
	mov	rbx, QWORD PTR [rsp+4392]
	shl	rax, 5
	cmp	BYTE PTR [rax+r13], 0
	je	SHORT $LN52@HllStartDi
	test	r15d, r15d
	jne	SHORT $LN52@HllStartDi

; 1402 :     DebugMsg(("HllStartDir: unexpected token [%s]\n", tokenarray[i].tokpos));
; 1403 :     EmitErr(SYNTAX_ERROR_EX, tokenarray[i].tokpos);

	mov	rdx, QWORD PTR [rax+r13+24]
	mov	ecx, 209				; 000000d1H
	call	EmitErr

; 1404 :     rc = ERROR;

	or	r15d, -1
$LN52@HllStartDi:

; 1405 :     //return( ERROR ); /* v2.08: continue and parse the line queue */
; 1406 :   }
; 1407 :   /* v2.06: remove the item from the free stack */
; 1408 :   if (hll == HllFree)

	cmp	r14, QWORD PTR ModuleInfo+232
	mov	r13, QWORD PTR [rsp+4344]
	jne	SHORT $LN53@HllStartDi

; 1409 :     HllFree = hll->next;

	mov	rax, QWORD PTR [r14]
	mov	QWORD PTR ModuleInfo+232, rax
$LN53@HllStartDi:

; 1410 :   hll->next = HllStack;

	mov	rax, QWORD PTR ModuleInfo+224
	mov	QWORD PTR [r14], rax

; 1411 :   HllStack = hll;
; 1412 : 
; 1413 :   if (ModuleInfo.list)

	test	DWORD PTR ModuleInfo+408, 2048		; 00000800H
	mov	QWORD PTR ModuleInfo+224, r14
	mov	r14, QWORD PTR [rsp+4336]
	je	SHORT $LN54@HllStartDi

; 1414 :     LstWrite(LSTTYPE_DIRECTIVE, GetCurrOffset(), NULL);

	call	GetCurrOffset
	xor	r8d, r8d
	mov	edx, eax
	lea	ecx, QWORD PTR [r8+4]
	call	LstWrite
$LN54@HllStartDi:

; 1415 : 
; 1416 :   if (is_linequeue_populated()) /* might be NULL! (".if 1") */

	cmp	QWORD PTR ModuleInfo+184, 0
	je	SHORT $LN245@HllStartDi

; 1417 :     RunLineQueue();

	call	RunLineQueue
$LN245@HllStartDi:

; 1418 : 
; 1419 :   return(rc);

	mov	eax, r15d

; 1420 : }

	add	rsp, 4360				; 00001108H
	pop	r15
	pop	rbp
	ret	0
HllStartDir ENDP
_TEXT	ENDS
; Function compile flags: /Ogtpy
; File d:\hjwasm\hjwasm2.13.1s\hjwasm2.13.1s\hll.c
;	COMDAT ForInitAndNext
_TEXT	SEGMENT
codebuff$1 = 32
codebuff$2 = 32
codebuff$3 = 32
codebuff$4 = 32
codebuff$5 = 32
codebuff$6 = 32
codebuff$7 = 32
codebuff$8 = 32
codebuff$9 = 32
codebuff$10 = 32
codebuff$11 = 32
codebuff$12 = 32
codebuff$13 = 32
codebuff$14 = 32
codebuff$15 = 32
codebuff$16 = 32
codebuff$17 = 32
codebuff$18 = 32
codebuff$19 = 32
codebuff$20 = 32
codebuff$21 = 32
codebuff$22 = 32
codebuff$ = 288
init$ = 544
param$ = 800
tokenarray$ = 1120
op$ = 1128
cnt$ = 1128
buff$ = 1136
ForInitAndNext PROC					; COMDAT

; 907  : static ret_code ForInitAndNext(struct asm_tok tokenarray[], int cnt, char *buff){

	mov	QWORD PTR [rsp+32], rbx
	mov	QWORD PTR [rsp+24], r8
	mov	QWORD PTR [rsp+8], rcx
	push	rbp
	push	rsi
	push	rdi
	push	r12
	push	r13
	push	r14
	push	r15
	lea	rbp, QWORD PTR [rsp-800]
	sub	rsp, 1056				; 00000420H

; 908  :   int a;
; 909  :   int j;
; 910  :   int	b = 0;

	xor	r15d, r15d
	mov	r12, r8

; 911  :   bool brct = 0;

	xor	sil, sil
	mov	r14d, edx
	mov	r13, rcx
	mov	r9, 145272973819904			; 0000842000000000H
$LL4@ForInitAnd:

; 912  :   char codebuff[256];
; 913  :   char param[256];
; 914  :   char init[256];
; 915  :   char op[4];
; 916  :   char *p;
; 917  :   //create valid command and add to LineQueue
; 918  :   do {
; 919  :     //extracting the first parameter "param" before the operator
; 920  :     a = 0;
; 921  :     while (buff[b] && !strchr("=!<>&|-+*^%/", buff[b]))

	movsxd	rbx, r15d
	xor	edi, edi
	add	rbx, r12
	cmp	BYTE PTR [rbx], dil
	je	SHORT $LN276@ForInitAnd
	npad	1
$LL5@ForInitAnd:
	movsx	edx, BYTE PTR [rbx]
	lea	rcx, OFFSET FLAT:$SG11343
	call	strchr
	test	rax, rax
	jne	SHORT $LN555@ForInitAnd

; 922  :     {
; 923  :       if (buff[b] == '-' || buff[b] == '+') break;

	movzx	ecx, BYTE PTR [rbx]
	lea	eax, DWORD PTR [rcx-43]
	test	al, 253					; 000000fdH
	je	SHORT $LN555@ForInitAnd

; 924  :       param[a] = buff[b];
; 925  :       b++;

	inc	rbx
	mov	BYTE PTR param$[rbp+rdi-256], cl
	inc	r15d

; 926  :       a++;

	inc	rdi
	cmp	BYTE PTR [rbx], 0
	jne	SHORT $LL5@ForInitAnd
$LN555@ForInitAnd:
	mov	r9, 145272973819904			; 0000842000000000H
$LN276@ForInitAnd:

; 927  :     }
; 928  :     param[a] = '\0';
; 929  :     //end of param
; 930  :     //is it simple operator
; 931  :     if ((buff[b + 1] == '+') || (buff[b + 1] == '-')){            //if ++ or -- finish it here

	movsxd	rax, r15d
	movzx	edx, BYTE PTR [rax+r12+1]
	lea	rcx, QWORD PTR [rax+r12]
	mov	BYTE PTR param$[rbp+rdi-256], 0
	lea	eax, DWORD PTR [rdx-43]
	test	al, 253					; 000000fdH
	je	$LN23@ForInitAnd

; 938  :     }
; 939  : 
; 940  :     //we finis here "inc REX" or  "dec REX" or "inc mem" or "dec mem"
; 941  :     else						//if not ++ or -- 
; 942  :     {							//extracting the operator
; 943  :       op[0] = buff[b];

	movzx	ebx, BYTE PTR [rcx]

; 944  :       b++;

	inc	r15d
	mov	BYTE PTR op$[rbp-256], bl

; 945  :       if (op[0] == '='){     //if operator is only '='

	cmp	bl, 61					; 0000003dH
	jne	SHORT $LN27@ForInitAnd

; 946  :         op[1] = '\0';       //finish here

	xor	r8b, r8b
	mov	BYTE PTR op$[rbp-255], r8b

; 947  :       }

	jmp	SHORT $LN30@ForInitAnd
$LN27@ForInitAnd:

; 948  :       else {                 //extract next operator
; 949  :         op[1] = buff[b];

	movsxd	rax, r15d

; 950  :         b++;

	inc	r15d
	movzx	r8d, BYTE PTR [rax+r12]
	mov	BYTE PTR op$[rbp-255], r8b
	lea	eax, DWORD PTR [r8-60]
	test	al, 253					; 000000fdH
	jne	SHORT $LN29@ForInitAnd

; 951  :         if ((op[1] == '<' || op[1] == '>') && (buff[b] == '=')){

	movsxd	rax, r15d
	cmp	BYTE PTR [rax+r12], 61			; 0000003dH
	jne	SHORT $LN29@ForInitAnd

; 952  :           op[2] = buff[b]; //if a second operator is shift sign "<<=" or ">>="

	mov	WORD PTR op$[rbp-254], 61		; 0000003dH

; 953  :           op[3] = NULLC;
; 954  :           b++;

	inc	r15d

; 955  :         }

	jmp	SHORT $LN30@ForInitAnd
$LN29@ForInitAnd:

; 956  :         else op[2] = NULLC; //not shift so we have two operands

	mov	BYTE PTR op$[rbp-254], 0
$LN30@ForInitAnd:

; 957  : 
; 958  :       }
; 959  :       //we finished with param and op
; 960  :       //now extracting the second parameter "init" after the operator
; 961  :       for (a = 0; buff[b];){ //checking if we have a char in a single ' '

	movsxd	rax, r15d
	xor	edx, edx
	movzx	ecx, BYTE PTR [rax+r12]
	test	cl, cl
	je	SHORT $LN556@ForInitAnd
$LL7@ForInitAnd:

; 962  :         if (buff[b] == '(' && buff[b - 1] != 39 && buff[b + 1] != 39 && b) break;

	cmp	cl, 40					; 00000028H
	je	SHORT $LN565@ForInitAnd

; 963  :         if (buff[b] == ',' && buff[b - 1] != 39 && buff[b + 1] != 39 && b) break;

	cmp	cl, 44					; 0000002cH
	jne	SHORT $LN33@ForInitAnd
$LN565@ForInitAnd:
	cmp	BYTE PTR [rax+r12-1], 39		; 00000027H
	je	SHORT $LN33@ForInitAnd
	cmp	BYTE PTR [rax+r12+1], 39		; 00000027H
	je	SHORT $LN33@ForInitAnd
	test	rax, rax
	jne	SHORT $LN556@ForInitAnd
$LN33@ForInitAnd:

; 964  :         init[a] = buff[b];
; 965  :         b++;

	inc	rax
	mov	BYTE PTR init$[rbp+rdx-256], cl
	inc	r15d

; 966  :         a++;

	inc	rdx
	movzx	ecx, BYTE PTR [rax+r12]
	test	cl, cl
	jne	SHORT $LL7@ForInitAnd
$LN556@ForInitAnd:

; 967  :       }
; 968  :       if (buff[b] == '(' && buff[b - 1] != 39 && buff[b + 1] != 39 && b){

	movsxd	rax, r15d
	cmp	BYTE PTR [rax+r12], 40			; 00000028H
	lea	rcx, QWORD PTR [rax+r12]
	jne	SHORT $LN34@ForInitAnd
	cmp	BYTE PTR [rcx-1], 39			; 00000027H
	je	SHORT $LN34@ForInitAnd
	cmp	BYTE PTR [rcx+1], 39			; 00000027H
	je	SHORT $LN34@ForInitAnd
	test	r15d, r15d
	je	SHORT $LN34@ForInitAnd
	mov	al, 40					; 00000028H
	npad	6
$LL12@ForInitAnd:

; 969  :         for (; buff[b] && buff[b] != ')'; b++, a++){

	cmp	al, 41					; 00000029H
	je	SHORT $LN11@ForInitAnd
	inc	rcx

; 970  :           init[a] = buff[b];

	mov	BYTE PTR init$[rbp+rdx-256], al
	inc	r15d
	inc	rdx
	movzx	eax, BYTE PTR [rcx]
	test	al, al
	jne	SHORT $LL12@ForInitAnd
$LN11@ForInitAnd:

; 971  :         }
; 972  :         if (buff[b] == ')' && buff[b - 1] != 39 && buff[b + 1] != 39){

	movsxd	rax, r15d
	cmp	BYTE PTR [rax+r12], 41			; 00000029H
	jne	SHORT $LN35@ForInitAnd
	cmp	BYTE PTR [rax+r12-1], 39		; 00000027H
	je	SHORT $LN35@ForInitAnd
	cmp	BYTE PTR [rax+r12+1], 39		; 00000027H
	je	SHORT $LN35@ForInitAnd

; 973  :           init[a] = buff[b];
; 974  :           b++;

	inc	r15d
	mov	BYTE PTR init$[rbp+rdx-256], 41		; 00000029H

; 975  :           a++;

	inc	rdx
$LN35@ForInitAnd:

; 976  :         }
; 977  :         brct = TRUE;

	mov	sil, 1
$LN34@ForInitAnd:

; 978  :       }
; 979  :       init[a] = NULLC;
; 980  :       b++;

	inc	r15d
	mov	BYTE PTR init$[rbp+rdx-256], 0
	cmp	bl, 47					; 0000002fH
	ja	$LN398@ForInitAnd
	movsx	rax, bl
	bt	r9, rax
	jae	$LN398@ForInitAnd

; 981  :       //we finished with init
; 982  :       //is operator devision, multiplication or mod
; 983  :       if (op[0] == '/' || op[0] == '*' || op[0] == '%') {
; 984  :         Tokenize(param, 0, tokenarray, 0);

	xor	r9d, r9d
	lea	rcx, QWORD PTR param$[rbp-256]
	mov	r8, r13
	xor	edx, edx
	call	Tokenize

; 985  :         if (strcasecmp(param, reax) && strcasecmp(init, reax)){ //param not rax init not rax?    

	lea	rdx, OFFSET FLAT:reax
	lea	rcx, QWORD PTR param$[rbp-256]
	call	_stricmp
	test	eax, eax
	je	$LN39@ForInitAnd
	lea	rdx, OFFSET FLAT:reax
	lea	rcx, QWORD PTR init$[rbp-256]
	call	_stricmp
	test	eax, eax
	je	$LN39@ForInitAnd

; 986  :           if (tokenarray[0].token == T_REG){			//is param register              

	movzx	eax, BYTE PTR [r13]
	cmp	al, 2
	jne	$LN41@ForInitAnd

; 987  :             if (strcasecmp(param, recx)){				//make sure that param is not rcx

	lea	rdx, OFFSET FLAT:recx
	lea	rcx, QWORD PTR param$[rbp-256]
	call	_stricmp
	test	eax, eax
	je	$LN43@ForInitAnd

; 988  :               WriteAsmLine(" mov  ", reax, param);				// MOV RAX,param

	xor	ecx, ecx
	lea	rdx, OFFSET FLAT:__ImageBase
	npad	13
$LL157@ForInitAnd:
	movzx	eax, BYTE PTR $SG11371[rcx+rdx]
	mov	BYTE PTR codebuff$22[rsp+rcx], al
	lea	rcx, QWORD PTR [rcx+1]
	test	al, al
	jne	SHORT $LL157@ForInitAnd
	lea	rcx, QWORD PTR codebuff$22[rsp]
	dec	rcx
	npad	4
$LL552@ForInitAnd:
	cmp	BYTE PTR [rcx+1], 0
	lea	rcx, QWORD PTR [rcx+1]
	jne	SHORT $LL552@ForInitAnd
	xor	edx, edx
	lea	r12, OFFSET FLAT:reax
	npad	13
$LL553@ForInitAnd:
	movzx	eax, BYTE PTR [r12+rdx]
	mov	BYTE PTR [rcx+rdx], al
	lea	rdx, QWORD PTR [rdx+1]
	test	al, al
	jne	SHORT $LL553@ForInitAnd
	mov	r12, QWORD PTR buff$[rbp-256]
	lea	rcx, QWORD PTR codebuff$22[rsp]
	dec	rcx
	npad	1
$LL550@ForInitAnd:
	cmp	BYTE PTR [rcx+1], 0
	lea	rcx, QWORD PTR [rcx+1]
	jne	SHORT $LL550@ForInitAnd
	xor	edx, edx
	lea	r8, OFFSET FLAT:$SG11305
	npad	13
$LL551@ForInitAnd:
	movzx	eax, BYTE PTR [r8+rdx]
	mov	BYTE PTR [rcx+rdx], al
	lea	rdx, QWORD PTR [rdx+1]
	test	al, al
	jne	SHORT $LL551@ForInitAnd
	lea	rcx, QWORD PTR codebuff$22[rsp]
	dec	rcx
	npad	8
$LL548@ForInitAnd:
	cmp	BYTE PTR [rcx+1], 0
	lea	rcx, QWORD PTR [rcx+1]
	jne	SHORT $LL548@ForInitAnd
	lea	r8, QWORD PTR param$[rbp-256]
	xor	edx, edx
	npad	13
$LL549@ForInitAnd:
	movzx	eax, BYTE PTR [r8+rdx]
	mov	BYTE PTR [rcx+rdx], al
	lea	rdx, QWORD PTR [rdx+1]
	test	al, al
	jne	SHORT $LL549@ForInitAnd
	lea	rcx, QWORD PTR codebuff$22[rsp]
	call	AddLineQueue
$LN43@ForInitAnd:

; 989  :             }						if (op[0] == '/' || op[0] == '%'){

	cmp	bl, 47					; 0000002fH
	je	SHORT $LN45@ForInitAnd
	cmp	bl, 37					; 00000025H
	jne	SHORT $LN44@ForInitAnd
$LN45@ForInitAnd:

; 990  :               strcpy(codebuff, " cdq ");			//extend to RDX if division	

	xor	ecx, ecx
	lea	r12, OFFSET FLAT:__ImageBase
	npad	3
$LL130@ForInitAnd:
	movzx	eax, BYTE PTR $SG11374[rcx+r12]
	mov	BYTE PTR codebuff$[rbp+rcx-256], al
	lea	rcx, QWORD PTR [rcx+1]
	test	al, al
	jne	SHORT $LL130@ForInitAnd

; 991  :               AddLineQueue(codebuff);

	mov	r12, QWORD PTR buff$[rbp-256]
	lea	rcx, QWORD PTR codebuff$[rbp-256]
	call	AddLineQueue
$LN44@ForInitAnd:

; 992  :             }
; 993  :             Tokenize(init, 0, tokenarray, 0);

	xor	r9d, r9d
	lea	rcx, QWORD PTR init$[rbp-256]
	mov	r8, r13
	xor	edx, edx
	call	Tokenize

; 994  :             if (tokenarray[0].token == T_NUM){      //is init number? 

	cmp	BYTE PTR [r13], 10
	jne	$LN46@ForInitAnd

; 995  :               WriteAsmLine(" mov  ", recx, init);        //MOV RCX,init

	xor	ecx, ecx
	lea	r12, OFFSET FLAT:__ImageBase
	npad	3
$LL160@ForInitAnd:
	movzx	eax, BYTE PTR $SG11377[rcx+r12]
	mov	BYTE PTR codebuff$21[rsp+rcx], al
	lea	rcx, QWORD PTR [rcx+1]
	test	al, al
	jne	SHORT $LL160@ForInitAnd
	lea	rcx, QWORD PTR codebuff$21[rsp]
	dec	rcx
	npad	3
$LL546@ForInitAnd:
	cmp	BYTE PTR [rcx+1], 0
	lea	rcx, QWORD PTR [rcx+1]
	jne	SHORT $LL546@ForInitAnd
	xor	edx, edx
	lea	r12, OFFSET FLAT:recx
	npad	13
$LL547@ForInitAnd:
	movzx	eax, BYTE PTR [r12+rdx]
	mov	BYTE PTR [rcx+rdx], al
	lea	rdx, QWORD PTR [rdx+1]
	test	al, al
	jne	SHORT $LL547@ForInitAnd
	lea	rcx, QWORD PTR codebuff$21[rsp]
	dec	rcx
	npad	8
$LL544@ForInitAnd:
	cmp	BYTE PTR [rcx+1], 0
	lea	rcx, QWORD PTR [rcx+1]
	jne	SHORT $LL544@ForInitAnd
	xor	edx, edx
	lea	r13, OFFSET FLAT:$SG11305
	npad	13
$LL545@ForInitAnd:
	movzx	eax, BYTE PTR [rdx+r13]
	mov	BYTE PTR [rcx+rdx], al
	lea	rdx, QWORD PTR [rdx+1]
	test	al, al
	jne	SHORT $LL545@ForInitAnd
	lea	rcx, QWORD PTR codebuff$21[rsp]
	dec	rcx
	npad	8
$LL542@ForInitAnd:
	cmp	BYTE PTR [rcx+1], 0
	lea	rcx, QWORD PTR [rcx+1]
	jne	SHORT $LL542@ForInitAnd
	lea	r8, QWORD PTR init$[rbp-256]
	xor	edx, edx
	npad	13
$LL543@ForInitAnd:
	movzx	eax, BYTE PTR [r8+rdx]
	mov	BYTE PTR [rcx+rdx], al
	lea	rdx, QWORD PTR [rdx+1]
	test	al, al
	jne	SHORT $LL543@ForInitAnd
	lea	rcx, QWORD PTR codebuff$21[rsp]
	call	AddLineQueue

; 996  :               if (op[0] == '/' || op[0] == '%')

	cmp	bl, 47					; 0000002fH
	je	SHORT $LN50@ForInitAnd
	cmp	bl, 37					; 00000025H
	je	SHORT $LN50@ForInitAnd

; 998  :               else strcpy(codebuff, " imul ");		//IMUL RCX        

	xor	ecx, ecx
	lea	r12, OFFSET FLAT:__ImageBase
	npad	3
$LL132@ForInitAnd:
	movzx	eax, BYTE PTR $SG11382[rcx+r12]
	mov	BYTE PTR codebuff$[rbp+rcx-256], al
	lea	rcx, QWORD PTR [rcx+1]
	test	al, al
	jne	SHORT $LL132@ForInitAnd
	jmp	SHORT $LN566@ForInitAnd
$LN50@ForInitAnd:

; 997  :                 strcpy(codebuff, " idiv ");		//IDIV RCX        

	xor	ecx, ecx
	lea	r12, OFFSET FLAT:__ImageBase
$LL131@ForInitAnd:
	movzx	eax, BYTE PTR $SG11381[rcx+r12]
	mov	BYTE PTR codebuff$[rbp+rcx-256], al
	lea	rcx, QWORD PTR [rcx+1]
	test	al, al
	jne	SHORT $LL131@ForInitAnd
$LN566@ForInitAnd:
	mov	r12, QWORD PTR buff$[rbp-256]

; 999  :               strcat(codebuff, recx);

	lea	rcx, QWORD PTR codebuff$[rbp-256]
	dec	rcx
$LL540@ForInitAnd:
	cmp	BYTE PTR [rcx+1], 0
	lea	rcx, QWORD PTR [rcx+1]
	jne	SHORT $LL540@ForInitAnd
	xor	edx, edx
	lea	r13, OFFSET FLAT:recx
	npad	10
$LL541@ForInitAnd:
	movzx	eax, BYTE PTR [rdx+r13]
	mov	BYTE PTR [rcx+rdx], al
	lea	rdx, QWORD PTR [rdx+1]
	test	al, al
	jne	SHORT $LL541@ForInitAnd

; 1000 :               AddLineQueue(codebuff);
; 1001 :               goto cont;

	jmp	$LN567@ForInitAnd
$LN46@ForInitAnd:

; 1002 :             }
; 1003 :             else {
; 1004 :               if (op[0] == '/' || op[0] == '%') //it is a variable

	cmp	bl, 47					; 0000002fH
	je	SHORT $LN53@ForInitAnd
	cmp	bl, 37					; 00000025H
	je	SHORT $LN53@ForInitAnd

; 1006 :               else strcpy(codebuff, " imul ");

	xor	ecx, ecx
	lea	r12, OFFSET FLAT:__ImageBase
	npad	8
$LL134@ForInitAnd:
	movzx	eax, BYTE PTR $SG11387[rcx+r12]
	mov	BYTE PTR codebuff$[rbp+rcx-256], al
	lea	rcx, QWORD PTR [rcx+1]
	test	al, al
	jne	SHORT $LL134@ForInitAnd
	mov	r12, QWORD PTR buff$[rbp-256]
	jmp	SHORT $LN52@ForInitAnd
$LN53@ForInitAnd:

; 1005 :                 strcpy(codebuff, " idiv ");

	xor	ecx, ecx
	lea	r13, OFFSET FLAT:__ImageBase
	npad	9
$LL133@ForInitAnd:
	movzx	eax, BYTE PTR $SG11386[rcx+r13]
	mov	BYTE PTR codebuff$[rbp+rcx-256], al
	lea	rcx, QWORD PTR [rcx+1]
	test	al, al
	jne	SHORT $LL133@ForInitAnd
	mov	r13, QWORD PTR tokenarray$[rbp-256]
$LN52@ForInitAnd:

; 1007 :               strcat(codebuff, init);

	lea	rcx, QWORD PTR codebuff$[rbp-256]
	dec	rcx
$LL538@ForInitAnd:
	cmp	BYTE PTR [rcx+1], 0
	lea	rcx, QWORD PTR [rcx+1]
	jne	SHORT $LL538@ForInitAnd
	lea	r8, QWORD PTR init$[rbp-256]
	xor	edx, edx
	npad	10
$LL539@ForInitAnd:
	movzx	eax, BYTE PTR [r8+rdx]
	mov	BYTE PTR [rcx+rdx], al
	lea	rdx, QWORD PTR [rdx+1]
	test	al, al
	jne	SHORT $LL539@ForInitAnd

; 1008 :               AddLineQueue(codebuff);
; 1009 :               goto cont;

	jmp	$LN568@ForInitAnd
$LN41@ForInitAnd:

; 1010 :             }
; 1011 :           }
; 1012 :           //if param is a variable
; 1013 :           else if (tokenarray[0].token == T_ID){		 //YES             

	cmp	al, 8
	jne	$LN561@ForInitAnd

; 1014 :             WriteAsmLine(" mov  ", recx, init);        //MOV RCX,init

	xor	ecx, ecx
	lea	r12, OFFSET FLAT:__ImageBase
	npad	10
$LL163@ForInitAnd:
	movzx	eax, BYTE PTR $SG11389[rcx+r12]
	mov	BYTE PTR codebuff$20[rsp+rcx], al
	lea	rcx, QWORD PTR [rcx+1]
	test	al, al
	jne	SHORT $LL163@ForInitAnd
	lea	rcx, QWORD PTR codebuff$20[rsp]
	dec	rcx
	npad	3
$LL536@ForInitAnd:
	cmp	BYTE PTR [rcx+1], 0
	lea	rcx, QWORD PTR [rcx+1]
	jne	SHORT $LL536@ForInitAnd
	xor	edx, edx
	lea	r13, OFFSET FLAT:recx
	npad	13
$LL537@ForInitAnd:
	movzx	eax, BYTE PTR [rdx+r13]
	mov	BYTE PTR [rcx+rdx], al
	lea	rdx, QWORD PTR [rdx+1]
	test	al, al
	jne	SHORT $LL537@ForInitAnd
	lea	rcx, QWORD PTR codebuff$20[rsp]
	dec	rcx
	npad	8
$LL534@ForInitAnd:
	cmp	BYTE PTR [rcx+1], 0
	lea	rcx, QWORD PTR [rcx+1]
	jne	SHORT $LL534@ForInitAnd
	xor	edx, edx
	lea	r13, OFFSET FLAT:$SG11305
	npad	13
$LL535@ForInitAnd:
	movzx	eax, BYTE PTR [rdx+r13]
	mov	BYTE PTR [rcx+rdx], al
	lea	rdx, QWORD PTR [rdx+1]
	test	al, al
	jne	SHORT $LL535@ForInitAnd
	lea	rcx, QWORD PTR codebuff$20[rsp]
	dec	rcx
	npad	8
$LL532@ForInitAnd:
	cmp	BYTE PTR [rcx+1], 0
	lea	rcx, QWORD PTR [rcx+1]
	jne	SHORT $LL532@ForInitAnd
	lea	r8, QWORD PTR init$[rbp-256]
	xor	edx, edx
	npad	13
$LL533@ForInitAnd:
	movzx	eax, BYTE PTR [r8+rdx]
	mov	BYTE PTR [rcx+rdx], al
	lea	rdx, QWORD PTR [rdx+1]
	test	al, al
	jne	SHORT $LL533@ForInitAnd
	lea	rcx, QWORD PTR codebuff$20[rsp]
	call	AddLineQueue

; 1015 :             WriteAsmLine(" mov  ", reax, param);		// MOV RAX,param

	xor	ecx, ecx
	lea	r12, OFFSET FLAT:__ImageBase
$LL166@ForInitAnd:
	movzx	eax, BYTE PTR $SG11390[rcx+r12]
	mov	BYTE PTR codebuff$19[rsp+rcx], al
	lea	rcx, QWORD PTR [rcx+1]
	test	al, al
	jne	SHORT $LL166@ForInitAnd
	lea	rcx, QWORD PTR codebuff$19[rsp]
	dec	rcx
$LL530@ForInitAnd:
	cmp	BYTE PTR [rcx+1], 0
	lea	rcx, QWORD PTR [rcx+1]
	jne	SHORT $LL530@ForInitAnd
	xor	edx, edx
	lea	r12, OFFSET FLAT:reax
	npad	13
$LL531@ForInitAnd:
	movzx	eax, BYTE PTR [r12+rdx]
	mov	BYTE PTR [rcx+rdx], al
	lea	rdx, QWORD PTR [rdx+1]
	test	al, al
	jne	SHORT $LL531@ForInitAnd
	lea	rcx, QWORD PTR codebuff$19[rsp]
	dec	rcx
	npad	8
$LL528@ForInitAnd:
	cmp	BYTE PTR [rcx+1], 0
	lea	rcx, QWORD PTR [rcx+1]
	jne	SHORT $LL528@ForInitAnd
	xor	edx, edx
	lea	r13, OFFSET FLAT:$SG11305
	npad	13
$LL529@ForInitAnd:
	movzx	eax, BYTE PTR [rdx+r13]
	mov	BYTE PTR [rcx+rdx], al
	lea	rdx, QWORD PTR [rdx+1]
	test	al, al
	jne	SHORT $LL529@ForInitAnd
	lea	rcx, QWORD PTR codebuff$19[rsp]
	dec	rcx
	npad	8
$LL526@ForInitAnd:
	cmp	BYTE PTR [rcx+1], 0
	lea	rcx, QWORD PTR [rcx+1]
	jne	SHORT $LL526@ForInitAnd
	lea	r8, QWORD PTR param$[rbp-256]
	xor	edx, edx
	npad	13
$LL527@ForInitAnd:
	movzx	eax, BYTE PTR [r8+rdx]
	mov	BYTE PTR [rcx+rdx], al
	lea	rdx, QWORD PTR [rdx+1]
	test	al, al
	jne	SHORT $LL527@ForInitAnd
	lea	rcx, QWORD PTR codebuff$19[rsp]
	call	AddLineQueue

; 1016 :             if (op[0] == '/' || op[0] == '%'){

	cmp	bl, 47					; 0000002fH
	je	SHORT $LN57@ForInitAnd
	cmp	bl, 37					; 00000025H
	je	SHORT $LN57@ForInitAnd

; 1020 :             }
; 1021 :             else strcpy(codebuff, " imul ");

	xor	ecx, ecx
	lea	r12, OFFSET FLAT:__ImageBase
	npad	3
$LL137@ForInitAnd:
	movzx	eax, BYTE PTR $SG11396[rcx+r12]
	mov	BYTE PTR codebuff$[rbp+rcx-256], al
	lea	rcx, QWORD PTR [rcx+1]
	test	al, al
	jne	SHORT $LL137@ForInitAnd
	jmp	SHORT $LN569@ForInitAnd
$LN57@ForInitAnd:

; 1017 :               strcpy(codebuff, " cdq ");

	xor	ecx, ecx
	lea	r13, OFFSET FLAT:__ImageBase
$LL135@ForInitAnd:
	movzx	eax, BYTE PTR $SG11394[rcx+r13]
	mov	BYTE PTR codebuff$[rbp+rcx-256], al
	lea	rcx, QWORD PTR [rcx+1]
	test	al, al
	jne	SHORT $LL135@ForInitAnd

; 1018 :               AddLineQueue(codebuff);

	lea	rcx, QWORD PTR codebuff$[rbp-256]
	call	AddLineQueue

; 1019 :               strcpy(codebuff, " idiv ");

	xor	ecx, ecx
	lea	r12, OFFSET FLAT:__ImageBase
	npad	9
$LL136@ForInitAnd:
	movzx	eax, BYTE PTR $SG11395[rcx+r12]
	mov	BYTE PTR codebuff$[rbp+rcx-256], al
	lea	rcx, QWORD PTR [rcx+1]
	test	al, al
	jne	SHORT $LL136@ForInitAnd
$LN569@ForInitAnd:
	mov	r12, QWORD PTR buff$[rbp-256]

; 1022 :             strcat(codebuff, recx);

	lea	rcx, QWORD PTR codebuff$[rbp-256]
	dec	rcx
$LL524@ForInitAnd:
	cmp	BYTE PTR [rcx+1], 0
	lea	rcx, QWORD PTR [rcx+1]
	jne	SHORT $LL524@ForInitAnd
	xor	edx, edx
	lea	r13, OFFSET FLAT:recx
	npad	10
$LL525@ForInitAnd:
	movzx	eax, BYTE PTR [rdx+r13]
	mov	BYTE PTR [rcx+rdx], al
	lea	rdx, QWORD PTR [rdx+1]
	test	al, al
	jne	SHORT $LL525@ForInitAnd
$LN567@ForInitAnd:
	mov	r13, QWORD PTR tokenarray$[rbp-256]
$LN568@ForInitAnd:

; 1023 :             AddLineQueue(codebuff);

	lea	rcx, QWORD PTR codebuff$[rbp-256]
	call	AddLineQueue
$cont$577:

; 1024 :           cont:
; 1025 :             if (op[0] == '%') {
; 1026 :               WriteAsmLine(" mov  ", param, redx);

	xor	ecx, ecx
	cmp	bl, 37					; 00000025H
	lea	rbx, OFFSET FLAT:__ImageBase
	jne	$LL172@ForInitAnd
	npad	14
$LL169@ForInitAnd:
	movzx	eax, BYTE PTR $SG11399[rcx+rbx]
	mov	BYTE PTR codebuff$18[rsp+rcx], al
	lea	rcx, QWORD PTR [rcx+1]
	test	al, al
	jne	SHORT $LL169@ForInitAnd
	lea	rcx, QWORD PTR codebuff$18[rsp]
	dec	rcx
	npad	4
$LL522@ForInitAnd:
	cmp	BYTE PTR [rcx+1], 0
	lea	rcx, QWORD PTR [rcx+1]
	jne	SHORT $LL522@ForInitAnd
	lea	r8, QWORD PTR param$[rbp-256]
	xor	edx, edx
	npad	13
$LL523@ForInitAnd:
	movzx	eax, BYTE PTR [r8+rdx]
	mov	BYTE PTR [rcx+rdx], al
	lea	rdx, QWORD PTR [rdx+1]
	test	al, al
	jne	SHORT $LL523@ForInitAnd
	lea	rcx, QWORD PTR codebuff$18[rsp]
	dec	rcx
	npad	8
$LL520@ForInitAnd:
	cmp	BYTE PTR [rcx+1], 0
	lea	rcx, QWORD PTR [rcx+1]
	jne	SHORT $LL520@ForInitAnd
	xor	edx, edx
	lea	rbx, OFFSET FLAT:$SG11305
	npad	13
$LL521@ForInitAnd:
	movzx	eax, BYTE PTR [rbx+rdx]
	mov	BYTE PTR [rcx+rdx], al
	lea	rdx, QWORD PTR [rdx+1]
	test	al, al
	jne	SHORT $LL521@ForInitAnd
	lea	rcx, QWORD PTR codebuff$18[rsp]
	dec	rcx
	npad	9
$LL518@ForInitAnd:
	cmp	BYTE PTR [rcx+1], 0
	lea	rcx, QWORD PTR [rcx+1]
	jne	SHORT $LL518@ForInitAnd
	xor	edx, edx
	lea	r13, OFFSET FLAT:redx
	npad	13
$LL519@ForInitAnd:
	movzx	eax, BYTE PTR [rdx+r13]
	mov	BYTE PTR [rcx+rdx], al
	inc	rdx
	test	al, al
	jne	SHORT $LL519@ForInitAnd
	mov	r13, QWORD PTR tokenarray$[rbp-256]
	lea	rcx, QWORD PTR codebuff$18[rsp]
	call	AddLineQueue

; 1027 :               goto skip;

	jmp	$skip$578
	npad	11

; 1028 :             }
; 1029 :             else {
; 1030 :               WriteAsmLine(" mov  ", param, reax);

$LL172@ForInitAnd:
	movzx	eax, BYTE PTR $SG11400[rcx+rbx]
	mov	BYTE PTR codebuff$17[rsp+rcx], al
	lea	rcx, QWORD PTR [rcx+1]
	test	al, al
	jne	SHORT $LL172@ForInitAnd
	lea	rcx, QWORD PTR codebuff$17[rsp]
	dec	rcx
	npad	4
$LL516@ForInitAnd:
	cmp	BYTE PTR [rcx+1], 0
	lea	rcx, QWORD PTR [rcx+1]
	jne	SHORT $LL516@ForInitAnd
	lea	r8, QWORD PTR param$[rbp-256]
	xor	edx, edx
	npad	13
$LL517@ForInitAnd:
	movzx	eax, BYTE PTR [r8+rdx]
	mov	BYTE PTR [rcx+rdx], al
	lea	rdx, QWORD PTR [rdx+1]
	test	al, al
	jne	SHORT $LL517@ForInitAnd
	lea	rcx, QWORD PTR codebuff$17[rsp]
	dec	rcx
	npad	8
$LL514@ForInitAnd:
	cmp	BYTE PTR [rcx+1], 0
	lea	rcx, QWORD PTR [rcx+1]
	jne	SHORT $LL514@ForInitAnd
	xor	edx, edx
	lea	rbx, OFFSET FLAT:$SG11305
	npad	13
$LL515@ForInitAnd:
	movzx	eax, BYTE PTR [rbx+rdx]
	mov	BYTE PTR [rcx+rdx], al
	lea	rdx, QWORD PTR [rdx+1]
	test	al, al
	jne	SHORT $LL515@ForInitAnd
	lea	rcx, QWORD PTR codebuff$17[rsp]
	dec	rcx
	npad	9
$LL512@ForInitAnd:
	cmp	BYTE PTR [rcx+1], 0
	lea	rcx, QWORD PTR [rcx+1]
	jne	SHORT $LL512@ForInitAnd
	xor	edx, edx
	lea	r12, OFFSET FLAT:reax
	npad	13
$LL513@ForInitAnd:
	movzx	eax, BYTE PTR [r12+rdx]
	mov	BYTE PTR [rcx+rdx], al
	inc	rdx
	test	al, al
	jne	SHORT $LL513@ForInitAnd
	mov	r12, QWORD PTR buff$[rbp-256]
	lea	rcx, QWORD PTR codebuff$17[rsp]
	call	AddLineQueue

; 1031 :               goto skip;

	jmp	$skip$578
$LN39@ForInitAnd:

; 1032 :             }
; 1033 :           }
; 1034 :         }
; 1035 :         // if param is not RAX and init is RCX
; 1036 :         else if ((strcasecmp(param, reax) && !(strcasecmp(init, recx)))){

	lea	rdx, OFFSET FLAT:reax
	lea	rcx, QWORD PTR param$[rbp-256]
	call	_stricmp
	test	eax, eax
	je	$LN60@ForInitAnd
	lea	rdx, OFFSET FLAT:recx
	lea	rcx, QWORD PTR init$[rbp-256]
	call	_stricmp
	test	eax, eax
	jne	$LN60@ForInitAnd

; 1037 :           if (op[0] == '/' || op[0] == '%'){

	cmp	bl, 47					; 0000002fH
	je	SHORT $LN64@ForInitAnd
	cmp	bl, 37					; 00000025H
	je	SHORT $LN64@ForInitAnd

; 1041 :           }
; 1042 :           else strcpy(codebuff, " imul ");

	xor	ecx, ecx
	lea	r12, OFFSET FLAT:__ImageBase
	npad	2
$LL140@ForInitAnd:
	movzx	eax, BYTE PTR $SG11408[rcx+r12]
	mov	BYTE PTR codebuff$[rbp+rcx-256], al
	lea	rcx, QWORD PTR [rcx+1]
	test	al, al
	jne	SHORT $LL140@ForInitAnd
	jmp	SHORT $LN570@ForInitAnd
$LN64@ForInitAnd:

; 1038 :             strcpy(codebuff, " cdq ");

	xor	ecx, ecx
	lea	r13, OFFSET FLAT:__ImageBase
$LL138@ForInitAnd:
	movzx	eax, BYTE PTR $SG11406[rcx+r13]
	mov	BYTE PTR codebuff$[rbp+rcx-256], al
	lea	rcx, QWORD PTR [rcx+1]
	test	al, al
	jne	SHORT $LL138@ForInitAnd

; 1039 :             AddLineQueue(codebuff);

	lea	rcx, QWORD PTR codebuff$[rbp-256]
	call	AddLineQueue

; 1040 :             strcpy(codebuff, " idiv ");

	xor	ecx, ecx
	lea	r12, OFFSET FLAT:__ImageBase
	npad	9
$LL139@ForInitAnd:
	movzx	eax, BYTE PTR $SG11407[rcx+r12]
	mov	BYTE PTR codebuff$[rbp+rcx-256], al
	lea	rcx, QWORD PTR [rcx+1]
	test	al, al
	jne	SHORT $LL139@ForInitAnd
$LN570@ForInitAnd:
	mov	r12, QWORD PTR buff$[rbp-256]

; 1043 :           strcat(codebuff, recx);

	lea	rcx, QWORD PTR codebuff$[rbp-256]
	dec	rcx
$LL510@ForInitAnd:
	cmp	BYTE PTR [rcx+1], 0
	lea	rcx, QWORD PTR [rcx+1]
	jne	SHORT $LL510@ForInitAnd
	xor	edx, edx
	lea	r13, OFFSET FLAT:recx
	npad	10
$LL511@ForInitAnd:
	movzx	eax, BYTE PTR [rdx+r13]
	mov	BYTE PTR [rcx+rdx], al
	inc	rdx
	test	al, al
	jne	SHORT $LL511@ForInitAnd

; 1044 :           AddLineQueue(codebuff);

	mov	r13, QWORD PTR tokenarray$[rbp-256]
	lea	rcx, QWORD PTR codebuff$[rbp-256]
	call	AddLineQueue

; 1045 :           if (op[0] == '%') WriteAsmLine(" mov  ", param, redx);

	cmp	bl, 37					; 00000025H
	jne	$skip$578
	xor	ecx, ecx
	lea	rbx, OFFSET FLAT:__ImageBase
	npad	15
$LL175@ForInitAnd:
	movzx	eax, BYTE PTR $SG11410[rcx+rbx]
	mov	BYTE PTR codebuff$16[rsp+rcx], al
	lea	rcx, QWORD PTR [rcx+1]
	test	al, al
	jne	SHORT $LL175@ForInitAnd
	lea	rcx, QWORD PTR codebuff$16[rsp]
	dec	rcx
	npad	4
$LL508@ForInitAnd:
	cmp	BYTE PTR [rcx+1], 0
	lea	rcx, QWORD PTR [rcx+1]
	jne	SHORT $LL508@ForInitAnd
	lea	r8, QWORD PTR param$[rbp-256]
	xor	edx, edx
	npad	13
$LL509@ForInitAnd:
	movzx	eax, BYTE PTR [r8+rdx]
	mov	BYTE PTR [rcx+rdx], al
	lea	rdx, QWORD PTR [rdx+1]
	test	al, al
	jne	SHORT $LL509@ForInitAnd
	lea	rcx, QWORD PTR codebuff$16[rsp]
	dec	rcx
	npad	8
$LL506@ForInitAnd:
	cmp	BYTE PTR [rcx+1], 0
	lea	rcx, QWORD PTR [rcx+1]
	jne	SHORT $LL506@ForInitAnd
	xor	edx, edx
	lea	rbx, OFFSET FLAT:$SG11305
	npad	13
$LL507@ForInitAnd:
	movzx	eax, BYTE PTR [rbx+rdx]
	mov	BYTE PTR [rcx+rdx], al
	lea	rdx, QWORD PTR [rdx+1]
	test	al, al
	jne	SHORT $LL507@ForInitAnd
	lea	rcx, QWORD PTR codebuff$16[rsp]
	dec	rcx
	npad	9
$LL504@ForInitAnd:
	cmp	BYTE PTR [rcx+1], 0
	lea	rcx, QWORD PTR [rcx+1]
	jne	SHORT $LL504@ForInitAnd
	xor	edx, edx
	lea	r12, OFFSET FLAT:redx
	npad	13
$LL505@ForInitAnd:
	movzx	eax, BYTE PTR [r12+rdx]
	mov	BYTE PTR [rcx+rdx], al
	inc	rdx
	test	al, al
	jne	SHORT $LL505@ForInitAnd
	mov	r12, QWORD PTR buff$[rbp-256]
	lea	rcx, QWORD PTR codebuff$16[rsp]
	call	AddLineQueue

; 1046 :           goto skip;

	jmp	$skip$578
$LN60@ForInitAnd:

; 1047 :         }
; 1048 :         // if param is RAX and init is RCX
; 1049 :         else if ((!(strcasecmp(param, reax)) && (!(strcmp(init, recx))))){

	lea	rdx, OFFSET FLAT:reax
	lea	rcx, QWORD PTR param$[rbp-256]
	call	_stricmp
	test	eax, eax
	jne	$LN66@ForInitAnd
	lea	r9, OFFSET FLAT:recx
	mov	r8, r9
	lea	rax, QWORD PTR init$[rbp-256]
	sub	r8, rax
$LL502@ForInitAnd:
	movzx	edx, BYTE PTR [rax]
	movzx	ecx, BYTE PTR [rax+r8]
	sub	edx, ecx
	jne	SHORT $LN503@ForInitAnd
	inc	rax
	test	ecx, ecx
	jne	SHORT $LL502@ForInitAnd
$LN503@ForInitAnd:
	test	edx, edx
	jne	$LN66@ForInitAnd

; 1050 :           if (op[0] == '/' || op[0] == '%'){

	cmp	bl, 47					; 0000002fH
	je	SHORT $LN70@ForInitAnd
	cmp	bl, 37					; 00000025H
	je	SHORT $LN70@ForInitAnd

; 1054 :           }
; 1055 :           else strcpy(codebuff, " imul ");

	xor	ecx, ecx
	lea	r12, OFFSET FLAT:__ImageBase
$LL143@ForInitAnd:
	movzx	eax, BYTE PTR $SG11418[rcx+r12]
	mov	BYTE PTR codebuff$[rbp+rcx-256], al
	lea	rcx, QWORD PTR [rcx+1]
	test	al, al
	jne	SHORT $LL143@ForInitAnd
	jmp	SHORT $LN571@ForInitAnd
$LN70@ForInitAnd:

; 1051 :             strcpy(codebuff, " cdq ");

	xor	ecx, ecx
	lea	r13, OFFSET FLAT:__ImageBase
$LL141@ForInitAnd:
	movzx	eax, BYTE PTR $SG11416[rcx+r13]
	mov	BYTE PTR codebuff$[rbp+rcx-256], al
	lea	rcx, QWORD PTR [rcx+1]
	test	al, al
	jne	SHORT $LL141@ForInitAnd

; 1052 :             AddLineQueue(codebuff);

	mov	r13, QWORD PTR tokenarray$[rbp-256]
	lea	rcx, QWORD PTR codebuff$[rbp-256]
	call	AddLineQueue

; 1053 :             strcpy(codebuff, " idiv ");

	xor	ecx, ecx
	lea	r12, OFFSET FLAT:__ImageBase
$LL142@ForInitAnd:
	movzx	eax, BYTE PTR $SG11417[rcx+r12]
	mov	BYTE PTR codebuff$[rbp+rcx-256], al
	lea	rcx, QWORD PTR [rcx+1]
	test	al, al
	jne	SHORT $LL142@ForInitAnd
	lea	r9, OFFSET FLAT:recx
$LN571@ForInitAnd:
	mov	r12, QWORD PTR buff$[rbp-256]

; 1056 :           strcat(codebuff, recx);

	lea	rcx, QWORD PTR codebuff$[rbp-256]
	dec	rcx
	npad	6
$LL500@ForInitAnd:
	cmp	BYTE PTR [rcx+1], 0
	lea	rcx, QWORD PTR [rcx+1]
	jne	SHORT $LL500@ForInitAnd
	xor	edx, edx
	npad	4
$LL501@ForInitAnd:
	movzx	eax, BYTE PTR [r9+rdx]
	mov	BYTE PTR [rcx+rdx], al
	inc	rdx
	test	al, al
	jne	SHORT $LL501@ForInitAnd

; 1057 :           AddLineQueue(codebuff);

	lea	rcx, QWORD PTR codebuff$[rbp-256]
	call	AddLineQueue

; 1058 :           if (op[0] == '%') WriteAsmLine(" mov  ", param, redx);

	cmp	bl, 37					; 00000025H
	jne	$skip$578
	xor	ecx, ecx
	lea	rbx, OFFSET FLAT:__ImageBase
	npad	6
$LL178@ForInitAnd:
	movzx	eax, BYTE PTR $SG11420[rcx+rbx]
	mov	BYTE PTR codebuff$15[rsp+rcx], al
	lea	rcx, QWORD PTR [rcx+1]
	test	al, al
	jne	SHORT $LL178@ForInitAnd
	lea	rcx, QWORD PTR codebuff$15[rsp]
	dec	rcx
	npad	4
$LL498@ForInitAnd:
	cmp	BYTE PTR [rcx+1], 0
	lea	rcx, QWORD PTR [rcx+1]
	jne	SHORT $LL498@ForInitAnd
	lea	r8, QWORD PTR param$[rbp-256]
	xor	edx, edx
	npad	13
$LL499@ForInitAnd:
	movzx	eax, BYTE PTR [r8+rdx]
	mov	BYTE PTR [rcx+rdx], al
	lea	rdx, QWORD PTR [rdx+1]
	test	al, al
	jne	SHORT $LL499@ForInitAnd
	lea	rcx, QWORD PTR codebuff$15[rsp]
	dec	rcx
	npad	8
$LL496@ForInitAnd:
	cmp	BYTE PTR [rcx+1], 0
	lea	rcx, QWORD PTR [rcx+1]
	jne	SHORT $LL496@ForInitAnd
	xor	edx, edx
	lea	rbx, OFFSET FLAT:$SG11305
	npad	13
$LL497@ForInitAnd:
	movzx	eax, BYTE PTR [rbx+rdx]
	mov	BYTE PTR [rcx+rdx], al
	lea	rdx, QWORD PTR [rdx+1]
	test	al, al
	jne	SHORT $LL497@ForInitAnd
	lea	rcx, QWORD PTR codebuff$15[rsp]
	dec	rcx
	npad	9
$LL494@ForInitAnd:
	cmp	BYTE PTR [rcx+1], 0
	lea	rcx, QWORD PTR [rcx+1]
	jne	SHORT $LL494@ForInitAnd
	xor	edx, edx
	lea	r13, OFFSET FLAT:redx
	npad	13
$LL495@ForInitAnd:
	movzx	eax, BYTE PTR [rdx+r13]
	mov	BYTE PTR [rcx+rdx], al
	inc	rdx
	test	al, al
	jne	SHORT $LL495@ForInitAnd
	mov	r13, QWORD PTR tokenarray$[rbp-256]
	lea	rcx, QWORD PTR codebuff$15[rsp]
	call	AddLineQueue

; 1059 :           goto skip;

	jmp	$skip$578
$LN66@ForInitAnd:

; 1060 :         }
; 1061 :         // if param is RAX and init is not RCX
; 1062 :         else if (!(strcasecmp(param, reax) && (strcasecmp(init, recx)))){

	lea	rdx, OFFSET FLAT:reax
	lea	rcx, QWORD PTR param$[rbp-256]
	call	_stricmp
	test	eax, eax
	je	SHORT $LN73@ForInitAnd
	lea	rdx, OFFSET FLAT:recx
	lea	rcx, QWORD PTR init$[rbp-256]
	call	_stricmp
	test	eax, eax
	jne	$LN561@ForInitAnd
$LN73@ForInitAnd:

; 1063 :           WriteAsmLine(" mov  ", recx, init);        //MOV RCX,init

	xor	ecx, ecx
	lea	r12, OFFSET FLAT:__ImageBase
$LL181@ForInitAnd:
	movzx	eax, BYTE PTR $SG11423[rcx+r12]
	mov	BYTE PTR codebuff$14[rsp+rcx], al
	lea	rcx, QWORD PTR [rcx+1]
	test	al, al
	jne	SHORT $LL181@ForInitAnd
	lea	rcx, QWORD PTR codebuff$14[rsp]
	dec	rcx
	npad	3
$LL492@ForInitAnd:
	cmp	BYTE PTR [rcx+1], 0
	lea	rcx, QWORD PTR [rcx+1]
	jne	SHORT $LL492@ForInitAnd
	xor	edx, edx
	lea	r13, OFFSET FLAT:recx
	npad	13
$LL493@ForInitAnd:
	movzx	eax, BYTE PTR [rdx+r13]
	mov	BYTE PTR [rcx+rdx], al
	lea	rdx, QWORD PTR [rdx+1]
	test	al, al
	jne	SHORT $LL493@ForInitAnd
	lea	rcx, QWORD PTR codebuff$14[rsp]
	dec	rcx
	npad	8
$LL490@ForInitAnd:
	cmp	BYTE PTR [rcx+1], 0
	lea	rcx, QWORD PTR [rcx+1]
	jne	SHORT $LL490@ForInitAnd
	xor	edx, edx
	lea	r13, OFFSET FLAT:$SG11305
	npad	13
$LL491@ForInitAnd:
	movzx	eax, BYTE PTR [rdx+r13]
	mov	BYTE PTR [rcx+rdx], al
	lea	rdx, QWORD PTR [rdx+1]
	test	al, al
	jne	SHORT $LL491@ForInitAnd
	mov	r13, QWORD PTR tokenarray$[rbp-256]
	lea	rcx, QWORD PTR codebuff$14[rsp]
	dec	rcx
	npad	1
$LL488@ForInitAnd:
	cmp	BYTE PTR [rcx+1], 0
	lea	rcx, QWORD PTR [rcx+1]
	jne	SHORT $LL488@ForInitAnd
	lea	r8, QWORD PTR init$[rbp-256]
	xor	edx, edx
	npad	13
$LL489@ForInitAnd:
	movzx	eax, BYTE PTR [r8+rdx]
	mov	BYTE PTR [rcx+rdx], al
	lea	rdx, QWORD PTR [rdx+1]
	test	al, al
	jne	SHORT $LL489@ForInitAnd
	lea	rcx, QWORD PTR codebuff$14[rsp]
	call	AddLineQueue

; 1064 :           if (op[0] == '/' || op[0] == '%'){

	cmp	bl, 47					; 0000002fH
	je	SHORT $LN76@ForInitAnd
	cmp	bl, 37					; 00000025H
	je	SHORT $LN76@ForInitAnd

; 1068 :           }
; 1069 :           else strcpy(codebuff, " imul ");

	xor	ecx, ecx
	lea	r12, OFFSET FLAT:__ImageBase
	npad	3
$LL146@ForInitAnd:
	movzx	eax, BYTE PTR $SG11429[rcx+r12]
	mov	BYTE PTR codebuff$[rbp+rcx-256], al
	lea	rcx, QWORD PTR [rcx+1]
	test	al, al
	jne	SHORT $LL146@ForInitAnd
	jmp	SHORT $LN75@ForInitAnd
$LN76@ForInitAnd:

; 1065 :             strcpy(codebuff, " cdq ");

	xor	ecx, ecx
	lea	r13, OFFSET FLAT:__ImageBase
$LL144@ForInitAnd:
	movzx	eax, BYTE PTR $SG11427[rcx+r13]
	mov	BYTE PTR codebuff$[rbp+rcx-256], al
	lea	rcx, QWORD PTR [rcx+1]
	test	al, al
	jne	SHORT $LL144@ForInitAnd

; 1066 :             AddLineQueue(codebuff);

	mov	r13, QWORD PTR tokenarray$[rbp-256]
	lea	rcx, QWORD PTR codebuff$[rbp-256]
	call	AddLineQueue

; 1067 :             strcpy(codebuff, " idiv ");

	xor	ecx, ecx
	lea	r12, OFFSET FLAT:__ImageBase
	npad	2
$LL145@ForInitAnd:
	movzx	eax, BYTE PTR $SG11428[rcx+r12]
	mov	BYTE PTR codebuff$[rbp+rcx-256], al
	lea	rcx, QWORD PTR [rcx+1]
	test	al, al
	jne	SHORT $LL145@ForInitAnd
$LN75@ForInitAnd:

; 1070 :           strcat(codebuff, recx);

	lea	rcx, QWORD PTR codebuff$[rbp-256]
	dec	rcx
	npad	4
$LL486@ForInitAnd:
	cmp	BYTE PTR [rcx+1], 0
	lea	rcx, QWORD PTR [rcx+1]
	jne	SHORT $LL486@ForInitAnd
	xor	edx, edx
	lea	r12, OFFSET FLAT:recx
	npad	13
$LL487@ForInitAnd:
	movzx	eax, BYTE PTR [r12+rdx]
	mov	BYTE PTR [rcx+rdx], al
	inc	rdx
	test	al, al
	jne	SHORT $LL487@ForInitAnd

; 1071 :           AddLineQueue(codebuff);

	mov	r12, QWORD PTR buff$[rbp-256]
	lea	rcx, QWORD PTR codebuff$[rbp-256]
	call	AddLineQueue

; 1072 :           if (op[0] == '%') WriteAsmLine(" mov  ", param, redx);

	cmp	bl, 37					; 00000025H
	jne	$skip$578
	xor	ecx, ecx
	lea	rbx, OFFSET FLAT:__ImageBase
	npad	15
$LL184@ForInitAnd:
	movzx	eax, BYTE PTR $SG11431[rcx+rbx]
	mov	BYTE PTR codebuff$13[rsp+rcx], al
	lea	rcx, QWORD PTR [rcx+1]
	test	al, al
	jne	SHORT $LL184@ForInitAnd
	lea	rcx, QWORD PTR codebuff$13[rsp]
	dec	rcx
	npad	4
$LL484@ForInitAnd:
	cmp	BYTE PTR [rcx+1], 0
	lea	rcx, QWORD PTR [rcx+1]
	jne	SHORT $LL484@ForInitAnd
	lea	r8, QWORD PTR param$[rbp-256]
	xor	edx, edx
	npad	13
$LL485@ForInitAnd:
	movzx	eax, BYTE PTR [r8+rdx]
	mov	BYTE PTR [rcx+rdx], al
	lea	rdx, QWORD PTR [rdx+1]
	test	al, al
	jne	SHORT $LL485@ForInitAnd
	lea	rcx, QWORD PTR codebuff$13[rsp]
	dec	rcx
	npad	8
$LL482@ForInitAnd:
	cmp	BYTE PTR [rcx+1], 0
	lea	rcx, QWORD PTR [rcx+1]
	jne	SHORT $LL482@ForInitAnd
	xor	edx, edx
	lea	rbx, OFFSET FLAT:$SG11305
	npad	13
$LL483@ForInitAnd:
	movzx	eax, BYTE PTR [rbx+rdx]
	mov	BYTE PTR [rcx+rdx], al
	lea	rdx, QWORD PTR [rdx+1]
	test	al, al
	jne	SHORT $LL483@ForInitAnd
	lea	rcx, QWORD PTR codebuff$13[rsp]
	dec	rcx
	npad	9
$LL480@ForInitAnd:
	cmp	BYTE PTR [rcx+1], 0
	lea	rcx, QWORD PTR [rcx+1]
	jne	SHORT $LL480@ForInitAnd
	xor	edx, edx
	lea	r12, OFFSET FLAT:redx
	npad	13
$LL481@ForInitAnd:
	movzx	eax, BYTE PTR [r12+rdx]
	mov	BYTE PTR [rcx+rdx], al
	inc	rdx
	test	al, al
	jne	SHORT $LL481@ForInitAnd
	mov	r12, QWORD PTR buff$[rbp-256]
	lea	rcx, QWORD PTR codebuff$13[rsp]
	call	AddLineQueue

; 1073 :           goto skip;

	jmp	$skip$578
$LN398@ForInitAnd:

; 1074 :         }
; 1075 :       }
; 1076 :       //if operator not devision, multiplication or mod
; 1077 :       else if (op[0] == '-') strcpy(codebuff, " sub ");

	cmp	bl, 45					; 0000002dH
	jne	SHORT $LN78@ForInitAnd
	xor	ecx, ecx
	lea	rbx, OFFSET FLAT:__ImageBase
	npad	13
$LL147@ForInitAnd:
	movzx	eax, BYTE PTR $SG11434[rcx+rbx]
	mov	BYTE PTR codebuff$[rbp+rcx-256], al
	lea	rcx, QWORD PTR [rcx+1]
	test	al, al
	jne	SHORT $LL147@ForInitAnd
	jmp	$LN72@ForInitAnd
$LN78@ForInitAnd:

; 1078 :       else if (op[0] == '+') strcpy(codebuff, " add ");

	cmp	bl, 43					; 0000002bH
	jne	SHORT $LN80@ForInitAnd
	xor	ecx, ecx
	lea	rbx, OFFSET FLAT:__ImageBase
	npad	9
$LL148@ForInitAnd:
	movzx	eax, BYTE PTR $SG11437[rcx+rbx]
	mov	BYTE PTR codebuff$[rbp+rcx-256], al
	lea	rcx, QWORD PTR [rcx+1]
	test	al, al
	jne	SHORT $LL148@ForInitAnd
	jmp	$LN72@ForInitAnd
$LN80@ForInitAnd:

; 1079 :       else if (op[0] == '&') strcpy(codebuff, " and ");

	cmp	bl, 38					; 00000026H
	jne	SHORT $LN82@ForInitAnd
	xor	ecx, ecx
	lea	rbx, OFFSET FLAT:__ImageBase
	npad	9
$LL149@ForInitAnd:
	movzx	eax, BYTE PTR $SG11440[rcx+rbx]
	mov	BYTE PTR codebuff$[rbp+rcx-256], al
	lea	rcx, QWORD PTR [rcx+1]
	test	al, al
	jne	SHORT $LL149@ForInitAnd
	jmp	$LN72@ForInitAnd
$LN82@ForInitAnd:

; 1080 :       else if (op[0] == '|') strcpy(codebuff, " or ");

	cmp	bl, 124					; 0000007cH
	jne	SHORT $LN84@ForInitAnd
	xor	ecx, ecx
	lea	rbx, OFFSET FLAT:__ImageBase
	npad	9
$LL150@ForInitAnd:
	movzx	eax, BYTE PTR $SG11443[rcx+rbx]
	mov	BYTE PTR codebuff$[rbp+rcx-256], al
	lea	rcx, QWORD PTR [rcx+1]
	test	al, al
	jne	SHORT $LL150@ForInitAnd
	jmp	$LN72@ForInitAnd
$LN84@ForInitAnd:

; 1081 :       else if (op[0] == '^') strcpy(codebuff, " xor ");

	cmp	bl, 94					; 0000005eH
	jne	SHORT $LN86@ForInitAnd
	xor	ecx, ecx
	lea	rbx, OFFSET FLAT:__ImageBase
	npad	9
$LL151@ForInitAnd:
	movzx	eax, BYTE PTR $SG11446[rcx+rbx]
	mov	BYTE PTR codebuff$[rbp+rcx-256], al
	lea	rcx, QWORD PTR [rcx+1]
	test	al, al
	jne	SHORT $LL151@ForInitAnd
	jmp	SHORT $LN72@ForInitAnd
$LN86@ForInitAnd:

; 1082 :       else if (op[0] == '<' && op[1] == '<') strcpy(codebuff, " shl ");

	cmp	bl, 60					; 0000003cH
	jne	SHORT $LN88@ForInitAnd
	lea	rbx, OFFSET FLAT:__ImageBase
	cmp	r8b, 60					; 0000003cH
	jne	SHORT $LN72@ForInitAnd
	xor	ecx, ecx
	npad	6
$LL152@ForInitAnd:
	movzx	eax, BYTE PTR $SG11449[rcx+rbx]
	mov	BYTE PTR codebuff$[rbp+rcx-256], al
	lea	rcx, QWORD PTR [rcx+1]
	test	al, al
	jne	SHORT $LL152@ForInitAnd
	jmp	SHORT $LN72@ForInitAnd
$LN88@ForInitAnd:

; 1083 :       else if (op[0] == '>' && op[1] == '>') strcpy(codebuff, " shr ");

	cmp	bl, 62					; 0000003eH
	jne	SHORT $LN561@ForInitAnd
	lea	rbx, OFFSET FLAT:__ImageBase
	cmp	r8b, 62					; 0000003eH
	jne	SHORT $LN72@ForInitAnd
	xor	ecx, ecx
	npad	6
$LL153@ForInitAnd:
	movzx	eax, BYTE PTR $SG11451[rcx+rbx]
	mov	BYTE PTR codebuff$[rbp+rcx-256], al
	lea	rcx, QWORD PTR [rcx+1]
	test	al, al
	jne	SHORT $LL153@ForInitAnd
	jmp	SHORT $LN72@ForInitAnd
$LN561@ForInitAnd:
	lea	rbx, OFFSET FLAT:__ImageBase
$LN72@ForInitAnd:

; 1084 :       Tokenize(init, 0, tokenarray, 0);

	xor	r9d, r9d
	lea	rcx, QWORD PTR init$[rbp-256]
	mov	r8, r13
	xor	edx, edx
	call	Tokenize
	movzx	eax, BYTE PTR [r13]
	sub	al, 2
	test	al, 246					; 000000f6H
	je	$simple$579

; 1085 :       if (tokenarray[0].token == T_REG || tokenarray[0].token == T_NUM || tokenarray[0].token == T_FLOAT || tokenarray[0].token == T_DIRECTIVE)
; 1086 :         goto simple;
; 1087 :       Tokenize(param, 0, tokenarray, 0);

	xor	r9d, r9d
	lea	rcx, QWORD PTR param$[rbp-256]
	mov	r8, r13
	xor	edx, edx
	call	Tokenize

; 1088 :       if (tokenarray[0].token == T_REG){

	cmp	BYTE PTR [r13], 2
	je	$simple$579

; 1138 :       else
; 1139 :       {
; 1140 :         if (init[0] == 39 && init[2] == 39)

	cmp	BYTE PTR init$[rbp-256], 39		; 00000027H
	jne	$LN124@ForInitAnd
	cmp	BYTE PTR init$[rbp-254], 39		; 00000027H
	jne	$LN124@ForInitAnd

; 1141 :           WriteAsmLine(" mov  byte ptr ", param, init);

	xor	ecx, ecx
	npad	5
$LL214@ForInitAnd:
	movzx	eax, BYTE PTR $SG11506[rcx+rbx]
	mov	BYTE PTR codebuff$3[rsp+rcx], al
	lea	rcx, QWORD PTR [rcx+1]
	test	al, al
	jne	SHORT $LL214@ForInitAnd
	lea	rcx, QWORD PTR codebuff$3[rsp]
	dec	rcx
	npad	4
$LL478@ForInitAnd:
	cmp	BYTE PTR [rcx+1], 0
	lea	rcx, QWORD PTR [rcx+1]
	jne	SHORT $LL478@ForInitAnd
	lea	r8, QWORD PTR param$[rbp-256]
	xor	edx, edx
	npad	13
$LL479@ForInitAnd:
	movzx	eax, BYTE PTR [r8+rdx]
	mov	BYTE PTR [rcx+rdx], al
	lea	rdx, QWORD PTR [rdx+1]
	test	al, al
	jne	SHORT $LL479@ForInitAnd
	lea	rcx, QWORD PTR codebuff$3[rsp]
	dec	rcx
	npad	8
$LL476@ForInitAnd:
	cmp	BYTE PTR [rcx+1], 0
	lea	rcx, QWORD PTR [rcx+1]
	jne	SHORT $LL476@ForInitAnd
	xor	edx, edx
	lea	rbx, OFFSET FLAT:$SG11305
	npad	13
$LL477@ForInitAnd:
	movzx	eax, BYTE PTR [rbx+rdx]
	mov	BYTE PTR [rcx+rdx], al
	lea	rdx, QWORD PTR [rdx+1]
	test	al, al
	jne	SHORT $LL477@ForInitAnd
	lea	rcx, QWORD PTR codebuff$3[rsp]
	dec	rcx
	npad	9
$LL474@ForInitAnd:
	cmp	BYTE PTR [rcx+1], 0
	lea	rcx, QWORD PTR [rcx+1]
	jne	SHORT $LL474@ForInitAnd
	lea	r8, QWORD PTR init$[rbp-256]
	xor	edx, edx
	npad	13
$LL475@ForInitAnd:
	movzx	eax, BYTE PTR [r8+rdx]
	mov	BYTE PTR [rcx+rdx], al
	inc	rdx
	test	al, al
	jne	SHORT $LL475@ForInitAnd
	lea	rcx, QWORD PTR codebuff$3[rsp]
	call	AddLineQueue
	jmp	$skip$578
$LN124@ForInitAnd:

; 1142 :         else {
; 1143 :           WriteAsmLine(" mov  ", reax, init);

	xor	ecx, ecx
$LL217@ForInitAnd:
	movzx	eax, BYTE PTR $SG11507[rcx+rbx]
	mov	BYTE PTR codebuff$2[rsp+rcx], al
	lea	rcx, QWORD PTR [rcx+1]
	test	al, al
	jne	SHORT $LL217@ForInitAnd
	lea	rcx, QWORD PTR codebuff$2[rsp]
	dec	rcx
	npad	4
$LL472@ForInitAnd:
	cmp	BYTE PTR [rcx+1], 0
	lea	rcx, QWORD PTR [rcx+1]
	jne	SHORT $LL472@ForInitAnd
	xor	edx, edx
	lea	r12, OFFSET FLAT:reax
	npad	13
$LL473@ForInitAnd:
	movzx	eax, BYTE PTR [r12+rdx]
	mov	BYTE PTR [rcx+rdx], al
	lea	rdx, QWORD PTR [rdx+1]
	test	al, al
	jne	SHORT $LL473@ForInitAnd
	lea	rcx, QWORD PTR codebuff$2[rsp]
	dec	rcx
	npad	8
$LL470@ForInitAnd:
	cmp	BYTE PTR [rcx+1], 0
	lea	rcx, QWORD PTR [rcx+1]
	jne	SHORT $LL470@ForInitAnd
	xor	edx, edx
	lea	rbx, OFFSET FLAT:$SG11305
	npad	13
$LL471@ForInitAnd:
	movzx	eax, BYTE PTR [rbx+rdx]
	mov	BYTE PTR [rcx+rdx], al
	lea	rdx, QWORD PTR [rdx+1]
	test	al, al
	jne	SHORT $LL471@ForInitAnd
	lea	rcx, QWORD PTR codebuff$2[rsp]
	dec	rcx
	npad	9
$LL468@ForInitAnd:
	cmp	BYTE PTR [rcx+1], 0
	lea	rcx, QWORD PTR [rcx+1]
	jne	SHORT $LL468@ForInitAnd
	lea	r8, QWORD PTR init$[rbp-256]
	xor	edx, edx
	npad	13
$LL469@ForInitAnd:
	movzx	eax, BYTE PTR [r8+rdx]
	mov	BYTE PTR [rcx+rdx], al
	lea	rdx, QWORD PTR [rdx+1]
	test	al, al
	jne	SHORT $LL469@ForInitAnd
	lea	rcx, QWORD PTR codebuff$2[rsp]
	call	AddLineQueue

; 1144 :           WriteAsmLine(codebuff, param, reax);

	xor	ecx, ecx
	npad	4
$LL220@ForInitAnd:
	movzx	eax, BYTE PTR codebuff$[rbp+rcx-256]
	mov	BYTE PTR codebuff$1[rsp+rcx], al
	lea	rcx, QWORD PTR [rcx+1]
	test	al, al
	jne	SHORT $LL220@ForInitAnd
	lea	rcx, QWORD PTR codebuff$1[rsp]
	dec	rcx
	npad	7
$LL466@ForInitAnd:
	cmp	BYTE PTR [rcx+1], 0
	lea	rcx, QWORD PTR [rcx+1]
	jne	SHORT $LL466@ForInitAnd
	lea	r8, QWORD PTR param$[rbp-256]
	xor	edx, edx
	npad	13
$LL467@ForInitAnd:
	movzx	eax, BYTE PTR [r8+rdx]
	mov	BYTE PTR [rcx+rdx], al
	lea	rdx, QWORD PTR [rdx+1]
	test	al, al
	jne	SHORT $LL467@ForInitAnd
	lea	rcx, QWORD PTR codebuff$1[rsp]
	dec	rcx
	npad	8
$LL464@ForInitAnd:
	cmp	BYTE PTR [rcx+1], 0
	lea	rcx, QWORD PTR [rcx+1]
	jne	SHORT $LL464@ForInitAnd
	xor	edx, edx
	npad	4
$LL465@ForInitAnd:
	movzx	eax, BYTE PTR [rbx+rdx]
	mov	BYTE PTR [rcx+rdx], al
	lea	rdx, QWORD PTR [rdx+1]
	test	al, al
	jne	SHORT $LL465@ForInitAnd
	lea	rcx, QWORD PTR codebuff$1[rsp]
	dec	rcx
	npad	9
$LL462@ForInitAnd:
	cmp	BYTE PTR [rcx+1], 0
	lea	rcx, QWORD PTR [rcx+1]
	jne	SHORT $LL462@ForInitAnd
	xor	edx, edx
	lea	r12, OFFSET FLAT:reax
	npad	13
$LL463@ForInitAnd:
	movzx	eax, BYTE PTR [r12+rdx]
	mov	BYTE PTR [rcx+rdx], al
	inc	rdx
	test	al, al
	jne	SHORT $LL463@ForInitAnd
	mov	r12, QWORD PTR buff$[rbp-256]
	lea	rcx, QWORD PTR codebuff$1[rsp]
	call	AddLineQueue
	jmp	$skip$578
$simple$579:

; 1089 :       simple:			Tokenize(param, 0, tokenarray, 0);

	xor	r9d, r9d
	lea	rcx, QWORD PTR param$[rbp-256]
	mov	r8, r13
	xor	edx, edx
	call	Tokenize

; 1090 : 
; 1091 :         if (strlen(init) == 1 && init[0] == '0')                        //REX=0?

	lea	rax, QWORD PTR init$[rbp-256]
	or	rcx, -1
$LL461@ForInitAnd:
	inc	rcx
	cmp	BYTE PTR [rax+rcx], 0
	jne	SHORT $LL461@ForInitAnd
	cmp	rcx, 1
	jne	$LN95@ForInitAnd
	cmp	BYTE PTR init$[rbp-256], 48		; 00000030H
	jne	$LN95@ForInitAnd

; 1092 :           WriteAsmLine(" xor  ", param, param);							            //XOR REX,REX //instead MOV REX,0				

	xor	ecx, ecx
	npad	10
$LL187@ForInitAnd:
	movzx	eax, BYTE PTR $SG11458[rcx+rbx]
	mov	BYTE PTR codebuff$12[rsp+rcx], al
	lea	rcx, QWORD PTR [rcx+1]
	test	al, al
	jne	SHORT $LL187@ForInitAnd
	lea	rcx, QWORD PTR codebuff$12[rsp]
	dec	rcx
	npad	4
$LL459@ForInitAnd:
	cmp	BYTE PTR [rcx+1], 0
	lea	rcx, QWORD PTR [rcx+1]
	jne	SHORT $LL459@ForInitAnd
	lea	r8, QWORD PTR param$[rbp-256]
	xor	edx, edx
	npad	13
$LL460@ForInitAnd:
	movzx	eax, BYTE PTR [r8+rdx]
	mov	BYTE PTR [rcx+rdx], al
	lea	rdx, QWORD PTR [rdx+1]
	test	al, al
	jne	SHORT $LL460@ForInitAnd
	lea	rcx, QWORD PTR codebuff$12[rsp]
	dec	rcx
	npad	8
$LL457@ForInitAnd:
	cmp	BYTE PTR [rcx+1], 0
	lea	rcx, QWORD PTR [rcx+1]
	jne	SHORT $LL457@ForInitAnd
	xor	edx, edx
	lea	rbx, OFFSET FLAT:$SG11305
	npad	13
$LL458@ForInitAnd:
	movzx	eax, BYTE PTR [rbx+rdx]
	mov	BYTE PTR [rcx+rdx], al
	lea	rdx, QWORD PTR [rdx+1]
	test	al, al
	jne	SHORT $LL458@ForInitAnd
	lea	rcx, QWORD PTR codebuff$12[rsp]
	dec	rcx
	npad	9
$LL455@ForInitAnd:
	cmp	BYTE PTR [rcx+1], 0
	lea	rcx, QWORD PTR [rcx+1]
	jne	SHORT $LL455@ForInitAnd
	lea	r8, QWORD PTR param$[rbp-256]
	xor	edx, edx
	npad	13
$LL456@ForInitAnd:
	movzx	eax, BYTE PTR [r8+rdx]
	mov	BYTE PTR [rcx+rdx], al
	inc	rdx
	test	al, al
	jne	SHORT $LL456@ForInitAnd
	lea	rcx, QWORD PTR codebuff$12[rsp]
	call	AddLineQueue
	jmp	$skip$578
$LN95@ForInitAnd:

; 1093 :         else if ((strlen(op) == 1) && ((init[4] == ' ') || (init[4] == '\t'))){  //op is '='

	lea	rdx, QWORD PTR op$[rbp-256]
	or	rax, -1
	npad	7
$LL454@ForInitAnd:
	inc	rax
	cmp	BYTE PTR [rdx+rax], 0
	jne	SHORT $LL454@ForInitAnd
	cmp	rax, 1
	jne	$LN122@ForInitAnd
	movzx	edx, BYTE PTR init$[rbp-252]
	cmp	dl, 32					; 00000020H
	je	SHORT $LN99@ForInitAnd
	cmp	dl, 9
	jne	$LN97@ForInitAnd
$LN99@ForInitAnd:

; 1094 :           if ((0 == _memicmp(init, "BYTE PTR", 8)) ||                   //reax=BYTE PTR al 
; 1095 :             (0 == _memicmp(init, "BPTR", 4)) ||
; 1096 :             (0 == _memicmp(init, "WPTR", 4)) ||

	mov	r8d, 8
	lea	rdx, OFFSET FLAT:$SG11465
	lea	rcx, QWORD PTR init$[rbp-256]
	call	_memicmp
	test	eax, eax
	je	$LN102@ForInitAnd
	mov	r8d, 4
	lea	rdx, OFFSET FLAT:$SG11466
	lea	rcx, QWORD PTR init$[rbp-256]
	call	_memicmp
	test	eax, eax
	je	$LN102@ForInitAnd
	mov	r8d, 4
	lea	rdx, OFFSET FLAT:$SG11467
	lea	rcx, QWORD PTR init$[rbp-256]
	call	_memicmp
	test	eax, eax
	je	$LN102@ForInitAnd
	mov	r8d, 8
	lea	rdx, OFFSET FLAT:$SG11468
	lea	rcx, QWORD PTR init$[rbp-256]
	call	_memicmp
	test	eax, eax
	je	$LN102@ForInitAnd

; 1100 :           else if (0 == _memicmp(init, "ADDR", 4))

	mov	r8d, 4
	lea	rdx, OFFSET FLAT:$SG11472
	lea	rcx, QWORD PTR init$[rbp-256]
	call	_memicmp
	test	eax, eax
	jne	SHORT $LN103@ForInitAnd

; 1101 :             WriteAsmLine(" lea  ", param, init + 5);

	lea	r8, QWORD PTR init$[rbp-251]
	lea	rdx, QWORD PTR param$[rbp-256]
	lea	rcx, OFFSET FLAT:$SG11473
	call	WriteAsmLine
	jmp	$skip$578
$LN103@ForInitAnd:

; 1102 :           else WriteAsmLine(" mov  ", param, init);

	xor	ecx, ecx
	npad	6
$LL193@ForInitAnd:
	movzx	eax, BYTE PTR $SG11474[rcx+rbx]
	mov	BYTE PTR codebuff$10[rsp+rcx], al
	lea	rcx, QWORD PTR [rcx+1]
	test	al, al
	jne	SHORT $LL193@ForInitAnd
	lea	rcx, QWORD PTR codebuff$10[rsp]
	dec	rcx
	npad	4
$LL452@ForInitAnd:
	cmp	BYTE PTR [rcx+1], 0
	lea	rcx, QWORD PTR [rcx+1]
	jne	SHORT $LL452@ForInitAnd
	lea	r8, QWORD PTR param$[rbp-256]
	xor	edx, edx
	npad	13
$LL453@ForInitAnd:
	movzx	eax, BYTE PTR [r8+rdx]
	mov	BYTE PTR [rcx+rdx], al
	lea	rdx, QWORD PTR [rdx+1]
	test	al, al
	jne	SHORT $LL453@ForInitAnd
	lea	rcx, QWORD PTR codebuff$10[rsp]
	dec	rcx
	npad	8
$LL450@ForInitAnd:
	cmp	BYTE PTR [rcx+1], 0
	lea	rcx, QWORD PTR [rcx+1]
	jne	SHORT $LL450@ForInitAnd
	xor	edx, edx
	lea	rbx, OFFSET FLAT:$SG11305
	npad	13
$LL451@ForInitAnd:
	movzx	eax, BYTE PTR [rbx+rdx]
	mov	BYTE PTR [rcx+rdx], al
	lea	rdx, QWORD PTR [rdx+1]
	test	al, al
	jne	SHORT $LL451@ForInitAnd
	lea	rcx, QWORD PTR codebuff$10[rsp]
	dec	rcx
	npad	9
$LL448@ForInitAnd:
	cmp	BYTE PTR [rcx+1], 0
	lea	rcx, QWORD PTR [rcx+1]
	jne	SHORT $LL448@ForInitAnd
	lea	r8, QWORD PTR init$[rbp-256]
	xor	edx, edx
	npad	13
$LL449@ForInitAnd:
	movzx	eax, BYTE PTR [r8+rdx]
	mov	BYTE PTR [rcx+rdx], al
	inc	rdx
	test	al, al
	jne	SHORT $LL449@ForInitAnd
	lea	rcx, QWORD PTR codebuff$10[rsp]
	call	AddLineQueue
	jmp	$skip$578
$LN102@ForInitAnd:

; 1097 :             (0 == _memicmp(init, "WORD PTR", 8)))                     //reax=WORD PTR ax 
; 1098 : 
; 1099 :             WriteAsmLine(" movzx  ", param, init);                      //movzx reax,ax					    

	xor	ecx, ecx
$LL190@ForInitAnd:
	movzx	eax, BYTE PTR $SG11469[rcx+rbx]
	mov	BYTE PTR codebuff$11[rsp+rcx], al
	lea	rcx, QWORD PTR [rcx+1]
	test	al, al
	jne	SHORT $LL190@ForInitAnd
	lea	rcx, QWORD PTR codebuff$11[rsp]
	dec	rcx
	npad	4
$LL446@ForInitAnd:
	cmp	BYTE PTR [rcx+1], 0
	lea	rcx, QWORD PTR [rcx+1]
	jne	SHORT $LL446@ForInitAnd
	lea	r8, QWORD PTR param$[rbp-256]
	xor	edx, edx
	npad	13
$LL447@ForInitAnd:
	movzx	eax, BYTE PTR [r8+rdx]
	mov	BYTE PTR [rcx+rdx], al
	lea	rdx, QWORD PTR [rdx+1]
	test	al, al
	jne	SHORT $LL447@ForInitAnd
	lea	rcx, QWORD PTR codebuff$11[rsp]
	dec	rcx
	npad	8
$LL444@ForInitAnd:
	cmp	BYTE PTR [rcx+1], 0
	lea	rcx, QWORD PTR [rcx+1]
	jne	SHORT $LL444@ForInitAnd
	xor	edx, edx
	lea	rbx, OFFSET FLAT:$SG11305
	npad	13
$LL445@ForInitAnd:
	movzx	eax, BYTE PTR [rbx+rdx]
	mov	BYTE PTR [rcx+rdx], al
	lea	rdx, QWORD PTR [rdx+1]
	test	al, al
	jne	SHORT $LL445@ForInitAnd
	lea	rcx, QWORD PTR codebuff$11[rsp]
	dec	rcx
	npad	9
$LL442@ForInitAnd:
	cmp	BYTE PTR [rcx+1], 0
	lea	rcx, QWORD PTR [rcx+1]
	jne	SHORT $LL442@ForInitAnd
	lea	r8, QWORD PTR init$[rbp-256]
	xor	edx, edx
	npad	13
$LL443@ForInitAnd:
	movzx	eax, BYTE PTR [r8+rdx]
	mov	BYTE PTR [rcx+rdx], al
	inc	rdx
	test	al, al
	jne	SHORT $LL443@ForInitAnd
	lea	rcx, QWORD PTR codebuff$11[rsp]
	call	AddLineQueue

; 1103 :         }

	jmp	$skip$578
$LN97@ForInitAnd:

; 1104 :         else if ((strlen(op) == 1) && ((init[6] == ' ') || (init[6] == '\t'))){

	cmp	rax, 1
	jne	$LN122@ForInitAnd
	movzx	edx, BYTE PTR init$[rbp-250]
	cmp	dl, 32					; 00000020H
	je	SHORT $LN107@ForInitAnd
	cmp	dl, 9
	jne	$LN105@ForInitAnd
$LN107@ForInitAnd:

; 1105 :           if (0 == _memicmp(init, "OFFSET", 6))

	mov	r8d, 6
	lea	rdx, OFFSET FLAT:$SG11480
	lea	rcx, QWORD PTR init$[rbp-256]
	call	_memicmp
	test	eax, eax
	jne	SHORT $LN108@ForInitAnd

; 1106 :             WriteAsmLine(" lea  ", param, init + 7);

	lea	r8, QWORD PTR init$[rbp-249]
	lea	rdx, QWORD PTR param$[rbp-256]
	lea	rcx, OFFSET FLAT:$SG11481
	call	WriteAsmLine
	jmp	$skip$578
$LN108@ForInitAnd:

; 1107 :           else WriteAsmLine(" mov  ", param, init);

	xor	ecx, ecx
	npad	5
$LL196@ForInitAnd:
	movzx	eax, BYTE PTR $SG11482[rcx+rbx]
	mov	BYTE PTR codebuff$9[rsp+rcx], al
	lea	rcx, QWORD PTR [rcx+1]
	test	al, al
	jne	SHORT $LL196@ForInitAnd
	lea	rcx, QWORD PTR codebuff$9[rsp]
	dec	rcx
	npad	4
$LL440@ForInitAnd:
	cmp	BYTE PTR [rcx+1], 0
	lea	rcx, QWORD PTR [rcx+1]
	jne	SHORT $LL440@ForInitAnd
	lea	r8, QWORD PTR param$[rbp-256]
	xor	edx, edx
	npad	13
$LL441@ForInitAnd:
	movzx	eax, BYTE PTR [r8+rdx]
	mov	BYTE PTR [rcx+rdx], al
	lea	rdx, QWORD PTR [rdx+1]
	test	al, al
	jne	SHORT $LL441@ForInitAnd
	lea	rcx, QWORD PTR codebuff$9[rsp]
	dec	rcx
	npad	8
$LL438@ForInitAnd:
	cmp	BYTE PTR [rcx+1], 0
	lea	rcx, QWORD PTR [rcx+1]
	jne	SHORT $LL438@ForInitAnd
	xor	edx, edx
	lea	rbx, OFFSET FLAT:$SG11305
	npad	13
$LL439@ForInitAnd:
	movzx	eax, BYTE PTR [rbx+rdx]
	mov	BYTE PTR [rcx+rdx], al
	lea	rdx, QWORD PTR [rdx+1]
	test	al, al
	jne	SHORT $LL439@ForInitAnd
	lea	rcx, QWORD PTR codebuff$9[rsp]
	dec	rcx
	npad	9
$LL436@ForInitAnd:
	cmp	BYTE PTR [rcx+1], 0
	lea	rcx, QWORD PTR [rcx+1]
	jne	SHORT $LL436@ForInitAnd
	lea	r8, QWORD PTR init$[rbp-256]
	xor	edx, edx
	npad	13
$LL437@ForInitAnd:
	movzx	eax, BYTE PTR [r8+rdx]
	mov	BYTE PTR [rcx+rdx], al
	inc	rdx
	test	al, al
	jne	SHORT $LL437@ForInitAnd
	lea	rcx, QWORD PTR codebuff$9[rsp]
	call	AddLineQueue

; 1108 :         }

	jmp	$skip$578
$LN105@ForInitAnd:

; 1109 :         else if ((strlen(op) == 1) && ((init[5] == ' ') || (init[5] == '\t'))){            //op is '='

	cmp	rax, 1
	jne	$LN122@ForInitAnd
	movzx	edx, BYTE PTR init$[rbp-251]
	cmp	dl, 32					; 00000020H
	je	SHORT $LN112@ForInitAnd
	cmp	dl, 9
	jne	$LN110@ForInitAnd
$LN112@ForInitAnd:

; 1110 :           if ((0 == _memicmp(init, "DWORD PTR", 9) || 0 == _memicmp(init, "DPTR", 4)

	mov	r8d, 9
	lea	rdx, OFFSET FLAT:$SG11489
	lea	rcx, QWORD PTR init$[rbp-256]
	call	_memicmp
	test	eax, eax
	je	$LN116@ForInitAnd
	mov	r8d, 4
	lea	rdx, OFFSET FLAT:$SG11490
	lea	rcx, QWORD PTR init$[rbp-256]
	call	_memicmp
	test	eax, eax
	jne	SHORT $LN113@ForInitAnd
	movzx	eax, BYTE PTR param$[rbp-256]
	sub	al, 82					; 00000052H
	test	al, 223					; 000000dfH
	je	$LN116@ForInitAnd
$LN113@ForInitAnd:

; 1113 :           else WriteAsmLine(" mov  ", param, init);

	xor	ecx, ecx
	npad	2
$LL202@ForInitAnd:
	movzx	eax, BYTE PTR $SG11493[rcx+rbx]
	mov	BYTE PTR codebuff$7[rsp+rcx], al
	lea	rcx, QWORD PTR [rcx+1]
	test	al, al
	jne	SHORT $LL202@ForInitAnd
	lea	rcx, QWORD PTR codebuff$7[rsp]
	dec	rcx
	npad	4
$LL434@ForInitAnd:
	cmp	BYTE PTR [rcx+1], 0
	lea	rcx, QWORD PTR [rcx+1]
	jne	SHORT $LL434@ForInitAnd
	lea	r8, QWORD PTR param$[rbp-256]
	xor	edx, edx
	npad	13
$LL435@ForInitAnd:
	movzx	eax, BYTE PTR [r8+rdx]
	mov	BYTE PTR [rcx+rdx], al
	lea	rdx, QWORD PTR [rdx+1]
	test	al, al
	jne	SHORT $LL435@ForInitAnd
	lea	rcx, QWORD PTR codebuff$7[rsp]
	dec	rcx
	npad	8
$LL432@ForInitAnd:
	cmp	BYTE PTR [rcx+1], 0
	lea	rcx, QWORD PTR [rcx+1]
	jne	SHORT $LL432@ForInitAnd
	xor	edx, edx
	lea	rbx, OFFSET FLAT:$SG11305
	npad	13
$LL433@ForInitAnd:
	movzx	eax, BYTE PTR [rbx+rdx]
	mov	BYTE PTR [rcx+rdx], al
	lea	rdx, QWORD PTR [rdx+1]
	test	al, al
	jne	SHORT $LL433@ForInitAnd
	lea	rcx, QWORD PTR codebuff$7[rsp]
	dec	rcx
	npad	9
$LL430@ForInitAnd:
	cmp	BYTE PTR [rcx+1], 0
	lea	rcx, QWORD PTR [rcx+1]
	jne	SHORT $LL430@ForInitAnd
	lea	r8, QWORD PTR init$[rbp-256]
	xor	edx, edx
	npad	13
$LL431@ForInitAnd:
	movzx	eax, BYTE PTR [r8+rdx]
	mov	BYTE PTR [rcx+rdx], al
	inc	rdx
	test	al, al
	jne	SHORT $LL431@ForInitAnd
	lea	rcx, QWORD PTR codebuff$7[rsp]
	call	AddLineQueue
	jmp	$skip$578
$LN116@ForInitAnd:

; 1111 :             && (param[0] == 'r' || param[0] == 'R'))) 							   //rax=DWORD PTR eax
; 1112 :             WriteAsmLine(" movsxd  ", param, init);								     //movsxd rax,eax

	xor	ecx, ecx
$LL199@ForInitAnd:
	movzx	eax, BYTE PTR $SG11492[rcx+rbx]
	mov	BYTE PTR codebuff$8[rsp+rcx], al
	lea	rcx, QWORD PTR [rcx+1]
	test	al, al
	jne	SHORT $LL199@ForInitAnd
	lea	rcx, QWORD PTR codebuff$8[rsp]
	dec	rcx
	npad	4
$LL428@ForInitAnd:
	cmp	BYTE PTR [rcx+1], 0
	lea	rcx, QWORD PTR [rcx+1]
	jne	SHORT $LL428@ForInitAnd
	lea	r8, QWORD PTR param$[rbp-256]
	xor	edx, edx
	npad	13
$LL429@ForInitAnd:
	movzx	eax, BYTE PTR [r8+rdx]
	mov	BYTE PTR [rcx+rdx], al
	lea	rdx, QWORD PTR [rdx+1]
	test	al, al
	jne	SHORT $LL429@ForInitAnd
	lea	rcx, QWORD PTR codebuff$8[rsp]
	dec	rcx
	npad	8
$LL426@ForInitAnd:
	cmp	BYTE PTR [rcx+1], 0
	lea	rcx, QWORD PTR [rcx+1]
	jne	SHORT $LL426@ForInitAnd
	xor	edx, edx
	lea	rbx, OFFSET FLAT:$SG11305
	npad	13
$LL427@ForInitAnd:
	movzx	eax, BYTE PTR [rbx+rdx]
	mov	BYTE PTR [rcx+rdx], al
	lea	rdx, QWORD PTR [rdx+1]
	test	al, al
	jne	SHORT $LL427@ForInitAnd
	lea	rcx, QWORD PTR codebuff$8[rsp]
	dec	rcx
	npad	9
$LL424@ForInitAnd:
	cmp	BYTE PTR [rcx+1], 0
	lea	rcx, QWORD PTR [rcx+1]
	jne	SHORT $LL424@ForInitAnd
	lea	r8, QWORD PTR init$[rbp-256]
	xor	edx, edx
	npad	13
$LL425@ForInitAnd:
	movzx	eax, BYTE PTR [r8+rdx]
	mov	BYTE PTR [rcx+rdx], al
	inc	rdx
	test	al, al
	jne	SHORT $LL425@ForInitAnd
	lea	rcx, QWORD PTR codebuff$8[rsp]
	call	AddLineQueue

; 1114 :         }

	jmp	$skip$578
$LN110@ForInitAnd:

; 1115 :         else if ((strlen(op) == 1) && brct){											    //op is '='

	cmp	rax, 1
	jne	$LN122@ForInitAnd
	test	sil, sil
	je	$LN117@ForInitAnd

; 1116 :           for (j = strlen(init); j; j--){

	movsxd	r8, ecx
	test	ecx, ecx
	je	SHORT $LN14@ForInitAnd
	npad	8
$LL15@ForInitAnd:
	lea	rdx, QWORD PTR init$[rbp-256]
	add	rdx, r8

; 1117 :             if (init[j] == ')') init[j] = NULLC;

	cmp	BYTE PTR [rdx], 41			; 00000029H
	jne	SHORT $LN119@ForInitAnd
	mov	BYTE PTR [rdx], 0
$LN119@ForInitAnd:

; 1118 :             if (init[j] == '('){

	cmp	BYTE PTR [rdx], 40			; 00000028H
	jne	SHORT $LN13@ForInitAnd

; 1119 :               for (p = init, p += j; *p; p++){

	mov	rcx, rdx
	mov	al, 40					; 00000028H
	npad	4
$LL18@ForInitAnd:

; 1120 :                 if (*p == ',' && cnt) --cnt;

	cmp	al, 44					; 0000002cH
	jne	SHORT $LN16@ForInitAnd
	test	r14d, r14d
	je	SHORT $LN16@ForInitAnd
	dec	r14d
$LN16@ForInitAnd:

; 1119 :               for (p = init, p += j; *p; p++){

	movzx	eax, BYTE PTR [rcx+1]
	inc	rcx
	test	al, al
	jne	SHORT $LL18@ForInitAnd

; 1121 :               }
; 1122 :               init[j] = ',';

	mov	BYTE PTR [rdx], 44			; 0000002cH
$LN13@ForInitAnd:

; 1116 :           for (j = strlen(init); j; j--){

	sub	r8, 1
	jne	SHORT $LL15@ForInitAnd
$LN14@ForInitAnd:

; 1123 :             }
; 1124 :           }
; 1125 :           strcpy(codebuff, " invoke  ");

	xor	ecx, ecx
	npad	14
$LL154@ForInitAnd:
	movzx	eax, BYTE PTR $SG11499[rcx+rbx]
	mov	BYTE PTR codebuff$[rbp+rcx-256], al
	lea	rcx, QWORD PTR [rcx+1]
	test	al, al
	jne	SHORT $LL154@ForInitAnd

; 1126 :           strcat(codebuff, init);

	lea	rcx, QWORD PTR codebuff$[rbp-256]
	dec	rcx
	npad	5
$LL422@ForInitAnd:
	cmp	BYTE PTR [rcx+1], 0
	lea	rcx, QWORD PTR [rcx+1]
	jne	SHORT $LL422@ForInitAnd
	lea	r8, QWORD PTR init$[rbp-256]
	xor	edx, edx
	npad	13
$LL423@ForInitAnd:
	movzx	eax, BYTE PTR [r8+rdx]
	mov	BYTE PTR [rcx+rdx], al
	lea	rdx, QWORD PTR [rdx+1]
	test	al, al
	jne	SHORT $LL423@ForInitAnd

; 1127 :           AddLineQueue(codebuff);

	lea	rcx, QWORD PTR codebuff$[rbp-256]
	call	AddLineQueue

; 1128 :           WriteAsmLine(" mov  ", param, reax);

	xor	ecx, ecx
	npad	5
$LL205@ForInitAnd:
	movzx	eax, BYTE PTR $SG11500[rcx+rbx]
	mov	BYTE PTR codebuff$6[rsp+rcx], al
	lea	rcx, QWORD PTR [rcx+1]
	test	al, al
	jne	SHORT $LL205@ForInitAnd
	lea	rcx, QWORD PTR codebuff$6[rsp]
	dec	rcx
	npad	4
$LL420@ForInitAnd:
	cmp	BYTE PTR [rcx+1], 0
	lea	rcx, QWORD PTR [rcx+1]
	jne	SHORT $LL420@ForInitAnd
	lea	r8, QWORD PTR param$[rbp-256]
	xor	edx, edx
	npad	13
$LL421@ForInitAnd:
	movzx	eax, BYTE PTR [r8+rdx]
	mov	BYTE PTR [rcx+rdx], al
	lea	rdx, QWORD PTR [rdx+1]
	test	al, al
	jne	SHORT $LL421@ForInitAnd
	lea	rcx, QWORD PTR codebuff$6[rsp]
	dec	rcx
	npad	8
$LL418@ForInitAnd:
	cmp	BYTE PTR [rcx+1], 0
	lea	rcx, QWORD PTR [rcx+1]
	jne	SHORT $LL418@ForInitAnd
	xor	edx, edx
	lea	rbx, OFFSET FLAT:$SG11305
	npad	13
$LL419@ForInitAnd:
	movzx	eax, BYTE PTR [rbx+rdx]
	mov	BYTE PTR [rcx+rdx], al
	lea	rdx, QWORD PTR [rdx+1]
	test	al, al
	jne	SHORT $LL419@ForInitAnd
	lea	rcx, QWORD PTR codebuff$6[rsp]
	dec	rcx
	npad	9
$LL416@ForInitAnd:
	cmp	BYTE PTR [rcx+1], 0
	lea	rcx, QWORD PTR [rcx+1]
	jne	SHORT $LL416@ForInitAnd
	xor	edx, edx
	lea	r12, OFFSET FLAT:reax
	npad	13
$LL417@ForInitAnd:
	movzx	eax, BYTE PTR [r12+rdx]
	mov	BYTE PTR [rcx+rdx], al
	inc	rdx
	test	al, al
	jne	SHORT $LL417@ForInitAnd
	mov	r12, QWORD PTR buff$[rbp-256]
	lea	rcx, QWORD PTR codebuff$6[rsp]
	call	AddLineQueue

; 1129 :           brct = FALSE;

	xor	sil, sil

; 1130 :         }

	jmp	$skip$578
$LN117@ForInitAnd:

; 1131 :         else {
; 1132 :           if (strlen(op) == 1)

	cmp	rax, 1
	jne	$LN122@ForInitAnd

; 1133 :             WriteAsmLine(" mov  ", param, init);

	xor	ecx, ecx
	npad	12
$LL208@ForInitAnd:
	movzx	eax, BYTE PTR $SG11503[rcx+rbx]
	mov	BYTE PTR codebuff$5[rsp+rcx], al
	lea	rcx, QWORD PTR [rcx+1]
	test	al, al
	jne	SHORT $LL208@ForInitAnd
	lea	rcx, QWORD PTR codebuff$5[rsp]
	dec	rcx
	npad	4
$LL414@ForInitAnd:
	cmp	BYTE PTR [rcx+1], 0
	lea	rcx, QWORD PTR [rcx+1]
	jne	SHORT $LL414@ForInitAnd
	lea	r8, QWORD PTR param$[rbp-256]
	xor	edx, edx
	npad	13
$LL415@ForInitAnd:
	movzx	eax, BYTE PTR [r8+rdx]
	mov	BYTE PTR [rcx+rdx], al
	lea	rdx, QWORD PTR [rdx+1]
	test	al, al
	jne	SHORT $LL415@ForInitAnd
	lea	rcx, QWORD PTR codebuff$5[rsp]
	dec	rcx
	npad	8
$LL412@ForInitAnd:
	cmp	BYTE PTR [rcx+1], 0
	lea	rcx, QWORD PTR [rcx+1]
	jne	SHORT $LL412@ForInitAnd
	xor	edx, edx
	lea	rbx, OFFSET FLAT:$SG11305
	npad	13
$LL413@ForInitAnd:
	movzx	eax, BYTE PTR [rbx+rdx]
	mov	BYTE PTR [rcx+rdx], al
	lea	rdx, QWORD PTR [rdx+1]
	test	al, al
	jne	SHORT $LL413@ForInitAnd
	lea	rcx, QWORD PTR codebuff$5[rsp]
	dec	rcx
	npad	9
$LL410@ForInitAnd:
	cmp	BYTE PTR [rcx+1], 0
	lea	rcx, QWORD PTR [rcx+1]
	jne	SHORT $LL410@ForInitAnd
	lea	r8, QWORD PTR init$[rbp-256]
	xor	edx, edx
	npad	13
$LL411@ForInitAnd:
	movzx	eax, BYTE PTR [r8+rdx]
	mov	BYTE PTR [rcx+rdx], al
	inc	rdx
	test	al, al
	jne	SHORT $LL411@ForInitAnd
	lea	rcx, QWORD PTR codebuff$5[rsp]
	call	AddLineQueue
	jmp	$skip$578
$LN122@ForInitAnd:

; 1134 :           else
; 1135 :             WriteAsmLine(codebuff, param, init);

	xor	ecx, ecx
$LL211@ForInitAnd:
	movzx	eax, BYTE PTR codebuff$[rbp+rcx-256]
	mov	BYTE PTR codebuff$4[rsp+rcx], al
	lea	rcx, QWORD PTR [rcx+1]
	test	al, al
	jne	SHORT $LL211@ForInitAnd
	lea	rcx, QWORD PTR codebuff$4[rsp]
	dec	rcx
	npad	7
$LL408@ForInitAnd:
	cmp	BYTE PTR [rcx+1], 0
	lea	rcx, QWORD PTR [rcx+1]
	jne	SHORT $LL408@ForInitAnd
	lea	r8, QWORD PTR param$[rbp-256]
	xor	edx, edx
	npad	13
$LL409@ForInitAnd:
	movzx	eax, BYTE PTR [r8+rdx]
	mov	BYTE PTR [rcx+rdx], al
	lea	rdx, QWORD PTR [rdx+1]
	test	al, al
	jne	SHORT $LL409@ForInitAnd
	lea	rcx, QWORD PTR codebuff$4[rsp]
	dec	rcx
	npad	8
$LL406@ForInitAnd:
	cmp	BYTE PTR [rcx+1], 0
	lea	rcx, QWORD PTR [rcx+1]
	jne	SHORT $LL406@ForInitAnd
	xor	edx, edx
	lea	rbx, OFFSET FLAT:$SG11305
	npad	13
$LL407@ForInitAnd:
	movzx	eax, BYTE PTR [rbx+rdx]
	mov	BYTE PTR [rcx+rdx], al
	lea	rdx, QWORD PTR [rdx+1]
	test	al, al
	jne	SHORT $LL407@ForInitAnd
	lea	rcx, QWORD PTR codebuff$4[rsp]
	dec	rcx
	npad	9
$LL404@ForInitAnd:
	cmp	BYTE PTR [rcx+1], 0
	lea	rcx, QWORD PTR [rcx+1]
	jne	SHORT $LL404@ForInitAnd
	lea	r8, QWORD PTR init$[rbp-256]
	xor	edx, edx
	npad	13
$LL405@ForInitAnd:
	movzx	eax, BYTE PTR [r8+rdx]
	mov	BYTE PTR [rcx+rdx], al
	inc	rdx
	test	al, al
	jne	SHORT $LL405@ForInitAnd
	lea	rcx, QWORD PTR codebuff$4[rsp]
	call	AddLineQueue

; 1136 :         }
; 1137 :       }

	jmp	$skip$578
$LN23@ForInitAnd:

; 932  :       param[a] = '\0';
; 933  :       if ((buff[b] == '+') && (buff[b + 1] == '+')) strcpy(codebuff, " inc ");

	movzx	eax, BYTE PTR [rcx]
	mov	BYTE PTR param$[rbp+rdi-256], 0
	cmp	al, 43					; 0000002bH
	jne	SHORT $LN24@ForInitAnd
	cmp	dl, al
	jne	SHORT $LN24@ForInitAnd
	xor	ecx, ecx
	lea	rbx, OFFSET FLAT:__ImageBase
	npad	6
$LL128@ForInitAnd:
	movzx	eax, BYTE PTR $SG11351[rcx+rbx]
	mov	BYTE PTR codebuff$[rbp+rcx-256], al
	lea	rcx, QWORD PTR [rcx+1]
	test	al, al
	jne	SHORT $LL128@ForInitAnd
	jmp	SHORT $LN26@ForInitAnd
$LN24@ForInitAnd:

; 934  :       else if ((buff[b] == '-') && (buff[b + 1] == '-')) strcpy(codebuff, " dec ");

	cmp	al, 45					; 0000002dH
	jne	SHORT $LN26@ForInitAnd
	cmp	dl, al
	jne	SHORT $LN26@ForInitAnd
	xor	ecx, ecx
	lea	rbx, OFFSET FLAT:__ImageBase
	npad	9
$LL129@ForInitAnd:
	movzx	eax, BYTE PTR $SG11353[rcx+rbx]
	mov	BYTE PTR codebuff$[rbp+rcx-256], al
	lea	rcx, QWORD PTR [rcx+1]
	test	al, al
	jne	SHORT $LL129@ForInitAnd
$LN26@ForInitAnd:

; 935  :       strcat(codebuff, param);

	lea	rcx, QWORD PTR codebuff$[rbp-256]
	dec	rcx
	npad	5
$LL402@ForInitAnd:
	cmp	BYTE PTR [rcx+1], 0
	lea	rcx, QWORD PTR [rcx+1]
	jne	SHORT $LL402@ForInitAnd
	lea	r8, QWORD PTR param$[rbp-256]
	xor	edx, edx
	npad	13
$LL403@ForInitAnd:
	movzx	eax, BYTE PTR [r8+rdx]
	mov	BYTE PTR [rcx+rdx], al
	inc	rdx
	test	al, al
	jne	SHORT $LL403@ForInitAnd

; 936  :       AddLineQueue(codebuff);

	lea	rcx, QWORD PTR codebuff$[rbp-256]
	call	AddLineQueue

; 937  :       b += 3;

	add	r15d, 3
$skip$578:

; 1145 :         }
; 1146 :       }
; 1147 :     }
; 1148 :   skip:
; 1149 :     if (cnt) cnt--;

	test	r14d, r14d
	je	SHORT $LN554@ForInitAnd

; 1150 :   } while (cnt);

	mov	r9, 145272973819904			; 0000842000000000H
	sub	r14d, 1
	jne	$LL4@ForInitAnd
$LN554@ForInitAnd:

; 1151 :   return(NOT_ERROR);

	xor	eax, eax

; 1152 : }

	mov	rbx, QWORD PTR [rsp+1144]
	add	rsp, 1056				; 00000420H
	pop	r15
	pop	r14
	pop	r13
	pop	r12
	pop	rdi
	pop	rsi
	pop	rbp
	ret	0
ForInitAndNext ENDP
_TEXT	ENDS
; Function compile flags: /Ogtpy
; File d:\hjwasm\hjwasm2.13.1s\hjwasm2.13.1s\hll.c
;	COMDAT WriteAsmLine
_TEXT	SEGMENT
codebuff$ = 32
cmd$ = 304
s1$ = 312
s2$ = 320
WriteAsmLine PROC					; COMDAT

; 898  : static void WriteAsmLine(const char *cmd, const char *s1, const char *s2){

	sub	rsp, 296				; 00000128H

; 899  :   char codebuff[256];
; 900  :   strcpy(codebuff, cmd);

	lea	r9, QWORD PTR codebuff$[rsp]
	mov	r10, rdx
	sub	r9, rcx
	npad	14
$LL3@WriteAsmLi:
	movzx	eax, BYTE PTR [rcx]
	mov	BYTE PTR [r9+rcx], al
	lea	rcx, QWORD PTR [rcx+1]
	test	al, al
	jne	SHORT $LL3@WriteAsmLi

; 901  :   strcat(codebuff, s1);

	lea	rcx, QWORD PTR codebuff$[rsp]
	dec	rcx
	npad	9
$LL11@WriteAsmLi:
	cmp	BYTE PTR [rcx+1], 0
	lea	rcx, QWORD PTR [rcx+1]
	jne	SHORT $LL11@WriteAsmLi
	xor	edx, edx
	npad	4
$LL12@WriteAsmLi:
	movzx	eax, BYTE PTR [r10+rdx]
	mov	BYTE PTR [rcx+rdx], al
	lea	rdx, QWORD PTR [rdx+1]
	test	al, al
	jne	SHORT $LL12@WriteAsmLi

; 902  :   strcat(codebuff, ", ");

	lea	rcx, QWORD PTR codebuff$[rsp]
	dec	rcx
	npad	8
$LL9@WriteAsmLi:
	cmp	BYTE PTR [rcx+1], 0
	lea	rcx, QWORD PTR [rcx+1]
	jne	SHORT $LL9@WriteAsmLi
	lea	r9, OFFSET FLAT:$SG11305
	xor	edx, edx
	npad	13
$LL10@WriteAsmLi:
	movzx	eax, BYTE PTR [r9+rdx]
	mov	BYTE PTR [rcx+rdx], al
	lea	rdx, QWORD PTR [rdx+1]
	test	al, al
	jne	SHORT $LL10@WriteAsmLi

; 903  :   strcat(codebuff, s2);

	lea	rcx, QWORD PTR codebuff$[rsp]
	dec	rcx
	npad	8
$LL7@WriteAsmLi:
	cmp	BYTE PTR [rcx+1], 0
	lea	rcx, QWORD PTR [rcx+1]
	jne	SHORT $LL7@WriteAsmLi
	xor	edx, edx
	npad	4
$LL8@WriteAsmLi:
	movzx	eax, BYTE PTR [r8+rdx]
	mov	BYTE PTR [rcx+rdx], al
	lea	rdx, QWORD PTR [rdx+1]
	test	al, al
	jne	SHORT $LL8@WriteAsmLi

; 904  :   AddLineQueue(codebuff);				// MOV RAX,param

	lea	rcx, QWORD PTR codebuff$[rsp]
	call	AddLineQueue

; 905  :   return;
; 906  : }

	add	rsp, 296				; 00000128H
	ret	0
WriteAsmLine ENDP
_TEXT	ENDS
; Function compile flags: /Ogtpy
; File d:\hjwasm\hjwasm2.13.1s\hjwasm2.13.1s\hll.c
;	COMDAT CheckCXZLines
_TEXT	SEGMENT
p$ = 48
CheckCXZLines PROC					; COMDAT

; 836  : {

	mov	QWORD PTR [rsp+8], rbx
	mov	QWORD PTR [rsp+16], rsi
	push	rdi
	sub	rsp, 32					; 00000020H

; 837  :   int lines = 0;
; 838  :   int i;
; 839  :   int addchars;
; 840  :   char *px;
; 841  :   bool NL = TRUE;
; 842  : 
; 843  :   DebugMsg1(("CheckCXZLines enter, p=>%s<\n", p));
; 844  :   /* syntax ".untilcxz 1" has a problem: there's no "jmp" generated at all.
; 845  :   * if this syntax is to be supported, activate the #if below.
; 846  :   */
; 847  :   for (; *p; p++) {

	movzx	eax, BYTE PTR [rcx]
	xor	edi, edi
	mov	rbx, rcx
	mov	sil, 1
	test	al, al
	je	$LN17@CheckCXZLi
$LL4@CheckCXZLi:

; 848  :     if (*p == EOLCHAR) {

	cmp	al, 10
	jne	SHORT $LN8@CheckCXZLi

; 849  :       NL = TRUE;

	mov	sil, 1

; 850  :       lines++;

	inc	edi

; 851  :     }

	jmp	$LN2@CheckCXZLi
$LN8@CheckCXZLi:

; 852  :     else if (NL) {

	test	sil, sil
	je	$LN2@CheckCXZLi

; 853  :       NL = FALSE;

	xor	sil, sil

; 854  :       if (*p == 'j') {

	cmp	al, 106					; 0000006aH
	jne	$LN2@CheckCXZLi

; 855  :         p++;
; 856  :         /* v2.06: rewritten */
; 857  :         if (*p == 'm' && lines == 0) {

	movzx	eax, BYTE PTR [rbx+1]
	cmp	al, 109					; 0000006dH
	jne	SHORT $LN12@CheckCXZLi
	test	edi, edi
	jne	SHORT $LN12@CheckCXZLi

; 858  :           addchars = 2; /* make room for 2 chars, to replace "jmp" by "loope" */

	lea	r8d, QWORD PTR [rdi+2]

; 859  :           px = "loope";

	lea	r9, OFFSET FLAT:$SG11287

; 860  :         }

	jmp	SHORT $LN15@CheckCXZLi
$LN12@CheckCXZLi:

; 861  :         else if (lines == 1 && (*p == 'z' || (*p == 'n' && *(p + 1) == 'z'))) {

	cmp	edi, 1
	jne	$LN14@CheckCXZLi
	cmp	al, 122					; 0000007aH
	je	SHORT $LN16@CheckCXZLi
	cmp	al, 110					; 0000006eH
	jne	$LN14@CheckCXZLi
	cmp	BYTE PTR [rbx+2], 122			; 0000007aH
	jne	$LN14@CheckCXZLi
$LN16@CheckCXZLi:

; 862  :           addchars = 3; /* make room for 3 chars, to replace "jz"/"jnz" by "loopz"/"loopnz" */

	mov	r8d, 3

; 863  :           px = "loop";

	lea	r9, OFFSET FLAT:$SG11291
$LN15@CheckCXZLi:

; 864  :         }
; 865  :         else
; 866  :           return(ERROR); /* anything else is "too complex" */
; 867  :         //replace_instr:
; 868  :         for (p--, i = strlen(p); i >= 0; i--) {

	or	rax, -1
	npad	3
$LL29@CheckCXZLi:
	inc	rax
	cmp	BYTE PTR [rbx+rax], 0
	jne	SHORT $LL29@CheckCXZLi
	movsxd	rdx, eax
	test	eax, eax
	js	SHORT $LN6@CheckCXZLi
	lea	rax, QWORD PTR [rdx+r8]
	neg	r8
	add	rax, rbx
	inc	rdx
	npad	3
$LL7@CheckCXZLi:

; 869  :           *(p + addchars + i) = *(p + i);

	movzx	ecx, BYTE PTR [r8+rax]
	mov	BYTE PTR [rax], cl
	dec	rax
	sub	rdx, 1
	jne	SHORT $LL7@CheckCXZLi
$LN6@CheckCXZLi:

; 870  :         }
; 871  :         memcpy(p, px, strlen(px));

	or	r8, -1
$LL28@CheckCXZLi:
	inc	r8
	cmp	BYTE PTR [r9+r8], 0
	jne	SHORT $LL28@CheckCXZLi
	mov	rdx, r9
	mov	rcx, rbx
	call	memcpy
$LN2@CheckCXZLi:

; 837  :   int lines = 0;
; 838  :   int i;
; 839  :   int addchars;
; 840  :   char *px;
; 841  :   bool NL = TRUE;
; 842  : 
; 843  :   DebugMsg1(("CheckCXZLines enter, p=>%s<\n", p));
; 844  :   /* syntax ".untilcxz 1" has a problem: there's no "jmp" generated at all.
; 845  :   * if this syntax is to be supported, activate the #if below.
; 846  :   */
; 847  :   for (; *p; p++) {

	movzx	eax, BYTE PTR [rbx+1]
	inc	rbx
	test	al, al
	jne	$LL4@CheckCXZLi

; 872  :       }
; 873  : #if 0 /* handle ".untilcxz 1" like masm does */
; 874  :       else if (*p == ' ' && *(p + 1) == EOLCHAR && lines == 0) {
; 875  :         p++;
; 876  :         GetLabelStr(hll->labels[LSTART], p);
; 877  :         strcat(p, EOLSTR);
; 878  :         addchars = 5;
; 879  :         px = "loope";
; 880  :         goto replace_instr;
; 881  :       }
; 882  : #endif
; 883  :     }
; 884  :   }
; 885  :   if (lines > 2)

	cmp	edi, 2
	jg	SHORT $LN14@CheckCXZLi
$LN17@CheckCXZLi:

; 886  :     return(ERROR);
; 887  :   return(NOT_ERROR);

	xor	eax, eax

; 888  : }

	mov	rbx, QWORD PTR [rsp+48]
	mov	rsi, QWORD PTR [rsp+56]
	add	rsp, 32					; 00000020H
	pop	rdi
	ret	0
$LN14@CheckCXZLi:
	mov	rbx, QWORD PTR [rsp+48]
	or	eax, -1
	mov	rsi, QWORD PTR [rsp+56]
	add	rsp, 32					; 00000020H
	pop	rdi
	ret	0
CheckCXZLines ENDP
_TEXT	ENDS
; Function compile flags: /Ogtpy
; File d:\hjwasm\hjwasm2.13.1s\hjwasm2.13.1s\hll.c
;	COMDAT EvaluateHllExpression
_TEXT	SEGMENT
hllop$ = 64
hll$ = 96
i$ = 104
tokenarray$ = 112
ilabel$ = 120
is_true$ = 128
buffer$ = 136
EvaluateHllExpression PROC				; COMDAT

; 811  : {

	mov	QWORD PTR [rsp+8], rbx
	push	rdi
	sub	rsp, 80					; 00000050H

; 812  :   struct hll_opnd hllop = { NULL, 0 };

	xor	eax, eax
	mov	rdi, rdx
	mov	QWORD PTR hllop$[rsp], rax

; 813  : 
; 814  :   DebugMsg1(("EvaluateHllExpression enter\n"));
; 815  : 
; 816  :   *buffer = NULLC;
; 817  :   if (ERROR == GetExpression(hll, i, tokenarray, ilabel, is_true, buffer, &hllop))

	lea	rdx, QWORD PTR hllop$[rsp]
	mov	QWORD PTR [rsp+48], rdx
	mov	rbx, r8
	mov	DWORD PTR hllop$[rsp+8], eax
	mov	rdx, rdi
	mov	rax, QWORD PTR buffer$[rsp]
	mov	QWORD PTR [rsp+40], rax
	mov	BYTE PTR [rax], 0
	movzx	eax, BYTE PTR is_true$[rsp]
	mov	BYTE PTR [rsp+32], al
	call	GetExpression
	cmp	eax, -1
	jne	SHORT $LN2@EvaluateHl

; 818  :     return(ERROR);

	or	eax, eax

; 827  : }

	mov	rbx, QWORD PTR [rsp+96]
	add	rsp, 80					; 00000050H
	pop	rdi
	ret	0
$LN2@EvaluateHl:

; 819  :   /* v2.11: changed */
; 820  :   //if ( *buffer == EOLCHAR ) {
; 821  :   //DebugMsg(( "EvaluateHllExpression: EOL at pos 0 in line buffer\n" ));
; 822  :   if (tokenarray[*i].token != T_FINAL) {

	movsxd	rax, DWORD PTR [rdi]
	shl	rax, 5
	cmp	BYTE PTR [rax+rbx], 0
	je	SHORT $LN3@EvaluateHl

; 823  :     DebugMsg(("EvaluateHllExpression: unexpected tokens >%s<\n", tokenarray[*i].tokpos));
; 824  :     return(EmitError(SYNTAX_ERROR_IN_CONTROL_FLOW_DIRECTIVE));

	mov	ecx, 199				; 000000c7H
	call	EmitError

; 827  : }

	mov	rbx, QWORD PTR [rsp+96]
	add	rsp, 80					; 00000050H
	pop	rdi
	ret	0
$LN3@EvaluateHl:

; 825  :   }
; 826  :   return(NOT_ERROR);

	xor	eax, eax

; 827  : }

	mov	rbx, QWORD PTR [rsp+96]
	add	rsp, 80					; 00000050H
	pop	rdi
	ret	0
EvaluateHllExpression ENDP
_TEXT	ENDS
; Function compile flags: /Ogtpy
; File d:\hjwasm\hjwasm2.13.1s\hjwasm2.13.1s\hll.c
;	COMDAT QueueTestLines
_TEXT	SEGMENT
src$ = 48
QueueTestLines PROC					; COMDAT

; 774  : {

	push	rbx
	sub	rsp, 32					; 00000020H
	mov	rbx, rcx

; 775  :   char *start;
; 776  : 
; 777  :   DebugMsg1(("QueueTestLines(\"%s\") enter\n", src ? src : "NULL"));
; 778  :   while (src) {

	test	rcx, rcx
	je	SHORT $LN10@QueueTestL
	mov	QWORD PTR [rsp+48], rdi
	npad	13
$LL2@QueueTestL:

; 779  :     //if (*src == ' ') src++; /* v2.11: obsolete */
; 780  :     start = src;
; 781  :     if (src = strchr(src, EOLCHAR))

	mov	edx, 10
	mov	rcx, rbx
	mov	rdi, rbx
	call	strchr
	mov	rbx, rax
	test	rax, rax
	je	SHORT $LN4@QueueTestL

; 782  :       *src++ = NULLC;

	mov	BYTE PTR [rax], 0
	inc	rbx
$LN4@QueueTestL:

; 783  :     if (*start)

	cmp	BYTE PTR [rdi], 0
	je	SHORT $LN5@QueueTestL

; 784  :       AddLineQueue(start);

	mov	rcx, rdi
	call	AddLineQueue
$LN5@QueueTestL:

; 775  :   char *start;
; 776  : 
; 777  :   DebugMsg1(("QueueTestLines(\"%s\") enter\n", src ? src : "NULL"));
; 778  :   while (src) {

	test	rbx, rbx
	jne	SHORT $LL2@QueueTestL
	mov	rdi, QWORD PTR [rsp+48]
$LN10@QueueTestL:

; 785  :   }
; 786  : 
; 787  :   DebugMsg1(("QueueTestLines exit\n"));
; 788  :   return(NOT_ERROR);

	xor	eax, eax

; 789  : }

	add	rsp, 32					; 00000020H
	pop	rbx
	ret	0
QueueTestLines ENDP
_TEXT	ENDS
; Function compile flags: /Ogtpy
; File d:\hjwasm\hjwasm2.13.1s\hjwasm2.13.1s\hll.c
;	COMDAT GetAndExpression
_TEXT	SEGMENT
hll$ = 128
i$ = 136
tokenarray$ = 144
ilabel$ = 152
is_true$ = 160
buffer$ = 168
hllop$ = 176
GetAndExpression PROC					; COMDAT

; 622  : {

	mov	QWORD PTR [rsp+16], rbx
	mov	DWORD PTR [rsp+32], r9d
	mov	QWORD PTR [rsp+8], rcx
	push	rbp
	push	rsi
	push	rdi
	push	r12
	push	r13
	push	r14
	push	r15
	sub	rsp, 64					; 00000040H

; 623  :   char *ptr = buffer;
; 624  :   uint_32 truelabel = 0;
; 625  :   //char buff[16];
; 626  :   //char *nlabel;
; 627  :   //char *olabel;
; 628  : 
; 629  :   DebugMsg1(("%u GetAndExpression(>%.32s< buf=>%s<) enter\n", evallvl, tokenarray[*i].tokpos, buffer));
; 630  : 
; 631  :   if (ERROR == GetSimpleExpression(hll, i, tokenarray, ilabel, is_true, ptr, hllop))

	mov	r15, QWORD PTR hllop$[rsp]
	mov	rax, rcx
	mov	rcx, QWORD PTR buffer$[rsp]
	mov	ebx, r9d
	movzx	r12d, BYTE PTR is_true$[rsp]
	mov	rdi, rcx
	mov	QWORD PTR [rsp+48], r15
	mov	r13, r8
	mov	QWORD PTR [rsp+40], rcx
	mov	r14, rdx
	mov	rcx, rax
	mov	BYTE PTR [rsp+32], r12b
	xor	ebp, ebp
	call	GetSimpleExpression
	cmp	eax, -1
	jne	SHORT $LN20@GetAndExpr

; 632  :     return(ERROR);

	or	rax, -1
	jmp	$LN1@GetAndExpr
$LN20@GetAndExpr:

; 633  :   while (COP_AND == GetCOp(&tokenarray[*i])) {

	movsxd	rcx, DWORD PTR [r14]
	shl	rcx, 5
	add	rcx, r13
	call	GetCOp
	cmp	eax, 7
	jne	$LN10@GetAndExpr
	or	rsi, -1
	npad	7
$LL2@GetAndExpr:

; 634  : 
; 635  :     (*i)++;

	inc	DWORD PTR [r14]

; 636  :     DebugMsg1(("%u GetAndExpression: &&-operator found, is_true=%u, lastjmp=%s\n", evallvl, is_true, hllop->lastjmp ? hllop->lastjmp : "NULL"));
; 637  : 
; 638  :     if (is_true) {

	test	r12b, r12b
	je	$LN6@GetAndExpr

; 639  :       /* todo: please describe what's done here and why! */
; 640  :       if (hllop->lastjmp) {

	mov	rbx, QWORD PTR [r15]
	test	rbx, rbx
	je	$LN31@GetAndExpr

; 641  :         char *p = hllop->lastjmp;
; 642  :         InvertJump(p);          /* step 1 */

	mov	rcx, rbx
	call	InvertJump

; 643  :         if (truelabel == 0)     /* step 2 */

	test	ebp, ebp
	jne	SHORT $LN7@GetAndExpr

; 644  :           truelabel = GetHllLabel();

	mov	ebp, DWORD PTR ModuleInfo+352
	inc	ebp
	mov	DWORD PTR ModuleInfo+352, ebp
$LN7@GetAndExpr:

; 645  : 
; 646  : 		if (*p && strlen(p) < 11) {/* v2.11: there might be a 0 at lastjmp */

	cmp	BYTE PTR [rbx], 0
	je	SHORT $LN8@GetAndExpr
	mov	rax, rsi
	npad	6
$LL30@GetAndExpr:
	inc	rax
	cmp	BYTE PTR [rbx+rax], 0
	jne	SHORT $LL30@GetAndExpr
	cmp	rax, 11
	jae	SHORT $LN8@GetAndExpr

; 647  :           p += 4;               /* skip 'jcc ' or 'jmp ' */
; 648  :           GetLabelStr(truelabel, p);

	mov	r8d, ebp
	lea	rdx, OFFSET FLAT:$SG11014
	lea	rcx, QWORD PTR [rbx+4]
	call	sprintf

; 649  :           strcat(p, EOLSTR);

	sub	rbx, -3
$LL28@GetAndExpr:
	cmp	BYTE PTR [rbx+1], 0
	lea	rbx, QWORD PTR [rbx+1]
	jne	SHORT $LL28@GetAndExpr
	xor	ecx, ecx
	lea	r12, OFFSET FLAT:$SG11196
	npad	7
$LL29@GetAndExpr:
	movzx	eax, BYTE PTR [r12+rcx]
	mov	BYTE PTR [rbx+rcx], al
	lea	rcx, QWORD PTR [rcx+1]
	test	al, al
	jne	SHORT $LL29@GetAndExpr
	movzx	r12d, BYTE PTR is_true$[rsp]
$LN8@GetAndExpr:

; 650  :         }
; 651  : 
; 652  :         DebugMsg1(("%u GetAndExpression: jmp inverted >%s<\n", evallvl, hllop->lastjmp));
; 653  :         ReplaceLabel(buffer, GetLabel(hll, ilabel), truelabel);

	mov	rcx, QWORD PTR hll$[rsp]
	mov	r8d, ebp
	movsxd	rbx, DWORD PTR ilabel$[rsp]
	mov	edx, DWORD PTR [rcx+rbx*4+8]
	mov	rcx, QWORD PTR buffer$[rsp]
	call	ReplaceLabel

; 654  :         hllop->lastjmp = NULL;

	mov	QWORD PTR [r15], 0
	jmp	SHORT $LN6@GetAndExpr
$LN31@GetAndExpr:
	mov	ebx, DWORD PTR ilabel$[rsp]
$LN6@GetAndExpr:

; 655  :       }
; 656  :     }
; 657  :     ptr += strlen(ptr);

	mov	rax, rsi
$LL27@GetAndExpr:
	inc	rax
	cmp	BYTE PTR [rdi+rax], 0
	jne	SHORT $LL27@GetAndExpr

; 658  :     hllop->lasttruelabel = 0; /* v2.08 */
; 659  :     if (ERROR == GetSimpleExpression(hll, i, tokenarray, ilabel, is_true, ptr, hllop))

	mov	rcx, QWORD PTR hll$[rsp]
	add	rdi, rax
	mov	QWORD PTR [rsp+48], r15
	mov	r9d, ebx
	mov	QWORD PTR [rsp+40], rdi
	mov	r8, r13
	mov	rdx, r14
	mov	BYTE PTR [rsp+32], r12b
	mov	DWORD PTR [r15+8], 0
	call	GetSimpleExpression
	cmp	eax, -1
	je	$LN21@GetAndExpr

; 633  :   while (COP_AND == GetCOp(&tokenarray[*i])) {

	movsxd	rcx, DWORD PTR [r14]
	shl	rcx, 5
	add	rcx, r13
	call	GetCOp
	cmp	eax, 7
	je	$LL2@GetAndExpr

; 661  :   };
; 662  : 
; 663  :   if (truelabel > 0) {

	test	ebp, ebp
	je	SHORT $LN10@GetAndExpr
	npad	2
$LL26@GetAndExpr:

; 664  :     ptr += strlen(ptr);

	inc	rsi
	cmp	BYTE PTR [rdi+rsi], 0
	jne	SHORT $LL26@GetAndExpr
	add	rdi, rsi

; 665  :     GetLabelStr(truelabel, ptr);

	lea	rdx, OFFSET FLAT:$SG11014
	mov	rcx, rdi
	mov	r8d, ebp
	call	sprintf

; 666  :     strcat(ptr, LABELQUAL EOLSTR);

	dec	rdi
$LL24@GetAndExpr:
	cmp	BYTE PTR [rdi+1], 0
	lea	rdi, QWORD PTR [rdi+1]
	jne	SHORT $LL24@GetAndExpr
	lea	rdx, OFFSET FLAT:$SG11199
	xor	ecx, ecx
	npad	12
$LL25@GetAndExpr:
	movzx	eax, BYTE PTR [rdx+rcx]
	mov	BYTE PTR [rdi+rcx], al
	lea	rcx, QWORD PTR [rcx+1]
	test	al, al
	jne	SHORT $LL25@GetAndExpr

; 667  :     DebugMsg1(("%u GetAndExpression: label added >%s<\n", evallvl, ptr));
; 668  :     hllop->lastjmp = NULL;

	mov	QWORD PTR [r15], 0
$LN10@GetAndExpr:

; 669  :   }
; 670  :   return(NOT_ERROR);

	xor	eax, eax
$LN1@GetAndExpr:

; 671  : }

	mov	rbx, QWORD PTR [rsp+136]
	add	rsp, 64					; 00000040H
	pop	r15
	pop	r14
	pop	r13
	pop	r12
	pop	rdi
	pop	rsi
	pop	rbp
	ret	0
$LN21@GetAndExpr:

; 660  :       return(ERROR);

	mov	eax, esi
	jmp	SHORT $LN1@GetAndExpr
GetAndExpression ENDP
_TEXT	ENDS
; Function compile flags: /Ogtpy
; File d:\hjwasm\hjwasm2.13.1s\hjwasm2.13.1s\hll.c
;	COMDAT ReplaceLabel
_TEXT	SEGMENT
newlbl$ = 32
oldlbl$ = 48
p$ = 80
olabel$ = 88
nlabel$ = 96
ReplaceLabel PROC					; COMDAT

; 601  : {

	mov	QWORD PTR [rsp+8], rbx
	push	rdi
	sub	rsp, 64					; 00000040H
	mov	ebx, r8d
	mov	rdi, rcx

; 602  :   char oldlbl[16];
; 603  :   char newlbl[16];
; 604  :   int i;
; 605  : 
; 606  :   GetLabelStr(olabel, oldlbl);

	mov	r8d, edx
	lea	rcx, QWORD PTR oldlbl$[rsp]
	lea	rdx, OFFSET FLAT:$SG11014
	call	sprintf

; 607  :   GetLabelStr(nlabel, newlbl);

	mov	r8d, ebx
	lea	rdx, OFFSET FLAT:$SG11014
	lea	rcx, QWORD PTR newlbl$[rsp]
	call	sprintf

; 608  : 
; 609  :   i = strlen(newlbl);

	lea	rax, QWORD PTR newlbl$[rsp]
	or	rbx, -1
$LL13@ReplaceLab:
	inc	rbx
	cmp	BYTE PTR [rax+rbx], 0
	jne	SHORT $LL13@ReplaceLab

; 610  : 
; 611  :   DebugMsg1(("%u ReplaceLabel(%s->%s, >%s<)\n", evallvl, oldlbl, newlbl, p));
; 612  :   while (p = strstr(p, oldlbl)) {

	lea	rdx, QWORD PTR oldlbl$[rsp]
	mov	rcx, rdi
	call	strstr
	mov	rdi, rax
	test	rax, rax
	je	SHORT $LN3@ReplaceLab
	movsxd	rbx, ebx
	npad	14
$LL2@ReplaceLab:

; 613  :     memcpy(p, newlbl, i);

	mov	r8, rbx
	lea	rdx, QWORD PTR newlbl$[rsp]
	mov	rcx, rdi
	call	memcpy

; 614  :     p += i;

	lea	rcx, QWORD PTR [rbx+rdi]
	lea	rdx, QWORD PTR oldlbl$[rsp]
	call	strstr
	mov	rdi, rax
	test	rax, rax
	jne	SHORT $LL2@ReplaceLab
$LN3@ReplaceLab:

; 615  :   }
; 616  : }

	mov	rbx, QWORD PTR [rsp+80]
	add	rsp, 64					; 00000040H
	pop	rdi
	ret	0
ReplaceLabel ENDP
_TEXT	ENDS
; Function compile flags: /Ogtpy
; File d:\hjwasm\hjwasm2.13.1s\hjwasm2.13.1s\hll.c
;	COMDAT InvertJump
_TEXT	SEGMENT
p$ = 8
InvertJump PROC						; COMDAT

; 550  :   if (*p == NULLC) { /* v2.11: convert 0 to "jmp" */

	cmp	BYTE PTR [rcx], 0
	jne	SHORT $LN2@InvertJump

; 551  :     strcpy(p, "jmp ");

	lea	rdx, OFFSET FLAT:$SG11138
	sub	rcx, rdx
	npad	1
$LL20@InvertJump:
	movzx	eax, BYTE PTR [rdx]
	mov	BYTE PTR [rcx+rdx], al
	lea	rdx, QWORD PTR [rdx+1]
	test	al, al
	jne	SHORT $LL20@InvertJump

; 587  :     *p = ' ';
; 588  :   else
; 589  :     *p = 'e';
; 590  :   return;
; 591  : }

	ret	0
$LN2@InvertJump:

; 552  :     return;
; 553  :   }
; 554  : 
; 555  :   p++;
; 556  :   if (*p == 'e' || *p == 'z' || *p == 'c' || *p == 's' || *p == 'p' || *p == 'o') {

	movzx	edx, BYTE PTR [rcx+1]
	lea	eax, DWORD PTR [rdx-99]
	cmp	al, 23
	ja	SHORT $LN24@InvertJump
	mov	r8d, 8466437				; 00813005H
	bt	r8d, eax
	jae	SHORT $LN24@InvertJump

; 557  :     *(p + 1) = *p;

	mov	BYTE PTR [rcx+2], dl

; 558  :     *p = 'n';

	mov	BYTE PTR [rcx+1], 110			; 0000006eH

; 587  :     *p = ' ';
; 588  :   else
; 589  :     *p = 'e';
; 590  :   return;
; 591  : }

	ret	0
$LN24@InvertJump:

; 559  :     return;
; 560  :   }
; 561  :   else if (*p == 'n') {

	cmp	dl, 110					; 0000006eH
	jne	SHORT $LN6@InvertJump

; 562  :     *p = *(p + 1);

	movzx	eax, BYTE PTR [rcx+2]
	mov	BYTE PTR [rcx+1], al

; 563  :     *(p + 1) = ' ';

	mov	BYTE PTR [rcx+2], 32			; 00000020H

; 587  :     *p = ' ';
; 588  :   else
; 589  :     *p = 'e';
; 590  :   return;
; 591  : }

	ret	0
$LN6@InvertJump:

; 564  :     return;
; 565  :   }
; 566  :   else if (*p == 'a') {

	cmp	dl, 97					; 00000061H
	jne	SHORT $LN8@InvertJump

; 567  :     *p++ = 'b';

	mov	BYTE PTR [rcx+1], 98			; 00000062H

; 568  :   }

	jmp	SHORT $LN26@InvertJump
$LN8@InvertJump:

; 569  :   else if (*p == 'b') {

	cmp	dl, 98					; 00000062H
	jne	SHORT $LN10@InvertJump

; 570  :     *p++ = 'a';

	mov	BYTE PTR [rcx+1], 97			; 00000061H

; 571  :   }

	jmp	SHORT $LN26@InvertJump
$LN10@InvertJump:

; 572  :   else if (*p == 'g') {

	cmp	dl, 103					; 00000067H
	jne	SHORT $LN12@InvertJump

; 573  :     *p++ = 'l';

	mov	BYTE PTR [rcx+1], 108			; 0000006cH

; 574  :   }

	jmp	SHORT $LN26@InvertJump
$LN12@InvertJump:

; 575  :   else if (*p == 'l') {

	cmp	dl, 108					; 0000006cH
	jne	SHORT $LN14@InvertJump

; 576  :     *p++ = 'g';

	mov	BYTE PTR [rcx+1], 103			; 00000067H
$LN26@InvertJump:
	add	rcx, 2

; 583  :     }
; 584  :     return;
; 585  :   }
; 586  :   if (*p == 'e')

	mov	eax, 101				; 00000065H
	mov	edx, 32					; 00000020H
	cmp	BYTE PTR [rcx], al
	cmove	eax, edx
	mov	BYTE PTR [rcx], al

; 587  :     *p = ' ';
; 588  :   else
; 589  :     *p = 'e';
; 590  :   return;
; 591  : }

	ret	0
$LN14@InvertJump:

; 577  :   }
; 578  :   else {
; 579  :     /* v2.11: convert "jmp" to 0 */
; 580  :     if (*p == 'm') {

	cmp	dl, 109					; 0000006dH
	jne	SHORT $LN18@InvertJump

; 581  :       p--;
; 582  :       *p = NULLC;

	mov	BYTE PTR [rcx], 0
$LN18@InvertJump:

; 587  :     *p = ' ';
; 588  :   else
; 589  :     *p = 'e';
; 590  :   return;
; 591  : }

	ret	0
InvertJump ENDP
_TEXT	ENDS
; Function compile flags: /Ogtpy
; File d:\hjwasm\hjwasm2.13.1s\hjwasm2.13.1s\hll.c
;	COMDAT GetSimpleExpression
_TEXT	SEGMENT
op1$ = 64
op2$ = 176
hll$ = 352
op2_pos$1$ = 360
i$ = 360
tokenarray$ = 368
ilabel$ = 376
is_true$ = 384
buffer$ = 392
hllop$ = 400
GetSimpleExpression PROC				; COMDAT

; 348  : {

	mov	DWORD PTR [rsp+32], r9d
	mov	QWORD PTR [rsp+8], rcx
	push	rbx
	push	rbp
	push	rsi
	push	rdi
	push	r12
	push	r13
	push	r15
	sub	rsp, 288				; 00000120H

; 349  :   enum c_bop op;
; 350  :   char instr;
; 351  :   int op1_pos;
; 352  :   int op1_end;
; 353  :   int op2_pos;
; 354  :   int op2_end;
; 355  :   char *p;
; 356  :   struct expr op1;
; 357  :   struct expr op2;
; 358  :   uint_32 label;
; 359  : 
; 360  :   DebugMsg1(("%u GetSimpleExpression(>%.32s< buf=>%s<) enter\n", evallvl, tokenarray[*i].tokpos, buffer));
; 361  : 
; 362  :   while (tokenarray[*i].string_ptr[0] == '!' && tokenarray[*i].string_ptr[1] == '\0') {

	movsxd	rax, DWORD PTR [rdx]
	mov	r12d, r9d
	movzx	ebp, BYTE PTR is_true$[rsp]
	mov	rsi, r8
	shl	rax, 5
	mov	rdi, rdx
	mov	r13, rcx
	mov	ebx, 1
	mov	r10, QWORD PTR [rax+r8+8]
	cmp	BYTE PTR [r10], 33			; 00000021H
	jne	SHORT $LN3@GetSimpleE
	npad	10
$LL2@GetSimpleE:
	movsxd	rcx, DWORD PTR [rdx]
	mov	rax, rcx
	shl	rax, 5
	mov	rax, QWORD PTR [rax+r8+8]
	cmp	BYTE PTR [rax+1], 0
	jne	SHORT $LN3@GetSimpleE

; 363  :     (*i)++; //GetCOp( i );

	inc	ecx

; 364  :     is_true = 1 - is_true;

	mov	eax, ebx
	sub	al, bpl
	mov	DWORD PTR [rdx], ecx
	movzx	ebp, al
	movsxd	rax, ecx
	shl	rax, 5
	mov	rax, QWORD PTR [rax+r8+8]
	cmp	BYTE PTR [rax], 33			; 00000021H
	je	SHORT $LL2@GetSimpleE
$LN3@GetSimpleE:

; 365  :   }
; 366  : 
; 367  :   /* the problem with '()' is that is might enclose just a standard Masm
; 368  :   * expression or a "hll" expression. The first case is to be handled
; 369  :   * entirely by the expression evaluator, while the latter case is to be
; 370  :   * handled HERE!
; 371  :   */
; 372  :   if (tokenarray[*i].token == T_OP_BRACKET) {

	movsxd	r15, DWORD PTR [rdx]
	mov	rax, r15
	mov	QWORD PTR [rsp+368], r14
	shl	rax, 5
	cmp	BYTE PTR [rax+r8], 40			; 00000028H
	jne	SHORT $LN18@GetSimpleE

; 373  :     int brcnt;
; 374  :     int j;
; 375  :     for (brcnt = 1, j = *i + 1; tokenarray[j].token != T_FINAL; j++) {

	inc	r15d
	movsxd	r14, r15d
	mov	rax, r14
	shl	rax, 5
	cmp	BYTE PTR [rax+r8], 0
	lea	rcx, QWORD PTR [rax+r8]
	je	$LN108@GetSimpleE
$LL6@GetSimpleE:
	movzx	eax, BYTE PTR [rcx]

; 376  :       if (tokenarray[j].token == T_OP_BRACKET)

	cmp	al, 40					; 00000028H
	jne	SHORT $LN12@GetSimpleE

; 377  :         brcnt++;

	inc	ebx
	jmp	SHORT $LN4@GetSimpleE
$LN12@GetSimpleE:

; 378  :       else if (tokenarray[j].token == T_CL_BRACKET) {

	cmp	al, 41					; 00000029H
	jne	SHORT $LN14@GetSimpleE

; 379  :         brcnt--;

	sub	ebx, 1

; 380  :         if (brcnt == 0) /* a standard Masm expression? */

	jne	SHORT $LN4@GetSimpleE
$LN18@GetSimpleE:

; 399  :     }
; 400  :   }
; 401  : 
; 402  :   /* get (first) operand */
; 403  :   op1_pos = *i;

	movsxd	r12, DWORD PTR [rdi]

; 404  :   if (ERROR == GetToken(hll, i, tokenarray, &op1))

	lea	r9, QWORD PTR op1$[rsp]
	mov	r8, rsi
	mov	rdx, rdi
	mov	rcx, r13
	call	GetToken
	cmp	eax, -1
	je	$LN119@GetSimpleE

; 405  :     return (ERROR);
; 406  :   op1_end = *i;

	movsxd	r15, DWORD PTR [rdi]

; 407  : 
; 408  :   op = GetCOp(&tokenarray[*i]); /* get operator */

	mov	rcx, r15
	shl	rcx, 5
	add	rcx, rsi
	call	GetCOp
	xor	r14d, r14d
	mov	ebx, eax
	lea	ecx, DWORD PTR [rax-7]
	cmp	ecx, 1
	jbe	$LN24@GetSimpleE

; 416  :   }
; 417  :   else if (op != COP_NONE)

	test	eax, eax
	je	$LN25@GetSimpleE

; 418  :     (*i)++;

	inc	DWORD PTR [rdi]
	jmp	$LN25@GetSimpleE
$LN14@GetSimpleE:

; 381  :           break;
; 382  :       }
; 383  :       else if ((GetCOp(&tokenarray[j])) != COP_NONE)

	movsxd	rcx, r15d
	shl	rcx, 5
	add	rcx, rsi
	call	GetCOp
	test	eax, eax
	jne	SHORT $LN100@GetSimpleE
$LN4@GetSimpleE:

; 373  :     int brcnt;
; 374  :     int j;
; 375  :     for (brcnt = 1, j = *i + 1; tokenarray[j].token != T_FINAL; j++) {

	inc	r14
	inc	r15d
	mov	rax, r14
	shl	rax, 5
	cmp	BYTE PTR [rax+rsi], 0
	lea	rcx, QWORD PTR [rax+rsi]
	jne	$LL6@GetSimpleE
$LN100@GetSimpleE:

; 384  :         break;
; 385  :     }
; 386  :     if (brcnt) {

	test	ebx, ebx
	je	$LN18@GetSimpleE
$LN108@GetSimpleE:

; 387  :       (*i)++;
; 388  :       DebugMsg1(("%u GetSimpleExpression: calling GetExpression, i=%u\n", evallvl, *i));
; 389  :       if (ERROR == GetExpression(hll, i, tokenarray, ilabel, is_true, buffer, hllop))

	mov	rax, QWORD PTR hllop$[rsp]
	mov	r9d, r12d
	inc	DWORD PTR [rdi]
	mov	r8, rsi
	mov	QWORD PTR [rsp+48], rax
	mov	rdx, rdi
	mov	rax, QWORD PTR buffer$[rsp]
	mov	rcx, r13
	mov	QWORD PTR [rsp+40], rax
	mov	BYTE PTR [rsp+32], bpl
	call	GetExpression
	cmp	eax, -1
	jne	SHORT $LN19@GetSimpleE
$LN119@GetSimpleE:

; 390  :         return(ERROR);

	or	rax, -1
	jmp	$LN1@GetSimpleE
$LN19@GetSimpleE:

; 391  : 
; 392  :       if (tokenarray[*i].token != T_CL_BRACKET) {

	movsxd	rcx, DWORD PTR [rdi]
	mov	rax, rcx
	shl	rax, 5
	cmp	BYTE PTR [rax+rsi], 41			; 00000029H
	jne	$LN28@GetSimpleE

; 393  :         //if (( tokenarray[*i].token == T_FINAL ) || ( tokenarray[*i].token == T_CL_BRACKET ))
; 394  :         DebugMsg(("GetSimpleExpression: expected ')', found: %s\n", tokenarray[*i].string_ptr));
; 395  :         return(EmitError(SYNTAX_ERROR_IN_CONTROL_FLOW_DIRECTIVE));
; 396  :       }
; 397  :       (*i)++;

	lea	eax, DWORD PTR [rcx+1]
	mov	DWORD PTR [rdi], eax

; 398  :       return(NOT_ERROR);

	xor	eax, eax
	jmp	$LN1@GetSimpleE
$LN24@GetSimpleE:

; 409  : 
; 410  :   /* lower precedence operator ( && or || ) detected? */
; 411  :   if (op == COP_AND || op == COP_OR) {
; 412  :     /* v2.11: next 2 lines removed - && and || operators need a valid first operand */
; 413  :     //if ( op1.kind == EXPR_EMPTY )
; 414  :     //    return( NOT_ERROR );
; 415  :     op = COP_NONE;

	mov	ebx, r14d
$LN25@GetSimpleE:

; 419  : 
; 420  :   label = GetLabel(hll, ilabel);

	movsxd	rax, DWORD PTR ilabel$[rsp]
	mov	r13d, DWORD PTR [r13+rax*4+8]

; 421  : 
; 422  :   DebugMsg1(("%u GetSimpleExpression: EvalOperand ok, kind=%X, i=%u [%s]\n", evallvl, op1.kind, *i, tokenarray[*i].tokpos));
; 423  : 
; 424  :   /* check for special operators with implicite operand:
; 425  :   * COP_ZERO, COP_CARRY, COP_SIGN, COP_PARITY, COP_OVERFLOW
; 426  :   */
; 427  :   if (op >= COP_ZERO) {

	cmp	ebx, 11
	jl	SHORT $LN26@GetSimpleE

; 428  :     if (op1.kind != EXPR_EMPTY) {

	cmp	DWORD PTR op1$[rsp+60], -2
	jne	$LN28@GetSimpleE

; 429  :       DebugMsg(("GetSimpleExpression: non-empty expression rejected: %s\n", tokenarray[op1_pos].tokpos));
; 430  :       return(EmitError(SYNTAX_ERROR_IN_CONTROL_FLOW_DIRECTIVE));
; 431  :     }
; 432  :     p = buffer;
; 433  :     hllop->lastjmp = p;

	mov	rax, QWORD PTR hllop$[rsp]

; 434  :        RenderJcc(p, flaginstr[op - COP_ZERO], !is_true, label);

	lea	rdx, OFFSET FLAT:__ImageBase
	mov	rcx, QWORD PTR buffer$[rsp]
	test	bpl, bpl
	mov	r9d, r13d
	sete	r14b
	mov	QWORD PTR [rax], rcx
	mov	r8d, r14d
	movsxd	rax, ebx
	movzx	edx, BYTE PTR flaginstr[rax+rdx-11]
	call	RenderJcc

; 435  :     return(NOT_ERROR);

	xor	eax, eax
	jmp	$LN1@GetSimpleE
$LN26@GetSimpleE:

; 436  :   }
; 437  : 
; 438  :   switch (op1.kind) {

	mov	ecx, DWORD PTR op1$[rsp+60]
	cmp	ecx, -2
	je	$LN28@GetSimpleE
	cmp	ecx, 3
	je	$LN29@GetSimpleE

; 445  :   }
; 446  : 
; 447  :   if (op == COP_NONE) {

	test	ebx, ebx
	jne	$LN30@GetSimpleE

; 448  :     switch (op1.kind) {

	test	ecx, ecx
	je	$LN34@GetSimpleE
	sub	ecx, 1
	je	SHORT $LN32@GetSimpleE
	cmp	ecx, 1
	jne	$LN37@GetSimpleE

; 449  :     case EXPR_REG:
; 450  :       if (op1.indirect == FALSE) {

	test	BYTE PTR op1$[rsp+72], cl
	jne	SHORT $LN32@GetSimpleE

; 451  :         p = RenderInstr(buffer, "test", op1_pos, op1_end, op1_pos, op1_end, tokenarray);

	mov	rcx, QWORD PTR buffer$[rsp]
	lea	rdx, OFFSET FLAT:$SG11111
	mov	QWORD PTR [rsp+48], rsi
	mov	r9d, r15d
	mov	DWORD PTR [rsp+40], r15d
	mov	r8d, r12d
	mov	DWORD PTR [rsp+32], r12d
	call	RenderInstr

; 452  :         hllop->lastjmp = p;

	mov	rcx, QWORD PTR hllop$[rsp]

; 453  :         RenderJcc(p, 'z', is_true, label);

	mov	r9d, r13d
	movzx	r8d, bpl
	mov	dl, 122					; 0000007aH
	mov	QWORD PTR [rcx], rax
	mov	rcx, rax
	call	RenderJcc

; 482  :       }
; 483  :       break;
; 484  : #ifdef DEBUG_OUT
; 485  :     default: /**/myassert(0); break;
; 486  : #endif
; 487  :     }
; 488  :     return(NOT_ERROR);

	xor	eax, eax
	jmp	$LN1@GetSimpleE
$LN32@GetSimpleE:

; 454  :         break;
; 455  :       }
; 456  :       /* no break */
; 457  :     case EXPR_ADDR:
; 458  :       p = RenderInstr(buffer, "cmp", op1_pos, op1_end, EMPTY, 0, tokenarray);

	lea	rdx, OFFSET FLAT:$SG11113
	or	rax, -1
$LL113@GetSimpleE:
	inc	rax
	cmp	BYTE PTR [rdx+rax], r14b
	jne	SHORT $LL113@GetSimpleE
	mov	rcx, QWORD PTR buffer$[rsp]
	movsxd	rdi, eax
	mov	r8, rdi
	call	memcpy
	add	rdi, QWORD PTR buffer$[rsp]
	mov	rax, r15
	shl	rax, 5
	mov	rdx, r12
	shl	rdx, 5
	mov	BYTE PTR [rdi], 32			; 00000020H
	inc	rdi
	mov	eax, DWORD PTR [rax+rsi+24]
	mov	rcx, rdi
	sub	eax, DWORD PTR [rdx+rsi+24]
	mov	rdx, QWORD PTR [rdx+rsi+24]
	movsxd	rbx, eax
	mov	r8, rbx
	call	memcpy
	add	rdi, rbx
	lea	rdx, OFFSET FLAT:$SG11007
	mov	rcx, rdi
	xor	r8d, r8d
	call	sprintf
	movsxd	rdx, eax

; 459  :       hllop->lastjmp = p;
; 460  :       RenderJcc(p, 'z', is_true, label);

	mov	r9d, r13d
	mov	rax, QWORD PTR hllop$[rsp]
	add	rdi, rdx
	movzx	r8d, bpl
	mov	dl, 122					; 0000007aH
	mov	BYTE PTR [rdi], 10
	inc	rdi
	mov	rcx, rdi
	mov	BYTE PTR [rdi], r14b
	mov	QWORD PTR [rax], rdi
	call	RenderJcc

; 482  :       }
; 483  :       break;
; 484  : #ifdef DEBUG_OUT
; 485  :     default: /**/myassert(0); break;
; 486  : #endif
; 487  :     }
; 488  :     return(NOT_ERROR);

	xor	eax, eax
	jmp	$LN1@GetSimpleE
$LN34@GetSimpleE:
	mov	eax, DWORD PTR op1$[rsp+4]
	inc	eax
	cmp	eax, 1
	jbe	SHORT $LN35@GetSimpleE

; 461  :       break;
; 462  :     case EXPR_CONST:
; 463  : #if 0
; 464  :       /* v2.05: string constant is allowed! */
; 465  :       if (op1.string != NULL) {
; 466  :         return(EmitError(SYNTAX_ERROR_IN_CONTROL_FLOW_DIRECTIVE));
; 467  :       }
; 468  : #endif
; 469  :       /* v2.11: error if constant doesn't fit in 32-bits */
; 470  :       if (op1.hvalue != 0 && op1.hvalue != -1)
; 471  :         return(EmitConstError(&op1));

	lea	rcx, QWORD PTR op1$[rsp]
	call	EmitConstError
	jmp	$LN1@GetSimpleE
$LN35@GetSimpleE:

; 472  : 
; 473  :       hllop->lastjmp = buffer;

	mov	rax, QWORD PTR hllop$[rsp]
	mov	rcx, QWORD PTR buffer$[rsp]
	mov	QWORD PTR [rax], rcx

; 474  : 
; 475  :       if ((is_true == TRUE && op1.value) ||

	cmp	bpl, 1
	jne	SHORT $LN39@GetSimpleE
	cmp	DWORD PTR op1$[rsp], r14d
	jne	SHORT $LN38@GetSimpleE
$LN36@GetSimpleE:

; 478  :       }
; 479  :       else {
; 480  :         //strcpy( buffer, " " EOLSTR ); /* v2.11: obsolete */
; 481  :         *buffer = NULLC;

	mov	BYTE PTR [rcx], r14b
$LN37@GetSimpleE:

; 482  :       }
; 483  :       break;
; 484  : #ifdef DEBUG_OUT
; 485  :     default: /**/myassert(0); break;
; 486  : #endif
; 487  :     }
; 488  :     return(NOT_ERROR);

	xor	eax, eax
	jmp	$LN1@GetSimpleE
$LN39@GetSimpleE:

; 474  : 
; 475  :       if ((is_true == TRUE && op1.value) ||

	test	bpl, bpl
	jne	SHORT $LN36@GetSimpleE
	cmp	DWORD PTR op1$[rsp], r14d
	jne	SHORT $LN36@GetSimpleE
$LN38@GetSimpleE:

; 476  :         (is_true == FALSE && op1.value == 0)) {
; 477  :         sprintf(buffer, "jmp " LABELFMT EOLSTR, label);

	mov	r8d, r13d
	lea	rdx, OFFSET FLAT:$SG11120
	call	sprintf

; 482  :       }
; 483  :       break;
; 484  : #ifdef DEBUG_OUT
; 485  :     default: /**/myassert(0); break;
; 486  : #endif
; 487  :     }
; 488  :     return(NOT_ERROR);

	xor	eax, eax
	jmp	$LN1@GetSimpleE
$LN30@GetSimpleE:

; 489  :   }
; 490  : 
; 491  :   /* get second operand for binary operator */
; 492  :   op2_pos = *i;

	mov	eax, DWORD PTR [rdi]

; 493  :   if (ERROR == GetToken(hll, i, tokenarray, &op2)) {

	lea	r9, QWORD PTR op2$[rsp]
	mov	rcx, QWORD PTR hll$[rsp]
	mov	r8, rsi
	mov	rdx, rdi
	mov	DWORD PTR op2_pos$1$[rsp], eax
	call	GetToken
	cmp	eax, -1
	je	$LN119@GetSimpleE

; 494  :     return(ERROR);
; 495  :   }
; 496  :   DebugMsg1(("%u GetSimpleExpression: EvalOperand 2 ok, type=%X, i=%u [%s]\n", evallvl, op2.type, *i, tokenarray[*i].tokpos));
; 497  :   if (op2.kind != EXPR_CONST && op2.kind != EXPR_ADDR && op2.kind != EXPR_REG) {
; 498  :     DebugMsg(("GetSimpleExpression: syntax error, op2.kind=%u\n", op2.kind));
; 499  :     return(EmitError(SYNTAX_ERROR_IN_CONTROL_FLOW_DIRECTIVE));

	mov	ecx, DWORD PTR op2$[rsp+60]
	cmp	ecx, 2
	ja	$LN28@GetSimpleE

; 500  :   }
; 501  :   op2_end = *i;

	mov	edx, DWORD PTR [rdi]

; 502  : 
; 503  :   /* now generate ASM code for expression */
; 504  : 
; 505  :   if (op == COP_ANDB) {

	cmp	ebx, 9
	jne	SHORT $LN42@GetSimpleE

; 506  :     p = RenderInstr(buffer, "test", op1_pos, op1_end, op2_pos, op2_end, tokenarray);

	mov	eax, DWORD PTR op2_pos$1$[rsp]
	mov	r9d, r15d
	mov	rcx, QWORD PTR buffer$[rsp]
	mov	r8d, r12d
	mov	QWORD PTR [rsp+48], rsi
	mov	DWORD PTR [rsp+40], edx
	lea	rdx, OFFSET FLAT:$SG11125
	mov	DWORD PTR [rsp+32], eax
	call	RenderInstr

; 507  :     hllop->lastjmp = p;

	mov	rcx, QWORD PTR hllop$[rsp]

; 508  :     RenderJcc(p, 'e', is_true, label);

	mov	dl, 101					; 00000065H
	movzx	r8d, bpl

; 527  :     RenderJcc(p, instr, neg_cjmptype[op - COP_EQ] ? is_true : !is_true, label);

	mov	r9d, r13d
	mov	QWORD PTR [rcx], rax
	mov	rcx, rax
	call	RenderJcc

; 528  :   }
; 529  :   else {
; 530  :     DebugMsg(("GetSimpleExpression: unexpected operator %s\n", tokenarray[op1_pos].tokpos));
; 531  :     return(EmitError(SYNTAX_ERROR_IN_CONTROL_FLOW_DIRECTIVE));
; 532  :   }
; 533  :   return(NOT_ERROR);

	xor	eax, eax
	jmp	$LN1@GetSimpleE
$LN42@GetSimpleE:

; 509  :   }
; 510  :   else if (op <= COP_LE) { /* ==, !=, >, <, >= or <= operator */

	cmp	ebx, 6
	jg	$LN28@GetSimpleE

; 511  :     /*
; 512  :     * optimisation: generate 'or EAX,EAX' instead of 'cmp EAX,0'.
; 513  :     * v2.11: use op2.value64 instead of op2.value
; 514  :     */
; 515  :     if (Options.masm_compat_gencode &&
; 516  :       (op == COP_EQ || op == COP_NE) &&
; 517  :       op1.kind == EXPR_REG && op1.indirect == FALSE &&
; 518  :       op2.kind == EXPR_CONST && op2.value64 == 0) {

	cmp	BYTE PTR Options+128, r14b
	je	SHORT $LN46@GetSimpleE
	lea	eax, DWORD PTR [rbx-1]
	cmp	eax, 1
	ja	SHORT $LN46@GetSimpleE
	cmp	DWORD PTR op1$[rsp+60], 2
	jne	SHORT $LN46@GetSimpleE
	test	BYTE PTR op1$[rsp+72], 1
	jne	SHORT $LN46@GetSimpleE
	test	ecx, ecx
	jne	SHORT $LN46@GetSimpleE
	cmp	QWORD PTR op2$[rsp], r14
	jne	SHORT $LN46@GetSimpleE

; 519  :       p = RenderInstr(buffer, "or", op1_pos, op1_end, op1_pos, op1_end, tokenarray);

	mov	QWORD PTR [rsp+48], rsi
	lea	rdx, OFFSET FLAT:$SG11131
	mov	DWORD PTR [rsp+40], r15d
	mov	DWORD PTR [rsp+32], r12d

; 520  :     }

	jmp	SHORT $LN116@GetSimpleE
$LN46@GetSimpleE:

; 521  :     else {
; 522  :       p = RenderInstr(buffer, "cmp", op1_pos, op1_end, op2_pos, op2_end, tokenarray);

	mov	eax, DWORD PTR op2_pos$1$[rsp]
	mov	QWORD PTR [rsp+48], rsi
	mov	DWORD PTR [rsp+40], edx
	lea	rdx, OFFSET FLAT:$SG11132
	mov	DWORD PTR [rsp+32], eax
$LN116@GetSimpleE:
	mov	rcx, QWORD PTR buffer$[rsp]
	mov	r9d, r15d
	mov	r8d, r12d
	call	RenderInstr
	mov	r10, rax

; 523  :     }
; 524  : 
; 525  :     instr = ((IS_SIGNED(op1.mem_type) || IS_SIGNED(op2.mem_type)) ? signed_cjmptype[op - COP_EQ] : unsigned_cjmptype[op - COP_EQ]);

	mov	eax, DWORD PTR op1$[rsp+64]
	and	al, -64					; ffffffffffffffc0H
	cmp	al, 64					; 00000040H
	je	SHORT $LN50@GetSimpleE
	mov	eax, DWORD PTR op2$[rsp+64]
	and	al, -64					; ffffffffffffffc0H
	cmp	al, 64					; 00000040H
	je	SHORT $LN50@GetSimpleE
	movsxd	rcx, ebx
	lea	rdx, OFFSET FLAT:__ImageBase
	movzx	r11d, BYTE PTR unsigned_cjmptype[rcx+rdx-1]
	jmp	SHORT $LN51@GetSimpleE
$LN50@GetSimpleE:
	movsxd	rcx, ebx
	lea	rdx, OFFSET FLAT:__ImageBase
	movzx	r11d, BYTE PTR signed_cjmptype[rcx+rdx-1]
$LN51@GetSimpleE:

; 526  :     hllop->lastjmp = p;

	mov	rax, QWORD PTR hllop$[rsp]
	mov	QWORD PTR [rax], r10

; 527  :     RenderJcc(p, instr, neg_cjmptype[op - COP_EQ] ? is_true : !is_true, label);

	cmp	BYTE PTR neg_cjmptype[rcx+rdx-1], r14b
	je	SHORT $LN52@GetSimpleE
	movzx	r14d, bpl
	jmp	SHORT $LN53@GetSimpleE
$LN52@GetSimpleE:
	test	bpl, bpl
	sete	r14b
$LN53@GetSimpleE:
	mov	r8d, r14d
	movzx	edx, r11b
	mov	rcx, r10
	mov	r9d, r13d
	call	RenderJcc

; 528  :   }
; 529  :   else {
; 530  :     DebugMsg(("GetSimpleExpression: unexpected operator %s\n", tokenarray[op1_pos].tokpos));
; 531  :     return(EmitError(SYNTAX_ERROR_IN_CONTROL_FLOW_DIRECTIVE));
; 532  :   }
; 533  :   return(NOT_ERROR);

	xor	eax, eax
	jmp	SHORT $LN1@GetSimpleE
$LN29@GetSimpleE:

; 442  :   case EXPR_FLOAT:
; 443  :     DebugMsg(("GetSimpleExpression: float expression rejected: %s\n", tokenarray[op1_pos].tokpos));
; 444  :     return(EmitError(REAL_OR_BCD_NUMBER_NOT_ALLOWED)); /* v2.10: added */

	mov	ecx, 270				; 0000010eH
	jmp	SHORT $LN118@GetSimpleE
$LN28@GetSimpleE:

; 439  :   case EXPR_EMPTY:
; 440  :     DebugMsg(("GetSimpleExpression: empty expression rejected\n"));
; 441  :     return(EmitError(SYNTAX_ERROR_IN_CONTROL_FLOW_DIRECTIVE)); /* v2.09: changed from NOT_ERROR to ERROR */

	mov	ecx, 199				; 000000c7H
$LN118@GetSimpleE:
	call	EmitError
$LN1@GetSimpleE:
	mov	r14, QWORD PTR [rsp+368]

; 534  : }

	add	rsp, 288				; 00000120H
	pop	r15
	pop	r13
	pop	r12
	pop	rdi
	pop	rsi
	pop	rbp
	pop	rbx
	ret	0
GetSimpleExpression ENDP
_TEXT	ENDS
; Function compile flags: /Ogtpy
; File d:\hjwasm\hjwasm2.13.1s\hjwasm2.13.1s\hll.c
;	COMDAT GetLabel
_TEXT	SEGMENT
hll$ = 8
index$ = 16
GetLabel PROC						; COMDAT

; 336  :   /**/myassert(hll->labels[index]);
; 337  :   return(hll->labels[index]);

	movsxd	rax, edx
	mov	eax, DWORD PTR [rcx+rax*4+8]

; 338  : }

	ret	0
GetLabel ENDP
_TEXT	ENDS
; Function compile flags: /Ogtpy
; File d:\hjwasm\hjwasm2.13.1s\hjwasm2.13.1s\hll.c
;	COMDAT GetToken
_TEXT	SEGMENT
hll$ = 80
i$ = 88
tokenarray$ = 96
opnd$ = 104
GetToken PROC						; COMDAT

; 305  : {

	mov	QWORD PTR [rsp+32], rbp
	push	rdi
	push	r14
	push	r15
	sub	rsp, 48					; 00000030H

; 306  :   int end_tok;
; 307  : 
; 308  :   /* scan for the next C operator in the token array.
; 309  :   * because the ASM evaluator may report an error if such a thing
; 310  :   * is found ( CARRY?, ZERO? and alikes will be regarded as - not yet defined - labels )
; 311  :   */
; 312  :   for (end_tok = *i; end_tok < Token_Count; end_tok++) {

	movsxd	rdi, DWORD PTR [rdx]
	mov	rbp, r9
	cmp	edi, DWORD PTR ModuleInfo+496
	mov	r15, r8
	mov	r14, rdx
	jge	$LN81@GetToken
	mov	QWORD PTR [rsp+80], rbx
	mov	QWORD PTR [rsp+88], rsi
	mov	rsi, rdi
	shl	rsi, 5
	mov	QWORD PTR [rsp+96], r12
	add	rsi, r8
	mov	r12, 5764607806502076416		; 5000004200000000H
	npad	7
$LL4@GetToken:

; 313  :     if ((GetCOp(&tokenarray[end_tok])) != COP_NONE)

	movzx	ecx, BYTE PTR [rsi]
	mov	rbx, QWORD PTR [rsi+8]
	cmp	cl, 9
	jne	SHORT $LN24@GetToken
	mov	eax, DWORD PTR [rsi+16]
	cmp	eax, 2
	jne	SHORT $LN15@GetToken
	movzx	ecx, WORD PTR [rbx]
	cmp	ecx, 15677				; 00003d3dH
	jg	SHORT $LN56@GetToken
	je	$LN84@GetToken
	sub	ecx, 9766				; 00002626H
	je	$LN84@GetToken
	sub	ecx, 5883				; 000016fbH
	je	$LN84@GetToken
	sub	ecx, 27
	jmp	$LN85@GetToken
$LN56@GetToken:
	cmp	ecx, 15678				; 00003d3eH
	je	$LN84@GetToken
	cmp	ecx, 31868				; 00007c7cH
	jmp	$LN85@GetToken
$LN15@GetToken:
	cmp	eax, 1
	jne	SHORT $LN24@GetToken
	movzx	eax, BYTE PTR [rbx]
	cmp	al, 62					; 0000003eH
	ja	$LN51@GetToken
	bt	r12, rax
	jb	$LN84@GetToken
	jmp	$LN51@GetToken
$LN24@GetToken:
	cmp	cl, 8
	jne	$LN51@GetToken
	or	rcx, -1
	npad	8
$LL80@GetToken:
	inc	rcx
	cmp	BYTE PTR [rbx+rcx], 0
	jne	SHORT $LL80@GetToken
	movsxd	rax, ecx
	cmp	BYTE PTR [rax+rbx-1], 63		; 0000003fH
	jne	$LN51@GetToken
	cmp	ecx, 5
	jne	SHORT $LN33@GetToken
	lea	r8d, QWORD PTR [rcx-1]
	mov	rcx, rbx
	lea	rdx, OFFSET FLAT:$SG10959
	call	_memicmp
	test	eax, eax
	je	$LN84@GetToken
	mov	r8d, 4
	lea	rdx, OFFSET FLAT:$SG10965
	mov	rcx, rbx
	call	_memicmp
	test	eax, eax
	je	$LN84@GetToken
	mov	r8d, 4
	lea	rdx, OFFSET FLAT:$SG10974
	jmp	$LN86@GetToken
$LN33@GetToken:
	cmp	ecx, 6
	jne	SHORT $LN37@GetToken
	lea	r8d, QWORD PTR [rcx-1]
	mov	rcx, rbx
	lea	rdx, OFFSET FLAT:$SG10962
	call	_memicmp
	test	eax, eax
	je	$LN84@GetToken
	mov	r8d, 5
	lea	rdx, OFFSET FLAT:$SG10980
	mov	rcx, rbx
	call	_memicmp
	test	eax, eax
	je	SHORT $LN84@GetToken
	mov	r8d, 5
	lea	rdx, OFFSET FLAT:$SG10983
	mov	rcx, rbx
	call	_memicmp
	test	eax, eax
	je	SHORT $LN84@GetToken
	mov	r8d, 5
	lea	rdx, OFFSET FLAT:$SG10986
	jmp	SHORT $LN86@GetToken
$LN37@GetToken:
	cmp	ecx, 7
	jne	SHORT $LN39@GetToken
	lea	r8d, QWORD PTR [rcx-1]
	lea	rdx, OFFSET FLAT:$SG10968
	jmp	SHORT $LN86@GetToken
$LN39@GetToken:
	cmp	ecx, 9
	jne	SHORT $LN43@GetToken
	lea	r8d, QWORD PTR [rcx-1]
	lea	rdx, OFFSET FLAT:$SG10971
	jmp	SHORT $LN86@GetToken
$LN43@GetToken:
	cmp	ecx, 8
	jne	SHORT $LN51@GetToken
	lea	r8d, QWORD PTR [rcx-1]
	lea	rdx, OFFSET FLAT:$SG10977
$LN86@GetToken:
	mov	rcx, rbx
	call	_memicmp
	test	eax, eax
$LN85@GetToken:
	je	SHORT $LN84@GetToken
$LN51@GetToken:

; 306  :   int end_tok;
; 307  : 
; 308  :   /* scan for the next C operator in the token array.
; 309  :   * because the ASM evaluator may report an error if such a thing
; 310  :   * is found ( CARRY?, ZERO? and alikes will be regarded as - not yet defined - labels )
; 311  :   */
; 312  :   for (end_tok = *i; end_tok < Token_Count; end_tok++) {

	inc	edi
	add	rsi, 32					; 00000020H
	cmp	edi, DWORD PTR ModuleInfo+496
	jl	$LL4@GetToken
$LN84@GetToken:
	mov	rsi, QWORD PTR [rsp+88]
	mov	rbx, QWORD PTR [rsp+80]
	mov	r12, QWORD PTR [rsp+96]
$LN81@GetToken:

; 314  :       break;
; 315  :   }
; 316  :   if (end_tok == *i) {

	cmp	edi, DWORD PTR [r14]
	jne	SHORT $LN6@GetToken

; 317  :     opnd->kind = EXPR_EMPTY;

	mov	DWORD PTR [rbp+60], -2
$LN8@GetToken:

; 328  :   }
; 329  : 
; 330  :   return(NOT_ERROR);

	xor	eax, eax

; 331  : }

	mov	rbp, QWORD PTR [rsp+104]
	add	rsp, 48					; 00000030H
	pop	r15
	pop	r14
	pop	rdi
	ret	0
$LN6@GetToken:

; 318  :     return(NOT_ERROR);
; 319  :   }
; 320  :   if (ERROR == EvalOperand(i, tokenarray, end_tok, opnd, 0))

	mov	r9, rbp
	mov	BYTE PTR [rsp+32], 0
	mov	r8d, edi
	mov	rdx, r15
	mov	rcx, r14
	call	EvalOperand
	cmp	eax, -1
	jne	SHORT $LN7@GetToken

; 321  :     return(ERROR);

	or	eax, eax

; 331  : }

	mov	rbp, QWORD PTR [rsp+104]
	add	rsp, 48					; 00000030H
	pop	r15
	pop	r14
	pop	rdi
	ret	0
$LN7@GetToken:

; 322  : 
; 323  :   /* v2.11: emit error 'syntax error in control flow directive'.
; 324  :   * May happen for expressions like ".if 1 + CARRY?"
; 325  :   */
; 326  :   if (*i > end_tok) {

	cmp	DWORD PTR [r14], edi
	jle	SHORT $LN8@GetToken

; 327  :     return(EmitError(SYNTAX_ERROR_IN_CONTROL_FLOW_DIRECTIVE));

	mov	ecx, 199				; 000000c7H

; 331  : }

	mov	rbp, QWORD PTR [rsp+104]
	add	rsp, 48					; 00000030H
	pop	r15
	pop	r14
	pop	rdi

; 327  :     return(EmitError(SYNTAX_ERROR_IN_CONTROL_FLOW_DIRECTIVE));

	jmp	EmitError
GetToken ENDP
_TEXT	ENDS
; Function compile flags: /Ogtpy
; File d:\hjwasm\hjwasm2.13.1s\hjwasm2.13.1s\hll.c
;	COMDAT RenderJcc
_TEXT	SEGMENT
dst$ = 48
cc$ = 56
neg$ = 64
label$ = 72
RenderJcc PROC						; COMDAT

; 280  : {

	push	rbx
	sub	rsp, 32					; 00000020H

; 281  : #ifdef DEBUG_OUT
; 282  :   char *old = dst;
; 283  : #endif
; 284  :   /* create the jump opcode: j[n]cc */
; 285  :   *dst++ = 'j';

	mov	BYTE PTR [rcx], 106			; 0000006aH
	lea	rbx, QWORD PTR [rcx+1]

; 286  :   if (neg)

	test	r8d, r8d
	je	SHORT $LN2@RenderJcc

; 287  :     *dst++ = 'n';

	mov	BYTE PTR [rbx], 110			; 0000006eH
	inc	rbx
$LN2@RenderJcc:

; 288  :   *dst++ = cc;

	mov	BYTE PTR [rbx], dl
	inc	rbx

; 289  :   if (neg == FALSE)

	test	r8d, r8d
	jne	SHORT $LN3@RenderJcc

; 290  :     *dst++ = ' '; /* make sure there's room for the inverse jmp */

	mov	BYTE PTR [rbx], 32			; 00000020H
	inc	rbx
$LN3@RenderJcc:

; 291  : 
; 292  :   *dst++ = ' ';
; 293  :   GetLabelStr(label, dst);

	mov	r8d, r9d
	mov	BYTE PTR [rbx], 32			; 00000020H
	lea	rdx, OFFSET FLAT:$SG11014
	lea	rcx, QWORD PTR [rbx+1]
	call	sprintf

; 294  :   dst += strlen(dst);

	or	rax, -1
$LL7@RenderJcc:
	inc	rax
	cmp	BYTE PTR [rbx+rax+1], 0
	jne	SHORT $LL7@RenderJcc

; 295  :   *dst++ = EOLCHAR;

	mov	WORD PTR [rbx+rax+1], 10

; 296  :   *dst = NULLC;
; 297  :   DebugMsg1(("%u RenderJcc()=>%s<\n", evallvl, old));
; 298  :   return(dst);

	add	rbx, 2
	add	rax, rbx

; 299  : }

	add	rsp, 32					; 00000020H
	pop	rbx
	ret	0
RenderJcc ENDP
_TEXT	ENDS
; Function compile flags: /Ogtpy
; File d:\hjwasm\hjwasm2.13.1s\hjwasm2.13.1s\hll.c
;	COMDAT GetLabelStr
_TEXT	SEGMENT
label$ = 48
buff$ = 56
GetLabelStr PROC					; COMDAT

; 271  : {

	push	rbx
	sub	rsp, 32					; 00000020H
	mov	rbx, rdx

; 272  :   sprintf(buff, LABELFMT, label);

	mov	r8d, ecx
	mov	rcx, rbx
	lea	rdx, OFFSET FLAT:$SG11014
	call	sprintf

; 273  :   return(buff);

	mov	rax, rbx

; 274  : }

	add	rsp, 32					; 00000020H
	pop	rbx
	ret	0
GetLabelStr ENDP
_TEXT	ENDS
; Function compile flags: /Ogtpy
; File d:\hjwasm\hjwasm2.13.1s\hjwasm2.13.1s\hll.c
;	COMDAT RenderInstr
_TEXT	SEGMENT
dst$ = 48
instr$ = 56
start1$ = 64
end1$ = 72
start2$ = 80
end2$ = 88
tokenarray$ = 96
RenderInstr PROC					; COMDAT

; 238  : {

	mov	QWORD PTR [rsp+8], rbx
	mov	QWORD PTR [rsp+16], rbp
	mov	QWORD PTR [rsp+24], rsi
	push	rdi
	sub	rsp, 32					; 00000020H
	movsxd	rbp, r9d
	mov	rbx, rcx
	movsxd	rsi, r8d

; 239  :   int i;
; 240  : #ifdef DEBUG_OUT
; 241  :   char *old = dst;
; 242  : #endif
; 243  :   i = strlen(instr);

	or	rax, -1
$LL6@RenderInst:
	inc	rax
	cmp	BYTE PTR [rdx+rax], 0
	jne	SHORT $LL6@RenderInst

; 244  :   /* copy the instruction */
; 245  :   memcpy(dst, instr, i);

	movsxd	rdi, eax
	mov	r8, rdi
	call	memcpy

; 246  :   dst += i;

	add	rbx, rdi

; 247  :   /* copy the first operand's tokens */
; 248  :   *dst++ = ' ';
; 249  :   i = tokenarray[end1].tokpos - tokenarray[start1].tokpos;

	mov	rdx, rsi
	mov	rsi, QWORD PTR tokenarray$[rsp]
	mov	rax, rbp
	shl	rdx, 5
	shl	rax, 5
	mov	BYTE PTR [rbx], 32			; 00000020H
	inc	rbx
	mov	ecx, DWORD PTR [rax+rsi+24]
	sub	ecx, DWORD PTR [rdx+rsi+24]

; 250  :   memcpy(dst, tokenarray[start1].tokpos, i);

	mov	rdx, QWORD PTR [rdx+rsi+24]
	movsxd	rdi, ecx
	mov	rcx, rbx
	mov	r8, rdi
	call	memcpy

; 251  :   dst += i;
; 252  :   if (start2 != EMPTY) {

	movsxd	rax, DWORD PTR start2$[rsp]
	add	rbx, rdi
	cmp	eax, -2
	je	SHORT $LN2@RenderInst

; 253  :     *dst++ = ',';

	mov	WORD PTR [rbx], 8236			; 0000202cH

; 254  :     /* copy the second operand's tokens */
; 255  :     *dst++ = ' ';
; 256  :     i = tokenarray[end2].tokpos - tokenarray[start2].tokpos;

	mov	rdx, rax
	movsxd	rax, DWORD PTR end2$[rsp]
	add	rbx, 2
	shl	rdx, 5
	shl	rax, 5
	mov	ecx, DWORD PTR [rax+rsi+24]
	sub	ecx, DWORD PTR [rdx+rsi+24]

; 257  :     memcpy(dst, tokenarray[start2].tokpos, i);

	mov	rdx, QWORD PTR [rdx+rsi+24]
	movsxd	rdi, ecx
	mov	rcx, rbx
	mov	r8, rdi
	call	memcpy

; 258  :     dst += i; 

	add	rbx, rdi

; 259  :   }

	jmp	SHORT $LN4@RenderInst
$LN2@RenderInst:

; 260  :   else if (end2 != EMPTY) {

	mov	r8d, DWORD PTR end2$[rsp]
	cmp	r8d, -2
	je	SHORT $LN4@RenderInst

; 261  :     dst += sprintf(dst, ", %d", end2);

	lea	rdx, OFFSET FLAT:$SG11007
	mov	rcx, rbx
	call	sprintf
	movsxd	rcx, eax
	add	rbx, rcx
$LN4@RenderInst:

; 262  :   }
; 263  :   *dst++ = EOLCHAR;
; 264  :   *dst = NULLC;
; 265  :   DebugMsg1(("%u RenderInstr(%s)=>%s<\n", evallvl, instr, old));
; 266  :   return(dst);
; 267  : }

	mov	rbp, QWORD PTR [rsp+56]
	lea	rax, QWORD PTR [rbx+1]
	mov	rsi, QWORD PTR [rsp+64]
	mov	WORD PTR [rbx], 10
	mov	rbx, QWORD PTR [rsp+48]
	add	rsp, 32					; 00000020H
	pop	rdi
	ret	0
RenderInstr ENDP
_TEXT	ENDS
; Function compile flags: /Ogtpy
; File d:\hjwasm\hjwasm2.13.1s\hjwasm2.13.1s\hll.c
;	COMDAT GetCOp
_TEXT	SEGMENT
item$ = 48
GetCOp	PROC						; COMDAT

; 173  : {

	push	rbx
	sub	rsp, 32					; 00000020H

; 174  :   int size;
; 175  :   enum c_bop rc;
; 176  :   char *p = item->string_ptr;
; 177  : 
; 178  :   size = (item->token == T_STRING ? item->stringlen : 0);

	movzx	eax, BYTE PTR [rcx]
	mov	rbx, QWORD PTR [rcx+8]
	cmp	al, 9
	jne	$LN15@GetCOp
	mov	edx, DWORD PTR [rcx+16]

; 179  : 
; 180  :   if (size == 2) {

	cmp	edx, 2
	jne	SHORT $LN6@GetCOp

; 181  :     switch (*(uint_16 *)p) {

	movzx	ecx, WORD PTR [rbx]
	cmp	ecx, 15677				; 00003d3dH
	jg	SHORT $LN47@GetCOp
	je	SHORT $LN8@GetCOp
	sub	ecx, 9766				; 00002626H
	je	SHORT $LN12@GetCOp
	sub	ecx, 5883				; 000016fbH
	je	SHORT $LN9@GetCOp
	cmp	ecx, 27
	jne	$LN42@GetCOp

; 185  :     case CHARS_LE:  rc = COP_LE;  break;

	lea	eax, QWORD PTR [rdx+4]

; 230  :   }
; 231  :   return(rc);
; 232  : }

	add	rsp, 32					; 00000020H
	pop	rbx
	ret	0
$LN9@GetCOp:

; 183  :     case CHARS_NE:  rc = COP_NE;  break;

	mov	eax, 2

; 230  :   }
; 231  :   return(rc);
; 232  : }

	add	rsp, 32					; 00000020H
	pop	rbx
	ret	0
$LN12@GetCOp:

; 186  :     case CHARS_AND: rc = COP_AND; break;

	mov	eax, 7

; 230  :   }
; 231  :   return(rc);
; 232  : }

	add	rsp, 32					; 00000020H
	pop	rbx
	ret	0
$LN8@GetCOp:

; 182  :     case CHARS_EQ:  rc = COP_EQ;  break;

	mov	eax, 1

; 230  :   }
; 231  :   return(rc);
; 232  : }

	add	rsp, 32					; 00000020H
	pop	rbx
	ret	0
$LN47@GetCOp:

; 181  :     switch (*(uint_16 *)p) {

	cmp	ecx, 15678				; 00003d3eH
	je	SHORT $LN10@GetCOp
	cmp	ecx, 31868				; 00007c7cH
	jne	$LN42@GetCOp

; 187  :     case CHARS_OR:  rc = COP_OR;  break;

	mov	eax, 8

; 230  :   }
; 231  :   return(rc);
; 232  : }

	add	rsp, 32					; 00000020H
	pop	rbx
	ret	0
$LN10@GetCOp:

; 184  :     case CHARS_GE:  rc = COP_GE;  break;

	mov	eax, 5

; 230  :   }
; 231  :   return(rc);
; 232  : }

	add	rsp, 32					; 00000020H
	pop	rbx
	ret	0
$LN6@GetCOp:

; 188  :     default: return(COP_NONE);
; 189  :     }
; 190  :   }
; 191  :   else if (size == 1) {

	cmp	edx, 1
	jne	SHORT $LN15@GetCOp

; 192  :     switch (*p) {

	movzx	eax, BYTE PTR [rbx]
	cmp	al, 33					; 00000021H
	je	SHORT $LN20@GetCOp
	cmp	al, 38					; 00000026H
	je	SHORT $LN19@GetCOp
	cmp	al, 60					; 0000003cH
	je	SHORT $LN18@GetCOp
	cmp	al, 62					; 0000003eH
	jne	$LN42@GetCOp

; 193  :     case '>': rc = COP_GT;   break;

	lea	eax, QWORD PTR [rdx+2]

; 230  :   }
; 231  :   return(rc);
; 232  : }

	add	rsp, 32					; 00000020H
	pop	rbx
	ret	0
$LN18@GetCOp:

; 194  :     case '<': rc = COP_LT;   break;

	mov	eax, 4

; 230  :   }
; 231  :   return(rc);
; 232  : }

	add	rsp, 32					; 00000020H
	pop	rbx
	ret	0
$LN19@GetCOp:

; 195  :     case '&': rc = COP_ANDB; break;

	mov	eax, 9

; 230  :   }
; 231  :   return(rc);
; 232  : }

	add	rsp, 32					; 00000020H
	pop	rbx
	ret	0
$LN20@GetCOp:

; 196  :     case '!': rc = COP_NEG;  break;

	mov	eax, 10

; 230  :   }
; 231  :   return(rc);
; 232  : }

	add	rsp, 32					; 00000020H
	pop	rbx
	ret	0
$LN15@GetCOp:

; 197  :     default: return(COP_NONE);
; 198  :     }
; 199  :   }
; 200  :   else {
; 201  :     if (item->token != T_ID)

	cmp	al, 8
	jne	$LN42@GetCOp

; 202  :       return(COP_NONE);
; 203  :     /* a valid "flag" string must end with a question mark */
; 204  :     size = strlen(p);

	or	rcx, -1
	npad	7
$LL53@GetCOp:
	inc	rcx
	cmp	BYTE PTR [rbx+rcx], 0
	jne	SHORT $LL53@GetCOp

; 205  :     if (*(p + size - 1) != '?')

	movsxd	rax, ecx
	cmp	BYTE PTR [rax+rbx-1], 63		; 0000003fH
	jne	$LN42@GetCOp

; 206  :       return(COP_NONE);
; 207  :     if (size == 5 && (0 == _memicmp(p, "ZERO", 4)))

	cmp	ecx, 5
	jne	SHORT $LN24@GetCOp
	lea	r8d, QWORD PTR [rcx-1]
	mov	rcx, rbx
	lea	rdx, OFFSET FLAT:$SG10959
	call	_memicmp
	test	eax, eax
	jne	SHORT $LN48@GetCOp

; 208  :       rc = COP_ZERO;

	mov	eax, 11

; 230  :   }
; 231  :   return(rc);
; 232  : }

	add	rsp, 32					; 00000020H
	pop	rbx
	ret	0
$LN48@GetCOp:

; 211  :     else if (size == 5 && (0 == _memicmp(p, "SIGN", 4)))

	mov	r8d, 4
	lea	rdx, OFFSET FLAT:$SG10965
	mov	rcx, rbx
	call	_memicmp
	test	eax, eax
	jne	SHORT $LN50@GetCOp

; 212  :       rc = COP_SIGN;

	mov	eax, 13

; 230  :   }
; 231  :   return(rc);
; 232  : }

	add	rsp, 32					; 00000020H
	pop	rbx
	ret	0
$LN50@GetCOp:

; 217  :     //added by habran
; 218  :     else if (size == 5 && (0 == _memicmp(p, "LESS", 4)))

	mov	r8d, 4
	lea	rdx, OFFSET FLAT:$SG10974
	mov	rcx, rbx
	call	_memicmp
	test	eax, eax
	jne	$LN42@GetCOp

; 219  :       rc = COP_LESS;

	mov	eax, 16

; 230  :   }
; 231  :   return(rc);
; 232  : }

	add	rsp, 32					; 00000020H
	pop	rbx
	ret	0
$LN24@GetCOp:

; 209  :     else if (size == 6 && (0 == _memicmp(p, "CARRY", 5)))

	cmp	ecx, 6
	jne	$LN28@GetCOp
	lea	r8d, QWORD PTR [rcx-1]
	mov	rcx, rbx
	lea	rdx, OFFSET FLAT:$SG10962
	call	_memicmp
	test	eax, eax
	jne	SHORT $LN49@GetCOp

; 210  :       rc = COP_CARRY;

	mov	eax, 12

; 230  :   }
; 231  :   return(rc);
; 232  : }

	add	rsp, 32					; 00000020H
	pop	rbx
	ret	0
$LN49@GetCOp:

; 222  :     else if (size == 6 && (0 == _memicmp(p, "ABOVE", 5)))

	mov	r8d, 5
	lea	rdx, OFFSET FLAT:$SG10980
	mov	rcx, rbx
	call	_memicmp
	test	eax, eax
	jne	SHORT $LN51@GetCOp

; 223  :       rc = COP_ABOVE;

	mov	eax, 18

; 230  :   }
; 231  :   return(rc);
; 232  : }

	add	rsp, 32					; 00000020H
	pop	rbx
	ret	0
$LN51@GetCOp:

; 224  :     else if (size == 6 && (0 == _memicmp(p, "EQUAL", 5)))

	mov	r8d, 5
	lea	rdx, OFFSET FLAT:$SG10983
	mov	rcx, rbx
	call	_memicmp
	test	eax, eax
	jne	SHORT $LN52@GetCOp

; 225  :       rc = COP_EQUAL;

	mov	eax, 19

; 230  :   }
; 231  :   return(rc);
; 232  : }

	add	rsp, 32					; 00000020H
	pop	rbx
	ret	0
$LN52@GetCOp:

; 226  :     else if (size == 6 && (0 == _memicmp(p, "BELOW", 5)))

	mov	r8d, 5
	lea	rdx, OFFSET FLAT:$SG10986
	mov	rcx, rbx
	call	_memicmp
	test	eax, eax
	jne	$LN42@GetCOp

; 227  :       rc = COP_BELOW;

	mov	eax, 20

; 230  :   }
; 231  :   return(rc);
; 232  : }

	add	rsp, 32					; 00000020H
	pop	rbx
	ret	0
$LN28@GetCOp:

; 213  :     else if (size == 7 && (0 == _memicmp(p, "PARITY", 6)))

	cmp	ecx, 7
	jne	SHORT $LN30@GetCOp
	lea	r8d, QWORD PTR [rcx-1]
	mov	rcx, rbx
	lea	rdx, OFFSET FLAT:$SG10968
	call	_memicmp
	test	eax, eax
	jne	SHORT $LN42@GetCOp

; 214  :       rc = COP_PARITY;

	mov	eax, 14

; 230  :   }
; 231  :   return(rc);
; 232  : }

	add	rsp, 32					; 00000020H
	pop	rbx
	ret	0
$LN30@GetCOp:

; 215  :     else if (size == 9 && (0 == _memicmp(p, "OVERFLOW", 8)))

	cmp	ecx, 9
	jne	SHORT $LN34@GetCOp
	lea	r8d, QWORD PTR [rcx-1]
	mov	rcx, rbx
	lea	rdx, OFFSET FLAT:$SG10971
	call	_memicmp
	test	eax, eax
	jne	SHORT $LN42@GetCOp

; 216  :       rc = COP_OVERFLOW;

	mov	eax, 15

; 230  :   }
; 231  :   return(rc);
; 232  : }

	add	rsp, 32					; 00000020H
	pop	rbx
	ret	0
$LN34@GetCOp:

; 220  :     else if (size == 8 && (0 == _memicmp(p, "GREATER", 7)))

	cmp	ecx, 8
	jne	SHORT $LN42@GetCOp
	lea	r8d, QWORD PTR [rcx-1]
	mov	rcx, rbx
	lea	rdx, OFFSET FLAT:$SG10977
	call	_memicmp
	test	eax, eax
	jne	SHORT $LN42@GetCOp

; 221  :       rc = COP_GREATER;

	mov	eax, 17

; 230  :   }
; 231  :   return(rc);
; 232  : }

	add	rsp, 32					; 00000020H
	pop	rbx
	ret	0
$LN42@GetCOp:

; 228  :     else
; 229  :       return(COP_NONE);

	xor	eax, eax

; 230  :   }
; 231  :   return(rc);
; 232  : }

	add	rsp, 32					; 00000020H
	pop	rbx
	ret	0
GetCOp	ENDP
_TEXT	ENDS
; Function compile flags: /Ogtpy
; File d:\hjwasm\hjwasm2.13.1s\hjwasm2.13.1s\hll.c
;	COMDAT GetHllLabel
_TEXT	SEGMENT
GetHllLabel PROC					; COMDAT

; 153  :   return (++ModuleInfo.hll_label);

	mov	eax, DWORD PTR ModuleInfo+352
	inc	eax
	mov	DWORD PTR ModuleInfo+352, eax

; 154  : }

	ret	0
GetHllLabel ENDP
_TEXT	ENDS
; Function compile flags: /Ogtpy
; File d:\hjwasm\hjwasm2.13.1s\hjwasm2.13.1s\hll.c
;	COMDAT GetExpression
_TEXT	SEGMENT
buff$1 = 64
hll$ = 144
i$ = 152
tokenarray$ = 160
ilabel$ = 168
is_true$ = 176
buffer$ = 184
hllop$ = 192
GetExpression PROC					; COMDAT

; 677  : {

	mov	QWORD PTR [rsp+8], rbx
	mov	DWORD PTR [rsp+32], r9d
	mov	QWORD PTR [rsp+24], r8
	push	rbp
	push	rsi
	push	rdi
	push	r12
	push	r13
	push	r14
	push	r15
	sub	rsp, 80					; 00000050H

; 678  :   char *ptr = buffer;
; 679  :   uint_32 truelabel = 0;
; 680  : 
; 681  :   DebugMsg1(("%u GetExpression(>%.32s< buf=>%s<) enter\n", ++evallvl, tokenarray[*i].tokpos, buffer));
; 682  : 
; 683  :   /* v2.08: structure changed from for(;;) to while() to increase
; 684  :   * readability and - optionally - handle the second operand differently
; 685  :   * than the first.
; 686  :   */
; 687  : 
; 688  :   if (ERROR == GetAndExpression(hll, i, tokenarray, ilabel, is_true, ptr, hllop)) {

	mov	r15, QWORD PTR hllop$[rsp]
	mov	r13, rcx
	mov	rcx, QWORD PTR buffer$[rsp]
	mov	rbx, r8
	movzx	ebp, BYTE PTR is_true$[rsp]
	mov	rdi, rcx
	mov	QWORD PTR [rsp+48], r15
	mov	r12, rdx
	mov	QWORD PTR [rsp+40], rcx
	xor	r14d, r14d
	mov	rcx, r13
	mov	BYTE PTR [rsp+32], bpl
	call	GetAndExpression
	cmp	eax, -1
	jne	SHORT $LN30@GetExpress

; 689  :     DebugMsg1(("%u GetExpression exit, error\n", evallvl--));
; 690  :     return(ERROR);

	or	rax, -1
	jmp	$LN1@GetExpress
$LN30@GetExpress:

; 691  :   }
; 692  :   while (COP_OR == GetCOp(&tokenarray[*i])) {

	movsxd	rcx, DWORD PTR [r12]
	shl	rcx, 5
	add	rcx, rbx
	call	GetCOp
	cmp	eax, 8
	jne	$LN13@GetExpress
	or	rsi, -1
	npad	9
$LL2@GetExpress:

; 693  : 
; 694  :     uint_32 nlabel;
; 695  :     uint_32 olabel;
; 696  :     char buff[16];
; 697  : 
; 698  :     /* the generated code of last simple expression has to be modified
; 699  :     1. the last jump must be inverted
; 700  :     2. a "is_true" label must be created (it's used to jump "behind" the expr)
; 701  :     3. create a new label
; 702  :     4. the current "false" label must be generated
; 703  : 
; 704  :     if it is a .REPEAT, step 4 is slightly more difficult, since the "false"
; 705  :     label is already "gone":
; 706  :     4a. create a new label
; 707  :     4b. replace the "false" label in the generated code by the new label
; 708  :     */
; 709  : 
; 710  :     (*i)++;

	inc	DWORD PTR [r12]

; 711  :     DebugMsg1(("%u GetExpression: ||-operator found, is_true=%u, lastjmp=%s\n", evallvl, is_true, hllop->lastjmp ? hllop->lastjmp : "NULL"));
; 712  : 
; 713  :     if (is_true == FALSE) {

	test	bpl, bpl
	jne	$LN11@GetExpress

; 714  :       if (hllop->lastjmp) {

	mov	rbx, QWORD PTR [r15]
	test	rbx, rbx
	je	$LN42@GetExpress

; 715  :         char *p = hllop->lastjmp;
; 716  :         InvertJump(p);           /* step 1 */

	mov	rcx, rbx
	call	InvertJump

; 717  :         if (truelabel == 0)      /* step 2 */

	test	r14d, r14d
	jne	SHORT $LN7@GetExpress

; 718  :           truelabel = GetHllLabel();

	mov	r14d, DWORD PTR ModuleInfo+352
	inc	r14d
	mov	DWORD PTR ModuleInfo+352, r14d
$LN7@GetExpress:

; 719  :         if (*p) { /* v2.11: there might be a 0 at lastjmp */

	cmp	BYTE PTR [rbx], 0
	je	SHORT $LN8@GetExpress

; 720  :           p += 4;                /* skip 'jcc ' or 'jmp ' */
; 721  :           GetLabelStr(truelabel, p);

	mov	r8d, r14d
	lea	rdx, OFFSET FLAT:$SG11014
	lea	rcx, QWORD PTR [rbx+4]
	call	sprintf

; 722  :           strcat(p, EOLSTR);

	sub	rbx, -3
$LL40@GetExpress:
	cmp	BYTE PTR [rbx+1], 0
	lea	rbx, QWORD PTR [rbx+1]
	jne	SHORT $LL40@GetExpress
	xor	ecx, ecx
	lea	r15, OFFSET FLAT:$SG11229
	npad	10
$LL41@GetExpress:
	movzx	eax, BYTE PTR [r15+rcx]
	mov	BYTE PTR [rbx+rcx], al
	lea	rcx, QWORD PTR [rcx+1]
	test	al, al
	jne	SHORT $LL41@GetExpress
	mov	r15, QWORD PTR hllop$[rsp]
$LN8@GetExpress:

; 723  :         }
; 724  :         /* v2.08: if-block added */
; 725  :         if (hllop->lasttruelabel)

	mov	edx, DWORD PTR [r15+8]
	test	edx, edx
	je	SHORT $LN9@GetExpress

; 726  :           ReplaceLabel(ptr, hllop->lasttruelabel, truelabel);

	mov	r8d, r14d
	mov	rcx, rdi
	call	ReplaceLabel
$LN9@GetExpress:

; 727  :         DebugMsg1(("%u GetExpression: jmp inverted, dest changed >%s<\n", evallvl, ptr));
; 728  :         hllop->lastjmp = NULL;
; 729  : 
; 730  :         nlabel = GetHllLabel();  /* step 3 */
; 731  :         olabel = GetLabel(hll, ilabel);

	movsxd	rax, DWORD PTR ilabel$[rsp]
	mov	QWORD PTR [r15], 0
	mov	ebx, DWORD PTR ModuleInfo+352
	inc	ebx
	mov	DWORD PTR ModuleInfo+352, ebx

; 732  :         if (hll->cmd == HLL_REPEAT) {

	cmp	DWORD PTR [r13+52], 2
	mov	ebp, DWORD PTR [r13+rax*4+8]
	jne	SHORT $LN10@GetExpress

; 733  :           ReplaceLabel(buffer, olabel, nlabel);

	mov	rcx, QWORD PTR buffer$[rsp]
	mov	r8d, ebx
	mov	edx, ebp
	call	ReplaceLabel

; 734  :           sprintf(ptr + strlen(ptr), "%s" LABELQUAL EOLSTR, GetLabelStr(nlabel, buff));

	mov	r8d, ebx
	lea	rdx, OFFSET FLAT:$SG11014
	lea	rcx, QWORD PTR buff$1[rsp]
	call	sprintf
	mov	rcx, rsi
	npad	3
$LL39@GetExpress:
	inc	rcx
	cmp	BYTE PTR [rdi+rcx], 0
	jne	SHORT $LL39@GetExpress
	add	rcx, rdi
	lea	r8, QWORD PTR buff$1[rsp]
	lea	rdx, OFFSET FLAT:$SG11233
	call	sprintf

; 735  :         }

	jmp	SHORT $LN46@GetExpress
$LN10@GetExpress:

; 736  :         else {
; 737  :           sprintf(ptr + strlen(ptr), "%s" LABELQUAL EOLSTR, GetLabelStr(olabel, buff));

	mov	r8d, ebp
	lea	rdx, OFFSET FLAT:$SG11014
	lea	rcx, QWORD PTR buff$1[rsp]
	call	sprintf
	mov	rcx, rsi
$LL38@GetExpress:
	inc	rcx
	cmp	BYTE PTR [rdi+rcx], 0
	jne	SHORT $LL38@GetExpress
	add	rcx, rdi
	lea	r8, QWORD PTR buff$1[rsp]
	lea	rdx, OFFSET FLAT:$SG11234
	call	sprintf

; 738  :           ReplaceLabel(buffer, olabel, nlabel);

	mov	rcx, QWORD PTR buffer$[rsp]
	mov	r8d, ebx
	mov	edx, ebp
	call	ReplaceLabel
$LN46@GetExpress:
	movzx	ebp, BYTE PTR is_true$[rsp]
$LN42@GetExpress:
	mov	rbx, QWORD PTR tokenarray$[rsp]
$LN11@GetExpress:

; 739  :         }
; 740  :         DebugMsg1(("%u GetExpression: dest changed, label added >%s<\n", evallvl, ptr));
; 741  :       }
; 742  :     }
; 743  :     ptr += strlen(ptr);

	mov	rax, rsi
	npad	8
$LL37@GetExpress:
	inc	rax
	cmp	BYTE PTR [rdi+rax], 0
	jne	SHORT $LL37@GetExpress

; 744  :     hllop->lasttruelabel = 0; /* v2.08 */
; 745  :     if (ERROR == GetAndExpression(hll, i, tokenarray, ilabel, is_true, ptr, hllop)) {

	mov	r9d, DWORD PTR ilabel$[rsp]
	add	rdi, rax
	mov	QWORD PTR [rsp+48], r15
	mov	r8, rbx
	mov	QWORD PTR [rsp+40], rdi
	mov	rdx, r12
	mov	rcx, r13
	mov	BYTE PTR [rsp+32], bpl
	mov	DWORD PTR [r15+8], 0
	call	GetAndExpression
	cmp	eax, -1
	je	$LN31@GetExpress

; 691  :   }
; 692  :   while (COP_OR == GetCOp(&tokenarray[*i])) {

	movsxd	rcx, DWORD PTR [r12]
	shl	rcx, 5
	add	rcx, rbx
	call	GetCOp
	cmp	eax, 8
	je	$LL2@GetExpress

; 748  :     }
; 749  :   }
; 750  :   if (truelabel > 0) {

	test	r14d, r14d
	je	$LN13@GetExpress

; 751  :     /* v2.08: this is needed, but ober-hackish. to be improved... */
; 752  :     if (hllop->lastjmp && hllop->lasttruelabel) {

	cmp	QWORD PTR [r15], 0
	je	SHORT $LL14@GetExpress
	mov	edx, DWORD PTR [r15+8]
	test	edx, edx
	je	SHORT $LL14@GetExpress

; 753  :       DebugMsg1(("%u GetExpression: suppressed ReplaceLabel %u -> %u, lastjmp=%s\n", evallvl, hllop->lasttruelabel, truelabel, hllop->lastjmp));
; 754  :       ReplaceLabel(ptr, hllop->lasttruelabel, truelabel);

	mov	r8d, r14d
	mov	rcx, rdi
	call	ReplaceLabel

; 755  :       *(strchr(hllop->lastjmp, EOLCHAR) + 1) = NULLC;

	mov	rcx, QWORD PTR [r15]
	mov	edx, 10
	call	strchr
	mov	BYTE PTR [rax+1], 0
	npad	2
$LL14@GetExpress:

; 756  :     }
; 757  :     ptr += strlen(ptr);

	inc	rsi
	cmp	BYTE PTR [rdi+rsi], 0
	jne	SHORT $LL14@GetExpress
	add	rdi, rsi

; 758  :     GetLabelStr(truelabel, ptr);

	lea	rdx, OFFSET FLAT:$SG11014
	mov	rcx, rdi
	mov	r8d, r14d
	call	sprintf

; 759  :     strcat(ptr, LABELQUAL EOLSTR);

	dec	rdi
$LL34@GetExpress:
	cmp	BYTE PTR [rdi+1], 0
	lea	rdi, QWORD PTR [rdi+1]
	jne	SHORT $LL34@GetExpress
	lea	rdx, OFFSET FLAT:$SG11238
	xor	ecx, ecx
	npad	12
$LL35@GetExpress:
	movzx	eax, BYTE PTR [rdx+rcx]
	mov	BYTE PTR [rdi+rcx], al
	lea	rcx, QWORD PTR [rcx+1]
	test	al, al
	jne	SHORT $LL35@GetExpress

; 760  :     DebugMsg1(("%u GetExpression: label added >%s<\n", evallvl, ptr));
; 761  :     hllop->lasttruelabel = truelabel; /* v2.08 */

	mov	DWORD PTR [r15+8], r14d
$LN13@GetExpress:

; 762  :   }
; 763  :   DebugMsg1(("%u GetExpression exit\n", evallvl--));
; 764  :   return(NOT_ERROR);

	xor	eax, eax
$LN1@GetExpress:

; 765  : }

	mov	rbx, QWORD PTR [rsp+144]
	add	rsp, 80					; 00000050H
	pop	r15
	pop	r14
	pop	r13
	pop	r12
	pop	rdi
	pop	rsi
	pop	rbp
	ret	0
$LN31@GetExpress:

; 746  :       DebugMsg1(("%u GetExpression exit, error\n", evallvl--));
; 747  :       return(ERROR);

	mov	eax, esi
	jmp	SHORT $LN1@GetExpress
GetExpression ENDP
_TEXT	ENDS
; Function compile flags: /Ogtpy
; File d:\hjwasm\hjwasm2.13.1s\hjwasm2.13.1s\hll.c
_TEXT	SEGMENT
HllCheckOpen PROC

; 1715 :   if (HllStack) {

	cmp	QWORD PTR ModuleInfo+224, 0
	je	SHORT $LN2@HllCheckOp

; 1716 :     //EmitErr( BLOCK_NESTING_ERROR, ".if-.repeat-.while" );
; 1717 :     EmitErr(UNMATCHED_BLOCK_NESTING, ".if-.repeat-.while");

	lea	rdx, OFFSET FLAT:$SG11722
	mov	ecx, 142				; 0000008eH
	jmp	EmitErr
$LN2@HllCheckOp:

; 1718 :   }
; 1719 :   DebugMsg(("HllCheckOpen: allocated items:%u, reused items:%u, .while cond-blocks/bytes:%u/%u\n", cntAlloc, cntReused, cntCond, cntCondBytes));
; 1720 : }

	ret	0
HllCheckOpen ENDP
_TEXT	ENDS
; Function compile flags: /Ogtpy
; File d:\hjwasm\hjwasm2.13.1s\hjwasm2.13.1s\hll.c
_TEXT	SEGMENT
pass$ = 8
HllInit	PROC

; 1743 :   //if ( pass == PASS_1 )
; 1744 :   //    HllFree = NULL;
; 1745 : 
; 1746 :   //HllStack = NULL; /* empty stack of open hll directives */
; 1747 :   ModuleInfo.hll_label = 0; /* init hll label counter */

	mov	DWORD PTR ModuleInfo+352, 0

; 1748 : #ifdef DEBUG_OUT
; 1749 :   evallvl = 0;
; 1750 :   if (pass == PASS_1) {
; 1751 :     cntAlloc = 0;
; 1752 :     cntReused = 0;
; 1753 :     cntCond = 0;
; 1754 :     cntCondBytes = 0;
; 1755 :   }
; 1756 : #endif
; 1757 :   return;
; 1758 : }

	ret	0
HllInit	ENDP
_TEXT	ENDS
; Function compile flags: /Ogtpy
; File c:\program files (x86)\windows kits\10\include\10.0.10150.0\ucrt\stdio.h
;	COMDAT sprintf
_TEXT	SEGMENT
_Buffer$ = 80
_Format$ = 88
sprintf	PROC						; COMDAT

; 1776 : {

$LN8:
	mov	QWORD PTR [rsp+16], rdx
	mov	QWORD PTR [rsp+24], r8
	mov	QWORD PTR [rsp+32], r9
	push	rbx
	push	rsi
	push	rdi
	sub	rsp, 48					; 00000030H
	mov	rbx, rdx

; 1777 :     int _Result;
; 1778 :     va_list _ArgList;
; 1779 :     __crt_va_start(_ArgList, _Format);

	lea	rsi, QWORD PTR _Format$[rsp+8]
	mov	rdi, rcx

; 1780 : 
; 1781 :     #pragma warning(push)
; 1782 :     #pragma warning(disable: 4996) // Deprecation
; 1783 :     _Result = _vsprintf_l(_Buffer, _Format, NULL, _ArgList);

	call	__local_stdio_printf_options
	mov	r9, rbx
	mov	QWORD PTR [rsp+40], rsi
	or	rbx, -1
	mov	QWORD PTR [rsp+32], 0
	mov	r8, rbx
	mov	rdx, rdi
	mov	rcx, QWORD PTR [rax]
	or	rcx, 1
	call	__stdio_common_vsprintf
	test	eax, eax
	cmovs	eax, ebx

; 1784 :     #pragma warning(pop)
; 1785 : 
; 1786 :     __crt_va_end(_ArgList);
; 1787 :     return _Result;
; 1788 : }

	add	rsp, 48					; 00000030H
	pop	rdi
	pop	rsi
	pop	rbx
	ret	0
sprintf	ENDP
_TEXT	ENDS
; Function compile flags: /Ogtpy
; File c:\program files (x86)\windows kits\10\include\10.0.10150.0\ucrt\stdio.h
;	COMDAT _vsprintf_l
_TEXT	SEGMENT
_Buffer$ = 64
_Format$ = 72
_Locale$ = 80
_ArgList$ = 88
_vsprintf_l PROC					; COMDAT

; 1455 : {

$LN6:
	mov	QWORD PTR [rsp+8], rbx
	mov	QWORD PTR [rsp+16], rbp
	mov	QWORD PTR [rsp+24], rsi
	push	rdi
	sub	rsp, 48					; 00000030H
	mov	rbx, r9
	mov	rdi, r8
	mov	rsi, rdx
	mov	rbp, rcx

; 1456 :     #pragma warning(push)
; 1457 :     #pragma warning(disable: 4996) // Deprecation
; 1458 :     return _vsnprintf_l(_Buffer, (size_t)-1, _Format, _Locale, _ArgList);

	call	__local_stdio_printf_options
	mov	QWORD PTR [rsp+40], rbx
	mov	r9, rsi
	or	rbx, -1
	mov	QWORD PTR [rsp+32], rdi
	mov	r8, rbx
	mov	rdx, rbp
	mov	rcx, QWORD PTR [rax]
	or	rcx, 1
	call	__stdio_common_vsprintf

; 1459 :     #pragma warning(pop)
; 1460 : }

	mov	rbp, QWORD PTR [rsp+72]
	test	eax, eax
	mov	rsi, QWORD PTR [rsp+80]
	cmovs	eax, ebx
	mov	rbx, QWORD PTR [rsp+64]
	add	rsp, 48					; 00000030H
	pop	rdi
	ret	0
_vsprintf_l ENDP
_TEXT	ENDS
; Function compile flags: /Ogtpy
; File c:\program files (x86)\windows kits\10\include\10.0.10150.0\ucrt\stdio.h
;	COMDAT _vsnprintf_l
_TEXT	SEGMENT
_Buffer$ = 64
_BufferCount$ = 72
_Format$ = 80
_Locale$ = 88
_ArgList$ = 96
_vsnprintf_l PROC					; COMDAT

; 1385 : {

$LN4:
	mov	QWORD PTR [rsp+8], rbx
	mov	QWORD PTR [rsp+16], rbp
	mov	QWORD PTR [rsp+24], rsi
	push	rdi
	sub	rsp, 48					; 00000030H
	mov	rbx, r9
	mov	rdi, r8
	mov	rsi, rdx
	mov	rbp, rcx

; 1386 :     int const _Result = __stdio_common_vsprintf(

	call	__local_stdio_printf_options
	mov	r9, rdi
	mov	r8, rsi
	mov	rdx, rbp
	mov	rcx, QWORD PTR [rax]
	mov	rax, QWORD PTR _ArgList$[rsp]
	or	rcx, 1
	mov	QWORD PTR [rsp+40], rax
	mov	QWORD PTR [rsp+32], rbx
	call	__stdio_common_vsprintf

; 1387 :         _CRT_INTERNAL_LOCAL_PRINTF_OPTIONS | _CRT_INTERNAL_PRINTF_LEGACY_VSPRINTF_NULL_TERMINATION,
; 1388 :         _Buffer, _BufferCount, _Format, _Locale, _ArgList);
; 1389 : 
; 1390 :     return _Result < 0 ? -1 : _Result;
; 1391 : }

	mov	rbx, QWORD PTR [rsp+64]
	or	ecx, -1
	mov	rbp, QWORD PTR [rsp+72]
	test	eax, eax
	mov	rsi, QWORD PTR [rsp+80]
	cmovs	eax, ecx
	add	rsp, 48					; 00000030H
	pop	rdi
	ret	0
_vsnprintf_l ENDP
_TEXT	ENDS
; Function compile flags: /Ogtpy
; File c:\program files (x86)\windows kits\10\include\10.0.10150.0\ucrt\corecrt_stdio_config.h
;	COMDAT __local_stdio_printf_options
_TEXT	SEGMENT
__local_stdio_printf_options PROC			; COMDAT

; 74   :     static unsigned __int64 _OptionsStorage;
; 75   :     return &_OptionsStorage;

	lea	rax, OFFSET FLAT:?_OptionsStorage@?1??__local_stdio_printf_options@@9@9 ; `__local_stdio_printf_options'::`2'::_OptionsStorage

; 76   : }

	ret	0
__local_stdio_printf_options ENDP
_TEXT	ENDS
END
