; Listing generated by Microsoft (R) Optimizing Compiler Version 19.00.23026.0 

include listing.inc

INCLUDELIB LIBCMT
INCLUDELIB OLDNAMES

_DATA	SEGMENT
COMM	decoflags:BYTE
COMM	broadflags:BYTE
_DATA	ENDS
CONST	SEGMENT
optiontab DQ	FLAT:$SG11179
	DQ	FLAT:SetDotName
	DQ	FLAT:$SG11180
	DQ	FLAT:SetNoDotName
	DQ	FLAT:$SG11181
	DQ	FLAT:SetM510
	DQ	FLAT:$SG11182
	DQ	FLAT:SetNoM510
	DQ	FLAT:$SG11183
	DQ	FLAT:SetScoped
	DQ	FLAT:$SG11184
	DQ	FLAT:SetNoScoped
	DQ	FLAT:$SG11185
	DQ	FLAT:SetOldStructs
	DQ	FLAT:$SG11186
	DQ	FLAT:SetNoOldStructs
	DQ	FLAT:$SG11187
	DQ	FLAT:SetEmulator
	DQ	FLAT:$SG11188
	DQ	FLAT:SetNoEmulator
	DQ	FLAT:$SG11189
	DQ	FLAT:SetLJmp
	DQ	FLAT:$SG11190
	DQ	FLAT:SetNoLJmp
	DQ	FLAT:$SG11191
	DQ	FLAT:Unsupported
	DQ	FLAT:$SG11192
	DQ	FLAT:SetNoReadonly
	DQ	FLAT:$SG11193
	DQ	FLAT:Unsupported
	DQ	FLAT:$SG11194
	DQ	FLAT:SetNoOldmacros
	DQ	FLAT:$SG11195
	DQ	FLAT:Unsupported
	DQ	FLAT:$SG11196
	DQ	FLAT:SetExpr32
	DQ	FLAT:$SG11197
	DQ	FLAT:SetNoSignExt
	DQ	FLAT:$SG11198
	DQ	FLAT:SetCaseMap
	DQ	FLAT:$SG11199
	DQ	FLAT:SetProc
	DQ	FLAT:$SG11200
	DQ	FLAT:SetPrologue
	DQ	FLAT:$SG11201
	DQ	FLAT:SetEpilogue
	DQ	FLAT:$SG11202
	DQ	FLAT:SetLanguage
	DQ	FLAT:$SG11203
	DQ	FLAT:SetNoKeyword
	DQ	FLAT:$SG11204
	DQ	FLAT:SetSetIF2
	DQ	FLAT:$SG11205
	DQ	FLAT:SetOffset
	DQ	FLAT:$SG11206
	DQ	FLAT:SetSegment
	DQ	FLAT:$SG11207
	DQ	FLAT:SetFieldAlign
	DQ	FLAT:$SG11208
	DQ	FLAT:SetProcAlign
	DQ	FLAT:$SG11209
	DQ	FLAT:SetMZ
	DQ	FLAT:$SG11210
	DQ	FLAT:SetFrame
	DQ	FLAT:$SG11211
	DQ	FLAT:SetElf
	DQ	FLAT:$SG11212
	DQ	FLAT:SetRenameKey
	DQ	FLAT:$SG11213
	DQ	FLAT:SetWin64
	DQ	FLAT:$SG11214
	DQ	FLAT:SetDllImport
	DQ	FLAT:$SG11215
	DQ	FLAT:SetCodeView
	DQ	FLAT:$SG11216
	DQ	FLAT:SetStackBase
CONST	ENDS
_DATA	SEGMENT
$SG10748 DB	'NONE', 00H
	ORG $+3
$SG10751 DB	'NOTPUBLIC', 00H
	ORG $+2
$SG10754 DB	'ALL', 00H
$SG10897 DB	'TRUE', 00H
	ORG $+3
$SG10899 DB	'FALSE', 00H
	ORG $+2
$SG10912 DB	'NONE', 00H
	ORG $+3
$SG10915 DB	'PROLOGUEDEF', 00H
$SG10928 DB	'NONE', 00H
	ORG $+3
$SG10941 DB	'GROUP', 00H
	ORG $+2
$SG10962 DB	'EXPORT', 00H
	ORG $+1
$SG11209 DB	'MZ', 00H
	ORG $+1
$SG10931 DB	'EPILOGUEDEF', 00H
$SG10944 DB	'FLAT', 00H
	ORG $+3
$SG10978 DB	'USE16', 00H
	ORG $+2
$SG11067 DB	'NOAUTO', 00H
	ORG $+1
$SG11211 DB	'ELF', 00H
$SG10947 DB	'SEGMENT', 00H
$SG10960 DB	'PRIVATE', 00H
$SG10981 DB	'USE32', 00H
	ORG $+2
$SG10984 DB	'USE64', 00H
	ORG $+2
$SG11065 DB	'AUTO', 00H
	ORG $+3
$SG11123 DB	'__imp_', 00H
	ORG $+1
$SG11124 DB	'_imp_', 00H
	ORG $+2
$SG11135 DB	'NONE', 00H
	ORG $+3
$SG11165 DB	'@StackBase', 00H
	ORG $+5
$SG11166 DB	'@ProcStatus', 00H
	ORG $+4
$SG11179 DB	'DOTNAME', 00H
$SG11180 DB	'NODOTNAME', 00H
	ORG $+2
$SG11181 DB	'M510', 00H
	ORG $+3
$SG11182 DB	'NOM510', 00H
	ORG $+1
$SG11183 DB	'SCOPED', 00H
	ORG $+5
$SG11184 DB	'NOSCOPED', 00H
	ORG $+7
$SG11185 DB	'OLDSTRUCTS', 00H
	ORG $+5
$SG11186 DB	'NOOLDSTRUCTS', 00H
	ORG $+3
$SG11187 DB	'EMULATOR', 00H
	ORG $+7
$SG11188 DB	'NOEMULATOR', 00H
	ORG $+1
$SG11189 DB	'LJMP', 00H
	ORG $+3
$SG11190 DB	'NOLJMP', 00H
	ORG $+5
$SG11191 DB	'READONLY', 00H
	ORG $+7
$SG11192 DB	'NOREADONLY', 00H
	ORG $+5
$SG11193 DB	'OLDMACROS', 00H
	ORG $+6
$SG11194 DB	'NOOLDMACROS', 00H
$SG11195 DB	'EXPR16', 00H
	ORG $+1
$SG11196 DB	'EXPR32', 00H
	ORG $+5
$SG11197 DB	'NOSIGNEXTEND', 00H
	ORG $+3
$SG11198 DB	'CASEMAP', 00H
$SG11199 DB	'PROC', 00H
	ORG $+3
$SG11200 DB	'PROLOGUE', 00H
	ORG $+7
$SG11201 DB	'EPILOGUE', 00H
	ORG $+7
$SG11202 DB	'LANGUAGE', 00H
	ORG $+7
$SG11203 DB	'NOKEYWORD', 00H
	ORG $+2
$SG11204 DB	'SETIF2', 00H
	ORG $+1
$SG11205 DB	'OFFSET', 00H
	ORG $+5
$SG11206 DB	'SEGMENT', 00H
$SG11207 DB	'FIELDALIGN', 00H
	ORG $+5
$SG11208 DB	'PROCALIGN', 00H
	ORG $+2
$SG11210 DB	'FRAME', 00H
	ORG $+6
$SG11212 DB	'RENAMEKEYWORD', 00H
	ORG $+2
$SG11213 DB	'WIN64', 00H
	ORG $+2
$SG11214 DB	'DLLIMPORT', 00H
	ORG $+6
$SG11215 DB	'CODEVIEW', 00H
	ORG $+7
$SG11216 DB	'STACKBASE', 00H
_DATA	ENDS
PUBLIC	OptionDirective
EXTRN	isspace:PROC
EXTRN	_stricmp:PROC
EXTRN	_strupr:PROC
EXTRN	EmitError:PROC
EXTRN	EmitErr:PROC
EXTRN	SetMasm510:PROC
EXTRN	LclAlloc:PROC
EXTRN	SymSetCmpFunc:PROC
EXTRN	GetLangType:PROC
EXTRN	FindResWord:PROC
EXTRN	IsKeywordDisabled:PROC
EXTRN	DisableKeyword:PROC
EXTRN	RenameKeyword:PROC
EXTRN	EvalOperand:PROC
EXTRN	EmitConstError:PROC
EXTRN	CreateVariable:PROC
EXTRN	UpdateStackBase:PROC
EXTRN	UpdateProcStatus:PROC
EXTRN	Options:BYTE
EXTRN	ModuleInfo:BYTE
EXTRN	Parse_Pass:DWORD
EXTRN	SpecialTable:BYTE
EXTRN	sym_Interface:QWORD
EXTRN	__ImageBase:BYTE
pdata	SEGMENT
$pdata$SetCaseMap DD imagerel SetCaseMap
	DD	imagerel SetCaseMap+224
	DD	imagerel $unwind$SetCaseMap
$pdata$SetM510 DD imagerel SetM510
	DD	imagerel SetM510+18
	DD	imagerel $unwind$SetM510
$pdata$SetNoM510 DD imagerel SetNoM510
	DD	imagerel SetNoM510+18
	DD	imagerel $unwind$SetNoM510
$pdata$SetNoKeyword DD imagerel SetNoKeyword
	DD	imagerel SetNoKeyword+121
	DD	imagerel $unwind$SetNoKeyword
$pdata$2$SetNoKeyword DD imagerel SetNoKeyword+121
	DD	imagerel SetNoKeyword+358
	DD	imagerel $chain$2$SetNoKeyword
$pdata$4$SetNoKeyword DD imagerel SetNoKeyword+358
	DD	imagerel SetNoKeyword+370
	DD	imagerel $chain$4$SetNoKeyword
$pdata$5$SetNoKeyword DD imagerel SetNoKeyword+370
	DD	imagerel SetNoKeyword+395
	DD	imagerel $chain$5$SetNoKeyword
$pdata$SetLanguage DD imagerel SetLanguage
	DD	imagerel SetLanguage+144
	DD	imagerel $unwind$SetLanguage
$pdata$SetSetIF2 DD imagerel SetSetIF2
	DD	imagerel SetSetIF2+115
	DD	imagerel $unwind$SetSetIF2
$pdata$SetPrologue DD imagerel SetPrologue
	DD	imagerel SetPrologue+216
	DD	imagerel $unwind$SetPrologue
$pdata$SetEpilogue DD imagerel SetEpilogue
	DD	imagerel SetEpilogue+216
	DD	imagerel $unwind$SetEpilogue
$pdata$SetOffset DD imagerel SetOffset
	DD	imagerel SetOffset+215
	DD	imagerel $unwind$SetOffset
$pdata$SetProc DD imagerel SetProc
	DD	imagerel SetProc+162
	DD	imagerel $unwind$SetProc
$pdata$SetSegment DD imagerel SetSegment
	DD	imagerel SetSegment+289
	DD	imagerel $unwind$SetSegment
$pdata$SetFieldAlign DD imagerel SetFieldAlign
	DD	imagerel SetFieldAlign+183
	DD	imagerel $unwind$SetFieldAlign
$pdata$SetProcAlign DD imagerel SetProcAlign
	DD	imagerel SetProcAlign+183
	DD	imagerel $unwind$SetProcAlign
$pdata$SetMZ DD	imagerel SetMZ
	DD	imagerel SetMZ+431
	DD	imagerel $unwind$SetMZ
$pdata$SetFrame DD imagerel SetFrame
	DD	imagerel SetFrame+115
	DD	imagerel $unwind$SetFrame
$pdata$SetElf DD imagerel SetElf
	DD	imagerel SetElf+165
	DD	imagerel $unwind$SetElf
$pdata$SetRenameKey DD imagerel SetRenameKey
	DD	imagerel SetRenameKey+85
	DD	imagerel $unwind$SetRenameKey
$pdata$0$SetRenameKey DD imagerel SetRenameKey+85
	DD	imagerel SetRenameKey+137
	DD	imagerel $chain$0$SetRenameKey
$pdata$3$SetRenameKey DD imagerel SetRenameKey+137
	DD	imagerel SetRenameKey+199
	DD	imagerel $chain$3$SetRenameKey
$pdata$5$SetRenameKey DD imagerel SetRenameKey+199
	DD	imagerel SetRenameKey+237
	DD	imagerel $chain$5$SetRenameKey
$pdata$6$SetRenameKey DD imagerel SetRenameKey+237
	DD	imagerel SetRenameKey+288
	DD	imagerel $chain$6$SetRenameKey
$pdata$SetWin64 DD imagerel SetWin64
	DD	imagerel SetWin64+225
	DD	imagerel $unwind$SetWin64
pdata	ENDS
;	COMDAT pdata
pdata	SEGMENT
$pdata$IncludeDll DD imagerel IncludeDll
	DD	imagerel IncludeDll+30
	DD	imagerel $unwind$IncludeDll
pdata	ENDS
;	COMDAT pdata
pdata	SEGMENT
$pdata$0$IncludeDll DD imagerel IncludeDll+30
	DD	imagerel IncludeDll+192
	DD	imagerel $chain$0$IncludeDll
pdata	ENDS
;	COMDAT pdata
pdata	SEGMENT
$pdata$2$IncludeDll DD imagerel IncludeDll+192
	DD	imagerel IncludeDll+206
	DD	imagerel $chain$2$IncludeDll
pdata	ENDS
pdata	SEGMENT
$pdata$SetDllImport DD imagerel SetDllImport
	DD	imagerel SetDllImport+127
	DD	imagerel $unwind$SetDllImport
$pdata$SetCodeView DD imagerel SetCodeView
	DD	imagerel SetCodeView+118
	DD	imagerel $unwind$SetCodeView
$pdata$SetStackBase DD imagerel SetStackBase
	DD	imagerel SetStackBase+229
	DD	imagerel $unwind$SetStackBase
$pdata$OptionDirective DD imagerel $LN37
	DD	imagerel $LN37+394
	DD	imagerel $unwind$OptionDirective
pdata	ENDS
;	COMDAT xdata
xdata	SEGMENT
$chain$2$IncludeDll DD 020021H
	DD	067400H
	DD	imagerel IncludeDll
	DD	imagerel IncludeDll+30
	DD	imagerel $unwind$IncludeDll
xdata	ENDS
;	COMDAT xdata
xdata	SEGMENT
$chain$0$IncludeDll DD 020521H
	DD	067405H
	DD	imagerel IncludeDll
	DD	imagerel IncludeDll+30
	DD	imagerel $unwind$IncludeDll
xdata	ENDS
;	COMDAT xdata
xdata	SEGMENT
$unwind$IncludeDll DD 020601H
	DD	030023206H
xdata	ENDS
xdata	SEGMENT
$unwind$SetCaseMap DD 060f01H
	DD	07640fH
	DD	06340fH
	DD	0700b320fH
$unwind$SetM510 DD 010401H
	DD	04204H
$unwind$SetNoM510 DD 010401H
	DD	04204H
$unwind$SetNoKeyword DD 040b01H
	DD	09540bH
	DD	0e007320bH
$chain$2$SetNoKeyword DD 061321H
	DD	087413H
	DD	07640eH
	DD	063405H
	DD	imagerel SetNoKeyword
	DD	imagerel SetNoKeyword+121
	DD	imagerel $unwind$SetNoKeyword
$chain$4$SetNoKeyword DD 060021H
	DD	087400H
	DD	076400H
	DD	063400H
	DD	imagerel SetNoKeyword
	DD	imagerel SetNoKeyword+121
	DD	imagerel $unwind$SetNoKeyword
$chain$5$SetNoKeyword DD 021H
	DD	imagerel SetNoKeyword
	DD	imagerel SetNoKeyword+121
	DD	imagerel $unwind$SetNoKeyword
$unwind$SetLanguage DD 040a01H
	DD	07340aH
	DD	07006320aH
$unwind$SetSetIF2 DD 060f01H
	DD	07640fH
	DD	06340fH
	DD	0700b320fH
$unwind$SetPrologue DD 060f01H
	DD	07640fH
	DD	06340fH
	DD	0700b320fH
$unwind$SetEpilogue DD 060f01H
	DD	07640fH
	DD	06340fH
	DD	0700b320fH
$unwind$SetOffset DD 060f01H
	DD	07640fH
	DD	06340fH
	DD	0700b320fH
$unwind$SetProc DD 060f01H
	DD	07640fH
	DD	06340fH
	DD	0700b320fH
$unwind$SetSegment DD 060f01H
	DD	07640fH
	DD	06340fH
	DD	0700b320fH
$unwind$SetFieldAlign DD 030b01H
	DD	014010bH
	DD	03004H
$unwind$SetProcAlign DD 030b01H
	DD	014010bH
	DD	03004H
$unwind$SetMZ DD 091501H
	DD	01a5415H
	DD	0193415H
	DD	0140115H
	DD	0700ce00eH
	DD	0600bH
$unwind$SetFrame DD 060f01H
	DD	07640fH
	DD	06340fH
	DD	0700b320fH
$unwind$SetElf DD 030b01H
	DD	014010bH
	DD	03004H
$unwind$SetRenameKey DD 040b01H
	DD	08740bH
	DD	0e007320bH
$chain$0$SetRenameKey DD 020521H
	DD	076405H
	DD	imagerel SetRenameKey
	DD	imagerel SetRenameKey+85
	DD	imagerel $unwind$SetRenameKey
$chain$3$SetRenameKey DD 040521H
	DD	063405H
	DD	076400H
	DD	imagerel SetRenameKey
	DD	imagerel SetRenameKey+85
	DD	imagerel $unwind$SetRenameKey
$chain$5$SetRenameKey DD 040021H
	DD	076400H
	DD	063400H
	DD	imagerel SetRenameKey
	DD	imagerel SetRenameKey+85
	DD	imagerel $unwind$SetRenameKey
$chain$6$SetRenameKey DD 021H
	DD	imagerel SetRenameKey
	DD	imagerel SetRenameKey+85
	DD	imagerel $unwind$SetRenameKey
$unwind$SetWin64 DD 030901H
	DD	0140109H
	DD	03002H
$unwind$SetDllImport DD 060f01H
	DD	07640fH
	DD	06340fH
	DD	0700b320fH
$unwind$SetCodeView DD 030b01H
	DD	014010bH
	DD	03004H
$unwind$SetStackBase DD 040a01H
	DD	06340aH
	DD	07006320aH
$unwind$OptionDirective DD 081401H
	DD	096414H
	DD	085414H
	DD	073414H
	DD	070103214H
xdata	ENDS
; Function compile flags: /Ogtpy
; File d:\hjwasm\hjwasm2.13.1s\hjwasm2.13.1s\option.c
_TEXT	SEGMENT
i$ = 48
tokenarray$ = 56
OptionDirective PROC

; 890  : {

$LN37:
	mov	QWORD PTR [rsp+16], rbx
	mov	QWORD PTR [rsp+24], rbp
	mov	QWORD PTR [rsp+32], rsi
	push	rdi
	sub	rsp, 32					; 00000020H

; 891  :     int idx = -1;
; 892  : 
; 893  :     DebugMsg1(( "OPTION directive enter, option=%s\n", tokenarray[i+1].string_ptr ));
; 894  : 
; 895  :     i++; /* skip OPTION directive */

	lea	r8d, DWORD PTR [rcx+1]
	or	ebx, -1

; 896  :     while ( tokenarray[i].token != T_FINAL ) {

	movsxd	rcx, r8d
	mov	rdi, rdx
	shl	rcx, 5
	add	rcx, rdx
	mov	DWORD PTR i$[rsp], r8d
	cmp	BYTE PTR [rcx], 0
	je	$LN26@OptionDire
	lea	rbp, OFFSET FLAT:optiontab
	npad	3
$LL2@OptionDire:

; 897  :         _strupr( tokenarray[i].string_ptr );

	mov	rcx, QWORD PTR [rcx+8]
	call	_strupr

; 899  :             if ( 0 == strcmp( tokenarray[i].string_ptr, optiontab[idx].name ) )

	movsxd	r8, DWORD PTR i$[rsp]
	xor	ebx, ebx
	mov	rax, r8
	xor	r11d, r11d
	shl	rax, 5
	mov	r10, rbp
	mov	rsi, QWORD PTR [rax+rdi+8]
$LL6@OptionDire:
	mov	r9, QWORD PTR [r10]
	mov	rax, rsi
	sub	r9, rsi
	npad	5
$LL34@OptionDire:
	movzx	edx, BYTE PTR [rax]
	movzx	ecx, BYTE PTR [rax+r9]
	sub	edx, ecx
	jne	SHORT $LN35@OptionDire
	inc	rax
	test	ecx, ecx
	jne	SHORT $LL34@OptionDire
$LN35@OptionDire:
	test	edx, edx
	je	SHORT $LN20@OptionDire

; 898  :         for ( idx = 0; idx < TABITEMS; idx++ ) {

	inc	ebx
	inc	r11
	movsxd	rax, ebx
	add	r10, 16
	cmp	rax, 38					; 00000026H
	jb	SHORT $LL6@OptionDire
$LN20@OptionDire:

; 900  :                 break;
; 901  :         }
; 902  :         if ( idx >= TABITEMS )

	movsxd	rax, ebx
	cmp	rax, 38					; 00000026H
	jae	$LN26@OptionDire

; 903  :             break;
; 904  :         i++;

	inc	r8d
	mov	DWORD PTR i$[rsp], r8d

; 905  :         /* v2.06: check for colon separator here */
; 906  :         if ( idx >= NOARGOPTS ) {

	cmp	ebx, 19
	jl	SHORT $LN12@OptionDire

; 907  :             if ( tokenarray[i].token != T_COLON ) {

	movsxd	rax, r8d
	shl	rax, 5
	cmp	BYTE PTR [rax+rdi], 58			; 0000003aH
	jne	$LN22@OptionDire

; 909  :             }
; 910  :             i++;

	inc	r8d

; 911  :             /* there must be something after the colon */
; 912  :             if ( tokenarray[i].token == T_FINAL ) {

	movsxd	rax, r8d
	shl	rax, 5
	mov	DWORD PTR i$[rsp], r8d
	cmp	BYTE PTR [rax+rdi], 0
	je	SHORT $LN23@OptionDire

; 915  :             }
; 916  :             /* reject option if -Zne is set */
; 917  :             if ( idx >= MASMOPTS && Options.strict_masm_compat ) {

	cmp	ebx, 28
	jl	SHORT $LN12@OptionDire
	cmp	BYTE PTR Options+127, 0
	jne	SHORT $LN23@OptionDire
$LN12@OptionDire:

; 918  :                 i -= 2;
; 919  :                 break;
; 920  :             }
; 921  :         }
; 922  :         if ( optiontab[idx].func( &i, tokenarray ) == ERROR )

	add	r11, r11
	lea	rcx, QWORD PTR i$[rsp]
	mov	rdx, rdi
	call	QWORD PTR [rbp+r11*8+8]
	cmp	eax, -1
	je	SHORT $LN25@OptionDire

; 924  :         if ( tokenarray[i].token != T_COMMA )

	movsxd	r8, DWORD PTR i$[rsp]
	mov	rax, r8
	shl	rax, 5
	cmp	BYTE PTR [rax+rdi], 44			; 0000002cH
	jne	SHORT $LN26@OptionDire

; 925  :             break;
; 926  :         i++;

	inc	r8d
	movsxd	rcx, r8d
	shl	rcx, 5
	add	rcx, rdi
	mov	DWORD PTR i$[rsp], r8d
	cmp	BYTE PTR [rcx], 0
	jne	$LL2@OptionDire
$LN26@OptionDire:

; 927  :     }
; 928  :     if ( idx >= TABITEMS  || tokenarray[i].token != T_FINAL ) {

	movsxd	rax, ebx
	cmp	rax, 38					; 00000026H
	jae	SHORT $LN16@OptionDire
	movsxd	rax, r8d
	shl	rax, 5
	cmp	BYTE PTR [rax+rdi], 0
	jne	SHORT $LN16@OptionDire

; 931  :     }
; 932  :     return( NOT_ERROR );

	xor	eax, eax
	jmp	SHORT $LN1@OptionDire
$LN23@OptionDire:

; 913  :                 i -= 2; /* position back to option identifier */

	sub	r8d, 2
	mov	DWORD PTR i$[rsp], r8d

; 914  :                 break;

	jmp	SHORT $LN26@OptionDire
$LN22@OptionDire:

; 908  :                 return( EmitError( COLON_EXPECTED ) );

	mov	ecx, 84					; 00000054H
	call	EmitError
	jmp	SHORT $LN1@OptionDire
$LN25@OptionDire:

; 923  :             return( ERROR );

	or	eax, -1
	jmp	SHORT $LN1@OptionDire
$LN16@OptionDire:

; 929  :         DebugMsg(( "option syntax error: >%s<\n", tokenarray[i].tokpos ));
; 930  :         return( EmitErr( SYNTAX_ERROR_EX, tokenarray[i].tokpos ) );

	movsxd	rdx, r8d
	mov	ecx, 209				; 000000d1H
	shl	rdx, 5
	mov	rdx, QWORD PTR [rdx+rdi+24]
	call	EmitErr
$LN1@OptionDire:

; 933  : }

	mov	rbx, QWORD PTR [rsp+56]
	mov	rbp, QWORD PTR [rsp+64]
	mov	rsi, QWORD PTR [rsp+72]
	add	rsp, 32					; 00000020H
	pop	rdi
	ret	0
OptionDirective ENDP
_TEXT	ENDS
; Function compile flags: /Ogtpy
; File d:\hjwasm\hjwasm2.13.1s\hjwasm2.13.1s\option.c
_TEXT	SEGMENT
pi$ = 8
tokenarray$ = 16
Unsupported PROC

; 806  : {

	mov	rax, rdx

; 807  :     return( EmitErr( NOT_SUPPORTED, tokenarray[(*pi)-2].tokpos ) );

	movsxd	rdx, DWORD PTR [rcx]
	shl	rdx, 5
	mov	ecx, 72					; 00000048H
	mov	rdx, QWORD PTR [rdx+rax-40]
	jmp	EmitErr
Unsupported ENDP
_TEXT	ENDS
; Function compile flags: /Ogtpy
; File d:\hjwasm\hjwasm2.13.1s\hjwasm2.13.1s\option.c
_TEXT	SEGMENT
pi$ = 48
tokenarray$ = 56
SetStackBase PROC

; 780  : {

	mov	QWORD PTR [rsp+8], rbx
	push	rdi
	sub	rsp, 32					; 00000020H

; 781  :     int i = *pi;

	movsxd	rdi, DWORD PTR [rcx]
	mov	rbx, rcx

; 782  : 
; 783  :     if ( tokenarray[i].token != T_REG ) {

	mov	r8, rdi
	shl	r8, 5
	cmp	BYTE PTR [r8+rdx], 2
	je	SHORT $LN2@SetStackBa

; 784  :         return( EmitErr( SYNTAX_ERROR_EX, tokenarray[i].string_ptr ) );

	mov	rdx, QWORD PTR [r8+rdx+8]
	mov	ecx, 209				; 000000d1H

; 801  : }

	mov	rbx, QWORD PTR [rsp+48]
	add	rsp, 32					; 00000020H
	pop	rdi

; 784  :         return( EmitErr( SYNTAX_ERROR_EX, tokenarray[i].string_ptr ) );

	jmp	EmitErr
$LN2@SetStackBa:

; 785  :     }
; 786  :     if ( !( GetSflagsSp( tokenarray[i].tokval ) & SFR_IREG ) ) {

	mov	ecx, DWORD PTR [r8+rdx+16]
	lea	rdx, OFFSET FLAT:__ImageBase
	lea	rax, QWORD PTR [rcx+rcx*2]
	test	BYTE PTR SpecialTable[rdx+rax*4+4], 32	; 00000020H
	jne	SHORT $LN3@SetStackBa

; 787  :         return( EmitError( MUST_BE_INDEX_OR_BASE_REGISTER ) );

	mov	ecx, 33					; 00000021H

; 801  : }

	mov	rbx, QWORD PTR [rsp+48]
	add	rsp, 32					; 00000020H
	pop	rdi

; 787  :         return( EmitError( MUST_BE_INDEX_OR_BASE_REGISTER ) );

	jmp	EmitError
$LN3@SetStackBa:

; 788  :     }
; 789  :     ModuleInfo.basereg[ModuleInfo.Ofssize] = tokenarray[i].tokval;

	movzx	eax, BYTE PTR ModuleInfo+404
	mov	DWORD PTR ModuleInfo[rdx+rax*4+500], ecx

; 790  :     if ( !ModuleInfo.g.StackBase ) {

	cmp	QWORD PTR ModuleInfo+272, 0
	jne	SHORT $LN4@SetStackBa

; 791  :         ModuleInfo.g.StackBase = CreateVariable( "@StackBase", 0 );

	xor	edx, edx
	lea	rcx, OFFSET FLAT:$SG11165
	call	CreateVariable
	mov	QWORD PTR ModuleInfo+272, rax

; 792  :         ModuleInfo.g.StackBase->predefined = TRUE;
; 793  :         ModuleInfo.g.StackBase->sfunc_ptr = UpdateStackBase;

	lea	rcx, OFFSET FLAT:UpdateStackBase

; 794  :         ModuleInfo.g.ProcStatus = CreateVariable( "@ProcStatus", 0 );

	xor	edx, edx
	or	BYTE PTR [rax+40], 32			; 00000020H
	mov	rax, QWORD PTR ModuleInfo+272
	mov	QWORD PTR [rax+64], rcx
	lea	rcx, OFFSET FLAT:$SG11166
	call	CreateVariable
	mov	QWORD PTR ModuleInfo+280, rax

; 795  :         ModuleInfo.g.ProcStatus->predefined = TRUE;
; 796  :         ModuleInfo.g.ProcStatus->sfunc_ptr = UpdateProcStatus;

	lea	rcx, OFFSET FLAT:UpdateProcStatus
	or	BYTE PTR [rax+40], 32			; 00000020H
	mov	rax, QWORD PTR ModuleInfo+280
	mov	QWORD PTR [rax+64], rcx
$LN4@SetStackBa:

; 797  :     }
; 798  :     i++;

	lea	eax, DWORD PTR [rdi+1]

; 799  :     *pi = i;

	mov	DWORD PTR [rbx], eax

; 800  :     return( NOT_ERROR );

	xor	eax, eax

; 801  : }

	mov	rbx, QWORD PTR [rsp+48]
	add	rsp, 32					; 00000020H
	pop	rdi
	ret	0
SetStackBase ENDP
_TEXT	ENDS
; Function compile flags: /Ogtpy
; File d:\hjwasm\hjwasm2.13.1s\hjwasm2.13.1s\option.c
_TEXT	SEGMENT
opnd$ = 48
i$ = 176
pi$ = 176
tokenarray$ = 184
SetCodeView PROC

; 757  : {

	mov	r11, rsp
	push	rbx
	sub	rsp, 160				; 000000a0H

; 758  :     int i = *pi;

	mov	eax, DWORD PTR [rcx]

; 759  :     struct expr opnd;
; 760  : 
; 761  :     if ( EvalOperand( &i, tokenarray, Token_Count, &opnd, 0 ) == ERROR )

	lea	r9, QWORD PTR [r11-120]
	mov	r8d, DWORD PTR ModuleInfo+496
	mov	rbx, rcx
	lea	rcx, QWORD PTR [r11+8]
	mov	DWORD PTR [r11+8], eax
	mov	BYTE PTR [rsp+32], 0
	call	EvalOperand
	cmp	eax, -1
	jne	SHORT $LN2@SetCodeVie

; 762  :         return( ERROR );

	or	eax, eax

; 770  : }

	add	rsp, 160				; 000000a0H
	pop	rbx
	ret	0
$LN2@SetCodeVie:

; 763  :     if ( opnd.kind == EXPR_CONST ) {

	cmp	DWORD PTR opnd$[rsp+60], 0
	jne	SHORT $LN3@SetCodeVie

; 764  :         ModuleInfo.cv_opt = opnd.value;

	movzx	eax, BYTE PTR opnd$[rsp]
	mov	BYTE PTR ModuleInfo+427, al

; 767  :     }
; 768  :     *pi = i;

	mov	eax, DWORD PTR i$[rsp]
	mov	DWORD PTR [rbx], eax

; 769  :     return( NOT_ERROR );

	xor	eax, eax

; 770  : }

	add	rsp, 160				; 000000a0H
	pop	rbx
	ret	0
$LN3@SetCodeVie:

; 765  :     } else {
; 766  :         return( EmitError( CONSTANT_EXPECTED ) );

	mov	ecx, 65					; 00000041H
	call	EmitError

; 770  : }

	add	rsp, 160				; 000000a0H
	pop	rbx
	ret	0
SetCodeView ENDP
_TEXT	ENDS
; Function compile flags: /Ogtpy
; File d:\hjwasm\hjwasm2.13.1s\hjwasm2.13.1s\option.c
_TEXT	SEGMENT
pi$ = 48
tokenarray$ = 56
SetDllImport PROC

; 731  : {

	mov	QWORD PTR [rsp+8], rbx
	mov	QWORD PTR [rsp+16], rsi
	push	rdi
	sub	rsp, 32					; 00000020H

; 732  :     int i = *pi;

	movsxd	rbx, DWORD PTR [rcx]
	mov	rdi, rcx

; 733  : 
; 734  :     /* used for COFF only */
; 735  :     //if ( Options.output_format != OFORMAT_COFF ) {
; 736  :     //    SkipOption( pi, tokenarray );
; 737  :     //    return( NOT_ERROR);
; 738  :     //}
; 739  : 
; 740  :     if ( tokenarray[i].token == T_ID &&

	mov	rsi, rbx
	shl	rsi, 5
	add	rsi, rdx
	cmp	BYTE PTR [rsi], 8
	jne	SHORT $LN2@SetDllImpo
	mov	rcx, QWORD PTR [rsi+8]
	lea	rdx, OFFSET FLAT:$SG11135
	call	_stricmp
	test	eax, eax
	jne	SHORT $LN2@SetDllImpo

; 741  :         ( _stricmp( tokenarray[i].string_ptr, "NONE" ) == 0 ) ) {
; 742  :         ModuleInfo.CurrDll = NULL;

	mov	QWORD PTR ModuleInfo+336, 0

; 743  :         i++;

	jmp	SHORT $LN5@SetDllImpo
$LN2@SetDllImpo:

; 744  :     } else if ( tokenarray[i].token == T_STRING && tokenarray[i].string_delim == '<' ) {

	cmp	BYTE PTR [rsi], 9
	jne	SHORT $LN7@SetDllImpo
	cmp	BYTE PTR [rsi+1], 60			; 0000003cH
	jne	SHORT $LN7@SetDllImpo

; 745  :         if ( Parse_Pass == PASS_1 )

	cmp	DWORD PTR Parse_Pass, 0
	jne	SHORT $LN5@SetDllImpo

; 746  :             ModuleInfo.CurrDll = IncludeDll( tokenarray[i].string_ptr );

	mov	rcx, QWORD PTR [rsi+8]
	call	IncludeDll
	mov	QWORD PTR ModuleInfo+336, rax
$LN5@SetDllImpo:

; 747  :         i++;

	inc	ebx
$LN7@SetDllImpo:

; 748  :     }
; 749  :     *pi = i;
; 750  :     return( NOT_ERROR );
; 751  : }

	mov	rsi, QWORD PTR [rsp+56]
	xor	eax, eax
	mov	DWORD PTR [rdi], ebx
	mov	rbx, QWORD PTR [rsp+48]
	add	rsp, 32					; 00000020H
	pop	rdi
	ret	0
SetDllImport ENDP
_TEXT	ENDS
; Function compile flags: /Ogtpy
; File d:\hjwasm\hjwasm2.13.1s\hjwasm2.13.1s\option.c
;	COMDAT IncludeDll
_TEXT	SEGMENT
name$ = 48
IncludeDll PROC						; COMDAT

; 702  : {

	push	rbx
	sub	rsp, 32					; 00000020H

; 703  :     struct dll_desc **q;
; 704  :     struct dll_desc *node;
; 705  : 
; 706  :     /* allow a zero-sized name! */
; 707  :     if ( *name == NULLC )

	cmp	BYTE PTR [rcx], 0
	mov	rbx, rcx
	jne	SHORT $LN5@IncludeDll

; 708  :         return( NULL );

	xor	eax, eax

; 727  : }

	add	rsp, 32					; 00000020H
	pop	rbx
	ret	0
$LN5@IncludeDll:

; 709  : 
; 710  :     for ( q = &ModuleInfo.g.DllQueue; *q ; q = &(*q)->next ) {

	cmp	QWORD PTR ModuleInfo+80, 0
	mov	QWORD PTR [rsp+48], rdi
	lea	rdi, OFFSET FLAT:ModuleInfo+80
	je	SHORT $LN3@IncludeDll
	npad	4
$LL4@IncludeDll:

; 711  :         if ( _stricmp( (*q)->name, name ) == 0 )

	mov	rcx, QWORD PTR [rdi]
	mov	rdx, rbx
	add	rcx, 12
	call	_stricmp
	test	eax, eax
	je	SHORT $LN11@IncludeDll

; 709  : 
; 710  :     for ( q = &ModuleInfo.g.DllQueue; *q ; q = &(*q)->next ) {

	mov	rdi, QWORD PTR [rdi]
	cmp	QWORD PTR [rdi], 0
	jne	SHORT $LL4@IncludeDll
$LN3@IncludeDll:

; 713  :     }
; 714  :     node = LclAlloc( sizeof( struct dll_desc ) + strlen( name ) );

	or	rcx, -1
$LL17@IncludeDll:
	inc	rcx
	cmp	BYTE PTR [rbx+rcx], 0
	jne	SHORT $LL17@IncludeDll
	add	rcx, 16
	call	LclAlloc
	mov	r8, rax

; 715  :     node->next = NULL;

	xor	eax, eax

; 716  :     node->cnt = 0;
; 717  :     strcpy( node->name, name );

	mov	rdx, r8
	sub	rdx, rbx
	mov	QWORD PTR [r8], rax
	mov	DWORD PTR [r8+8], eax
	npad	12
$LL8@IncludeDll:
	movzx	ecx, BYTE PTR [rbx]
	mov	BYTE PTR [rdx+rbx+12], cl
	lea	rbx, QWORD PTR [rbx+1]
	test	cl, cl
	jne	SHORT $LL8@IncludeDll

; 718  :     *q = node;

	mov	QWORD PTR [rdi], r8

; 719  : 
; 720  : #if AMD64_SUPPORT
; 721  :     ModuleInfo.g.imp_prefix = ( ( ModuleInfo.defOfssize == USE64 ) ? "__imp_" : "_imp_" );

	lea	rcx, OFFSET FLAT:$SG11123
	cmp	BYTE PTR ModuleInfo+405, 2
	lea	rax, OFFSET FLAT:$SG11124
	mov	rdi, QWORD PTR [rsp+48]
	cmove	rax, rcx
	mov	QWORD PTR ModuleInfo+88, rax

; 722  : #else
; 723  :     ModuleInfo.g.imp_prefix = "_imp_";
; 724  : #endif
; 725  : 
; 726  :     return( node );

	mov	rax, r8

; 727  : }

	add	rsp, 32					; 00000020H
	pop	rbx
	ret	0
$LN11@IncludeDll:

; 712  :             return( *q );

	mov	rax, QWORD PTR [rdi]
	mov	rdi, QWORD PTR [rsp+48]

; 727  : }

	add	rsp, 32					; 00000020H
	pop	rbx
	ret	0
IncludeDll ENDP
_TEXT	ENDS
; Function compile flags: /Ogtpy
; File d:\hjwasm\hjwasm2.13.1s\hjwasm2.13.1s\option.c
_TEXT	SEGMENT
opndx$ = 48
i$ = 176
pi$ = 176
tokenarray$ = 184
SetWin64 PROC

; 672  : {

	push	rbx
	sub	rsp, 160				; 000000a0H

; 673  :     int i = *pi;
; 674  :     struct expr opndx;
; 675  : 
; 676  :     /* if -win64 isn't set, skip the option */
; 677  :     /* v2.09: skip option if Ofssize != USE64 */
; 678  :     if ( ModuleInfo.defOfssize != USE64 ) {

	cmp	BYTE PTR ModuleInfo+405, 2
	mov	r10, rdx
	movsxd	rax, DWORD PTR [rcx]
	mov	rbx, rcx
	mov	DWORD PTR i$[rsp], eax
	je	SHORT $LN2@SetWin64

; 679  :         SkipOption( pi, tokenarray );

	shl	rax, 5
	cmp	BYTE PTR [rax+rdx], 0
	je	SHORT $LN16@SetWin64
	npad	4
$LL9@SetWin64:
	movsxd	rdx, DWORD PTR [rbx]
	mov	rax, rdx
	shl	rax, 5
	cmp	BYTE PTR [rax+r10], 44			; 0000002cH
	je	SHORT $LN16@SetWin64
	lea	eax, DWORD PTR [rdx+1]
	movsxd	rcx, eax
	shl	rcx, 5
	mov	DWORD PTR [rbx], eax
	cmp	BYTE PTR [rcx+r10], 0
	jne	SHORT $LL9@SetWin64
$LN16@SetWin64:

; 680  :         return( NOT_ERROR);

	xor	eax, eax

; 695  : }

	add	rsp, 160				; 000000a0H
	pop	rbx
	ret	0
$LN2@SetWin64:

; 681  :     }
; 682  : 
; 683  :     if ( EvalOperand( &i, tokenarray, Token_Count, &opndx, 0 ) == ERROR )

	mov	r8d, DWORD PTR ModuleInfo+496
	lea	r9, QWORD PTR opndx$[rsp]
	lea	rcx, QWORD PTR i$[rsp]
	mov	BYTE PTR [rsp+32], 0
	call	EvalOperand
	cmp	eax, -1
	jne	SHORT $LN3@SetWin64

; 684  :         return( ERROR );

	or	eax, eax

; 695  : }

	add	rsp, 160				; 000000a0H
	pop	rbx
	ret	0
$LN3@SetWin64:

; 685  :     if ( opndx.kind == EXPR_CONST ) {

	cmp	DWORD PTR opndx$[rsp+60], 0
	jne	SHORT $LN4@SetWin64

; 686  :         if ( opndx.llvalue & ( ~W64F_ALL ) ) {

	mov	rax, QWORD PTR opndx$[rsp]
	test	rax, -16
	je	SHORT $LN6@SetWin64

; 687  :             return( EmitConstError( &opndx ) );

	lea	rcx, QWORD PTR opndx$[rsp]
	call	EmitConstError

; 695  : }

	add	rsp, 160				; 000000a0H
	pop	rbx
	ret	0
$LN6@SetWin64:

; 688  :         }
; 689  :         ModuleInfo.win64_flags = opndx.value;

	mov	BYTE PTR ModuleInfo+413, al

; 692  :     }
; 693  :     *pi = i;

	mov	eax, DWORD PTR i$[rsp]
	mov	DWORD PTR [rbx], eax

; 694  :     return( NOT_ERROR );

	xor	eax, eax

; 695  : }

	add	rsp, 160				; 000000a0H
	pop	rbx
	ret	0
$LN4@SetWin64:

; 690  :     } else {
; 691  :         return( EmitError( CONSTANT_EXPECTED ) );

	mov	ecx, 65					; 00000041H
	call	EmitError

; 695  : }

	add	rsp, 160				; 000000a0H
	pop	rbx
	ret	0
SetWin64 ENDP
_TEXT	ENDS
; Function compile flags: /Ogtpy
; File d:\hjwasm\hjwasm2.13.1s\hjwasm2.13.1s\option.c
_TEXT	SEGMENT
pi$ = 48
tokenarray$ = 56
SetRenameKey PROC

; 627  : {

	mov	QWORD PTR [rsp+24], rdi
	push	r14
	sub	rsp, 32					; 00000020H

; 628  :     int i = *pi;

	movsxd	rdi, DWORD PTR [rcx]
	mov	r8, rdx

; 629  :     //struct ReservedWord *resw;
; 630  :     unsigned index;
; 631  :     char *oldname;
; 632  : 
; 633  : #if 0 /* v2.11: allow temporary renaming of keywords */
; 634  :     /* do nothing if pass > 1 */
; 635  :     if( Parse_Pass != PASS_1 ) {
; 636  :         SkipOption( pi, tokenarray );
; 637  :         return( NOT_ERROR );
; 638  :     }
; 639  : #endif
; 640  :     if ( tokenarray[i].token != T_STRING || tokenarray[i].string_delim != '<' )  {

	mov	rdx, rdi
	mov	r14, rcx
	shl	rdx, 5
	add	rdx, r8
	cmp	BYTE PTR [rdx], 9
	jne	$LN3@SetRenameK
	cmp	BYTE PTR [rdx+1], 60			; 0000003cH
	jne	$LN3@SetRenameK

; 642  :     }
; 643  :     oldname = tokenarray[i].string_ptr;

	mov	rcx, QWORD PTR [rdx+8]

; 644  :     i++;

	inc	edi

; 645  :     /* v2.06: syntax changed */
; 646  :     //if ( tokenarray[i].token != T_COMMA ) {
; 647  :     if ( tokenarray[i].token != T_DIRECTIVE || tokenarray[i].dirtype != DRT_EQUALSGN ) {

	movsxd	rdx, edi
	shl	rdx, 5
	cmp	BYTE PTR [rdx+r8], 3
	jne	$LN5@SetRenameK
	cmp	BYTE PTR [rdx+r8+1], 48			; 00000030H
	jne	$LN5@SetRenameK

; 650  :     }
; 651  :     i++;

	mov	QWORD PTR [rsp+56], rsi
	inc	edi

; 652  :     if ( tokenarray[i].token != T_ID )  {

	movsxd	rsi, edi
	shl	rsi, 5
	add	rsi, r8
	cmp	BYTE PTR [rsi], 8
	je	SHORT $LN6@SetRenameK

; 653  :         return( EmitErr( SYNTAX_ERROR_EX, tokenarray[i].tokpos ) );

	mov	rdx, QWORD PTR [rsi+24]
	mov	ecx, 209				; 000000d1H
	mov	rsi, QWORD PTR [rsp+56]

; 666  : }

	mov	rdi, QWORD PTR [rsp+64]
	add	rsp, 32					; 00000020H
	pop	r14

; 653  :         return( EmitErr( SYNTAX_ERROR_EX, tokenarray[i].tokpos ) );

	jmp	EmitErr
$LN6@SetRenameK:
	mov	QWORD PTR [rsp+48], rbx

; 654  :     }
; 655  : 
; 656  :     /* todo: if MAX_ID_LEN can be > 255, then check size,
; 657  :      * since a reserved word's size must be <= 255 */
; 658  :     index = FindResWord( oldname, strlen( oldname ) );

	or	rbx, -1
	mov	rdx, rbx
$LL10@SetRenameK:
	inc	rdx
	cmp	BYTE PTR [rcx+rdx], 0
	jne	SHORT $LL10@SetRenameK
	call	FindResWord

; 659  :     if ( index == 0 ) {

	test	eax, eax
	jne	SHORT $LN7@SetRenameK

; 660  :         return( EmitError( RESERVED_WORD_EXPECTED ) );

	mov	ecx, 158				; 0000009eH
	call	EmitError
$LN12@SetRenameK:
	mov	rbx, QWORD PTR [rsp+48]
	mov	rsi, QWORD PTR [rsp+56]

; 666  : }

	mov	rdi, QWORD PTR [rsp+64]
	add	rsp, 32					; 00000020H
	pop	r14
	ret	0
$LN7@SetRenameK:

; 661  :     }
; 662  :     RenameKeyword( index, tokenarray[i].string_ptr, strlen( tokenarray[i].string_ptr ) );

	mov	rdx, QWORD PTR [rsi+8]
	npad	5
$LL9@SetRenameK:
	inc	rbx
	cmp	BYTE PTR [rdx+rbx], 0
	jne	SHORT $LL9@SetRenameK
	mov	r8, rbx
	mov	ecx, eax
	call	RenameKeyword

; 663  :     i++;

	lea	eax, DWORD PTR [rdi+1]

; 664  :     *pi = i;

	mov	DWORD PTR [r14], eax

; 665  :     return( NOT_ERROR );

	xor	eax, eax
	jmp	SHORT $LN12@SetRenameK
$LN5@SetRenameK:

; 648  :         //EmitError( EXPECTING_COMMA );
; 649  :         return( EmitErr( SYNTAX_ERROR_EX, tokenarray[i].tokpos ) );

	mov	rdx, QWORD PTR [rdx+r8+24]
	mov	ecx, 209				; 000000d1H

; 666  : }

	mov	rdi, QWORD PTR [rsp+64]
	add	rsp, 32					; 00000020H
	pop	r14

; 648  :         //EmitError( EXPECTING_COMMA );
; 649  :         return( EmitErr( SYNTAX_ERROR_EX, tokenarray[i].tokpos ) );

	jmp	EmitErr
$LN3@SetRenameK:

; 641  :         return( EmitErr( SYNTAX_ERROR_EX, tokenarray[i].tokpos ) );

	mov	rdx, QWORD PTR [rdx+24]
	mov	ecx, 209				; 000000d1H

; 666  : }

	mov	rdi, QWORD PTR [rsp+64]
	add	rsp, 32					; 00000020H
	pop	r14

; 641  :         return( EmitErr( SYNTAX_ERROR_EX, tokenarray[i].tokpos ) );

	jmp	EmitErr
SetRenameKey ENDP
_TEXT	ENDS
; Function compile flags: /Ogtpy
; File d:\hjwasm\hjwasm2.13.1s\hjwasm2.13.1s\option.c
_TEXT	SEGMENT
opndx$ = 48
i$ = 176
pi$ = 176
tokenarray$ = 184
SetElf	PROC

; 601  : {

	mov	r11, rsp
	push	rbx
	sub	rsp, 160				; 000000a0H

; 602  :     int i = *pi;

	mov	eax, DWORD PTR [rcx]

; 603  :     struct expr opndx;
; 604  : 
; 605  :     if ( EvalOperand( &i, tokenarray, Token_Count, &opndx, 0 ) == ERROR )

	lea	r9, QWORD PTR [r11-120]
	mov	r8d, DWORD PTR ModuleInfo+496
	mov	rbx, rcx
	lea	rcx, QWORD PTR [r11+8]
	mov	DWORD PTR [r11+8], eax
	mov	BYTE PTR [rsp+32], 0
	call	EvalOperand
	cmp	eax, -1
	jne	SHORT $LN2@SetElf

; 606  :         return( ERROR );

	or	eax, eax

; 618  : }

	add	rsp, 160				; 000000a0H
	pop	rbx
	ret	0
$LN2@SetElf:

; 607  :     if ( opndx.kind == EXPR_CONST ) {

	cmp	DWORD PTR opndx$[rsp+60], 0
	jne	SHORT $LN3@SetElf

; 608  :         if ( opndx.llvalue > 0xFF ) {

	mov	rax, QWORD PTR opndx$[rsp]
	cmp	rax, 255				; 000000ffH
	jbe	SHORT $LN5@SetElf

; 609  :             return( EmitConstError( &opndx ) );

	lea	rcx, QWORD PTR opndx$[rsp]
	call	EmitConstError

; 618  : }

	add	rsp, 160				; 000000a0H
	pop	rbx
	ret	0
$LN5@SetElf:

; 610  :         }
; 611  :         if ( Options.output_format == OFORMAT_ELF )

	cmp	DWORD PTR Options+144, 3
	movzx	ecx, BYTE PTR ModuleInfo+412
	movzx	eax, al
	cmove	ecx, eax

; 615  :     }
; 616  :     *pi = i;

	mov	eax, DWORD PTR i$[rsp]
	mov	BYTE PTR ModuleInfo+412, cl
	mov	DWORD PTR [rbx], eax

; 617  :     return( NOT_ERROR );

	xor	eax, eax

; 618  : }

	add	rsp, 160				; 000000a0H
	pop	rbx
	ret	0
$LN3@SetElf:

; 612  :             ModuleInfo.elf_osabi = opndx.value;
; 613  :     } else {
; 614  :         return( EmitError( CONSTANT_EXPECTED ) );

	mov	ecx, 65					; 00000041H
	call	EmitError

; 618  : }

	add	rsp, 160				; 000000a0H
	pop	rbx
	ret	0
SetElf	ENDP
_TEXT	ENDS
; Function compile flags: /Ogtpy
; File d:\hjwasm\hjwasm2.13.1s\hjwasm2.13.1s\option.c
_TEXT	SEGMENT
pi$ = 48
tokenarray$ = 56
SetFrame PROC

; 583  : {

	mov	QWORD PTR [rsp+8], rbx
	mov	QWORD PTR [rsp+16], rsi
	push	rdi
	sub	rsp, 32					; 00000020H

; 584  :     int i = *pi;

	movsxd	rbx, DWORD PTR [rcx]
	mov	rdi, rcx

; 585  : 
; 586  :     if ( 0 == _stricmp( tokenarray[i].string_ptr, "AUTO" ) ) {

	mov	rsi, rbx
	shl	rsi, 5
	add	rsi, rdx
	lea	rdx, OFFSET FLAT:$SG11065
	mov	rcx, QWORD PTR [rsi+8]
	call	_stricmp
	test	eax, eax
	jne	SHORT $LN2@SetFrame

; 587  :         ModuleInfo.frame_auto = 1;

	or	DWORD PTR ModuleInfo+408, 131072	; 00020000H

; 588  :         i++;

	jmp	SHORT $LN7@SetFrame
$LN2@SetFrame:

; 589  :     } else if ( 0 == _stricmp( tokenarray[i].string_ptr, "NOAUTO" ) ) {

	mov	rcx, QWORD PTR [rsi+8]
	lea	rdx, OFFSET FLAT:$SG11067
	call	_stricmp
	test	eax, eax
	jne	SHORT $LN6@SetFrame

; 590  :         ModuleInfo.frame_auto = 0;

	and	DWORD PTR ModuleInfo+408, -131073	; fffdffffH
$LN7@SetFrame:

; 591  :         i++;

	inc	ebx
$LN6@SetFrame:

; 592  :     }
; 593  :     *pi = i;
; 594  :     return( NOT_ERROR );
; 595  : }

	mov	rsi, QWORD PTR [rsp+56]
	xor	eax, eax
	mov	DWORD PTR [rdi], ebx
	mov	rbx, QWORD PTR [rsp+48]
	add	rsp, 32					; 00000020H
	pop	rdi
	ret	0
SetFrame ENDP
_TEXT	ENDS
; Function compile flags: /Ogtpy
; File d:\hjwasm\hjwasm2.13.1s\hjwasm2.13.1s\option.c
_TEXT	SEGMENT
opndx$ = 48
i$ = 192
pi$ = 192
tokenarray$ = 200
SetMZ	PROC

; 527  : {

	mov	QWORD PTR [rsp+16], rbx
	mov	QWORD PTR [rsp+24], rbp
	push	rsi
	push	rdi
	push	r14
	sub	rsp, 160				; 000000a0H

; 528  :     int i = *pi;

	mov	eax, DWORD PTR [rcx]
	lea	rdi, OFFSET FLAT:ModuleInfo+412
	mov	DWORD PTR i$[rsp], eax
	lea	r14, OFFSET FLAT:ModuleInfo+420
	mov	rbx, rdx
	mov	rsi, rcx
	mov	rbp, 288247968337764352			; 0400100000002000H
	npad	4
$LL4@SetMZ:

; 534  :         int k;
; 535  :         for ( k = i; tokenarray[k].token != T_FINAL; k++ )

	movsxd	r9, eax
	mov	r8, r9
	shl	r8, 5
	cmp	BYTE PTR [r8+rbx], 0
	je	SHORT $LN47@SetMZ
	mov	rcx, r9
	shl	rcx, 5
	movzx	edx, BYTE PTR [rcx+rbx]
	npad	4
$LL7@SetMZ:
	cmp	dl, 58					; 0000003aH
	ja	SHORT $LN43@SetMZ
	bt	rbp, rdx
	jb	SHORT $LN47@SetMZ
$LN43@SetMZ:
	inc	r9
	inc	eax
	mov	rcx, r9
	shl	rcx, 5
	movzx	edx, BYTE PTR [rcx+rbx]
	test	dl, dl
	jne	SHORT $LL7@SetMZ
$LN47@SetMZ:

; 536  :             if ( tokenarray[k].token == T_COMMA ||
; 537  :                 tokenarray[k].token == T_COLON ||
; 538  :                 tokenarray[k].token == T_DBL_COLON )
; 539  :                 break;
; 540  :         if ( EvalOperand( &i, tokenarray, k, &opndx, 0 ) == ERROR )

	lea	r9, QWORD PTR opndx$[rsp]
	mov	BYTE PTR [rsp+32], 0
	mov	r8d, eax
	lea	rcx, QWORD PTR i$[rsp]
	mov	rdx, rbx
	call	EvalOperand
	cmp	eax, -1
	je	$LN32@SetMZ

; 542  :         if ( opndx.kind == EXPR_EMPTY ) {

	mov	eax, DWORD PTR opndx$[rsp+60]
	cmp	eax, -2
	je	SHORT $LN46@SetMZ

; 543  :         } else if ( opndx.kind == EXPR_CONST ) {

	test	eax, eax
	jne	$LN16@SetMZ

; 544  :             if ( opndx.value64 > 0xFFFF ) {

	mov	rax, QWORD PTR opndx$[rsp]
	cmp	rax, 65535				; 0000ffffH
	jg	$LN33@SetMZ

; 546  :             }
; 547  :             if ( ModuleInfo.sub_format == SFORMAT_MZ )

	cmp	DWORD PTR ModuleInfo+372, 1
	jne	SHORT $LN46@SetMZ

; 548  :                 *(parms + j) = opndx.value;

	mov	WORD PTR [rdi], ax
$LN46@SetMZ:

; 551  :         }
; 552  :         if ( tokenarray[i].token == T_COLON )

	movsxd	rax, DWORD PTR i$[rsp]
	mov	rcx, rax
	shl	rcx, 5
	movzx	edx, BYTE PTR [rcx+rbx]
	cmp	dl, 58					; 0000003aH
	jne	SHORT $LN20@SetMZ

; 553  :             i++;

	inc	eax
	jmp	SHORT $LN48@SetMZ
$LN20@SetMZ:

; 554  :         else if ( tokenarray[i].token == T_DBL_COLON ) {

	cmp	dl, 13
	jne	SHORT $LN2@SetMZ

; 555  :             i++;

	inc	eax

; 556  :             j++;

	add	rdi, 2
$LN48@SetMZ:

; 555  :             i++;

	mov	DWORD PTR i$[rsp], eax
$LN2@SetMZ:

; 529  :     int j;
; 530  :     uint_16 *parms;
; 531  :     struct expr opndx;
; 532  : 
; 533  :     for ( j = 0, parms = (uint_16 *)&ModuleInfo.mz_data ; j < 4; j++ ) {

	add	rdi, 2
	cmp	rdi, r14
	jl	$LL4@SetMZ

; 557  :         }
; 558  :     }
; 559  : 
; 560  :     /* ensure data integrity of the params */
; 561  :     if ( ModuleInfo.sub_format == SFORMAT_MZ ) {

	cmp	DWORD PTR ModuleInfo+372, 1
	jne	SHORT $LN26@SetMZ

; 562  :         if ( ModuleInfo.mz_data.ofs_fixups < 0x1E )

	cmp	WORD PTR ModuleInfo+412, 30
	jae	SHORT $LN24@SetMZ

; 563  :             ModuleInfo.mz_data.ofs_fixups = 0x1E;

	mov	ecx, 30
	mov	WORD PTR ModuleInfo+412, cx
$LN24@SetMZ:

; 564  : 
; 565  :         for( j = 16; j < ModuleInfo.mz_data.alignment; j <<= 1 );

	movzx	edx, WORD PTR ModuleInfo+414
	mov	ecx, 16
	cmp	ecx, edx
	jge	SHORT $LN49@SetMZ
	npad	3
$LL10@SetMZ:
	add	ecx, ecx
	cmp	ecx, edx
	jl	SHORT $LL10@SetMZ
$LN49@SetMZ:

; 566  :         if( j != ModuleInfo.mz_data.alignment )

	je	SHORT $LN25@SetMZ

; 567  :             EmitError( INVALID_HEADER_ALIGNMENT );

	mov	ecx, 205				; 000000cdH
	call	EmitError
	mov	eax, DWORD PTR i$[rsp]
$LN25@SetMZ:

; 568  : 
; 569  :         if ( ModuleInfo.mz_data.heapmax < ModuleInfo.mz_data.heapmin )

	movzx	edx, WORD PTR ModuleInfo+418
	cmp	dx, WORD PTR ModuleInfo+416
	cmovb	dx, WORD PTR ModuleInfo+416
	mov	WORD PTR ModuleInfo+418, dx
$LN26@SetMZ:

; 570  :             ModuleInfo.mz_data.heapmax = ModuleInfo.mz_data.heapmin;
; 571  :     }
; 572  :     *pi = i;

	mov	DWORD PTR [rsi], eax

; 573  :     return( NOT_ERROR );

	xor	eax, eax
	jmp	SHORT $LN1@SetMZ
$LN33@SetMZ:

; 545  :                 return( EmitConstError( &opndx ) );

	lea	rcx, QWORD PTR opndx$[rsp]
	call	EmitConstError
	jmp	SHORT $LN1@SetMZ
$LN16@SetMZ:

; 549  :         } else {
; 550  :             return( EmitError( CONSTANT_EXPECTED ) );

	mov	ecx, 65					; 00000041H
	call	EmitError
	jmp	SHORT $LN1@SetMZ
$LN32@SetMZ:

; 541  :             return( ERROR );

	or	eax, -1
$LN1@SetMZ:

; 574  : }

	lea	r11, QWORD PTR [rsp+160]
	mov	rbx, QWORD PTR [r11+40]
	mov	rbp, QWORD PTR [r11+48]
	mov	rsp, r11
	pop	r14
	pop	rdi
	pop	rsi
	ret	0
SetMZ	ENDP
_TEXT	ENDS
; Function compile flags: /Ogtpy
; File d:\hjwasm\hjwasm2.13.1s\hjwasm2.13.1s\option.c
_TEXT	SEGMENT
opndx$ = 48
i$ = 176
pi$ = 176
tokenarray$ = 184
SetProcAlign PROC

; 501  : {

	mov	r11, rsp
	push	rbx
	sub	rsp, 160				; 000000a0H

; 502  :     int i = *pi;

	mov	eax, DWORD PTR [rcx]

; 503  :     int temp, temp2;
; 504  :     struct expr opndx;
; 505  : 
; 506  :     if ( EvalOperand( &i, tokenarray, Token_Count, &opndx, EXPF_NOUNDEF ) == ERROR )

	lea	r9, QWORD PTR [r11-120]
	mov	r8d, DWORD PTR ModuleInfo+496
	mov	rbx, rcx
	lea	rcx, QWORD PTR [r11+8]
	mov	DWORD PTR [r11+8], eax
	mov	BYTE PTR [rsp+32], 2
	call	EvalOperand
	cmp	eax, -1
	jne	SHORT $LN5@SetProcAli

; 507  :         return( ERROR );

	or	eax, eax

; 521  : }

	add	rsp, 160				; 000000a0H
	pop	rbx
	ret	0
$LN5@SetProcAli:

; 508  :     if ( opndx.kind != EXPR_CONST ) {

	cmp	DWORD PTR opndx$[rsp+60], 0
	je	SHORT $LN6@SetProcAli

; 509  :         return( EmitError( CONSTANT_EXPECTED ) );

	mov	ecx, 65					; 00000041H
	call	EmitError

; 521  : }

	add	rsp, 160				; 000000a0H
	pop	rbx
	ret	0
$LN6@SetProcAli:

; 510  :     }
; 511  :     if( opndx.value > MAX_STRUCT_ALIGN ) {

	mov	edx, DWORD PTR opndx$[rsp]
	cmp	edx, 32					; 00000020H
	jle	SHORT $LN7@SetProcAli

; 512  :         EmitError( STRUCT_ALIGN_TOO_HIGH );

	mov	ecx, 214				; 000000d6H
	call	EmitError
	mov	edx, DWORD PTR opndx$[rsp]
$LN7@SetProcAli:

; 513  :     }
; 514  :     for( temp = 1, temp2 = 0; temp < opndx.value ; temp <<= 1, temp2++ );

	mov	eax, 1
	xor	ecx, ecx
	cmp	eax, edx
	jge	SHORT $LN14@SetProcAli
	npad	7
$LL4@SetProcAli:
	add	eax, eax
	inc	ecx
	cmp	eax, edx
	jl	SHORT $LL4@SetProcAli
$LN14@SetProcAli:

; 515  :     if( temp != opndx.value ) {

	je	SHORT $LN8@SetProcAli

; 516  :         return( EmitErr( POWER_OF_2, opndx.value ) );

	mov	ecx, 129				; 00000081H
	call	EmitErr

; 521  : }

	add	rsp, 160				; 000000a0H
	pop	rbx
	ret	0
$LN8@SetProcAli:

; 517  :     }
; 518  :     ModuleInfo.procalign = temp2;
; 519  :     *pi = i;

	mov	eax, DWORD PTR i$[rsp]
	mov	BYTE PTR ModuleInfo+399, cl
	mov	DWORD PTR [rbx], eax

; 520  :     return( NOT_ERROR );

	xor	eax, eax

; 521  : }

	add	rsp, 160				; 000000a0H
	pop	rbx
	ret	0
SetProcAlign ENDP
_TEXT	ENDS
; Function compile flags: /Ogtpy
; File d:\hjwasm\hjwasm2.13.1s\hjwasm2.13.1s\option.c
_TEXT	SEGMENT
opndx$ = 48
i$ = 176
pi$ = 176
tokenarray$ = 184
SetFieldAlign PROC

; 473  : {

	mov	r11, rsp
	push	rbx
	sub	rsp, 160				; 000000a0H

; 474  :     int i = *pi;

	mov	eax, DWORD PTR [rcx]

; 475  :     unsigned temp, temp2;
; 476  :     struct expr opndx;
; 477  : 
; 478  :     if ( EvalOperand( &i, tokenarray, Token_Count, &opndx, EXPF_NOUNDEF ) == ERROR )

	lea	r9, QWORD PTR [r11-120]
	mov	r8d, DWORD PTR ModuleInfo+496
	mov	rbx, rcx
	lea	rcx, QWORD PTR [r11+8]
	mov	DWORD PTR [r11+8], eax
	mov	BYTE PTR [rsp+32], 2
	call	EvalOperand
	cmp	eax, -1
	jne	SHORT $LN5@SetFieldAl

; 479  :         return( ERROR );

	or	eax, eax

; 493  : }

	add	rsp, 160				; 000000a0H
	pop	rbx
	ret	0
$LN5@SetFieldAl:

; 480  :     if ( opndx.kind != EXPR_CONST ) {

	cmp	DWORD PTR opndx$[rsp+60], 0
	je	SHORT $LN6@SetFieldAl

; 481  :         return( EmitError( CONSTANT_EXPECTED ) );

	mov	ecx, 65					; 00000041H
	call	EmitError

; 493  : }

	add	rsp, 160				; 000000a0H
	pop	rbx
	ret	0
$LN6@SetFieldAl:

; 482  :     }
; 483  :     if( opndx.uvalue > MAX_STRUCT_ALIGN ) {

	mov	edx, DWORD PTR opndx$[rsp]
	cmp	edx, 32					; 00000020H
	jbe	SHORT $LN7@SetFieldAl

; 484  :         return( EmitError( STRUCT_ALIGN_TOO_HIGH ) );

	mov	ecx, 214				; 000000d6H
	call	EmitError

; 493  : }

	add	rsp, 160				; 000000a0H
	pop	rbx
	ret	0
$LN7@SetFieldAl:

; 485  :     }
; 486  :     for( temp = 1, temp2 = 0; temp < opndx.uvalue ; temp <<= 1, temp2++ );

	mov	eax, 1
	xor	ecx, ecx
	cmp	eax, edx
	jae	SHORT $LN14@SetFieldAl
	npad	2
$LL4@SetFieldAl:
	add	eax, eax
	inc	ecx
	cmp	eax, edx
	jb	SHORT $LL4@SetFieldAl
$LN14@SetFieldAl:

; 487  :     if( temp != opndx.uvalue ) {

	je	SHORT $LN8@SetFieldAl

; 488  :         return( EmitErr( POWER_OF_2, opndx.value ) );

	mov	ecx, 129				; 00000081H
	call	EmitErr

; 493  : }

	add	rsp, 160				; 000000a0H
	pop	rbx
	ret	0
$LN8@SetFieldAl:

; 489  :     }
; 490  :     ModuleInfo.fieldalign = temp2;
; 491  :     *pi = i;

	mov	eax, DWORD PTR i$[rsp]
	mov	BYTE PTR ModuleInfo+397, cl
	mov	DWORD PTR [rbx], eax

; 492  :     return( NOT_ERROR );

	xor	eax, eax

; 493  : }

	add	rsp, 160				; 000000a0H
	pop	rbx
	ret	0
SetFieldAlign ENDP
_TEXT	ENDS
; Function compile flags: /Ogtpy
; File d:\hjwasm\hjwasm2.13.1s\hjwasm2.13.1s\option.c
_TEXT	SEGMENT
pi$ = 48
tokenarray$ = 56
SetSegment PROC

; 442  : {

	mov	QWORD PTR [rsp+8], rbx
	mov	QWORD PTR [rsp+16], rsi
	push	rdi
	sub	rsp, 32					; 00000020H

; 443  :     int i = *pi;

	movsxd	rsi, DWORD PTR [rcx]
	mov	rdi, rcx

; 444  : 
; 445  :     if ( tokenarray[i].token == T_RES_ID && tokenarray[i].tokval == T_FLAT ) {

	mov	rax, rsi
	shl	rax, 5
	lea	rbx, QWORD PTR [rax+rdx]
	movzx	eax, BYTE PTR [rax+rdx]
	cmp	al, 7
	jne	SHORT $LN2@SetSegment
	cmp	DWORD PTR [rbx+16], 261			; 00000105H
	jne	SHORT $LN6@SetSegment

; 446  : #if AMD64_SUPPORT
; 447  :         if ( ( ModuleInfo.curr_cpu & P_CPU_MASK ) >= P_64 )

	mov	eax, DWORD PTR ModuleInfo+392
	and	eax, 240				; 000000f0H
	cmp	eax, 112				; 00000070H
	setge	al
	inc	al
	mov	BYTE PTR ModuleInfo+405, al

; 462  :     }
; 463  :     i++;

	lea	eax, DWORD PTR [rsi+1]

; 464  :     *pi = i;

	mov	DWORD PTR [rcx], eax

; 465  :     return( NOT_ERROR );

	xor	eax, eax

; 466  : }

	mov	rbx, QWORD PTR [rsp+48]
	mov	rsi, QWORD PTR [rsp+56]
	add	rsp, 32					; 00000020H
	pop	rdi
	ret	0
$LN2@SetSegment:

; 448  :             ModuleInfo.defOfssize = USE64;
; 449  :         else
; 450  : #endif
; 451  :             ModuleInfo.defOfssize = USE32;
; 452  :     } else if ( tokenarray[i].token == T_ID && _stricmp( tokenarray[i].string_ptr, "USE16" ) == 0) {

	cmp	al, 8
	jne	SHORT $LN6@SetSegment
	mov	rcx, QWORD PTR [rbx+8]
	lea	rdx, OFFSET FLAT:$SG10978
	call	_stricmp
	test	eax, eax
	jne	SHORT $LN6@SetSegment

; 453  :         ModuleInfo.defOfssize = USE16;

	mov	BYTE PTR ModuleInfo+405, al

; 462  :     }
; 463  :     i++;

	lea	eax, DWORD PTR [rsi+1]

; 464  :     *pi = i;

	mov	DWORD PTR [rdi], eax

; 465  :     return( NOT_ERROR );

	xor	eax, eax

; 466  : }

	mov	rbx, QWORD PTR [rsp+48]
	mov	rsi, QWORD PTR [rsp+56]
	add	rsp, 32					; 00000020H
	pop	rdi
	ret	0
$LN6@SetSegment:

; 454  :     } else if ( tokenarray[i].token == T_ID && _stricmp( tokenarray[i].string_ptr, "USE32" ) == 0) {

	cmp	BYTE PTR [rbx], 8
	jne	SHORT $LN10@SetSegment
	mov	rcx, QWORD PTR [rbx+8]
	lea	rdx, OFFSET FLAT:$SG10981
	call	_stricmp
	test	eax, eax
	jne	SHORT $LN8@SetSegment

; 462  :     }
; 463  :     i++;

	lea	eax, DWORD PTR [rsi+1]
	mov	BYTE PTR ModuleInfo+405, 1

; 464  :     *pi = i;

	mov	DWORD PTR [rdi], eax

; 465  :     return( NOT_ERROR );

	xor	eax, eax

; 466  : }

	mov	rbx, QWORD PTR [rsp+48]
	mov	rsi, QWORD PTR [rsp+56]
	add	rsp, 32					; 00000020H
	pop	rdi
	ret	0
$LN8@SetSegment:

; 455  :         ModuleInfo.defOfssize = USE32;
; 456  : #if AMD64_SUPPORT
; 457  :     } else if ( tokenarray[i].token == T_ID && _stricmp( tokenarray[i].string_ptr, "USE64" ) == 0) {

	cmp	BYTE PTR [rbx], 8
	jne	SHORT $LN10@SetSegment
	mov	rcx, QWORD PTR [rbx+8]
	lea	rdx, OFFSET FLAT:$SG10984
	call	_stricmp
	test	eax, eax
	jne	SHORT $LN10@SetSegment

; 462  :     }
; 463  :     i++;

	lea	eax, DWORD PTR [rsi+1]
	mov	BYTE PTR ModuleInfo+405, 2

; 464  :     *pi = i;

	mov	DWORD PTR [rdi], eax

; 465  :     return( NOT_ERROR );

	xor	eax, eax

; 466  : }

	mov	rbx, QWORD PTR [rsp+48]
	mov	rsi, QWORD PTR [rsp+56]
	add	rsp, 32					; 00000020H
	pop	rdi
	ret	0
$LN10@SetSegment:

; 458  :         ModuleInfo.defOfssize = USE64;
; 459  : #endif
; 460  :     } else {
; 461  :         return( EmitErr( SYNTAX_ERROR_EX, tokenarray[i].string_ptr ) );

	mov	rdx, QWORD PTR [rbx+8]
	mov	ecx, 209				; 000000d1H

; 466  : }

	mov	rbx, QWORD PTR [rsp+48]
	mov	rsi, QWORD PTR [rsp+56]
	add	rsp, 32					; 00000020H
	pop	rdi

; 458  :         ModuleInfo.defOfssize = USE64;
; 459  : #endif
; 460  :     } else {
; 461  :         return( EmitErr( SYNTAX_ERROR_EX, tokenarray[i].string_ptr ) );

	jmp	EmitErr
SetSegment ENDP
_TEXT	ENDS
; Function compile flags: /Ogtpy
; File d:\hjwasm\hjwasm2.13.1s\hjwasm2.13.1s\option.c
_TEXT	SEGMENT
pi$ = 48
tokenarray$ = 56
SetProc	PROC

; 408  : {

	mov	QWORD PTR [rsp+8], rbx
	mov	QWORD PTR [rsp+16], rsi
	push	rdi
	sub	rsp, 32					; 00000020H

; 409  :     int i = *pi;

	movsxd	rbx, DWORD PTR [rcx]
	mov	rsi, rcx

; 410  : 
; 411  :     switch ( tokenarray[i].token ) {

	mov	rax, rbx
	shl	rax, 5
	lea	rdi, QWORD PTR [rax+rdx]
	movzx	eax, BYTE PTR [rax+rdx]
	cmp	al, 3
	je	SHORT $LN8@SetProc
	cmp	al, 8
	jne	SHORT $LN9@SetProc

; 412  :     case T_ID:
; 413  :         if ( 0 == _stricmp( tokenarray[i].string_ptr, "PRIVATE" ) ) {

	mov	rcx, QWORD PTR [rdi+8]
	lea	rdx, OFFSET FLAT:$SG10960
	call	_stricmp
	test	eax, eax
	jne	SHORT $LN5@SetProc

; 414  :             ModuleInfo.procs_private = TRUE;
; 415  :             ModuleInfo.procs_export = FALSE;

	mov	eax, DWORD PTR ModuleInfo+408
	and	eax, -9					; fffffff7H
	or	eax, 4
	mov	DWORD PTR ModuleInfo+408, eax

; 416  :             i++;

	jmp	SHORT $LN11@SetProc
$LN5@SetProc:

; 417  :         } else if ( 0 == _stricmp( tokenarray[i].string_ptr, "EXPORT" ) ) {

	mov	rcx, QWORD PTR [rdi+8]
	lea	rdx, OFFSET FLAT:$SG10962
	call	_stricmp
	test	eax, eax
	jne	SHORT $LN9@SetProc

; 418  :             ModuleInfo.procs_private = FALSE;

	mov	eax, DWORD PTR ModuleInfo+408
	and	eax, -5					; fffffffbH

; 419  :             ModuleInfo.procs_export = TRUE;

	or	eax, 8
	mov	DWORD PTR ModuleInfo+408, eax

; 420  :             i++;
; 421  :         }
; 422  :         break;

	jmp	SHORT $LN11@SetProc
$LN8@SetProc:

; 423  :     case T_DIRECTIVE: /* word PUBLIC is a directive */
; 424  :         if ( tokenarray[i].tokval == T_PUBLIC ) {

	cmp	DWORD PTR [rdi+16], 426			; 000001aaH
	jne	SHORT $LN9@SetProc

; 425  :             ModuleInfo.procs_private = FALSE;
; 426  :             ModuleInfo.procs_export = FALSE;

	and	DWORD PTR ModuleInfo+408, -13		; fffffff3H
$LN11@SetProc:

; 427  :             i++;

	inc	ebx
$LN9@SetProc:

; 428  :         }
; 429  :         break;
; 430  :     }
; 431  :     *pi = i;

	mov	DWORD PTR [rsi], ebx

; 432  :     return( NOT_ERROR );

	xor	eax, eax

; 433  : }

	mov	rbx, QWORD PTR [rsp+48]
	mov	rsi, QWORD PTR [rsp+56]
	add	rsp, 32					; 00000020H
	pop	rdi
	ret	0
SetProc	ENDP
_TEXT	ENDS
; Function compile flags: /Ogtpy
; File d:\hjwasm\hjwasm2.13.1s\hjwasm2.13.1s\option.c
_TEXT	SEGMENT
pi$ = 48
tokenarray$ = 56
SetOffset PROC

; 387  : {

	mov	QWORD PTR [rsp+8], rbx
	mov	QWORD PTR [rsp+16], rsi
	push	rdi
	sub	rsp, 32					; 00000020H

; 388  :     int i = *pi;

	movsxd	rsi, DWORD PTR [rcx]
	mov	rdi, rcx

; 389  : 
; 390  :     if ( 0 == _stricmp( tokenarray[i].string_ptr, "GROUP" ) ) {

	mov	rbx, rsi
	shl	rbx, 5
	add	rbx, rdx
	lea	rdx, OFFSET FLAT:$SG10941
	mov	rcx, QWORD PTR [rbx+8]
	call	_stricmp
	test	eax, eax
	jne	SHORT $LN2@SetOffset

; 391  :         ModuleInfo.offsettype = OT_GROUP;

	mov	DWORD PTR ModuleInfo+384, eax

; 398  :     }
; 399  :     i++;

	lea	eax, DWORD PTR [rsi+1]

; 400  :     *pi = i;

	mov	DWORD PTR [rdi], eax

; 401  :     return( NOT_ERROR );

	xor	eax, eax

; 402  : }

	mov	rbx, QWORD PTR [rsp+48]
	mov	rsi, QWORD PTR [rsp+56]
	add	rsp, 32					; 00000020H
	pop	rdi
	ret	0
$LN2@SetOffset:

; 392  :     } else if ( 0 == _stricmp( tokenarray[i].string_ptr, "FLAT" ) ) {

	mov	rcx, QWORD PTR [rbx+8]
	lea	rdx, OFFSET FLAT:$SG10944
	call	_stricmp
	test	eax, eax
	jne	SHORT $LN4@SetOffset

; 398  :     }
; 399  :     i++;

	lea	eax, DWORD PTR [rsi+1]
	mov	DWORD PTR ModuleInfo+384, 1

; 400  :     *pi = i;

	mov	DWORD PTR [rdi], eax

; 401  :     return( NOT_ERROR );

	xor	eax, eax

; 402  : }

	mov	rbx, QWORD PTR [rsp+48]
	mov	rsi, QWORD PTR [rsp+56]
	add	rsp, 32					; 00000020H
	pop	rdi
	ret	0
$LN4@SetOffset:

; 393  :         ModuleInfo.offsettype = OT_FLAT;
; 394  :     } else if ( 0 == _stricmp( tokenarray[i].string_ptr, "SEGMENT" ) ) {

	mov	rcx, QWORD PTR [rbx+8]
	lea	rdx, OFFSET FLAT:$SG10947
	call	_stricmp
	test	eax, eax
	jne	SHORT $LN6@SetOffset

; 398  :     }
; 399  :     i++;

	lea	eax, DWORD PTR [rsi+1]
	mov	DWORD PTR ModuleInfo+384, 2

; 400  :     *pi = i;

	mov	DWORD PTR [rdi], eax

; 401  :     return( NOT_ERROR );

	xor	eax, eax

; 402  : }

	mov	rbx, QWORD PTR [rsp+48]
	mov	rsi, QWORD PTR [rsp+56]
	add	rsp, 32					; 00000020H
	pop	rdi
	ret	0
$LN6@SetOffset:

; 395  :         ModuleInfo.offsettype = OT_SEGMENT;
; 396  :     } else {
; 397  :         return( EmitErr( SYNTAX_ERROR_EX, tokenarray[i].string_ptr ) );

	mov	rdx, QWORD PTR [rbx+8]
	mov	ecx, 209				; 000000d1H

; 402  : }

	mov	rbx, QWORD PTR [rsp+48]
	mov	rsi, QWORD PTR [rsp+56]
	add	rsp, 32					; 00000020H
	pop	rdi

; 395  :         ModuleInfo.offsettype = OT_SEGMENT;
; 396  :     } else {
; 397  :         return( EmitErr( SYNTAX_ERROR_EX, tokenarray[i].string_ptr ) );

	jmp	EmitErr
SetOffset ENDP
_TEXT	ENDS
; Function compile flags: /Ogtpy
; File d:\hjwasm\hjwasm2.13.1s\hjwasm2.13.1s\option.c
_TEXT	SEGMENT
pi$ = 48
tokenarray$ = 56
SetEpilogue PROC

; 355  : {

	mov	QWORD PTR [rsp+8], rbx
	mov	QWORD PTR [rsp+16], rsi
	push	rdi
	sub	rsp, 32					; 00000020H

; 356  :     int i = *pi;

	movsxd	rsi, DWORD PTR [rcx]
	mov	rdi, rcx

; 357  : 
; 358  :     if ( tokenarray[i].token != T_ID ) {

	mov	rbx, rsi
	shl	rbx, 5
	add	rbx, rdx
	cmp	BYTE PTR [rbx], 8
	je	SHORT $LN2@SetEpilogu

; 359  :         return( EmitErr( SYNTAX_ERROR_EX, tokenarray[i].tokpos ) );

	mov	rdx, QWORD PTR [rbx+24]
	mov	ecx, 209				; 000000d1H

; 374  :     }
; 375  : 
; 376  :     i++;
; 377  :     *pi = i;
; 378  :     return( NOT_ERROR );
; 379  : }

	mov	rbx, QWORD PTR [rsp+48]
	mov	rsi, QWORD PTR [rsp+56]
	add	rsp, 32					; 00000020H
	pop	rdi

; 359  :         return( EmitErr( SYNTAX_ERROR_EX, tokenarray[i].tokpos ) );

	jmp	EmitErr
$LN2@SetEpilogu:

; 360  :     }
; 361  :     if ( ModuleInfo.proc_epilogue ) {

	mov	QWORD PTR ModuleInfo+328, 0

; 362  :         LclFree( ModuleInfo.proc_epilogue );
; 363  :         ModuleInfo.proc_epilogue = NULL;
; 364  :     }
; 365  : 
; 366  :     if ( 0 == _stricmp( tokenarray[i].string_ptr, "NONE" ) ) {

	lea	rdx, OFFSET FLAT:$SG10928
	mov	rcx, QWORD PTR [rbx+8]
	call	_stricmp
	test	eax, eax
	jne	SHORT $LN4@SetEpilogu

; 367  :         ModuleInfo.epiloguemode = PEM_NONE;

	mov	BYTE PTR ModuleInfo+425, 2
	jmp	SHORT $LN7@SetEpilogu
$LN4@SetEpilogu:

; 368  :     } else if ( 0 == _stricmp( tokenarray[i].string_ptr, "EPILOGUEDEF" ) ) {

	mov	rcx, QWORD PTR [rbx+8]
	lea	rdx, OFFSET FLAT:$SG10931
	call	_stricmp
	test	eax, eax
	jne	SHORT $LN6@SetEpilogu

; 369  :         ModuleInfo.epiloguemode = PEM_DEFAULT;

	mov	BYTE PTR ModuleInfo+425, al

; 370  :     } else {

	jmp	SHORT $LN7@SetEpilogu
$LN6@SetEpilogu:

; 371  :         ModuleInfo.epiloguemode = PEM_MACRO;

	mov	BYTE PTR ModuleInfo+425, 1

; 372  :         ModuleInfo.proc_epilogue = LclAlloc( strlen( tokenarray[i].string_ptr ) + 1);

	or	rcx, -1
	mov	rax, QWORD PTR [rbx+8]
$LL13@SetEpilogu:
	inc	rcx
	cmp	BYTE PTR [rax+rcx], 0
	jne	SHORT $LL13@SetEpilogu
	inc	rcx
	call	LclAlloc
	mov	QWORD PTR ModuleInfo+328, rax

; 373  :         strcpy( ModuleInfo.proc_epilogue, tokenarray[i].string_ptr );

	mov	rdx, QWORD PTR [rbx+8]
$LL9@SetEpilogu:
	movzx	ecx, BYTE PTR [rdx]
	lea	rdx, QWORD PTR [rdx+1]
	mov	BYTE PTR [rax], cl
	lea	rax, QWORD PTR [rax+1]
	test	cl, cl
	jne	SHORT $LL9@SetEpilogu
$LN7@SetEpilogu:

; 374  :     }
; 375  : 
; 376  :     i++;
; 377  :     *pi = i;
; 378  :     return( NOT_ERROR );
; 379  : }

	mov	rbx, QWORD PTR [rsp+48]
	lea	eax, DWORD PTR [rsi+1]
	mov	rsi, QWORD PTR [rsp+56]
	mov	DWORD PTR [rdi], eax
	xor	eax, eax
	add	rsp, 32					; 00000020H
	pop	rdi
	ret	0
SetEpilogue ENDP
_TEXT	ENDS
; Function compile flags: /Ogtpy
; File d:\hjwasm\hjwasm2.13.1s\hjwasm2.13.1s\option.c
_TEXT	SEGMENT
pi$ = 48
tokenarray$ = 56
SetPrologue PROC

; 323  : {

	mov	QWORD PTR [rsp+8], rbx
	mov	QWORD PTR [rsp+16], rsi
	push	rdi
	sub	rsp, 32					; 00000020H

; 324  :     int i = *pi;

	movsxd	rsi, DWORD PTR [rcx]
	mov	rdi, rcx

; 325  : 
; 326  :     if ( tokenarray[i].token != T_ID ) {

	mov	rbx, rsi
	shl	rbx, 5
	add	rbx, rdx
	cmp	BYTE PTR [rbx], 8
	je	SHORT $LN2@SetPrologu

; 327  :         return( EmitErr( SYNTAX_ERROR_EX, tokenarray[i].tokpos ) );

	mov	rdx, QWORD PTR [rbx+24]
	mov	ecx, 209				; 000000d1H

; 341  :     }
; 342  : 
; 343  :     i++;
; 344  :     *pi = i;
; 345  :     return( NOT_ERROR );
; 346  : }

	mov	rbx, QWORD PTR [rsp+48]
	mov	rsi, QWORD PTR [rsp+56]
	add	rsp, 32					; 00000020H
	pop	rdi

; 327  :         return( EmitErr( SYNTAX_ERROR_EX, tokenarray[i].tokpos ) );

	jmp	EmitErr
$LN2@SetPrologu:

; 328  :     }
; 329  :     if ( ModuleInfo.proc_prologue ) {

	mov	QWORD PTR ModuleInfo+320, 0

; 330  :         LclFree( ModuleInfo.proc_prologue );
; 331  :         ModuleInfo.proc_prologue = NULL;
; 332  :     }
; 333  :     if ( 0 == _stricmp( tokenarray[i].string_ptr, "NONE" ) ) {

	lea	rdx, OFFSET FLAT:$SG10912
	mov	rcx, QWORD PTR [rbx+8]
	call	_stricmp
	test	eax, eax
	jne	SHORT $LN4@SetPrologu

; 334  :         ModuleInfo.prologuemode = PEM_NONE;

	mov	BYTE PTR ModuleInfo+424, 2
	jmp	SHORT $LN7@SetPrologu
$LN4@SetPrologu:

; 335  :     } else if ( 0 == _stricmp( tokenarray[i].string_ptr, "PROLOGUEDEF" ) ) {

	mov	rcx, QWORD PTR [rbx+8]
	lea	rdx, OFFSET FLAT:$SG10915
	call	_stricmp
	test	eax, eax
	jne	SHORT $LN6@SetPrologu

; 336  :         ModuleInfo.prologuemode = PEM_DEFAULT;

	mov	BYTE PTR ModuleInfo+424, al

; 337  :     } else {

	jmp	SHORT $LN7@SetPrologu
$LN6@SetPrologu:

; 338  :         ModuleInfo.prologuemode = PEM_MACRO;

	mov	BYTE PTR ModuleInfo+424, 1

; 339  :         ModuleInfo.proc_prologue = LclAlloc( strlen( tokenarray[i].string_ptr ) + 1);

	or	rcx, -1
	mov	rax, QWORD PTR [rbx+8]
$LL13@SetPrologu:
	inc	rcx
	cmp	BYTE PTR [rax+rcx], 0
	jne	SHORT $LL13@SetPrologu
	inc	rcx
	call	LclAlloc
	mov	QWORD PTR ModuleInfo+320, rax

; 340  :         strcpy( ModuleInfo.proc_prologue, tokenarray[i].string_ptr );

	mov	rdx, QWORD PTR [rbx+8]
$LL9@SetPrologu:
	movzx	ecx, BYTE PTR [rdx]
	lea	rdx, QWORD PTR [rdx+1]
	mov	BYTE PTR [rax], cl
	lea	rax, QWORD PTR [rax+1]
	test	cl, cl
	jne	SHORT $LL9@SetPrologu
$LN7@SetPrologu:

; 341  :     }
; 342  : 
; 343  :     i++;
; 344  :     *pi = i;
; 345  :     return( NOT_ERROR );
; 346  : }

	mov	rbx, QWORD PTR [rsp+48]
	lea	eax, DWORD PTR [rsi+1]
	mov	rsi, QWORD PTR [rsp+56]
	mov	DWORD PTR [rdi], eax
	xor	eax, eax
	add	rsp, 32					; 00000020H
	pop	rdi
	ret	0
SetPrologue ENDP
_TEXT	ENDS
; Function compile flags: /Ogtpy
; File d:\hjwasm\hjwasm2.13.1s\hjwasm2.13.1s\option.c
_TEXT	SEGMENT
pi$ = 48
tokenarray$ = 56
SetSetIF2 PROC

; 290  : {

	mov	QWORD PTR [rsp+8], rbx
	mov	QWORD PTR [rsp+16], rsi
	push	rdi
	sub	rsp, 32					; 00000020H

; 291  :     int i = *pi;

	movsxd	rbx, DWORD PTR [rcx]
	mov	rdi, rcx

; 292  : 
; 293  :     if ( 0 == _stricmp( tokenarray[i].string_ptr, "TRUE" ) ) {

	mov	rsi, rbx
	shl	rsi, 5
	add	rsi, rdx
	lea	rdx, OFFSET FLAT:$SG10897
	mov	rcx, QWORD PTR [rsi+8]
	call	_stricmp
	test	eax, eax
	jne	SHORT $LN2@SetSetIF2

; 294  :         ModuleInfo.setif2 = TRUE;

	or	DWORD PTR ModuleInfo+408, 1024		; 00000400H

; 295  :         i++;

	jmp	SHORT $LN7@SetSetIF2
$LN2@SetSetIF2:

; 296  :     } else if ( 0 == _stricmp( tokenarray[i].string_ptr, "FALSE" ) ) {

	mov	rcx, QWORD PTR [rsi+8]
	lea	rdx, OFFSET FLAT:$SG10899
	call	_stricmp
	test	eax, eax
	jne	SHORT $LN6@SetSetIF2

; 297  :         ModuleInfo.setif2 = FALSE;

	and	DWORD PTR ModuleInfo+408, -1025		; fffffbffH
$LN7@SetSetIF2:

; 298  :         i++;

	inc	ebx
$LN6@SetSetIF2:

; 299  :     }
; 300  :     *pi = i;
; 301  :     return( NOT_ERROR );
; 302  : }

	mov	rsi, QWORD PTR [rsp+56]
	xor	eax, eax
	mov	DWORD PTR [rdi], ebx
	mov	rbx, QWORD PTR [rsp+48]
	add	rsp, 32					; 00000020H
	pop	rdi
	ret	0
SetSetIF2 ENDP
_TEXT	ENDS
; Function compile flags: /Ogtpy
; File d:\hjwasm\hjwasm2.13.1s\hjwasm2.13.1s\option.c
_TEXT	SEGMENT
i$ = 48
pi$ = 48
tokenarray$ = 56
SetLanguage PROC

; 267  : {

	mov	QWORD PTR [rsp+16], rbx
	push	rdi
	sub	rsp, 32					; 00000020H

; 268  :     int i = *pi;

	movsxd	r8, DWORD PTR [rcx]
	mov	rbx, rdx

; 269  :     //lang_type langtype;
; 270  :     //int language = ERROR;
; 271  : 
; 272  :     if ( tokenarray[i].token == T_RES_ID ) {

	mov	rax, r8
	mov	DWORD PTR i$[rsp], r8d
	shl	rax, 5
	mov	rdi, rcx
	cmp	BYTE PTR [rax+rdx], 7
	jne	SHORT $LN3@SetLanguag

; 273  :         if ( GetLangType( &i, tokenarray, &ModuleInfo.langtype ) == NOT_ERROR ) {

	lea	r8, OFFSET FLAT:ModuleInfo+364
	lea	rcx, QWORD PTR i$[rsp]
	call	GetLangType
	test	eax, eax
	jne	SHORT $LN6@SetLanguag

; 274  :             /* update @Interface assembly time variable */
; 275  :             if ( ModuleInfo.model != MODEL_NONE && sym_Interface )

	cmp	DWORD PTR ModuleInfo+360, eax
	je	SHORT $LN4@SetLanguag
	mov	rcx, QWORD PTR sym_Interface
	test	rcx, rcx
	je	SHORT $LN4@SetLanguag

; 276  :                 sym_Interface->value = ModuleInfo.langtype;

	mov	eax, DWORD PTR ModuleInfo+364
	mov	DWORD PTR [rcx+16], eax
$LN4@SetLanguag:

; 277  :             *pi = i;

	mov	eax, DWORD PTR i$[rsp]
	mov	DWORD PTR [rdi], eax

; 278  :             return( NOT_ERROR );

	xor	eax, eax

; 282  : }

	mov	rbx, QWORD PTR [rsp+56]
	add	rsp, 32					; 00000020H
	pop	rdi
	ret	0
$LN6@SetLanguag:

; 278  :             return( NOT_ERROR );

	mov	r8d, DWORD PTR i$[rsp]
$LN3@SetLanguag:

; 279  :         }
; 280  :     }
; 281  :     return( EmitErr( SYNTAX_ERROR_EX, tokenarray[i].tokpos ) );

	movsxd	rdx, r8d
	mov	ecx, 209				; 000000d1H
	shl	rdx, 5
	mov	rdx, QWORD PTR [rdx+rbx+24]
	call	EmitErr

; 282  : }

	mov	rbx, QWORD PTR [rsp+56]
	add	rsp, 32					; 00000020H
	pop	rdi
	ret	0
SetLanguage ENDP
_TEXT	ENDS
; Function compile flags: /Ogtpy
; File d:\hjwasm\hjwasm2.13.1s\hjwasm2.13.1s\option.c
_TEXT	SEGMENT
pi$ = 48
tokenarray$ = 56
SetNoKeyword PROC

; 219  : {

	mov	QWORD PTR [rsp+32], rbp
	push	r14
	sub	rsp, 32					; 00000020H

; 220  :     int i = *pi;

	movsxd	rbp, DWORD PTR [rcx]
	mov	r8, rdx

; 221  :     //struct ReservedWord *resw;
; 222  :     unsigned index;
; 223  :     char *p;
; 224  : 
; 225  :     if( Parse_Pass != PASS_1 ) {
; 226  :         SkipOption( pi, tokenarray );

	mov	rax, rbp
	mov	r14, rcx
	shl	rax, 5
	cmp	DWORD PTR Parse_Pass, 0
	je	SHORT $LN12@SetNoKeywo
	cmp	BYTE PTR [rax+rdx], 0
	je	SHORT $LN49@SetNoKeywo
	npad	6
$LL24@SetNoKeywo:
	movsxd	rdx, DWORD PTR [r14]
	mov	rax, rdx
	shl	rax, 5
	cmp	BYTE PTR [rax+r8], 44			; 0000002cH
	je	SHORT $LN49@SetNoKeywo
	lea	eax, DWORD PTR [rdx+1]
	movsxd	rcx, eax
	shl	rcx, 5
	mov	DWORD PTR [r14], eax
	cmp	BYTE PTR [rcx+r8], 0
	jne	SHORT $LL24@SetNoKeywo
$LN49@SetNoKeywo:

; 227  :         return( NOT_ERROR);

	xor	eax, eax

; 261  : }

	mov	rbp, QWORD PTR [rsp+72]
	add	rsp, 32					; 00000020H
	pop	r14
	ret	0
$LN12@SetNoKeywo:

; 228  :     }
; 229  :     if ( tokenarray[i].token != T_STRING || tokenarray[i].string_delim != '<' ) {

	add	rdx, rax
	cmp	BYTE PTR [rdx], 9
	jne	$LN14@SetNoKeywo
	cmp	BYTE PTR [rdx+1], 60			; 0000003cH
	jne	$LN14@SetNoKeywo

; 231  :     }
; 232  :     for ( p = tokenarray[i].string_ptr; *p; ) {

	mov	QWORD PTR [rsp+48], rbx
	mov	rbx, QWORD PTR [rdx+8]
	mov	QWORD PTR [rsp+56], rsi
	mov	QWORD PTR [rsp+64], rdi
	movzx	eax, BYTE PTR [rbx]
	test	al, al
	je	$LN48@SetNoKeywo
$LL2@SetNoKeywo:

; 233  :         while ( isspace( *p ) ) p++;

	movsx	ecx, al
	call	isspace
	test	eax, eax
	je	SHORT $LN6@SetNoKeywo
$LL5@SetNoKeywo:
	movsx	ecx, BYTE PTR [rbx+1]
	inc	rbx
	call	isspace
	test	eax, eax
	jne	SHORT $LL5@SetNoKeywo
$LN6@SetNoKeywo:

; 234  :         if ( *p ) {

	movzx	eax, BYTE PTR [rbx]
	test	al, al
	je	SHORT $LN31@SetNoKeywo

; 235  :             char *p2 = p;

	mov	rsi, rbx
	npad	3
$LL9@SetNoKeywo:

; 239  :                 if ( isspace( *p ) || *p == ',' )

	movsx	ecx, al
	call	isspace
	test	eax, eax
	jne	SHORT $LN32@SetNoKeywo
	cmp	BYTE PTR [rbx], 44			; 0000002cH
	je	SHORT $LN32@SetNoKeywo

; 236  :             unsigned char cnt;
; 237  :             //struct instr_item *instruct;
; 238  :             for ( ;*p; p++ ) {

	movzx	eax, BYTE PTR [rbx+1]
	inc	rbx
	test	al, al
	jne	SHORT $LL9@SetNoKeywo
$LN32@SetNoKeywo:

; 240  :                     break;
; 241  :             }
; 242  :             cnt = p - p2;

	movzx	edi, bl

; 243  :             /* todo: if MAX_ID_LEN can be > 255, then check size,
; 244  :              * since a reserved word's size must be <= 255
; 245  :              */
; 246  :             index = FindResWord( p2, cnt );

	mov	rcx, rsi
	sub	dil, sil
	movzx	edx, dil
	call	FindResWord

; 247  :             if ( index != 0 )

	test	eax, eax
	je	SHORT $LN18@SetNoKeywo

; 248  :                 DisableKeyword( index );

	mov	ecx, eax
	call	DisableKeyword
	jmp	SHORT $LN31@SetNoKeywo
$LN18@SetNoKeywo:

; 249  :             else {
; 250  :                 if ( IsKeywordDisabled( p2, cnt ) ) {

	movzx	edx, dil
	mov	rcx, rsi
	call	IsKeywordDisabled
	test	al, al
	jne	SHORT $LN33@SetNoKeywo
$LN31@SetNoKeywo:

; 252  :                 }
; 253  :             }
; 254  :         }
; 255  :         while ( isspace(*p) ) p++;

	movsx	ecx, BYTE PTR [rbx]
	call	isspace
	test	eax, eax
	je	SHORT $LN11@SetNoKeywo
	npad	9
$LL10@SetNoKeywo:
	movsx	ecx, BYTE PTR [rbx+1]
	inc	rbx
	call	isspace
	test	eax, eax
	jne	SHORT $LL10@SetNoKeywo
$LN11@SetNoKeywo:

; 256  :         if (*p == ',') p++;

	cmp	BYTE PTR [rbx], 44			; 0000002cH
	jne	SHORT $LN21@SetNoKeywo
	inc	rbx
$LN21@SetNoKeywo:

; 231  :     }
; 232  :     for ( p = tokenarray[i].string_ptr; *p; ) {

	movzx	eax, BYTE PTR [rbx]
	test	al, al
	jne	$LL2@SetNoKeywo
$LN48@SetNoKeywo:

; 257  :     }
; 258  :     i++;

	lea	eax, DWORD PTR [rbp+1]

; 259  :     *pi = i;

	mov	DWORD PTR [r14], eax

; 260  :     return( NOT_ERROR );

	xor	eax, eax
$LN52@SetNoKeywo:
	mov	rsi, QWORD PTR [rsp+56]
	mov	rbx, QWORD PTR [rsp+48]
	mov	rdi, QWORD PTR [rsp+64]

; 261  : }

	mov	rbp, QWORD PTR [rsp+72]
	add	rsp, 32					; 00000020H
	pop	r14
	ret	0
$LN33@SetNoKeywo:

; 251  :                     return( EmitError( RESERVED_WORD_EXPECTED ) );

	mov	ecx, 158				; 0000009eH
	call	EmitError
	jmp	SHORT $LN52@SetNoKeywo
$LN14@SetNoKeywo:

; 230  :         return( EmitErr( SYNTAX_ERROR_EX, tokenarray[i].tokpos ) );

	mov	rdx, QWORD PTR [rdx+24]
	mov	ecx, 209				; 000000d1H

; 261  : }

	mov	rbp, QWORD PTR [rsp+72]
	add	rsp, 32					; 00000020H
	pop	r14

; 230  :         return( EmitErr( SYNTAX_ERROR_EX, tokenarray[i].tokpos ) );

	jmp	EmitErr
SetNoKeyword ENDP
_TEXT	ENDS
; Function compile flags: /Ogtpy
; File d:\hjwasm\hjwasm2.13.1s\hjwasm2.13.1s\option.c
;	COMDAT SkipOption
_TEXT	SEGMENT
pi$ = 8
tokenarray$ = 16
SkipOption PROC						; COMDAT

; 209  :     while ( tokenarray[*pi].token != T_FINAL &&

	movsxd	rax, DWORD PTR [rcx]
	mov	r9, rcx
	shl	rax, 5
	cmp	BYTE PTR [rax+rdx], 0
	je	SHORT $LN3@SkipOption
$LL2@SkipOption:
	movsxd	r8, DWORD PTR [r9]
	mov	rax, r8
	shl	rax, 5
	cmp	BYTE PTR [rax+rdx], 44			; 0000002cH
	je	SHORT $LN3@SkipOption

; 210  :            tokenarray[*pi].token != T_COMMA )
; 211  :         (*pi)++;

	lea	eax, DWORD PTR [r8+1]
	movsxd	rcx, eax
	shl	rcx, 5
	mov	DWORD PTR [r9], eax
	cmp	BYTE PTR [rcx+rdx], 0
	jne	SHORT $LL2@SkipOption
$LN3@SkipOption:

; 212  : }

	ret	0
SkipOption ENDP
_TEXT	ENDS
; Function compile flags: /Ogtpy
; File d:\hjwasm\hjwasm2.13.1s\hjwasm2.13.1s\option.c
_TEXT	SEGMENT
pi$ = 8
tokenarray$ = 16
SetNoSignExt PROC

; 202  :     ModuleInfo.NoSignExtend = TRUE;

	or	DWORD PTR ModuleInfo+408, 262144	; 00040000H

; 203  :     return( NOT_ERROR );

	xor	eax, eax

; 204  : }

	ret	0
SetNoSignExt ENDP
_TEXT	ENDS
; Function compile flags: /Ogtpy
; File d:\hjwasm\hjwasm2.13.1s\hjwasm2.13.1s\option.c
_TEXT	SEGMENT
pi$ = 8
tokenarray$ = 16
SetExpr32 PROC

; 195  :     /* default, nothing to do */
; 196  :     return( NOT_ERROR );

	xor	eax, eax

; 197  : }

	ret	0
SetExpr32 ENDP
_TEXT	ENDS
; Function compile flags: /Ogtpy
; File d:\hjwasm\hjwasm2.13.1s\hjwasm2.13.1s\option.c
_TEXT	SEGMENT
pi$ = 8
tokenarray$ = 16
SetNoOldmacros PROC

; 186  :     /* default, nothing to do */
; 187  :     return( NOT_ERROR );

	xor	eax, eax

; 188  : }

	ret	0
SetNoOldmacros ENDP
_TEXT	ENDS
; Function compile flags: /Ogtpy
; File d:\hjwasm\hjwasm2.13.1s\hjwasm2.13.1s\option.c
_TEXT	SEGMENT
pi$ = 8
tokenarray$ = 16
SetNoReadonly PROC

; 177  :     /* default, nothing to do */
; 178  :     return( NOT_ERROR );

	xor	eax, eax

; 179  : }

	ret	0
SetNoReadonly ENDP
_TEXT	ENDS
; Function compile flags: /Ogtpy
; File d:\hjwasm\hjwasm2.13.1s\hjwasm2.13.1s\option.c
_TEXT	SEGMENT
pi$ = 8
tokenarray$ = 16
SetNoLJmp PROC

; 168  :     ModuleInfo.ljmp = FALSE;

	and	DWORD PTR ModuleInfo+408, -33		; ffffffdfH

; 169  :     return( NOT_ERROR );

	xor	eax, eax

; 170  : }

	ret	0
SetNoLJmp ENDP
_TEXT	ENDS
; Function compile flags: /Ogtpy
; File d:\hjwasm\hjwasm2.13.1s\hjwasm2.13.1s\option.c
_TEXT	SEGMENT
pi$ = 8
tokenarray$ = 16
SetLJmp	PROC

; 159  :     ModuleInfo.ljmp = TRUE;

	or	DWORD PTR ModuleInfo+408, 32		; 00000020H

; 160  :     return( NOT_ERROR );

	xor	eax, eax

; 161  : }

	ret	0
SetLJmp	ENDP
_TEXT	ENDS
; Function compile flags: /Ogtpy
; File d:\hjwasm\hjwasm2.13.1s\hjwasm2.13.1s\option.c
_TEXT	SEGMENT
pi$ = 8
tokenarray$ = 16
SetNoEmulator PROC

; 150  :     ModuleInfo.emulator = FALSE;

	and	DWORD PTR ModuleInfo+408, -513		; fffffdffH

; 151  :     return( NOT_ERROR );

	xor	eax, eax

; 152  : }

	ret	0
SetNoEmulator ENDP
_TEXT	ENDS
; Function compile flags: /Ogtpy
; File d:\hjwasm\hjwasm2.13.1s\hjwasm2.13.1s\option.c
_TEXT	SEGMENT
pi$ = 8
tokenarray$ = 16
SetEmulator PROC

; 141  :     ModuleInfo.emulator = TRUE;

	or	DWORD PTR ModuleInfo+408, 512		; 00000200H

; 142  :     return( NOT_ERROR );

	xor	eax, eax

; 143  : }

	ret	0
SetEmulator ENDP
_TEXT	ENDS
; Function compile flags: /Ogtpy
; File d:\hjwasm\hjwasm2.13.1s\hjwasm2.13.1s\option.c
_TEXT	SEGMENT
pi$ = 8
tokenarray$ = 16
SetNoOldStructs PROC

; 132  :     ModuleInfo.oldstructs = FALSE;

	and	DWORD PTR ModuleInfo+408, -257		; fffffeffH

; 133  :     return( NOT_ERROR );

	xor	eax, eax

; 134  : }

	ret	0
SetNoOldStructs ENDP
_TEXT	ENDS
; Function compile flags: /Ogtpy
; File d:\hjwasm\hjwasm2.13.1s\hjwasm2.13.1s\option.c
_TEXT	SEGMENT
pi$ = 8
tokenarray$ = 16
SetOldStructs PROC

; 123  :     ModuleInfo.oldstructs = TRUE;

	or	DWORD PTR ModuleInfo+408, 256		; 00000100H

; 124  :     return( NOT_ERROR );

	xor	eax, eax

; 125  : }

	ret	0
SetOldStructs ENDP
_TEXT	ENDS
; Function compile flags: /Ogtpy
; File d:\hjwasm\hjwasm2.13.1s\hjwasm2.13.1s\option.c
_TEXT	SEGMENT
pi$ = 8
tokenarray$ = 16
SetNoScoped PROC

; 114  :     ModuleInfo.scoped = FALSE;

	and	DWORD PTR ModuleInfo+408, -129		; ffffff7fH

; 115  :     return( NOT_ERROR );

	xor	eax, eax

; 116  : }

	ret	0
SetNoScoped ENDP
_TEXT	ENDS
; Function compile flags: /Ogtpy
; File d:\hjwasm\hjwasm2.13.1s\hjwasm2.13.1s\option.c
_TEXT	SEGMENT
pi$ = 8
tokenarray$ = 16
SetScoped PROC

; 105  :     ModuleInfo.scoped = TRUE;

	or	DWORD PTR ModuleInfo+408, 128		; 00000080H

; 106  :     return( NOT_ERROR );

	xor	eax, eax

; 107  : }

	ret	0
SetScoped ENDP
_TEXT	ENDS
; Function compile flags: /Ogtpy
; File d:\hjwasm\hjwasm2.13.1s\hjwasm2.13.1s\option.c
_TEXT	SEGMENT
pi$ = 48
tokenarray$ = 56
SetNoM510 PROC

; 95   : {

	sub	rsp, 40					; 00000028H

; 96   :     SetMasm510(FALSE);

	xor	ecx, ecx
	call	SetMasm510

; 97   :     return( NOT_ERROR );

	xor	eax, eax

; 98   : }

	add	rsp, 40					; 00000028H
	ret	0
SetNoM510 ENDP
_TEXT	ENDS
; Function compile flags: /Ogtpy
; File d:\hjwasm\hjwasm2.13.1s\hjwasm2.13.1s\option.c
_TEXT	SEGMENT
pi$ = 48
tokenarray$ = 56
SetM510	PROC

; 86   : {

	sub	rsp, 40					; 00000028H

; 87   :     SetMasm510( TRUE );

	mov	cl, 1
	call	SetMasm510

; 88   :     return( NOT_ERROR );

	xor	eax, eax

; 89   : }

	add	rsp, 40					; 00000028H
	ret	0
SetM510	ENDP
_TEXT	ENDS
; Function compile flags: /Ogtpy
; File d:\hjwasm\hjwasm2.13.1s\hjwasm2.13.1s\option.c
_TEXT	SEGMENT
pi$ = 48
tokenarray$ = 56
SetCaseMap PROC

; 57   : {

	mov	QWORD PTR [rsp+8], rbx
	mov	QWORD PTR [rsp+16], rsi
	push	rdi
	sub	rsp, 32					; 00000020H

; 58   :     int i = *pi;

	movsxd	rsi, DWORD PTR [rcx]
	mov	rdi, rcx

; 59   :     if ( tokenarray[i].token == T_ID ) {

	mov	rbx, rsi
	shl	rbx, 5
	add	rbx, rdx
	cmp	BYTE PTR [rbx], 8
	jne	$LN2@SetCaseMap

; 60   :         if ( 0 == _stricmp( tokenarray[i].string_ptr, "NONE" ) ) {

	mov	rcx, QWORD PTR [rbx+8]
	lea	rdx, OFFSET FLAT:$SG10748
	call	_stricmp
	test	eax, eax
	jne	SHORT $LN4@SetCaseMap

; 61   :             ModuleInfo.case_sensitive = TRUE;        /* -Cx */
; 62   :             ModuleInfo.convert_uppercase = FALSE;

	mov	eax, DWORD PTR ModuleInfo+408
	and	eax, -3					; fffffffdH
	or	eax, 1
	jmp	SHORT $LN11@SetCaseMap
$LN4@SetCaseMap:

; 63   :         } else if ( 0 == _stricmp( tokenarray[i].string_ptr, "NOTPUBLIC" ) ) {

	mov	rcx, QWORD PTR [rbx+8]
	lea	rdx, OFFSET FLAT:$SG10751
	call	_stricmp
	test	eax, eax
	jne	SHORT $LN6@SetCaseMap

; 64   :             ModuleInfo.case_sensitive = FALSE;       /* -Cp */
; 65   :             ModuleInfo.convert_uppercase = FALSE;

	and	DWORD PTR ModuleInfo+408, -4		; fffffffcH

; 69   :         } else {
; 70   :             return( EmitErr( SYNTAX_ERROR_EX, tokenarray[i].tokpos ) );
; 71   :         }
; 72   :         DebugMsg1(("SetCaseMap(%s) ok\n", tokenarray[i].string_ptr ));
; 73   :         i++;
; 74   :         SymSetCmpFunc();

	call	SymSetCmpFunc
	lea	eax, DWORD PTR [rsi+1]

; 77   :     }
; 78   :     *pi = i;

	mov	DWORD PTR [rdi], eax

; 79   :     return( NOT_ERROR );

	xor	eax, eax

; 80   : }

	mov	rbx, QWORD PTR [rsp+48]
	mov	rsi, QWORD PTR [rsp+56]
	add	rsp, 32					; 00000020H
	pop	rdi
	ret	0
$LN6@SetCaseMap:

; 66   :         } else if ( 0 == _stricmp( tokenarray[i].string_ptr, "ALL" ) ) {

	mov	rcx, QWORD PTR [rbx+8]
	lea	rdx, OFFSET FLAT:$SG10754
	call	_stricmp
	test	eax, eax
	jne	SHORT $LN2@SetCaseMap

; 67   :             ModuleInfo.case_sensitive = FALSE;       /* -Cu */

	mov	eax, DWORD PTR ModuleInfo+408
	and	eax, -2					; fffffffeH

; 68   :             ModuleInfo.convert_uppercase = TRUE;

	or	eax, 2
$LN11@SetCaseMap:
	mov	DWORD PTR ModuleInfo+408, eax

; 69   :         } else {
; 70   :             return( EmitErr( SYNTAX_ERROR_EX, tokenarray[i].tokpos ) );
; 71   :         }
; 72   :         DebugMsg1(("SetCaseMap(%s) ok\n", tokenarray[i].string_ptr ));
; 73   :         i++;
; 74   :         SymSetCmpFunc();

	call	SymSetCmpFunc
	lea	eax, DWORD PTR [rsi+1]

; 77   :     }
; 78   :     *pi = i;

	mov	DWORD PTR [rdi], eax

; 79   :     return( NOT_ERROR );

	xor	eax, eax

; 80   : }

	mov	rbx, QWORD PTR [rsp+48]
	mov	rsi, QWORD PTR [rsp+56]
	add	rsp, 32					; 00000020H
	pop	rdi
	ret	0
$LN2@SetCaseMap:

; 75   :     } else {
; 76   :         return( EmitErr( SYNTAX_ERROR_EX, tokenarray[i].tokpos ) );

	mov	rdx, QWORD PTR [rbx+24]
	mov	ecx, 209				; 000000d1H

; 80   : }

	mov	rbx, QWORD PTR [rsp+48]
	mov	rsi, QWORD PTR [rsp+56]
	add	rsp, 32					; 00000020H
	pop	rdi

; 75   :     } else {
; 76   :         return( EmitErr( SYNTAX_ERROR_EX, tokenarray[i].tokpos ) );

	jmp	EmitErr
SetCaseMap ENDP
_TEXT	ENDS
; Function compile flags: /Ogtpy
; File d:\hjwasm\hjwasm2.13.1s\hjwasm2.13.1s\option.c
_TEXT	SEGMENT
pi$ = 8
tokenarray$ = 16
SetNoDotName PROC

; 49   :     ModuleInfo.dotname = FALSE;

	and	DWORD PTR ModuleInfo+408, -17		; ffffffefH

; 50   :     return( NOT_ERROR );

	xor	eax, eax

; 51   : }

	ret	0
SetNoDotName ENDP
_TEXT	ENDS
; Function compile flags: /Ogtpy
; File d:\hjwasm\hjwasm2.13.1s\hjwasm2.13.1s\option.c
_TEXT	SEGMENT
pi$ = 8
tokenarray$ = 16
SetDotName PROC

; 40   :     ModuleInfo.dotname = TRUE;

	or	DWORD PTR ModuleInfo+408, 16

; 41   :     return( NOT_ERROR );

	xor	eax, eax

; 42   : }

	ret	0
SetDotName ENDP
_TEXT	ENDS
END
