; Listing generated by Microsoft (R) Optimizing Compiler Version 19.00.23026.0 

include listing.inc

INCLUDELIB LIBCMT
INCLUDELIB OLDNAMES

_DATA	SEGMENT
COMM	decoflags:BYTE
COMM	broadflags:BYTE
COMM	evex:BYTE
_DATA	ENDS
CONST	SEGMENT
optiontab DQ	FLAT:$SG11198
	DQ	FLAT:SetDotName
	DQ	FLAT:$SG11199
	DQ	FLAT:SetNoDotName
	DQ	FLAT:$SG11200
	DQ	FLAT:SetM510
	DQ	FLAT:$SG11201
	DQ	FLAT:SetNoM510
	DQ	FLAT:$SG11202
	DQ	FLAT:SetScoped
	DQ	FLAT:$SG11203
	DQ	FLAT:SetNoScoped
	DQ	FLAT:$SG11204
	DQ	FLAT:SetOldStructs
	DQ	FLAT:$SG11205
	DQ	FLAT:SetNoOldStructs
	DQ	FLAT:$SG11206
	DQ	FLAT:SetEmulator
	DQ	FLAT:$SG11207
	DQ	FLAT:SetNoEmulator
	DQ	FLAT:$SG11208
	DQ	FLAT:SetLJmp
	DQ	FLAT:$SG11209
	DQ	FLAT:SetNoLJmp
	DQ	FLAT:$SG11210
	DQ	FLAT:Unsupported
	DQ	FLAT:$SG11211
	DQ	FLAT:SetNoReadonly
	DQ	FLAT:$SG11212
	DQ	FLAT:Unsupported
	DQ	FLAT:$SG11213
	DQ	FLAT:SetNoOldmacros
	DQ	FLAT:$SG11214
	DQ	FLAT:Unsupported
	DQ	FLAT:$SG11215
	DQ	FLAT:SetExpr32
	DQ	FLAT:$SG11216
	DQ	FLAT:SetNoSignExt
	DQ	FLAT:$SG11217
	DQ	FLAT:SetCaseMap
	DQ	FLAT:$SG11218
	DQ	FLAT:SetProc
	DQ	FLAT:$SG11219
	DQ	FLAT:SetPrologue
	DQ	FLAT:$SG11220
	DQ	FLAT:SetEpilogue
	DQ	FLAT:$SG11221
	DQ	FLAT:SetLanguage
	DQ	FLAT:$SG11222
	DQ	FLAT:SetNoKeyword
	DQ	FLAT:$SG11223
	DQ	FLAT:SetSetIF2
	DQ	FLAT:$SG11224
	DQ	FLAT:SetOffset
	DQ	FLAT:$SG11225
	DQ	FLAT:SetSegment
	DQ	FLAT:$SG11226
	DQ	FLAT:SetFieldAlign
	DQ	FLAT:$SG11227
	DQ	FLAT:SetProcAlign
	DQ	FLAT:$SG11228
	DQ	FLAT:SetMZ
	DQ	FLAT:$SG11229
	DQ	FLAT:SetFrame
	DQ	FLAT:$SG11230
	DQ	FLAT:SetElf
	DQ	FLAT:$SG11231
	DQ	FLAT:SetRenameKey
	DQ	FLAT:$SG11232
	DQ	FLAT:SetWin64
	DQ	FLAT:$SG11233
	DQ	FLAT:SetDllImport
	DQ	FLAT:$SG11234
	DQ	FLAT:SetCodeView
	DQ	FLAT:$SG11235
	DQ	FLAT:SetStackBase
	DQ	FLAT:$SG11236
	DQ	FLAT:SetEvex
CONST	ENDS
_DATA	SEGMENT
$SG10767 DB	'NONE', 00H
	ORG $+3
$SG10770 DB	'NOTPUBLIC', 00H
	ORG $+2
$SG10773 DB	'ALL', 00H
$SG10916 DB	'TRUE', 00H
	ORG $+3
$SG10918 DB	'FALSE', 00H
	ORG $+2
$SG10931 DB	'NONE', 00H
	ORG $+3
$SG10934 DB	'PROLOGUEDEF', 00H
$SG10947 DB	'NONE', 00H
	ORG $+3
$SG10960 DB	'GROUP', 00H
	ORG $+2
$SG10981 DB	'EXPORT', 00H
	ORG $+1
$SG11228 DB	'MZ', 00H
	ORG $+1
$SG10950 DB	'EPILOGUEDEF', 00H
$SG10963 DB	'FLAT', 00H
	ORG $+3
$SG10997 DB	'USE16', 00H
	ORG $+2
$SG11086 DB	'NOAUTO', 00H
	ORG $+1
$SG11230 DB	'ELF', 00H
$SG10966 DB	'SEGMENT', 00H
$SG10979 DB	'PRIVATE', 00H
$SG11000 DB	'USE32', 00H
	ORG $+2
$SG11003 DB	'USE64', 00H
	ORG $+2
$SG11084 DB	'AUTO', 00H
	ORG $+3
$SG11142 DB	'__imp_', 00H
	ORG $+1
$SG11143 DB	'_imp_', 00H
	ORG $+2
$SG11154 DB	'NONE', 00H
	ORG $+3
$SG11184 DB	'@StackBase', 00H
	ORG $+5
$SG11185 DB	'@ProcStatus', 00H
	ORG $+4
$SG11198 DB	'DOTNAME', 00H
$SG11199 DB	'NODOTNAME', 00H
	ORG $+2
$SG11200 DB	'M510', 00H
	ORG $+3
$SG11201 DB	'NOM510', 00H
	ORG $+1
$SG11202 DB	'SCOPED', 00H
	ORG $+5
$SG11203 DB	'NOSCOPED', 00H
	ORG $+7
$SG11204 DB	'OLDSTRUCTS', 00H
	ORG $+5
$SG11205 DB	'NOOLDSTRUCTS', 00H
	ORG $+3
$SG11206 DB	'EMULATOR', 00H
	ORG $+7
$SG11207 DB	'NOEMULATOR', 00H
	ORG $+1
$SG11208 DB	'LJMP', 00H
	ORG $+3
$SG11209 DB	'NOLJMP', 00H
	ORG $+5
$SG11210 DB	'READONLY', 00H
	ORG $+7
$SG11211 DB	'NOREADONLY', 00H
	ORG $+5
$SG11212 DB	'OLDMACROS', 00H
	ORG $+6
$SG11213 DB	'NOOLDMACROS', 00H
$SG11214 DB	'EXPR16', 00H
	ORG $+1
$SG11215 DB	'EXPR32', 00H
	ORG $+5
$SG11216 DB	'NOSIGNEXTEND', 00H
	ORG $+3
$SG11217 DB	'CASEMAP', 00H
$SG11218 DB	'PROC', 00H
	ORG $+3
$SG11219 DB	'PROLOGUE', 00H
	ORG $+7
$SG11220 DB	'EPILOGUE', 00H
	ORG $+7
$SG11221 DB	'LANGUAGE', 00H
	ORG $+7
$SG11222 DB	'NOKEYWORD', 00H
	ORG $+2
$SG11223 DB	'SETIF2', 00H
	ORG $+1
$SG11224 DB	'OFFSET', 00H
	ORG $+5
$SG11225 DB	'SEGMENT', 00H
$SG11226 DB	'FIELDALIGN', 00H
	ORG $+5
$SG11227 DB	'PROCALIGN', 00H
	ORG $+2
$SG11229 DB	'FRAME', 00H
	ORG $+6
$SG11231 DB	'RENAMEKEYWORD', 00H
	ORG $+2
$SG11232 DB	'WIN64', 00H
	ORG $+2
$SG11233 DB	'DLLIMPORT', 00H
	ORG $+6
$SG11234 DB	'CODEVIEW', 00H
	ORG $+7
$SG11235 DB	'STACKBASE', 00H
	ORG $+2
$SG11236 DB	'EVEX', 00H
_DATA	ENDS
PUBLIC	OptionDirective
EXTRN	isspace:PROC
EXTRN	_stricmp:PROC
EXTRN	_strupr:PROC
EXTRN	EmitError:PROC
EXTRN	EmitErr:PROC
EXTRN	SetMasm510:PROC
EXTRN	LclAlloc:PROC
EXTRN	SymSetCmpFunc:PROC
EXTRN	GetLangType:PROC
EXTRN	FindResWord:PROC
EXTRN	IsKeywordDisabled:PROC
EXTRN	DisableKeyword:PROC
EXTRN	RenameKeyword:PROC
EXTRN	EvalOperand:PROC
EXTRN	EmitConstError:PROC
EXTRN	CreateVariable:PROC
EXTRN	UpdateStackBase:PROC
EXTRN	UpdateProcStatus:PROC
EXTRN	Options:BYTE
EXTRN	ModuleInfo:BYTE
EXTRN	Parse_Pass:DWORD
EXTRN	SpecialTable:BYTE
EXTRN	sym_Interface:QWORD
EXTRN	__ImageBase:BYTE
pdata	SEGMENT
$pdata$SetEvex DD imagerel SetEvex
	DD	imagerel SetEvex+143
	DD	imagerel $unwind$SetEvex
$pdata$SetCaseMap DD imagerel SetCaseMap
	DD	imagerel SetCaseMap+224
	DD	imagerel $unwind$SetCaseMap
$pdata$SetM510 DD imagerel SetM510
	DD	imagerel SetM510+18
	DD	imagerel $unwind$SetM510
$pdata$SetNoM510 DD imagerel SetNoM510
	DD	imagerel SetNoM510+18
	DD	imagerel $unwind$SetNoM510
$pdata$SetNoKeyword DD imagerel SetNoKeyword
	DD	imagerel SetNoKeyword+121
	DD	imagerel $unwind$SetNoKeyword
$pdata$2$SetNoKeyword DD imagerel SetNoKeyword+121
	DD	imagerel SetNoKeyword+358
	DD	imagerel $chain$2$SetNoKeyword
$pdata$4$SetNoKeyword DD imagerel SetNoKeyword+358
	DD	imagerel SetNoKeyword+370
	DD	imagerel $chain$4$SetNoKeyword
$pdata$5$SetNoKeyword DD imagerel SetNoKeyword+370
	DD	imagerel SetNoKeyword+395
	DD	imagerel $chain$5$SetNoKeyword
$pdata$SetLanguage DD imagerel SetLanguage
	DD	imagerel SetLanguage+144
	DD	imagerel $unwind$SetLanguage
$pdata$SetSetIF2 DD imagerel SetSetIF2
	DD	imagerel SetSetIF2+115
	DD	imagerel $unwind$SetSetIF2
$pdata$SetPrologue DD imagerel SetPrologue
	DD	imagerel SetPrologue+216
	DD	imagerel $unwind$SetPrologue
$pdata$SetEpilogue DD imagerel SetEpilogue
	DD	imagerel SetEpilogue+216
	DD	imagerel $unwind$SetEpilogue
$pdata$SetOffset DD imagerel SetOffset
	DD	imagerel SetOffset+215
	DD	imagerel $unwind$SetOffset
$pdata$SetProc DD imagerel SetProc
	DD	imagerel SetProc+162
	DD	imagerel $unwind$SetProc
$pdata$SetSegment DD imagerel SetSegment
	DD	imagerel SetSegment+289
	DD	imagerel $unwind$SetSegment
$pdata$SetFieldAlign DD imagerel SetFieldAlign
	DD	imagerel SetFieldAlign+183
	DD	imagerel $unwind$SetFieldAlign
$pdata$SetProcAlign DD imagerel SetProcAlign
	DD	imagerel SetProcAlign+183
	DD	imagerel $unwind$SetProcAlign
$pdata$SetMZ DD	imagerel SetMZ
	DD	imagerel SetMZ+431
	DD	imagerel $unwind$SetMZ
$pdata$SetFrame DD imagerel SetFrame
	DD	imagerel SetFrame+115
	DD	imagerel $unwind$SetFrame
$pdata$SetElf DD imagerel SetElf
	DD	imagerel SetElf+165
	DD	imagerel $unwind$SetElf
$pdata$SetRenameKey DD imagerel SetRenameKey
	DD	imagerel SetRenameKey+85
	DD	imagerel $unwind$SetRenameKey
$pdata$0$SetRenameKey DD imagerel SetRenameKey+85
	DD	imagerel SetRenameKey+137
	DD	imagerel $chain$0$SetRenameKey
$pdata$3$SetRenameKey DD imagerel SetRenameKey+137
	DD	imagerel SetRenameKey+199
	DD	imagerel $chain$3$SetRenameKey
$pdata$5$SetRenameKey DD imagerel SetRenameKey+199
	DD	imagerel SetRenameKey+237
	DD	imagerel $chain$5$SetRenameKey
$pdata$6$SetRenameKey DD imagerel SetRenameKey+237
	DD	imagerel SetRenameKey+288
	DD	imagerel $chain$6$SetRenameKey
$pdata$SetWin64 DD imagerel SetWin64
	DD	imagerel SetWin64+225
	DD	imagerel $unwind$SetWin64
pdata	ENDS
;	COMDAT pdata
pdata	SEGMENT
$pdata$IncludeDll DD imagerel IncludeDll
	DD	imagerel IncludeDll+30
	DD	imagerel $unwind$IncludeDll
pdata	ENDS
;	COMDAT pdata
pdata	SEGMENT
$pdata$0$IncludeDll DD imagerel IncludeDll+30
	DD	imagerel IncludeDll+192
	DD	imagerel $chain$0$IncludeDll
pdata	ENDS
;	COMDAT pdata
pdata	SEGMENT
$pdata$2$IncludeDll DD imagerel IncludeDll+192
	DD	imagerel IncludeDll+206
	DD	imagerel $chain$2$IncludeDll
pdata	ENDS
pdata	SEGMENT
$pdata$SetDllImport DD imagerel SetDllImport
	DD	imagerel SetDllImport+127
	DD	imagerel $unwind$SetDllImport
$pdata$SetCodeView DD imagerel SetCodeView
	DD	imagerel SetCodeView+118
	DD	imagerel $unwind$SetCodeView
$pdata$SetStackBase DD imagerel SetStackBase
	DD	imagerel SetStackBase+229
	DD	imagerel $unwind$SetStackBase
$pdata$OptionDirective DD imagerel $LN37
	DD	imagerel $LN37+394
	DD	imagerel $unwind$OptionDirective
pdata	ENDS
;	COMDAT xdata
xdata	SEGMENT
$chain$2$IncludeDll DD 020021H
	DD	067400H
	DD	imagerel IncludeDll
	DD	imagerel IncludeDll+30
	DD	imagerel $unwind$IncludeDll
xdata	ENDS
;	COMDAT xdata
xdata	SEGMENT
$chain$0$IncludeDll DD 020521H
	DD	067405H
	DD	imagerel IncludeDll
	DD	imagerel IncludeDll+30
	DD	imagerel $unwind$IncludeDll
xdata	ENDS
;	COMDAT xdata
xdata	SEGMENT
$unwind$IncludeDll DD 020601H
	DD	030023206H
xdata	ENDS
xdata	SEGMENT
$unwind$SetEvex DD 030b01H
	DD	014010bH
	DD	03004H
$unwind$SetCaseMap DD 060f01H
	DD	07640fH
	DD	06340fH
	DD	0700b320fH
$unwind$SetM510 DD 010401H
	DD	04204H
$unwind$SetNoM510 DD 010401H
	DD	04204H
$unwind$SetNoKeyword DD 040b01H
	DD	09540bH
	DD	0e007320bH
$chain$2$SetNoKeyword DD 061321H
	DD	087413H
	DD	07640eH
	DD	063405H
	DD	imagerel SetNoKeyword
	DD	imagerel SetNoKeyword+121
	DD	imagerel $unwind$SetNoKeyword
$chain$4$SetNoKeyword DD 060021H
	DD	087400H
	DD	076400H
	DD	063400H
	DD	imagerel SetNoKeyword
	DD	imagerel SetNoKeyword+121
	DD	imagerel $unwind$SetNoKeyword
$chain$5$SetNoKeyword DD 021H
	DD	imagerel SetNoKeyword
	DD	imagerel SetNoKeyword+121
	DD	imagerel $unwind$SetNoKeyword
$unwind$SetLanguage DD 040a01H
	DD	07340aH
	DD	07006320aH
$unwind$SetSetIF2 DD 060f01H
	DD	07640fH
	DD	06340fH
	DD	0700b320fH
$unwind$SetPrologue DD 060f01H
	DD	07640fH
	DD	06340fH
	DD	0700b320fH
$unwind$SetEpilogue DD 060f01H
	DD	07640fH
	DD	06340fH
	DD	0700b320fH
$unwind$SetOffset DD 060f01H
	DD	07640fH
	DD	06340fH
	DD	0700b320fH
$unwind$SetProc DD 060f01H
	DD	07640fH
	DD	06340fH
	DD	0700b320fH
$unwind$SetSegment DD 060f01H
	DD	07640fH
	DD	06340fH
	DD	0700b320fH
$unwind$SetFieldAlign DD 030b01H
	DD	014010bH
	DD	03004H
$unwind$SetProcAlign DD 030b01H
	DD	014010bH
	DD	03004H
$unwind$SetMZ DD 091501H
	DD	01a5415H
	DD	0193415H
	DD	0140115H
	DD	0700ce00eH
	DD	0600bH
$unwind$SetFrame DD 060f01H
	DD	07640fH
	DD	06340fH
	DD	0700b320fH
$unwind$SetElf DD 030b01H
	DD	014010bH
	DD	03004H
$unwind$SetRenameKey DD 040b01H
	DD	08740bH
	DD	0e007320bH
$chain$0$SetRenameKey DD 020521H
	DD	076405H
	DD	imagerel SetRenameKey
	DD	imagerel SetRenameKey+85
	DD	imagerel $unwind$SetRenameKey
$chain$3$SetRenameKey DD 040521H
	DD	063405H
	DD	076400H
	DD	imagerel SetRenameKey
	DD	imagerel SetRenameKey+85
	DD	imagerel $unwind$SetRenameKey
$chain$5$SetRenameKey DD 040021H
	DD	076400H
	DD	063400H
	DD	imagerel SetRenameKey
	DD	imagerel SetRenameKey+85
	DD	imagerel $unwind$SetRenameKey
$chain$6$SetRenameKey DD 021H
	DD	imagerel SetRenameKey
	DD	imagerel SetRenameKey+85
	DD	imagerel $unwind$SetRenameKey
$unwind$SetWin64 DD 030901H
	DD	0140109H
	DD	03002H
$unwind$SetDllImport DD 060f01H
	DD	07640fH
	DD	06340fH
	DD	0700b320fH
$unwind$SetCodeView DD 030b01H
	DD	014010bH
	DD	03004H
$unwind$SetStackBase DD 040a01H
	DD	06340aH
	DD	07006320aH
$unwind$OptionDirective DD 081401H
	DD	096414H
	DD	085414H
	DD	073414H
	DD	070103214H
xdata	ENDS
; Function compile flags: /Ogtpy
; File d:\hjwasm\hjwasm2.13.1s\hjwasm2.13.1s\option.c
_TEXT	SEGMENT
i$ = 48
tokenarray$ = 56
OptionDirective PROC

; 914  : {

$LN37:
	mov	QWORD PTR [rsp+16], rbx
	mov	QWORD PTR [rsp+24], rbp
	mov	QWORD PTR [rsp+32], rsi
	push	rdi
	sub	rsp, 32					; 00000020H

; 915  :     int idx = -1;
; 916  : 
; 917  :     DebugMsg1(( "OPTION directive enter, option=%s\n", tokenarray[i+1].string_ptr ));
; 918  : 
; 919  :     i++; /* skip OPTION directive */

	lea	r8d, DWORD PTR [rcx+1]
	or	ebx, -1

; 920  :     while ( tokenarray[i].token != T_FINAL ) {

	movsxd	rcx, r8d
	mov	rdi, rdx
	shl	rcx, 5
	add	rcx, rdx
	mov	DWORD PTR i$[rsp], r8d
	cmp	BYTE PTR [rcx], 0
	je	$LN26@OptionDire
	lea	rbp, OFFSET FLAT:optiontab
	npad	3
$LL2@OptionDire:

; 921  :         _strupr( tokenarray[i].string_ptr );

	mov	rcx, QWORD PTR [rcx+8]
	call	_strupr

; 923  :             if ( 0 == strcmp( tokenarray[i].string_ptr, optiontab[idx].name ) )

	movsxd	r8, DWORD PTR i$[rsp]
	xor	ebx, ebx
	mov	rax, r8
	xor	r11d, r11d
	shl	rax, 5
	mov	r10, rbp
	mov	rsi, QWORD PTR [rax+rdi+8]
$LL6@OptionDire:
	mov	r9, QWORD PTR [r10]
	mov	rax, rsi
	sub	r9, rsi
	npad	5
$LL34@OptionDire:
	movzx	edx, BYTE PTR [rax]
	movzx	ecx, BYTE PTR [rax+r9]
	sub	edx, ecx
	jne	SHORT $LN35@OptionDire
	inc	rax
	test	ecx, ecx
	jne	SHORT $LL34@OptionDire
$LN35@OptionDire:
	test	edx, edx
	je	SHORT $LN20@OptionDire

; 922  :         for ( idx = 0; idx < TABITEMS; idx++ ) {

	inc	ebx
	inc	r11
	movsxd	rax, ebx
	add	r10, 16
	cmp	rax, 39					; 00000027H
	jb	SHORT $LL6@OptionDire
$LN20@OptionDire:

; 924  :                 break;
; 925  :         }
; 926  :         if ( idx >= TABITEMS )

	movsxd	rax, ebx
	cmp	rax, 39					; 00000027H
	jae	$LN26@OptionDire

; 927  :             break;
; 928  :         i++;

	inc	r8d
	mov	DWORD PTR i$[rsp], r8d

; 929  :         /* v2.06: check for colon separator here */
; 930  :         if ( idx >= NOARGOPTS ) {

	cmp	ebx, 19
	jl	SHORT $LN12@OptionDire

; 931  :             if ( tokenarray[i].token != T_COLON ) {

	movsxd	rax, r8d
	shl	rax, 5
	cmp	BYTE PTR [rax+rdi], 58			; 0000003aH
	jne	$LN22@OptionDire

; 933  :             }
; 934  :             i++;

	inc	r8d

; 935  :             /* there must be something after the colon */
; 936  :             if ( tokenarray[i].token == T_FINAL ) {

	movsxd	rax, r8d
	shl	rax, 5
	mov	DWORD PTR i$[rsp], r8d
	cmp	BYTE PTR [rax+rdi], 0
	je	SHORT $LN23@OptionDire

; 939  :             }
; 940  :             /* reject option if -Zne is set */
; 941  :             if ( idx >= MASMOPTS && Options.strict_masm_compat ) {

	cmp	ebx, 28
	jl	SHORT $LN12@OptionDire
	cmp	BYTE PTR Options+127, 0
	jne	SHORT $LN23@OptionDire
$LN12@OptionDire:

; 942  :                 i -= 2;
; 943  :                 break;
; 944  :             }
; 945  :         }
; 946  :         if ( optiontab[idx].func( &i, tokenarray ) == ERROR )

	add	r11, r11
	lea	rcx, QWORD PTR i$[rsp]
	mov	rdx, rdi
	call	QWORD PTR [rbp+r11*8+8]
	cmp	eax, -1
	je	SHORT $LN25@OptionDire

; 948  :         if ( tokenarray[i].token != T_COMMA )

	movsxd	r8, DWORD PTR i$[rsp]
	mov	rax, r8
	shl	rax, 5
	cmp	BYTE PTR [rax+rdi], 44			; 0000002cH
	jne	SHORT $LN26@OptionDire

; 949  :             break;
; 950  :         i++;

	inc	r8d
	movsxd	rcx, r8d
	shl	rcx, 5
	add	rcx, rdi
	mov	DWORD PTR i$[rsp], r8d
	cmp	BYTE PTR [rcx], 0
	jne	$LL2@OptionDire
$LN26@OptionDire:

; 951  :     }
; 952  :     if ( idx >= TABITEMS  || tokenarray[i].token != T_FINAL ) {

	movsxd	rax, ebx
	cmp	rax, 39					; 00000027H
	jae	SHORT $LN16@OptionDire
	movsxd	rax, r8d
	shl	rax, 5
	cmp	BYTE PTR [rax+rdi], 0
	jne	SHORT $LN16@OptionDire

; 955  :     }
; 956  :     return( NOT_ERROR );

	xor	eax, eax
	jmp	SHORT $LN1@OptionDire
$LN23@OptionDire:

; 937  :                 i -= 2; /* position back to option identifier */

	sub	r8d, 2
	mov	DWORD PTR i$[rsp], r8d

; 938  :                 break;

	jmp	SHORT $LN26@OptionDire
$LN22@OptionDire:

; 932  :                 return( EmitError( COLON_EXPECTED ) );

	mov	ecx, 85					; 00000055H
	call	EmitError
	jmp	SHORT $LN1@OptionDire
$LN25@OptionDire:

; 947  :             return( ERROR );

	or	eax, -1
	jmp	SHORT $LN1@OptionDire
$LN16@OptionDire:

; 953  :         DebugMsg(( "option syntax error: >%s<\n", tokenarray[i].tokpos ));
; 954  :         return( EmitErr( SYNTAX_ERROR_EX, tokenarray[i].tokpos ) );

	movsxd	rdx, r8d
	mov	ecx, 210				; 000000d2H
	shl	rdx, 5
	mov	rdx, QWORD PTR [rdx+rdi+24]
	call	EmitErr
$LN1@OptionDire:

; 957  : }

	mov	rbx, QWORD PTR [rsp+56]
	mov	rbp, QWORD PTR [rsp+64]
	mov	rsi, QWORD PTR [rsp+72]
	add	rsp, 32					; 00000020H
	pop	rdi
	ret	0
OptionDirective ENDP
_TEXT	ENDS
; Function compile flags: /Ogtpy
; File d:\hjwasm\hjwasm2.13.1s\hjwasm2.13.1s\option.c
_TEXT	SEGMENT
pi$ = 8
tokenarray$ = 16
Unsupported PROC

; 827  : {

	mov	rax, rdx

; 828  :     return( EmitErr( NOT_SUPPORTED, tokenarray[(*pi)-2].tokpos ) );

	movsxd	rdx, DWORD PTR [rcx]
	shl	rdx, 5
	mov	ecx, 73					; 00000049H
	mov	rdx, QWORD PTR [rdx+rax-40]
	jmp	EmitErr
Unsupported ENDP
_TEXT	ENDS
; Function compile flags: /Ogtpy
; File d:\hjwasm\hjwasm2.13.1s\hjwasm2.13.1s\option.c
_TEXT	SEGMENT
pi$ = 48
tokenarray$ = 56
SetStackBase PROC

; 801  : {

	mov	QWORD PTR [rsp+8], rbx
	push	rdi
	sub	rsp, 32					; 00000020H

; 802  :     int i = *pi;

	movsxd	rdi, DWORD PTR [rcx]
	mov	rbx, rcx

; 803  : 
; 804  :     if ( tokenarray[i].token != T_REG ) {

	mov	r8, rdi
	shl	r8, 5
	cmp	BYTE PTR [r8+rdx], 2
	je	SHORT $LN2@SetStackBa

; 805  :         return( EmitErr( SYNTAX_ERROR_EX, tokenarray[i].string_ptr ) );

	mov	rdx, QWORD PTR [r8+rdx+8]
	mov	ecx, 210				; 000000d2H

; 822  : }

	mov	rbx, QWORD PTR [rsp+48]
	add	rsp, 32					; 00000020H
	pop	rdi

; 805  :         return( EmitErr( SYNTAX_ERROR_EX, tokenarray[i].string_ptr ) );

	jmp	EmitErr
$LN2@SetStackBa:

; 806  :     }
; 807  :     if ( !( GetSflagsSp( tokenarray[i].tokval ) & SFR_IREG ) ) {

	mov	ecx, DWORD PTR [r8+rdx+16]
	lea	rdx, OFFSET FLAT:__ImageBase
	lea	rax, QWORD PTR [rcx+rcx*2]
	test	BYTE PTR SpecialTable[rdx+rax*4+4], 32	; 00000020H
	jne	SHORT $LN3@SetStackBa

; 808  :         return( EmitError( MUST_BE_INDEX_OR_BASE_REGISTER ) );

	mov	ecx, 34					; 00000022H

; 822  : }

	mov	rbx, QWORD PTR [rsp+48]
	add	rsp, 32					; 00000020H
	pop	rdi

; 808  :         return( EmitError( MUST_BE_INDEX_OR_BASE_REGISTER ) );

	jmp	EmitError
$LN3@SetStackBa:

; 809  :     }
; 810  :     ModuleInfo.basereg[ModuleInfo.Ofssize] = tokenarray[i].tokval;

	movzx	eax, BYTE PTR ModuleInfo+404
	mov	DWORD PTR ModuleInfo[rdx+rax*4+500], ecx

; 811  :     if ( !ModuleInfo.g.StackBase ) {

	cmp	QWORD PTR ModuleInfo+272, 0
	jne	SHORT $LN4@SetStackBa

; 812  :         ModuleInfo.g.StackBase = CreateVariable( "@StackBase", 0 );

	xor	edx, edx
	lea	rcx, OFFSET FLAT:$SG11184
	call	CreateVariable
	mov	QWORD PTR ModuleInfo+272, rax

; 813  :         ModuleInfo.g.StackBase->predefined = TRUE;
; 814  :         ModuleInfo.g.StackBase->sfunc_ptr = UpdateStackBase;

	lea	rcx, OFFSET FLAT:UpdateStackBase

; 815  :         ModuleInfo.g.ProcStatus = CreateVariable( "@ProcStatus", 0 );

	xor	edx, edx
	or	BYTE PTR [rax+40], 32			; 00000020H
	mov	rax, QWORD PTR ModuleInfo+272
	mov	QWORD PTR [rax+64], rcx
	lea	rcx, OFFSET FLAT:$SG11185
	call	CreateVariable
	mov	QWORD PTR ModuleInfo+280, rax

; 816  :         ModuleInfo.g.ProcStatus->predefined = TRUE;
; 817  :         ModuleInfo.g.ProcStatus->sfunc_ptr = UpdateProcStatus;

	lea	rcx, OFFSET FLAT:UpdateProcStatus
	or	BYTE PTR [rax+40], 32			; 00000020H
	mov	rax, QWORD PTR ModuleInfo+280
	mov	QWORD PTR [rax+64], rcx
$LN4@SetStackBa:

; 818  :     }
; 819  :     i++;

	lea	eax, DWORD PTR [rdi+1]

; 820  :     *pi = i;

	mov	DWORD PTR [rbx], eax

; 821  :     return( NOT_ERROR );

	xor	eax, eax

; 822  : }

	mov	rbx, QWORD PTR [rsp+48]
	add	rsp, 32					; 00000020H
	pop	rdi
	ret	0
SetStackBase ENDP
_TEXT	ENDS
; Function compile flags: /Ogtpy
; File d:\hjwasm\hjwasm2.13.1s\hjwasm2.13.1s\option.c
_TEXT	SEGMENT
opnd$ = 48
i$ = 176
pi$ = 176
tokenarray$ = 184
SetCodeView PROC

; 778  : {

	mov	r11, rsp
	push	rbx
	sub	rsp, 160				; 000000a0H

; 779  :     int i = *pi;

	mov	eax, DWORD PTR [rcx]

; 780  :     struct expr opnd;
; 781  : 
; 782  :     if ( EvalOperand( &i, tokenarray, Token_Count, &opnd, 0 ) == ERROR )

	lea	r9, QWORD PTR [r11-120]
	mov	r8d, DWORD PTR ModuleInfo+496
	mov	rbx, rcx
	lea	rcx, QWORD PTR [r11+8]
	mov	DWORD PTR [r11+8], eax
	mov	BYTE PTR [rsp+32], 0
	call	EvalOperand
	cmp	eax, -1
	jne	SHORT $LN2@SetCodeVie

; 783  :         return( ERROR );

	or	eax, eax

; 791  : }

	add	rsp, 160				; 000000a0H
	pop	rbx
	ret	0
$LN2@SetCodeVie:

; 784  :     if ( opnd.kind == EXPR_CONST ) {

	cmp	DWORD PTR opnd$[rsp+60], 0
	jne	SHORT $LN3@SetCodeVie

; 785  :         ModuleInfo.cv_opt = opnd.value;

	movzx	eax, BYTE PTR opnd$[rsp]
	mov	BYTE PTR ModuleInfo+427, al

; 788  :     }
; 789  :     *pi = i;

	mov	eax, DWORD PTR i$[rsp]
	mov	DWORD PTR [rbx], eax

; 790  :     return( NOT_ERROR );

	xor	eax, eax

; 791  : }

	add	rsp, 160				; 000000a0H
	pop	rbx
	ret	0
$LN3@SetCodeVie:

; 786  :     } else {
; 787  :         return( EmitError( CONSTANT_EXPECTED ) );

	mov	ecx, 66					; 00000042H
	call	EmitError

; 791  : }

	add	rsp, 160				; 000000a0H
	pop	rbx
	ret	0
SetCodeView ENDP
_TEXT	ENDS
; Function compile flags: /Ogtpy
; File d:\hjwasm\hjwasm2.13.1s\hjwasm2.13.1s\option.c
_TEXT	SEGMENT
pi$ = 48
tokenarray$ = 56
SetDllImport PROC

; 752  : {

	mov	QWORD PTR [rsp+8], rbx
	mov	QWORD PTR [rsp+16], rsi
	push	rdi
	sub	rsp, 32					; 00000020H

; 753  :     int i = *pi;

	movsxd	rbx, DWORD PTR [rcx]
	mov	rdi, rcx

; 754  : 
; 755  :     /* used for COFF only */
; 756  :     //if ( Options.output_format != OFORMAT_COFF ) {
; 757  :     //    SkipOption( pi, tokenarray );
; 758  :     //    return( NOT_ERROR);
; 759  :     //}
; 760  : 
; 761  :     if ( tokenarray[i].token == T_ID &&

	mov	rsi, rbx
	shl	rsi, 5
	add	rsi, rdx
	cmp	BYTE PTR [rsi], 8
	jne	SHORT $LN2@SetDllImpo
	mov	rcx, QWORD PTR [rsi+8]
	lea	rdx, OFFSET FLAT:$SG11154
	call	_stricmp
	test	eax, eax
	jne	SHORT $LN2@SetDllImpo

; 762  :         ( _stricmp( tokenarray[i].string_ptr, "NONE" ) == 0 ) ) {
; 763  :         ModuleInfo.CurrDll = NULL;

	mov	QWORD PTR ModuleInfo+336, 0

; 764  :         i++;

	jmp	SHORT $LN5@SetDllImpo
$LN2@SetDllImpo:

; 765  :     } else if ( tokenarray[i].token == T_STRING && tokenarray[i].string_delim == '<' ) {

	cmp	BYTE PTR [rsi], 9
	jne	SHORT $LN7@SetDllImpo
	cmp	BYTE PTR [rsi+1], 60			; 0000003cH
	jne	SHORT $LN7@SetDllImpo

; 766  :         if ( Parse_Pass == PASS_1 )

	cmp	DWORD PTR Parse_Pass, 0
	jne	SHORT $LN5@SetDllImpo

; 767  :             ModuleInfo.CurrDll = IncludeDll( tokenarray[i].string_ptr );

	mov	rcx, QWORD PTR [rsi+8]
	call	IncludeDll
	mov	QWORD PTR ModuleInfo+336, rax
$LN5@SetDllImpo:

; 768  :         i++;

	inc	ebx
$LN7@SetDllImpo:

; 769  :     }
; 770  :     *pi = i;
; 771  :     return( NOT_ERROR );
; 772  : }

	mov	rsi, QWORD PTR [rsp+56]
	xor	eax, eax
	mov	DWORD PTR [rdi], ebx
	mov	rbx, QWORD PTR [rsp+48]
	add	rsp, 32					; 00000020H
	pop	rdi
	ret	0
SetDllImport ENDP
_TEXT	ENDS
; Function compile flags: /Ogtpy
; File d:\hjwasm\hjwasm2.13.1s\hjwasm2.13.1s\option.c
;	COMDAT IncludeDll
_TEXT	SEGMENT
name$ = 48
IncludeDll PROC						; COMDAT

; 723  : {

	push	rbx
	sub	rsp, 32					; 00000020H

; 724  :     struct dll_desc **q;
; 725  :     struct dll_desc *node;
; 726  : 
; 727  :     /* allow a zero-sized name! */
; 728  :     if ( *name == NULLC )

	cmp	BYTE PTR [rcx], 0
	mov	rbx, rcx
	jne	SHORT $LN5@IncludeDll

; 729  :         return( NULL );

	xor	eax, eax

; 748  : }

	add	rsp, 32					; 00000020H
	pop	rbx
	ret	0
$LN5@IncludeDll:

; 730  : 
; 731  :     for ( q = &ModuleInfo.g.DllQueue; *q ; q = &(*q)->next ) {

	cmp	QWORD PTR ModuleInfo+80, 0
	mov	QWORD PTR [rsp+48], rdi
	lea	rdi, OFFSET FLAT:ModuleInfo+80
	je	SHORT $LN3@IncludeDll
	npad	4
$LL4@IncludeDll:

; 732  :         if ( _stricmp( (*q)->name, name ) == 0 )

	mov	rcx, QWORD PTR [rdi]
	mov	rdx, rbx
	add	rcx, 12
	call	_stricmp
	test	eax, eax
	je	SHORT $LN11@IncludeDll

; 730  : 
; 731  :     for ( q = &ModuleInfo.g.DllQueue; *q ; q = &(*q)->next ) {

	mov	rdi, QWORD PTR [rdi]
	cmp	QWORD PTR [rdi], 0
	jne	SHORT $LL4@IncludeDll
$LN3@IncludeDll:

; 734  :     }
; 735  :     node = LclAlloc( sizeof( struct dll_desc ) + strlen( name ) );

	or	rcx, -1
$LL17@IncludeDll:
	inc	rcx
	cmp	BYTE PTR [rbx+rcx], 0
	jne	SHORT $LL17@IncludeDll
	add	rcx, 16
	call	LclAlloc
	mov	r8, rax

; 736  :     node->next = NULL;

	xor	eax, eax

; 737  :     node->cnt = 0;
; 738  :     strcpy( node->name, name );

	mov	rdx, r8
	sub	rdx, rbx
	mov	QWORD PTR [r8], rax
	mov	DWORD PTR [r8+8], eax
	npad	12
$LL8@IncludeDll:
	movzx	ecx, BYTE PTR [rbx]
	mov	BYTE PTR [rdx+rbx+12], cl
	lea	rbx, QWORD PTR [rbx+1]
	test	cl, cl
	jne	SHORT $LL8@IncludeDll

; 739  :     *q = node;

	mov	QWORD PTR [rdi], r8

; 740  : 
; 741  : #if AMD64_SUPPORT
; 742  :     ModuleInfo.g.imp_prefix = ( ( ModuleInfo.defOfssize == USE64 ) ? "__imp_" : "_imp_" );

	lea	rcx, OFFSET FLAT:$SG11142
	cmp	BYTE PTR ModuleInfo+405, 2
	lea	rax, OFFSET FLAT:$SG11143
	mov	rdi, QWORD PTR [rsp+48]
	cmove	rax, rcx
	mov	QWORD PTR ModuleInfo+88, rax

; 743  : #else
; 744  :     ModuleInfo.g.imp_prefix = "_imp_";
; 745  : #endif
; 746  : 
; 747  :     return( node );

	mov	rax, r8

; 748  : }

	add	rsp, 32					; 00000020H
	pop	rbx
	ret	0
$LN11@IncludeDll:

; 733  :             return( *q );

	mov	rax, QWORD PTR [rdi]
	mov	rdi, QWORD PTR [rsp+48]

; 748  : }

	add	rsp, 32					; 00000020H
	pop	rbx
	ret	0
IncludeDll ENDP
_TEXT	ENDS
; Function compile flags: /Ogtpy
; File d:\hjwasm\hjwasm2.13.1s\hjwasm2.13.1s\option.c
_TEXT	SEGMENT
opndx$ = 48
i$ = 176
pi$ = 176
tokenarray$ = 184
SetWin64 PROC

; 693  : {

	push	rbx
	sub	rsp, 160				; 000000a0H

; 694  :     int i = *pi;
; 695  :     struct expr opndx;
; 696  : 
; 697  :     /* if -win64 isn't set, skip the option */
; 698  :     /* v2.09: skip option if Ofssize != USE64 */
; 699  :     if ( ModuleInfo.defOfssize != USE64 ) {

	cmp	BYTE PTR ModuleInfo+405, 2
	mov	r10, rdx
	movsxd	rax, DWORD PTR [rcx]
	mov	rbx, rcx
	mov	DWORD PTR i$[rsp], eax
	je	SHORT $LN2@SetWin64

; 700  :         SkipOption( pi, tokenarray );

	shl	rax, 5
	cmp	BYTE PTR [rax+rdx], 0
	je	SHORT $LN16@SetWin64
	npad	4
$LL9@SetWin64:
	movsxd	rdx, DWORD PTR [rbx]
	mov	rax, rdx
	shl	rax, 5
	cmp	BYTE PTR [rax+r10], 44			; 0000002cH
	je	SHORT $LN16@SetWin64
	lea	eax, DWORD PTR [rdx+1]
	movsxd	rcx, eax
	shl	rcx, 5
	mov	DWORD PTR [rbx], eax
	cmp	BYTE PTR [rcx+r10], 0
	jne	SHORT $LL9@SetWin64
$LN16@SetWin64:

; 701  :         return( NOT_ERROR);

	xor	eax, eax

; 716  : }

	add	rsp, 160				; 000000a0H
	pop	rbx
	ret	0
$LN2@SetWin64:

; 702  :     }
; 703  : 
; 704  :     if ( EvalOperand( &i, tokenarray, Token_Count, &opndx, 0 ) == ERROR )

	mov	r8d, DWORD PTR ModuleInfo+496
	lea	r9, QWORD PTR opndx$[rsp]
	lea	rcx, QWORD PTR i$[rsp]
	mov	BYTE PTR [rsp+32], 0
	call	EvalOperand
	cmp	eax, -1
	jne	SHORT $LN3@SetWin64

; 705  :         return( ERROR );

	or	eax, eax

; 716  : }

	add	rsp, 160				; 000000a0H
	pop	rbx
	ret	0
$LN3@SetWin64:

; 706  :     if ( opndx.kind == EXPR_CONST ) {

	cmp	DWORD PTR opndx$[rsp+60], 0
	jne	SHORT $LN4@SetWin64

; 707  :         if ( opndx.llvalue & ( ~W64F_ALL ) ) {

	mov	rax, QWORD PTR opndx$[rsp]
	test	rax, -16
	je	SHORT $LN6@SetWin64

; 708  :             return( EmitConstError( &opndx ) );

	lea	rcx, QWORD PTR opndx$[rsp]
	call	EmitConstError

; 716  : }

	add	rsp, 160				; 000000a0H
	pop	rbx
	ret	0
$LN6@SetWin64:

; 709  :         }
; 710  :         ModuleInfo.win64_flags = opndx.value;

	mov	BYTE PTR ModuleInfo+413, al

; 713  :     }
; 714  :     *pi = i;

	mov	eax, DWORD PTR i$[rsp]
	mov	DWORD PTR [rbx], eax

; 715  :     return( NOT_ERROR );

	xor	eax, eax

; 716  : }

	add	rsp, 160				; 000000a0H
	pop	rbx
	ret	0
$LN4@SetWin64:

; 711  :     } else {
; 712  :         return( EmitError( CONSTANT_EXPECTED ) );

	mov	ecx, 66					; 00000042H
	call	EmitError

; 716  : }

	add	rsp, 160				; 000000a0H
	pop	rbx
	ret	0
SetWin64 ENDP
_TEXT	ENDS
; Function compile flags: /Ogtpy
; File d:\hjwasm\hjwasm2.13.1s\hjwasm2.13.1s\option.c
_TEXT	SEGMENT
pi$ = 48
tokenarray$ = 56
SetRenameKey PROC

; 648  : {

	mov	QWORD PTR [rsp+24], rdi
	push	r14
	sub	rsp, 32					; 00000020H

; 649  :     int i = *pi;

	movsxd	rdi, DWORD PTR [rcx]
	mov	r8, rdx

; 650  :     //struct ReservedWord *resw;
; 651  :     unsigned index;
; 652  :     char *oldname;
; 653  : 
; 654  : #if 0 /* v2.11: allow temporary renaming of keywords */
; 655  :     /* do nothing if pass > 1 */
; 656  :     if( Parse_Pass != PASS_1 ) {
; 657  :         SkipOption( pi, tokenarray );
; 658  :         return( NOT_ERROR );
; 659  :     }
; 660  : #endif
; 661  :     if ( tokenarray[i].token != T_STRING || tokenarray[i].string_delim != '<' )  {

	mov	rdx, rdi
	mov	r14, rcx
	shl	rdx, 5
	add	rdx, r8
	cmp	BYTE PTR [rdx], 9
	jne	$LN3@SetRenameK
	cmp	BYTE PTR [rdx+1], 60			; 0000003cH
	jne	$LN3@SetRenameK

; 663  :     }
; 664  :     oldname = tokenarray[i].string_ptr;

	mov	rcx, QWORD PTR [rdx+8]

; 665  :     i++;

	inc	edi

; 666  :     /* v2.06: syntax changed */
; 667  :     //if ( tokenarray[i].token != T_COMMA ) {
; 668  :     if ( tokenarray[i].token != T_DIRECTIVE || tokenarray[i].dirtype != DRT_EQUALSGN ) {

	movsxd	rdx, edi
	shl	rdx, 5
	cmp	BYTE PTR [rdx+r8], 3
	jne	$LN5@SetRenameK
	cmp	BYTE PTR [rdx+r8+1], 48			; 00000030H
	jne	$LN5@SetRenameK

; 671  :     }
; 672  :     i++;

	mov	QWORD PTR [rsp+56], rsi
	inc	edi

; 673  :     if ( tokenarray[i].token != T_ID )  {

	movsxd	rsi, edi
	shl	rsi, 5
	add	rsi, r8
	cmp	BYTE PTR [rsi], 8
	je	SHORT $LN6@SetRenameK

; 674  :         return( EmitErr( SYNTAX_ERROR_EX, tokenarray[i].tokpos ) );

	mov	rdx, QWORD PTR [rsi+24]
	mov	ecx, 210				; 000000d2H
	mov	rsi, QWORD PTR [rsp+56]

; 687  : }

	mov	rdi, QWORD PTR [rsp+64]
	add	rsp, 32					; 00000020H
	pop	r14

; 674  :         return( EmitErr( SYNTAX_ERROR_EX, tokenarray[i].tokpos ) );

	jmp	EmitErr
$LN6@SetRenameK:
	mov	QWORD PTR [rsp+48], rbx

; 675  :     }
; 676  : 
; 677  :     /* todo: if MAX_ID_LEN can be > 255, then check size,
; 678  :      * since a reserved word's size must be <= 255 */
; 679  :     index = FindResWord( oldname, strlen( oldname ) );

	or	rbx, -1
	mov	rdx, rbx
$LL10@SetRenameK:
	inc	rdx
	cmp	BYTE PTR [rcx+rdx], 0
	jne	SHORT $LL10@SetRenameK
	call	FindResWord

; 680  :     if ( index == 0 ) {

	test	eax, eax
	jne	SHORT $LN7@SetRenameK

; 681  :         return( EmitError( RESERVED_WORD_EXPECTED ) );

	mov	ecx, 159				; 0000009fH
	call	EmitError
$LN12@SetRenameK:
	mov	rbx, QWORD PTR [rsp+48]
	mov	rsi, QWORD PTR [rsp+56]

; 687  : }

	mov	rdi, QWORD PTR [rsp+64]
	add	rsp, 32					; 00000020H
	pop	r14
	ret	0
$LN7@SetRenameK:

; 682  :     }
; 683  :     RenameKeyword( index, tokenarray[i].string_ptr, strlen( tokenarray[i].string_ptr ) );

	mov	rdx, QWORD PTR [rsi+8]
	npad	5
$LL9@SetRenameK:
	inc	rbx
	cmp	BYTE PTR [rdx+rbx], 0
	jne	SHORT $LL9@SetRenameK
	mov	r8, rbx
	mov	ecx, eax
	call	RenameKeyword

; 684  :     i++;

	lea	eax, DWORD PTR [rdi+1]

; 685  :     *pi = i;

	mov	DWORD PTR [r14], eax

; 686  :     return( NOT_ERROR );

	xor	eax, eax
	jmp	SHORT $LN12@SetRenameK
$LN5@SetRenameK:

; 669  :         //EmitError( EXPECTING_COMMA );
; 670  :         return( EmitErr( SYNTAX_ERROR_EX, tokenarray[i].tokpos ) );

	mov	rdx, QWORD PTR [rdx+r8+24]
	mov	ecx, 210				; 000000d2H

; 687  : }

	mov	rdi, QWORD PTR [rsp+64]
	add	rsp, 32					; 00000020H
	pop	r14

; 669  :         //EmitError( EXPECTING_COMMA );
; 670  :         return( EmitErr( SYNTAX_ERROR_EX, tokenarray[i].tokpos ) );

	jmp	EmitErr
$LN3@SetRenameK:

; 662  :         return( EmitErr( SYNTAX_ERROR_EX, tokenarray[i].tokpos ) );

	mov	rdx, QWORD PTR [rdx+24]
	mov	ecx, 210				; 000000d2H

; 687  : }

	mov	rdi, QWORD PTR [rsp+64]
	add	rsp, 32					; 00000020H
	pop	r14

; 662  :         return( EmitErr( SYNTAX_ERROR_EX, tokenarray[i].tokpos ) );

	jmp	EmitErr
SetRenameKey ENDP
_TEXT	ENDS
; Function compile flags: /Ogtpy
; File d:\hjwasm\hjwasm2.13.1s\hjwasm2.13.1s\option.c
_TEXT	SEGMENT
opndx$ = 48
i$ = 176
pi$ = 176
tokenarray$ = 184
SetElf	PROC

; 622  : {

	mov	r11, rsp
	push	rbx
	sub	rsp, 160				; 000000a0H

; 623  :     int i = *pi;

	mov	eax, DWORD PTR [rcx]

; 624  :     struct expr opndx;
; 625  : 
; 626  :     if ( EvalOperand( &i, tokenarray, Token_Count, &opndx, 0 ) == ERROR )

	lea	r9, QWORD PTR [r11-120]
	mov	r8d, DWORD PTR ModuleInfo+496
	mov	rbx, rcx
	lea	rcx, QWORD PTR [r11+8]
	mov	DWORD PTR [r11+8], eax
	mov	BYTE PTR [rsp+32], 0
	call	EvalOperand
	cmp	eax, -1
	jne	SHORT $LN2@SetElf

; 627  :         return( ERROR );

	or	eax, eax

; 639  : }

	add	rsp, 160				; 000000a0H
	pop	rbx
	ret	0
$LN2@SetElf:

; 628  :     if ( opndx.kind == EXPR_CONST ) {

	cmp	DWORD PTR opndx$[rsp+60], 0
	jne	SHORT $LN3@SetElf

; 629  :         if ( opndx.llvalue > 0xFF ) {

	mov	rax, QWORD PTR opndx$[rsp]
	cmp	rax, 255				; 000000ffH
	jbe	SHORT $LN5@SetElf

; 630  :             return( EmitConstError( &opndx ) );

	lea	rcx, QWORD PTR opndx$[rsp]
	call	EmitConstError

; 639  : }

	add	rsp, 160				; 000000a0H
	pop	rbx
	ret	0
$LN5@SetElf:

; 631  :         }
; 632  :         if ( Options.output_format == OFORMAT_ELF )

	cmp	DWORD PTR Options+144, 3
	movzx	ecx, BYTE PTR ModuleInfo+412
	movzx	eax, al
	cmove	ecx, eax

; 636  :     }
; 637  :     *pi = i;

	mov	eax, DWORD PTR i$[rsp]
	mov	BYTE PTR ModuleInfo+412, cl
	mov	DWORD PTR [rbx], eax

; 638  :     return( NOT_ERROR );

	xor	eax, eax

; 639  : }

	add	rsp, 160				; 000000a0H
	pop	rbx
	ret	0
$LN3@SetElf:

; 633  :             ModuleInfo.elf_osabi = opndx.value;
; 634  :     } else {
; 635  :         return( EmitError( CONSTANT_EXPECTED ) );

	mov	ecx, 66					; 00000042H
	call	EmitError

; 639  : }

	add	rsp, 160				; 000000a0H
	pop	rbx
	ret	0
SetElf	ENDP
_TEXT	ENDS
; Function compile flags: /Ogtpy
; File d:\hjwasm\hjwasm2.13.1s\hjwasm2.13.1s\option.c
_TEXT	SEGMENT
pi$ = 48
tokenarray$ = 56
SetFrame PROC

; 604  : {

	mov	QWORD PTR [rsp+8], rbx
	mov	QWORD PTR [rsp+16], rsi
	push	rdi
	sub	rsp, 32					; 00000020H

; 605  :     int i = *pi;

	movsxd	rbx, DWORD PTR [rcx]
	mov	rdi, rcx

; 606  : 
; 607  :     if ( 0 == _stricmp( tokenarray[i].string_ptr, "AUTO" ) ) {

	mov	rsi, rbx
	shl	rsi, 5
	add	rsi, rdx
	lea	rdx, OFFSET FLAT:$SG11084
	mov	rcx, QWORD PTR [rsi+8]
	call	_stricmp
	test	eax, eax
	jne	SHORT $LN2@SetFrame

; 608  :         ModuleInfo.frame_auto = 1;

	or	DWORD PTR ModuleInfo+408, 131072	; 00020000H

; 609  :         i++;

	jmp	SHORT $LN7@SetFrame
$LN2@SetFrame:

; 610  :     } else if ( 0 == _stricmp( tokenarray[i].string_ptr, "NOAUTO" ) ) {

	mov	rcx, QWORD PTR [rsi+8]
	lea	rdx, OFFSET FLAT:$SG11086
	call	_stricmp
	test	eax, eax
	jne	SHORT $LN6@SetFrame

; 611  :         ModuleInfo.frame_auto = 0;

	and	DWORD PTR ModuleInfo+408, -131073	; fffdffffH
$LN7@SetFrame:

; 612  :         i++;

	inc	ebx
$LN6@SetFrame:

; 613  :     }
; 614  :     *pi = i;
; 615  :     return( NOT_ERROR );
; 616  : }

	mov	rsi, QWORD PTR [rsp+56]
	xor	eax, eax
	mov	DWORD PTR [rdi], ebx
	mov	rbx, QWORD PTR [rsp+48]
	add	rsp, 32					; 00000020H
	pop	rdi
	ret	0
SetFrame ENDP
_TEXT	ENDS
; Function compile flags: /Ogtpy
; File d:\hjwasm\hjwasm2.13.1s\hjwasm2.13.1s\option.c
_TEXT	SEGMENT
opndx$ = 48
i$ = 192
pi$ = 192
tokenarray$ = 200
SetMZ	PROC

; 548  : {

	mov	QWORD PTR [rsp+16], rbx
	mov	QWORD PTR [rsp+24], rbp
	push	rsi
	push	rdi
	push	r14
	sub	rsp, 160				; 000000a0H

; 549  :     int i = *pi;

	mov	eax, DWORD PTR [rcx]
	lea	rdi, OFFSET FLAT:ModuleInfo+412
	mov	DWORD PTR i$[rsp], eax
	lea	r14, OFFSET FLAT:ModuleInfo+420
	mov	rbx, rdx
	mov	rsi, rcx
	mov	rbp, 288247968337764352			; 0400100000002000H
	npad	4
$LL4@SetMZ:

; 555  :         int k;
; 556  :         for ( k = i; tokenarray[k].token != T_FINAL; k++ )

	movsxd	r9, eax
	mov	r8, r9
	shl	r8, 5
	cmp	BYTE PTR [r8+rbx], 0
	je	SHORT $LN47@SetMZ
	mov	rcx, r9
	shl	rcx, 5
	movzx	edx, BYTE PTR [rcx+rbx]
	npad	4
$LL7@SetMZ:
	cmp	dl, 58					; 0000003aH
	ja	SHORT $LN43@SetMZ
	bt	rbp, rdx
	jb	SHORT $LN47@SetMZ
$LN43@SetMZ:
	inc	r9
	inc	eax
	mov	rcx, r9
	shl	rcx, 5
	movzx	edx, BYTE PTR [rcx+rbx]
	test	dl, dl
	jne	SHORT $LL7@SetMZ
$LN47@SetMZ:

; 557  :             if ( tokenarray[k].token == T_COMMA ||
; 558  :                 tokenarray[k].token == T_COLON ||
; 559  :                 tokenarray[k].token == T_DBL_COLON )
; 560  :                 break;
; 561  :         if ( EvalOperand( &i, tokenarray, k, &opndx, 0 ) == ERROR )

	lea	r9, QWORD PTR opndx$[rsp]
	mov	BYTE PTR [rsp+32], 0
	mov	r8d, eax
	lea	rcx, QWORD PTR i$[rsp]
	mov	rdx, rbx
	call	EvalOperand
	cmp	eax, -1
	je	$LN32@SetMZ

; 563  :         if ( opndx.kind == EXPR_EMPTY ) {

	mov	eax, DWORD PTR opndx$[rsp+60]
	cmp	eax, -2
	je	SHORT $LN46@SetMZ

; 564  :         } else if ( opndx.kind == EXPR_CONST ) {

	test	eax, eax
	jne	$LN16@SetMZ

; 565  :             if ( opndx.value64 > 0xFFFF ) {

	mov	rax, QWORD PTR opndx$[rsp]
	cmp	rax, 65535				; 0000ffffH
	jg	$LN33@SetMZ

; 567  :             }
; 568  :             if ( ModuleInfo.sub_format == SFORMAT_MZ )

	cmp	DWORD PTR ModuleInfo+372, 1
	jne	SHORT $LN46@SetMZ

; 569  :                 *(parms + j) = opndx.value;

	mov	WORD PTR [rdi], ax
$LN46@SetMZ:

; 572  :         }
; 573  :         if ( tokenarray[i].token == T_COLON )

	movsxd	rax, DWORD PTR i$[rsp]
	mov	rcx, rax
	shl	rcx, 5
	movzx	edx, BYTE PTR [rcx+rbx]
	cmp	dl, 58					; 0000003aH
	jne	SHORT $LN20@SetMZ

; 574  :             i++;

	inc	eax
	jmp	SHORT $LN48@SetMZ
$LN20@SetMZ:

; 575  :         else if ( tokenarray[i].token == T_DBL_COLON ) {

	cmp	dl, 13
	jne	SHORT $LN2@SetMZ

; 576  :             i++;

	inc	eax

; 577  :             j++;

	add	rdi, 2
$LN48@SetMZ:

; 576  :             i++;

	mov	DWORD PTR i$[rsp], eax
$LN2@SetMZ:

; 550  :     int j;
; 551  :     uint_16 *parms;
; 552  :     struct expr opndx;
; 553  : 
; 554  :     for ( j = 0, parms = (uint_16 *)&ModuleInfo.mz_data ; j < 4; j++ ) {

	add	rdi, 2
	cmp	rdi, r14
	jl	$LL4@SetMZ

; 578  :         }
; 579  :     }
; 580  : 
; 581  :     /* ensure data integrity of the params */
; 582  :     if ( ModuleInfo.sub_format == SFORMAT_MZ ) {

	cmp	DWORD PTR ModuleInfo+372, 1
	jne	SHORT $LN26@SetMZ

; 583  :         if ( ModuleInfo.mz_data.ofs_fixups < 0x1E )

	cmp	WORD PTR ModuleInfo+412, 30
	jae	SHORT $LN24@SetMZ

; 584  :             ModuleInfo.mz_data.ofs_fixups = 0x1E;

	mov	ecx, 30
	mov	WORD PTR ModuleInfo+412, cx
$LN24@SetMZ:

; 585  : 
; 586  :         for( j = 16; j < ModuleInfo.mz_data.alignment; j <<= 1 );

	movzx	edx, WORD PTR ModuleInfo+414
	mov	ecx, 16
	cmp	ecx, edx
	jge	SHORT $LN49@SetMZ
	npad	3
$LL10@SetMZ:
	add	ecx, ecx
	cmp	ecx, edx
	jl	SHORT $LL10@SetMZ
$LN49@SetMZ:

; 587  :         if( j != ModuleInfo.mz_data.alignment )

	je	SHORT $LN25@SetMZ

; 588  :             EmitError( INVALID_HEADER_ALIGNMENT );

	mov	ecx, 206				; 000000ceH
	call	EmitError
	mov	eax, DWORD PTR i$[rsp]
$LN25@SetMZ:

; 589  : 
; 590  :         if ( ModuleInfo.mz_data.heapmax < ModuleInfo.mz_data.heapmin )

	movzx	edx, WORD PTR ModuleInfo+418
	cmp	dx, WORD PTR ModuleInfo+416
	cmovb	dx, WORD PTR ModuleInfo+416
	mov	WORD PTR ModuleInfo+418, dx
$LN26@SetMZ:

; 591  :             ModuleInfo.mz_data.heapmax = ModuleInfo.mz_data.heapmin;
; 592  :     }
; 593  :     *pi = i;

	mov	DWORD PTR [rsi], eax

; 594  :     return( NOT_ERROR );

	xor	eax, eax
	jmp	SHORT $LN1@SetMZ
$LN33@SetMZ:

; 566  :                 return( EmitConstError( &opndx ) );

	lea	rcx, QWORD PTR opndx$[rsp]
	call	EmitConstError
	jmp	SHORT $LN1@SetMZ
$LN16@SetMZ:

; 570  :         } else {
; 571  :             return( EmitError( CONSTANT_EXPECTED ) );

	mov	ecx, 66					; 00000042H
	call	EmitError
	jmp	SHORT $LN1@SetMZ
$LN32@SetMZ:

; 562  :             return( ERROR );

	or	eax, -1
$LN1@SetMZ:

; 595  : }

	lea	r11, QWORD PTR [rsp+160]
	mov	rbx, QWORD PTR [r11+40]
	mov	rbp, QWORD PTR [r11+48]
	mov	rsp, r11
	pop	r14
	pop	rdi
	pop	rsi
	ret	0
SetMZ	ENDP
_TEXT	ENDS
; Function compile flags: /Ogtpy
; File d:\hjwasm\hjwasm2.13.1s\hjwasm2.13.1s\option.c
_TEXT	SEGMENT
opndx$ = 48
i$ = 176
pi$ = 176
tokenarray$ = 184
SetProcAlign PROC

; 522  : {

	mov	r11, rsp
	push	rbx
	sub	rsp, 160				; 000000a0H

; 523  :     int i = *pi;

	mov	eax, DWORD PTR [rcx]

; 524  :     int temp, temp2;
; 525  :     struct expr opndx;
; 526  : 
; 527  :     if ( EvalOperand( &i, tokenarray, Token_Count, &opndx, EXPF_NOUNDEF ) == ERROR )

	lea	r9, QWORD PTR [r11-120]
	mov	r8d, DWORD PTR ModuleInfo+496
	mov	rbx, rcx
	lea	rcx, QWORD PTR [r11+8]
	mov	DWORD PTR [r11+8], eax
	mov	BYTE PTR [rsp+32], 2
	call	EvalOperand
	cmp	eax, -1
	jne	SHORT $LN5@SetProcAli

; 528  :         return( ERROR );

	or	eax, eax

; 542  : }

	add	rsp, 160				; 000000a0H
	pop	rbx
	ret	0
$LN5@SetProcAli:

; 529  :     if ( opndx.kind != EXPR_CONST ) {

	cmp	DWORD PTR opndx$[rsp+60], 0
	je	SHORT $LN6@SetProcAli

; 530  :         return( EmitError( CONSTANT_EXPECTED ) );

	mov	ecx, 66					; 00000042H
	call	EmitError

; 542  : }

	add	rsp, 160				; 000000a0H
	pop	rbx
	ret	0
$LN6@SetProcAli:

; 531  :     }
; 532  :     if( opndx.value > MAX_STRUCT_ALIGN ) {

	mov	edx, DWORD PTR opndx$[rsp]
	cmp	edx, 32					; 00000020H
	jle	SHORT $LN7@SetProcAli

; 533  :         EmitError( STRUCT_ALIGN_TOO_HIGH );

	mov	ecx, 215				; 000000d7H
	call	EmitError
	mov	edx, DWORD PTR opndx$[rsp]
$LN7@SetProcAli:

; 534  :     }
; 535  :     for( temp = 1, temp2 = 0; temp < opndx.value ; temp <<= 1, temp2++ );

	mov	eax, 1
	xor	ecx, ecx
	cmp	eax, edx
	jge	SHORT $LN14@SetProcAli
	npad	7
$LL4@SetProcAli:
	add	eax, eax
	inc	ecx
	cmp	eax, edx
	jl	SHORT $LL4@SetProcAli
$LN14@SetProcAli:

; 536  :     if( temp != opndx.value ) {

	je	SHORT $LN8@SetProcAli

; 537  :         return( EmitErr( POWER_OF_2, opndx.value ) );

	mov	ecx, 130				; 00000082H
	call	EmitErr

; 542  : }

	add	rsp, 160				; 000000a0H
	pop	rbx
	ret	0
$LN8@SetProcAli:

; 538  :     }
; 539  :     ModuleInfo.procalign = temp2;
; 540  :     *pi = i;

	mov	eax, DWORD PTR i$[rsp]
	mov	BYTE PTR ModuleInfo+399, cl
	mov	DWORD PTR [rbx], eax

; 541  :     return( NOT_ERROR );

	xor	eax, eax

; 542  : }

	add	rsp, 160				; 000000a0H
	pop	rbx
	ret	0
SetProcAlign ENDP
_TEXT	ENDS
; Function compile flags: /Ogtpy
; File d:\hjwasm\hjwasm2.13.1s\hjwasm2.13.1s\option.c
_TEXT	SEGMENT
opndx$ = 48
i$ = 176
pi$ = 176
tokenarray$ = 184
SetFieldAlign PROC

; 494  : {

	mov	r11, rsp
	push	rbx
	sub	rsp, 160				; 000000a0H

; 495  :     int i = *pi;

	mov	eax, DWORD PTR [rcx]

; 496  :     unsigned temp, temp2;
; 497  :     struct expr opndx;
; 498  : 
; 499  :     if ( EvalOperand( &i, tokenarray, Token_Count, &opndx, EXPF_NOUNDEF ) == ERROR )

	lea	r9, QWORD PTR [r11-120]
	mov	r8d, DWORD PTR ModuleInfo+496
	mov	rbx, rcx
	lea	rcx, QWORD PTR [r11+8]
	mov	DWORD PTR [r11+8], eax
	mov	BYTE PTR [rsp+32], 2
	call	EvalOperand
	cmp	eax, -1
	jne	SHORT $LN5@SetFieldAl

; 500  :         return( ERROR );

	or	eax, eax

; 514  : }

	add	rsp, 160				; 000000a0H
	pop	rbx
	ret	0
$LN5@SetFieldAl:

; 501  :     if ( opndx.kind != EXPR_CONST ) {

	cmp	DWORD PTR opndx$[rsp+60], 0
	je	SHORT $LN6@SetFieldAl

; 502  :         return( EmitError( CONSTANT_EXPECTED ) );

	mov	ecx, 66					; 00000042H
	call	EmitError

; 514  : }

	add	rsp, 160				; 000000a0H
	pop	rbx
	ret	0
$LN6@SetFieldAl:

; 503  :     }
; 504  :     if( opndx.uvalue > MAX_STRUCT_ALIGN ) {

	mov	edx, DWORD PTR opndx$[rsp]
	cmp	edx, 32					; 00000020H
	jbe	SHORT $LN7@SetFieldAl

; 505  :         return( EmitError( STRUCT_ALIGN_TOO_HIGH ) );

	mov	ecx, 215				; 000000d7H
	call	EmitError

; 514  : }

	add	rsp, 160				; 000000a0H
	pop	rbx
	ret	0
$LN7@SetFieldAl:

; 506  :     }
; 507  :     for( temp = 1, temp2 = 0; temp < opndx.uvalue ; temp <<= 1, temp2++ );

	mov	eax, 1
	xor	ecx, ecx
	cmp	eax, edx
	jae	SHORT $LN14@SetFieldAl
	npad	2
$LL4@SetFieldAl:
	add	eax, eax
	inc	ecx
	cmp	eax, edx
	jb	SHORT $LL4@SetFieldAl
$LN14@SetFieldAl:

; 508  :     if( temp != opndx.uvalue ) {

	je	SHORT $LN8@SetFieldAl

; 509  :         return( EmitErr( POWER_OF_2, opndx.value ) );

	mov	ecx, 130				; 00000082H
	call	EmitErr

; 514  : }

	add	rsp, 160				; 000000a0H
	pop	rbx
	ret	0
$LN8@SetFieldAl:

; 510  :     }
; 511  :     ModuleInfo.fieldalign = temp2;
; 512  :     *pi = i;

	mov	eax, DWORD PTR i$[rsp]
	mov	BYTE PTR ModuleInfo+397, cl
	mov	DWORD PTR [rbx], eax

; 513  :     return( NOT_ERROR );

	xor	eax, eax

; 514  : }

	add	rsp, 160				; 000000a0H
	pop	rbx
	ret	0
SetFieldAlign ENDP
_TEXT	ENDS
; Function compile flags: /Ogtpy
; File d:\hjwasm\hjwasm2.13.1s\hjwasm2.13.1s\option.c
_TEXT	SEGMENT
pi$ = 48
tokenarray$ = 56
SetSegment PROC

; 463  : {

	mov	QWORD PTR [rsp+8], rbx
	mov	QWORD PTR [rsp+16], rsi
	push	rdi
	sub	rsp, 32					; 00000020H

; 464  :     int i = *pi;

	movsxd	rsi, DWORD PTR [rcx]
	mov	rdi, rcx

; 465  : 
; 466  :     if ( tokenarray[i].token == T_RES_ID && tokenarray[i].tokval == T_FLAT ) {

	mov	rax, rsi
	shl	rax, 5
	lea	rbx, QWORD PTR [rax+rdx]
	movzx	eax, BYTE PTR [rax+rdx]
	cmp	al, 7
	jne	SHORT $LN2@SetSegment
	cmp	DWORD PTR [rbx+16], 261			; 00000105H
	jne	SHORT $LN6@SetSegment

; 467  : #if AMD64_SUPPORT
; 468  :         if ( ( ModuleInfo.curr_cpu & P_CPU_MASK ) >= P_64 )

	mov	eax, DWORD PTR ModuleInfo+392
	and	eax, 240				; 000000f0H
	cmp	eax, 112				; 00000070H
	setge	al
	inc	al
	mov	BYTE PTR ModuleInfo+405, al

; 483  :     }
; 484  :     i++;

	lea	eax, DWORD PTR [rsi+1]

; 485  :     *pi = i;

	mov	DWORD PTR [rcx], eax

; 486  :     return( NOT_ERROR );

	xor	eax, eax

; 487  : }

	mov	rbx, QWORD PTR [rsp+48]
	mov	rsi, QWORD PTR [rsp+56]
	add	rsp, 32					; 00000020H
	pop	rdi
	ret	0
$LN2@SetSegment:

; 469  :             ModuleInfo.defOfssize = USE64;
; 470  :         else
; 471  : #endif
; 472  :             ModuleInfo.defOfssize = USE32;
; 473  :     } else if ( tokenarray[i].token == T_ID && _stricmp( tokenarray[i].string_ptr, "USE16" ) == 0) {

	cmp	al, 8
	jne	SHORT $LN6@SetSegment
	mov	rcx, QWORD PTR [rbx+8]
	lea	rdx, OFFSET FLAT:$SG10997
	call	_stricmp
	test	eax, eax
	jne	SHORT $LN6@SetSegment

; 474  :         ModuleInfo.defOfssize = USE16;

	mov	BYTE PTR ModuleInfo+405, al

; 483  :     }
; 484  :     i++;

	lea	eax, DWORD PTR [rsi+1]

; 485  :     *pi = i;

	mov	DWORD PTR [rdi], eax

; 486  :     return( NOT_ERROR );

	xor	eax, eax

; 487  : }

	mov	rbx, QWORD PTR [rsp+48]
	mov	rsi, QWORD PTR [rsp+56]
	add	rsp, 32					; 00000020H
	pop	rdi
	ret	0
$LN6@SetSegment:

; 475  :     } else if ( tokenarray[i].token == T_ID && _stricmp( tokenarray[i].string_ptr, "USE32" ) == 0) {

	cmp	BYTE PTR [rbx], 8
	jne	SHORT $LN10@SetSegment
	mov	rcx, QWORD PTR [rbx+8]
	lea	rdx, OFFSET FLAT:$SG11000
	call	_stricmp
	test	eax, eax
	jne	SHORT $LN8@SetSegment

; 483  :     }
; 484  :     i++;

	lea	eax, DWORD PTR [rsi+1]
	mov	BYTE PTR ModuleInfo+405, 1

; 485  :     *pi = i;

	mov	DWORD PTR [rdi], eax

; 486  :     return( NOT_ERROR );

	xor	eax, eax

; 487  : }

	mov	rbx, QWORD PTR [rsp+48]
	mov	rsi, QWORD PTR [rsp+56]
	add	rsp, 32					; 00000020H
	pop	rdi
	ret	0
$LN8@SetSegment:

; 476  :         ModuleInfo.defOfssize = USE32;
; 477  : #if AMD64_SUPPORT
; 478  :     } else if ( tokenarray[i].token == T_ID && _stricmp( tokenarray[i].string_ptr, "USE64" ) == 0) {

	cmp	BYTE PTR [rbx], 8
	jne	SHORT $LN10@SetSegment
	mov	rcx, QWORD PTR [rbx+8]
	lea	rdx, OFFSET FLAT:$SG11003
	call	_stricmp
	test	eax, eax
	jne	SHORT $LN10@SetSegment

; 483  :     }
; 484  :     i++;

	lea	eax, DWORD PTR [rsi+1]
	mov	BYTE PTR ModuleInfo+405, 2

; 485  :     *pi = i;

	mov	DWORD PTR [rdi], eax

; 486  :     return( NOT_ERROR );

	xor	eax, eax

; 487  : }

	mov	rbx, QWORD PTR [rsp+48]
	mov	rsi, QWORD PTR [rsp+56]
	add	rsp, 32					; 00000020H
	pop	rdi
	ret	0
$LN10@SetSegment:

; 479  :         ModuleInfo.defOfssize = USE64;
; 480  : #endif
; 481  :     } else {
; 482  :         return( EmitErr( SYNTAX_ERROR_EX, tokenarray[i].string_ptr ) );

	mov	rdx, QWORD PTR [rbx+8]
	mov	ecx, 210				; 000000d2H

; 487  : }

	mov	rbx, QWORD PTR [rsp+48]
	mov	rsi, QWORD PTR [rsp+56]
	add	rsp, 32					; 00000020H
	pop	rdi

; 479  :         ModuleInfo.defOfssize = USE64;
; 480  : #endif
; 481  :     } else {
; 482  :         return( EmitErr( SYNTAX_ERROR_EX, tokenarray[i].string_ptr ) );

	jmp	EmitErr
SetSegment ENDP
_TEXT	ENDS
; Function compile flags: /Ogtpy
; File d:\hjwasm\hjwasm2.13.1s\hjwasm2.13.1s\option.c
_TEXT	SEGMENT
pi$ = 48
tokenarray$ = 56
SetProc	PROC

; 429  : {

	mov	QWORD PTR [rsp+8], rbx
	mov	QWORD PTR [rsp+16], rsi
	push	rdi
	sub	rsp, 32					; 00000020H

; 430  :     int i = *pi;

	movsxd	rbx, DWORD PTR [rcx]
	mov	rsi, rcx

; 431  : 
; 432  :     switch ( tokenarray[i].token ) {

	mov	rax, rbx
	shl	rax, 5
	lea	rdi, QWORD PTR [rax+rdx]
	movzx	eax, BYTE PTR [rax+rdx]
	cmp	al, 3
	je	SHORT $LN8@SetProc
	cmp	al, 8
	jne	SHORT $LN9@SetProc

; 433  :     case T_ID:
; 434  :         if ( 0 == _stricmp( tokenarray[i].string_ptr, "PRIVATE" ) ) {

	mov	rcx, QWORD PTR [rdi+8]
	lea	rdx, OFFSET FLAT:$SG10979
	call	_stricmp
	test	eax, eax
	jne	SHORT $LN5@SetProc

; 435  :             ModuleInfo.procs_private = TRUE;
; 436  :             ModuleInfo.procs_export = FALSE;

	mov	eax, DWORD PTR ModuleInfo+408
	and	eax, -9					; fffffff7H
	or	eax, 4
	mov	DWORD PTR ModuleInfo+408, eax

; 437  :             i++;

	jmp	SHORT $LN11@SetProc
$LN5@SetProc:

; 438  :         } else if ( 0 == _stricmp( tokenarray[i].string_ptr, "EXPORT" ) ) {

	mov	rcx, QWORD PTR [rdi+8]
	lea	rdx, OFFSET FLAT:$SG10981
	call	_stricmp
	test	eax, eax
	jne	SHORT $LN9@SetProc

; 439  :             ModuleInfo.procs_private = FALSE;

	mov	eax, DWORD PTR ModuleInfo+408
	and	eax, -5					; fffffffbH

; 440  :             ModuleInfo.procs_export = TRUE;

	or	eax, 8
	mov	DWORD PTR ModuleInfo+408, eax

; 441  :             i++;
; 442  :         }
; 443  :         break;

	jmp	SHORT $LN11@SetProc
$LN8@SetProc:

; 444  :     case T_DIRECTIVE: /* word PUBLIC is a directive */
; 445  :         if ( tokenarray[i].tokval == T_PUBLIC ) {

	cmp	DWORD PTR [rdi+16], 426			; 000001aaH
	jne	SHORT $LN9@SetProc

; 446  :             ModuleInfo.procs_private = FALSE;
; 447  :             ModuleInfo.procs_export = FALSE;

	and	DWORD PTR ModuleInfo+408, -13		; fffffff3H
$LN11@SetProc:

; 448  :             i++;

	inc	ebx
$LN9@SetProc:

; 449  :         }
; 450  :         break;
; 451  :     }
; 452  :     *pi = i;

	mov	DWORD PTR [rsi], ebx

; 453  :     return( NOT_ERROR );

	xor	eax, eax

; 454  : }

	mov	rbx, QWORD PTR [rsp+48]
	mov	rsi, QWORD PTR [rsp+56]
	add	rsp, 32					; 00000020H
	pop	rdi
	ret	0
SetProc	ENDP
_TEXT	ENDS
; Function compile flags: /Ogtpy
; File d:\hjwasm\hjwasm2.13.1s\hjwasm2.13.1s\option.c
_TEXT	SEGMENT
pi$ = 48
tokenarray$ = 56
SetOffset PROC

; 408  : {

	mov	QWORD PTR [rsp+8], rbx
	mov	QWORD PTR [rsp+16], rsi
	push	rdi
	sub	rsp, 32					; 00000020H

; 409  :     int i = *pi;

	movsxd	rsi, DWORD PTR [rcx]
	mov	rdi, rcx

; 410  : 
; 411  :     if ( 0 == _stricmp( tokenarray[i].string_ptr, "GROUP" ) ) {

	mov	rbx, rsi
	shl	rbx, 5
	add	rbx, rdx
	lea	rdx, OFFSET FLAT:$SG10960
	mov	rcx, QWORD PTR [rbx+8]
	call	_stricmp
	test	eax, eax
	jne	SHORT $LN2@SetOffset

; 412  :         ModuleInfo.offsettype = OT_GROUP;

	mov	DWORD PTR ModuleInfo+384, eax

; 419  :     }
; 420  :     i++;

	lea	eax, DWORD PTR [rsi+1]

; 421  :     *pi = i;

	mov	DWORD PTR [rdi], eax

; 422  :     return( NOT_ERROR );

	xor	eax, eax

; 423  : }

	mov	rbx, QWORD PTR [rsp+48]
	mov	rsi, QWORD PTR [rsp+56]
	add	rsp, 32					; 00000020H
	pop	rdi
	ret	0
$LN2@SetOffset:

; 413  :     } else if ( 0 == _stricmp( tokenarray[i].string_ptr, "FLAT" ) ) {

	mov	rcx, QWORD PTR [rbx+8]
	lea	rdx, OFFSET FLAT:$SG10963
	call	_stricmp
	test	eax, eax
	jne	SHORT $LN4@SetOffset

; 419  :     }
; 420  :     i++;

	lea	eax, DWORD PTR [rsi+1]
	mov	DWORD PTR ModuleInfo+384, 1

; 421  :     *pi = i;

	mov	DWORD PTR [rdi], eax

; 422  :     return( NOT_ERROR );

	xor	eax, eax

; 423  : }

	mov	rbx, QWORD PTR [rsp+48]
	mov	rsi, QWORD PTR [rsp+56]
	add	rsp, 32					; 00000020H
	pop	rdi
	ret	0
$LN4@SetOffset:

; 414  :         ModuleInfo.offsettype = OT_FLAT;
; 415  :     } else if ( 0 == _stricmp( tokenarray[i].string_ptr, "SEGMENT" ) ) {

	mov	rcx, QWORD PTR [rbx+8]
	lea	rdx, OFFSET FLAT:$SG10966
	call	_stricmp
	test	eax, eax
	jne	SHORT $LN6@SetOffset

; 419  :     }
; 420  :     i++;

	lea	eax, DWORD PTR [rsi+1]
	mov	DWORD PTR ModuleInfo+384, 2

; 421  :     *pi = i;

	mov	DWORD PTR [rdi], eax

; 422  :     return( NOT_ERROR );

	xor	eax, eax

; 423  : }

	mov	rbx, QWORD PTR [rsp+48]
	mov	rsi, QWORD PTR [rsp+56]
	add	rsp, 32					; 00000020H
	pop	rdi
	ret	0
$LN6@SetOffset:

; 416  :         ModuleInfo.offsettype = OT_SEGMENT;
; 417  :     } else {
; 418  :         return( EmitErr( SYNTAX_ERROR_EX, tokenarray[i].string_ptr ) );

	mov	rdx, QWORD PTR [rbx+8]
	mov	ecx, 210				; 000000d2H

; 423  : }

	mov	rbx, QWORD PTR [rsp+48]
	mov	rsi, QWORD PTR [rsp+56]
	add	rsp, 32					; 00000020H
	pop	rdi

; 416  :         ModuleInfo.offsettype = OT_SEGMENT;
; 417  :     } else {
; 418  :         return( EmitErr( SYNTAX_ERROR_EX, tokenarray[i].string_ptr ) );

	jmp	EmitErr
SetOffset ENDP
_TEXT	ENDS
; Function compile flags: /Ogtpy
; File d:\hjwasm\hjwasm2.13.1s\hjwasm2.13.1s\option.c
_TEXT	SEGMENT
pi$ = 48
tokenarray$ = 56
SetEpilogue PROC

; 376  : {

	mov	QWORD PTR [rsp+8], rbx
	mov	QWORD PTR [rsp+16], rsi
	push	rdi
	sub	rsp, 32					; 00000020H

; 377  :     int i = *pi;

	movsxd	rsi, DWORD PTR [rcx]
	mov	rdi, rcx

; 378  : 
; 379  :     if ( tokenarray[i].token != T_ID ) {

	mov	rbx, rsi
	shl	rbx, 5
	add	rbx, rdx
	cmp	BYTE PTR [rbx], 8
	je	SHORT $LN2@SetEpilogu

; 380  :         return( EmitErr( SYNTAX_ERROR_EX, tokenarray[i].tokpos ) );

	mov	rdx, QWORD PTR [rbx+24]
	mov	ecx, 210				; 000000d2H

; 395  :     }
; 396  : 
; 397  :     i++;
; 398  :     *pi = i;
; 399  :     return( NOT_ERROR );
; 400  : }

	mov	rbx, QWORD PTR [rsp+48]
	mov	rsi, QWORD PTR [rsp+56]
	add	rsp, 32					; 00000020H
	pop	rdi

; 380  :         return( EmitErr( SYNTAX_ERROR_EX, tokenarray[i].tokpos ) );

	jmp	EmitErr
$LN2@SetEpilogu:

; 381  :     }
; 382  :     if ( ModuleInfo.proc_epilogue ) {

	mov	QWORD PTR ModuleInfo+328, 0

; 383  :         LclFree( ModuleInfo.proc_epilogue );
; 384  :         ModuleInfo.proc_epilogue = NULL;
; 385  :     }
; 386  : 
; 387  :     if ( 0 == _stricmp( tokenarray[i].string_ptr, "NONE" ) ) {

	lea	rdx, OFFSET FLAT:$SG10947
	mov	rcx, QWORD PTR [rbx+8]
	call	_stricmp
	test	eax, eax
	jne	SHORT $LN4@SetEpilogu

; 388  :         ModuleInfo.epiloguemode = PEM_NONE;

	mov	BYTE PTR ModuleInfo+425, 2
	jmp	SHORT $LN7@SetEpilogu
$LN4@SetEpilogu:

; 389  :     } else if ( 0 == _stricmp( tokenarray[i].string_ptr, "EPILOGUEDEF" ) ) {

	mov	rcx, QWORD PTR [rbx+8]
	lea	rdx, OFFSET FLAT:$SG10950
	call	_stricmp
	test	eax, eax
	jne	SHORT $LN6@SetEpilogu

; 390  :         ModuleInfo.epiloguemode = PEM_DEFAULT;

	mov	BYTE PTR ModuleInfo+425, al

; 391  :     } else {

	jmp	SHORT $LN7@SetEpilogu
$LN6@SetEpilogu:

; 392  :         ModuleInfo.epiloguemode = PEM_MACRO;

	mov	BYTE PTR ModuleInfo+425, 1

; 393  :         ModuleInfo.proc_epilogue = LclAlloc( strlen( tokenarray[i].string_ptr ) + 1);

	or	rcx, -1
	mov	rax, QWORD PTR [rbx+8]
$LL13@SetEpilogu:
	inc	rcx
	cmp	BYTE PTR [rax+rcx], 0
	jne	SHORT $LL13@SetEpilogu
	inc	rcx
	call	LclAlloc
	mov	QWORD PTR ModuleInfo+328, rax

; 394  :         strcpy( ModuleInfo.proc_epilogue, tokenarray[i].string_ptr );

	mov	rdx, QWORD PTR [rbx+8]
$LL9@SetEpilogu:
	movzx	ecx, BYTE PTR [rdx]
	lea	rdx, QWORD PTR [rdx+1]
	mov	BYTE PTR [rax], cl
	lea	rax, QWORD PTR [rax+1]
	test	cl, cl
	jne	SHORT $LL9@SetEpilogu
$LN7@SetEpilogu:

; 395  :     }
; 396  : 
; 397  :     i++;
; 398  :     *pi = i;
; 399  :     return( NOT_ERROR );
; 400  : }

	mov	rbx, QWORD PTR [rsp+48]
	lea	eax, DWORD PTR [rsi+1]
	mov	rsi, QWORD PTR [rsp+56]
	mov	DWORD PTR [rdi], eax
	xor	eax, eax
	add	rsp, 32					; 00000020H
	pop	rdi
	ret	0
SetEpilogue ENDP
_TEXT	ENDS
; Function compile flags: /Ogtpy
; File d:\hjwasm\hjwasm2.13.1s\hjwasm2.13.1s\option.c
_TEXT	SEGMENT
pi$ = 48
tokenarray$ = 56
SetPrologue PROC

; 344  : {

	mov	QWORD PTR [rsp+8], rbx
	mov	QWORD PTR [rsp+16], rsi
	push	rdi
	sub	rsp, 32					; 00000020H

; 345  :     int i = *pi;

	movsxd	rsi, DWORD PTR [rcx]
	mov	rdi, rcx

; 346  : 
; 347  :     if ( tokenarray[i].token != T_ID ) {

	mov	rbx, rsi
	shl	rbx, 5
	add	rbx, rdx
	cmp	BYTE PTR [rbx], 8
	je	SHORT $LN2@SetPrologu

; 348  :         return( EmitErr( SYNTAX_ERROR_EX, tokenarray[i].tokpos ) );

	mov	rdx, QWORD PTR [rbx+24]
	mov	ecx, 210				; 000000d2H

; 362  :     }
; 363  : 
; 364  :     i++;
; 365  :     *pi = i;
; 366  :     return( NOT_ERROR );
; 367  : }

	mov	rbx, QWORD PTR [rsp+48]
	mov	rsi, QWORD PTR [rsp+56]
	add	rsp, 32					; 00000020H
	pop	rdi

; 348  :         return( EmitErr( SYNTAX_ERROR_EX, tokenarray[i].tokpos ) );

	jmp	EmitErr
$LN2@SetPrologu:

; 349  :     }
; 350  :     if ( ModuleInfo.proc_prologue ) {

	mov	QWORD PTR ModuleInfo+320, 0

; 351  :         LclFree( ModuleInfo.proc_prologue );
; 352  :         ModuleInfo.proc_prologue = NULL;
; 353  :     }
; 354  :     if ( 0 == _stricmp( tokenarray[i].string_ptr, "NONE" ) ) {

	lea	rdx, OFFSET FLAT:$SG10931
	mov	rcx, QWORD PTR [rbx+8]
	call	_stricmp
	test	eax, eax
	jne	SHORT $LN4@SetPrologu

; 355  :         ModuleInfo.prologuemode = PEM_NONE;

	mov	BYTE PTR ModuleInfo+424, 2
	jmp	SHORT $LN7@SetPrologu
$LN4@SetPrologu:

; 356  :     } else if ( 0 == _stricmp( tokenarray[i].string_ptr, "PROLOGUEDEF" ) ) {

	mov	rcx, QWORD PTR [rbx+8]
	lea	rdx, OFFSET FLAT:$SG10934
	call	_stricmp
	test	eax, eax
	jne	SHORT $LN6@SetPrologu

; 357  :         ModuleInfo.prologuemode = PEM_DEFAULT;

	mov	BYTE PTR ModuleInfo+424, al

; 358  :     } else {

	jmp	SHORT $LN7@SetPrologu
$LN6@SetPrologu:

; 359  :         ModuleInfo.prologuemode = PEM_MACRO;

	mov	BYTE PTR ModuleInfo+424, 1

; 360  :         ModuleInfo.proc_prologue = LclAlloc( strlen( tokenarray[i].string_ptr ) + 1);

	or	rcx, -1
	mov	rax, QWORD PTR [rbx+8]
$LL13@SetPrologu:
	inc	rcx
	cmp	BYTE PTR [rax+rcx], 0
	jne	SHORT $LL13@SetPrologu
	inc	rcx
	call	LclAlloc
	mov	QWORD PTR ModuleInfo+320, rax

; 361  :         strcpy( ModuleInfo.proc_prologue, tokenarray[i].string_ptr );

	mov	rdx, QWORD PTR [rbx+8]
$LL9@SetPrologu:
	movzx	ecx, BYTE PTR [rdx]
	lea	rdx, QWORD PTR [rdx+1]
	mov	BYTE PTR [rax], cl
	lea	rax, QWORD PTR [rax+1]
	test	cl, cl
	jne	SHORT $LL9@SetPrologu
$LN7@SetPrologu:

; 362  :     }
; 363  : 
; 364  :     i++;
; 365  :     *pi = i;
; 366  :     return( NOT_ERROR );
; 367  : }

	mov	rbx, QWORD PTR [rsp+48]
	lea	eax, DWORD PTR [rsi+1]
	mov	rsi, QWORD PTR [rsp+56]
	mov	DWORD PTR [rdi], eax
	xor	eax, eax
	add	rsp, 32					; 00000020H
	pop	rdi
	ret	0
SetPrologue ENDP
_TEXT	ENDS
; Function compile flags: /Ogtpy
; File d:\hjwasm\hjwasm2.13.1s\hjwasm2.13.1s\option.c
_TEXT	SEGMENT
pi$ = 48
tokenarray$ = 56
SetSetIF2 PROC

; 311  : {

	mov	QWORD PTR [rsp+8], rbx
	mov	QWORD PTR [rsp+16], rsi
	push	rdi
	sub	rsp, 32					; 00000020H

; 312  :     int i = *pi;

	movsxd	rbx, DWORD PTR [rcx]
	mov	rdi, rcx

; 313  : 
; 314  :     if ( 0 == _stricmp( tokenarray[i].string_ptr, "TRUE" ) ) {

	mov	rsi, rbx
	shl	rsi, 5
	add	rsi, rdx
	lea	rdx, OFFSET FLAT:$SG10916
	mov	rcx, QWORD PTR [rsi+8]
	call	_stricmp
	test	eax, eax
	jne	SHORT $LN2@SetSetIF2

; 315  :         ModuleInfo.setif2 = TRUE;

	or	DWORD PTR ModuleInfo+408, 1024		; 00000400H

; 316  :         i++;

	jmp	SHORT $LN7@SetSetIF2
$LN2@SetSetIF2:

; 317  :     } else if ( 0 == _stricmp( tokenarray[i].string_ptr, "FALSE" ) ) {

	mov	rcx, QWORD PTR [rsi+8]
	lea	rdx, OFFSET FLAT:$SG10918
	call	_stricmp
	test	eax, eax
	jne	SHORT $LN6@SetSetIF2

; 318  :         ModuleInfo.setif2 = FALSE;

	and	DWORD PTR ModuleInfo+408, -1025		; fffffbffH
$LN7@SetSetIF2:

; 319  :         i++;

	inc	ebx
$LN6@SetSetIF2:

; 320  :     }
; 321  :     *pi = i;
; 322  :     return( NOT_ERROR );
; 323  : }

	mov	rsi, QWORD PTR [rsp+56]
	xor	eax, eax
	mov	DWORD PTR [rdi], ebx
	mov	rbx, QWORD PTR [rsp+48]
	add	rsp, 32					; 00000020H
	pop	rdi
	ret	0
SetSetIF2 ENDP
_TEXT	ENDS
; Function compile flags: /Ogtpy
; File d:\hjwasm\hjwasm2.13.1s\hjwasm2.13.1s\option.c
_TEXT	SEGMENT
i$ = 48
pi$ = 48
tokenarray$ = 56
SetLanguage PROC

; 288  : {

	mov	QWORD PTR [rsp+16], rbx
	push	rdi
	sub	rsp, 32					; 00000020H

; 289  :     int i = *pi;

	movsxd	r8, DWORD PTR [rcx]
	mov	rbx, rdx

; 290  :     //lang_type langtype;
; 291  :     //int language = ERROR;
; 292  : 
; 293  :     if ( tokenarray[i].token == T_RES_ID ) {

	mov	rax, r8
	mov	DWORD PTR i$[rsp], r8d
	shl	rax, 5
	mov	rdi, rcx
	cmp	BYTE PTR [rax+rdx], 7
	jne	SHORT $LN3@SetLanguag

; 294  :         if ( GetLangType( &i, tokenarray, &ModuleInfo.langtype ) == NOT_ERROR ) {

	lea	r8, OFFSET FLAT:ModuleInfo+364
	lea	rcx, QWORD PTR i$[rsp]
	call	GetLangType
	test	eax, eax
	jne	SHORT $LN6@SetLanguag

; 295  :             /* update @Interface assembly time variable */
; 296  :             if ( ModuleInfo.model != MODEL_NONE && sym_Interface )

	cmp	DWORD PTR ModuleInfo+360, eax
	je	SHORT $LN4@SetLanguag
	mov	rcx, QWORD PTR sym_Interface
	test	rcx, rcx
	je	SHORT $LN4@SetLanguag

; 297  :                 sym_Interface->value = ModuleInfo.langtype;

	mov	eax, DWORD PTR ModuleInfo+364
	mov	DWORD PTR [rcx+16], eax
$LN4@SetLanguag:

; 298  :             *pi = i;

	mov	eax, DWORD PTR i$[rsp]
	mov	DWORD PTR [rdi], eax

; 299  :             return( NOT_ERROR );

	xor	eax, eax

; 303  : }

	mov	rbx, QWORD PTR [rsp+56]
	add	rsp, 32					; 00000020H
	pop	rdi
	ret	0
$LN6@SetLanguag:

; 299  :             return( NOT_ERROR );

	mov	r8d, DWORD PTR i$[rsp]
$LN3@SetLanguag:

; 300  :         }
; 301  :     }
; 302  :     return( EmitErr( SYNTAX_ERROR_EX, tokenarray[i].tokpos ) );

	movsxd	rdx, r8d
	mov	ecx, 210				; 000000d2H
	shl	rdx, 5
	mov	rdx, QWORD PTR [rdx+rbx+24]
	call	EmitErr

; 303  : }

	mov	rbx, QWORD PTR [rsp+56]
	add	rsp, 32					; 00000020H
	pop	rdi
	ret	0
SetLanguage ENDP
_TEXT	ENDS
; Function compile flags: /Ogtpy
; File d:\hjwasm\hjwasm2.13.1s\hjwasm2.13.1s\option.c
_TEXT	SEGMENT
pi$ = 48
tokenarray$ = 56
SetNoKeyword PROC

; 240  : {

	mov	QWORD PTR [rsp+32], rbp
	push	r14
	sub	rsp, 32					; 00000020H

; 241  :     int i = *pi;

	movsxd	rbp, DWORD PTR [rcx]
	mov	r8, rdx

; 242  :     //struct ReservedWord *resw;
; 243  :     unsigned index;
; 244  :     char *p;
; 245  : 
; 246  :     if( Parse_Pass != PASS_1 ) {
; 247  :         SkipOption( pi, tokenarray );

	mov	rax, rbp
	mov	r14, rcx
	shl	rax, 5
	cmp	DWORD PTR Parse_Pass, 0
	je	SHORT $LN12@SetNoKeywo
	cmp	BYTE PTR [rax+rdx], 0
	je	SHORT $LN49@SetNoKeywo
	npad	6
$LL24@SetNoKeywo:
	movsxd	rdx, DWORD PTR [r14]
	mov	rax, rdx
	shl	rax, 5
	cmp	BYTE PTR [rax+r8], 44			; 0000002cH
	je	SHORT $LN49@SetNoKeywo
	lea	eax, DWORD PTR [rdx+1]
	movsxd	rcx, eax
	shl	rcx, 5
	mov	DWORD PTR [r14], eax
	cmp	BYTE PTR [rcx+r8], 0
	jne	SHORT $LL24@SetNoKeywo
$LN49@SetNoKeywo:

; 248  :         return( NOT_ERROR);

	xor	eax, eax

; 282  : }

	mov	rbp, QWORD PTR [rsp+72]
	add	rsp, 32					; 00000020H
	pop	r14
	ret	0
$LN12@SetNoKeywo:

; 249  :     }
; 250  :     if ( tokenarray[i].token != T_STRING || tokenarray[i].string_delim != '<' ) {

	add	rdx, rax
	cmp	BYTE PTR [rdx], 9
	jne	$LN14@SetNoKeywo
	cmp	BYTE PTR [rdx+1], 60			; 0000003cH
	jne	$LN14@SetNoKeywo

; 252  :     }
; 253  :     for ( p = tokenarray[i].string_ptr; *p; ) {

	mov	QWORD PTR [rsp+48], rbx
	mov	rbx, QWORD PTR [rdx+8]
	mov	QWORD PTR [rsp+56], rsi
	mov	QWORD PTR [rsp+64], rdi
	movzx	eax, BYTE PTR [rbx]
	test	al, al
	je	$LN48@SetNoKeywo
$LL2@SetNoKeywo:

; 254  :         while ( isspace( *p ) ) p++;

	movsx	ecx, al
	call	isspace
	test	eax, eax
	je	SHORT $LN6@SetNoKeywo
$LL5@SetNoKeywo:
	movsx	ecx, BYTE PTR [rbx+1]
	inc	rbx
	call	isspace
	test	eax, eax
	jne	SHORT $LL5@SetNoKeywo
$LN6@SetNoKeywo:

; 255  :         if ( *p ) {

	movzx	eax, BYTE PTR [rbx]
	test	al, al
	je	SHORT $LN31@SetNoKeywo

; 256  :             char *p2 = p;

	mov	rsi, rbx
	npad	3
$LL9@SetNoKeywo:

; 260  :                 if ( isspace( *p ) || *p == ',' )

	movsx	ecx, al
	call	isspace
	test	eax, eax
	jne	SHORT $LN32@SetNoKeywo
	cmp	BYTE PTR [rbx], 44			; 0000002cH
	je	SHORT $LN32@SetNoKeywo

; 257  :             unsigned char cnt;
; 258  :             //struct instr_item *instruct;
; 259  :             for ( ;*p; p++ ) {

	movzx	eax, BYTE PTR [rbx+1]
	inc	rbx
	test	al, al
	jne	SHORT $LL9@SetNoKeywo
$LN32@SetNoKeywo:

; 261  :                     break;
; 262  :             }
; 263  :             cnt = p - p2;

	movzx	edi, bl

; 264  :             /* todo: if MAX_ID_LEN can be > 255, then check size,
; 265  :              * since a reserved word's size must be <= 255
; 266  :              */
; 267  :             index = FindResWord( p2, cnt );

	mov	rcx, rsi
	sub	dil, sil
	movzx	edx, dil
	call	FindResWord

; 268  :             if ( index != 0 )

	test	eax, eax
	je	SHORT $LN18@SetNoKeywo

; 269  :                 DisableKeyword( index );

	mov	ecx, eax
	call	DisableKeyword
	jmp	SHORT $LN31@SetNoKeywo
$LN18@SetNoKeywo:

; 270  :             else {
; 271  :                 if ( IsKeywordDisabled( p2, cnt ) ) {

	movzx	edx, dil
	mov	rcx, rsi
	call	IsKeywordDisabled
	test	al, al
	jne	SHORT $LN33@SetNoKeywo
$LN31@SetNoKeywo:

; 273  :                 }
; 274  :             }
; 275  :         }
; 276  :         while ( isspace(*p) ) p++;

	movsx	ecx, BYTE PTR [rbx]
	call	isspace
	test	eax, eax
	je	SHORT $LN11@SetNoKeywo
	npad	9
$LL10@SetNoKeywo:
	movsx	ecx, BYTE PTR [rbx+1]
	inc	rbx
	call	isspace
	test	eax, eax
	jne	SHORT $LL10@SetNoKeywo
$LN11@SetNoKeywo:

; 277  :         if (*p == ',') p++;

	cmp	BYTE PTR [rbx], 44			; 0000002cH
	jne	SHORT $LN21@SetNoKeywo
	inc	rbx
$LN21@SetNoKeywo:

; 252  :     }
; 253  :     for ( p = tokenarray[i].string_ptr; *p; ) {

	movzx	eax, BYTE PTR [rbx]
	test	al, al
	jne	$LL2@SetNoKeywo
$LN48@SetNoKeywo:

; 278  :     }
; 279  :     i++;

	lea	eax, DWORD PTR [rbp+1]

; 280  :     *pi = i;

	mov	DWORD PTR [r14], eax

; 281  :     return( NOT_ERROR );

	xor	eax, eax
$LN52@SetNoKeywo:
	mov	rsi, QWORD PTR [rsp+56]
	mov	rbx, QWORD PTR [rsp+48]
	mov	rdi, QWORD PTR [rsp+64]

; 282  : }

	mov	rbp, QWORD PTR [rsp+72]
	add	rsp, 32					; 00000020H
	pop	r14
	ret	0
$LN33@SetNoKeywo:

; 272  :                     return( EmitError( RESERVED_WORD_EXPECTED ) );

	mov	ecx, 159				; 0000009fH
	call	EmitError
	jmp	SHORT $LN52@SetNoKeywo
$LN14@SetNoKeywo:

; 251  :         return( EmitErr( SYNTAX_ERROR_EX, tokenarray[i].tokpos ) );

	mov	rdx, QWORD PTR [rdx+24]
	mov	ecx, 210				; 000000d2H

; 282  : }

	mov	rbp, QWORD PTR [rsp+72]
	add	rsp, 32					; 00000020H
	pop	r14

; 251  :         return( EmitErr( SYNTAX_ERROR_EX, tokenarray[i].tokpos ) );

	jmp	EmitErr
SetNoKeyword ENDP
_TEXT	ENDS
; Function compile flags: /Ogtpy
; File d:\hjwasm\hjwasm2.13.1s\hjwasm2.13.1s\option.c
;	COMDAT SkipOption
_TEXT	SEGMENT
pi$ = 8
tokenarray$ = 16
SkipOption PROC						; COMDAT

; 230  :     while ( tokenarray[*pi].token != T_FINAL &&

	movsxd	rax, DWORD PTR [rcx]
	mov	r9, rcx
	shl	rax, 5
	cmp	BYTE PTR [rax+rdx], 0
	je	SHORT $LN3@SkipOption
$LL2@SkipOption:
	movsxd	r8, DWORD PTR [r9]
	mov	rax, r8
	shl	rax, 5
	cmp	BYTE PTR [rax+rdx], 44			; 0000002cH
	je	SHORT $LN3@SkipOption

; 231  :            tokenarray[*pi].token != T_COMMA )
; 232  :         (*pi)++;

	lea	eax, DWORD PTR [r8+1]
	movsxd	rcx, eax
	shl	rcx, 5
	mov	DWORD PTR [r9], eax
	cmp	BYTE PTR [rcx+rdx], 0
	jne	SHORT $LL2@SkipOption
$LN3@SkipOption:

; 233  : }

	ret	0
SkipOption ENDP
_TEXT	ENDS
; Function compile flags: /Ogtpy
; File d:\hjwasm\hjwasm2.13.1s\hjwasm2.13.1s\option.c
_TEXT	SEGMENT
pi$ = 8
tokenarray$ = 16
SetNoSignExt PROC

; 223  :     ModuleInfo.NoSignExtend = TRUE;

	or	DWORD PTR ModuleInfo+408, 262144	; 00040000H

; 224  :     return( NOT_ERROR );

	xor	eax, eax

; 225  : }

	ret	0
SetNoSignExt ENDP
_TEXT	ENDS
; Function compile flags: /Ogtpy
; File d:\hjwasm\hjwasm2.13.1s\hjwasm2.13.1s\option.c
_TEXT	SEGMENT
pi$ = 8
tokenarray$ = 16
SetExpr32 PROC

; 216  :     /* default, nothing to do */
; 217  :     return( NOT_ERROR );

	xor	eax, eax

; 218  : }

	ret	0
SetExpr32 ENDP
_TEXT	ENDS
; Function compile flags: /Ogtpy
; File d:\hjwasm\hjwasm2.13.1s\hjwasm2.13.1s\option.c
_TEXT	SEGMENT
pi$ = 8
tokenarray$ = 16
SetNoOldmacros PROC

; 207  :     /* default, nothing to do */
; 208  :     return( NOT_ERROR );

	xor	eax, eax

; 209  : }

	ret	0
SetNoOldmacros ENDP
_TEXT	ENDS
; Function compile flags: /Ogtpy
; File d:\hjwasm\hjwasm2.13.1s\hjwasm2.13.1s\option.c
_TEXT	SEGMENT
pi$ = 8
tokenarray$ = 16
SetNoReadonly PROC

; 198  :     /* default, nothing to do */
; 199  :     return( NOT_ERROR );

	xor	eax, eax

; 200  : }

	ret	0
SetNoReadonly ENDP
_TEXT	ENDS
; Function compile flags: /Ogtpy
; File d:\hjwasm\hjwasm2.13.1s\hjwasm2.13.1s\option.c
_TEXT	SEGMENT
pi$ = 8
tokenarray$ = 16
SetNoLJmp PROC

; 189  :     ModuleInfo.ljmp = FALSE;

	and	DWORD PTR ModuleInfo+408, -33		; ffffffdfH

; 190  :     return( NOT_ERROR );

	xor	eax, eax

; 191  : }

	ret	0
SetNoLJmp ENDP
_TEXT	ENDS
; Function compile flags: /Ogtpy
; File d:\hjwasm\hjwasm2.13.1s\hjwasm2.13.1s\option.c
_TEXT	SEGMENT
pi$ = 8
tokenarray$ = 16
SetLJmp	PROC

; 180  :     ModuleInfo.ljmp = TRUE;

	or	DWORD PTR ModuleInfo+408, 32		; 00000020H

; 181  :     return( NOT_ERROR );

	xor	eax, eax

; 182  : }

	ret	0
SetLJmp	ENDP
_TEXT	ENDS
; Function compile flags: /Ogtpy
; File d:\hjwasm\hjwasm2.13.1s\hjwasm2.13.1s\option.c
_TEXT	SEGMENT
pi$ = 8
tokenarray$ = 16
SetNoEmulator PROC

; 171  :     ModuleInfo.emulator = FALSE;

	and	DWORD PTR ModuleInfo+408, -513		; fffffdffH

; 172  :     return( NOT_ERROR );

	xor	eax, eax

; 173  : }

	ret	0
SetNoEmulator ENDP
_TEXT	ENDS
; Function compile flags: /Ogtpy
; File d:\hjwasm\hjwasm2.13.1s\hjwasm2.13.1s\option.c
_TEXT	SEGMENT
pi$ = 8
tokenarray$ = 16
SetEmulator PROC

; 162  :     ModuleInfo.emulator = TRUE;

	or	DWORD PTR ModuleInfo+408, 512		; 00000200H

; 163  :     return( NOT_ERROR );

	xor	eax, eax

; 164  : }

	ret	0
SetEmulator ENDP
_TEXT	ENDS
; Function compile flags: /Ogtpy
; File d:\hjwasm\hjwasm2.13.1s\hjwasm2.13.1s\option.c
_TEXT	SEGMENT
pi$ = 8
tokenarray$ = 16
SetNoOldStructs PROC

; 153  :     ModuleInfo.oldstructs = FALSE;

	and	DWORD PTR ModuleInfo+408, -257		; fffffeffH

; 154  :     return( NOT_ERROR );

	xor	eax, eax

; 155  : }

	ret	0
SetNoOldStructs ENDP
_TEXT	ENDS
; Function compile flags: /Ogtpy
; File d:\hjwasm\hjwasm2.13.1s\hjwasm2.13.1s\option.c
_TEXT	SEGMENT
pi$ = 8
tokenarray$ = 16
SetOldStructs PROC

; 144  :     ModuleInfo.oldstructs = TRUE;

	or	DWORD PTR ModuleInfo+408, 256		; 00000100H

; 145  :     return( NOT_ERROR );

	xor	eax, eax

; 146  : }

	ret	0
SetOldStructs ENDP
_TEXT	ENDS
; Function compile flags: /Ogtpy
; File d:\hjwasm\hjwasm2.13.1s\hjwasm2.13.1s\option.c
_TEXT	SEGMENT
pi$ = 8
tokenarray$ = 16
SetNoScoped PROC

; 135  :     ModuleInfo.scoped = FALSE;

	and	DWORD PTR ModuleInfo+408, -129		; ffffff7fH

; 136  :     return( NOT_ERROR );

	xor	eax, eax

; 137  : }

	ret	0
SetNoScoped ENDP
_TEXT	ENDS
; Function compile flags: /Ogtpy
; File d:\hjwasm\hjwasm2.13.1s\hjwasm2.13.1s\option.c
_TEXT	SEGMENT
pi$ = 8
tokenarray$ = 16
SetScoped PROC

; 126  :     ModuleInfo.scoped = TRUE;

	or	DWORD PTR ModuleInfo+408, 128		; 00000080H

; 127  :     return( NOT_ERROR );

	xor	eax, eax

; 128  : }

	ret	0
SetScoped ENDP
_TEXT	ENDS
; Function compile flags: /Ogtpy
; File d:\hjwasm\hjwasm2.13.1s\hjwasm2.13.1s\option.c
_TEXT	SEGMENT
pi$ = 48
tokenarray$ = 56
SetNoM510 PROC

; 116  : {

	sub	rsp, 40					; 00000028H

; 117  :     SetMasm510(FALSE);

	xor	ecx, ecx
	call	SetMasm510

; 118  :     return( NOT_ERROR );

	xor	eax, eax

; 119  : }

	add	rsp, 40					; 00000028H
	ret	0
SetNoM510 ENDP
_TEXT	ENDS
; Function compile flags: /Ogtpy
; File d:\hjwasm\hjwasm2.13.1s\hjwasm2.13.1s\option.c
_TEXT	SEGMENT
pi$ = 48
tokenarray$ = 56
SetM510	PROC

; 107  : {

	sub	rsp, 40					; 00000028H

; 108  :     SetMasm510( TRUE );

	mov	cl, 1
	call	SetMasm510

; 109  :     return( NOT_ERROR );

	xor	eax, eax

; 110  : }

	add	rsp, 40					; 00000028H
	ret	0
SetM510	ENDP
_TEXT	ENDS
; Function compile flags: /Ogtpy
; File d:\hjwasm\hjwasm2.13.1s\hjwasm2.13.1s\option.c
_TEXT	SEGMENT
pi$ = 48
tokenarray$ = 56
SetCaseMap PROC

; 78   : {

	mov	QWORD PTR [rsp+8], rbx
	mov	QWORD PTR [rsp+16], rsi
	push	rdi
	sub	rsp, 32					; 00000020H

; 79   :     int i = *pi;

	movsxd	rsi, DWORD PTR [rcx]
	mov	rdi, rcx

; 80   :     if ( tokenarray[i].token == T_ID ) {

	mov	rbx, rsi
	shl	rbx, 5
	add	rbx, rdx
	cmp	BYTE PTR [rbx], 8
	jne	$LN2@SetCaseMap

; 81   :         if ( 0 == _stricmp( tokenarray[i].string_ptr, "NONE" ) ) {

	mov	rcx, QWORD PTR [rbx+8]
	lea	rdx, OFFSET FLAT:$SG10767
	call	_stricmp
	test	eax, eax
	jne	SHORT $LN4@SetCaseMap

; 82   :             ModuleInfo.case_sensitive = TRUE;        /* -Cx */
; 83   :             ModuleInfo.convert_uppercase = FALSE;

	mov	eax, DWORD PTR ModuleInfo+408
	and	eax, -3					; fffffffdH
	or	eax, 1
	jmp	SHORT $LN11@SetCaseMap
$LN4@SetCaseMap:

; 84   :         } else if ( 0 == _stricmp( tokenarray[i].string_ptr, "NOTPUBLIC" ) ) {

	mov	rcx, QWORD PTR [rbx+8]
	lea	rdx, OFFSET FLAT:$SG10770
	call	_stricmp
	test	eax, eax
	jne	SHORT $LN6@SetCaseMap

; 85   :             ModuleInfo.case_sensitive = FALSE;       /* -Cp */
; 86   :             ModuleInfo.convert_uppercase = FALSE;

	and	DWORD PTR ModuleInfo+408, -4		; fffffffcH

; 90   :         } else {
; 91   :             return( EmitErr( SYNTAX_ERROR_EX, tokenarray[i].tokpos ) );
; 92   :         }
; 93   :         DebugMsg1(("SetCaseMap(%s) ok\n", tokenarray[i].string_ptr ));
; 94   :         i++;
; 95   :         SymSetCmpFunc();

	call	SymSetCmpFunc
	lea	eax, DWORD PTR [rsi+1]

; 98   :     }
; 99   :     *pi = i;

	mov	DWORD PTR [rdi], eax

; 100  :     return( NOT_ERROR );

	xor	eax, eax

; 101  : }

	mov	rbx, QWORD PTR [rsp+48]
	mov	rsi, QWORD PTR [rsp+56]
	add	rsp, 32					; 00000020H
	pop	rdi
	ret	0
$LN6@SetCaseMap:

; 87   :         } else if ( 0 == _stricmp( tokenarray[i].string_ptr, "ALL" ) ) {

	mov	rcx, QWORD PTR [rbx+8]
	lea	rdx, OFFSET FLAT:$SG10773
	call	_stricmp
	test	eax, eax
	jne	SHORT $LN2@SetCaseMap

; 88   :             ModuleInfo.case_sensitive = FALSE;       /* -Cu */

	mov	eax, DWORD PTR ModuleInfo+408
	and	eax, -2					; fffffffeH

; 89   :             ModuleInfo.convert_uppercase = TRUE;

	or	eax, 2
$LN11@SetCaseMap:
	mov	DWORD PTR ModuleInfo+408, eax

; 90   :         } else {
; 91   :             return( EmitErr( SYNTAX_ERROR_EX, tokenarray[i].tokpos ) );
; 92   :         }
; 93   :         DebugMsg1(("SetCaseMap(%s) ok\n", tokenarray[i].string_ptr ));
; 94   :         i++;
; 95   :         SymSetCmpFunc();

	call	SymSetCmpFunc
	lea	eax, DWORD PTR [rsi+1]

; 98   :     }
; 99   :     *pi = i;

	mov	DWORD PTR [rdi], eax

; 100  :     return( NOT_ERROR );

	xor	eax, eax

; 101  : }

	mov	rbx, QWORD PTR [rsp+48]
	mov	rsi, QWORD PTR [rsp+56]
	add	rsp, 32					; 00000020H
	pop	rdi
	ret	0
$LN2@SetCaseMap:

; 96   :     } else {
; 97   :         return( EmitErr( SYNTAX_ERROR_EX, tokenarray[i].tokpos ) );

	mov	rdx, QWORD PTR [rbx+24]
	mov	ecx, 210				; 000000d2H

; 101  : }

	mov	rbx, QWORD PTR [rsp+48]
	mov	rsi, QWORD PTR [rsp+56]
	add	rsp, 32					; 00000020H
	pop	rdi

; 96   :     } else {
; 97   :         return( EmitErr( SYNTAX_ERROR_EX, tokenarray[i].tokpos ) );

	jmp	EmitErr
SetCaseMap ENDP
_TEXT	ENDS
; Function compile flags: /Ogtpy
; File d:\hjwasm\hjwasm2.13.1s\hjwasm2.13.1s\option.c
_TEXT	SEGMENT
pi$ = 8
tokenarray$ = 16
SetNoDotName PROC

; 70   :     ModuleInfo.dotname = FALSE;

	and	DWORD PTR ModuleInfo+408, -17		; ffffffefH

; 71   :     return( NOT_ERROR );

	xor	eax, eax

; 72   : }

	ret	0
SetNoDotName ENDP
_TEXT	ENDS
; Function compile flags: /Ogtpy
; File d:\hjwasm\hjwasm2.13.1s\hjwasm2.13.1s\option.c
_TEXT	SEGMENT
pi$ = 8
tokenarray$ = 16
SetDotName PROC

; 61   :     ModuleInfo.dotname = TRUE;

	or	DWORD PTR ModuleInfo+408, 16

; 62   :     return( NOT_ERROR );

	xor	eax, eax

; 63   : }

	ret	0
SetDotName ENDP
_TEXT	ENDS
; Function compile flags: /Ogtpy
; File d:\hjwasm\hjwasm2.13.1s\hjwasm2.13.1s\option.c
_TEXT	SEGMENT
opndx$ = 48
i$ = 176
pi$ = 176
tokenarray$ = 184
SetEvex	PROC

; 37   : {

	mov	r11, rsp
	push	rbx
	sub	rsp, 160				; 000000a0H

; 38   : 	int i = *pi;

	mov	eax, DWORD PTR [rcx]

; 39   : 	struct expr opndx;
; 40   : 
; 41   : 	if (EvalOperand(&i, tokenarray, Token_Count, &opndx, 0) == ERROR)

	lea	r9, QWORD PTR [r11-120]
	mov	r8d, DWORD PTR ModuleInfo+496
	mov	rbx, rcx
	lea	rcx, QWORD PTR [r11+8]
	mov	DWORD PTR [r11+8], eax
	mov	BYTE PTR [rsp+32], 0
	call	EvalOperand
	cmp	eax, -1
	jne	SHORT $LN2@SetEvex

; 42   : 		return(ERROR);

	or	eax, eax

; 54   : }

	add	rsp, 160				; 000000a0H
	pop	rbx
	ret	0
$LN2@SetEvex:

; 43   : 	if (opndx.kind == EXPR_CONST) {

	cmp	DWORD PTR opndx$[rsp+60], 0
	jne	SHORT $LN3@SetEvex

; 44   : 		if (opndx.llvalue > 1) {

	mov	rax, QWORD PTR opndx$[rsp]
	cmp	rax, 1
	jbe	SHORT $LN5@SetEvex

; 45   : 			return(EmitConstError(&opndx));

	lea	rcx, QWORD PTR opndx$[rsp]
	call	EmitConstError

; 54   : }

	add	rsp, 160				; 000000a0H
	pop	rbx
	ret	0
$LN5@SetEvex:

; 46   : 		}
; 47   : 		evex = opndx.llvalue;

	mov	BYTE PTR evex, al

; 51   : 	}
; 52   : 	*pi = i;

	mov	eax, DWORD PTR i$[rsp]
	mov	DWORD PTR [rbx], eax

; 53   : 	return(NOT_ERROR);

	xor	eax, eax

; 54   : }

	add	rsp, 160				; 000000a0H
	pop	rbx
	ret	0
$LN3@SetEvex:

; 48   : 	}
; 49   : 	else {
; 50   : 		return(EmitError(CONSTANT_EXPECTED));

	mov	ecx, 66					; 00000042H
	call	EmitError

; 54   : }

	add	rsp, 160				; 000000a0H
	pop	rbx
	ret	0
SetEvex	ENDP
_TEXT	ENDS
END
