; Listing generated by Microsoft (R) Optimizing Compiler Version 19.00.23026.0 

include listing.inc

INCLUDELIB LIBCMT
INCLUDELIB OLDNAMES

_DATA	SEGMENT
COMM	SymTables:BYTE:060H
COMM	SegOverride:QWORD
COMM	decoflags:BYTE
COMM	broadflags:BYTE
_DATA	ENDS
_DATA	SEGMENT
$SG12339 DB	'WORD', 00H
	ORG $+3
$SG12346 DB	'DWORD', 00H
	ORG $+2
$SG12350 DB	'BYTE', 00H
	ORG $+3
$SG12367 DB	'BYTE', 00H
	ORG $+3
$SG12370 DB	'WORD', 00H
	ORG $+3
$SG12374 DB	'DWORD', 00H
	ORG $+2
$SG12271 DB	'BYTE', 00H
_DATA	ENDS
PUBLIC	SizeFromMemtype
PUBLIC	MemtypeFromSize
PUBLIC	SizeFromRegister
PUBLIC	GetLangType
PUBLIC	sym_add_table
PUBLIC	sym_remove_table
PUBLIC	sym_ext2int
PUBLIC	OperandSize
PUBLIC	set_frame
PUBLIC	set_frame2
PUBLIC	ParseLine
PUBLIC	ProcessFile
PUBLIC	segm_override
PUBLIC	idata_fixup
EXTRN	EmitError:PROC
EXTRN	EmitErr:PROC
EXTRN	EmitWarn:PROC
EXTRN	SymFind:PROC
EXTRN	WritePreprocessedLine:PROC
EXTRN	PreprocessLine:PROC
EXTRN	GetResWName:PROC
EXTRN	codegen:PROC
EXTRN	EvalOperand:PROC
EXTRN	EmitConstError:PROC
EXTRN	CreateFixup:PROC
EXTRN	SetFixupFrame:PROC
EXTRN	CreateLabel:PROC
EXTRN	GetSymOfssize:PROC
EXTRN	GetCurrOffset:PROC
EXTRN	GetAssume:PROC
EXTRN	GetOverrideAssume:PROC
EXTRN	RetInstr:PROC
EXTRN	write_prologue:PROC
EXTRN	GetTextLine:PROC
EXTRN	LstWrite:PROC
EXTRN	LstWriteSrcLine:PROC
EXTRN	data_dir:PROC
EXTRN	StoreLine:PROC
EXTRN	omf_OutSelect:PROC
EXTRN	AddPublicData:PROC
EXTRN	atofloat:PROC
EXTRN	process_branch:PROC
EXTRN	Options:BYTE
EXTRN	ModuleInfo:BYTE
EXTRN	Parse_Pass:DWORD
EXTRN	InstrTable:BYTE
EXTRN	SpecialTable:BYTE
EXTRN	optable_idx:BYTE
EXTRN	CurrStruct:QWORD
EXTRN	SegAssumeTable:BYTE
EXTRN	StdAssumeTable:BYTE
EXTRN	CurrProc:QWORD
EXTRN	StoreState:BYTE
EXTRN	UseSavedState:BYTE
EXTRN	directive_tab:BYTE
EXTRN	ProcStatus:DWORD
EXTRN	maxintvalues:BYTE
EXTRN	minintvalues:BYTE
EXTRN	opnd_clstab:BYTE
EXTRN	vex_flags:BYTE
EXTRN	Frame_Type:BYTE
EXTRN	Frame_Datum:WORD
EXTRN	__ImageBase:BYTE
_BSS	SEGMENT
LastRegOverride DD 01H DUP (?)
_BSS	ENDS
pdata	SEGMENT
$pdata$sym_ext2int DD imagerel $LN13
	DD	imagerel $LN13+139
	DD	imagerel $unwind$sym_ext2int
$pdata$ParseLine DD imagerel $LN325
	DD	imagerel $LN325+247
	DD	imagerel $unwind$ParseLine
$pdata$0$ParseLine DD imagerel $LN325+247
	DD	imagerel $LN325+1558
	DD	imagerel $chain$0$ParseLine
$pdata$3$ParseLine DD imagerel $LN325+1558
	DD	imagerel $LN325+4282
	DD	imagerel $chain$3$ParseLine
$pdata$4$ParseLine DD imagerel $LN325+4282
	DD	imagerel $LN325+4303
	DD	imagerel $chain$4$ParseLine
$pdata$ProcessFile DD imagerel $LN12
	DD	imagerel $LN12+107
	DD	imagerel $unwind$ProcessFile
pdata	ENDS
;	COMDAT pdata
pdata	SEGMENT
$pdata$check_assume DD imagerel check_assume
	DD	imagerel check_assume+47
	DD	imagerel $unwind$check_assume
pdata	ENDS
;	COMDAT pdata
pdata	SEGMENT
$pdata$0$check_assume DD imagerel check_assume+47
	DD	imagerel check_assume+143
	DD	imagerel $chain$0$check_assume
pdata	ENDS
;	COMDAT pdata
pdata	SEGMENT
$pdata$1$check_assume DD imagerel check_assume+143
	DD	imagerel check_assume+159
	DD	imagerel $chain$1$check_assume
pdata	ENDS
;	COMDAT pdata
pdata	SEGMENT
$pdata$seg_override DD imagerel seg_override
	DD	imagerel seg_override+91
	DD	imagerel $unwind$seg_override
pdata	ENDS
;	COMDAT pdata
pdata	SEGMENT
$pdata$0$seg_override DD imagerel seg_override+91
	DD	imagerel seg_override+309
	DD	imagerel $chain$0$seg_override
pdata	ENDS
;	COMDAT pdata
pdata	SEGMENT
$pdata$1$seg_override DD imagerel seg_override+309
	DD	imagerel seg_override+332
	DD	imagerel $chain$1$seg_override
pdata	ENDS
;	COMDAT pdata
pdata	SEGMENT
$pdata$set_rm_sib DD imagerel set_rm_sib
	DD	imagerel set_rm_sib+1116
	DD	imagerel $unwind$set_rm_sib
pdata	ENDS
pdata	SEGMENT
$pdata$segm_override DD imagerel $LN13
	DD	imagerel $LN13+210
	DD	imagerel $unwind$segm_override
pdata	ENDS
;	COMDAT pdata
pdata	SEGMENT
$pdata$idata_nofixup DD imagerel idata_nofixup
	DD	imagerel idata_nofixup+47
	DD	imagerel $unwind$idata_nofixup
pdata	ENDS
;	COMDAT pdata
pdata	SEGMENT
$pdata$1$idata_nofixup DD imagerel idata_nofixup+47
	DD	imagerel idata_nofixup+92
	DD	imagerel $chain$1$idata_nofixup
pdata	ENDS
;	COMDAT pdata
pdata	SEGMENT
$pdata$2$idata_nofixup DD imagerel idata_nofixup+92
	DD	imagerel idata_nofixup+221
	DD	imagerel $chain$2$idata_nofixup
pdata	ENDS
;	COMDAT pdata
pdata	SEGMENT
$pdata$4$idata_nofixup DD imagerel idata_nofixup+221
	DD	imagerel idata_nofixup+304
	DD	imagerel $chain$4$idata_nofixup
pdata	ENDS
;	COMDAT pdata
pdata	SEGMENT
$pdata$5$idata_nofixup DD imagerel idata_nofixup+304
	DD	imagerel idata_nofixup+309
	DD	imagerel $chain$5$idata_nofixup
pdata	ENDS
;	COMDAT pdata
pdata	SEGMENT
$pdata$6$idata_nofixup DD imagerel idata_nofixup+309
	DD	imagerel idata_nofixup+328
	DD	imagerel $chain$6$idata_nofixup
pdata	ENDS
;	COMDAT pdata
pdata	SEGMENT
$pdata$8$idata_nofixup DD imagerel idata_nofixup+328
	DD	imagerel idata_nofixup+527
	DD	imagerel $chain$8$idata_nofixup
pdata	ENDS
;	COMDAT pdata
pdata	SEGMENT
$pdata$9$idata_nofixup DD imagerel idata_nofixup+527
	DD	imagerel idata_nofixup+540
	DD	imagerel $chain$9$idata_nofixup
pdata	ENDS
pdata	SEGMENT
$pdata$idata_fixup DD imagerel $LN158
	DD	imagerel $LN158+55
	DD	imagerel $unwind$idata_fixup
$pdata$2$idata_fixup DD imagerel $LN158+55
	DD	imagerel $LN158+173
	DD	imagerel $chain$2$idata_fixup
$pdata$4$idata_fixup DD imagerel $LN158+173
	DD	imagerel $LN158+1650
	DD	imagerel $chain$4$idata_fixup
$pdata$5$idata_fixup DD imagerel $LN158+1650
	DD	imagerel $LN158+1676
	DD	imagerel $chain$5$idata_fixup
$pdata$7$idata_fixup DD imagerel $LN158+1676
	DD	imagerel $LN158+1934
	DD	imagerel $chain$7$idata_fixup
pdata	ENDS
;	COMDAT pdata
pdata	SEGMENT
$pdata$SetPtrMemtype DD imagerel SetPtrMemtype
	DD	imagerel SetPtrMemtype+172
	DD	imagerel $unwind$SetPtrMemtype
pdata	ENDS
;	COMDAT pdata
pdata	SEGMENT
$pdata$0$SetPtrMemtype DD imagerel SetPtrMemtype+172
	DD	imagerel SetPtrMemtype+233
	DD	imagerel $chain$0$SetPtrMemtype
pdata	ENDS
;	COMDAT pdata
pdata	SEGMENT
$pdata$1$SetPtrMemtype DD imagerel SetPtrMemtype+233
	DD	imagerel SetPtrMemtype+410
	DD	imagerel $chain$1$SetPtrMemtype
pdata	ENDS
;	COMDAT pdata
pdata	SEGMENT
$pdata$memory_operand DD imagerel memory_operand
	DD	imagerel memory_operand+332
	DD	imagerel $unwind$memory_operand
pdata	ENDS
;	COMDAT pdata
pdata	SEGMENT
$pdata$1$memory_operand DD imagerel memory_operand+332
	DD	imagerel memory_operand+1688
	DD	imagerel $chain$1$memory_operand
pdata	ENDS
;	COMDAT pdata
pdata	SEGMENT
$pdata$process_address DD imagerel process_address
	DD	imagerel process_address+598
	DD	imagerel $unwind$process_address
pdata	ENDS
;	COMDAT pdata
pdata	SEGMENT
$pdata$process_register DD imagerel process_register
	DD	imagerel process_register+696
	DD	imagerel $unwind$process_register
pdata	ENDS
;	COMDAT pdata
pdata	SEGMENT
$pdata$HandleStringInstructions DD imagerel HandleStringInstructions
	DD	imagerel HandleStringInstructions+788
	DD	imagerel $unwind$HandleStringInstructions
pdata	ENDS
;	COMDAT pdata
pdata	SEGMENT
$pdata$check_size DD imagerel check_size
	DD	imagerel check_size+2420
	DD	imagerel $unwind$check_size
pdata	ENDS
;	COMDAT pdata
pdata	SEGMENT
$pdata$IsType DD imagerel IsType
	DD	imagerel IsType+27
	DD	imagerel $unwind$IsType
pdata	ENDS
;	COMDAT xdata
xdata	SEGMENT
$unwind$IsType DD 010401H
	DD	04204H
xdata	ENDS
;	COMDAT xdata
xdata	SEGMENT
$unwind$check_size DD 0c1c01H
	DD	0c641cH
	DD	0b541cH
	DD	0a341cH
	DD	0f018321cH
	DD	0d014e016H
	DD	07010c012H
xdata	ENDS
;	COMDAT xdata
xdata	SEGMENT
$unwind$HandleStringInstructions DD 060f01H
	DD	07640fH
	DD	06340fH
	DD	0700b320fH
xdata	ENDS
;	COMDAT xdata
xdata	SEGMENT
$unwind$process_register DD 081401H
	DD	086414H
	DD	075414H
	DD	063414H
	DD	070103214H
xdata	ENDS
;	COMDAT xdata
xdata	SEGMENT
$unwind$process_address DD 060f01H
	DD	07640fH
	DD	06340fH
	DD	0700b320fH
xdata	ENDS
;	COMDAT xdata
xdata	SEGMENT
$chain$1$memory_operand DD 040d21H
	DD	06f40dH
	DD	010e408H
	DD	imagerel memory_operand
	DD	imagerel memory_operand+332
	DD	imagerel $unwind$memory_operand
xdata	ENDS
;	COMDAT xdata
xdata	SEGMENT
$unwind$memory_operand DD 071501H
	DD	0d0116215H
	DD	0700dc00fH
	DD	0500b600cH
	DD	0300aH
xdata	ENDS
;	COMDAT xdata
xdata	SEGMENT
$chain$1$SetPtrMemtype DD 021H
	DD	imagerel SetPtrMemtype
	DD	imagerel SetPtrMemtype+172
	DD	imagerel $unwind$SetPtrMemtype
xdata	ENDS
;	COMDAT xdata
xdata	SEGMENT
$chain$0$SetPtrMemtype DD 020521H
	DD	063405H
	DD	imagerel SetPtrMemtype
	DD	imagerel SetPtrMemtype+172
	DD	imagerel $unwind$SetPtrMemtype
xdata	ENDS
;	COMDAT xdata
xdata	SEGMENT
$unwind$SetPtrMemtype DD 040a01H
	DD	07640aH
	DD	07006320aH
xdata	ENDS
;	COMDAT xdata
xdata	SEGMENT
$chain$9$idata_nofixup DD 060021H
	DD	04f400H
	DD	0b6400H
	DD	0a5400H
	DD	imagerel idata_nofixup
	DD	imagerel idata_nofixup+47
	DD	imagerel $unwind$idata_nofixup
xdata	ENDS
;	COMDAT xdata
xdata	SEGMENT
$chain$8$idata_nofixup DD 0a0021H
	DD	04f400H
	DD	05d400H
	DD	0cc400H
	DD	0b6400H
	DD	0a5400H
	DD	imagerel idata_nofixup
	DD	imagerel idata_nofixup+47
	DD	imagerel $unwind$idata_nofixup
xdata	ENDS
;	COMDAT xdata
xdata	SEGMENT
$chain$6$idata_nofixup DD 021H
	DD	imagerel idata_nofixup+47
	DD	imagerel idata_nofixup+92
	DD	imagerel $chain$1$idata_nofixup
xdata	ENDS
;	COMDAT xdata
xdata	SEGMENT
$chain$5$idata_nofixup DD 021H
	DD	imagerel idata_nofixup+92
	DD	imagerel idata_nofixup+221
	DD	imagerel $chain$2$idata_nofixup
xdata	ENDS
;	COMDAT xdata
xdata	SEGMENT
$chain$4$idata_nofixup DD 041021H
	DD	05d410H
	DD	0cc405H
	DD	imagerel idata_nofixup+92
	DD	imagerel idata_nofixup+221
	DD	imagerel $chain$2$idata_nofixup
xdata	ENDS
;	COMDAT xdata
xdata	SEGMENT
$chain$2$idata_nofixup DD 020521H
	DD	0a5405H
	DD	imagerel idata_nofixup+47
	DD	imagerel idata_nofixup+92
	DD	imagerel $chain$1$idata_nofixup
xdata	ENDS
;	COMDAT xdata
xdata	SEGMENT
$chain$1$idata_nofixup DD 041121H
	DD	04f411H
	DD	0b6405H
	DD	imagerel idata_nofixup
	DD	imagerel idata_nofixup+47
	DD	imagerel $unwind$idata_nofixup
xdata	ENDS
;	COMDAT xdata
xdata	SEGMENT
$unwind$idata_nofixup DD 040901H
	DD	0e0055209H
	DD	030027003H
xdata	ENDS
;	COMDAT xdata
xdata	SEGMENT
$unwind$set_rm_sib DD 0c1c01H
	DD	0c641cH
	DD	0b541cH
	DD	0a341cH
	DD	0f018321cH
	DD	0d014e016H
	DD	07010c012H
xdata	ENDS
;	COMDAT xdata
xdata	SEGMENT
$chain$1$seg_override DD 021H
	DD	imagerel seg_override
	DD	imagerel seg_override+91
	DD	imagerel $unwind$seg_override
xdata	ENDS
;	COMDAT xdata
xdata	SEGMENT
$chain$0$seg_override DD 020521H
	DD	066405H
	DD	imagerel seg_override
	DD	imagerel seg_override+91
	DD	imagerel $unwind$seg_override
xdata	ENDS
;	COMDAT xdata
xdata	SEGMENT
$unwind$seg_override DD 060f01H
	DD	08540fH
	DD	07340fH
	DD	0700b320fH
xdata	ENDS
;	COMDAT xdata
xdata	SEGMENT
$chain$1$check_assume DD 021H
	DD	imagerel check_assume
	DD	imagerel check_assume+47
	DD	imagerel $unwind$check_assume
xdata	ENDS
;	COMDAT xdata
xdata	SEGMENT
$chain$0$check_assume DD 020521H
	DD	065405H
	DD	imagerel check_assume
	DD	imagerel check_assume+47
	DD	imagerel $unwind$check_assume
xdata	ENDS
;	COMDAT xdata
xdata	SEGMENT
$unwind$check_assume DD 060f01H
	DD	09640fH
	DD	08340fH
	DD	0700b320fH
xdata	ENDS
xdata	SEGMENT
$unwind$sym_ext2int DD 020601H
	DD	030023206H
$unwind$ParseLine DD 061501H
	DD	0510115H
	DD	07004e006H
	DD	050023003H
$chain$0$ParseLine DD 020821H
	DD	0506408H
	DD	imagerel $LN325
	DD	imagerel $LN325+247
	DD	imagerel $unwind$ParseLine
$chain$3$ParseLine DD 061821H
	DD	04df418H
	DD	04ed410H
	DD	04fc408H
	DD	imagerel $LN325+247
	DD	imagerel $LN325+1558
	DD	imagerel $chain$0$ParseLine
$chain$4$ParseLine DD 021H
	DD	imagerel $LN325+247
	DD	imagerel $LN325+1558
	DD	imagerel $chain$0$ParseLine
$unwind$ProcessFile DD 020601H
	DD	030023206H
$unwind$segm_override DD 040a01H
	DD	06340aH
	DD	07006320aH
$unwind$idata_fixup DD 040901H
	DD	0c0055209H
	DD	030027003H
$chain$2$idata_fixup DD 061a21H
	DD	05e41aH
	DD	0dd40eH
	DD	0c6405H
	DD	imagerel $LN158
	DD	imagerel $LN158+55
	DD	imagerel $unwind$idata_fixup
$chain$4$idata_fixup DD 040a21H
	DD	04f40aH
	DD	0b5405H
	DD	imagerel $LN158+55
	DD	imagerel $LN158+173
	DD	imagerel $chain$2$idata_fixup
$chain$5$idata_fixup DD 021H
	DD	imagerel $LN158+55
	DD	imagerel $LN158+173
	DD	imagerel $chain$2$idata_fixup
$chain$7$idata_fixup DD 0a0021H
	DD	04f400H
	DD	05e400H
	DD	0dd400H
	DD	0c6400H
	DD	0b5400H
	DD	imagerel $LN158
	DD	imagerel $LN158+55
	DD	imagerel $unwind$idata_fixup
xdata	ENDS
; Function compile flags: /Ogtpy
; File d:\hjwasm\hjwasm2.13.1s\hjwasm2.13.1s\parser.c
;	COMDAT IsType
_TEXT	SEGMENT
name$ = 48
IsType	PROC						; COMDAT

; 2843 : {

	sub	rsp, 40					; 00000028H

; 2844 :     struct asym *sym;
; 2845 : 
; 2846 :     sym = SymSearch( name );

	call	SymFind

; 2847 :     if ( sym && (sym->state == SYM_TYPE ) )

	test	rax, rax
	je	SHORT $LN2@IsType
	cmp	DWORD PTR [rax+32], 7
	je	SHORT $LN1@IsType
$LN2@IsType:

; 2848 :         return( sym );
; 2849 :     return( NULL );

	xor	eax, eax
$LN1@IsType:

; 2850 : }

	add	rsp, 40					; 00000028H
	ret	0
IsType	ENDP
_TEXT	ENDS
; Function compile flags: /Ogtpy
; File d:\hjwasm\hjwasm2.13.1s\hjwasm2.13.1s\parser.c
;	COMDAT check_size
_TEXT	SEGMENT
CodeInfo$ = 80
opndx$ = 88
check_size PROC						; COMDAT

; 2323 : {

	mov	QWORD PTR [rsp+8], rbx
	mov	QWORD PTR [rsp+16], rbp
	mov	QWORD PTR [rsp+24], rsi
	push	rdi
	push	r12
	push	r13
	push	r14
	push	r15
	sub	rsp, 32					; 00000020H

; 2324 :     enum operand_type op1 = CodeInfo->opnd[OPND1].type;

	mov	ebp, DWORD PTR [rcx+32]
	mov	rbx, rcx

; 2325 :     enum operand_type op2 = CodeInfo->opnd[OPND2].type;

	mov	edi, DWORD PTR [rcx+56]

; 2326 :     ret_code    rc = NOT_ERROR;

	xor	r14d, r14d

; 2327 :     int         op1_size;
; 2328 :     int         op2_size;
; 2329 :     //int         op_size = 0;
; 2330 :     DebugMsg1(("check_size enter, optype1=%" I32_SPEC "X, optype2=%" I32_SPEC "X\n", op1, op2 ));
; 2331 :     if (CodeInfo->token >= T_KADDB && CodeInfo->token <= T_KUNPCKDQ){

	mov	ecx, DWORD PTR [rcx+24]
	mov	r13, rdx
	mov	r12d, 262144				; 00040000H
	lea	eax, DWORD PTR [rcx-1682]
	cmp	eax, 26
	ja	SHORT $LN12@check_size

; 2332 :       //int op3_size;
; 2333 :       if ((CodeInfo->opnd[OPND1].type != OP_K) && (CodeInfo->opnd[OPND2].type != OP_K) &&

	cmp	ebp, 64					; 00000040H
	je	SHORT $LN13@check_size
	cmp	edi, 64					; 00000040H
	je	SHORT $LN13@check_size
	cmp	DWORD PTR [rbx+80], 64			; 00000040H
	je	SHORT $LN13@check_size

; 2334 :         (CodeInfo->opnd[OPND3].type != OP_K))
; 2335 :         return(EmitError(INVALID_INSTRUCTION_OPERANDS));

	lea	ecx, QWORD PTR [r14+49]
	call	EmitError
	jmp	$LN1@check_size
$LN13@check_size:

; 2336 :       CodeInfo->indextype = OP_K;

	mov	DWORD PTR [rbx+132], 64			; 00000040H

; 2337 :       CodeInfo->basetype = OP_K;

	mov	BYTE PTR [rbx+108], 64			; 00000040H

; 2338 : 
; 2339 :       op1_size = CodeInfo->pinstr->prefix;
; 2340 :       op2_size = CodeInfo->pinstr->prefix;
; 2341 :       goto def_check;

	jmp	$def_check$171
$LN12@check_size:

; 2342 :     }
; 2343 : 
; 2344 :     switch( CodeInfo->token ) {

	cmp	ecx, 1020				; 000003fcH
	jg	$LN140@check_size
	cmp	ecx, 1019				; 000003fbH
	jge	$LN131@check_size
	sub	ecx, 508				; 000001fcH
	cmp	ecx, 131				; 00000083H
	ja	$def_check$171
	movsxd	rax, ecx
	lea	rdx, OFFSET FLAT:__ImageBase
	movzx	eax, BYTE PTR $LN161@check_size[rdx+rax]
	mov	ecx, DWORD PTR $LN162@check_size[rdx+rax*4]
	add	rcx, rdx
	jmp	rcx
$LN14@check_size:

; 2345 :     case T_IN:
; 2346 :         if( op2 == OP_DX ) {

	cmp	edi, 2050				; 00000802H
	jne	$LN131@check_size

; 2347 :             /* wide and size is NOT determined by DX, but
; 2348 :              * by the first operand, AL|AX|EAX
; 2349 :              */
; 2350 :             switch( op1 ) {

	sub	ebp, 513				; 00000201H
	je	SHORT $LN23@check_size
	cmp	ebp, 3
	je	SHORT $LN24@check_size
	jmp	$LN131@check_size
$LN20@check_size:

; 2351 :             case OP_AX:
; 2352 :                 break;
; 2353 :             case OP_AL:
; 2354 :                 CodeInfo->iswide = 0;         /* clear w-bit */
; 2355 :             case OP_EAX:
; 2356 :                 if( CodeInfo->Ofssize ) {
; 2357 :                     CodeInfo->prefix.opsiz = FALSE;
; 2358 :                 }
; 2359 :                 break;
; 2360 :             }
; 2361 :         }
; 2362 :         break;
; 2363 :     case T_OUT:
; 2364 :         if( op1 == OP_DX ) {

	cmp	ebp, 2050				; 00000802H
	jne	$LN131@check_size

; 2365 :             switch( op2 ) {

	sub	edi, 513				; 00000201H
	je	SHORT $LN23@check_size
	cmp	edi, 3
	je	SHORT $LN24@check_size
	jmp	$LN131@check_size
$LN23@check_size:

; 2366 :             case OP_AX:
; 2367 :                 break;
; 2368 :             case OP_AL:
; 2369 :                 CodeInfo->iswide = 0;         /* clear w-bit */

	and	BYTE PTR [rbx+142], 254			; 000000feH
$LN24@check_size:

; 2370 :             case OP_EAX:
; 2371 :                 if( CodeInfo->Ofssize ) {

	cmp	BYTE PTR [rbx+106], r14b
	je	$LN131@check_size

; 2372 :                     CodeInfo->prefix.opsiz = FALSE;

	and	BYTE PTR [rbx+9], 253			; 000000fdH

; 2373 :                 }
; 2374 :             }
; 2375 :         }
; 2376 :         break;

	jmp	$LN131@check_size
$LN27@check_size:

; 2377 :     case T_LEA:
; 2378 : #if 0
; 2379 :         /* first op must be 16/32 register, but this condition is checked
; 2380 :          in CodeGen. operands 1 and 2 can be mixed:
; 2381 :          lea cx,[bp]
; 2382 :          lea cx,[ebp]
; 2383 :          lea ecx,[bp]
; 2384 :          lea ecx,[ebp]
; 2385 :          are all valid. However, Masm sometimes complains
; 2386 :          "cannot use 16-bit register with a 32-bit address"
; 2387 :          */
; 2388 :         switch( OperandSize( op1, CodeInfo ) ) {
; 2389 :         case 2:
; 2390 :         case 4:
; 2391 :             break;
; 2392 :         default:
; 2393 :             EmitErr( OPERANDS_MUST_BE_THE_SAME_SIZE, OperandSize( op1, CodeInfo ), ModuleInfo.Ofssize ? 4 : 2);
; 2394 :             rc = ERROR;
; 2395 :         }
; 2396 : #endif
; 2397 :         break;
; 2398 :     case T_RCL:
; 2399 :     case T_RCR:
; 2400 :     case T_ROL:
; 2401 :     case T_ROR:
; 2402 :     case T_SAL:
; 2403 :     case T_SAR:
; 2404 :     case T_SHL:
; 2405 :     case T_SHR:
; 2406 :         /* v2.11: added */
; 2407 :         if ( CodeInfo->opnd[OPND1].type == OP_M && CodeInfo->undef_sym == FALSE &&

	cmp	ebp, -1887436800			; ffffffff8f800000H
	jne	SHORT $LN28@check_size
	test	BYTE PTR [rbx+142], 64			; 00000040H
	jne	SHORT $LN28@check_size
	mov	rax, QWORD PTR [r13+80]
	test	rax, rax
	je	SHORT $LN29@check_size
	cmp	DWORD PTR [rax+32], r14d
	je	SHORT $LN28@check_size
$LN29@check_size:

; 2408 :             ( opndx[OPND1].sym == NULL || opndx[OPND1].sym->state != SYM_UNDEFINED ) ) {
; 2409 :             EmitErr( INSTRUCTION_OPERAND_MUST_HAVE_SIZE );

	mov	ecx, 182				; 000000b6H
	call	EmitErr

; 2410 :             rc = ERROR;

	or	r14d, -1

; 2411 :             break;

	jmp	$LN131@check_size
$LN28@check_size:

; 2412 :         }
; 2413 :         //if ( CodeInfo->opnd[OPND1].type == OP_M && Parse_Pass == PASS_2 )
; 2414 :         //    EmitWarn( 2, SIZE_NOT_SPECIFIED_ASSUMING, "BYTE" );
; 2415 : 
; 2416 :         /* v2.0: if second argument is a forward reference,
; 2417 :          * change type to "immediate 1"
; 2418 :          */
; 2419 :         if ( opndx[OPND2].kind == EXPR_ADDR &&
; 2420 :             Parse_Pass == PASS_1 &&
; 2421 :             opndx[OPND2].indirect == FALSE &&
; 2422 :             opndx[OPND2].sym &&

	cmp	DWORD PTR [r13+164], 1
	jne	SHORT $LN30@check_size
	cmp	DWORD PTR Parse_Pass, r14d
	jne	SHORT $LN30@check_size
	test	BYTE PTR [r13+180], 1
	jne	SHORT $LN30@check_size
	mov	rax, QWORD PTR [r13+184]
	test	rax, rax
	je	SHORT $LN30@check_size
	cmp	DWORD PTR [rax+32], r14d
	jne	SHORT $LN30@check_size

; 2423 :             opndx[OPND2].sym->state == SYM_UNDEFINED ) {
; 2424 :             CodeInfo->opnd[OPND2].type = OP_I8;

	mov	eax, 131072				; 00020000H

; 2425 :             CodeInfo->opnd[OPND2].data32l = 1;

	mov	DWORD PTR [rbx+64], 1
	mov	DWORD PTR [rbx+56], eax
$LN30@check_size:

; 2426 :         }
; 2427 :         /* v2.06: added (because if first operand is memory, wide bit
; 2428 :          * isn't set!)
; 2429 :          */
; 2430 :         if ( OperandSize( op1, CodeInfo ) > 1 )

	mov	rdx, rbx
	mov	ecx, ebp
	call	OperandSize
	cmp	eax, 1
	jle	SHORT $LN31@check_size

; 2431 :             CodeInfo->iswide = 1;

	or	BYTE PTR [rbx+142], 1
$LN31@check_size:

; 2432 :         /* v2.06: makes the OP_CL_ONLY case in codegen.c obsolete */
; 2433 :         if ( op2 == OP_CL ) {

	cmp	edi, 1025				; 00000401H
	jne	$LN131@check_size

; 2434 :             /* CL is encoded in bit 345 of rm_byte, but we don't need it
; 2435 :              * so clear it here */
; 2436 :             CodeInfo->rm_byte &= NOT_BIT_345;

	and	BYTE PTR [rbx+104], 199			; 000000c7H

; 2437 :         }
; 2438 :         break;

	jmp	$LN131@check_size
$LN33@check_size:

; 2445 :         op2_size = OperandSize( op2, CodeInfo );

	mov	rdx, rbx
	mov	ecx, edi
	call	OperandSize
	mov	edi, eax

; 2446 :         if ( op2_size != 0 && op1_size != op2_size ) {

	test	eax, eax
	je	$LN131@check_size

; 2439 :     case T_LDS:
; 2440 :     case T_LES:
; 2441 :     case T_LFS:
; 2442 :     case T_LGS:
; 2443 :     case T_LSS:
; 2444 :         op1_size = OperandSize( op1, CodeInfo ) + 2; /* add 2 for the impl. segment register */

	mov	rdx, rbx
	mov	ecx, ebp
	call	OperandSize
	add	eax, 2

; 2446 :         if ( op2_size != 0 && op1_size != op2_size ) {

	cmp	eax, edi
	je	$LN131@check_size
$LN169@check_size:

; 2447 :             return( EmitError( INVALID_OPERAND_SIZE ) );

	mov	ecx, 71					; 00000047H
	call	EmitError
	jmp	$LN1@check_size
$LN36@check_size:

; 2448 :         }
; 2449 :         break;
; 2450 :     case T_ENTER:
; 2451 : #if 0 /* v2.11: operand sizes are checked in codegen */
; 2452 :         /* ENTER has to be OP_I16, OP_I8_U */
; 2453 :         if( op1 == OP_I32 ) {
; 2454 :             /* parse_phase_1 will treat 16-bit data as OP_I32 if CPU is 386 */
; 2455 :             if( CodeInfo->opnd[OPND1].data32l > (int_32)USHRT_MAX ) {
; 2456 :                 /* if op1 is really 32-bit data, then error */
; 2457 :                 EmitError( INVALID_OPERAND_SIZE );
; 2458 :                 rc = ERROR;
; 2459 :             }
; 2460 :         }
; 2461 :         /* type cast op1 to OP_I16 */
; 2462 :         CodeInfo->opnd[OPND1].type = OP_I16;
; 2463 :         /* op2 have to be 8-bit data */
; 2464 :         if( op2 >= OP_I16 ) {
; 2465 :             if( CodeInfo->opnd[OPND2].data32l > UCHAR_MAX ) {
; 2466 :                 EmitError( INVALID_OPERAND_SIZE );
; 2467 :                 rc = ERROR;
; 2468 :             }
; 2469 :             CodeInfo->opnd[OPND2].type = OP_I8;
; 2470 :         }
; 2471 : #endif
; 2472 :         break;
; 2473 :     case T_MOVSX:
; 2474 :     case T_MOVZX:
; 2475 :         CodeInfo->iswide = 0;

	and	BYTE PTR [rbx+142], 254			; 000000feH

; 2476 :         op1_size = OperandSize( op1, CodeInfo );

	mov	rdx, rbx
	mov	ecx, ebp
	call	OperandSize

; 2477 :         op2_size = OperandSize( op2, CodeInfo );

	mov	rdx, rbx
	mov	ecx, edi
	mov	esi, eax
	call	OperandSize
	mov	edi, eax

; 2478 :         DebugMsg1(("check_size, MOVZX/MOVSX: op2_size=%u, opndx.memtype=%Xh, opndx.sym=%X\n", op2_size, opndx[OPND2].mem_type, opndx[OPND2].sym ));
; 2479 :         if ( op2_size == 0 && Parse_Pass == PASS_2 )

	test	eax, eax
	jne	SHORT $LN39@check_size
	cmp	DWORD PTR Parse_Pass, 1
	jne	SHORT $LN39@check_size

; 2480 :             if ( op1_size == 2 ) {

	cmp	esi, 2
	jne	SHORT $LN38@check_size

; 2481 :                 EmitWarn( 2, SIZE_NOT_SPECIFIED_ASSUMING, "BYTE" );

	lea	r8, OFFSET FLAT:$SG12271
	mov	ecx, esi
	lea	edx, QWORD PTR [rax+73]
	call	EmitWarn

; 2482 :             } else

	jmp	SHORT $LN46@check_size
$LN38@check_size:

; 2483 :                 EmitErr( INSTRUCTION_OPERAND_MUST_HAVE_SIZE );

	mov	ecx, 182				; 000000b6H
	call	EmitErr
$LN39@check_size:

; 2484 :         switch( op1_size ) {

	cmp	esi, 2
	je	SHORT $LN45@check_size
	lea	eax, DWORD PTR [rsi-4]
	test	eax, -5					; fffffffbH
	je	SHORT $LN40@check_size

; 2507 :             break;
; 2508 :         default:
; 2509 :             /* op1 must be r16/r32/r64 */
; 2510 :             EmitError( OP1_TOO_SMALL );

	mov	ecx, 60					; 0000003cH
	call	EmitError

; 2511 :             rc = ERROR;

	or	r14d, -1
	jmp	$LN131@check_size
$LN40@check_size:

; 2485 : #if AMD64_SUPPORT
; 2486 :         case 8:
; 2487 :             //if ( CodeInfo->Ofssize == USE64 )
; 2488 :             //    break;
; 2489 : #endif
; 2490 :         case 4:
; 2491 :             if (op2_size < 2)

	cmp	edi, 2
	jl	SHORT $LN44@check_size

; 2492 :                 ;
; 2493 :             else if (op2_size == 2)

	jne	SHORT $LN43@check_size

; 2494 :                 CodeInfo->iswide = 1;

	or	BYTE PTR [rbx+142], 1
	jmp	SHORT $LN44@check_size
$LN43@check_size:

; 2495 :             else {
; 2496 :                 EmitError( OP2_TOO_BIG );

	mov	ecx, 59					; 0000003bH
	call	EmitError

; 2497 :                 rc = ERROR;

	or	r14d, -1
$LN44@check_size:

; 2498 :             }
; 2499 :             CodeInfo->prefix.opsiz = CodeInfo->Ofssize ? FALSE : TRUE;

	and	BYTE PTR [rbx+9], 253			; 000000fdH
	cmp	BYTE PTR [rbx+106], 0
	sete	al
	and	al, 1
	add	al, al
	or	BYTE PTR [rbx+9], al

; 2500 :             break;

	jmp	$LN131@check_size
$LN45@check_size:

; 2501 :         case 2:
; 2502 :             if( op2_size >= 2 ) {

	cmp	edi, 2
	jl	SHORT $LN46@check_size

; 2503 :                 EmitError( OP2_TOO_BIG );

	mov	ecx, 59					; 0000003bH
	call	EmitError

; 2504 :                 rc = ERROR;

	or	r14d, -1
$LN46@check_size:

; 2505 :             }
; 2506 :             CodeInfo->prefix.opsiz = CodeInfo->Ofssize ? TRUE : FALSE;

	and	BYTE PTR [rbx+9], 253			; 000000fdH
	cmp	BYTE PTR [rbx+106], 0
	setne	al
	and	al, 1
	add	al, al
	or	BYTE PTR [rbx+9], al

; 2512 :         }
; 2513 :         break;

	jmp	$LN131@check_size
$LN49@check_size:

; 2514 : #if AMD64_SUPPORT
; 2515 :     case T_MOVSXD:
; 2516 :         break;
; 2517 : #endif
; 2518 :     case T_ARPL: /* v2.06: new, avoids the OP_R16 hack in codegen.c */
; 2519 :         CodeInfo->prefix.opsiz = 0;

	and	BYTE PTR [rbx+9], 253			; 000000fdH

; 2520 :         goto def_check;

	jmp	$def_check$171
$LN50@check_size:

; 2521 :         break;
; 2522 : #if AMD64_SUPPORT
; 2523 :     case T_LAR: /* v2.04: added */
; 2524 :     case T_LSL: /* 19-sep-93 */
; 2525 : #if 1 /* v2.04: changed */
; 2526 :         if ( ModuleInfo.Ofssize != USE64 || ( ( op2 & OP_M ) == 0 ) )

	cmp	BYTE PTR ModuleInfo+404, 2
	jne	$def_check$171
	test	edi, -1887436800			; ffffffff8f800000H
	je	$def_check$171

; 2527 :             goto def_check;
; 2528 :         /* in 64-bit, if second argument is memory operand,
; 2529 :          * ensure it has size WORD ( or 0 if a forward ref )
; 2530 :          */
; 2531 :         op2_size = OperandSize( op2, CodeInfo );

	mov	rdx, rbx
	mov	ecx, edi
	call	OperandSize
	test	eax, -3					; fffffffdH

; 2532 :         if ( op2_size != 2 && op2_size != 0 ) {
; 2533 :             return( EmitError( INVALID_OPERAND_SIZE ) );

	jne	$LN169@check_size

; 2534 :         }
; 2535 :         /* the opsize prefix depends on the FIRST operand only! */
; 2536 :         op1_size = OperandSize( op1, CodeInfo );

	mov	rdx, rbx
	mov	ecx, ebp
	call	OperandSize

; 2537 :         if ( op1_size != 2 )

	cmp	eax, 2
	je	$LN131@check_size
$LN168@check_size:

; 2538 :             CodeInfo->prefix.opsiz = FALSE;

	and	BYTE PTR [rbx+9], 253			; 000000fdH

; 2539 : #else
; 2540 :         op1_size = OperandSize( op1, CodeInfo );
; 2541 :         switch( op1_size ) {
; 2542 :         case 2:
; 2543 :             if( CodeInfo->Ofssize )
; 2544 :                 CodeInfo->prefix.opsiz = TRUE;
; 2545 :             break;
; 2546 :         case 4:
; 2547 :             if( CodeInfo->Ofssize )
; 2548 :                 CodeInfo->prefix.opsiz = FALSE;
; 2549 :             break;
; 2550 :         default:
; 2551 :             return( EmitError( INVALID_OPERAND_SIZE ) );
; 2552 :         }
; 2553 :         op2_size = OperandSize( op2, CodeInfo );
; 2554 :         switch( op2_size ) {
; 2555 :         case 2:
; 2556 :         case 4:
; 2557 :             break;
; 2558 :         default:
; 2559 :             EmitError( INVALID_OPERAND_SIZE );
; 2560 :             rc = ERROR;
; 2561 :             break;
; 2562 :         }
; 2563 : #endif
; 2564 :         break;

	jmp	$LN131@check_size
$LN55@check_size:

; 2565 : #endif
; 2566 :     case T_IMUL: /* v2.06: check for 3rd operand must be done here */
; 2567 :         if ( CodeInfo->opnd[OPND3].type != OP_NONE ) {

	mov	esi, DWORD PTR [rbx+80]
	test	esi, esi
	je	$def_check$171

; 2568 :             int op3_size;
; 2569 :             op1_size = OperandSize( op1, CodeInfo );

	mov	rdx, rbx
	mov	ecx, ebp
	call	OperandSize

; 2570 :             op3_size = OperandSize( CodeInfo->opnd[OPND3].type, CodeInfo );

	mov	rdx, rbx
	mov	ecx, esi
	mov	r15d, eax
	call	OperandSize

; 2571 :             /* the only case which must be checked here
; 2572 :              * is a WORD register as op1 and a DWORD immediate as op3 */
; 2573 :             if ( op1_size == 2 && op3_size > 2 ) {

	cmp	r15d, 2
	jne	SHORT $LN57@check_size
	cmp	eax, r15d
	jle	SHORT $LN57@check_size

; 2574 :                 EmitErr( OPERANDS_MUST_BE_THE_SAME_SIZE, op1_size, op3_size );

	mov	r8d, eax
	lea	ecx, QWORD PTR [r15+46]
	mov	edx, r15d
	call	EmitErr

; 2575 :                 rc = ERROR;

	or	r14d, -1

; 2576 :                 break;

	jmp	$LN131@check_size
$LN57@check_size:

; 2577 :             }
; 2578 :             if ( CodeInfo->opnd[OPND3].type & ( OP_I16 | OP_I32 ) )

	test	esi, 786432				; 000c0000H
	je	$def_check$171

; 2579 :                 CodeInfo->opnd[OPND3].type = ( op1_size == 2 ? OP_I16 : OP_I32 );

	cmp	r15d, 2
	mov	eax, 524288				; 00080000H
	cmove	eax, r12d
	mov	DWORD PTR [rbx+80], eax

; 2580 :         }
; 2581 :         goto def_check;

	jmp	$def_check$171
$LN73@check_size:

; 2651 :     case T_MOV:
; 2652 :         if( op1 & OP_SR ) { /* segment register as op1? */

	test	ebp, 24576				; 00006000H
	je	SHORT $LN74@check_size

; 2653 :             op2_size = OperandSize( op2, CodeInfo );

	mov	rdx, rbx
	mov	ecx, edi
	call	OperandSize
	lea	ecx, DWORD PTR [rax-2]
	test	ecx, -3					; fffffffdH
	je	SHORT $LN77@check_size

; 2654 :             if( ( op2_size == 2 ) || ( op2_size == 4 )
; 2655 : #if AMD64_SUPPORT
; 2656 :                || ( op2_size == 8 && ModuleInfo.Ofssize == USE64 )

	cmp	eax, 8
	jne	$def_check$171
	cmp	BYTE PTR ModuleInfo+404, 2
	jne	$def_check$171
$LN77@check_size:

; 2657 : #endif
; 2658 :               ) {
; 2659 :                 return( NOT_ERROR );

	xor	eax, eax
	jmp	$LN1@check_size
$LN74@check_size:

; 2660 :             }
; 2661 :         } else if( op2 & OP_SR ) {

	test	edi, 24576				; 00006000H
	je	SHORT $LN78@check_size

; 2662 :             op1_size = OperandSize( op1, CodeInfo );

	mov	rdx, rbx
	mov	ecx, ebp
	call	OperandSize
	lea	ecx, DWORD PTR [rax-2]
	test	ecx, -3					; fffffffdH
	je	SHORT $LN77@check_size

; 2663 :             if( ( op1_size == 2 ) || ( op1_size == 4 )
; 2664 : #if AMD64_SUPPORT
; 2665 :                || ( op1_size == 8 && ModuleInfo.Ofssize == USE64 )

	cmp	eax, 8
	jne	$def_check$171
	cmp	BYTE PTR ModuleInfo+404, 2
	jne	$def_check$171

; 2666 : #endif
; 2667 :               ) {
; 2668 :                 return( NOT_ERROR );

	xor	eax, eax
	jmp	$LN1@check_size
$LN78@check_size:

; 2669 :             }
; 2670 :         } else if( ( op1 & OP_M ) && ( op2 & OP_A ) ) { /* 1. operand memory reference, 2. AL|AX|EAX|RAX? */

	test	ebp, -1887436800			; ffffffff8f800000H
	je	SHORT $LN82@check_size
	bt	edi, 9
	jae	SHORT $LN82@check_size

; 2671 : 
; 2672 :             if ( CodeInfo->isdirect == FALSE ) {

	test	BYTE PTR [rbx+142], 2
	jne	SHORT $LN84@check_size

; 2673 :                 /* address mode is indirect.
; 2674 :                  * don't use the short format (opcodes A0-A3) - it exists for direct
; 2675 :                  * addressing only. Reset OP_A flag!
; 2676 :                  */
; 2677 :                 CodeInfo->opnd[OPND2].type &= ~OP_A;

	mov	eax, edi
	btr	eax, 9
	mov	DWORD PTR [rbx+56], eax
	jmp	$def_check$171
$LN84@check_size:

; 2678 :                 DebugMsg1(("check_size: OP_A flag reset, new op2=%X\n", CodeInfo->opnd[OPND2].type ));
; 2679 : #if AMD64_SUPPORT
; 2680 :             } else if ( CodeInfo->Ofssize == USE64 && ( CodeInfo->opnd[OPND1].data64 < 0x80000000 || CodeInfo->opnd[OPND1].data64 >= 0xffffffff80000000 ) ) {

	cmp	BYTE PTR [rbx+106], 2
	jne	$def_check$171
	mov	rax, QWORD PTR [rbx+40]
	mov	ecx, -2147483648			; 80000000H
	sub	rax, rcx
	mov	rcx, -4294967297			; fffffffeffffffffH
	cmp	rax, rcx
	jbe	$def_check$171

; 2681 :                 /* for 64bit, opcodes A0-A3 ( direct memory addressing with AL/AX/EAX/RAX )
; 2682 :                  * are followed by a full 64-bit moffs. This is only used if the offset won't fit
; 2683 :                  * in a 32-bit signed value.
; 2684 :                  */
; 2685 :                 CodeInfo->opnd[OPND2].type &= ~OP_A;

	mov	eax, edi
	btr	eax, 9
	mov	DWORD PTR [rbx+56], eax

; 2686 :                 DebugMsg1(("check_size: OP_A flag reset, new op2=%X\n", CodeInfo->opnd[OPND2].type ));
; 2687 : #endif
; 2688 :             }

	jmp	$def_check$171
$LN82@check_size:

; 2689 : 
; 2690 :         } else if( ( op1 & OP_A ) && ( op2 & OP_M ) ) { /* 2. operand memory reference, 1. AL|AX|EAX|RAX? */

	bt	ebp, 9
	jae	$def_check$171
	test	edi, -1887436800			; ffffffff8f800000H
	je	$def_check$171

; 2691 : 
; 2692 :             if ( CodeInfo->isdirect == FALSE ) {

	test	BYTE PTR [rbx+142], 2
	jne	SHORT $LN89@check_size

; 2693 :                 CodeInfo->opnd[OPND1].type &= ~OP_A;

	mov	eax, ebp
	btr	eax, 9
	mov	DWORD PTR [rbx+32], eax
	jmp	$def_check$171
$LN89@check_size:

; 2694 :                 DebugMsg1(("check_size: OP_A flag reset, new op1=%X\n", CodeInfo->opnd[OPND1].type ));
; 2695 : #if AMD64_SUPPORT
; 2696 :             } else if ( CodeInfo->Ofssize == USE64 && ( CodeInfo->opnd[OPND2].data64 < 0x80000000 || CodeInfo->opnd[OPND2].data64 >= 0xffffffff80000000 ) ) {

	cmp	BYTE PTR [rbx+106], 2
	jne	$def_check$171
	mov	rax, QWORD PTR [rbx+64]
	mov	ecx, -2147483648			; 80000000H
	sub	rax, rcx
	mov	rcx, -4294967297			; fffffffeffffffffH
	cmp	rax, rcx
	jbe	$def_check$171

; 2697 :                 CodeInfo->opnd[OPND1].type &= ~OP_A;

	mov	eax, ebp
	btr	eax, 9
	mov	DWORD PTR [rbx+32], eax
	jmp	$def_check$171
$LN140@check_size:

; 2342 :     }
; 2343 : 
; 2344 :     switch( CodeInfo->token ) {

	cmp	ecx, 1329				; 00000531H
	jg	$LN141@check_size
	je	$LN64@check_size
	cmp	ecx, 1262				; 000004eeH
	jg	SHORT $LN142@check_size
	je	SHORT $LN67@check_size
	lea	eax, DWORD PTR [rcx-1027]
	cmp	eax, 1
	jbe	$LN131@check_size
	cmp	ecx, 1205				; 000004b5H
	je	$LN131@check_size
	cmp	ecx, 1041				; 00000411H
	jne	$def_check$171

; 2639 : #endif
; 2640 :     case T_MOVD:
; 2641 : #if 0
; 2642 :         op1_size = OperandSize( op1, CodeInfo );
; 2643 :         op2_size = OperandSize( op2, CodeInfo );
; 2644 :         if( ( op1_size != 0 ) && ( op1_size != 4 )
; 2645 :             || ( op2_size != 0 ) && ( op2_size != 4 ) ) {
; 2646 :             EmitErr( OPERANDS_MUST_BE_THE_SAME_SIZE, op1_size, op2_size );
; 2647 :             rc = ERROR;
; 2648 :         }
; 2649 : #endif
; 2650 :         break;

	jmp	$LN131@check_size
$LN67@check_size:

; 2625 : #endif
; 2626 : #if SSE4SUPP
; 2627 :     case T_CRC32:
; 2628 :         /* v2.02: for CRC32, the second operand determines whether an
; 2629 :          * OPSIZE prefix byte is to be written.
; 2630 :          */
; 2631 :         op2_size = OperandSize( op2, CodeInfo );

	mov	rdx, rbx
	mov	ecx, edi
	call	OperandSize

; 2632 :         if ( op2_size < 2)

	cmp	eax, 2
	jl	$LN168@check_size

; 2633 :             CodeInfo->prefix.opsiz = FALSE;
; 2634 :         else if ( op2_size == 2 )

	jne	SHORT $LN70@check_size

; 2635 :             CodeInfo->prefix.opsiz = CodeInfo->Ofssize ? TRUE : FALSE;

	and	BYTE PTR [rbx+9], 253			; 000000fdH
	cmp	BYTE PTR [rbx+106], r14b
	setne	al
	and	al, 1
	add	al, al
	or	BYTE PTR [rbx+9], al
	jmp	$LN131@check_size
$LN70@check_size:

; 2636 :         else
; 2637 :             CodeInfo->prefix.opsiz = CodeInfo->Ofssize ? FALSE : TRUE;

	and	BYTE PTR [rbx+9], 253			; 000000fdH
	cmp	BYTE PTR [rbx+106], r14b
	sete	al
	and	al, 1
	add	al, al
	or	BYTE PTR [rbx+9], al

; 2638 :         break;

	jmp	$LN131@check_size
$LN142@check_size:
	add	ecx, -1289				; fffffffffffffaf7H
	cmp	ecx, 22
	ja	$def_check$171
	mov	eax, 4194331				; 0040001bH

; 2342 :     }
; 2343 : 
; 2344 :     switch( CodeInfo->token ) {

	jmp	$LN165@check_size
$LN141@check_size:
	cmp	ecx, 1598				; 0000063eH
	jg	SHORT $LN143@check_size
	je	SHORT $LN60@check_size
	cmp	ecx, 1334				; 00000536H
	je	SHORT $LN61@check_size
	cmp	ecx, 1336				; 00000538H
	jle	$def_check$171
	cmp	ecx, 1338				; 0000053aH
	jle	SHORT $LN61@check_size
	cmp	ecx, 1339				; 0000053bH
	jne	SHORT $def_check$171

; 2615 :         }
; 2616 :         break;
; 2617 :     case T_VMOVDDUP:
; 2618 :         if ( !( op1 & OP_YMM ) )

	test	bpl, bpl
	jns	$LN131@check_size
$LN64@check_size:

; 2619 :             break;
; 2620 :         /* fall through */
; 2621 :     case T_VPERM2F128: /* has just one memory variant, and VX_L isnt set */
; 2622 :         if ( op2 == OP_M )

	cmp	edi, -1887436800			; ffffffff8f800000H
	jne	$LN131@check_size

; 2623 :             CodeInfo->opnd[OPND2].type |= OP_M256;

	bts	edi, 28
	mov	DWORD PTR [rbx+56], edi

; 2624 :         break;

	jmp	$LN131@check_size
$LN61@check_size:

; 2610 :     case T_VCVTPD2DQ:
; 2611 :     case T_VCVTTPD2DQ:
; 2612 :     case T_VCVTPD2PS:
; 2613 :         if ( op2 == OP_M && opndx[OPND2].indirect ) {

	cmp	edi, -1887436800			; ffffffff8f800000H
	jne	$LN131@check_size
	test	BYTE PTR [rdx+180], 1
	je	$LN131@check_size

; 2614 :             return( EmitError( INSTRUCTION_OPERAND_MUST_HAVE_SIZE ) );

	mov	ecx, 182				; 000000b6H
	call	EmitError
	jmp	$LN1@check_size
$LN60@check_size:

; 2582 :         break;
; 2583 :     case T_CVTSD2SI:
; 2584 :     case T_CVTTSD2SI:
; 2585 :     case T_CVTSS2SI:
; 2586 :     case T_CVTTSS2SI:
; 2587 :     //case T_MOVNTI: /* v2.05: removed */
; 2588 : #if AVXSUPP
; 2589 :     case T_VBROADCASTSD:
; 2590 :     case T_VBROADCASTF128:
; 2591 :     case T_VEXTRACTF128:
; 2592 :     case T_VINSERTF128:
; 2593 :     case T_VCVTSD2SI:
; 2594 :     case T_VCVTTSD2SI:
; 2595 :     case T_VCVTSS2SI:
; 2596 :     case T_VCVTTSS2SI:
; 2597 : #endif
; 2598 : #if VMXSUPP /* v2.09: added */
; 2599 :     case T_INVEPT:
; 2600 :     case T_INVVPID:
; 2601 : #endif
; 2602 : #if SVMSUPP /* v2.09: added */
; 2603 :     case T_INVLPGA:
; 2604 : #endif
; 2605 :         break;
; 2606 : #if AVXSUPP
; 2607 :     case T_VCVTSD2USI:
; 2608 :           CodeInfo->evex_flag = TRUE;

	mov	BYTE PTR [rbx+136], 1

; 2609 :           break;

	jmp	$LN131@check_size
$LN143@check_size:
	cmp	ecx, 1626				; 0000065aH
	je	$LN131@check_size
	add	ecx, -1904				; fffffffffffff890H
	cmp	ecx, 6
	ja	SHORT $def_check$171
	mov	eax, 99					; 00000063H
$LN165@check_size:
	bt	eax, ecx
	jb	$LN131@check_size
$def_check$171:

; 2698 :                 DebugMsg1(("check_size: OP_A flag reset, new op2=%X\n", CodeInfo->opnd[OPND1].type ));
; 2699 : #endif
; 2700 :             }
; 2701 :         }
; 2702 :         /* fall through */
; 2703 :     default:
; 2704 : //#if AMD64_SUPPORT
; 2705 :     def_check:
; 2706 : //#endif
; 2707 :         /* make sure the 2 opnds are of the same type */
; 2708 :         op1_size = OperandSize( op1, CodeInfo );

	mov	rdx, rbx
	mov	ecx, ebp
	call	OperandSize

; 2709 :         op2_size = OperandSize( op2, CodeInfo );

	mov	rdx, rbx
	mov	ecx, edi
	mov	r15d, eax
	call	OperandSize
	mov	esi, eax

; 2710 :         DebugMsg1(("check_size default: op1_size1=%u, op2_size=%u\n", op1_size, op2_size));
; 2711 :         if( op1_size > op2_size ) {

	cmp	r15d, eax
	jle	SHORT $LN95@check_size

; 2712 :             if( ( op2 >= OP_I8 ) && ( op2 <= OP_I32 ) ) {     /* immediate */

	lea	ecx, DWORD PTR [rdi-131072]
	cmp	ecx, 393216				; 00060000H
	cmovbe	esi, r15d
$LN95@check_size:

; 2713 :                 op2_size = op1_size;    /* promote to larger size */
; 2714 :             }
; 2715 :         }
; 2716 : #if 1
; 2717 :         /* v2.04: check in idata_nofixup was signed,
; 2718 :          * so now add -256 - -129 and 128-255 to acceptable byte range.
; 2719 :          * Since Masm v8, the check is more restrictive, -255 - -129
; 2720 :          * is no longer accepted.
; 2721 :          */
; 2722 :         if( ( op1_size == 1 ) && ( op2 == OP_I16 ) &&
; 2723 :             ( CodeInfo->opnd[OPND2].data32l <= UCHAR_MAX ) &&

	cmp	r15d, 1
	jne	SHORT $LN96@check_size
	cmp	edi, r12d
	jne	SHORT $LN96@check_size

; 2724 :             //CodeInfo->opnd[OPND2].data32l >= -128 ) ) {
; 2725 :             ( CodeInfo->opnd[OPND2].data32l >= -255 ) ) {
; 2726 :             return( rc ); /* OK cause no sign extension */

	mov	eax, DWORD PTR [rbx+64]
	add	eax, 255				; 000000ffH
	cmp	eax, 510				; 000001feH
	jbe	$LN77@check_size
$LN96@check_size:

; 2727 :         }
; 2728 : #endif
; 2729 : #if 0
; 2730 :         /* v2.03: this "if" made HJWasm accept any 32-bit constant
; 2731 :          *        for 16-bit destinations, which is Masm compatibel,
; 2732 :          *      "mov ax, 12345h"
; 2733 :          * the test is a bit too liberal here, IMO, because
; 2734 :          * it makes HJWasm accept "mov ax, near32 ptr var",
; 2735 :          * which is rejected by Masm.
; 2736 :          */
; 2737 :         if( ( op1_size == 2 ) && ( op2 == OP_I32 )
; 2738 :             && ( CodeInfo->data[OPND2] <= USHRT_MAX ) ) {
; 2739 :             return( rc ); /* OK cause no sign extension */
; 2740 :         }
; 2741 : #endif
; 2742 :         if( op1_size != op2_size ) {

	cmp	r15d, esi
	je	$LN131@check_size

; 2743 :             /* if one or more are !defined, set them appropriately */
; 2744 : #if AVXSUPP
; 2745 :             if( ( op1 | op2 ) & ( OP_MMX | OP_XMM | OP_YMM | OP_K | OP_ZMM ) ) {

	mov	r12d, edi
	or	r12d, ebp
	test	r12d, 496				; 000001f0H
	jne	SHORT $LN102@check_size

; 2746 : #else
; 2747 :             if( ( op1 | op2 ) & ( OP_MMX | OP_XMM ) ) {
; 2748 : #endif
; 2749 :             }
; 2750 :             else if( ( op1_size != 0 ) && ( op2_size != 0 ) ) {

	test	r15d, r15d
	je	SHORT $LN145@check_size
	test	esi, esi
	je	SHORT $LN102@check_size
	mov	ecx, DWORD PTR [rbx+24]
	lea	eax, DWORD PTR [rcx-1598]
	cmp	eax, 1
	jbe	SHORT $LN103@check_size
	lea	eax, DWORD PTR [rcx-1618]
	cmp	eax, 1
	jbe	SHORT $LN103@check_size

; 2754 :               else{
; 2755 :                 EmitErr(OPERANDS_MUST_BE_THE_SAME_SIZE, op1_size, op2_size);

	mov	r8d, esi
	mov	edx, r15d
	mov	ecx, 48					; 00000030H
	call	EmitErr

; 2756 :                 rc = ERROR;

	or	r14d, -1
	jmp	SHORT $LN102@check_size
$LN103@check_size:

; 2751 :               if ((CodeInfo->token == T_VCVTSD2USI)||(CodeInfo->token == T_VCVTSS2USI)||
; 2752 :                 (CodeInfo->token == T_VCVTTSD2USI)||(CodeInfo->token == T_VCVTTSS2USI))
; 2753 :                 CodeInfo->evex_flag = TRUE;

	mov	BYTE PTR [rbx+136], 1
$LN102@check_size:

; 2757 :               }
; 2758 :             }
; 2759 :             /* size == 0 is assumed to mean "undefined", but there
; 2760 :              * is also the case of an "empty" struct or union. The
; 2761 :              * latter case isn't handled correctly.
; 2762 :              */
; 2763 :             if( op1_size == 0 ) {

	test	r15d, r15d
	jne	$LN131@check_size
$LN145@check_size:

; 2764 :                 if( ( op1 & OP_M_ANY ) && ( op2 & OP_I ) ) {

	mov	eax, ebp
	and	eax, -8388608				; ffffffffff800000H
	je	$LN105@check_size
	test	edi, 917504				; 000e0000H
	je	$LN105@check_size

; 2765 :                     char *p = "WORD";
; 2766 :                     if( (uint_32)CodeInfo->opnd[OPND2].data32l > USHRT_MAX || op2_size == 4 ) {

	mov	ecx, DWORD PTR [rbx+64]
	lea	r8, OFFSET FLAT:$SG12339
	cmp	ecx, 65535				; 0000ffffH
	ja	SHORT $LN109@check_size
	cmp	esi, 4
	je	SHORT $LN109@check_size

; 2780 :                         }
; 2781 :                     } else if( (uint_32)CodeInfo->opnd[OPND2].data32l > UCHAR_MAX || op2_size == 2 ) {

	cmp	ecx, 255				; 000000ffH
	ja	SHORT $LN115@check_size
	cmp	esi, 2
	je	SHORT $LN115@check_size

; 2786 :                          CodeInfo->mem_type = MT_BYTE;
; 2787 :                          CodeInfo->opnd[OPND2].type = OP_I8;

	mov	eax, 131072				; 00020000H
	mov	DWORD PTR [rbx+28], 0
	mov	DWORD PTR [rbx+56], eax

; 2788 :                          p = "BYTE";

	lea	r8, OFFSET FLAT:$SG12350
	jmp	SHORT $LN112@check_size
$LN115@check_size:

; 2782 :                          CodeInfo->mem_type = MT_WORD;
; 2783 :                          CodeInfo->iswide = 1;

	or	BYTE PTR [rbx+142], 1

; 2784 :                          CodeInfo->opnd[OPND2].type = OP_I16;

	mov	ecx, 262144				; 00040000H
	mov	DWORD PTR [rbx+56], ecx
	mov	DWORD PTR [rbx+28], 1

; 2785 :                     } else {

	jmp	SHORT $LN112@check_size
$LN109@check_size:

; 2767 :                         CodeInfo->iswide = 1;

	or	BYTE PTR [rbx+142], 1

; 2768 :                         DebugMsg1(("check_size: op1=%X op1_size=0, op2=%X, op2_size=%u CodeInfo->data[2]=%X\n", op1, op2, op2_size, CodeInfo->opnd[OPND2].data32l ));
; 2769 : #if 1 /* added v1.95: in 16bit code, 'mov [di],8000h' should warn: assuming WORD */
; 2770 :                         if ( ModuleInfo.Ofssize == USE16 && op2_size > 2 && InWordRange( CodeInfo->opnd[OPND2].data32l ) )

	movzx	edx, BYTE PTR ModuleInfo+404
	test	dl, dl
	jne	SHORT $LN110@check_size
	cmp	esi, 2
	jle	SHORT $LN144@check_size
	lea	eax, DWORD PTR [rcx+65535]
	cmp	eax, 131070				; 0001fffeH
	jbe	SHORT $LN144@check_size
$LN110@check_size:

; 2771 :                             op2_size = 2;
; 2772 : #endif
; 2773 :                         if (op2_size <= 2 && CodeInfo->opnd[OPND2].data32l > SHRT_MIN && ModuleInfo.Ofssize == USE16 ) {

	cmp	esi, 2
	jg	SHORT $LN111@check_size
$LN144@check_size:
	cmp	ecx, -32768				; ffffffffffff8000H
	jle	SHORT $LN111@check_size
	test	dl, dl
	jne	SHORT $LN111@check_size

; 2774 :                             CodeInfo->mem_type = MT_WORD;
; 2775 :                             CodeInfo->opnd[OPND2].type = OP_I16;

	mov	ecx, 262144				; 00040000H
	mov	DWORD PTR [rbx+28], 1
	mov	DWORD PTR [rbx+56], ecx

; 2776 :                         } else {

	jmp	SHORT $LN112@check_size
$LN111@check_size:

; 2777 :                             CodeInfo->mem_type = MT_DWORD;

	mov	DWORD PTR [rbx+28], 3

; 2778 :                             CodeInfo->opnd[OPND2].type = OP_I32;
; 2779 :                             p = "DWORD";

	lea	r8, OFFSET FLAT:$SG12346
	mov	DWORD PTR [rbx+56], 524288		; 00080000H
$LN112@check_size:

; 2789 :                     }
; 2790 :                     if( opndx[OPND2].explicit == FALSE ) {

	test	BYTE PTR [r13+180], 2
	jne	$LN131@check_size

; 2791 :                         /* v2.06: emit warning at pass one if mem op isn't a forward ref */
; 2792 :                         /* v2.06b: added "undefined" check */
; 2793 :                         if ( ( CodeInfo->opnd[OPND1].InsFixup == NULL && Parse_Pass == PASS_1 && CodeInfo->undef_sym == FALSE ) ||

	mov	rcx, QWORD PTR [rbx+48]
	mov	eax, DWORD PTR Parse_Pass
	test	rcx, rcx
	jne	SHORT $LN167@check_size
	test	eax, eax
	jne	SHORT $LN119@check_size
	test	BYTE PTR [rbx+142], 64			; 00000040H
	je	$LN118@check_size
$LN119@check_size:
	test	rcx, rcx
	je	$LN131@check_size
$LN167@check_size:
	cmp	eax, 1
	jne	$LN131@check_size

; 2794 :                             ( CodeInfo->opnd[OPND1].InsFixup && Parse_Pass == PASS_2 ) )
; 2795 :                                 EmitWarn( 1, SIZE_NOT_SPECIFIED_ASSUMING, p );  //ovde je greska
; 2796 :                     }

	jmp	$LN118@check_size
$LN105@check_size:

; 2797 :                 } else if( ( op1 & OP_M_ANY ) && ( op2 & ( OP_R | OP_SR ) ) ) {

	test	eax, eax
	je	SHORT $LN120@check_size
	test	edi, 24591				; 0000600fH
	jne	$LN131@check_size
$LN120@check_size:

; 2798 :                 } else if( ( op1 & ( OP_MMX | OP_XMM ) ) && ( op2 & OP_I ) ) {

	test	bpl, 48					; 00000030H
	je	SHORT $LN122@check_size
	test	edi, 917504				; 000e0000H
	je	SHORT $LN122@check_size

; 2799 :                     if( (uint_32)CodeInfo->opnd[OPND2].data32l > USHRT_MAX ) {

	mov	ecx, DWORD PTR [rbx+64]
	cmp	ecx, 65535				; 0000ffffH
	jbe	SHORT $LN124@check_size

; 2800 :                          CodeInfo->opnd[OPND2].type = OP_I32;

	mov	DWORD PTR [rbx+56], 524288		; 00080000H
	jmp	$LN131@check_size
$LN124@check_size:

; 2801 :                     } else if( (uint_32)CodeInfo->opnd[OPND2].data32l > UCHAR_MAX ) {

	cmp	ecx, 255				; 000000ffH
	mov	eax, 131072				; 00020000H
	mov	ecx, 262144				; 00040000H
	cmova	eax, ecx
	mov	DWORD PTR [rbx+56], eax

; 2802 :                          CodeInfo->opnd[OPND2].type = OP_I16;
; 2803 :                     } else {
; 2804 :                          CodeInfo->opnd[OPND2].type = OP_I8;
; 2805 :                     }

	jmp	$LN131@check_size
$LN122@check_size:

; 2806 :                 } else if( ( op1 | op2 ) & ( OP_MMX | OP_XMM ) ) {

	test	r12b, 48				; 00000030H
	jne	$LN131@check_size

; 2807 :                 } else {
; 2808 :                     //AsmIntErr( 1 ); /* printf("internal error = %u", 1 ) */
; 2809 :                     switch( op2_size ) {

	sub	esi, 1
	je	SHORT $LN130@check_size
	sub	esi, 1
	je	SHORT $LN132@check_size
	cmp	esi, 2
	jne	$LN131@check_size

; 2825 :                     case 4:
; 2826 :                         CodeInfo->mem_type = MT_DWORD;
; 2827 :                         CodeInfo->iswide = 1;

	or	BYTE PTR [rbx+142], 1
	mov	DWORD PTR [rbx+28], 3

; 2828 :                         if( ( Parse_Pass == PASS_1 ) && ( op2 & OP_I ) ) {

	cmp	DWORD PTR Parse_Pass, 0
	jne	SHORT $LN131@check_size
	test	edi, 917504				; 000e0000H
	je	SHORT $LN131@check_size

; 2829 :                             EmitWarn( 1, SIZE_NOT_SPECIFIED_ASSUMING, "DWORD" );

	lea	r8, OFFSET FLAT:$SG12374
	jmp	SHORT $LN118@check_size
$LN132@check_size:

; 2814 :                         }
; 2815 :                         break;
; 2816 :                     case 2:
; 2817 :                         CodeInfo->mem_type = MT_WORD;
; 2818 :                         CodeInfo->iswide = 1;

	or	BYTE PTR [rbx+142], 1
	mov	DWORD PTR [rbx+28], 1

; 2819 :                         if( ( Parse_Pass == PASS_1 ) && ( op2 & OP_I ) ) {

	cmp	DWORD PTR Parse_Pass, 0
	jne	SHORT $LN133@check_size
	test	edi, 917504				; 000e0000H
	je	SHORT $LN133@check_size

; 2820 :                             EmitWarn( 1, SIZE_NOT_SPECIFIED_ASSUMING, "WORD" );

	mov	edx, 73					; 00000049H
	lea	r8, OFFSET FLAT:$SG12370
	lea	ecx, QWORD PTR [rdx-72]
	call	EmitWarn
$LN133@check_size:

; 2821 :                         }
; 2822 :                         if( CodeInfo->Ofssize )

	cmp	BYTE PTR [rbx+106], 0
	je	SHORT $LN131@check_size

; 2823 :                             CodeInfo->prefix.opsiz = TRUE;

	or	BYTE PTR [rbx+9], 2

; 2824 :                         break;

	jmp	SHORT $LN131@check_size
$LN130@check_size:

; 2810 :                     case 1:
; 2811 :                         CodeInfo->mem_type = MT_BYTE;

	mov	DWORD PTR [rbx+28], 0

; 2812 :                         if( ( Parse_Pass == PASS_1 ) && ( op2 & OP_I ) ) {

	cmp	DWORD PTR Parse_Pass, 0
	jne	SHORT $LN131@check_size
	test	edi, 917504				; 000e0000H
	je	SHORT $LN131@check_size

; 2813 :                             EmitWarn( 1, SIZE_NOT_SPECIFIED_ASSUMING, "BYTE" );

	lea	r8, OFFSET FLAT:$SG12367
$LN118@check_size:
	mov	edx, 73					; 00000049H
	lea	ecx, QWORD PTR [rdx-72]
	call	EmitWarn
$LN131@check_size:

; 2830 :                         }
; 2831 :                         break;
; 2832 :                     }
; 2833 :                 }
; 2834 :             }
; 2835 :         }
; 2836 :     }
; 2837 :     DebugMsg1(("check_size exit [CodeInfo->mem_type=%Xh]\n", CodeInfo->mem_type));
; 2838 :     return( rc );

	mov	eax, r14d
$LN1@check_size:

; 2839 : }

	mov	rbx, QWORD PTR [rsp+80]
	mov	rbp, QWORD PTR [rsp+88]
	mov	rsi, QWORD PTR [rsp+96]
	add	rsp, 32					; 00000020H
	pop	r15
	pop	r14
	pop	r13
	pop	r12
	pop	rdi
	ret	0
	npad	1
$LN162@check_size:
	DD	$LN27@check_size
	DD	$LN33@check_size
	DD	$LN49@check_size
	DD	$LN73@check_size
	DD	$LN131@check_size
	DD	$LN55@check_size
	DD	$LN14@check_size
	DD	$LN50@check_size
	DD	$LN36@check_size
	DD	$LN20@check_size
	DD	$def_check$171
$LN161@check_size:
	DB	0
	DB	0
	DB	0
	DB	0
	DB	0
	DB	0
	DB	0
	DB	0
	DB	10
	DB	10
	DB	10
	DB	10
	DB	10
	DB	10
	DB	10
	DB	10
	DB	10
	DB	10
	DB	10
	DB	10
	DB	10
	DB	10
	DB	10
	DB	10
	DB	10
	DB	10
	DB	10
	DB	10
	DB	10
	DB	10
	DB	10
	DB	10
	DB	10
	DB	10
	DB	10
	DB	10
	DB	10
	DB	10
	DB	10
	DB	10
	DB	10
	DB	10
	DB	1
	DB	1
	DB	10
	DB	10
	DB	10
	DB	10
	DB	10
	DB	10
	DB	10
	DB	10
	DB	10
	DB	10
	DB	10
	DB	2
	DB	10
	DB	10
	DB	10
	DB	10
	DB	10
	DB	10
	DB	10
	DB	10
	DB	10
	DB	10
	DB	10
	DB	10
	DB	10
	DB	10
	DB	10
	DB	10
	DB	10
	DB	10
	DB	10
	DB	10
	DB	10
	DB	10
	DB	10
	DB	10
	DB	10
	DB	10
	DB	10
	DB	10
	DB	10
	DB	10
	DB	10
	DB	10
	DB	10
	DB	10
	DB	10
	DB	10
	DB	10
	DB	3
	DB	10
	DB	10
	DB	10
	DB	10
	DB	10
	DB	10
	DB	10
	DB	10
	DB	10
	DB	10
	DB	10
	DB	10
	DB	4
	DB	10
	DB	5
	DB	6
	DB	10
	DB	10
	DB	10
	DB	10
	DB	10
	DB	10
	DB	10
	DB	10
	DB	10
	DB	7
	DB	7
	DB	4
	DB	10
	DB	1
	DB	1
	DB	1
	DB	10
	DB	10
	DB	8
	DB	8
	DB	10
	DB	9
check_size ENDP
_TEXT	ENDS
; Function compile flags: /Ogtpy
; File d:\hjwasm\hjwasm2.13.1s\hjwasm2.13.1s\parser.c
;	COMDAT HandleStringInstructions
_TEXT	SEGMENT
CodeInfo$ = 48
opndx$ = 56
HandleStringInstructions PROC				; COMDAT

; 2151 : {

	mov	QWORD PTR [rsp+8], rbx
	mov	QWORD PTR [rsp+16], rsi
	push	rdi
	sub	rsp, 32					; 00000020H
	mov	rbx, rcx

; 2152 :     int opndidx = OPND1;
; 2153 :     int op_size;
; 2154 : 
; 2155 :     switch( CodeInfo->token ) {

	lea	rsi, OFFSET FLAT:__ImageBase
	mov	ecx, DWORD PTR [rcx+24]
	xor	edi, edi
	cmp	ecx, 1206				; 000004b6H
	jg	SHORT $LN53@HandleStri
	je	$LN7@HandleStri
	cmp	ecx, 531				; 00000213H
	jg	SHORT $LN54@HandleStri
	je	$LN17@HandleStri
	sub	ecx, 516				; 00000204H
	cmp	ecx, 14
	ja	$LN29@HandleStri
	movsxd	rax, ecx
	mov	ecx, DWORD PTR $LN57@HandleStri[rsi+rax*4]
	add	rcx, rsi
	jmp	rcx
$LN54@HandleStri:
	cmp	ecx, 535				; 00000217H
	jle	SHORT $LN25@HandleStri
	cmp	ecx, 1042				; 00000412H
	je	$LN18@HandleStri
	cmp	ecx, 1048				; 00000418H
	jmp	SHORT $LN58@HandleStri
$LN25@HandleStri:

; 2227 :                 EmitError( INVALID_INSTRUCTION_OPERANDS );
; 2228 :             else if ( CodeInfo->prefix.RegOverride == ASSUME_DS )
; 2229 :                 CodeInfo->prefix.RegOverride = EMPTY;
; 2230 :         break;
; 2231 :     case T_OUTS:
; 2232 :     case T_OUTSB:
; 2233 :     case T_OUTSW:
; 2234 :     case T_OUTSD:
; 2235 :         /* v2.01: remove default DS prefix */
; 2236 :         if ( CodeInfo->prefix.RegOverride == ASSUME_DS )

	cmp	DWORD PTR [rbx+4], 3
	jne	SHORT $LN26@HandleStri

; 2237 :             CodeInfo->prefix.RegOverride = EMPTY;

	mov	ecx, -2
	mov	DWORD PTR [rbx+4], ecx
$LN26@HandleStri:

; 2238 :         opndidx = OPND2;

	mov	edi, 1

; 2239 :         break;

	jmp	$LN16@HandleStri
$LN53@HandleStri:

; 2152 :     int opndidx = OPND1;
; 2153 :     int op_size;
; 2154 : 
; 2155 :     switch( CodeInfo->token ) {

	cmp	ecx, 1453				; 000005adH
	jg	SHORT $LN55@HandleStri
	cmp	ecx, 1452				; 000005acH
	jge	SHORT $LN6@HandleStri
	cmp	ecx, 1207				; 000004b7H
	je	SHORT $LN27@HandleStri
	cmp	ecx, 1208				; 000004b8H
	je	SHORT $LN18@HandleStri
	lea	eax, DWORD PTR [rcx-1446]
	cmp	eax, 1
	ja	SHORT $LN29@HandleStri
$LN6@HandleStri:

; 2156 : #if AVXSUPP
; 2157 :     case T_VCMPSD:
; 2158 :     case T_VPCMPD:
; 2159 :     case T_VPCMPB:
; 2160 :     case T_VPCMPUD:
; 2161 :     case T_VPCMPUB:
; 2162 : #endif
; 2163 :     case T_CMPSD:
; 2164 :         /* filter SSE2 opcode CMPSD */
; 2165 :         if ( CodeInfo->opnd[OPND1].type & (OP_XMM | OP_MMX)) {

	test	BYTE PTR [rbx+32], 48			; 00000030H
	je	$LN7@HandleStri
$LN19@HandleStri:

; 2166 :             /* v2.01: QWORD operand for CMPSD/MOVSD may have set REX_W! */
; 2167 : #if AMD64_SUPPORT
; 2168 :             CodeInfo->prefix.rex &= ~REX_W;

	and	BYTE PTR [rbx+8], 247			; 000000f7H

; 2306 :             }
; 2307 :             break;
; 2308 : #endif
; 2309 :         }
; 2310 :     }
; 2311 :     return;
; 2312 : }

	mov	rbx, QWORD PTR [rsp+48]
	mov	rsi, QWORD PTR [rsp+56]
	add	rsp, 32					; 00000020H
	pop	rdi
	ret	0
$LN27@HandleStri:

; 2240 :     case T_LODS:
; 2241 :     case T_LODSB:
; 2242 :     case T_LODSW:
; 2243 :     case T_LODSD:
; 2244 : #if AMD64_SUPPORT
; 2245 :     case T_LODSQ:
; 2246 : #endif
; 2247 :         /* v2.10: remove unnecessary DS prefix ( Masm-compatible ) */
; 2248 :         if ( CodeInfo->prefix.RegOverride == ASSUME_DS )

	cmp	DWORD PTR [rbx+4], 3

; 2249 :             CodeInfo->prefix.RegOverride = EMPTY;
; 2250 :         break;

	jmp	SHORT $LN59@HandleStri
$LN55@HandleStri:

; 2152 :     int opndidx = OPND1;
; 2153 :     int op_size;
; 2154 : 
; 2155 :     switch( CodeInfo->token ) {

	sub	ecx, 1758				; 000006deH
	je	SHORT $LN6@HandleStri
	sub	ecx, 181				; 000000b5H
	je	SHORT $LN17@HandleStri
	cmp	ecx, 11
$LN58@HandleStri:
	je	SHORT $LN17@HandleStri
$LN29@HandleStri:

; 2251 :     default: /*INS[B|W|D], SCAS[B|W|D|Q], STOS[B|W|D|Q] */
; 2252 :         /* INSx, SCASx and STOSx don't allow any segment prefix != ES
; 2253 :          for the memory operand.
; 2254 :          */
; 2255 :         if ( CodeInfo->prefix.RegOverride != EMPTY )

	mov	eax, DWORD PTR [rbx+4]
	cmp	eax, -2
	je	SHORT $LN16@HandleStri

; 2256 :             if ( CodeInfo->prefix.RegOverride == ASSUME_ES )

	test	eax, eax
	je	SHORT $LN60@HandleStri
$LN12@HandleStri:

; 2257 :                 CodeInfo->prefix.RegOverride = EMPTY;
; 2258 :             else
; 2259 :                 EmitError( INVALID_INSTRUCTION_OPERANDS );

	mov	ecx, 49					; 00000031H
	call	EmitError
	jmp	SHORT $LN16@HandleStri
$LN17@HandleStri:

; 2197 :             }
; 2198 :         }
; 2199 :         break;
; 2200 : #if AVXSUPP
; 2201 :     case T_VMOVSD:
; 2202 :     case T_VMOVUPS:
; 2203 : #endif
; 2204 :     case T_MOVSD:
; 2205 :     case T_MOVUPS:
; 2206 : 
; 2207 :         /* filter SSE2 opcode MOVSD */
; 2208 :         if ( ( CodeInfo->opnd[OPND1].type & (OP_XMM | OP_MMX | OP_YMM | OP_ZMM) ) ||

	test	DWORD PTR [rbx+32], 432			; 000001b0H
	jne	SHORT $LN19@HandleStri
	test	DWORD PTR [rbx+56], 432			; 000001b0H
	jne	SHORT $LN19@HandleStri
$LN18@HandleStri:

; 2209 :             ( CodeInfo->opnd[OPND2].type & (OP_XMM | OP_MMX | OP_YMM | OP_ZMM) ) ) {
; 2210 :             /* v2.01: QWORD operand for CMPSD/MOVSD may have set REX_W! */
; 2211 : #if AMD64_SUPPORT
; 2212 :             CodeInfo->prefix.rex &= ~REX_W;
; 2213 : #endif
; 2214 :             return;
; 2215 :         }
; 2216 :         /* fall through */
; 2217 :     case T_MOVS:
; 2218 :     case T_MOVSB:
; 2219 :     case T_MOVSW:
; 2220 : #if AMD64_SUPPORT
; 2221 :     case T_MOVSQ:
; 2222 :     case T_MOVQ:
; 2223 : #endif
; 2224 :         /* movs allows prefix for the second operand (=source) only */
; 2225 :         if ( CodeInfo->prefix.RegOverride != EMPTY )

	mov	eax, DWORD PTR [rbx+4]
	cmp	eax, -2
	je	SHORT $LN16@HandleStri

; 2226 :             if ( opndx[OPND2].override == NULL )

	cmp	QWORD PTR [rdx+152], rdi
	je	SHORT $LN12@HandleStri
$LN10@HandleStri:

; 2191 :                     DebugMsg1(("HandleStringInstructions: CMPS: CodeInfo->RegOverride=%X, opndx->override=%s\n", CodeInfo->prefix.RegOverride, opndx[OPND2].override->string_ptr ));
; 2192 :                     EmitError( INVALID_INSTRUCTION_OPERANDS );
; 2193 :                 }
; 2194 :             } else if ( CodeInfo->prefix.RegOverride == ASSUME_DS ) {

	cmp	eax, 3
$LN59@HandleStri:
	jne	SHORT $LN16@HandleStri
$LN60@HandleStri:

; 2195 :                 /* prefix for first operand? */
; 2196 :                 CodeInfo->prefix.RegOverride = EMPTY;

	mov	ecx, -2
	mov	DWORD PTR [rbx+4], ecx
$LN16@HandleStri:

; 2260 :     }
; 2261 : 
; 2262 :     if ( opnd_clstab[CodeInfo->pinstr->opclsidx].opnd_type[opndidx] == OP_NONE ) {

	mov	rdx, QWORD PTR [rbx+16]
	movsxd	rdi, edi
	movzx	ecx, BYTE PTR [rdx]
	lea	rax, QWORD PTR [rdi+rcx*2]
	add	rcx, rax
	cmp	DWORD PTR opnd_clstab[rsi+rcx*4], 0
	jne	SHORT $LN33@HandleStri

; 2263 :         CodeInfo->iswide = 0;

	and	BYTE PTR [rbx+142], 254			; 000000feH

; 2264 :         CodeInfo->prefix.opsiz = FALSE;

	and	BYTE PTR [rbx+9], 253			; 000000fdH
$LN33@HandleStri:

; 2265 :     }
; 2266 : 
; 2267 :     /* if the instruction is the variant without suffix (MOVS, LODS, ..),
; 2268 :      * then use the operand's size to get further info.
; 2269 :      */
; 2270 :     //if ( CodeInfo->pinstr->opnd_type[opndidx] != OP_NONE &&
; 2271 :     if ( opnd_clstab[CodeInfo->pinstr->opclsidx].opnd_type[opndidx] != OP_NONE &&

	movzx	ecx, BYTE PTR [rdx]
	lea	rax, QWORD PTR [rdi+rcx*2]
	add	rcx, rax
	cmp	DWORD PTR opnd_clstab[rsi+rcx*4], 0
	je	$LN51@HandleStri
	lea	rax, QWORD PTR [rdi+rdi*2]
	mov	ecx, DWORD PTR [rbx+rax*8+32]
	test	ecx, ecx
	je	$LN51@HandleStri

; 2272 :         CodeInfo->opnd[opndidx].type != OP_NONE ) {
; 2273 :         if (CodeInfo->token == T_KMOVB) op_size = 1;

	mov	eax, DWORD PTR [rbx+24]
	cmp	eax, 1725				; 000006bdH
	je	$LN45@HandleStri

; 2274 :         else if (CodeInfo->token == T_KMOVW) op_size = 2;

	cmp	eax, 1728				; 000006c0H
	jne	SHORT $LN37@HandleStri
	mov	ecx, 2
	jmp	$LN44@HandleStri
$LN7@HandleStri:

; 2169 : #endif
; 2170 :             return;
; 2171 :         }
; 2172 :         /* fall through */
; 2173 :     case T_CMPS:
; 2174 :     case T_CMPSB:
; 2175 :     case T_CMPSW:
; 2176 : #if AMD64_SUPPORT
; 2177 :     case T_CMPSQ:
; 2178 : #endif
; 2179 :          /* cmps allows prefix for the first operand (=source) only */
; 2180 :         if ( CodeInfo->prefix.RegOverride != EMPTY ) {

	mov	eax, DWORD PTR [rbx+4]
	cmp	eax, -2
	je	SHORT $LN16@HandleStri

; 2181 :             if ( opndx[OPND2].override != NULL ) {

	cmp	QWORD PTR [rdx+152], rdi
	je	$LN10@HandleStri

; 2182 :                 if ( CodeInfo->prefix.RegOverride == ASSUME_ES ) {

	test	eax, eax
	jne	$LN12@HandleStri

; 2183 :                     /* content of LastRegOverride is valid if
; 2184 :                      * CodeInfo->RegOverride is != EMPTY.
; 2185 :                      */
; 2186 :                     if ( LastRegOverride == ASSUME_DS )

	mov	eax, DWORD PTR LastRegOverride
	mov	ecx, -2
	cmp	eax, 3
	cmove	eax, ecx
	mov	DWORD PTR [rbx+4], eax

; 2187 :                         CodeInfo->prefix.RegOverride = EMPTY;
; 2188 :                     else
; 2189 :                         CodeInfo->prefix.RegOverride = LastRegOverride;
; 2190 :                 } else {

	jmp	$LN16@HandleStri
$LN37@HandleStri:

; 2275 :         else if (CodeInfo->token == T_KMOVD) op_size = 4;

	cmp	eax, 1726				; 000006beH
	jne	SHORT $LN39@HandleStri
	mov	ecx, 4
	jmp	SHORT $LN44@HandleStri
$LN39@HandleStri:

; 2276 :         else if (CodeInfo->token == T_KMOVQ) op_size = 8;

	cmp	eax, 1727				; 000006bfH
	jne	SHORT $LN41@HandleStri
	mov	ecx, 8
	jmp	SHORT $LN44@HandleStri
$LN41@HandleStri:

; 2277 :         else op_size = OperandSize( CodeInfo->opnd[opndidx].type, CodeInfo );

	mov	rdx, rbx
	call	OperandSize
	mov	ecx, eax

; 2278 :         /* v2.06: added. if memory operand has no size */
; 2279 :         if ( op_size == 0 )

	test	eax, eax
	jne	SHORT $LN44@HandleStri

; 2280 :           op_size = OperandSize( CodeInfo->opnd[opndidx+1].type, CodeInfo );

	lea	rax, QWORD PTR [rdi+rdi*2]
	mov	rdx, rbx
	mov	ecx, DWORD PTR [rbx+rax*8+56]
	call	OperandSize
	mov	ecx, eax

; 2281 :         if ( op_size == 0 ) {

	test	eax, eax
	jne	SHORT $LN44@HandleStri

; 2282 :             if ( CodeInfo->opnd[opndidx].InsFixup == NULL || CodeInfo->opnd[opndidx].InsFixup->sym->state != SYM_UNDEFINED )

	lea	rax, QWORD PTR [rdi+rdi*2]
	mov	rax, QWORD PTR [rbx+rax*8+48]
	test	rax, rax
	je	SHORT $LN46@HandleStri
	mov	rax, QWORD PTR [rax+56]
	cmp	DWORD PTR [rax+32], ecx
	je	SHORT $LN45@HandleStri
$LN46@HandleStri:

; 2283 :                 EmitError( INSTRUCTION_OPERAND_MUST_HAVE_SIZE );

	mov	ecx, 182				; 000000b6H
	call	EmitError
$LN45@HandleStri:

; 2284 :             op_size = 1; /* assume shortest format */

	mov	ecx, 1
$LN44@HandleStri:

; 2285 :         }
; 2286 :         switch( op_size ) {

	sub	ecx, 1
	je	SHORT $LN47@HandleStri
	sub	ecx, 1
	je	SHORT $LN48@HandleStri
	sub	ecx, 2
	je	SHORT $LN49@HandleStri
	cmp	ecx, 4
	jne	SHORT $LN51@HandleStri

; 2299 :             break;
; 2300 : #if AMD64_SUPPORT
; 2301 :         case 8:
; 2302 :             if ( CodeInfo->Ofssize == USE64 ) {

	cmp	BYTE PTR [rbx+106], 2
	jne	SHORT $LN51@HandleStri

; 2303 :                 CodeInfo->iswide = 1;

	or	BYTE PTR [rbx+142], 1

; 2304 :                 CodeInfo->prefix.opsiz = FALSE;
; 2305 :                 CodeInfo->prefix.rex = REX_W;

	mov	BYTE PTR [rbx+8], 8
	jmp	SHORT $LN61@HandleStri
$LN49@HandleStri:

; 2295 :             break;
; 2296 :         case 4:
; 2297 :             CodeInfo->iswide = 1;

	or	BYTE PTR [rbx+142], 1

; 2298 :             CodeInfo->prefix.opsiz = CodeInfo->Ofssize ? FALSE : TRUE;

	and	BYTE PTR [rbx+9], 253			; 000000fdH
	cmp	BYTE PTR [rbx+106], 0
	sete	al
	and	al, 1
	add	al, al
	or	BYTE PTR [rbx+9], al

; 2306 :             }
; 2307 :             break;
; 2308 : #endif
; 2309 :         }
; 2310 :     }
; 2311 :     return;
; 2312 : }

	mov	rbx, QWORD PTR [rsp+48]
	mov	rsi, QWORD PTR [rsp+56]
	add	rsp, 32					; 00000020H
	pop	rdi
	ret	0
$LN48@HandleStri:

; 2291 :             break;
; 2292 :         case 2:
; 2293 :             CodeInfo->iswide = 1;

	or	BYTE PTR [rbx+142], 1

; 2294 :             CodeInfo->prefix.opsiz = CodeInfo->Ofssize ? TRUE : FALSE;

	and	BYTE PTR [rbx+9], 253			; 000000fdH
	cmp	BYTE PTR [rbx+106], 0
	setne	al
	and	al, 1
	add	al, al
	or	BYTE PTR [rbx+9], al

; 2306 :             }
; 2307 :             break;
; 2308 : #endif
; 2309 :         }
; 2310 :     }
; 2311 :     return;
; 2312 : }

	mov	rbx, QWORD PTR [rsp+48]
	mov	rsi, QWORD PTR [rsp+56]
	add	rsp, 32					; 00000020H
	pop	rdi
	ret	0
$LN47@HandleStri:

; 2287 :         case 1:
; 2288 :             CodeInfo->iswide = 0;

	and	BYTE PTR [rbx+142], 254			; 000000feH
$LN61@HandleStri:

; 2289 :             //if( CodeInfo->Ofssize )
; 2290 :                 CodeInfo->prefix.opsiz = FALSE;

	and	BYTE PTR [rbx+9], 253			; 000000fdH
$LN51@HandleStri:

; 2306 :             }
; 2307 :             break;
; 2308 : #endif
; 2309 :         }
; 2310 :     }
; 2311 :     return;
; 2312 : }

	mov	rbx, QWORD PTR [rsp+48]
	mov	rsi, QWORD PTR [rsp+56]
	add	rsp, 32					; 00000020H
	pop	rdi
	ret	0
	npad	3
$LN57@HandleStri:
	DD	$LN7@HandleStri
	DD	$LN7@HandleStri
	DD	$LN7@HandleStri
	DD	$LN6@HandleStri
	DD	$LN29@HandleStri
	DD	$LN29@HandleStri
	DD	$LN29@HandleStri
	DD	$LN29@HandleStri
	DD	$LN27@HandleStri
	DD	$LN27@HandleStri
	DD	$LN27@HandleStri
	DD	$LN27@HandleStri
	DD	$LN18@HandleStri
	DD	$LN18@HandleStri
	DD	$LN18@HandleStri
HandleStringInstructions ENDP
_TEXT	ENDS
; Function compile flags: /Ogtpy
; File d:\hjwasm\hjwasm2.13.1s\hjwasm2.13.1s\parser.c
;	COMDAT process_register
_TEXT	SEGMENT
CodeInfo$ = 48
CurrOpnd$ = 56
opndx$ = 64
process_register PROC					; COMDAT

; 2003 : {

	mov	QWORD PTR [rsp+8], rbx
	mov	QWORD PTR [rsp+16], rbp
	mov	QWORD PTR [rsp+24], rsi
	push	rdi
	sub	rsp, 32					; 00000020H
	mov	esi, edx

; 2004 :     enum special_token regtok;
; 2005 :     int  regno;
; 2006 :     uint_32 flags;
; 2007 :     DebugMsg1(( "process_register enter (%s)\n", opndx[CurrOpnd].base_reg->string_ptr ));
; 2008 :     regtok = opndx[CurrOpnd].base_reg->tokval;
; 2009 :     regno = GetRegNo( regtok );

	lea	rbp, OFFSET FLAT:__ImageBase
	mov	r10, rcx
	imul	rcx, rsi, 104				; 00000068H
	add	rcx, r8
	mov	rax, QWORD PTR [rcx+24]
	movsxd	rdi, DWORD PTR [rax+16]

; 2010 :     /* the register's "OP-flags" are stored in the 'value' field */
; 2011 :     flags = GetValueSp( regtok );
; 2012 :     CodeInfo->opnd[CurrOpnd].type = flags;

	lea	rax, QWORD PTR [rsi+rsi*2]
	lea	r8, QWORD PTR [rdi+rdi*2]
	lea	rbx, QWORD PTR [r8*4]
	mov	edx, DWORD PTR SpecialTable[rbx+rbp]
	lea	r8, QWORD PTR [r10+rax*8]
	movzx	r11d, BYTE PTR SpecialTable[rbx+rbp+10]
	mov	DWORD PTR [r8+32], edx

; 2013 : #if AVXSUPP
; 2014 :     if (CodeInfo->opnd[CurrOpnd].type == OP_ZMM || regno > 15) CodeInfo->evex_flag = TRUE;

	cmp	edx, 256				; 00000100H
	je	SHORT $LN3@process_re
	cmp	r11d, 15
	jle	SHORT $LN2@process_re
$LN3@process_re:
	mov	BYTE PTR [r10+136], 1
$LN2@process_re:

; 2015 :     if (CodeInfo->opnd[CurrOpnd].type == OP_K && regno > 7){

	cmp	DWORD PTR [r8+32], 64			; 00000040H
	jne	SHORT $LN4@process_re
	cmp	r11d, 7
	jg	SHORT $LN43@process_re
$LN4@process_re:

; 2016 :       DebugMsg(("process_register: assume error, reg=%u\n", regno));
; 2017 :       return(EmitError(USE_OF_REGISTER_ASSUMED_TO_ERROR));
; 2018 :     }
; 2019 : #endif
; 2020 :     if ( flags & OP_R8 ) {

	test	dl, 1
	je	SHORT $LN5@process_re

; 2021 :         /* it's probably better to not reset the wide bit at all */
; 2022 :         if ( flags != OP_CL )      /* problem: SHL AX|AL, CL */

	cmp	edx, 1025				; 00000401H
	je	SHORT $LN7@process_re

; 2023 :             CodeInfo->iswide = 0;

	and	BYTE PTR [r10+142], 254			; 000000feH
$LN7@process_re:

; 2024 : 
; 2025 : #if AMD64_SUPPORT
; 2026 :         if ( CodeInfo->Ofssize == USE64 && regno >=4 && regno <=7 )

	cmp	BYTE PTR [r10+106], 2
	jne	SHORT $LN10@process_re
	lea	eax, DWORD PTR [r11-4]
	cmp	eax, 3
	ja	SHORT $LN10@process_re

; 2027 :             if ( SpecialTable[regtok].cpu == P_86 )

	cmp	WORD PTR SpecialTable[rbx+rbp+8], 0
	jne	SHORT $LN9@process_re

; 2028 :                 CodeInfo->x86hi_used = 1; /* it's AH,BH,CH,DH */

	or	BYTE PTR [r10+142], 16
	jmp	SHORT $LN10@process_re
$LN9@process_re:

; 2029 :             else
; 2030 :                 CodeInfo->x64lo_used = 1; /* it's SPL,BPL,SIL,DIL */

	or	BYTE PTR [r10+142], 32			; 00000020H
$LN10@process_re:

; 2031 : #endif
; 2032 :         if ( StdAssumeTable[regno].error & (( regtok >= T_AH && regtok <= T_BH ) ? RH_ERROR : RL_ERROR ) ) {

	lea	eax, DWORD PTR [rdi-5]
	mov	ecx, 1
	cmp	eax, 3
	mov	r8d, 16
	movsxd	rax, r11d
	cmovbe	ecx, r8d
	shl	rax, 4
	test	BYTE PTR StdAssumeTable[rax+rbp+8], cl
	je	$LN27@process_re
$LN43@process_re:

; 2033 :             DebugMsg(("process_register: assume error, reg=%u\n", regno ));
; 2034 :             return( EmitError( USE_OF_REGISTER_ASSUMED_TO_ERROR ) );

	mov	ecx, 183				; 000000b7H
	call	EmitError
	jmp	$LN1@process_re
$LN5@process_re:

; 2035 :         }
; 2036 :     } else if ( flags & OP_R ) { /* 16-, 32- or 64-bit GPR? */

	test	dl, 15
	je	SHORT $LN12@process_re

; 2037 :         CodeInfo->iswide = 1;

	or	BYTE PTR [r10+142], 1

; 2038 :         if ( StdAssumeTable[regno].error & flags & OP_R ) {

	mov	rax, r11
	add	rax, rax
	movzx	eax, BYTE PTR StdAssumeTable[rbp+rax*8+8]
	and	eax, edx
	test	al, 15
	jne	SHORT $LN43@process_re

; 2039 :             DebugMsg(("process_register: assume error, reg=%u\n", regno ));
; 2040 :             return( EmitError( USE_OF_REGISTER_ASSUMED_TO_ERROR ) );
; 2041 :         }
; 2042 :         if ( flags & OP_R16 ) {

	test	dl, 2
	je	SHORT $LN15@process_re

; 2043 :             if ( CodeInfo->Ofssize > USE16 )

	cmp	BYTE PTR [r10+106], 0
	jbe	$LN27@process_re

; 2044 :                 CodeInfo->prefix.opsiz = TRUE;

	or	BYTE PTR [r10+9], 2

; 2045 :         } else {

	jmp	$LN27@process_re
$LN15@process_re:

; 2046 :             if( CodeInfo->Ofssize == USE16 )

	cmp	BYTE PTR [r10+106], 0
	jne	$LN27@process_re

; 2047 :                 CodeInfo->prefix.opsiz = TRUE;

	or	BYTE PTR [r10+9], 2

; 2048 :         }

	jmp	$LN27@process_re
$LN12@process_re:

; 2049 :     } else if ( flags & OP_SR ) {

	test	edx, 24576				; 00006000H
	je	SHORT $LN19@process_re

; 2050 :         if( regno == 1 ) { /* 1 is CS */

	cmp	r11d, 1
	jne	$LN27@process_re

; 2051 :             /* POP CS is not allowed */
; 2052 :             if( CodeInfo->token == T_POP ) {

	cmp	DWORD PTR [r10+24], 597			; 00000255H
	jne	$LN27@process_re

; 2053 :                 return( EmitError( POP_CS_IS_NOT_ALLOWED ) );

	lea	ecx, QWORD PTR [r11+40]
	call	EmitError
	jmp	$LN1@process_re
$LN19@process_re:

; 2054 :             }
; 2055 :         }
; 2056 :     } else if ( flags & OP_ST ) {

	bt	edx, 15
	jae	SHORT $LN23@process_re

; 2057 : 
; 2058 :         regno = opndx[CurrOpnd].st_idx;

	mov	ecx, DWORD PTR [rcx]

; 2059 :         if ( regno > 7 ) { /* v1.96: index check added */

	cmp	ecx, 7
	jle	SHORT $LN25@process_re

; 2060 :             return( EmitError( INVALID_COPROCESSOR_REGISTER ) );

	mov	ecx, 252				; 000000fcH
	call	EmitError
	jmp	$LN1@process_re
$LN25@process_re:

; 2061 :         }
; 2062 :         CodeInfo->rm_byte |= regno;

	or	BYTE PTR [r10+104], cl

; 2063 :         if( regno != 0 )

	mov	edx, 65536				; 00010000H
	mov	eax, DWORD PTR [r8+32]
	test	ecx, ecx
	cmovne	eax, edx
	mov	DWORD PTR [r8+32], eax

; 2064 :             CodeInfo->opnd[CurrOpnd].type = OP_ST_REG;
; 2065 :         /* v2.06: exit, rm_byte is already set. */
; 2066 :         return( NOT_ERROR );

	jmp	$LN38@process_re
$LN23@process_re:

; 2067 : 
; 2068 :     } else if ( flags & OP_RSPEC ) { /* CRx, DRx, TRx */

	bt	edx, 12
	jae	SHORT $LN27@process_re

; 2069 :         if( CodeInfo->token != T_MOV ) {

	cmp	DWORD PTR [r10+24], 601			; 00000259H
	je	SHORT $LN28@process_re

; 2070 :             return( EmitError( ONLY_MOV_CAN_USE_SPECIAL_REGISTER ) );

	mov	ecx, 42					; 0000002aH
	call	EmitError
	jmp	$LN1@process_re
$LN28@process_re:

; 2071 :         }
; 2072 :         /* v2.04: previously there were 3 flags, OP_CR, OP_DR and OP_TR.
; 2073 :          * this was summoned to one flag OP_RSPEC to free 2 flags, which
; 2074 :          * are needed if AVC ( new YMM registers ) is to be supported.
; 2075 :          * To distinguish between CR, DR and TR, the register number is
; 2076 :          * used now: CRx are numbers 0-F, DRx are numbers 0x10-0x1F and
; 2077 :          * TRx are 0x20-0x2F.
; 2078 :          */
; 2079 : 		if (regno >= 0x20) { /* TRx? */

	cmp	r11d, 32				; 00000020H
	jl	SHORT $LN29@process_re

; 2080 : 			CodeInfo->opc_or |= 0x04;

	or	BYTE PTR [r10+107], 4

; 2081 : 			/* TR3-TR5 are available on 486-586
; 2082 : 			* TR6+TR7 are available on 386-586
; 2083 : 			* v2.11: simplified.
; 2084 : 			*/
; 2085 : 			if ((ModuleInfo.curr_cpu & P_CPU_MASK) >= P_686) {

	mov	eax, DWORD PTR ModuleInfo+392
	and	eax, 240				; 000000f0H
	cmp	eax, 96					; 00000060H
	jl	SHORT $LN32@process_re

; 2086 : 				return(EmitErr(CANNOT_USE_TRN_TO_TRM_WITH_CURRENT_CPU_SETTING, regno > 0x25 ? 6 : 3, regno > 0x25 ? 7 : 5));

	mov	eax, 7
	cmp	r11d, 37				; 00000025H
	mov	r8d, 5
	mov	edx, 3
	cmovg	r8d, eax
	mov	eax, 6
	cmovg	edx, eax
	lea	ecx, QWORD PTR [rax+26]
	call	EmitErr
	jmp	$LN1@process_re
$LN29@process_re:

; 2087 : 			}
; 2088 : 		}
; 2089 : 		else if (regno >= 0x10) { /* DRx? */

	cmp	r11d, 16
	jl	SHORT $LN32@process_re

; 2090 : 			CodeInfo->opc_or |= 0x01;

	or	BYTE PTR [r10+107], 1
$LN32@process_re:

; 2091 : 		}
; 2092 : 		regno &= 0x0F;

	and	r11d, 15
$LN27@process_re:

; 2093 : 	}
; 2094 : #if AMD64_SUPPORT
; 2095 : 
; 2096 :     /* if it's a x86-64 register (SIL, R8W, R8D, RSI, ... */
; 2097 :     if ( ( SpecialTable[regtok].cpu & P_CPU_MASK ) == P_64 ) {

	movzx	eax, BYTE PTR SpecialTable[rbx+rbp+8]
	and	al, 240					; 000000f0H
	cmp	al, 112					; 00000070H
	jne	SHORT $LN34@process_re

; 2098 :         CodeInfo->prefix.rex |= 0x40;

	or	BYTE PTR [r10+8], 64			; 00000040H
	movzx	eax, BYTE PTR [r10+8]

; 2099 :         if ( flags & OP_R64 )

	test	dl, 8
	je	SHORT $LN34@process_re

; 2100 :             CodeInfo->prefix.rex |= REX_W;

	or	al, 8
	mov	BYTE PTR [r10+8], al
$LN34@process_re:

; 2101 :     }
; 2102 : #endif
; 2103 :     if( CurrOpnd == OPND1 ) {

	test	esi, esi
	jne	SHORT $LN35@process_re

; 2104 :         /* the first operand
; 2105 :          * r/m is treated as a 'reg' field */
; 2106 :         CodeInfo->rm_byte |= MOD_11;
; 2107 : #if AMD64_SUPPORT
; 2108 :         CodeInfo->prefix.rex |= (regno & 8 ) >> 3; /* set REX_B */

	mov	eax, r11d

; 2109 :         regno &= BIT_012;

	and	r11b, 7
	sar	eax, 3
	and	al, 1

; 2110 : #endif
; 2111 :         /* fill the r/m field */
; 2112 :         CodeInfo->rm_byte |= regno;

	or	r11b, 192				; 000000c0H

; 2113 :     } else {

	jmp	SHORT $LN42@process_re
$LN35@process_re:

; 2114 :         /* the second operand
; 2115 :          * XCHG can use short form if op1 is AX/EAX/RAX */
; 2116 :         if( ( CodeInfo->token == T_XCHG ) && ( CodeInfo->opnd[OPND1].type & OP_A ) &&

	cmp	DWORD PTR [r10+24], 661			; 00000295H
	jne	SHORT $LN37@process_re
	mov	eax, DWORD PTR [r10+32]
	and	eax, 513				; 00000201H
	cmp	eax, 512				; 00000200H
	jne	SHORT $LN37@process_re

; 2117 :              ( 0 == (CodeInfo->opnd[OPND1].type & OP_R8 ) ) ) {
; 2118 : #if AMD64_SUPPORT
; 2119 :             CodeInfo->prefix.rex |= (regno & 8 ) >> 3; /* set REX_B */
; 2120 :             regno &= BIT_012;
; 2121 : #endif
; 2122 :             CodeInfo->rm_byte = ( CodeInfo->rm_byte & BIT_67 ) | regno;

	and	BYTE PTR [r10+104], 192			; 000000c0H
	mov	eax, r11d
	sar	eax, 3
	and	al, 1
	and	r11b, 7

; 2123 :         } else {

	jmp	SHORT $LN42@process_re
$LN37@process_re:

; 2124 :             /* fill reg field with reg */
; 2125 : #if AMD64_SUPPORT
; 2126 :             CodeInfo->prefix.rex |= (regno & 8 ) >> 1; /* set REX_R */
; 2127 :             regno &= BIT_012;
; 2128 : #endif
; 2129 :             CodeInfo->rm_byte = ( CodeInfo->rm_byte & ~BIT_345 ) | ( regno << 3 );

	and	BYTE PTR [r10+104], 199			; 000000c7H
	mov	eax, r11d
	sar	eax, 1
	and	r11b, 7
	and	al, 4
	shl	r11b, 3
$LN42@process_re:
	or	BYTE PTR [r10+8], al
	or	BYTE PTR [r10+104], r11b
$LN38@process_re:

; 2130 :         }
; 2131 :     }
; 2132 :     return( NOT_ERROR );

	xor	eax, eax
$LN1@process_re:

; 2133 : }

	mov	rbx, QWORD PTR [rsp+48]
	mov	rbp, QWORD PTR [rsp+56]
	mov	rsi, QWORD PTR [rsp+64]
	add	rsp, 32					; 00000020H
	pop	rdi
	ret	0
process_register ENDP
_TEXT	ENDS
; Function compile flags: /Ogtpy
; File d:\hjwasm\hjwasm2.13.1s\hjwasm2.13.1s\parser.c
;	COMDAT process_const
_TEXT	SEGMENT
CodeInfo$ = 8
CurrOpnd$ = 16
opndx$ = 24
process_const PROC					; COMDAT

; 1946 : #if 0 /* v2.06: obsolete */
; 1947 :     /* hack for IMUL: compress the operands so there are 2 only */
; 1948 :     if( ( CodeInfo->token == T_IMUL ) &&
; 1949 :        ( CodeInfo->opnd_type[OPND1] & OP_R ) ) {
; 1950 :         if( CurrOpnd == OPND2 ) {
; 1951 : #if AMD64_SUPPORT
; 1952 :             CodeInfo->prefix.rex |= ((CodeInfo->prefix.rex & REX_B) ? REX_R : 0);
; 1953 : #endif
; 1954 :             CodeInfo->rm_byte = ( CodeInfo->rm_byte & ~BIT_345 )
; 1955 :                           | ( ( CodeInfo->rm_byte & BIT_012 ) << 3 );
; 1956 :         } else if( CurrOpnd == OPND3 ) {
; 1957 :             /* v2.04b: if op2 was assumed an immediate due to fwd ref,
; 1958 :              * change it back to a mem ref now.
; 1959 :              */
; 1960 :             if ( ( CodeInfo->opnd_type[OPND2] & OP_I ) &&
; 1961 :                 CodeInfo->InsFixup[OPND2] &&
; 1962 :                 CodeInfo->InsFixup[OPND2]->sym->state == SYM_UNDEFINED )
; 1963 :                 CodeInfo->opnd_type[OPND2] = OP_M;
; 1964 :             CodeInfo->opnd_type[OPND1] = CodeInfo->opnd_type[OPND2];
; 1965 :             CodeInfo->opnd_type[OPND2] = OP_NONE;
; 1966 :             CodeInfo->data[OPND1] = CodeInfo->data[OPND2];
; 1967 :             CodeInfo->data[OPND2] = 0;
; 1968 :             CodeInfo->InsFixup[OPND1] = CodeInfo->InsFixup[OPND2];
; 1969 :             CodeInfo->InsFixup[OPND2] = NULL;
; 1970 :             CurrOpnd = OPND2;
; 1971 :         }
; 1972 :     }
; 1973 : #endif
; 1974 :     /* v2.11: don't accept an empty string */
; 1975 :     if ( opndx->quoted_string && opndx->quoted_string->stringlen == 0 )

	mov	rax, QWORD PTR [r8+16]
	mov	r9, rcx
	test	rax, rax
	je	SHORT $LN2@process_co
	cmp	DWORD PTR [rax+16], 0
	jne	SHORT $LN2@process_co

; 1976 :         return( EmitError( EMPTY_STRING ) );

	mov	ecx, 163				; 000000a3H
	jmp	EmitError
$LN2@process_co:

; 1977 : 
; 1978 :     /* optimization: skip <value> if it is 0 and instruction
; 1979 :      * is RET[W|D|N|F]. */
; 1980 :     /* v2.06: moved here and checked the opcode directly, so
; 1981 :      * RETD and RETW are also handled. */
; 1982 :     if ( ( ( CodeInfo->pinstr->opcode & 0xf7 ) == 0xc2 ) &&
; 1983 :         CurrOpnd == OPND1 && opndx->value == 0 ) {

	mov	rax, QWORD PTR [rcx+16]
	movzx	ecx, BYTE PTR [rax+12]
	and	cl, 247					; 000000f7H
	cmp	cl, 194					; 000000c2H
	jne	SHORT $LN3@process_co
	test	edx, edx
	jne	SHORT $LN3@process_co
	cmp	DWORD PTR [r8], edx
	jne	SHORT $LN3@process_co

; 1984 :         //     (CodeInfo.token == T_RET ||
; 1985 :         //      CodeInfo.token == T_RETN ||
; 1986 :         //      CodeInfo.token == T_RETF)) {
; 1987 :         //if ( opndx.sym == NULL || opndx.sym->state == SYM_INTERNAL ) {
; 1988 :         return( NOT_ERROR );

	xor	eax, eax

; 1991 : }

	ret	0
$LN3@process_co:

; 1989 :     }
; 1990 :     return( idata_nofixup( CodeInfo, CurrOpnd, opndx ) );

	mov	rcx, r9
	jmp	idata_nofixup
process_const ENDP
_TEXT	ENDS
; Function compile flags: /Ogtpy
; File d:\hjwasm\hjwasm2.13.1s\hjwasm2.13.1s\parser.c
;	COMDAT process_address
_TEXT	SEGMENT
CodeInfo$ = 48
CurrOpnd$ = 56
opndx$ = 64
process_address PROC					; COMDAT

; 1802 : {

	mov	QWORD PTR [rsp+8], rbx
	mov	QWORD PTR [rsp+16], rsi
	push	rdi
	sub	rsp, 32					; 00000020H
	mov	rdi, rcx
	mov	rbx, r8

; 1803 :     if( opndx->indirect ) {  /* indirect register operand or stack var */

	mov	ecx, DWORD PTR [r8+76]
	mov	esi, edx
	test	cl, 1
	je	SHORT $LN7@process_ad

; 1804 : 
; 1805 :         DebugMsg1(("process_address: INDIRECT, sym=%s mbr=%s ci.adrsiz=%u\n",
; 1806 :                    opndx->sym ? opndx->sym->name : "NULL",
; 1807 :                    opndx->mbr ? opndx->mbr->name : "NULL",
; 1808 :                    CodeInfo->prefix.adrsiz ));
; 1809 :         /* if displacement doesn't fit in 32-bits:
; 1810 :          * Masm (both ML and ML64) just truncates.
; 1811 :          * HJWasm throws an error in 64bit mode and
; 1812 :          * warns (level 3) in the other modes.
; 1813 :          * todo: this check should also be done for direct addressing!
; 1814 :          */
; 1815 :         if ( opndx->hvalue && ( opndx->hvalue != -1 || opndx->value >= 0 ) ) {

	mov	eax, DWORD PTR [r8+4]
	test	eax, eax
	je	SHORT $LN9@process_ad
	cmp	eax, -1
	jne	SHORT $LN10@process_ad
	cmp	DWORD PTR [r8], 0
	jl	SHORT $LN9@process_ad
$LN10@process_ad:

; 1816 :             DebugMsg1(("process_address: displacement doesn't fit in 32 bits: %" I64_SPEC "X\n", opndx->value64 ));
; 1817 : #if AMD64_SUPPORT
; 1818 :             if ( ModuleInfo.Ofssize == USE64 ) {

	cmp	BYTE PTR ModuleInfo+404, 2
	jne	SHORT $LN11@process_ad

; 1819 :                 return( EmitConstError( opndx ) );

	mov	rcx, rbx

; 1937 : }

	mov	rbx, QWORD PTR [rsp+48]
	mov	rsi, QWORD PTR [rsp+56]
	add	rsp, 32					; 00000020H
	pop	rdi

; 1819 :                 return( EmitConstError( opndx ) );

	jmp	EmitConstError
$LN11@process_ad:

; 1820 :             }
; 1821 : #endif
; 1822 :             EmitWarn( 3, DISPLACEMENT_OUT_OF_RANGE, opndx->value64 );

	mov	r8, QWORD PTR [r8]
	mov	edx, 54					; 00000036H
	lea	ecx, QWORD PTR [rdx-51]
	call	EmitWarn
$LN9@process_ad:

; 1823 :         }
; 1824 :         if( opndx->sym == NULL || opndx->sym->state == SYM_STACK ) {

	mov	rax, QWORD PTR [rbx+80]
	test	rax, rax
	je	SHORT $LN13@process_ad
	cmp	DWORD PTR [rax+32], 5
	jne	$LN44@process_ad
$LN13@process_ad:

; 1825 :             return( memory_operand( CodeInfo, CurrOpnd, opndx, FALSE ) );

	xor	r9d, r9d
	mov	r8, rbx
	mov	edx, esi
	mov	rcx, rdi

; 1937 : }

	mov	rbx, QWORD PTR [rsp+48]
	mov	rsi, QWORD PTR [rsp+56]
	add	rsp, 32					; 00000020H
	pop	rdi

; 1825 :             return( memory_operand( CodeInfo, CurrOpnd, opndx, FALSE ) );

	jmp	memory_operand
$LN7@process_ad:

; 1826 :         }
; 1827 :         /* do default processing */
; 1828 : 
; 1829 :     } else if( opndx->instr != EMPTY ) {

	mov	eax, DWORD PTR [r8+56]
	cmp	eax, -2
	je	SHORT $LN14@process_ad

; 1830 :         /* instr is OFFSET | LROFFSET | SEG | LOW | LOWWORD, ... */
; 1831 :         DebugMsg1(("process_address: instr=%s\n", GetResWName( opndx->instr, NULL ) ));
; 1832 :         if( opndx->sym == NULL ) { /* better to check opndx->type? */

	cmp	QWORD PTR [r8+80], 0
	jne	SHORT $LN16@process_ad
$LN21@process_ad:

; 1833 :             return( idata_nofixup( CodeInfo, CurrOpnd, opndx ) );

	mov	rcx, rdi

; 1937 : }

	mov	rbx, QWORD PTR [rsp+48]
	mov	rsi, QWORD PTR [rsp+56]
	add	rsp, 32					; 00000020H
	pop	rdi

; 1833 :             return( idata_nofixup( CodeInfo, CurrOpnd, opndx ) );

	jmp	idata_nofixup
$LN16@process_ad:

; 1834 :         } else {
; 1835 :             /* allow "lea <reg>, [offset <sym>]" */
; 1836 :             if( CodeInfo->token == T_LEA && opndx->instr == T_OFFSET )

	cmp	DWORD PTR [rdi+24], 629			; 00000275H
	jne	$LN18@process_ad
	cmp	eax, 241				; 000000f1H
	jne	$LN18@process_ad
$LN53@process_ad:

; 1837 :                 return( memory_operand( CodeInfo, CurrOpnd, opndx, TRUE ) );

	mov	r9b, 1
	mov	rcx, rdi

; 1937 : }

	mov	rbx, QWORD PTR [rsp+48]
	mov	rsi, QWORD PTR [rsp+56]
	add	rsp, 32					; 00000020H
	pop	rdi

; 1837 :                 return( memory_operand( CodeInfo, CurrOpnd, opndx, TRUE ) );

	jmp	memory_operand
$LN14@process_ad:

; 1838 :             return( idata_fixup( CodeInfo, CurrOpnd, opndx ) );
; 1839 :         }
; 1840 :     } else if( opndx->sym == NULL ) { /* direct operand without symbol */

	mov	rax, QWORD PTR [r8+80]
	test	rax, rax
	jne	SHORT $LN19@process_ad

; 1841 :         DebugMsg1(("process_address: symbol=NULL\n" ));
; 1842 :         if( opndx->override != NULL ) {

	mov	rax, QWORD PTR [r8+48]
	test	rax, rax
	je	SHORT $LN21@process_ad

; 1843 :             /* direct absolute memory without symbol.
; 1844 :              DS:[0] won't create a fixup, but
; 1845 :              DGROUP:[0] will create one! */
; 1846 : #if AMD64_SUPPORT
; 1847 :             /* for 64bit, always create a fixup, since RIP-relative addressing is used
; 1848 :              * v2.11: don't create fixup in 64-bit.
; 1849 :              */
; 1850 :             //if ( opndx->override->token == T_REG && CodeInfo->Ofssize != USE64 )
; 1851 :             if ( opndx->override->token == T_REG || CodeInfo->Ofssize == USE64 )

	cmp	BYTE PTR [rax], 2
	je	SHORT $LN25@process_ad
	cmp	BYTE PTR [rdi+106], 2
	jne	SHORT $LN53@process_ad
$LN25@process_ad:

; 1852 : #else
; 1853 :             if ( opndx->override->token == T_REG )
; 1854 : #endif
; 1855 :                 return( memory_operand( CodeInfo, CurrOpnd, opndx, FALSE ) );

	xor	r9d, r9d
	mov	rcx, rdi

; 1937 : }

	mov	rbx, QWORD PTR [rsp+48]
	mov	rsi, QWORD PTR [rsp+56]
	add	rsp, 32					; 00000020H
	pop	rdi

; 1852 : #else
; 1853 :             if ( opndx->override->token == T_REG )
; 1854 : #endif
; 1855 :                 return( memory_operand( CodeInfo, CurrOpnd, opndx, FALSE ) );

	jmp	memory_operand
$LN19@process_ad:

; 1856 :             else
; 1857 :                 return( memory_operand( CodeInfo, CurrOpnd, opndx, TRUE ) );
; 1858 :         } else {
; 1859 :             return( idata_nofixup( CodeInfo, CurrOpnd, opndx ) );
; 1860 :         }
; 1861 :     } else if( ( opndx->sym->state == SYM_UNDEFINED ) && !opndx->explicit ) {

	mov	eax, DWORD PTR [rax+32]
	test	eax, eax
	jne	$LN26@process_ad
	test	cl, 2
	jne	$LN26@process_ad

; 1862 :         DebugMsg1(("process_address: sym=SYM_UNDEFINED, name=%s, state=%X\n", opndx->sym->name, opndx->sym->state ));
; 1863 :         /* v2.04: unnecessary, the expression evaluator will have emitted an error already */
; 1864 :         //if( Parse_Pass != PASS_1 ) {
; 1865 :         //    EmitErr( SYMBOL_NOT_DEFINED, opndx->sym->name );
; 1866 :         //    return( ERROR );
; 1867 :         //}
; 1868 :         /* undefined symbol, it's not possible to determine
; 1869 :          * operand type and size currently. However, for backpatching
; 1870 :          * a fixup should be created.
; 1871 :          */
; 1872 :         /* assume a code label for branch instructions! */
; 1873 :         if( IS_ANY_BRANCH( CodeInfo->token ) )

	mov	ecx, DWORD PTR [rdi+24]
	lea	eax, DWORD PTR [rcx-450]
	cmp	eax, 49					; 00000031H
	ja	SHORT $LN28@process_ad

; 1874 :             return( process_branch( CodeInfo, CurrOpnd, opndx ) );

	mov	rcx, rdi

; 1937 : }

	mov	rbx, QWORD PTR [rsp+48]
	mov	rsi, QWORD PTR [rsp+56]
	add	rsp, 32					; 00000020H
	pop	rdi

; 1874 :             return( process_branch( CodeInfo, CurrOpnd, opndx ) );

	jmp	process_branch
$LN28@process_ad:

; 1875 : 
; 1876 :         switch( CodeInfo->token ) {

	sub	ecx, 560				; 00000230H
	je	SHORT $LN29@process_ad
	sub	ecx, 36					; 00000024H
	je	SHORT $LN29@process_ad
	cmp	ecx, 2
	je	SHORT $LN29@process_ad

; 1884 :             }
; 1885 :             break;
; 1886 :         default:
; 1887 :             /* v2.04: if operand is the second argument (and the first is NOT
; 1888 :              * a segment register!), scan the
; 1889 :              * instruction table if the instruction allows an immediate!
; 1890 :              * If so, assume the undefined symbol is a constant.
; 1891 :              */
; 1892 :             if ( CurrOpnd == OPND2 && (( CodeInfo->opnd[OPND1].type & OP_SR ) == 0 ) ) {

	cmp	edx, 1
	jne	SHORT $LN5@process_ad
	test	DWORD PTR [rdi+32], 24576		; 00006000H
	jne	SHORT $LN44@process_ad

; 1893 :                 const struct instr_item  *p = CodeInfo->pinstr;

	mov	rdx, QWORD PTR [rdi+16]
	lea	r8, OFFSET FLAT:opnd_clstab+4
	npad	7
$LL6@process_ad:

; 1894 :                 do {
; 1895 :                     if ( opnd_clstab[p->opclsidx].opnd_type[OPND2] & OP_I ) {

	movzx	eax, BYTE PTR [rdx]
	lea	rcx, QWORD PTR [rax+rax*2]
	test	DWORD PTR [r8+rcx*4], 917504		; 000e0000H
	jne	SHORT $LN47@process_ad

; 1897 :                     }
; 1898 :                     p++;

	add	rdx, 14

; 1899 :                 } while ( p->first == FALSE );

	cmp	BYTE PTR [rdx+4], 0
	je	SHORT $LL6@process_ad
	jmp	SHORT $LN44@process_ad
$LN47@process_ad:

; 1896 :                         return( idata_fixup( CodeInfo, CurrOpnd, opndx ) );

	mov	r8, rbx
	mov	edx, 1
	jmp	$LN18@process_ad
$LN5@process_ad:

; 1900 :             }
; 1901 :             /* v2.10: if current operand is the third argument, always assume an immediate */
; 1902 :             if ( CurrOpnd == OPND3 )

	cmp	edx, 2
	jne	SHORT $LN44@process_ad

; 1903 :                 return( idata_fixup( CodeInfo, CurrOpnd, opndx ) );

	jmp	SHORT $LN18@process_ad
$LN29@process_ad:

; 1877 :         case T_PUSH:
; 1878 :         case T_PUSHW:
; 1879 :         case T_PUSHD:
; 1880 :             /* v2.0: don't assume immediate operand if cpu is 8086 */
; 1881 :             if ( ( ModuleInfo.curr_cpu & P_CPU_MASK ) > P_86 ) {

	test	DWORD PTR ModuleInfo+392, 240		; 000000f0H
	jle	SHORT $LN44@process_ad

; 1882 :                 //return( idata_nofixup( CodeInfo, opndx ) ); /* v1.96: changed */
; 1883 :                 return( idata_fixup( CodeInfo, CurrOpnd, opndx ) );

	jmp	SHORT $LN18@process_ad
$LN26@process_ad:
	add	eax, -3					; fffffffdH
	cmp	eax, 1
	jbe	SHORT $LN37@process_ad

; 1914 :     } else {
; 1915 :         DebugMsg1(("process_address direct, sym=%s sym.memtype=%X opndx.memtype=%X\n", opndx->sym->name, opndx->sym->mem_type, opndx->mem_type ));
; 1916 : 
; 1917 :         /* symbol external, but absolute? */
; 1918 :         if( opndx->is_abs ) {

	test	cl, 4
	jne	SHORT $LN18@process_ad
	mov	eax, DWORD PTR [r8+64]
	sub	eax, 129				; 00000081H
	cmp	eax, 1
	jbe	SHORT $LN40@process_ad
$LN44@process_ad:

; 1930 :             } else {
; 1931 :                 return( idata_fixup( CodeInfo, CurrOpnd, opndx ) );
; 1932 :             }
; 1933 :         }
; 1934 :     }
; 1935 :     /* default processing: memory with fixup */
; 1936 :     return( memory_operand( CodeInfo, CurrOpnd, opndx, TRUE ) );

	mov	r9b, 1
	mov	r8, rbx
	mov	edx, esi
	mov	rcx, rdi

; 1937 : }

	mov	rbx, QWORD PTR [rsp+48]
	mov	rsi, QWORD PTR [rsp+56]
	add	rsp, 32					; 00000020H
	pop	rdi

; 1930 :             } else {
; 1931 :                 return( idata_fixup( CodeInfo, CurrOpnd, opndx ) );
; 1932 :             }
; 1933 :         }
; 1934 :     }
; 1935 :     /* default processing: memory with fixup */
; 1936 :     return( memory_operand( CodeInfo, CurrOpnd, opndx, TRUE ) );

	jmp	memory_operand
$LN40@process_ad:

; 1919 :             return( idata_fixup( CodeInfo, CurrOpnd, opndx ) );
; 1920 :         }
; 1921 : 
; 1922 :         /* CODE location is converted to OFFSET symbol */
; 1923 :         if ( opndx->mem_type == MT_NEAR || opndx->mem_type == MT_FAR ) {
; 1924 :             if( CodeInfo->token == T_LEA ) {

	cmp	DWORD PTR [rdi+24], 629			; 00000275H
	je	$LN53@process_ad

; 1925 :                 return( memory_operand( CodeInfo, CurrOpnd, opndx, TRUE ) );
; 1926 :             //} else if( opndx->sym == &symPC ) {
; 1927 :             //    return( idata_fixup( CodeInfo, opndx ) );
; 1928 :             } else if( opndx->mbr != NULL ) { /* structure field? */

	cmp	QWORD PTR [r8+88], 0

; 1929 :                 return( memory_operand( CodeInfo, CurrOpnd, opndx, TRUE ) );

	mov	rcx, rdi
	je	SHORT $LN43@process_ad
	mov	r9b, 1

; 1937 : }

	mov	rbx, QWORD PTR [rsp+48]
	mov	rsi, QWORD PTR [rsp+56]
	add	rsp, 32					; 00000020H
	pop	rdi

; 1929 :                 return( memory_operand( CodeInfo, CurrOpnd, opndx, TRUE ) );

	jmp	memory_operand
$LN37@process_ad:

; 1904 :         }
; 1905 :         /* do default processing */
; 1906 : 
; 1907 :     } else if( ( opndx->sym->state == SYM_SEG ) ||
; 1908 :                ( opndx->sym->state == SYM_GRP ) ) {
; 1909 :         DebugMsg1(("process_address: sym->state=SEG/GROUP\n"));
; 1910 :         /* SEGMENT and GROUP symbol is converted to SEG symbol
; 1911 :          * for next processing */
; 1912 :         opndx->instr = T_SEG;

	mov	DWORD PTR [r8+56], 244			; 000000f4H
$LN18@process_ad:

; 1913 :         return( idata_fixup( CodeInfo, CurrOpnd, opndx ) );

	mov	rcx, rdi
$LN43@process_ad:

; 1937 : }

	mov	rbx, QWORD PTR [rsp+48]
	mov	rsi, QWORD PTR [rsp+56]
	add	rsp, 32					; 00000020H
	pop	rdi

; 1913 :         return( idata_fixup( CodeInfo, CurrOpnd, opndx ) );

	jmp	idata_fixup
process_address ENDP
_TEXT	ENDS
; Function compile flags: /Ogtpy
; File d:\hjwasm\hjwasm2.13.1s\hjwasm2.13.1s\parser.c
;	COMDAT memory_operand
_TEXT	SEGMENT
tv1052 = 112
CodeInfo$ = 112
CurrOpnd$ = 120
opndx$ = 128
with_fixup$ = 136
memory_operand PROC					; COMDAT

; 1427 : {

	mov	BYTE PTR [rsp+32], r9b
	mov	DWORD PTR [rsp+16], edx
	push	rbx
	push	rbp
	push	rsi
	push	rdi
	push	r12
	push	r13
	sub	rsp, 56					; 00000038H
	mov	eax, edx
	mov	rbx, rcx

; 1428 :     char                ss = SCALE_FACTOR_1;
; 1429 :     int                 index;
; 1430 :     int                 base;
; 1431 :     int                 j;
; 1432 :     struct asym         *sym;
; 1433 :     uint_8              Ofssize;
; 1434 :     enum fixup_types    fixup_type;
; 1435 : 
; 1436 :     DebugMsg1(("memory_operand(opndx.value=%X / sym=%s / memtype=%Xh, with_fixup=%u) enter, [CodeInfo->memtype=%Xh, Ofssize=%u, adrsiz=%u]\n",
; 1437 :                opndx->value, opndx->sym ? opndx->sym->name : "NULL", opndx->mem_type, with_fixup, CodeInfo->mem_type, CodeInfo->Ofssize, CodeInfo->prefix.adrsiz ));
; 1438 : 
; 1439 :     /* v211: use full 64-bit value */
; 1440 :     //CodeInfo->opnd[CurrOpnd].data = opndx->value;
; 1441 :     CodeInfo->opnd[CurrOpnd].data64 = opndx->value64;

	mov	QWORD PTR tv1052[rsp], rax

; 1442 :     CodeInfo->opnd[CurrOpnd].type = OP_M;
; 1443 : 
; 1444 :     sym = opndx->sym;
; 1445 : 
; 1446 :     segm_override( opndx, CodeInfo );

	mov	rdx, rcx
	mov	rsi, r8
	lea	rax, QWORD PTR [rax+rax*2]
	lea	rbp, QWORD PTR [rcx+rax*8]
	mov	rax, QWORD PTR [r8]
	mov	QWORD PTR [rbp+40], rax
	mov	rcx, r8
	mov	DWORD PTR [rbp+32], -1887436800		; ffffffff8f800000H
	mov	r13, QWORD PTR [r8+80]
	call	segm_override

; 1447 : 
; 1448 :     /* change pointer types ( MT_NEAR, MT_FAR, MT_PTR */
; 1449 :     /* v2.04a: should not be called if OFFSET was used */
; 1450 :     //if ( opndx->mem_type == MT_PTR ) /* this was before v2.04 */
; 1451 :     //if ( ( opndx->mem_type & MT_SPECIAL_MASK ) == MT_ADDRESS )
; 1452 :     /* v2.05: change reverted */
; 1453 :     //if ( ( opndx->mem_type & MT_SPECIAL_MASK ) == MT_ADDRESS && opndx->instr == EMPTY )
; 1454 :     if ( opndx->mem_type == MT_PTR )

	mov	eax, DWORD PTR [rsi+64]
	cmp	eax, 195				; 000000c3H
	jne	SHORT $LN10@memory_ope

; 1455 :         SetPtrMemtype( CodeInfo, opndx );

	mov	rdx, rsi
	mov	rcx, rbx
	call	SetPtrMemtype
	jmp	SHORT $LN12@memory_ope
$LN10@memory_ope:

; 1456 :     else if ( ( opndx->mem_type & MT_SPECIAL_MASK ) == MT_ADDRESS ) {

	and	eax, 192				; 000000c0H
	cmp	al, -128				; ffffffffffffff80H
	jne	SHORT $LN12@memory_ope

; 1457 :         int size;
; 1458 :         if ( opndx->Ofssize == USE_EMPTY && sym )

	cmp	BYTE PTR [rsi+69], 254			; 000000feH
	jne	SHORT $LN13@memory_ope
	test	r13, r13
	je	SHORT $LN13@memory_ope

; 1459 :             opndx->Ofssize = GetSymOfssize( sym );

	mov	rcx, r13
	call	GetSymOfssize
	mov	BYTE PTR [rsi+69], al
$LN13@memory_ope:

; 1460 :         /* v2.09: use opndx->type ( for MT_PROC ) */
; 1461 :         //size = SizeFromMemtype( opndx->mem_type, opndx->Ofssize, NULL );
; 1462 :         size = SizeFromMemtype( opndx->mem_type, opndx->Ofssize, opndx->type );

	movzx	edx, BYTE PTR [rsi+69]
	mov	r8, QWORD PTR [rsi+96]
	mov	ecx, DWORD PTR [rsi+64]
	call	SizeFromMemtype
	mov	ecx, eax

; 1463 :         MemtypeFromSize( size, &opndx->mem_type );

	lea	rdx, QWORD PTR [rsi+64]
	call	MemtypeFromSize
$LN12@memory_ope:

; 1464 :     }
; 1465 : 
; 1466 :     Set_Memtype( CodeInfo, opndx->mem_type );

	mov	edx, DWORD PTR [rsi+64]
	mov	rcx, rbx
	call	Set_Memtype

; 1467 :     if( opndx->mbr != NULL ) {

	mov	rax, QWORD PTR [rsi+88]
	lea	r11, OFFSET FLAT:__ImageBase
	mov	edi, 3
	test	rax, rax
	je	$LN19@memory_ope

; 1468 :         /* if the struct field is just another struct, use it's total size
; 1469 :          * to set CodeInfo->mem_type.
; 1470 :          */
; 1471 :         //if ( opndx->mbr->mem_type == MT_TYPE ) {
; 1472 :         /* v2: don't overwrite opndx->mem_type,
; 1473 :          *    testcase: cmp (dword ptr <struct_field>), 0
; 1474 :          */
; 1475 :         if ( opndx->mbr->mem_type == MT_TYPE && opndx->mem_type == MT_EMPTY ) {

	cmp	DWORD PTR [rax+36], 196			; 000000c4H
	jne	SHORT $LN125@memory_ope
	cmp	DWORD PTR [rsi+64], 192			; 000000c0H
	jne	SHORT $LN125@memory_ope

; 1476 :             enum memtype mem_type;
; 1477 :             DebugMsg1(("memory_operand: mbr %s has mem_type MT_TYPE, total_size=%u\n", opndx->mbr->name, opndx->mbr->total_size ));
; 1478 : #if AVXSUPP
; 1479 :             if (CodeInfo->token == T_VMOVSS){       //MemtypeFromSize returns OP_M128

	cmp	DWORD PTR [rbx+24], 1940		; 00000794H
	jne	SHORT $LN16@memory_ope

; 1480 :               mem_type = MT_DWORD;                  //but we need MT_DWORD ;habran
; 1481 :               Set_Memtype(CodeInfo, mem_type);

	mov	edx, edi

; 1482 :          }

	jmp	SHORT $LN136@memory_ope
$LN16@memory_ope:

; 1483 :         else
; 1484 : #endif
; 1485 :             if ( MemtypeFromSize( opndx->mbr->total_size, &mem_type ) == NOT_ERROR )

	cmp	BYTE PTR SpecialTable+2471, 6
	mov	r8d, DWORD PTR [rax+56]
	jne	SHORT $LN125@memory_ope
	mov	edx, 205				; 000000cdH
	mov	eax, 2460				; 0000099cH
$LL113@memory_ope:
	movzx	ecx, BYTE PTR SpecialTable[rax+r11+10]
	test	cl, cl
	js	SHORT $LN111@memory_ope
	movzx	eax, cl
	and	eax, 31
	inc	eax
	cmp	eax, r8d
	je	SHORT $LN118@memory_ope
$LN111@memory_ope:
	inc	rdx
	lea	rax, QWORD PTR [rdx+rdx*2]
	lea	rax, QWORD PTR [rax*4]
	cmp	BYTE PTR SpecialTable[rax+r11+11], 6
	je	SHORT $LL113@memory_ope
	jmp	SHORT $LN125@memory_ope
$LN118@memory_ope:
	movzx	edx, cl
$LN136@memory_ope:

; 1486 :                 Set_Memtype( CodeInfo, mem_type );

	mov	rcx, rbx
	call	Set_Memtype
$LN125@memory_ope:

; 1487 :         }
; 1488 :         //else  /* v2: obsolete */
; 1489 :         //    Set_Memtype( CodeInfo, opndx->mbr->mem_type );
; 1490 :         /* v2.06b: tell codegen that the member is a forward ref */
; 1491 :         if ( opndx->mbr->state == SYM_UNDEFINED )

	mov	rax, QWORD PTR [rsi+88]
	cmp	DWORD PTR [rax+32], 0
	jne	SHORT $LN19@memory_ope

; 1492 :             CodeInfo->undef_sym = TRUE;

	or	BYTE PTR [rbx+142], 64			; 00000040H
$LN19@memory_ope:

; 1493 :     }
; 1494 : 
; 1495 :     /* instruction-specific handling */
; 1496 :     switch ( CodeInfo->token ) {

	mov	eax, DWORD PTR [rbx+24]
	add	eax, -450				; fffffe3eH
	mov	QWORD PTR [rsp+128], r14
	mov	QWORD PTR [rsp+48], r15
	cmp	eax, 1
	ja	$LN25@memory_ope

; 1497 :     case T_JMP:
; 1498 :     case T_CALL:
; 1499 :         /* the 2 branch instructions are peculiar because they
; 1500 :          * will work with an unsized label.
; 1501 :          */
; 1502 :         /* v1.95: convert MT_NEAR/MT_FAR and display error if no type.
; 1503 :          * For memory operands, expressions of type MT_NEAR/MT_FAR are
; 1504 :          * call [bx+<code_label>]
; 1505 :          */
; 1506 :         if ( CodeInfo->mem_type == MT_EMPTY ) {

	cmp	DWORD PTR [rbx+28], 192			; 000000c0H
	jne	SHORT $LN21@memory_ope

; 1507 :             /* with -Zm, no size needed for indirect CALL/JMP */
; 1508 :             if ( ModuleInfo.m510 == FALSE &&

	test	BYTE PTR ModuleInfo+408, 64		; 00000040H
	jne	SHORT $LN22@memory_ope
	cmp	DWORD PTR Parse_Pass, 0
	jbe	SHORT $LN22@memory_ope
	cmp	QWORD PTR [rsi+80], 0
	jne	SHORT $LN22@memory_ope
$LN138@memory_ope:

; 1509 :                 ( Parse_Pass > PASS_1 && opndx->sym == NULL ) ) {
; 1510 :                 DebugMsg1(("memory_operand, JMP/CALL: CodeInfo->memtype=empty, instruction operand must have size\n" ));
; 1511 :                 return( EmitError( INSTRUCTION_OPERAND_MUST_HAVE_SIZE ) );

	mov	ecx, 182				; 000000b6H
	call	EmitError
	jmp	$LN1@memory_ope
$LN22@memory_ope:

; 1512 :             }
; 1513 : #if AMD64_SUPPORT
; 1514 :             opndx->mem_type = (CodeInfo->Ofssize == USE64) ? MT_QWORD : (CodeInfo->Ofssize == USE32) ? MT_DWORD : MT_WORD;

	movzx	eax, BYTE PTR [rbx+106]
	cmp	al, 2
	jne	SHORT $LN100@memory_ope
	mov	edx, 7
	jmp	SHORT $LN101@memory_ope
$LN100@memory_ope:
	mov	edx, 1
	cmp	al, dl
	cmove	edx, edi
$LN101@memory_ope:

; 1515 : #else
; 1516 :             opndx->mem_type = (CodeInfo->Ofssize == USE32) ? MT_DWORD : MT_WORD;
; 1517 : #endif
; 1518 :             Set_Memtype( CodeInfo, opndx->mem_type );

	mov	rcx, rbx
	mov	DWORD PTR [rsi+64], edx
	call	Set_Memtype
$LN21@memory_ope:

; 1519 :             DebugMsg1(("memory_operand, JMP/CALL: CodeInfo->memtype set to %Xh\n", CodeInfo->mem_type ));
; 1520 :         }
; 1521 :         j = SizeFromMemtype( CodeInfo->mem_type, CodeInfo->Ofssize, NULL );

	movzx	r14d, BYTE PTR [rbx+106]
	xor	r8d, r8d
	mov	r15d, DWORD PTR [rbx+28]
	mov	edx, r14d
	mov	ecx, r15d
	call	SizeFromMemtype

; 1522 :         if ( ( j == 1 || j > 6 )
; 1523 : #if AMD64_SUPPORT
; 1524 :             && ( CodeInfo->Ofssize != USE64 )

	cmp	eax, 1
	je	SHORT $LN24@memory_ope
	cmp	eax, 6
	jle	SHORT $LN23@memory_ope
$LN24@memory_ope:
	cmp	r14b, 2
	je	SHORT $LN23@memory_ope

; 1525 : #endif
; 1526 :         ) {
; 1527 :             /* CALL/JMP possible for WORD/DWORD/FWORD memory operands only */
; 1528 :             DebugMsg1(("memory_operand: invalid operand, size=%u\n", j ));
; 1529 :             return( EmitError( INVALID_OPERAND_SIZE ) );

	mov	ecx, 71					; 00000047H
	call	EmitError
	jmp	$LN1@memory_ope
$LN23@memory_ope:

; 1530 :         }
; 1531 : 
; 1532 :         if( opndx->mem_type == MT_FAR || CodeInfo->mem_type == MT_FWORD ||
; 1533 : #if AMD64_SUPPORT
; 1534 :            ( CodeInfo->mem_type == MT_TBYTE && CodeInfo->Ofssize == USE64 ) ||

	cmp	DWORD PTR [rsi+64], 130			; 00000082H
	je	SHORT $LN28@memory_ope
	cmp	r15d, 5
	je	SHORT $LN28@memory_ope
	cmp	r15d, 9
	jne	SHORT $LN27@memory_ope
	cmp	r14b, 2
	je	SHORT $LN28@memory_ope
$LN27@memory_ope:
	cmp	r15d, edi
	jne	SHORT $LN135@memory_ope
	test	r14b, r14b
	jne	SHORT $LN29@memory_ope
	cmp	BYTE PTR [rsi+69], 1
	jne	SHORT $LN28@memory_ope
$LN29@memory_ope:
	cmp	r14b, 1
	jne	SHORT $LN135@memory_ope
	cmp	BYTE PTR [rsi+69], 0
	jne	SHORT $LN135@memory_ope
$LN28@memory_ope:

; 1535 : #endif
; 1536 :             ( CodeInfo->mem_type == MT_DWORD &&
; 1537 :               (( CodeInfo->Ofssize == USE16 && opndx->Ofssize != USE32 ) ||
; 1538 :                ( CodeInfo->Ofssize == USE32 && opndx->Ofssize == USE16 )))) {
; 1539 :             CodeInfo->isfar = TRUE;

	or	BYTE PTR [rbx+142], 4
$LN135@memory_ope:
	lea	r11, OFFSET FLAT:__ImageBase
$LN25@memory_ope:

; 1540 :         }
; 1541 :         DebugMsg1(("memory_operand: JMP/CALL, CodeInfo->far=%u\n", CodeInfo->isfar ));
; 1542 :         break;
; 1543 :     }
; 1544 : 
; 1545 :     if ( ( CodeInfo->mem_type & MT_SPECIAL) == 0 ) {

	mov	eax, DWORD PTR [rbx+28]
	test	al, al
	js	SHORT $LN30@memory_ope

; 1546 :         switch ( CodeInfo->mem_type & MT_SIZE_MASK ) {

	and	eax, 31
	cmp	eax, 63					; 0000003fH
	ja	$LN43@memory_ope
	cdqe
	movzx	eax, BYTE PTR $LN126@memory_ope[r11+rax]
	mov	ecx, DWORD PTR $LN127@memory_ope[r11+rax*4]
	add	rcx, r11
	jmp	rcx
$LN32@memory_ope:

; 1547 :             /* size is encoded 0-based */
; 1548 :         case  0:  CodeInfo->opnd[CurrOpnd].type = OP_M08;  break;

	mov	DWORD PTR [rbp+32], 8388608		; 00800000H
	jmp	$LN43@memory_ope
$LN33@memory_ope:

; 1549 :         case  1:  CodeInfo->opnd[CurrOpnd].type = OP_M16;  break;

	mov	DWORD PTR [rbp+32], 16777216		; 01000000H
	jmp	$LN43@memory_ope
$LN34@memory_ope:

; 1550 :         case  3:  CodeInfo->opnd[CurrOpnd].type = OP_M32;  break;

	mov	DWORD PTR [rbp+32], 33554432		; 02000000H
	jmp	SHORT $LN43@memory_ope
$LN35@memory_ope:

; 1551 :         case  5:  CodeInfo->opnd[CurrOpnd].type = OP_M48;  break;

	mov	DWORD PTR [rbp+32], 1073741824		; 40000000H
	jmp	SHORT $LN43@memory_ope
$LN36@memory_ope:

; 1552 :         case  7:  CodeInfo->opnd[CurrOpnd].type = OP_M64;  break;

	mov	DWORD PTR [rbp+32], 67108864		; 04000000H
	jmp	SHORT $LN43@memory_ope
$LN37@memory_ope:

; 1553 :         case  9:  CodeInfo->opnd[CurrOpnd].type = OP_M80;  break;

	mov	DWORD PTR [rbp+32], -2147483648		; ffffffff80000000H
	jmp	SHORT $LN43@memory_ope
$LN38@memory_ope:

; 1554 :         case 15:  CodeInfo->opnd[CurrOpnd].type = OP_M128; break;

	mov	DWORD PTR [rbp+32], 134217728		; 08000000H
	jmp	SHORT $LN43@memory_ope
$LN39@memory_ope:

; 1555 : #if AVXSUPP
; 1556 :         case 31:  CodeInfo->opnd[CurrOpnd].type = OP_M256; break;

	mov	DWORD PTR [rbp+32], 268435456		; 10000000H
	jmp	SHORT $LN43@memory_ope
$LN40@memory_ope:

; 1557 :         case 63:  CodeInfo->opnd[CurrOpnd].type = OP_M512; break;

	mov	DWORD PTR [rbp+32], 536870912		; 20000000H

; 1558 : #endif
; 1559 : #ifdef DEBUG_OUT
; 1560 :         default:
; 1561 :             DebugMsg1(("memory_operand: unexpected mem_type=%X\n", CodeInfo->mem_type ));
; 1562 :             /**/myassert( 0 );
; 1563 : #endif
; 1564 :         }
; 1565 : #if 0 /* v2.06: the wide flag isn't set for memory operands currently, */
; 1566 :         if ( CodeInfo->opnd_type[CurrOpnd] & ( OP_M16 | OP_M32 | OP_M64 ) )
; 1567 :             CodeInfo->iswide = 1;
; 1568 : #endif
; 1569 :     } else if ( CodeInfo->mem_type == MT_EMPTY ) {

	jmp	SHORT $LN43@memory_ope
$LN30@memory_ope:
	cmp	eax, 192				; 000000c0H
	jne	SHORT $LN43@memory_ope

; 1570 :         /* v2.05: added */
; 1571 :         switch ( CodeInfo->token ) {

	mov	eax, DWORD PTR [rbx+24]
	cmp	eax, 594				; 00000252H
	jl	SHORT $LN43@memory_ope
	cmp	eax, 595				; 00000253H
	jle	SHORT $LN42@memory_ope
	cmp	eax, 597				; 00000255H
	jg	SHORT $LN43@memory_ope

; 1576 :                 return( EmitError( INSTRUCTION_OPERAND_MUST_HAVE_SIZE ) );
; 1577 :             }
; 1578 :             break;
; 1579 :         case T_PUSH:
; 1580 :         case T_POP:
; 1581 :             if ( opndx->mem_type == MT_TYPE ) {

	cmp	DWORD PTR [rsi+64], 196			; 000000c4H
	jne	SHORT $LN43@memory_ope

; 1582 :                 return( EmitError( INVALID_INSTRUCTION_OPERANDS ) );

	mov	ecx, 49					; 00000031H
	call	EmitError
	jmp	$LN1@memory_ope
$LN42@memory_ope:

; 1572 :         case T_INC:
; 1573 :         case T_DEC:
; 1574 :             /* hjwasm v1.94-v2.04 accepted unsized operand for INC/DEC */
; 1575 :             if ( opndx->sym == NULL ) {

	cmp	QWORD PTR [rsi+80], 0
	je	$LN138@memory_ope
$LN43@memory_ope:

; 1583 :             }
; 1584 :             break;
; 1585 :         }
; 1586 :     }
; 1587 : 
; 1588 :     base = ( opndx->base_reg ? opndx->base_reg->tokval : EMPTY );

	mov	rax, QWORD PTR [rsi+24]
	mov	ebp, -2
	test	rax, rax
	je	SHORT $LN102@memory_ope
	mov	r14d, DWORD PTR [rax+16]
	jmp	SHORT $LN103@memory_ope
$LN102@memory_ope:
	mov	r14d, ebp
$LN103@memory_ope:

; 1589 :     index = ( opndx->idx_reg ? opndx->idx_reg->tokval : EMPTY );

	mov	rax, QWORD PTR [rsi+32]
	test	rax, rax
	je	SHORT $LN104@memory_ope
	mov	ebp, DWORD PTR [rax+16]
$LN104@memory_ope:

; 1590 :     CodeInfo->indexreg = GetRegNo( index );

	movsxd	rax, ebp
	lea	rcx, QWORD PTR [rax+rax*2]
	lea	rdx, QWORD PTR [rcx*4]
	movzx	eax, BYTE PTR SpecialTable[rdx+r11+10]
	mov	BYTE PTR [rbx+112], al

; 1591 :     CodeInfo->basereg = GetRegNo( base );

	movsxd	rax, r14d
	lea	rcx, QWORD PTR [rax+rax*2]
	movzx	eax, BYTE PTR SpecialTable[r11+rcx*4+10]
	mov	BYTE PTR [rbx+113], al

; 1592 :     /* use base + index from here - don't use opndx-> base_reg/idx_reg! */
; 1593 : 
; 1594 : #if 0 /* v2.10: moved to expreval.c */
; 1595 :     if ( sym && sym->state == SYM_STACK ) {
; 1596 :         if( base != EMPTY ) {
; 1597 :             if( index != EMPTY ) {
; 1598 :                 /* no free index register */
; 1599 :                 return( EmitError( MULTIPLE_INDEX_REGISTERS_NOT_ALLOWED ) );
; 1600 :             } else {
; 1601 :                 index = base;
; 1602 :             }
; 1603 :         }
; 1604 :         base = basereg[CodeInfo->Ofssize];
; 1605 :     }
; 1606 : #endif
; 1607 : 
; 1608 :     /* check for base registers */
; 1609 : 
; 1610 :     if ( base != EMPTY ) {

	cmp	r14d, -2
	je	SHORT $LN52@memory_ope

; 1611 :         if ( ( ( GetValueSp( base ) & OP_R32) && CodeInfo->Ofssize == USE32 ) ||
; 1612 : #if AMD64_SUPPORT
; 1613 :             ( ( GetValueSp( base ) & OP_R64) && CodeInfo->Ofssize == USE64 ) ||

	mov	eax, DWORD PTR SpecialTable[r11+rcx*4]
	test	al, 4
	je	SHORT $LN50@memory_ope
	cmp	BYTE PTR [rbx+106], 1
	je	SHORT $LN49@memory_ope
$LN50@memory_ope:
	test	al, 8
	je	SHORT $LN51@memory_ope
	cmp	BYTE PTR [rbx+106], 2
	je	SHORT $LN49@memory_ope
$LN51@memory_ope:
	test	al, 2
	je	SHORT $LN47@memory_ope
	cmp	BYTE PTR [rbx+106], 0
	jne	SHORT $LN47@memory_ope
$LN49@memory_ope:

; 1614 : #endif
; 1615 :             ( ( GetValueSp( base ) & OP_R16) && CodeInfo->Ofssize == USE16 ) )
; 1616 :             CodeInfo->prefix.adrsiz = FALSE;

	and	BYTE PTR [rbx+9], 254			; 000000feH
$LN52@memory_ope:

; 1623 :             }
; 1624 : #endif
; 1625 :         }
; 1626 :     }
; 1627 : 
; 1628 :     /* check for index registers */
; 1629 : 
; 1630 :     if( index != EMPTY ) {

	cmp	ebp, -2
	je	$LN130@memory_ope

; 1631 :         if ( ( ( GetValueSp( index ) & OP_R32) && CodeInfo->Ofssize == USE32 ) ||
; 1632 : #if AMD64_SUPPORT
; 1633 :             ( ( GetValueSp( index ) & OP_R64) && CodeInfo->Ofssize == USE64 ) ||

	mov	eax, DWORD PTR SpecialTable[rdx+r11]
	test	al, 4
	je	SHORT $LN57@memory_ope
	cmp	BYTE PTR [rbx+106], 1
	je	SHORT $LN56@memory_ope
$LN57@memory_ope:
	test	al, 8
	je	SHORT $LN58@memory_ope
	cmp	BYTE PTR [rbx+106], 2
	je	SHORT $LN56@memory_ope
$LN58@memory_ope:
	test	al, 2
	je	SHORT $LN54@memory_ope
	cmp	BYTE PTR [rbx+106], 0
	jne	SHORT $LN54@memory_ope
$LN56@memory_ope:

; 1634 : #endif
; 1635 :             ( ( GetValueSp( index ) & OP_R16) && CodeInfo->Ofssize == USE16 ) ) {
; 1636 :             CodeInfo->prefix.adrsiz = FALSE;

	and	BYTE PTR [rbx+9], 254			; 000000feH

; 1637 :         } else {

	jmp	SHORT $LN55@memory_ope
$LN47@memory_ope:

; 1617 :         else {
; 1618 :             CodeInfo->prefix.adrsiz = TRUE;

	or	BYTE PTR [rbx+9], 1

; 1619 : #if AMD64_SUPPORT
; 1620 :             /* 16bit addressing modes don't exist in long mode */
; 1621 :             if ( ( GetValueSp( base ) & OP_R16) && CodeInfo->Ofssize == USE64 ) {

	test	BYTE PTR SpecialTable[r11+rcx*4], 2
	je	SHORT $LN52@memory_ope
	cmp	BYTE PTR [rbx+106], 2
	jne	SHORT $LN52@memory_ope
$LN66@memory_ope:

; 1622 :                 return( EmitError( INVALID_ADDRESSING_MODE_WITH_CURRENT_CPU_SETTING ) );

	mov	ecx, 31
	call	EmitError
	jmp	$LN1@memory_ope
$LN54@memory_ope:

; 1638 :             CodeInfo->prefix.adrsiz = TRUE;

	or	BYTE PTR [rbx+9], 1
$LN55@memory_ope:

; 1639 :         }
; 1640 : 
; 1641 :         /* v2.10: register swapping has been moved to expreval.c, index_connect().
; 1642 :          * what has remained here is the check if R/ESP is used as index reg.
; 1643 :          */
; 1644 : 		if ((GetRegNo(index) == 4)

	cmp	BYTE PTR SpecialTable[rdx+r11+10], 4
	jne	SHORT $LN59@memory_ope

; 1645 : #if 0
; 1646 : 			&& (GetResWName(index, NULL) <= T_RBP)
; 1647 : #endif
; 1648 : 			) { /* [E|R]SP? */
; 1649 : 			
; 1650 : 				//if ( (GetRegNo( index ) == 4) && (GetResWName( index, NULL ) <= T_RBP )) { /* [E|R]SP? */ /* Removed in 2.13 in favour of above */
; 1651 : 
; 1652 :             DebugMsg(( "memory_operand: error, base regno=%u, index regno=%u, opnd.scale=%u\n", GetRegNo( base ), GetRegNo( index ), opndx->scale ));
; 1653 :             //int tmp = index;
; 1654 :             if( opndx->scale ) { /* no scale must be set */

	cmp	BYTE PTR [rsi+68], 0
	je	SHORT $LN60@memory_ope

; 1655 :                 EmitErr( CANNOT_BE_USED_AS_INDEX_REGISTER, GetResWName( index, NULL ) );

	xor	edx, edx
	mov	ecx, ebp
	call	GetResWName
	mov	rdx, rax
	mov	ecx, 37					; 00000025H
	call	EmitErr

; 1660 :                 //return( ERROR );
; 1661 :             }
; 1662 :             return( ERROR );

	or	eax, -1
	jmp	$LN1@memory_ope
$LN60@memory_ope:

; 1656 :                 //return( ERROR );
; 1657 :             } else {
; 1658 :             //if ( GetRegNo( base ) == 4 ) {
; 1659 :                 EmitErr( MULTIPLE_BASE_REGISTERS_NOT_ALLOWED );

	mov	ecx, 29
	call	EmitErr
$LN61@memory_ope:

; 1660 :                 //return( ERROR );
; 1661 :             }
; 1662 :             return( ERROR );

	or	eax, -1
	jmp	$LN1@memory_ope
$LN59@memory_ope:

; 1663 :             /* swap base and index */
; 1664 :             //index = base;
; 1665 :             //base = tmp;
; 1666 : #if 0
; 1667 :         } else if ( Options.masm_compat_gencode && opndx->scale == 0 && GetRegNo( base ) != 4 ) {
; 1668 :             /* v2.08: Masm 6+ swaps base and index, even if -Zm is set (Masm 5.1 does NOT swap) */
; 1669 :             int tmp = index;
; 1670 :             /* swap base and index */
; 1671 :             index = base;
; 1672 :             base = tmp;
; 1673 : #endif
; 1674 :         }
; 1675 : 
; 1676 :         /* 32/64 bit indirect addressing? */
; 1677 :         if( ( CodeInfo->Ofssize == USE16 && CodeInfo->prefix.adrsiz == 1 ) ||
; 1678 : #if AMD64_SUPPORT
; 1679 :            CodeInfo->Ofssize == USE64  ||

	movzx	eax, BYTE PTR [rbx+106]
	test	al, al
	jne	SHORT $LN65@memory_ope
	test	BYTE PTR [rbx+9], 1
	jne	SHORT $LN64@memory_ope
$LN65@memory_ope:
	cmp	al, 2
	je	SHORT $LN64@memory_ope
	cmp	al, 1
	jne	SHORT $LN62@memory_ope
	test	BYTE PTR [rbx+9], al
	je	SHORT $LN64@memory_ope
$LN62@memory_ope:

; 1698 :             /* v2.01: 16-bit addressing mode. No scale possible */
; 1699 :             if ( opndx->scale ) {

	cmp	BYTE PTR [rsi+68], 0
	je	SHORT $LN130@memory_ope

; 1700 :                 return( EmitError( INVALID_USE_OF_REGISTER ) );

	mov	ecx, 170				; 000000aaH
	call	EmitError
	jmp	$LN1@memory_ope
$LN64@memory_ope:

; 1680 : #endif
; 1681 :            ( CodeInfo->Ofssize == USE32 && CodeInfo->prefix.adrsiz == 0 ) ) {
; 1682 :             if( ( ModuleInfo.curr_cpu & P_CPU_MASK ) >= P_386 ) {

	mov	eax, DWORD PTR ModuleInfo+392
	and	eax, 240				; 000000f0H
	cmp	eax, 48					; 00000030H
	jl	$LN66@memory_ope

; 1683 :                 /* scale, 0 or 1->00, 2->40, 4->80, 8->C0 */
; 1684 :                 switch( opndx->scale ) {

	movzx	eax, BYTE PTR [rsi+68]
	cmp	al, 1
	jbe	SHORT $LN130@memory_ope
	cmp	al, 2
	je	SHORT $LN69@memory_ope
	cmp	al, 4
	je	SHORT $LN70@memory_ope
	cmp	al, 8
	jne	SHORT $LN72@memory_ope

; 1689 :                 case 8: ss = SCALE_FACTOR_8; break; /* ss = 11 */

	mov	r15b, -64				; ffffffffffffffc0H
	jmp	SHORT $LN73@memory_ope
$LN72@memory_ope:

; 1690 :                 default: /* must be * 1, 2, 4 or 8 */
; 1691 :                     return( EmitError( SCALE_FACTOR_MUST_BE_1_2_4_OR_8 ) );

	mov	ecx, 36					; 00000024H
	call	EmitError
	jmp	$LN1@memory_ope
$LN70@memory_ope:

; 1688 :                 case 4: ss = SCALE_FACTOR_4; break; /* ss = 10 */

	mov	r15b, -128				; ffffffffffffff80H
	jmp	SHORT $LN73@memory_ope
$LN69@memory_ope:

; 1685 :                 case 0:
; 1686 :                 case 1:  break; /* ss = 00 */
; 1687 :                 case 2: ss = SCALE_FACTOR_2; break; /* ss = 01 */

	mov	r15b, 64				; 00000040H

; 1692 :                 }
; 1693 :             } else {
; 1694 :                 /* 286 and down cannot use this memory mode */
; 1695 :                 return( EmitError( INVALID_ADDRESSING_MODE_WITH_CURRENT_CPU_SETTING ) );
; 1696 :             }
; 1697 :         } else {

	jmp	SHORT $LN73@memory_ope
$LN130@memory_ope:
	xor	r15b, r15b
$LN73@memory_ope:

; 1701 :             }
; 1702 :         }
; 1703 :     }
; 1704 : 
; 1705 :     if( with_fixup ) {

	cmp	BYTE PTR with_fixup$[rsp], 0
	je	$LN132@memory_ope

; 1706 : 
; 1707 :         if( opndx->is_abs ) {

	test	BYTE PTR [rsi+76], 4
	je	SHORT $LN75@memory_ope

; 1708 :             Ofssize = IS_ADDR32( CodeInfo );

	cmp	BYTE PTR [rbx+106], 0
	movzx	edx, BYTE PTR [rbx+9]
	je	SHORT $LN106@memory_ope
	not	dl
$LN106@memory_ope:
	and	dl, 1
	jmp	SHORT $LN80@memory_ope
$LN75@memory_ope:

; 1709 :         } else if ( sym ) {

	test	r13, r13
	je	SHORT $LN77@memory_ope

; 1710 :             Ofssize = GetSymOfssize( sym );

	mov	rcx, r13
	call	GetSymOfssize
	mov	edx, eax
	jmp	SHORT $LN80@memory_ope
$LN77@memory_ope:

; 1711 :         } else if ( SegOverride ) {

	mov	rcx, QWORD PTR SegOverride
	test	rcx, rcx
	je	SHORT $LN79@memory_ope

; 1712 :             Ofssize = GetSymOfssize( SegOverride );

	call	GetSymOfssize
	movzx	edx, al

; 1713 :         } else

	jmp	SHORT $LN80@memory_ope
$LN79@memory_ope:

; 1714 :             Ofssize = CodeInfo->Ofssize;

	movzx	edx, BYTE PTR [rbx+106]
$LN80@memory_ope:

; 1715 : 
; 1716 :         /* now set fixup_type.
; 1717 :          * for direct addressing, the fixup type can easily be set by
; 1718 :          * the symbol's offset size.
; 1719 :          */
; 1720 :         if( base == EMPTY && index == EMPTY ) {

	cmp	r14d, -2
	jne	SHORT $LN81@memory_ope
	cmp	ebp, r14d
	jne	SHORT $LN81@memory_ope

; 1721 :             CodeInfo->prefix.adrsiz = ADDRSIZE( CodeInfo->Ofssize, Ofssize );

	and	BYTE PTR [rbx+9], 254			; 000000feH
	movzx	eax, BYTE PTR [rbx+106]
	xor	al, dl
	setne	cl
	and	cl, 1
	or	BYTE PTR [rbx+9], cl

; 1722 : #if AMD64_SUPPORT
; 1723 :             if ( Ofssize == USE64 )

	cmp	dl, 2
	jne	SHORT $LN83@memory_ope

; 1724 :                 /* v2.03: override with a segment assumed != FLAT? */
; 1725 :                 if ( opndx->override != NULL &&

	cmp	QWORD PTR [rsi+48], 0
	je	$LN95@memory_ope
	mov	rax, QWORD PTR ModuleInfo+440
	cmp	QWORD PTR SegOverride, rax
	je	SHORT $LN95@memory_ope

; 1726 :                     SegOverride != &ModuleInfo.flat_grp->sym )
; 1727 :                     fixup_type = FIX_OFF32;

	jmp	SHORT $LN137@memory_ope
$LN83@memory_ope:

; 1728 :                 else
; 1729 :                     fixup_type = FIX_RELOFF32;
; 1730 :             else
; 1731 : #endif
; 1732 :                 fixup_type = ( Ofssize ) ? FIX_OFF32 : FIX_OFF16;

	xor	edi, edi
	test	dl, dl
	setne	dil
	add	edi, 5

; 1760 :                 }
; 1761 :             }
; 1762 :         }
; 1763 : 
; 1764 : #if IMAGERELSUPP || SECTIONRELSUPP /* v2.10: added; IMAGEREL/SECTIONREL for indirect memory operands */
; 1765 :         if ( fixup_type == FIX_OFF32 )

	cmp	edi, 6
	jne	SHORT $LN95@memory_ope
	jmp	SHORT $LN123@memory_ope
$LN81@memory_ope:

; 1733 :             DebugMsg1(( "memory_operand: direct addressing, fixup type=%u\n", fixup_type ));
; 1734 :         } else {
; 1735 :             DebugMsg1(( "memory_operand: CodeInfo->Ofssize=%u/prefix.adrsize=%u, Ofssize=%u\n",
; 1736 :                       CodeInfo->Ofssize, CodeInfo->prefix.adrsiz, Ofssize ));
; 1737 : #if AMD64_SUPPORT
; 1738 :             if( Ofssize == USE64 ) {

	cmp	dl, 2
	je	SHORT $LN137@memory_ope

; 1739 :                 fixup_type = FIX_OFF32;
; 1740 :             } else
; 1741 : #endif
; 1742 :             if( IS_ADDR32( CodeInfo ) ) { /* address prefix needed? */

	cmp	BYTE PTR [rbx+106], 0
	movzx	eax, BYTE PTR [rbx+9]
	je	SHORT $LN108@memory_ope
	not	eax
$LN108@memory_ope:
	and	eax, 1
	test	eax, eax
	je	SHORT $LN89@memory_ope
$LN137@memory_ope:

; 1743 :                 /* changed for v1.95. Probably more tests needed!
; 1744 :                  * test case:
; 1745 :                  *   mov eax,[ebx*2-10+offset var] ;code and var are 16bit!
; 1746 :                  * the old code usually works fine because HiWord of the
; 1747 :                  * symbol's offset is zero. However, if there's an additional
; 1748 :                  * displacement which makes the value stored at the location
; 1749 :                  * < 0, then the target's HiWord becomes <> 0.
; 1750 :                  */
; 1751 :                 //fixup_type = ( Ofssize ) ? FIX_OFF32 : FIX_OFF16;
; 1752 :                 fixup_type = FIX_OFF32;

	mov	edi, 6
$LN123@memory_ope:

; 1766 :             if ( opndx->instr == T_IMAGEREL )

	mov	eax, DWORD PTR [rsi+56]
	cmp	eax, 233				; 000000e9H
	jne	SHORT $LN93@memory_ope

; 1767 :                 fixup_type = FIX_OFF32_IMGREL;

	mov	edi, 12
	jmp	SHORT $LN95@memory_ope
$LN93@memory_ope:

; 1768 :             else if ( opndx->instr == T_SECTIONREL )

	cmp	eax, 243				; 000000f3H
	mov	ecx, 13
	cmove	edi, ecx
	jmp	SHORT $LN95@memory_ope
$LN89@memory_ope:

; 1753 :             } else {
; 1754 :                 fixup_type = FIX_OFF16;

	mov	edi, 5

; 1755 :                 if( Ofssize && Parse_Pass == PASS_2 ) {

	test	dl, dl
	je	SHORT $LN95@memory_ope
	cmp	DWORD PTR Parse_Pass, 1
	jne	SHORT $LN95@memory_ope

; 1756 :                     /* address size is 16bit but label is 32-bit.
; 1757 :                      * example: use a 16bit register as base in FLAT model:
; 1758 :                      *   test buff[di],cl */
; 1759 :                     EmitWarn( 2, WORD_FIXUP_FOR_32BIT_LABEL, sym->name );

	mov	r8, QWORD PTR [r13+8]
	lea	ecx, QWORD PTR [rdi-3]
	mov	edx, 218				; 000000daH
	call	EmitWarn
$LN95@memory_ope:
	mov	eax, DWORD PTR [rbx+24]
	sub	eax, 662				; 00000296H
	cmp	eax, 1
	jbe	SHORT $LN132@memory_ope

; 1769 :                 fixup_type = FIX_OFF32_SECREL;
; 1770 : #endif
; 1771 :         /* no fixups are needed for memory operands of string instructions and XLAT/XLATB.
; 1772 :          * However, CMPSD and MOVSD are also SSE2 opcodes, so the fixups must be generated
; 1773 :          * anyways.
; 1774 :          */
; 1775 :         if ( CodeInfo->token != T_XLAT && CodeInfo->token != T_XLATB ) {
; 1776 :             //DebugMsg1(("memory_operand: calling CreateFixup(%s, fixup=%u) [CodeInfo->memtype=%Xh]\n", sym ? sym->name : "NULL", fixup_type, CodeInfo->mem_type));
; 1777 :             CodeInfo->opnd[CurrOpnd].InsFixup = CreateFixup( sym, fixup_type, OPTJ_NONE );

	xor	r8d, r8d
	mov	edx, edi
	mov	rcx, r13
	call	CreateFixup
	mov	rdi, QWORD PTR tv1052[rsp]
	lea	rcx, QWORD PTR [rdi+rdi*2]
	mov	QWORD PTR [rbx+rcx*8+48], rax
	jmp	SHORT $LN96@memory_ope
$LN132@memory_ope:
	mov	rdi, QWORD PTR tv1052[rsp]
$LN96@memory_ope:

; 1778 :         }
; 1779 :     }
; 1780 : 
; 1781 :     if( set_rm_sib( CodeInfo, CurrOpnd, ss, index, base, sym ) == ERROR ) {

	mov	edx, DWORD PTR CurrOpnd$[rsp]
	mov	r9d, ebp
	mov	QWORD PTR [rsp+40], r13
	movzx	r8d, r15b
	mov	rcx, rbx
	mov	DWORD PTR [rsp+32], r14d
	call	set_rm_sib
	cmp	eax, -1
	je	$LN61@memory_ope

; 1782 :         return( ERROR );
; 1783 :     }
; 1784 :     /* set frame type/data in fixup if one was created */
; 1785 :     if ( CodeInfo->opnd[CurrOpnd].InsFixup ) {

	lea	rax, QWORD PTR [rdi+2]
	lea	rax, QWORD PTR [rax+rax*2]
	mov	rdx, QWORD PTR [rbx+rax*8]
	lea	rcx, QWORD PTR [rbx+rax*8]
	test	rdx, rdx
	je	SHORT $LN98@memory_ope

; 1786 :         CodeInfo->opnd[CurrOpnd].InsFixup->frame_type = Frame_Type;

	movzx	eax, BYTE PTR Frame_Type
	mov	BYTE PTR [rdx+40], al

; 1787 :         CodeInfo->opnd[CurrOpnd].InsFixup->frame_datum = Frame_Datum;

	mov	rcx, QWORD PTR [rcx]
	movzx	eax, WORD PTR Frame_Datum
	mov	WORD PTR [rcx+42], ax
$LN98@memory_ope:

; 1788 :     }
; 1789 : 
; 1790 :     DebugMsg1(("memory_operand exit, ok, opndx.type/value=%Xh/%Xh, CodeInfo.memtype/rmbyte=%X/%X opndtype=%Xh fix=%Xh\n",
; 1791 :               opndx->type, opndx->value, CodeInfo->mem_type, CodeInfo->rm_byte, CodeInfo->opnd[CurrOpnd].type, CodeInfo->opnd[CurrOpnd].InsFixup ));
; 1792 :     return( NOT_ERROR );

	xor	eax, eax
$LN1@memory_ope:
	mov	r15, QWORD PTR [rsp+48]
	mov	r14, QWORD PTR [rsp+128]

; 1793 : }

	add	rsp, 56					; 00000038H
	pop	r13
	pop	r12
	pop	rdi
	pop	rsi
	pop	rbp
	pop	rbx
	ret	0
	npad	2
$LN127@memory_ope:
	DD	$LN32@memory_ope
	DD	$LN33@memory_ope
	DD	$LN34@memory_ope
	DD	$LN35@memory_ope
	DD	$LN36@memory_ope
	DD	$LN37@memory_ope
	DD	$LN38@memory_ope
	DD	$LN39@memory_ope
	DD	$LN40@memory_ope
	DD	$LN43@memory_ope
$LN126@memory_ope:
	DB	0
	DB	1
	DB	9
	DB	2
	DB	9
	DB	3
	DB	9
	DB	4
	DB	9
	DB	5
	DB	9
	DB	9
	DB	9
	DB	9
	DB	9
	DB	6
	DB	9
	DB	9
	DB	9
	DB	9
	DB	9
	DB	9
	DB	9
	DB	9
	DB	9
	DB	9
	DB	9
	DB	9
	DB	9
	DB	9
	DB	9
	DB	7
	DB	9
	DB	9
	DB	9
	DB	9
	DB	9
	DB	9
	DB	9
	DB	9
	DB	9
	DB	9
	DB	9
	DB	9
	DB	9
	DB	9
	DB	9
	DB	9
	DB	9
	DB	9
	DB	9
	DB	9
	DB	9
	DB	9
	DB	9
	DB	9
	DB	9
	DB	9
	DB	9
	DB	9
	DB	9
	DB	9
	DB	9
	DB	8
memory_operand ENDP
_TEXT	ENDS
; Function compile flags: /Ogtpy
; File d:\hjwasm\hjwasm2.13.1s\hjwasm2.13.1s\parser.c
;	COMDAT Set_Memtype
_TEXT	SEGMENT
CodeInfo$ = 8
mem_type$ = 16
Set_Memtype PROC					; COMDAT

; 1297 :     if( CodeInfo->token == T_LEA )

	mov	r9d, DWORD PTR [rcx+24]
	mov	r8, rcx
	cmp	r9d, 629				; 00000275H
	je	$LN10@Set_Memtyp
	cmp	edx, 192				; 000000c0H
	je	$LN10@Set_Memtyp
	cmp	edx, 196				; 000000c4H
	je	$LN10@Set_Memtyp
	lea	eax, DWORD PTR [rdx-129]
	cmp	eax, 1
	jbe	$LN10@Set_Memtyp

; 1298 :         return;
; 1299 :     /* v2.05: changed. Set "data" types only. */
; 1300 :     if( mem_type == MT_EMPTY || mem_type == MT_TYPE ||
; 1301 :        mem_type == MT_NEAR || mem_type == MT_FAR )
; 1302 :         return;
; 1303 : 
; 1304 :     CodeInfo->mem_type = mem_type;
; 1305 : 
; 1306 :     if( CodeInfo->Ofssize > USE16 ) {

	cmp	BYTE PTR [rcx+106], 0
	mov	DWORD PTR [rcx+28], edx
	jbe	$LN11@Set_Memtyp
	lea	eax, DWORD PTR [rdx-1]
	test	eax, -65				; ffffffbfH
	je	$LN15@Set_Memtyp

; 1313 : #if AMD64_SUPPORT
; 1314 :         /*
; 1315 :          * set rex Wide bit if a QWORD operand is found (not for FPU/MMX/SSE instr).
; 1316 :          * This looks pretty hackish now and is to be cleaned!
; 1317 :          * v2.01: also had issues with SSE2 MOVSD/CMPSD, now fixed!
; 1318 :          */
; 1319 :         /* v2.06: with AVX, SSE tokens may exist twice, one
; 1320 :          * for "legacy", the other for VEX encoding!
; 1321 :          */
; 1322 :         else if ( IS_MEMTYPE_SIZ( mem_type, sizeof( uint_64 ) ) ) {

	mov	eax, edx
	and	eax, 192				; 000000c0H
	cmp	eax, 128				; 00000080H
	jge	$LN10@Set_Memtyp
	and	edx, 31
	cmp	dl, 7
	jne	$LN10@Set_Memtyp
	cmp	r9d, 612				; 00000264H
	je	$LN10@Set_Memtyp
	lea	eax, DWORD PTR [r9-596]
	cmp	eax, 1
	jbe	$LN10@Set_Memtyp
	lea	eax, DWORD PTR [r9-1283]
	cmp	eax, 3
	jbe	$LN10@Set_Memtyp

; 1323 :             switch( CodeInfo->token ) {
; 1324 :             case T_PUSH: /* for PUSH/POP, REX_W isn't needed (no 32-bit variants in 64-bit mode) */
; 1325 :             case T_POP:
; 1326 :             case T_CMPXCHG8B:
; 1327 : #if VMXSUPP
; 1328 :             case T_VMPTRLD:
; 1329 :             case T_VMPTRST:
; 1330 :             case T_VMCLEAR:
; 1331 :             case T_VMXON:
; 1332 : #endif
; 1333 :                 break;
; 1334 :             default:
; 1335 :                 /* don't set REX for opcodes that accept memory operands
; 1336 :                  * of any size.
; 1337 :                  */
; 1338 :                 if ( opnd_clstab[CodeInfo->pinstr->opclsidx].opnd_type[OPND1] == OP_M_ANY ) {

	mov	r10, QWORD PTR [rcx+16]
	lea	rdx, OFFSET FLAT:__ImageBase
	movzx	eax, BYTE PTR [r10]
	lea	rcx, QWORD PTR [rax+rax*2]
	cmp	DWORD PTR opnd_clstab[rdx+rcx*4], -8388608 ; ffffffffff800000H
	je	$LN10@Set_Memtyp

; 1339 :                     //printf( "Set_Memtype: OP_M_ANY detected, file=%s, instr=%s\n", CurrFName[ASM], GetResWName( CodeInfo->token, NULL ) );
; 1340 :                     break;
; 1341 :                 }
; 1342 :                 /* don't set REX for FPU opcodes */
; 1343 :                 if ( CodeInfo->pinstr->cpu & P_FPU_MASK )

	movzx	eax, WORD PTR [r10+10]
	test	al, 7
	jne	$LN10@Set_Memtyp

; 1344 :                     break;
; 1345 :                 /* don't set REX for - most - MMX/SSE opcodes */
; 1346 :                 if ( CodeInfo->pinstr->cpu & P_EXT_MASK ) {

	mov	ecx, 65280				; 0000ff00H
	test	ax, cx
	je	$LN23@Set_Memtyp
	cmp	r9d, 1441				; 000005a1H
	je	$LN23@Set_Memtyp
	lea	eax, DWORD PTR [r9-1023]
	cmp	eax, 1
	jbe	$LN23@Set_Memtyp
	cmp	r9d, 1041				; 00000411H
	je	$LN23@Set_Memtyp
	lea	eax, DWORD PTR [r9-1211]
	cmp	eax, 1
	jbe	$LN23@Set_Memtyp
	cmp	r9d, 1907				; 00000773H
	je	$LN23@Set_Memtyp
	cmp	r9d, 1929				; 00000789H
	je	$LN23@Set_Memtyp
	lea	eax, DWORD PTR [r9-1985]
	cmp	eax, 1
	ja	$LN10@Set_Memtyp

; 1409 :                 /* setting REX.W will cause an error in codegen */
; 1410 :                 CodeInfo->prefix.rex |= REX_W;

	or	BYTE PTR [r8+8], 8

; 1411 :         }
; 1412 : #endif
; 1413 :     }
; 1414 :     return;
; 1415 : }

	ret	0
$LN15@Set_Memtyp:

; 1307 :         /* if we are in use32 mode, we have to add OPSIZ prefix for
; 1308 :          * most of the 386 instructions when operand has type WORD.
; 1309 :          * Exceptions ( MOVSX and MOVZX ) are handled in check_size().
; 1310 :          */
; 1311 :         if ( IS_MEM_TYPE( mem_type, WORD ) )
; 1312 :             CodeInfo->prefix.opsiz = TRUE;

	or	BYTE PTR [rcx+9], 2

; 1411 :         }
; 1412 : #endif
; 1413 :     }
; 1414 :     return;
; 1415 : }

	ret	0
$LN11@Set_Memtyp:

; 1347 :                     switch ( CodeInfo->token ) {
; 1348 :                         /* [V]CMPSD and [V]MOVSD are also candidates,
; 1349 :                          * but currently they are handled in HandleStringInstructions()
; 1350 :                          */
; 1351 :                     case T_CVTSI2SD: /* v2.06: added */
; 1352 :                     case T_CVTSI2SS: /* v2.06: added */
; 1353 :                     case T_PEXTRQ: /* v2.06: added */
; 1354 :                     case T_PINSRQ: /* v2.06: added */
; 1355 :                     case T_MOVD:
; 1356 : #if AVXSUPP
; 1357 :                     case T_VCVTSI2SD:
; 1358 :                     case T_VCVTSI2SS:
; 1359 :                     case T_VPEXTRQ:
; 1360 :                     case T_VPINSRQ:
; 1361 :                     case T_VMOVD:
; 1362 : #endif
; 1363 :                         CodeInfo->prefix.rex |= REX_W;
; 1364 :                         break;
; 1365 :                     default:
; 1366 :                         break;
; 1367 :                     }
; 1368 :                 }
; 1369 :                 else
; 1370 :                     CodeInfo->prefix.rex |= REX_W;
; 1371 :             }
; 1372 :         }
; 1373 : #endif
; 1374 : 
; 1375 :     /* v2.05: IS_MEM_TYPE() doesn't work with MT_REALx */
; 1376 :     //} else if( CodeInfo->Ofssize == USE16 && ( IS_MEM_TYPE( mem_type, DWORD ) ) ) {
; 1377 :     } else {
; 1378 :         if( IS_MEMTYPE_SIZ( mem_type, sizeof(uint_32) ) ) {

	mov	ecx, edx
	and	ecx, 192				; 000000c0H
	cmp	ecx, 128				; 00000080H
	jge	$LN10@Set_Memtyp
	mov	eax, edx
	and	eax, 31
	cmp	al, 3
	jne	SHORT $LN25@Set_Memtyp

; 1379 : 
; 1380 :             /* in 16bit mode, a DWORD memory access usually requires an OPSIZ
; 1381 :              * prefix. A few instructions, which access m16:16 operands,
; 1382 :              * are exceptions.
; 1383 :              */
; 1384 :             switch( CodeInfo->token ) {

	add	r9d, -450				; fffffffffffffe3eH
	cmp	r9d, 183				; 000000b7H
	ja	SHORT $LN28@Set_Memtyp
	lea	rdx, OFFSET FLAT:__ImageBase
	movsxd	rax, r9d
	movzx	eax, BYTE PTR $LN41@Set_Memtyp[rdx+rax]
	mov	ecx, DWORD PTR $LN42@Set_Memtyp[rdx+rax*4]
	add	rcx, rdx
	jmp	rcx
$LN28@Set_Memtyp:

; 1385 :             case T_LDS:
; 1386 :             case T_LES:
; 1387 :             case T_LFS:
; 1388 :             case T_LGS:
; 1389 :             case T_LSS:
; 1390 :             case T_CALL: /* v2.0: added */
; 1391 :             case T_JMP:  /* v2.0: added */
; 1392 :                 /* in these cases, opsize does NOT need to be changed  */
; 1393 :                 break;
; 1394 :             default:
; 1395 :                 CodeInfo->prefix.opsiz = TRUE;

	or	BYTE PTR [r8+9], 2

; 1411 :         }
; 1412 : #endif
; 1413 :     }
; 1414 :     return;
; 1415 : }

	ret	0
$LN25@Set_Memtyp:

; 1396 :                 break;
; 1397 :             }
; 1398 :         }
; 1399 : #if AMD64_SUPPORT
; 1400 :         /* v2.06: added because in v2.05, 64-bit memory operands were
; 1401 :          * accepted in 16-bit code
; 1402 :          */
; 1403 :         else if ( IS_MEMTYPE_SIZ( mem_type, sizeof(uint_64) ) ) {

	cmp	ecx, 128				; 00000080H
	jge	SHORT $LN10@Set_Memtyp
	and	edx, 31
	cmp	dl, 7
	jne	SHORT $LN10@Set_Memtyp

; 1404 :             if ( opnd_clstab[CodeInfo->pinstr->opclsidx].opnd_type[OPND1] == OP_M_ANY ) {

	mov	r10, QWORD PTR [r8+16]
	lea	rdx, OFFSET FLAT:__ImageBase
	movzx	eax, BYTE PTR [r10]
	lea	rcx, QWORD PTR [rax+rax*2]
	cmp	DWORD PTR opnd_clstab[rdx+rcx*4], -8388608 ; ffffffffff800000H
	je	SHORT $LN10@Set_Memtyp

; 1405 :                 //printf( "Set_Memtype: OP_M_ANY detected, file=%s, instr=%s\n", CurrFName[ASM], GetResWName( CodeInfo->token, NULL ) );
; 1406 :             } else if ( CodeInfo->pinstr->cpu & ( P_FPU_MASK | P_EXT_MASK ) ) {

	mov	eax, 65287				; 0000ff07H
	test	WORD PTR [r10+10], ax
	jne	SHORT $LN10@Set_Memtyp

; 1407 :                 ;
; 1408 :             } else if ( CodeInfo->token != T_CMPXCHG8B )

	cmp	r9d, 612				; 00000264H
	je	SHORT $LN10@Set_Memtyp
$LN23@Set_Memtyp:

; 1409 :                 /* setting REX.W will cause an error in codegen */
; 1410 :                 CodeInfo->prefix.rex |= REX_W;

	or	BYTE PTR [r8+8], 8
$LN10@Set_Memtyp:

; 1411 :         }
; 1412 : #endif
; 1413 :     }
; 1414 :     return;
; 1415 : }

	ret	0
	npad	1
$LN42@Set_Memtyp:
	DD	$LN10@Set_Memtyp
	DD	$LN28@Set_Memtyp
$LN41@Set_Memtyp:
	DB	0
	DB	0
	DB	1
	DB	1
	DB	1
	DB	1
	DB	1
	DB	1
	DB	1
	DB	1
	DB	1
	DB	1
	DB	1
	DB	1
	DB	1
	DB	1
	DB	1
	DB	1
	DB	1
	DB	1
	DB	1
	DB	1
	DB	1
	DB	1
	DB	1
	DB	1
	DB	1
	DB	1
	DB	1
	DB	1
	DB	1
	DB	1
	DB	1
	DB	1
	DB	1
	DB	1
	DB	1
	DB	1
	DB	1
	DB	1
	DB	1
	DB	1
	DB	1
	DB	1
	DB	1
	DB	1
	DB	1
	DB	1
	DB	1
	DB	1
	DB	1
	DB	1
	DB	1
	DB	1
	DB	1
	DB	1
	DB	1
	DB	1
	DB	1
	DB	1
	DB	1
	DB	1
	DB	1
	DB	1
	DB	1
	DB	1
	DB	1
	DB	1
	DB	1
	DB	1
	DB	1
	DB	1
	DB	1
	DB	1
	DB	1
	DB	1
	DB	1
	DB	1
	DB	1
	DB	1
	DB	1
	DB	1
	DB	1
	DB	1
	DB	1
	DB	1
	DB	1
	DB	1
	DB	1
	DB	1
	DB	1
	DB	1
	DB	1
	DB	1
	DB	1
	DB	1
	DB	1
	DB	1
	DB	1
	DB	1
	DB	0
	DB	0
	DB	1
	DB	1
	DB	1
	DB	1
	DB	1
	DB	1
	DB	1
	DB	1
	DB	1
	DB	1
	DB	1
	DB	1
	DB	1
	DB	1
	DB	1
	DB	1
	DB	1
	DB	1
	DB	1
	DB	1
	DB	1
	DB	1
	DB	1
	DB	1
	DB	1
	DB	1
	DB	1
	DB	1
	DB	1
	DB	1
	DB	1
	DB	1
	DB	1
	DB	1
	DB	1
	DB	1
	DB	1
	DB	1
	DB	1
	DB	1
	DB	1
	DB	1
	DB	1
	DB	1
	DB	1
	DB	1
	DB	1
	DB	1
	DB	1
	DB	1
	DB	1
	DB	1
	DB	1
	DB	1
	DB	1
	DB	1
	DB	1
	DB	1
	DB	1
	DB	1
	DB	1
	DB	1
	DB	1
	DB	1
	DB	1
	DB	1
	DB	1
	DB	1
	DB	1
	DB	1
	DB	1
	DB	1
	DB	1
	DB	1
	DB	1
	DB	1
	DB	1
	DB	1
	DB	1
	DB	0
	DB	0
	DB	0
Set_Memtype ENDP
_TEXT	ENDS
; Function compile flags: /Ogtpy
; File d:\hjwasm\hjwasm2.13.1s\hjwasm2.13.1s\parser.c
;	COMDAT SetPtrMemtype
_TEXT	SEGMENT
CodeInfo$ = 48
opndx$ = 56
SetPtrMemtype PROC					; COMDAT

; 1242 : {

	mov	QWORD PTR [rsp+16], rsi
	push	rdi
	sub	rsp, 32					; 00000020H

; 1243 :     struct asym *sym = opndx->sym;
; 1244 :     int size = 0;
; 1245 : 
; 1246 :     if ( opndx->mbr )  /* the mbr field has higher priority */

	mov	rax, QWORD PTR [rdx+88]
	xor	r9d, r9d
	mov	r8, QWORD PTR [rdx+80]
	test	rax, rax
	mov	rsi, rdx
	mov	rdi, rcx
	cmovne	r8, rax

; 1247 :         sym = opndx->mbr;
; 1248 : 
; 1249 :     /* v2.10: the "explicit" condition is now handled FIRST */
; 1250 : #if 1 /* v2.0: handle PF16 ptr [ebx], which didn't work in v1.96 */
; 1251 :     if ( opndx->explicit && opndx->type ) {

	test	BYTE PTR [rdx+76], 2
	je	SHORT $LN3@SetPtrMemt
	mov	rax, QWORD PTR [rdx+96]
	test	rax, rax
	je	SHORT $LN3@SetPtrMemt

; 1252 :         size = opndx->type->total_size;

	mov	r9d, DWORD PTR [rax+56]
	movzx	eax, BYTE PTR [rax+47]
	shr	al, 2

; 1253 :         CodeInfo->isfar = opndx->type->isfar;

	xor	al, BYTE PTR [rcx+142]
	and	al, 4
	xor	BYTE PTR [rcx+142], al

; 1254 :     } else

	jmp	$LN6@SetPtrMemt
$LN3@SetPtrMemt:

; 1255 : #endif
; 1256 :     if ( sym ) {

	test	r8, r8
	je	$LN5@SetPtrMemt

; 1257 :         if ( sym->type ) {

	mov	rax, QWORD PTR [r8+80]
	test	rax, rax
	je	SHORT $LN7@SetPtrMemt

; 1258 :             size = sym->type->total_size;

	mov	r9d, DWORD PTR [rax+56]
	movzx	eax, BYTE PTR [rax+47]
	shr	al, 2

; 1259 :             CodeInfo->isfar = sym->type->isfar;

	xor	al, BYTE PTR [rcx+142]
	and	al, 4
	xor	BYTE PTR [rcx+142], al

; 1260 : 
; 1261 :             /* there's an ambiguity with pointers of size DWORD,
; 1262 :              since they can be either NEAR32 or FAR16 */
; 1263 :             if ( size == 4 && sym->type->Ofssize != CodeInfo->Ofssize )

	cmp	r9d, 4
	jne	$LN6@SetPtrMemt
	mov	rax, QWORD PTR [r8+80]
	movzx	ecx, BYTE PTR [rax+44]
	cmp	cl, BYTE PTR [rdi+106]
	je	$LN29@SetPtrMemt

; 1264 :                 opndx->Ofssize = sym->type->Ofssize;

	mov	BYTE PTR [rdx+69], cl

; 1265 : 
; 1266 :         } else if ( sym->mem_type == MT_PTR ) {

	jmp	$LN29@SetPtrMemt
$LN7@SetPtrMemt:
	cmp	DWORD PTR [r8+36], 195			; 000000c3H
	jne	SHORT $LN10@SetPtrMemt

; 1267 :             size = SizeFromMemtype( sym->isfar ? MT_FAR : MT_NEAR, sym->Ofssize, NULL );

	movzx	edx, BYTE PTR [r8+44]
	mov	QWORD PTR [rsp+48], rbx
	movzx	ebx, BYTE PTR [r8+47]
	test	bl, 16
	setne	r9b
	xor	r8d, r8d
	lea	ecx, DWORD PTR [r9+129]
	call	SizeFromMemtype

; 1268 :             CodeInfo->isfar = sym->isfar;

	and	BYTE PTR [rdi+142], 251			; 000000fbH
	mov	r9d, eax
	shr	bl, 2
	and	bl, 4
	or	BYTE PTR [rdi+142], bl
	mov	rbx, QWORD PTR [rsp+48]

; 1269 :         } else  {

	jmp	SHORT $LN6@SetPtrMemt
$LN10@SetPtrMemt:

; 1270 :             if ( sym->isarray )

	test	BYTE PTR [r8+41], 2
	je	SHORT $LN12@SetPtrMemt

; 1271 :                 size = sym->total_size / sym->total_length;

	mov	eax, DWORD PTR [r8+56]
	xor	edx, edx
	div	DWORD PTR [r8+64]
	mov	r9d, eax
	jmp	SHORT $LN6@SetPtrMemt
$LN12@SetPtrMemt:

; 1272 :             else
; 1273 :                 size = sym->total_size;

	mov	r9d, DWORD PTR [r8+56]

; 1274 :         }
; 1275 :     } else {

	jmp	SHORT $LN6@SetPtrMemt
$LN5@SetPtrMemt:

; 1276 :         if ( SIZE_DATAPTR & ( 1 << ModuleInfo.model ) ) {

	mov	ecx, DWORD PTR ModuleInfo+360
	mov	edx, 2
	mov	eax, 1
	shl	al, cl

; 1277 :             DebugMsg1(("SetPtrMemtype: model with FAR data pointers\n" ));
; 1278 :             size = 2;
; 1279 :         }
; 1280 :         size += (2 << ModuleInfo.defOfssize );

	movzx	ecx, BYTE PTR ModuleInfo+405
	and	al, 104					; 00000068H
	cmovne	r9d, edx
	shl	edx, cl
	add	r9d, edx
$LN6@SetPtrMemt:

; 1281 :     }
; 1282 :     if ( size )

	test	r9d, r9d
	je	SHORT $LN30@SetPtrMemt
$LN29@SetPtrMemt:

; 1283 :         MemtypeFromSize( size, &opndx->mem_type );

	cmp	BYTE PTR SpecialTable+2471, 6
	jne	SHORT $LN30@SetPtrMemt
	mov	ecx, 205				; 000000cdH
	lea	r8, OFFSET FLAT:SpecialTable
	mov	eax, 2460				; 0000099cH
	npad	8
$LL20@SetPtrMemt:
	movzx	edx, BYTE PTR [rax+r8+10]
	test	dl, dl
	js	SHORT $LN18@SetPtrMemt
	movzx	eax, dl
	and	eax, 31
	inc	eax
	cmp	eax, r9d
	je	SHORT $LN25@SetPtrMemt
$LN18@SetPtrMemt:
	inc	rcx
	lea	rax, QWORD PTR [rcx+rcx*2]
	lea	rax, QWORD PTR [rax*4]
	cmp	BYTE PTR [rax+r8+11], 6
	je	SHORT $LL20@SetPtrMemt

; 1284 :     DebugMsg1(("SetPtrMemtype: size=%u, new memtype=0x%x\n", size, opndx->mem_type ));
; 1285 : }

	mov	rsi, QWORD PTR [rsp+56]
	add	rsp, 32					; 00000020H
	pop	rdi
	ret	0
$LN25@SetPtrMemt:

; 1283 :         MemtypeFromSize( size, &opndx->mem_type );

	movzx	eax, dl
	mov	DWORD PTR [rsi+64], eax
$LN30@SetPtrMemt:

; 1284 :     DebugMsg1(("SetPtrMemtype: size=%u, new memtype=0x%x\n", size, opndx->mem_type ));
; 1285 : }

	mov	rsi, QWORD PTR [rsp+56]
	add	rsp, 32					; 00000020H
	pop	rdi
	ret	0
SetPtrMemtype ENDP
_TEXT	ENDS
; Function compile flags: /Ogtpy
; File d:\hjwasm\hjwasm2.13.1s\hjwasm2.13.1s\parser.c
_TEXT	SEGMENT
fixup_option$1$ = 80
CodeInfo$ = 80
CurrOpnd$ = 88
opndx$ = 96
idata_fixup PROC

; 922  : {

$LN158:
	push	rbx
	push	rdi
	push	r12
	sub	rsp, 48					; 00000030H
	mov	eax, DWORD PTR [rcx+24]
	mov	rdi, r8
	sub	eax, 450				; 000001c2H
	mov	r12d, edx

; 923  :     //struct fixup      *fixup;
; 924  :     enum fixup_types    fixup_type;
; 925  :     enum fixup_options  fixup_option = OPTJ_NONE;

	mov	DWORD PTR fixup_option$1$[rsp], 0
	mov	rbx, rcx
	cmp	eax, 49					; 00000031H
	ja	SHORT $LN12@idata_fixu

; 926  :     int                 size;
; 927  :     uint_8              Ofssize; /* 1=32bit, 0=16bit offset for fixup */
; 928  : 
; 929  :     DebugMsg1(("idata_fixup( CurrOpnd=%u ) enter [opndx.kind=%u mem_type=%Xh, CodeInfo.mem_type=%Xh]\n", CurrOpnd, opndx->kind, opndx->mem_type, CodeInfo->mem_type));
; 930  : 
; 931  :     /* jmp/call/jcc/loopcc/jxcxz? */
; 932  :     if( IS_ANY_BRANCH( CodeInfo->token ) ) {
; 933  :         return( process_branch( CodeInfo, CurrOpnd, opndx ) );

	mov	edx, r12d

; 1232 : }

	add	rsp, 48					; 00000030H
	pop	r12
	pop	rdi
	pop	rbx

; 926  :     int                 size;
; 927  :     uint_8              Ofssize; /* 1=32bit, 0=16bit offset for fixup */
; 928  : 
; 929  :     DebugMsg1(("idata_fixup( CurrOpnd=%u ) enter [opndx.kind=%u mem_type=%Xh, CodeInfo.mem_type=%Xh]\n", CurrOpnd, opndx->kind, opndx->mem_type, CodeInfo->mem_type));
; 930  : 
; 931  :     /* jmp/call/jcc/loopcc/jxcxz? */
; 932  :     if( IS_ANY_BRANCH( CodeInfo->token ) ) {
; 933  :         return( process_branch( CodeInfo, CurrOpnd, opndx ) );

	jmp	process_branch
$LN12@idata_fixu:
	mov	QWORD PTR [rsp+96], rsi

; 934  :     }
; 935  :     CodeInfo->opnd[CurrOpnd].data32l = opndx->value;

	lea	rax, QWORD PTR [r12+r12*2]
	mov	QWORD PTR [rsp+104], r13
	mov	rsi, r12
	lea	r13, QWORD PTR [rcx+rax*8]
	mov	QWORD PTR [rsp+40], r14
	mov	eax, DWORD PTR [r8]
	mov	DWORD PTR [r13+40], eax

; 936  : 
; 937  :     if ( opndx->Ofssize != USE_EMPTY ) {

	movzx	r14d, BYTE PTR [r8+69]
	cmp	r14b, 254				; 000000feH
	jne	SHORT $LN19@idata_fixu

; 938  :         Ofssize = opndx->Ofssize;
; 939  :     } else if( ( opndx->sym->state == SYM_SEG )
; 940  :         || ( opndx->sym->state == SYM_GRP )
; 941  :         || ( opndx->instr == T_SEG ) ) {

	mov	rcx, QWORD PTR [r8+80]
	mov	eax, DWORD PTR [rcx+32]
	sub	eax, 3
	cmp	eax, 1
	jbe	SHORT $LN17@idata_fixu
	cmp	DWORD PTR [r8+56], 244			; 000000f4H
	je	SHORT $LN17@idata_fixu

; 943  :     } else if( opndx->is_abs ) {  /* an (external) absolute symbol? */

	test	BYTE PTR [r8+76], 4
	jne	SHORT $LN17@idata_fixu

; 944  :         Ofssize = USE16;
; 945  :     } else {
; 946  :         Ofssize = GetSymOfssize( opndx->sym );

	call	GetSymOfssize
	mov	r14d, eax
	jmp	SHORT $LN19@idata_fixu
$LN17@idata_fixu:

; 942  :         Ofssize = USE16;

	xor	r14b, r14b
$LN19@idata_fixu:

; 947  :     }
; 948  : 
; 949  :     if( opndx->instr == T_SHORT ) {

	cmp	DWORD PTR [rdi+56], 245			; 000000f5H
	jne	SHORT $LN20@idata_fixu

; 950  :         /* short works for branch instructions only */
; 951  :         return( EmitErr( INVALID_INSTRUCTION_OPERANDS ) );

	mov	ecx, 49					; 00000031H
	call	EmitErr
	jmp	$LN150@idata_fixu
$LN20@idata_fixu:
	mov	eax, DWORD PTR [rdi+76]
	and	al, 6
	mov	QWORD PTR [rsp+88], rbp
	mov	QWORD PTR [rsp+32], r15
	cmp	al, 2

; 952  :     }
; 953  : 
; 954  :     /* the code below should be rewritten.
; 955  :      * - an address operator ( OFFSET, LROFFSET, IMAGEREL, SECTIONREL,
; 956  :      *   LOW, HIGH, LOWWORD, HIGHWORD, LOW32, HIGH32, SEG ) should not
; 957  :      *   force a magnitude, but may set a minimal magnitude - and the
; 958  :      *   fixup type, of course.
; 959  :      * - check if Codeinfo->mem_type really has to be set here!
; 960  :      */
; 961  : 
; 962  :     /* v2.06: added */
; 963  :     /* v2.10: modified */
; 964  :     //if ( opndx->explicit ) {
; 965  :     if ( opndx->explicit && !opndx->is_abs ) {

	jne	SHORT $LN22@idata_fixu

; 966  :         CodeInfo->const_size_fixed = TRUE;

	or	BYTE PTR [rbx+142], 8

; 967  :         if ( CodeInfo->mem_type == MT_EMPTY )

	cmp	DWORD PTR [rbx+28], 192			; 000000c0H
	jne	SHORT $LN22@idata_fixu

; 968  :             CodeInfo->mem_type = opndx->mem_type;

	mov	eax, DWORD PTR [rdi+64]
	mov	DWORD PTR [rbx+28], eax
$LN22@idata_fixu:

; 969  :     }
; 970  :     /* v2.03: don't ignore a "NEAR32 ptr" qualifier */
; 971  :     //if ( CodeInfo->mem_type == MT_EMPTY && CurrOpnd > OPND1 ) {
; 972  :     if ( CodeInfo->mem_type == MT_EMPTY && CurrOpnd > OPND1 && opndx->Ofssize == USE_EMPTY ) {

	cmp	DWORD PTR [rbx+28], 192			; 000000c0H
	mov	ebp, 7
	lea	r8d, QWORD PTR [rbp-4]
	lea	r15d, QWORD PTR [rbp-6]
	jne	$LN31@idata_fixu
	test	r12d, r12d
	je	$LN31@idata_fixu
	cmp	BYTE PTR [rdi+69], 254			; 000000feH
	jne	$LN31@idata_fixu

; 973  :         size = OperandSize( CodeInfo->opnd[OPND1].type, CodeInfo );

	mov	esi, DWORD PTR [rbx+32]
	mov	rdx, rbx
	mov	ecx, esi
	call	OperandSize

; 974  :         /* may be a forward reference, so wait till pass 2 */
; 975  :         if( Parse_Pass > PASS_1 && opndx->instr != EMPTY ) {

	cmp	DWORD PTR Parse_Pass, 0
	mov	edx, eax
	jbe	SHORT $LN28@idata_fixu
	mov	eax, DWORD PTR [rdi+56]
	cmp	eax, -2
	je	SHORT $LN28@idata_fixu

; 976  :             switch ( opndx->instr ) {

	sub	eax, 233				; 000000e9H
	je	SHORT $LN27@idata_fixu
	sub	eax, 6
	je	SHORT $LN27@idata_fixu
	sub	eax, 2
	je	SHORT $LN27@idata_fixu
	sub	eax, 2
	je	SHORT $LN27@idata_fixu
	cmp	eax, r15d
	jne	SHORT $LN28@idata_fixu
	mov	eax, -2147483648			; 80000000H
	test	edx, eax
	jne	SHORT $LN132@idata_fixu
	cmp	edx, r15d
	jne	SHORT $LN28@idata_fixu
$LN132@idata_fixu:

; 977  :             case T_SEG: /* v2.04a: added */
; 978  :                 if( size && (size < 2 ) ) {
; 979  :                     return( EmitErr( OPERANDS_MUST_BE_THE_SAME_SIZE, size, 2 ) );

	mov	ecx, 48					; 00000030H
	lea	r8d, QWORD PTR [rcx-46]
	call	EmitErr
	jmp	$LN152@idata_fixu
$LN27@idata_fixu:

; 980  :                 }
; 981  :                 break;
; 982  :             case T_OFFSET:
; 983  :             case T_LROFFSET:
; 984  : #if IMAGERELSUPP
; 985  :             case T_IMAGEREL:
; 986  : #endif
; 987  : #if SECTIONRELSUPP
; 988  :             case T_SECTIONREL:
; 989  : #endif
; 990  :                 if( size && (size < 2 || ( Ofssize && size < 4 ))) {

	test	edx, edx
	je	SHORT $LN28@idata_fixu
	cmp	edx, 2
	jl	SHORT $LN29@idata_fixu
	test	r14b, r14b
	je	SHORT $LN28@idata_fixu
	cmp	edx, 4
	jge	SHORT $LN28@idata_fixu
$LN29@idata_fixu:

; 991  :                     return( EmitErr( OPERANDS_MUST_BE_THE_SAME_SIZE, size, ( 2 << Ofssize ) ) );

	movzx	ecx, r14b
	mov	r8d, 2
	shl	r8d, cl
	mov	ecx, 48					; 00000030H
	call	EmitErr
	jmp	$LN152@idata_fixu
$LN28@idata_fixu:

; 992  :                 }
; 993  :             }
; 994  :         }
; 995  :         switch ( size ) {

	sub	edx, r15d
	je	SHORT $LN30@idata_fixu
	sub	edx, r15d
	je	SHORT $LN33@idata_fixu
	sub	edx, 2
	je	SHORT $LN42@idata_fixu
	cmp	edx, 4
	jne	SHORT $LN143@idata_fixu

; 1009 :         case 4:
; 1010 :             CodeInfo->mem_type = MT_DWORD;
; 1011 :             break;
; 1012 : #if AMD64_SUPPORT
; 1013 :         case 8:
; 1014 :             /* v2.05: it's questionable if size 8 is a good assumption for an
; 1015 :              * immediate constant. It's valid for MOV <reg>, <imm> only.
; 1016 :              */
; 1017 :             //case 8: CodeInfo->mem_type = MT_QWORD;break;
; 1018 :             /* v2.05a: added */
; 1019 :             if ( Ofssize == USE64 ) {

	cmp	r14b, 2
	jne	SHORT $LN143@idata_fixu

; 1020 :                 if ( CodeInfo->token == T_MOV &&

	cmp	DWORD PTR [rbx+24], 601			; 00000259H
	jne	SHORT $LN39@idata_fixu
	test	sil, 8
	je	SHORT $LN39@idata_fixu

; 1021 :                     ( CodeInfo->opnd[OPND1].type & OP_R64 ) )
; 1022 :                     CodeInfo->mem_type = MT_QWORD;

	mov	DWORD PTR [rbx+28], ebp
	jmp	SHORT $LN143@idata_fixu
$LN39@idata_fixu:

; 1023 :                 else if ( opndx->instr == T_LOW32 || opndx->instr == T_HIGH32 )

	mov	eax, DWORD PTR [rdi+56]
	cmp	eax, 237				; 000000edH
	je	SHORT $LN42@idata_fixu
	cmp	eax, 231				; 000000e7H
	jne	SHORT $LN143@idata_fixu
$LN42@idata_fixu:

; 1024 :                     /* v2.10:added; LOW32/HIGH32 in expreval.c won't set mem_type anymore. */
; 1025 :                     CodeInfo->mem_type = MT_DWORD;

	mov	r8d, 3
	mov	DWORD PTR [rbx+28], r8d
	jmp	SHORT $LN153@idata_fixu
$LN33@idata_fixu:

; 1000 :             break;
; 1001 :         case 2:
; 1002 :             /* v2.05: if () added */
; 1003 :             if ( opndx->is_abs ||
; 1004 :                 CodeInfo->Ofssize == USE16 ||
; 1005 :                 opndx->instr == T_LOWWORD ||

	test	BYTE PTR [rdi+76], 4
	jne	SHORT $LN35@idata_fixu
	cmp	BYTE PTR [rbx+106], 0
	je	SHORT $LN35@idata_fixu
	mov	eax, DWORD PTR [rdi+56]
	cmp	eax, 238				; 000000eeH
	je	SHORT $LN35@idata_fixu
	cmp	eax, 232				; 000000e8H
	jne	SHORT $LN143@idata_fixu
$LN35@idata_fixu:

; 1006 :                 opndx->instr == T_HIGHWORD )
; 1007 :                 CodeInfo->mem_type = MT_WORD;

	mov	DWORD PTR [rbx+28], r15d

; 1008 :             break;

	jmp	SHORT $LN143@idata_fixu
$LN30@idata_fixu:

; 996  :         case 1:
; 997  :             /* v2.05: if () added */
; 998  :             if ( opndx->is_abs || opndx->instr == T_LOW || opndx->instr == T_HIGH )

	test	BYTE PTR [rdi+76], 4
	jne	SHORT $LN32@idata_fixu
	mov	eax, DWORD PTR [rdi+56]
	cmp	eax, 236				; 000000ecH
	je	SHORT $LN32@idata_fixu
	cmp	eax, 230				; 000000e6H
	jne	SHORT $LN143@idata_fixu
$LN32@idata_fixu:

; 999  :                 CodeInfo->mem_type = MT_BYTE;

	mov	DWORD PTR [rbx+28], 0
$LN143@idata_fixu:
	mov	r8d, 3
$LN153@idata_fixu:
	mov	rsi, r12
$LN31@idata_fixu:

; 1026 :             }
; 1027 :             break;
; 1028 : #endif
; 1029 :         }
; 1030 :     }
; 1031 :     if ( CodeInfo->mem_type == MT_EMPTY ) {

	cmp	DWORD PTR [rbx+28], 192			; 000000c0H
	lea	r9, OFFSET FLAT:__ImageBase
	jne	$LN63@idata_fixu

; 1032 :         if( opndx->is_abs ) {

	mov	edx, DWORD PTR [rdi+76]
	test	dl, 4
	je	SHORT $LN44@idata_fixu

; 1033 :             //if( opndx->mem_type != MT_EMPTY && opndx->mem_type != MT_ABS ) {
; 1034 :             if( opndx->mem_type != MT_EMPTY ) {

	mov	eax, DWORD PTR [rdi+64]
	cmp	eax, 192				; 000000c0H
	jne	$LN100@idata_fixu

; 1035 :                 CodeInfo->mem_type = opndx->mem_type;
; 1036 :             } else if ( CodeInfo->token == T_PUSHW ) { /* v2.10: special handling PUSHW */

	cmp	DWORD PTR [rbx+24], 598			; 00000256H
	jne	SHORT $LN48@idata_fixu

; 1037 :                 CodeInfo->mem_type = MT_WORD;

	mov	DWORD PTR [rbx+28], r15d

; 1038 :             } else {

	jmp	$LN63@idata_fixu
$LN48@idata_fixu:

; 1039 :                 CodeInfo->mem_type = ( IS_OPER_32( CodeInfo ) ? MT_DWORD : MT_WORD );

	movzx	ecx, BYTE PTR [rbx+9]
	shr	ecx, 1
	cmp	BYTE PTR [rbx+106], 0
	je	SHORT $LN97@idata_fixu
	not	ecx
$LN97@idata_fixu:
	and	ecx, r15d
	mov	eax, r15d
	test	ecx, ecx
	cmovne	eax, r8d

; 1040 :             }
; 1041 :         } else {

	jmp	$LN100@idata_fixu
$LN44@idata_fixu:

; 1042 :             switch ( CodeInfo->token ) {

	mov	ecx, DWORD PTR [rbx+24]
	sub	ecx, 560				; 00000230H
	je	SHORT $LN50@idata_fixu
	sub	ecx, 36					; 00000024H
	je	SHORT $LN50@idata_fixu
	cmp	ecx, 2
	jne	$LN146@idata_fixu
$LN50@idata_fixu:

; 1043 :             case T_PUSHW:
; 1044 :             case T_PUSHD:
; 1045 :             case T_PUSH:
; 1046 :                 /* for forward reference, assume BYTE */
; 1047 :                 /* v2.02: don't assume BYTE if it is SEG/GRP */
; 1048 :                 //if ( opndx->mem_type == MT_EMPTY ) {
; 1049 :                 /* v2.07: added cases IMAGEREL and SECTIONREL */
; 1050 :                 if ( opndx->mem_type == MT_EMPTY  ) {

	cmp	DWORD PTR [rdi+64], 192			; 000000c0H
	jne	SHORT $LN8@idata_fixu

; 1051 :                     switch( opndx->instr ) {

	mov	eax, DWORD PTR [rdi+56]
	add	eax, 2
	cmp	eax, 245				; 000000f5H
	ja	SHORT $LN8@idata_fixu
	cdqe
	movzx	eax, BYTE PTR $LN136@idata_fixu[r9+rax]
	mov	ecx, DWORD PTR $LN137@idata_fixu[r9+rax*4]
	add	rcx, r9
	jmp	rcx
$LN52@idata_fixu:

; 1052 :                     case EMPTY:
; 1053 :                     case T_LOW:
; 1054 :                     case T_HIGH:
; 1055 :                         opndx->mem_type = MT_BYTE;

	mov	DWORD PTR [rdi+64], 0

; 1056 :                         break;

	jmp	SHORT $LN8@idata_fixu
$LN53@idata_fixu:

; 1057 :                     case T_LOW32: /* v2.10: added - low32_op() doesn't set mem_type anymore. */
; 1058 : #if IMAGERELSUPP
; 1059 :                     case T_IMAGEREL:
; 1060 : #endif
; 1061 : #if SECTIONRELSUPP
; 1062 :                     case T_SECTIONREL:
; 1063 : #endif
; 1064 :                         opndx->mem_type = MT_DWORD;

	mov	DWORD PTR [rdi+64], r8d
$LN8@idata_fixu:

; 1065 :                         break;
; 1066 :                     };
; 1067 :                 }
; 1068 :                 /* default: push offset only */
; 1069 :                 /* for PUSH + undefined symbol, assume BYTE */
; 1070 :                 if ( opndx->mem_type == MT_FAR && ( opndx->explicit == FALSE ) )

	cmp	DWORD PTR [rdi+64], 130			; 00000082H
	jne	SHORT $LN54@idata_fixu
	test	dl, 2
	jne	SHORT $LN54@idata_fixu

; 1071 :                     opndx->mem_type = MT_NEAR;

	mov	DWORD PTR [rdi+64], 129			; 00000081H
$LN54@idata_fixu:

; 1072 :                 /* v2.04: curly brackets added */
; 1073 :                 if ( CodeInfo->token == T_PUSHW ) {

	mov	eax, DWORD PTR [rbx+24]
	cmp	eax, 598				; 00000256H
	jne	SHORT $LN55@idata_fixu

; 1074 :                     if ( SizeFromMemtype( opndx->mem_type, Ofssize, opndx->type ) < 2 )

	mov	r8, QWORD PTR [rdi+96]
	mov	ecx, DWORD PTR [rdi+64]
	movzx	edx, r14b
	call	SizeFromMemtype

; 1076 :                 } else if ( CodeInfo->token == T_PUSHD ) {

	lea	r9, OFFSET FLAT:__ImageBase
	mov	ecx, 3
	cmp	eax, 2
	jge	SHORT $LN59@idata_fixu

; 1075 :                         opndx->mem_type = MT_WORD;

	mov	DWORD PTR [rdi+64], r15d

; 1076 :                 } else if ( CodeInfo->token == T_PUSHD ) {

	jmp	SHORT $LN59@idata_fixu
$LN55@idata_fixu:
	cmp	eax, 560				; 00000230H
	jne	SHORT $LN146@idata_fixu

; 1077 :                     if ( SizeFromMemtype( opndx->mem_type, Ofssize, opndx->type ) < 4 )

	mov	r8, QWORD PTR [rdi+96]
	mov	ecx, DWORD PTR [rdi+64]
	movzx	edx, r14b
	call	SizeFromMemtype

; 1078 :                         opndx->mem_type = MT_DWORD;

	lea	r9, OFFSET FLAT:__ImageBase
	mov	ecx, 3
	cmp	eax, 4
	jge	SHORT $LN59@idata_fixu
	mov	DWORD PTR [rdi+64], ecx
	jmp	SHORT $LN59@idata_fixu
$LN146@idata_fixu:
	mov	ecx, 3
$LN59@idata_fixu:

; 1079 :                 }
; 1080 :                 break;
; 1081 :             }
; 1082 :             /* if a WORD size is given, don't override it with */
; 1083 :             /* anything what might look better at first glance */
; 1084 :             if( opndx->mem_type != MT_EMPTY )

	mov	eax, DWORD PTR [rdi+64]
	cmp	eax, 192				; 000000c0H
	jne	SHORT $LN100@idata_fixu

; 1085 :                 CodeInfo->mem_type = opndx->mem_type;
; 1086 :             /* v2.04: assume BYTE size if symbol is undefined */
; 1087 :             else if ( opndx->sym->state == SYM_UNDEFINED ) {

	mov	rax, QWORD PTR [rdi+80]
	cmp	DWORD PTR [rax+32], 0
	jne	SHORT $LN62@idata_fixu

; 1088 :                 CodeInfo->mem_type = MT_BYTE;

	mov	DWORD PTR [rbx+28], 0

; 1089 :                 fixup_option = OPTJ_PUSH;

	mov	DWORD PTR fixup_option$1$[rsp], 5

; 1090 :             } else

	jmp	SHORT $LN63@idata_fixu
$LN62@idata_fixu:

; 1091 : #if AMD64_SUPPORT
; 1092 :                 /* v2.06d: changed */
; 1093 :                    CodeInfo->mem_type = ( Ofssize == USE64 ? MT_QWORD : Ofssize == USE32 ? MT_DWORD : MT_WORD );

	cmp	r14b, 2
	jne	SHORT $LN99@idata_fixu
	mov	eax, ebp
	jmp	SHORT $LN100@idata_fixu
$LN99@idata_fixu:
	mov	eax, r15d
	cmp	r14b, al
	cmove	eax, ecx
$LN100@idata_fixu:
	mov	DWORD PTR [rbx+28], eax
$LN63@idata_fixu:

; 1094 : #else
; 1095 :                 CodeInfo->mem_type = ( Ofssize > USE16 ? MT_DWORD : MT_WORD );
; 1096 : #endif
; 1097 :         }
; 1098 :     }
; 1099 :     size = SizeFromMemtype( CodeInfo->mem_type, Ofssize, NULL );

	mov	edx, DWORD PTR [rbx+28]
	movzx	r8d, r14b
	test	dl, dl
	js	SHORT $LN106@idata_fixu
	and	edx, 31
	inc	edx
	jmp	SHORT $LN103@idata_fixu
$LN106@idata_fixu:
	cmp	r8d, 254				; 000000feH
	jne	SHORT $LN107@idata_fixu
	movzx	r8d, BYTE PTR ModuleInfo+404
$LN107@idata_fixu:
	sub	edx, 128				; 00000080H
	je	SHORT $LN110@idata_fixu
	sub	edx, r15d
	je	SHORT $LN108@idata_fixu
	sub	edx, r15d
	je	SHORT $LN109@idata_fixu
	cmp	edx, 65					; 00000041H
	je	SHORT $LN111@idata_fixu
	xor	edx, edx
	jmp	SHORT $LN103@idata_fixu
$LN111@idata_fixu:
	mov	ecx, DWORD PTR ModuleInfo+360
	shl	r15d, cl
	and	r15b, 104				; 00000068H
	neg	r15b
	sbb	edx, edx
	jmp	SHORT $LN154@idata_fixu
$LN109@idata_fixu:
	mov	ecx, r8d
	mov	edx, 2
	shl	edx, cl
	add	edx, 2
	jmp	SHORT $LN103@idata_fixu
$LN108@idata_fixu:
	mov	ecx, r8d
	mov	edx, 2
	shl	edx, cl
	jmp	SHORT $LN103@idata_fixu
$LN110@idata_fixu:
	movzx	edx, BYTE PTR ds:47
	shr	edx, 3
$LN154@idata_fixu:
	mov	ecx, r8d
	mov	eax, 2
	shl	eax, cl
	and	edx, 2
	add	edx, eax
$LN103@idata_fixu:

; 1100 :     switch( size ) {

	mov	ecx, edx
	sub	ecx, 1
	je	$LN64@idata_fixu
	sub	ecx, 1
	je	SHORT $LN65@idata_fixu
	sub	ecx, 2
	je	SHORT $LN66@idata_fixu
	cmp	ecx, 4
	jne	$LN10@idata_fixu
	mov	rax, QWORD PTR [rdi]
	mov	ecx, -2147483648			; 80000000H
	add	rax, rcx
	mov	ecx, -1					; ffffffffH
	cmp	rax, rcx
	ja	SHORT $LN70@idata_fixu

; 1107 : #if AMD64_SUPPORT
; 1108 :     case 8:
; 1109 :         /* v2.05: do only assume size 8 if the constant won't fit in 4 bytes. */
; 1110 :         if ( opndx->value64 > LONG_MAX || opndx->value64 < LONG_MIN ||

	test	BYTE PTR [rdi+76], 2
	je	SHORT $LN68@idata_fixu
	mov	eax, DWORD PTR [rdi+64]
	and	eax, 31
	cmp	al, bpl
	je	SHORT $LN70@idata_fixu
$LN68@idata_fixu:

; 1114 :         //} else if ( Ofssize == USE64 ) { /* v2.11: assume 64-bit only for OFFSET or MOV r64, xxx */
; 1115 :         } else if ( Ofssize == USE64 && ( opndx->instr == T_OFFSET || ( CodeInfo->token == T_MOV && ( CodeInfo->opnd[OPND1].type & OP_R64 ) ) ) ) {

	cmp	r14b, 2
	jne	SHORT $LN66@idata_fixu
	cmp	DWORD PTR [rdi+56], 241			; 000000f1H
	je	SHORT $LN70@idata_fixu
	cmp	DWORD PTR [rbx+24], 601			; 00000259H
	jne	SHORT $LN66@idata_fixu
	test	BYTE PTR [rbx+32], 8
	je	SHORT $LN66@idata_fixu
$LN70@idata_fixu:

; 1111 :             (opndx->explicit && ( opndx->mem_type & MT_SIZE_MASK ) == 7 ) ) {
; 1112 :             CodeInfo->opnd[CurrOpnd].type = OP_I64;

	mov	DWORD PTR [r13+32], 1048576		; 00100000H

; 1113 :             CodeInfo->opnd[CurrOpnd].data32h = opndx->hvalue;

	mov	eax, DWORD PTR [rdi+4]
	mov	DWORD PTR [r13+44], eax

; 1116 :             /* v2.06d: in 64-bit, ALWAYS set OP_I64, so "mov m64, ofs" will fail,
; 1117 :              * This was accepted in v2.05-v2.06c)
; 1118 :              */
; 1119 :             CodeInfo->opnd[CurrOpnd].type = OP_I64;
; 1120 :             CodeInfo->opnd[CurrOpnd].data32h = opndx->hvalue;
; 1121 :         } else {
; 1122 :             CodeInfo->opnd[CurrOpnd].type = OP_I32;
; 1123 :         }
; 1124 :         CodeInfo->prefix.opsiz = OPSIZE32( CodeInfo );

	jmp	SHORT $LN72@idata_fixu
$LN66@idata_fixu:

; 1106 :     case 4:  CodeInfo->opnd[CurrOpnd].type = OP_I32; CodeInfo->prefix.opsiz = OPSIZE32( CodeInfo );  break;

	mov	DWORD PTR [r13+32], 524288		; 00080000H
$LN72@idata_fixu:
	and	BYTE PTR [rbx+9], 253			; 000000fdH
	cmp	BYTE PTR [rbx+106], 0
	sete	al
	and	al, 1
	add	al, al
	or	BYTE PTR [rbx+9], al
	jmp	SHORT $LN10@idata_fixu
$LN65@idata_fixu:

; 1104 :         break;
; 1105 :     case 2:  CodeInfo->opnd[CurrOpnd].type = OP_I16; CodeInfo->prefix.opsiz = OPSIZE16( CodeInfo );  break;

	mov	DWORD PTR [r13+32], 262144		; 00040000H
	and	BYTE PTR [rbx+9], 253			; 000000fdH
	cmp	BYTE PTR [rbx+106], 0
	setne	al
	and	al, 1
	add	al, al
	or	BYTE PTR [rbx+9], al
	jmp	SHORT $LN10@idata_fixu
$LN64@idata_fixu:

; 1101 :     case 1:
; 1102 :         CodeInfo->opnd[CurrOpnd].type = OP_I8;

	mov	DWORD PTR [r13+32], 131072		; 00020000H

; 1103 :         CodeInfo->prefix.opsiz = FALSE; /* v2.10: reset opsize is not really a good idea - might have been set by previous operand */

	and	BYTE PTR [rbx+9], 253			; 000000fdH
$LN10@idata_fixu:

; 1125 :         break;
; 1126 : #endif
; 1127 : #ifdef DEBUG_OUT
; 1128 :     default:
; 1129 :         DebugMsg1(("idata_fixup, unexpected size %u\n", size ));
; 1130 :         /**/myassert( 0 );
; 1131 : #endif
; 1132 :     }
; 1133 : 
; 1134 :     /* set fixup_type */
; 1135 : 
; 1136 :     if( opndx->instr == T_SEG ) {

	mov	ecx, DWORD PTR [rdi+56]
	cmp	ecx, 244				; 000000f4H
	jne	SHORT $LN74@idata_fixu

; 1137 :         fixup_type = FIX_SEG;

	mov	ebp, 8
	jmp	SHORT $LN81@idata_fixu
$LN74@idata_fixu:

; 1138 :     } else if( CodeInfo->mem_type == MT_BYTE ) {

	cmp	DWORD PTR [rbx+28], 0
	jne	SHORT $LN76@idata_fixu

; 1139 :         DebugMsg1(("idata_fixup, mem_type=BYTE\n" ));
; 1140 :         if ( opndx->instr == T_HIGH ) {

	cmp	ecx, 230				; 000000e6H
	mov	ebp, 4
	mov	eax, 11
	cmove	ebp, eax

; 1141 :             DebugMsg1(("idata_fixup, FIX_HIBYTE\n" ));
; 1142 :             fixup_type = FIX_HIBYTE;
; 1143 :         } else {
; 1144 :             DebugMsg1(("idata_fixup, FIX_OFF8\n" ));
; 1145 :             fixup_type = FIX_OFF8;
; 1146 :         }

	jmp	SHORT $LN81@idata_fixu
$LN76@idata_fixu:

; 1147 : #if 0
; 1148 :     } else if( CodeInfo->mem_type == MT_FAR ) {
; 1149 :         /* v2.04: to be tested. this code is most likely obsolete.
; 1150 :          * There's never a PTR16|PTR32 fixup here. Far JMP/CALL are handled
; 1151 :          * elsewhere, and data items also.
; 1152 :          */
; 1153 :         /* temporary */
; 1154 :         printf("idata_fixup: MT_FAR occured at %s:%" I32_SPEC "u\n", CurrFName[ASM], LineNumber );
; 1155 :         fixup_type = ( Ofssize ) ? FIX_PTR32 : FIX_PTR16;
; 1156 :         CodeInfo->isfar = TRUE; /* needed for mark_fixupp() */
; 1157 :         if ( opndx->Ofssize != USE_EMPTY )
; 1158 :             CodeInfo->Ofssize = opndx->Ofssize;
; 1159 : #endif
; 1160 :     } else if( IS_OPER_32( CodeInfo ) ) {

	movzx	eax, BYTE PTR [rbx+9]
	shr	eax, 1
	cmp	BYTE PTR [rbx+106], 0
	je	SHORT $LN101@idata_fixu
	not	eax
$LN101@idata_fixu:
	and	eax, 1
	test	eax, eax
	je	SHORT $LN80@idata_fixu

; 1161 : #if AMD64_SUPPORT
; 1162 :         /* v2.06: changed */
; 1163 :         //if ( Ofssize == USE64 && CodeInfo->mem_type == MT_QWORD )
; 1164 :         /* v2.10: changed */
; 1165 :         //if ( CodeInfo->opnd[CurrOpnd].type == OP_I64 )
; 1166 :         if ( CodeInfo->opnd[CurrOpnd].type == OP_I64 && ( opndx->instr == EMPTY || opndx->instr == T_OFFSET ) )

	cmp	DWORD PTR [r13+32], 1048576		; 00100000H
	jne	SHORT $LN82@idata_fixu
	cmp	ecx, -2
	je	SHORT $LN81@idata_fixu
	cmp	ecx, 241				; 000000f1H
	je	SHORT $LN81@idata_fixu
$LN82@idata_fixu:

; 1167 :             fixup_type = FIX_OFF64;
; 1168 :         else
; 1169 : #endif
; 1170 :             /* v2.04: changed, no longer depends on OfsSize */
; 1171 :             /* v2.05a: changed, so size==8 won't get a FIX_OFF16 type */
; 1172 :             //if ( size == 4 )
; 1173 :             if ( size >= 4 && opndx->instr != T_LOWWORD ) {

	cmp	edx, 4
	jl	SHORT $LN80@idata_fixu
	cmp	ecx, 238				; 000000eeH
	je	SHORT $LN80@idata_fixu

; 1174 :                 /* v2.06: added branch for PTR16 fixup.
; 1175 :                  * it's only done if type coercion is FAR (Masm-compat)
; 1176 :                  */
; 1177 :                 if ( opndx->explicit && Ofssize == USE16 && opndx->mem_type == MT_FAR )

	test	BYTE PTR [rdi+76], 2
	je	SHORT $LN87@idata_fixu
	test	r14b, r14b
	jne	SHORT $LN87@idata_fixu
	cmp	DWORD PTR [rdi+64], 130			; 00000082H
	jne	SHORT $LN87@idata_fixu

; 1178 :                     fixup_type = FIX_PTR16;

	mov	ebp, 9
	jmp	SHORT $LN81@idata_fixu
$LN87@idata_fixu:

; 1179 :                 else
; 1180 :                     fixup_type = FIX_OFF32;

	mov	ebp, 6

; 1181 :             } else

	jmp	SHORT $LN81@idata_fixu
$LN80@idata_fixu:

; 1182 :                 fixup_type = FIX_OFF16;
; 1183 :     } else {
; 1184 :         /* v2.04: changed, no longer depends on OfsSize */
; 1185 :         //if ( CodeInfo->mem_type == MT_DWORD ) {
; 1186 :             /* fixme !!!! warning
; 1187 :              * operand size is 16bit
; 1188 :              * but fixup is 32-bit */
; 1189 :         //    fixup_type = FIX_OFF32;
; 1190 :         //} else
; 1191 :             fixup_type = FIX_OFF16;

	mov	ebp, 5
$LN81@idata_fixu:

; 1192 :     }
; 1193 :     /* v2.04: 'if' added, don't set W bit if size == 1
; 1194 :      * code example:
; 1195 :      *   extern x:byte
; 1196 :      *   or al,x
; 1197 :      * v2.11: set wide bit only if immediate is second operand.
; 1198 :      * and first operand is a memory reference with size > 1
; 1199 :      */
; 1200 :     //if ( size != 1 )
; 1201 :     if ( CurrOpnd == OPND2 && size != 1 )

	cmp	r12d, 1
	jne	SHORT $LN89@idata_fixu
	cmp	edx, r12d
	je	SHORT $LN89@idata_fixu

; 1202 :         CodeInfo->iswide = 1;

	or	BYTE PTR [rbx+142], r12b
$LN89@idata_fixu:

; 1203 : 
; 1204 :     segm_override( opndx, NULL ); /* set SegOverride global var */

	mov	rcx, QWORD PTR [rdi+48]
	test	rcx, rcx
	je	SHORT $LN138@idata_fixu
	cmp	BYTE PTR [rcx], 2
	jne	SHORT $LN118@idata_fixu
	mov	eax, DWORD PTR [rcx+16]
	lea	rcx, QWORD PTR [rax+rax*2]
	movzx	ecx, BYTE PTR SpecialTable[r9+rcx*4+10]
	mov	eax, ecx
	add	rax, rax
	cmp	BYTE PTR SegAssumeTable[r9+rax*8+8], 0
	je	SHORT $LN120@idata_fixu
	mov	ecx, 183				; 000000b7H
	call	EmitError
$LN138@idata_fixu:
	mov	rdx, QWORD PTR SegOverride
$LN123@idata_fixu:

; 1205 : 
; 1206 :     /* set frame type in variables Frame_Type and Frame_Datum for fixup creation */
; 1207 :     if ( ModuleInfo.offsettype == OT_SEGMENT &&

	cmp	DWORD PTR ModuleInfo+384, 2
	jne	SHORT $LN90@idata_fixu
	mov	eax, DWORD PTR [rdi+56]
	cmp	eax, 241				; 000000f1H
	je	SHORT $LN92@idata_fixu
	cmp	eax, 244				; 000000f4H
	jne	SHORT $LN90@idata_fixu
$LN92@idata_fixu:

; 1208 :         ( opndx->instr == T_OFFSET || opndx->instr == T_SEG ))
; 1209 :         set_frame2( opndx->sym );

	mov	rcx, QWORD PTR [rdi+80]
	test	rdx, rdx
	cmovne	rcx, rdx
	mov	dl, 1
	jmp	SHORT $LN156@idata_fixu

; 1203 : 
; 1204 :     segm_override( opndx, NULL ); /* set SegOverride global var */

$LN120@idata_fixu:
	call	GetOverrideAssume
	jmp	SHORT $LN155@idata_fixu
$LN118@idata_fixu:
	mov	rcx, QWORD PTR [rcx+8]
	call	SymFind
$LN155@idata_fixu:
	mov	rcx, rax
	test	rax, rax
	je	SHORT $LN138@idata_fixu
	mov	eax, DWORD PTR [rax+32]
	mov	rdx, QWORD PTR SegOverride
	sub	eax, 3
	cmp	eax, 1
	cmovbe	rdx, rcx
	mov	QWORD PTR SegOverride, rdx
	jmp	SHORT $LN123@idata_fixu
$LN90@idata_fixu:

; 1210 :     else
; 1211 :         set_frame( opndx->sym );

	mov	rcx, QWORD PTR [rdi+80]
	test	rdx, rdx
	cmovne	rcx, rdx
	xor	edx, edx
$LN156@idata_fixu:
	call	SetFixupFrame

; 1212 : 
; 1213 :     //DebugMsg1(("idata_fixup: calling CreateFixup(%s, %u)\n", opndx->sym->name, fixup_type ));
; 1214 :     CodeInfo->opnd[CurrOpnd].InsFixup = CreateFixup( opndx->sym, fixup_type, fixup_option );

	mov	r8d, DWORD PTR fixup_option$1$[rsp]
	mov	edx, ebp
	mov	rcx, QWORD PTR [rdi+80]
	call	CreateFixup
	lea	rcx, QWORD PTR [rsi+rsi*2]
	mov	QWORD PTR [rbx+rcx*8+48], rax

; 1215 : 
; 1216 :     if ( opndx->instr == T_LROFFSET )

	cmp	DWORD PTR [rdi+56], 239			; 000000efH
	jne	SHORT $LN93@idata_fixu

; 1217 :         CodeInfo->opnd[CurrOpnd].InsFixup->loader_resolved = TRUE;

	or	BYTE PTR [rax+33], 1
$LN93@idata_fixu:

; 1218 : 
; 1219 : #if IMAGERELSUPP
; 1220 :     if ( opndx->instr == T_IMAGEREL && fixup_type == FIX_OFF32 )

	cmp	DWORD PTR [rdi+56], 233			; 000000e9H
	jne	SHORT $LN94@idata_fixu
	cmp	ebp, 6
	jne	SHORT $LN94@idata_fixu

; 1221 :         CodeInfo->opnd[CurrOpnd].InsFixup->type = FIX_OFF32_IMGREL;

	mov	rax, QWORD PTR [rbx+rcx*8+48]
	mov	DWORD PTR [rax+24], 12
$LN94@idata_fixu:

; 1222 : #endif
; 1223 : #if SECTIONRELSUPP
; 1224 :     if ( opndx->instr == T_SECTIONREL && fixup_type == FIX_OFF32 )

	cmp	DWORD PTR [rdi+56], 243			; 000000f3H
	jne	SHORT $LN95@idata_fixu
	cmp	ebp, 6
	jne	SHORT $LN95@idata_fixu

; 1225 :         CodeInfo->opnd[CurrOpnd].InsFixup->type = FIX_OFF32_SECREL;

	mov	rax, QWORD PTR [rbx+rcx*8+48]
	mov	DWORD PTR [rax+24], 13
$LN95@idata_fixu:

; 1226 : #endif
; 1227 :     DebugMsg1(("idata_fixup exit [CodeInfo.mem_type=%Xh Ofssize=%u opsiz=%u fixup.type=%u fixup.frame=%d]\n",
; 1228 :                CodeInfo->mem_type, CodeInfo->Ofssize, CodeInfo->prefix.opsiz,
; 1229 :                CodeInfo->opnd[CurrOpnd].InsFixup->type, CodeInfo->opnd[CurrOpnd].InsFixup->frame_type ));
; 1230 : 
; 1231 :     return( NOT_ERROR );

	xor	eax, eax
$LN152@idata_fixu:
	mov	rbp, QWORD PTR [rsp+88]
	mov	r15, QWORD PTR [rsp+32]
$LN150@idata_fixu:
	mov	rsi, QWORD PTR [rsp+96]
	mov	r13, QWORD PTR [rsp+104]
	mov	r14, QWORD PTR [rsp+40]

; 1232 : }

	add	rsp, 48					; 00000030H
	pop	r12
	pop	rdi
	pop	rbx
	ret	0
	npad	2
$LN137@idata_fixu:
	DD	$LN52@idata_fixu
	DD	$LN53@idata_fixu
	DD	$LN8@idata_fixu
$LN136@idata_fixu:
	DB	0
	DB	2
	DB	2
	DB	2
	DB	2
	DB	2
	DB	2
	DB	2
	DB	2
	DB	2
	DB	2
	DB	2
	DB	2
	DB	2
	DB	2
	DB	2
	DB	2
	DB	2
	DB	2
	DB	2
	DB	2
	DB	2
	DB	2
	DB	2
	DB	2
	DB	2
	DB	2
	DB	2
	DB	2
	DB	2
	DB	2
	DB	2
	DB	2
	DB	2
	DB	2
	DB	2
	DB	2
	DB	2
	DB	2
	DB	2
	DB	2
	DB	2
	DB	2
	DB	2
	DB	2
	DB	2
	DB	2
	DB	2
	DB	2
	DB	2
	DB	2
	DB	2
	DB	2
	DB	2
	DB	2
	DB	2
	DB	2
	DB	2
	DB	2
	DB	2
	DB	2
	DB	2
	DB	2
	DB	2
	DB	2
	DB	2
	DB	2
	DB	2
	DB	2
	DB	2
	DB	2
	DB	2
	DB	2
	DB	2
	DB	2
	DB	2
	DB	2
	DB	2
	DB	2
	DB	2
	DB	2
	DB	2
	DB	2
	DB	2
	DB	2
	DB	2
	DB	2
	DB	2
	DB	2
	DB	2
	DB	2
	DB	2
	DB	2
	DB	2
	DB	2
	DB	2
	DB	2
	DB	2
	DB	2
	DB	2
	DB	2
	DB	2
	DB	2
	DB	2
	DB	2
	DB	2
	DB	2
	DB	2
	DB	2
	DB	2
	DB	2
	DB	2
	DB	2
	DB	2
	DB	2
	DB	2
	DB	2
	DB	2
	DB	2
	DB	2
	DB	2
	DB	2
	DB	2
	DB	2
	DB	2
	DB	2
	DB	2
	DB	2
	DB	2
	DB	2
	DB	2
	DB	2
	DB	2
	DB	2
	DB	2
	DB	2
	DB	2
	DB	2
	DB	2
	DB	2
	DB	2
	DB	2
	DB	2
	DB	2
	DB	2
	DB	2
	DB	2
	DB	2
	DB	2
	DB	2
	DB	2
	DB	2
	DB	2
	DB	2
	DB	2
	DB	2
	DB	2
	DB	2
	DB	2
	DB	2
	DB	2
	DB	2
	DB	2
	DB	2
	DB	2
	DB	2
	DB	2
	DB	2
	DB	2
	DB	2
	DB	2
	DB	2
	DB	2
	DB	2
	DB	2
	DB	2
	DB	2
	DB	2
	DB	2
	DB	2
	DB	2
	DB	2
	DB	2
	DB	2
	DB	2
	DB	2
	DB	2
	DB	2
	DB	2
	DB	2
	DB	2
	DB	2
	DB	2
	DB	2
	DB	2
	DB	2
	DB	2
	DB	2
	DB	2
	DB	2
	DB	2
	DB	2
	DB	2
	DB	2
	DB	2
	DB	2
	DB	2
	DB	2
	DB	2
	DB	2
	DB	2
	DB	2
	DB	2
	DB	2
	DB	2
	DB	2
	DB	2
	DB	2
	DB	2
	DB	2
	DB	2
	DB	2
	DB	2
	DB	2
	DB	2
	DB	2
	DB	2
	DB	2
	DB	2
	DB	2
	DB	2
	DB	2
	DB	0
	DB	2
	DB	2
	DB	1
	DB	2
	DB	2
	DB	0
	DB	1
	DB	2
	DB	2
	DB	2
	DB	2
	DB	2
	DB	1
idata_fixup ENDP
_TEXT	ENDS
; Function compile flags: /Ogtpy
; File d:\hjwasm\hjwasm2.13.1s\hjwasm2.13.1s\parser.c
;	COMDAT idata_nofixup
_TEXT	SEGMENT
CodeInfo$ = 80
CurrOpnd$ = 88
opndx$ = 96
idata_nofixup PROC					; COMDAT

; 784  : {

	push	rbx
	push	rdi
	push	r14
	sub	rsp, 48					; 00000030H
	mov	eax, DWORD PTR [rcx+24]
	mov	rdi, r8
	sub	eax, 450				; 000001c2H
	mov	r14d, edx
	mov	rbx, rcx
	cmp	eax, 49					; 00000031H
	ja	SHORT $LN6@idata_nofi

; 785  :     enum operand_type op_type;
; 786  :     int_32      value;
; 787  :     int         size;
; 788  : 
; 789  :     DebugMsg1(("idata_nofixup( CurrOpnd=%u ) enter [opnd kind=%u mem_type=%Xh value=%" I64_SPEC "X]\n", CurrOpnd, opndx->kind, opndx->mem_type, opndx->value64));
; 790  : 
; 791  :     /* jmp/call/jxx/loop/jcxz/jecxz? */
; 792  :     if( IS_ANY_BRANCH( CodeInfo->token ) ) {
; 793  :         return( process_branch( CodeInfo, CurrOpnd, opndx ) );

	mov	edx, r14d

; 907  : }

	add	rsp, 48					; 00000030H
	pop	r14
	pop	rdi
	pop	rbx

; 785  :     enum operand_type op_type;
; 786  :     int_32      value;
; 787  :     int         size;
; 788  : 
; 789  :     DebugMsg1(("idata_nofixup( CurrOpnd=%u ) enter [opnd kind=%u mem_type=%Xh value=%" I64_SPEC "X]\n", CurrOpnd, opndx->kind, opndx->mem_type, opndx->value64));
; 790  : 
; 791  :     /* jmp/call/jxx/loop/jcxz/jecxz? */
; 792  :     if( IS_ANY_BRANCH( CodeInfo->token ) ) {
; 793  :         return( process_branch( CodeInfo, CurrOpnd, opndx ) );

	jmp	process_branch
$LN6@idata_nofi:
	mov	QWORD PTR [rsp+88], rsi

; 794  :     }
; 795  :     value = opndx->value;
; 796  :     CodeInfo->opnd[CurrOpnd].data32l = value;

	lea	rcx, QWORD PTR [r14+r14*2]
	mov	esi, DWORD PTR [r8]
	mov	QWORD PTR [rsp+32], r15
	lea	r15, QWORD PTR [rbx+rcx*8]
	mov	DWORD PTR [r15+40], esi

; 797  : 
; 798  : #if AMD64_SUPPORT
; 799  :     /* 64bit immediates are restricted to MOV <reg>,<imm64>
; 800  :      */
; 801  :     if ( opndx->hlvalue != 0 ) { /* magnitude > 64 bits? */

	cmp	QWORD PTR [r8+8], 0
	je	SHORT $LN7@idata_nofi

; 802  :         DebugMsg1(("idata_nofixup: error, hlvalue=%" I64_SPEC "X\n", opndx->hlvalue ));
; 803  :         return( EmitConstError( opndx ) );

	mov	rcx, r8
	call	EmitConstError
	jmp	$LN42@idata_nofi
$LN7@idata_nofi:
	mov	QWORD PTR [rsp+80], rbp

; 804  :     }
; 805  :     /* v2.03: handle QWORD type coercion here as well!
; 806  :      * This change also reveals an old problem in the expression evaluator:
; 807  :      * the mem_type field is set whenever a (simple) type token is found.
; 808  :      * It should be set ONLY when the type is used in conjuction with the
; 809  :      * PTR operator!
; 810  :      * current workaround: query the 'explicit' flag.
; 811  :      */
; 812  :     //if ( opndx->value64 <= minintvalues[0] || opndx->value64 > maxintvalues[0] ) {
; 813  :     /* use long format of MOV for 64-bit if value won't fit in a signed DWORD */
; 814  :     if ( CodeInfo->Ofssize == USE64 &&
; 815  :         CodeInfo->token == T_MOV &&
; 816  :         CurrOpnd == OPND2 &&
; 817  :         ( CodeInfo->opnd[OPND1].type & OP_R64 ) &&

	movzx	ebp, BYTE PTR [rbx+106]
	cmp	bpl, 2
	jne	SHORT $LN8@idata_nofi
	cmp	DWORD PTR [rbx+24], 601			; 00000259H
	jne	SHORT $LN8@idata_nofi
	cmp	r14d, 1
	jne	SHORT $LN8@idata_nofi
	test	BYTE PTR [rbx+32], 8
	je	SHORT $LN8@idata_nofi
	mov	rax, QWORD PTR [r8]
	mov	ecx, -2147483648			; 80000000H
	add	rax, rcx
	mov	ecx, -1					; ffffffffH
	cmp	rax, rcx
	ja	SHORT $LN10@idata_nofi
	test	BYTE PTR [r8+76], bpl
	je	SHORT $LN8@idata_nofi
	mov	eax, DWORD PTR [r8+64]
	sub	eax, 7
	test	eax, -65				; ffffffbfH
	jne	SHORT $LN8@idata_nofi
$LN10@idata_nofi:

; 818  :         ( opndx->value64 > LONG_MAX || opndx->value64 < LONG_MIN ||
; 819  :          (opndx->explicit && ( opndx->mem_type == MT_QWORD || opndx->mem_type == MT_SQWORD ) ) ) ) {
; 820  :         // CodeInfo->iswide = 1; /* has been set by first operand already */
; 821  :         CodeInfo->opnd[CurrOpnd].type = OP_I64;

	mov	DWORD PTR [rbx+56], 1048576		; 00100000H

; 822  :         CodeInfo->opnd[CurrOpnd].data32h = opndx->hvalue;

	mov	eax, DWORD PTR [r8+4]
	mov	DWORD PTR [rbx+68], eax

; 823  :         return( NOT_ERROR );

	xor	eax, eax
	jmp	SHORT $LN43@idata_nofi
$LN8@idata_nofi:

; 824  :     }
; 825  :     if ( opndx->value64 <= minintvalues[0] || opndx->value64 > maxintvalues[0] ) {

	mov	rax, QWORD PTR [r8]
	cmp	rax, QWORD PTR minintvalues
	jle	$LN12@idata_nofi
	cmp	rax, QWORD PTR maxintvalues
	jg	$LN12@idata_nofi

; 828  :     }
; 829  : #endif
; 830  : 
; 831  :     /* v2.06: code simplified.
; 832  :      * to be fixed: the "wide" bit should not be set here!
; 833  :      * Problem: the "wide" bit isn't set in memory_operand(),
; 834  :      * probably because of the instructions which accept both
; 835  :      * signed and unsigned arguments (ADD, CMP, ... ).
; 836  :      */
; 837  : 
; 838  :     if ( opndx->explicit ) {

	test	BYTE PTR [r8+76], 2
	mov	QWORD PTR [rsp+96], r12
	mov	r12d, 524288				; 00080000H
	mov	QWORD PTR [rsp+40], r13
	mov	r13d, 262144				; 00040000H
	je	SHORT $LN13@idata_nofi

; 839  :         /* size coercion for immediate value */
; 840  :         CodeInfo->const_size_fixed = TRUE;

	or	BYTE PTR [rbx+142], 8

; 841  :         size = SizeFromMemtype( opndx->mem_type,

	movzx	edx, BYTE PTR [r8+69]
	mov	r8, QWORD PTR [r8+96]
	mov	ecx, DWORD PTR [rdi+64]
	call	SizeFromMemtype

; 842  :                                opndx->Ofssize,
; 843  :                                opndx->type );
; 844  :         /* don't check if size and value are compatible. */
; 845  :         switch ( size ) {

	sub	eax, 1
	je	SHORT $LN15@idata_nofi
	sub	eax, 1
	je	SHORT $LN16@idata_nofi
	cmp	eax, 2
	je	SHORT $LN17@idata_nofi

; 849  :         default:
; 850  :             DebugMsg1(("idata_nofixup: invalid size %d for immediate operand\n", size ));
; 851  :             return( EmitError( INVALID_INSTRUCTION_OPERANDS ) );

	mov	ecx, 49					; 00000031H
	call	EmitError
$LN45@idata_nofi:
	mov	r13, QWORD PTR [rsp+40]
	mov	r12, QWORD PTR [rsp+96]
$LN43@idata_nofi:
	mov	rbp, QWORD PTR [rsp+80]
$LN42@idata_nofi:
	mov	rsi, QWORD PTR [rsp+88]
	mov	r15, QWORD PTR [rsp+32]

; 907  : }

	add	rsp, 48					; 00000030H
	pop	r14
	pop	rdi
	pop	rbx
	ret	0
$LN17@idata_nofi:

; 848  :         case 4: op_type = OP_I32; break;

	mov	ecx, r12d
	jmp	SHORT $LN21@idata_nofi
$LN16@idata_nofi:

; 846  :         case 1: op_type = OP_I8;  break;
; 847  :         case 2: op_type = OP_I16; break;

	mov	ecx, r13d
	jmp	SHORT $LN21@idata_nofi
$LN13@idata_nofi:

; 852  :         }
; 853  :     } else {
; 854  :         /* use true signed values for BYTE only! */
; 855  :         if ( (int_8)value == value )

	movsx	eax, sil
	cmp	eax, esi
	jne	SHORT $LN19@idata_nofi
$LN15@idata_nofi:

; 856  :             op_type = OP_I8;

	mov	ecx, 131072				; 00020000H
	jmp	SHORT $LN21@idata_nofi
$LN19@idata_nofi:

; 857  :         //else if ( value <= SHRT_MAX && value >= SHRT_MIN )
; 858  :         /* v2.04: range FFFF0000-FFFF7FFF is also acceptable for 16-bit */
; 859  :         //else if ( value <= USHRT_MAX && value >= SHRT_MIN )
; 860  :         /* v2.04b: HJWASMR needs a 1L */
; 861  :         //else if( value <= USHRT_MAX && value >= - (USHRT_MAX+1) )
; 862  :         /* v2.07: HJWASMR needs 0L before the - op */
; 863  :         //else if( value <= USHRT_MAX && value >= - USHRT_MAX )
; 864  :         else if( value <= USHRT_MAX && value >= 0L - USHRT_MAX )

	lea	eax, DWORD PTR [rsi+65535]
	mov	ecx, r12d
	cmp	eax, 131070				; 0001fffeH
	cmovbe	ecx, r13d
$LN21@idata_nofi:

; 865  :             op_type = OP_I16;
; 866  :         else {
; 867  :             op_type = OP_I32;
; 868  :         }
; 869  :     }
; 870  : 
; 871  :     switch ( CodeInfo->token ) {

	mov	edx, DWORD PTR [rbx+24]
	sub	edx, 560				; 00000230H
	je	SHORT $LN32@idata_nofi
	sub	edx, 36					; 00000024H
	je	SHORT $LN23@idata_nofi
	cmp	edx, 2
	jne	SHORT $LN33@idata_nofi

; 882  :     case T_PUSHW:
; 883  :         if ( op_type != OP_I32 ) {

	cmp	ecx, r12d
	je	SHORT $LN33@idata_nofi

; 884  :             op_type = OP_I16;
; 885  :             if( (int_8)value == (int_16)value ) {

	movsx	eax, sil
	mov	ecx, r13d
	cmp	ax, si
	jne	SHORT $LN33@idata_nofi

; 886  :                 op_type = OP_I8;

	mov	ecx, 131072				; 00020000H

; 887  :             }
; 888  :         }
; 889  :         break;

	jmp	SHORT $LN33@idata_nofi
$LN23@idata_nofi:

; 872  :     case T_PUSH:
; 873  :         if ( opndx->explicit == FALSE ) {

	test	BYTE PTR [rdi+76], 2
	jne	SHORT $LN25@idata_nofi

; 874  :             if ( CodeInfo->Ofssize > USE16 && op_type == OP_I16 )

	test	bpl, bpl
	je	SHORT $LN25@idata_nofi
	cmp	ecx, r13d
	jne	SHORT $LN26@idata_nofi

; 875  :                 op_type = OP_I32;

	mov	ecx, r12d

; 876  :         }
; 877  :         if ( op_type == OP_I16 )

	jmp	SHORT $LN37@idata_nofi
$LN25@idata_nofi:
	cmp	ecx, r13d
	jne	SHORT $LN26@idata_nofi

; 878  :             CodeInfo->prefix.opsiz = OPSIZE16( CodeInfo );

	and	BYTE PTR [rbx+9], 253			; 000000fdH
	test	bpl, bpl
	setne	al
	and	al, 1
	add	al, al
	or	BYTE PTR [rbx+9], al
	jmp	SHORT $LN33@idata_nofi
$LN26@idata_nofi:

; 879  :         else if ( op_type == OP_I32 )

	cmp	ecx, r12d
	jne	SHORT $LN33@idata_nofi
$LN37@idata_nofi:

; 880  :             CodeInfo->prefix.opsiz = OPSIZE32( CodeInfo );

	and	BYTE PTR [rbx+9], 253			; 000000fdH
	test	bpl, bpl
	sete	al
	and	al, 1
	add	al, al
	or	BYTE PTR [rbx+9], al

; 881  :         break;

	jmp	SHORT $LN33@idata_nofi
$LN32@idata_nofi:

; 890  :     case T_PUSHD:
; 891  :         if ( op_type == OP_I16 )

	cmp	ecx, r13d
	cmove	ecx, r12d
$LN33@idata_nofi:

; 892  :             op_type = OP_I32;
; 893  :         break;
; 894  :     }
; 895  : 
; 896  :     /* v2.11: set the wide-bit if a mem_type size of > BYTE is set???
; 897  :      * actually, it should only be set if immediate is second operand
; 898  :      * ( and first operand is a memory ref with a size > 1 )
; 899  :      */
; 900  :     if ( CurrOpnd == OPND2 )

	cmp	r14d, 1
	jne	SHORT $LN35@idata_nofi

; 901  :         if ( !(CodeInfo->mem_type & MT_SPECIAL) && ( CodeInfo->mem_type & MT_SIZE_MASK ) )

	mov	eax, DWORD PTR [rbx+28]
	test	al, al
	js	SHORT $LN35@idata_nofi
	test	al, 31
	je	SHORT $LN35@idata_nofi

; 902  :             CodeInfo->iswide = 1;

	or	BYTE PTR [rbx+142], r14b
$LN35@idata_nofi:

; 903  : 
; 904  :     CodeInfo->opnd[CurrOpnd].type = op_type;

	mov	DWORD PTR [r15+32], ecx

; 905  :     DebugMsg1(("idata_nofixup exit, op_type=%" I32_SPEC "X\n", op_type ));
; 906  :     return( NOT_ERROR );

	xor	eax, eax
	jmp	$LN45@idata_nofi
$LN12@idata_nofi:

; 826  :         DebugMsg1(("idata_nofixup: error, hvalue=%Xh\n", opndx->hvalue ));
; 827  :         return( EmitConstError( opndx ) );

	mov	rcx, r8
	call	EmitConstError
	jmp	$LN43@idata_nofi
idata_nofixup ENDP
_TEXT	ENDS
; Function compile flags: /Ogtpy
; File d:\hjwasm\hjwasm2.13.1s\hjwasm2.13.1s\parser.c
_TEXT	SEGMENT
opndx$ = 48
CodeInfo$ = 56
segm_override PROC

; 742  : {

$LN13:
	mov	QWORD PTR [rsp+8], rbx
	push	rdi
	sub	rsp, 32					; 00000020H

; 743  :     struct asym      *sym;
; 744  : 
; 745  :     if( opndx->override != NULL ) {

	mov	rcx, QWORD PTR [rcx+48]
	mov	rbx, rdx
	test	rcx, rcx
	je	$LN8@segm_overr

; 746  :         if( opndx->override->token == T_REG ) {

	cmp	BYTE PTR [rcx], 2
	jne	SHORT $LN3@segm_overr

; 747  :             int temp = GetRegNo( opndx->override->tokval );

	mov	eax, DWORD PTR [rcx+16]
	lea	rdx, OFFSET FLAT:__ImageBase
	lea	rcx, QWORD PTR [rax+rax*2]
	movzx	edi, BYTE PTR SpecialTable[rdx+rcx*4+10]

; 748  :             if ( SegAssumeTable[temp].error ) {

	mov	eax, edi
	add	rax, rax
	cmp	BYTE PTR SegAssumeTable[rdx+rax*8+8], 0
	je	SHORT $LN5@segm_overr

; 749  :                 DebugMsg(("segm_override: assume error, reg=%u\n", temp ));
; 750  :                 return( EmitError( USE_OF_REGISTER_ASSUMED_TO_ERROR ) );

	mov	ecx, 183				; 000000b7H

; 771  : }

	mov	rbx, QWORD PTR [rsp+48]
	add	rsp, 32					; 00000020H
	pop	rdi

; 749  :                 DebugMsg(("segm_override: assume error, reg=%u\n", temp ));
; 750  :                 return( EmitError( USE_OF_REGISTER_ASSUMED_TO_ERROR ) );

	jmp	EmitError
$LN5@segm_overr:

; 751  :             }
; 752  : #if AMD64_SUPPORT
; 753  :             /* ES,CS,SS and DS overrides are invalid in 64-bit */
; 754  :             if ( CodeInfo && CodeInfo->Ofssize == USE64 && temp < ASSUME_FS ) {

	test	rbx, rbx
	je	SHORT $LN6@segm_overr
	cmp	BYTE PTR [rbx+106], 2
	jne	SHORT $LN6@segm_overr
	cmp	edi, 4
	jge	SHORT $LN6@segm_overr

; 755  :                 return( EmitError( ILLEGAL_USE_OF_SEGMENT_REGISTER ) );

	mov	ecx, 274				; 00000112H

; 771  : }

	mov	rbx, QWORD PTR [rsp+48]
	add	rsp, 32					; 00000020H
	pop	rdi

; 755  :                 return( EmitError( ILLEGAL_USE_OF_SEGMENT_REGISTER ) );

	jmp	EmitError
$LN6@segm_overr:

; 756  :             }
; 757  : #endif
; 758  :             sym = GetOverrideAssume( temp );

	mov	ecx, edi
	call	GetOverrideAssume
	mov	rdx, rax

; 759  :             if ( CodeInfo ) {

	test	rbx, rbx
	je	SHORT $LN4@segm_overr

; 760  :                 /* hack: save the previous reg override value (needed for CMPS) */
; 761  :                 LastRegOverride = CodeInfo->prefix.RegOverride;

	mov	ecx, DWORD PTR [rbx+4]
	mov	DWORD PTR LastRegOverride, ecx

; 762  :                 CodeInfo->prefix.RegOverride = temp;

	mov	DWORD PTR [rbx+4], edi

; 763  :             }
; 764  :         } else {

	jmp	SHORT $LN4@segm_overr
$LN3@segm_overr:

; 765  :             sym = SymSearch( opndx->override->string_ptr );

	mov	rcx, QWORD PTR [rcx+8]
	call	SymFind
	mov	rdx, rax
$LN4@segm_overr:

; 766  :         }
; 767  :         if ( sym && ( sym->state == SYM_GRP || sym->state == SYM_SEG ))

	test	rdx, rdx
	je	SHORT $LN8@segm_overr
	mov	eax, DWORD PTR [rdx+32]
	mov	rcx, QWORD PTR SegOverride
	sub	eax, 3
	cmp	eax, 1
	cmovbe	rcx, rdx
	mov	QWORD PTR SegOverride, rcx
$LN8@segm_overr:

; 768  :             SegOverride = sym;
; 769  :     }
; 770  :     return( NOT_ERROR );

	xor	eax, eax

; 771  : }

	mov	rbx, QWORD PTR [rsp+48]
	add	rsp, 32					; 00000020H
	pop	rdi
	ret	0
segm_override ENDP
_TEXT	ENDS
; Function compile flags: /Ogtpy
; File d:\hjwasm\hjwasm2.13.1s\hjwasm2.13.1s\parser.c
;	COMDAT set_rm_sib
_TEXT	SEGMENT
CodeInfo$ = 80
CurrOpnd$ = 88
ss$ = 96
index$ = 104
bit3_idx$1$ = 112
base$ = 112
sym$ = 120
set_rm_sib PROC						; COMDAT

; 503  : {

	mov	QWORD PTR [rsp+8], rbx
	mov	QWORD PTR [rsp+16], rbp
	mov	QWORD PTR [rsp+24], rsi
	push	rdi
	push	r12
	push	r13
	push	r14
	push	r15
	sub	rsp, 32					; 00000020H

; 504  :     int                 temp;
; 505  :     unsigned char       mod_field;
; 506  :     unsigned char       rm_field;
; 507  :     unsigned char       base_reg;
; 508  :     unsigned char       idx_reg;
; 509  : #if AMD64_SUPPORT
; 510  :     unsigned char       bit3_base;
; 511  :     unsigned char       bit3_idx;
; 512  :     unsigned char       rex;
; 513  : #endif
; 514  : 
; 515  :     DebugMsg1(("set_rm_sib(scale=%u, index=%d, base=%d, sym=%s) enter [CI.adrsiz=%u]\n", 1 << (ss >> 6), index, base, sym ? sym->name : "NULL", CodeInfo->prefix.adrsiz ));
; 516  : 
; 517  :     /* clear mod */
; 518  :     rm_field = 0;
; 519  :     CodeInfo->basetype = base;

	movsxd	rbp, DWORD PTR base$[rsp]

; 520  : #if AMD64_SUPPORT
; 521  :     bit3_base = 0;
; 522  :     bit3_idx = 0;
; 523  :     rex = 0;

	xor	r14b, r14b
	mov	r13d, edx
	movzx	r11d, r8b
	mov	BYTE PTR [rcx+108], bpl
	mov	rbx, rcx

; 524  : #endif
; 525  :     if( CodeInfo->opnd[CurrOpnd].InsFixup != NULL ) { /* symbolic displacement given? */

	mov	edi, edx
	mov	edx, 64					; 00000040H
	movsxd	r15, r9d
	lea	rax, QWORD PTR [r13+2]
	lea	rax, QWORD PTR [rax+rax*2]
	cmp	QWORD PTR [rcx+rax*8], 0
	lea	r12, QWORD PTR [rcx+rax*8]
	je	SHORT $LN6@set_rm_sib

; 526  :         mod_field = MOD_10;

	mov	sil, 128				; 00000080H
	jmp	SHORT $LN12@set_rm_sib
$LN6@set_rm_sib:

; 527  :     } else if((CodeInfo->opnd[CurrOpnd].data32l == 0) ||( base == T_RIP)) { /* no displacement (or 0) */

	lea	rax, QWORD PTR [r13*2]
	add	rax, r13
	mov	eax, DWORD PTR [rcx+rax*8+40]
	test	eax, eax
	je	SHORT $LN10@set_rm_sib
	cmp	ebp, 131				; 00000083H
	je	SHORT $LN10@set_rm_sib

; 529  :     } else if( ( CodeInfo->opnd[CurrOpnd].data32l > SCHAR_MAX )
; 530  :        || ( CodeInfo->opnd[CurrOpnd].data32l < SCHAR_MIN ) ) {
; 531  :         mod_field = MOD_10; /* full size displacement */
; 532  :     } else {

	sub	eax, -128				; ffffffffffffff80H
	mov	esi, 128				; 00000080H
	cmp	eax, 255				; 000000ffH
	cmovbe	esi, edx
	jmp	SHORT $LN12@set_rm_sib
$LN10@set_rm_sib:

; 528  :         mod_field = MOD_00;

	xor	sil, sil
$LN12@set_rm_sib:

; 533  :         mod_field = MOD_01; /* byte size displacement */
; 534  :     }
; 535  : 
; 536  :     if( ( index == EMPTY ) && ( base == EMPTY ) ) {

	cmp	r15d, -2
	jne	$LN60@set_rm_sib
	cmp	ebp, r15d
	jne	$LN62@set_rm_sib

; 537  :         /* direct memory.
; 538  :          * clear the rightmost 3 bits
; 539  :          */
; 540  :         CodeInfo->isdirect = TRUE;
; 541  :         mod_field = MOD_00;
; 542  : 
; 543  :         /* default is DS:[], DS: segment override is not needed */
; 544  :         seg_override( CodeInfo, T_DS, sym, TRUE );

	mov	r8, QWORD PTR sym$[rsp]
	lea	edx, QWORD PTR [r15+30]
	or	BYTE PTR [rcx+142], 2
	mov	r9b, 1
	xor	sil, sil
	call	seg_override

; 545  : 
; 546  :         DebugMsg1(( "set_rm_sib: direct addressing, CI.Ofssize=%u / adrsize=%u / data=%" I32_SPEC "X\n",
; 547  :                    CodeInfo->Ofssize, CodeInfo->prefix.adrsiz, CodeInfo->opnd[CurrOpnd].data32l ));
; 548  :         //if( !IS_ADDR32( CodeInfo ) ) {
; 549  :         if( ( CodeInfo->Ofssize == USE16 && CodeInfo->prefix.adrsiz == 0 ) ||

	movzx	eax, BYTE PTR [rbx+106]
	test	al, al
	jne	SHORT $LN19@set_rm_sib
	test	BYTE PTR [rbx+9], 1
	je	SHORT $LN18@set_rm_sib
$LN19@set_rm_sib:
	cmp	al, 1
	jne	SHORT $LN16@set_rm_sib
	test	BYTE PTR [rbx+9], al
	je	SHORT $LN16@set_rm_sib
$LN18@set_rm_sib:

; 550  :             ( CodeInfo->Ofssize == USE32 && CodeInfo->prefix.adrsiz == 1 )) {
; 551  :             if( !InWordRange( CodeInfo->opnd[CurrOpnd].data32l ) ) {

	lea	rax, QWORD PTR [r13*2]
	add	rax, r13
	mov	ecx, DWORD PTR [rbx+rax*8+40]
	add	ecx, 65535				; 0000ffffH
	cmp	ecx, 131070				; 0001fffeH
	jbe	SHORT $LN20@set_rm_sib

; 552  :                 /* expect 16-bit but got 32-bit address */
; 553  :                 DebugMsg1(( "set_rm_sib: error, Ofssize=%u, adrsize=%u, data=%" I32_SPEC "X\n",
; 554  :                         CodeInfo->Ofssize, CodeInfo->prefix.adrsiz, CodeInfo->opnd[CurrOpnd].data32l ));
; 555  :                 return( EmitError( MAGNITUDE_OF_OFFSET_EXCEEDS_16BIT ) );

	mov	ecx, 58					; 0000003aH
	call	EmitError
	jmp	$LN1@set_rm_sib
$LN20@set_rm_sib:

; 556  :             }
; 557  :             rm_field = RM_D16; /* D16=110b */

	mov	dil, 6

; 558  :         } else {

	jmp	$LN4@set_rm_sib
$LN16@set_rm_sib:

; 559  :             rm_field = RM_D32; /* D32=101b */

	mov	dil, 5

; 560  : #if AMD64_SUPPORT
; 561  :             /* v2.03: the non-RIP encoding for 64bit uses a redundant SIB mode (base=none, index=none) */
; 562  :             /* v2.11: always use 64-bit non-RIP addressing if no fixup has been created. */
; 563  :             //if ( CodeInfo->Ofssize == USE64 && CodeInfo->prefix.RegOverride != EMPTY && SegOverride != &ModuleInfo.flat_grp->sym ) {
; 564  :             if ( CodeInfo->Ofssize == USE64 && CodeInfo->opnd[CurrOpnd].InsFixup == NULL ) {

	cmp	al, 2
	jne	$LN4@set_rm_sib
	cmp	QWORD PTR [r12], 0
	jne	$LN4@set_rm_sib

; 565  :                 DebugMsg1(( "set_rm_sib: 64-bit, no fixup, data64=%" I64_SPEC "X\n", CodeInfo->opnd[CurrOpnd].data64 ));
; 566  :                 rm_field = RM_SIB;

	mov	dil, 4

; 567  :                 CodeInfo->sib = 0x25; /* IIIBBB, base=101b, index=100b */

	mov	BYTE PTR [rbx+105], 37			; 00000025H

; 568  :             }
; 569  : #endif
; 570  :         }

	jmp	$LN4@set_rm_sib
$LN62@set_rm_sib:

; 571  :         DebugMsg1(("set_rm_sib, direct, CodeInfo->prefix.adrsiz=%u\n", CodeInfo->prefix.adrsiz ));
; 572  :     } else if( ( index == EMPTY ) && ( base != EMPTY ) ) {
; 573  :         /* for SI, DI and BX: default is DS:[],
; 574  :          * DS: segment override is not needed
; 575  :          * for BP: default is SS:[], SS: segment override is not needed
; 576  :          */
; 577  :         switch( base ) {

	mov	ecx, ebp
	sub	ecx, 12
	je	$LN29@set_rm_sib
	sub	ecx, 2
	je	SHORT $LN26@set_rm_sib
	sub	ecx, 1
	je	$LN24@set_rm_sib
	cmp	ecx, 1
	je	SHORT $LN25@set_rm_sib

; 592  :             break;
; 593  :         default: /* for 386 and up */
; 594  :             base_reg = GetRegNo( base );

	lea	rcx, QWORD PTR [rbp*2]
	add	rcx, rbp
	lea	r8, OFFSET FLAT:__ImageBase
	movzx	eax, BYTE PTR SpecialTable[r8+rcx*4+10]

; 595  : #if AMD64_SUPPORT
; 596  :             if (base_reg == 16)

	mov	ecx, 5
	cmp	al, 16
	mov	edi, eax
	cmove	edi, ecx

; 597  :                base_reg=5;  //RIP bytval=16 but we need 5 added by habran
; 598  :             bit3_base = base_reg >> 3;

	movzx	r14d, dil

; 599  :             base_reg &= BIT_012;

	and	dil, 7
	shr	r14b, 3

; 600  : #endif
; 601  :             rm_field = base_reg;
; 602  :             DebugMsg1(("set_rm_sib: base_reg is %u\n", base_reg ));
; 603  :             if ( base_reg == 4 ) {

	cmp	dil, 4
	jne	SHORT $LN32@set_rm_sib

; 604  :                 /* 4 is RSP/ESP or R12/R12D, which must use SIB encoding.
; 605  :                  * SSIIIBBB, ss = 00, index = 100b ( no index ), base = 100b ( ESP ) */
; 606  :                 CodeInfo->sib = 0x24;

	mov	BYTE PTR [rbx+105], 36			; 00000024H
	jmp	$LN2@set_rm_sib
$LN32@set_rm_sib:

; 607  :             } else if ( base_reg == 5 && mod_field == MOD_00 ) {

	cmp	dil, cl
	jne	$LN2@set_rm_sib
	test	sil, sil
	jne	$LN2@set_rm_sib

; 608  :                 /* 5 is [E|R]BP or R13[D]. Needs displacement */
; 609  :                // 5 is also RIP register but doesn't need MOD_01
; 610  :                 if (base != T_RIP)  //added by habran

	cmp	ebp, 131				; 00000083H
	movzx	esi, sil
	cmovne	esi, edx

; 611  :                  mod_field = MOD_01; /* byte size displacement */
; 612  :             }
; 613  : #if AMD64_SUPPORT
; 614  :             /* v2.02 */
; 615  :             //rex = ( bit3_base << 2 ); /* set REX_R */
; 616  :             rex = bit3_base; /* set REX_R */

	jmp	$LN2@set_rm_sib
$LN25@set_rm_sib:

; 578  :         case T_SI:
; 579  :             rm_field = RM_SI; /* 4 */
; 580  :             break;
; 581  :         case T_DI:
; 582  :             rm_field = RM_DI; /* 5 */

	mov	dil, 5

; 583  :             break;

	jmp	$LN2@set_rm_sib
$LN26@set_rm_sib:

; 584  :         case T_BP:
; 585  :             rm_field = RM_BP; /* 6 */

	mov	dil, 6

; 586  :             if( mod_field == MOD_00 ) {

	test	sil, sil
	jne	$LN2@set_rm_sib

; 587  :                if (base != T_RIP) mod_field = MOD_01;

	movzx	esi, dl

; 588  :             }
; 589  :             break;

	jmp	$LN2@set_rm_sib
$LN29@set_rm_sib:

; 590  :         case T_BX:
; 591  :             rm_field = RM_BX; /* 7 */

	mov	dil, 7

; 617  : #endif
; 618  :         }
; 619  : #if AMD64_SUPPORT
; 620  :         DebugMsg1(("set_rm_sib, indirect with base, mod_field=%X, rm_field=%X, rex=%X\n", mod_field, rm_field, rex ));
; 621  : #else
; 622  :         DebugMsg1(("set_rm_sib, indirect with base, rm_field=%X\n", rm_field ));
; 623  : #endif
; 624  :         seg_override( CodeInfo, base, sym, FALSE );

	jmp	$LN2@set_rm_sib
$LN60@set_rm_sib:

; 625  :     } else if( ( index != EMPTY ) && ( base == EMPTY ) ) {
; 626  :         idx_reg = GetRegNo( index );

	lea	r8, OFFSET FLAT:__ImageBase
	cmp	ebp, -2
	jne	SHORT $LN36@set_rm_sib
	lea	rcx, QWORD PTR [r15+r15*2]

; 627  : #if AMD64_SUPPORT
; 628  :         bit3_idx = idx_reg >> 3;
; 629  :         idx_reg &= BIT_012;
; 630  : #endif
; 631  :         /* mod field is 00 */
; 632  :         mod_field = MOD_00;

	xor	sil, sil
	movzx	r14d, BYTE PTR SpecialTable[r8+rcx*4+10]

; 633  :         /* s-i-b is present ( r/m = 100b ) */
; 634  :         rm_field = RM_SIB;
; 635  :         /* scale factor, index, base ( 0x05 => no base reg ) */
; 636  :         CodeInfo->sib = ( ss | ( idx_reg << 3 ) | 0x05 );
; 637  : #if AMD64_SUPPORT
; 638  :         rex = (bit3_idx << 1); /* set REX_X */
; 639  : #endif
; 640  :         /* default is DS:[], DS: segment override is not needed */
; 641  :         seg_override( CodeInfo, T_DS, sym, FALSE );

	lea	edx, QWORD PTR [rbp+30]
	movzx	eax, r14b
	mov	dil, 4
	and	al, 7
	shr	r14b, 2
	shl	al, 3
	or	al, r11b
	or	al, 5
	mov	BYTE PTR [rbx+105], al
	and	r14b, 62				; 0000003eH

; 642  :     } else {

	jmp	$LN70@set_rm_sib
$LN36@set_rm_sib:

; 643  :         /* base != EMPTY && index != EMPTY */
; 644  :         base_reg = GetRegNo( base );

	lea	rcx, QWORD PTR [rbp*2]
	add	rcx, rbp

; 645  :         idx_reg  = GetRegNo( index );
; 646  :         if ( base == T_RIP)

	cmp	ebp, 131				; 00000083H
	lea	rdx, QWORD PTR [rcx*4]
	movzx	r10d, BYTE PTR SpecialTable[rdx+r8+10]
	lea	rcx, QWORD PTR [r15+r15*2]
	lea	rdi, QWORD PTR [rcx*4]
	mov	ecx, 5
	movzx	r9d, BYTE PTR SpecialTable[rdi+r8+10]
	cmove	r10d, ecx

; 647  :           base_reg = 0x5;
; 648  : #if AMD64_SUPPORT
; 649  :         bit3_base = base_reg >> 3;
; 650  :         bit3_idx  = idx_reg  >> 3;
; 651  :         base_reg &= BIT_012;
; 652  :         idx_reg  &= BIT_012;
; 653  : #endif
; 654  :         if ( ( GetSflagsSp( base ) & GetSflagsSp( index ) & SFR_SIZMSK ) == 0 ) {

	mov	eax, DWORD PTR SpecialTable[rdi+r8+4]
	movzx	r12d, r10b
	and	eax, DWORD PTR SpecialTable[rdx+r8+4]
	movzx	ecx, r9b
	shr	cl, 3
	and	r10b, 7
	shr	r12b, 3
	and	r9b, 7
	mov	BYTE PTR bit3_idx$1$[rsp], cl
	test	al, 31
	jne	SHORT $found$73

; 655  : #if AVXSUPP
; 656  :            CodeInfo->indextype = GetValueSp( index );

	mov	eax, DWORD PTR SpecialTable[rdi+r8]
	mov	DWORD PTR [rbx+132], eax

; 657  :            if (CodeInfo->indextype == OP_XMM || CodeInfo->indextype == OP_YMM || CodeInfo->indextype == OP_ZMM){

	cmp	eax, 32					; 00000020H
	je	SHORT $found$73
	cmp	eax, 128				; 00000080H
	je	SHORT $found$73
	cmp	eax, 256				; 00000100H
	je	SHORT $found$73

; 658  :              ;
; 659  :            }
; 660  :           else
; 661  : #endif
; 662  :           return( EmitError( CANNOT_MIX_16_AND_32_BIT_REGISTERS ) );

	mov	ecx, 38					; 00000026H
	call	EmitError
	jmp	$LN1@set_rm_sib
$found$73:

; 663  :         }
; 664  :   found:
; 665  :         switch( index ) {

	lea	eax, DWORD PTR [r15-12]
	cmp	eax, 119				; 00000077H
	ja	SHORT $LN48@set_rm_sib
	cdqe
	movzx	eax, BYTE PTR $LN67@set_rm_sib[r8+rax]
	mov	ecx, DWORD PTR $LN68@set_rm_sib[r8+rax*4]
	add	rcx, r8
	jmp	rcx
$LN43@set_rm_sib:

; 666  :         case T_BX:
; 667  :         case T_BP:
; 668  :             if( ( temp = comp_mem16( index, base ) ) == ERROR )

	mov	edx, ebp
	mov	ecx, r15d
	call	comp_mem16
	cmp	eax, -1
	jne	SHORT $LN44@set_rm_sib
$LN71@set_rm_sib:

; 669  :                 return( ERROR );

	or	eax, -1
	jmp	$LN1@set_rm_sib
$LN44@set_rm_sib:

; 670  :             rm_field = temp;

	movzx	edi, al

; 671  :             seg_override( CodeInfo, index, sym, FALSE );

	mov	edx, r15d

; 672  :             break;

	jmp	SHORT $LN70@set_rm_sib
$LN45@set_rm_sib:

; 673  :         case T_SI:
; 674  :         case T_DI:
; 675  :             if( ( temp = comp_mem16( base, index ) ) == ERROR )

	mov	edx, r15d
	mov	ecx, ebp
	call	comp_mem16
	cmp	eax, -1
	je	SHORT $LN71@set_rm_sib

; 676  :                 return( ERROR );
; 677  :             rm_field = temp;

	movzx	edi, al

; 678  :             seg_override( CodeInfo, base, sym, FALSE );
; 679  :             break;

	jmp	SHORT $LN2@set_rm_sib
$LN47@set_rm_sib:

; 680  : #if AMD64_SUPPORT
; 681  :         case T_RSP:
; 682  :         case T_RIP:      //added by habran
; 683  : #endif
; 684  :         case T_ESP:
; 685  :             //EmitErr( CANNOT_BE_USED_AS_INDEX_REGISTER, ??? );
; 686  :             return( EmitError( INVALID_USE_OF_REGISTER ) );

	mov	ecx, 170				; 000000aaH
	call	EmitError
	jmp	$LN1@set_rm_sib
$LN69@set_rm_sib:
	movzx	ecx, BYTE PTR bit3_idx$1$[rsp]
$LN48@set_rm_sib:

; 687  :         default:
; 688  :             if( base_reg == 5 ) { /* v2.03: EBP/RBP/R13/R13D? */

	cmp	r10b, 5
	jne	SHORT $LN51@set_rm_sib

; 689  :                 if( mod_field == MOD_00 ) {

	test	sil, sil
	jne	SHORT $LN51@set_rm_sib

; 690  :                     if (base != T_RIP) mod_field = MOD_01;     //ADDED BY HABRAN

	cmp	ebp, 131				; 00000083H
	movzx	esi, sil
	mov	edx, 64					; 00000040H
	cmovne	esi, edx
$LN51@set_rm_sib:

; 696  :             CodeInfo->sib = ( ss | idx_reg << 3 | base_reg );

	shl	r9b, 3

; 697  : #if AMD64_SUPPORT
; 698  :             rex = (bit3_idx << 1) + (bit3_base); /* set REX_X + REX_B */

	movzx	r14d, cl
	or	r9b, r10b
	add	r14b, r14b
	or	r9b, r11b
	mov	BYTE PTR [rbx+105], r9b
	add	r14b, r12b
$LN24@set_rm_sib:

; 691  :                 }
; 692  :             }
; 693  : 
; 694  :             /* s-i-b is present ( r/m = 100b ) */
; 695  :             rm_field |= RM_SIB;

	mov	dil, 4
$LN2@set_rm_sib:

; 699  : #endif
; 700  :             seg_override( CodeInfo, base, sym, FALSE );

	mov	edx, ebp
$LN70@set_rm_sib:
	mov	r8, QWORD PTR sym$[rsp]
	xor	r9d, r9d
	mov	rcx, rbx
	call	seg_override
$LN4@set_rm_sib:

; 701  :         } /* end switch(index) */
; 702  : #if AMD64_SUPPORT
; 703  :         DebugMsg1(("set_rm_sib, indirect, base+index: mod_field=%X, rm_field=%X, rex=%X\n", mod_field, rm_field, rex ));
; 704  : #else
; 705  :         DebugMsg1(("set_rm_sib, indirect, base+index: rm_field=%X\n", rm_field ));
; 706  : #endif
; 707  :     }
; 708  :     if( CurrOpnd == OPND2 ) {

	cmp	r13d, 1
	jne	SHORT $LN52@set_rm_sib

; 709  :         /* shift the register field to left by 3 bit */
; 710  :        if ( base == T_RIP )      //added by habran

	cmp	ebp, 131				; 00000083H
	jne	SHORT $LN54@set_rm_sib

; 711  :           mod_field &= BIT_012;

	and	sil, 7
$LN54@set_rm_sib:

; 712  :           CodeInfo->rm_byte = mod_field | ( rm_field << 3 ) | ( CodeInfo->rm_byte & BIT_012 );

	and	BYTE PTR [rbx+104], 7

; 713  : 
; 714  : #if AMD64_SUPPORT
; 715  :         /* v2.02: exchange B and R, keep X */
; 716  :         //CodeInfo->prefix.rex |= (rex >> 2 );
; 717  :         CodeInfo->prefix.rex |= ( ( rex >> 2 ) | ( rex & REX_X ) | (( rex & 1) << 2 ) );

	movzx	ecx, r14b
	and	cl, 1
	shl	dil, 3
	shl	cl, 2
	movzx	eax, r14b
	shr	al, 2
	or	dil, sil
	or	BYTE PTR [rbx+104], dil
	or	cl, al
	and	r14b, 2
	or	cl, r14b
	or	BYTE PTR [rbx+8], cl
	jmp	SHORT $LN55@set_rm_sib
$LN52@set_rm_sib:

; 718  : #endif
; 719  :     } else if( CurrOpnd == OPND1 ) {

	test	r13d, r13d
	jne	SHORT $LN55@set_rm_sib

; 720  :        if ( base == T_RIP )     //added by habran

	cmp	ebp, 131				; 00000083H
	jne	SHORT $LN56@set_rm_sib

; 721  :           mod_field &= BIT_012;

	and	sil, 7
$LN56@set_rm_sib:

; 722  :         CodeInfo->rm_byte = mod_field | rm_field;

	or	sil, dil

; 723  : #if AMD64_SUPPORT
; 724  :         CodeInfo->prefix.rex |= rex;

	or	BYTE PTR [rbx+8], r14b
	mov	BYTE PTR [rbx+104], sil
$LN55@set_rm_sib:

; 725  : #endif
; 726  :     }
; 727  :     return( NOT_ERROR );

	xor	eax, eax
$LN1@set_rm_sib:

; 728  : }

	mov	rbx, QWORD PTR [rsp+80]
	mov	rbp, QWORD PTR [rsp+88]
	mov	rsi, QWORD PTR [rsp+96]
	add	rsp, 32					; 00000020H
	pop	r15
	pop	r14
	pop	r13
	pop	r12
	pop	rdi
	ret	0
	npad	1
$LN68@set_rm_sib:
	DD	$LN43@set_rm_sib
	DD	$LN45@set_rm_sib
	DD	$LN47@set_rm_sib
	DD	$LN69@set_rm_sib
$LN67@set_rm_sib:
	DB	0
	DB	3
	DB	0
	DB	1
	DB	1
	DB	3
	DB	3
	DB	3
	DB	3
	DB	2
	DB	3
	DB	3
	DB	3
	DB	3
	DB	3
	DB	3
	DB	3
	DB	3
	DB	3
	DB	3
	DB	3
	DB	3
	DB	3
	DB	3
	DB	3
	DB	3
	DB	3
	DB	3
	DB	3
	DB	3
	DB	3
	DB	3
	DB	3
	DB	3
	DB	3
	DB	3
	DB	3
	DB	3
	DB	3
	DB	3
	DB	3
	DB	3
	DB	3
	DB	3
	DB	3
	DB	3
	DB	3
	DB	3
	DB	3
	DB	3
	DB	3
	DB	3
	DB	3
	DB	3
	DB	3
	DB	3
	DB	3
	DB	3
	DB	3
	DB	3
	DB	3
	DB	3
	DB	3
	DB	3
	DB	3
	DB	3
	DB	3
	DB	3
	DB	3
	DB	3
	DB	3
	DB	3
	DB	3
	DB	3
	DB	3
	DB	3
	DB	3
	DB	3
	DB	3
	DB	3
	DB	3
	DB	3
	DB	3
	DB	3
	DB	3
	DB	3
	DB	3
	DB	3
	DB	3
	DB	3
	DB	3
	DB	3
	DB	3
	DB	3
	DB	3
	DB	3
	DB	3
	DB	3
	DB	3
	DB	3
	DB	3
	DB	3
	DB	3
	DB	3
	DB	3
	DB	3
	DB	3
	DB	2
	DB	3
	DB	3
	DB	3
	DB	3
	DB	3
	DB	3
	DB	3
	DB	3
	DB	3
	DB	3
	DB	3
	DB	2
set_rm_sib ENDP
_TEXT	ENDS
; Function compile flags: /Ogtpy
; File d:\hjwasm\hjwasm2.13.1s\hjwasm2.13.1s\parser.c
;	COMDAT seg_override
_TEXT	SEGMENT
CodeInfo$ = 48
seg_reg$ = 56
sym$ = 64
direct$ = 72
seg_override PROC					; COMDAT

; 403  : {

	mov	QWORD PTR [rsp+16], rbx
	mov	QWORD PTR [rsp+24], rbp
	push	rdi
	sub	rsp, 32					; 00000020H
	mov	rax, QWORD PTR [rcx+16]
	movzx	ebp, r9b
	mov	rdi, r8
	mov	rbx, rcx
	movzx	r10d, WORD PTR [rax+2]
	sub	r10w, 2
	cmp	r10w, 1
	jbe	$LN5@seg_overri

; 404  :     enum assume_segreg  default_seg;
; 405  :     struct asym         *assume;
; 406  : 
; 407  :     /* don't touch segment overrides for string instructions */
; 408  :     //if ( InstrTable[optable_idx[CodeInfo->token]].allowed_prefix == AP_REP ||
; 409  :     //     InstrTable[optable_idx[CodeInfo->token]].allowed_prefix == AP_REPxx )
; 410  :     if ( CodeInfo->pinstr->allowed_prefix == AP_REP ||
; 411  :          CodeInfo->pinstr->allowed_prefix == AP_REPxx )
; 412  :         return;
; 413  : 
; 414  :     if( CodeInfo->token == T_LEA ) {

	cmp	DWORD PTR [rcx+24], 629			; 00000275H
	jne	SHORT $LN6@seg_overri

; 415  :         CodeInfo->prefix.RegOverride = EMPTY; /* skip segment override */

	mov	DWORD PTR [rcx+4], -2

; 416  :         SetFixupFrame( sym, FALSE );

	xor	edx, edx
	mov	rcx, r8

; 464  :     }
; 465  : }

	mov	rbx, QWORD PTR [rsp+56]
	mov	rbp, QWORD PTR [rsp+64]
	add	rsp, 32					; 00000020H
	pop	rdi

; 416  :         SetFixupFrame( sym, FALSE );

	jmp	SetFixupFrame
$LN6@seg_overri:
	mov	QWORD PTR [rsp+48], rsi
	cmp	edx, 14
	je	SHORT $LN7@seg_overri
	lea	eax, DWORD PTR [rdx-21]

; 427  :         break;
; 428  :     default:
; 429  :         default_seg = ASSUME_DS;

	mov	esi, 3
	cmp	eax, 1
	ja	SHORT $LN2@seg_overri
$LN7@seg_overri:

; 417  :         return;
; 418  :     }
; 419  : 
; 420  :     switch( seg_reg ) {
; 421  :     //case T_SS: /* doesn't happen */
; 422  :     case T_BP:
; 423  :     case T_EBP:
; 424  :     case T_ESP:
; 425  :         /* todo: check why cases T_RBP/T_RSP aren't needed! */
; 426  :         default_seg = ASSUME_SS;

	mov	esi, 2
$LN2@seg_overri:

; 430  :     }
; 431  : 
; 432  :     if( CodeInfo->prefix.RegOverride != EMPTY ) {

	mov	ecx, DWORD PTR [rcx+4]
	cmp	ecx, -2
	je	SHORT $LN9@seg_overri

; 433  :         assume = GetOverrideAssume( CodeInfo->prefix.RegOverride );

	call	GetOverrideAssume

; 434  :         /* assume now holds assumed SEG/GRP symbol */
; 435  :         if ( sym ) {

	test	rdi, rdi
	je	SHORT $LN11@seg_overri

; 436  :             DebugMsg1(("seg_override: sym=%s\n", sym->name ));
; 437  :             SetFixupFrame( assume ? assume : sym, FALSE );

	test	rax, rax
	cmovne	rdi, rax
	xor	edx, edx
	mov	rcx, rdi
	call	SetFixupFrame
	jmp	$LN20@seg_overri
$LN11@seg_overri:

; 438  :         } else if ( direct ) {

	test	bpl, bpl
	je	$LN20@seg_overri

; 439  :             /* no label attached (DS:[0]). No fixup is to be created! */
; 440  :             if ( assume ) {

	test	rax, rax
	je	SHORT $LN14@seg_overri

; 441  :                 DebugMsg1(("seg_override, direct addressing: prefix.adrsiz will be set, assume=%s CI->ofssize=%u\n", assume->name, CodeInfo->Ofssize ));
; 442  :                 CodeInfo->prefix.adrsiz = ADDRSIZE( CodeInfo->Ofssize, GetSymOfssize( assume ) );

	mov	rcx, rax

; 443  :                 //DebugMsg1(("seg_override: CI->prefix.adrsiz=%u\n", CodeInfo->prefix.adrsiz ));
; 444  :             } else {

	jmp	SHORT $LN26@seg_overri
$LN14@seg_overri:

; 445  :                 /* v2.01: if -Zm, then use current CS offset size.
; 446  :                  * This isn't how Masm v6 does it, but it matches Masm v5.
; 447  :                  */
; 448  :                 if ( ModuleInfo.m510 )

	test	BYTE PTR ModuleInfo+408, 64		; 00000040H

; 449  :                     CodeInfo->prefix.adrsiz = ADDRSIZE( CodeInfo->Ofssize, ModuleInfo.Ofssize );

	movzx	eax, BYTE PTR [rbx+106]
	je	SHORT $LN16@seg_overri
	xor	al, BYTE PTR ModuleInfo+404
	setne	cl
	xor	cl, BYTE PTR [rbx+9]
	and	cl, 1
	xor	BYTE PTR [rbx+9], cl
	jmp	SHORT $LN20@seg_overri
$LN16@seg_overri:

; 450  :                 else
; 451  :                     CodeInfo->prefix.adrsiz = ADDRSIZE( CodeInfo->Ofssize, ModuleInfo.defOfssize );

	xor	al, BYTE PTR ModuleInfo+405
	setne	cl
	xor	cl, BYTE PTR [rbx+9]
	and	cl, 1
	xor	BYTE PTR [rbx+9], cl

; 452  :             }
; 453  :         }
; 454  :     } else {

	jmp	SHORT $LN20@seg_overri
$LN9@seg_overri:

; 455  :         if ( sym || SegOverride )

	test	r8, r8
	jne	SHORT $LN19@seg_overri
	cmp	QWORD PTR SegOverride, r8
	je	SHORT $LN20@seg_overri
$LN19@seg_overri:

; 456  :             check_assume( CodeInfo, sym, default_seg );

	mov	r8d, esi
	mov	rdx, rdi
	mov	rcx, rbx
	call	check_assume

; 457  :         if ( sym == NULL && SegOverride ) {

	test	rdi, rdi
	jne	SHORT $LN20@seg_overri
	mov	rcx, QWORD PTR SegOverride
	test	rcx, rcx
	je	SHORT $LN20@seg_overri
$LN26@seg_overri:

; 458  :             CodeInfo->prefix.adrsiz = ADDRSIZE( CodeInfo->Ofssize, GetSymOfssize( SegOverride ) );

	call	GetSymOfssize
	and	BYTE PTR [rbx+9], 254			; 000000feH
	movzx	ecx, BYTE PTR [rbx+106]
	xor	ecx, eax
	setne	al
	and	al, 1
	or	BYTE PTR [rbx+9], al
$LN20@seg_overri:

; 459  :         }
; 460  :     }
; 461  : 
; 462  :     if( CodeInfo->prefix.RegOverride == default_seg ) {

	cmp	DWORD PTR [rbx+4], esi
	mov	rsi, QWORD PTR [rsp+48]
	jne	SHORT $LN5@seg_overri

; 463  :         CodeInfo->prefix.RegOverride = EMPTY;

	mov	DWORD PTR [rbx+4], -2
$LN5@seg_overri:

; 464  :     }
; 465  : }

	mov	rbx, QWORD PTR [rsp+56]
	mov	rbp, QWORD PTR [rsp+64]
	add	rsp, 32					; 00000020H
	pop	rdi
	ret	0
seg_override ENDP
_TEXT	ENDS
; Function compile flags: /Ogtpy
; File d:\hjwasm\hjwasm2.13.1s\hjwasm2.13.1s\parser.c
;	COMDAT check_assume
_TEXT	SEGMENT
CodeInfo$ = 48
assume$ = 56
sym$ = 56
default_reg$ = 64
check_assume PROC					; COMDAT

; 364  : {

	mov	QWORD PTR [rsp+24], rbx
	mov	QWORD PTR [rsp+32], rsi
	push	rdi
	sub	rsp, 32					; 00000020H
	mov	edi, r8d
	mov	rbx, rdx
	mov	rsi, rcx

; 365  :     enum assume_segreg     reg;
; 366  :     struct asym            *assume;
; 367  : 
; 368  :     if( sym && sym->state == SYM_UNDEFINED )

	test	rdx, rdx
	je	SHORT $LN2@check_assu
	cmp	DWORD PTR [rdx+32], 0
	je	SHORT $LN9@check_assu
$LN2@check_assu:

; 369  :         return;
; 370  : 
; 371  :     reg = GetAssume( SegOverride, sym, default_reg, &assume );

	mov	rcx, QWORD PTR SegOverride
	lea	r9, QWORD PTR assume$[rsp]
	mov	QWORD PTR [rsp+48], rbp
	call	GetAssume

; 372  :     /* set global vars Frame and Frame_Datum */
; 373  :     DebugMsg1(("check_assume(%s): calling SetFixupFrame(%s, FALSE)\n", sym ? sym->name : "NULL", assume ? assume->name : "NULL" ));
; 374  :     SetFixupFrame( assume, FALSE );

	mov	rcx, QWORD PTR assume$[rsp]
	xor	edx, edx
	mov	ebp, eax
	call	SetFixupFrame

; 375  : 
; 376  :     if( reg == ASSUME_NOTHING ) {

	cmp	ebp, -2
	jne	SHORT $LN3@check_assu

; 377  :         if ( sym ) {

	test	rbx, rbx
	je	SHORT $LN5@check_assu

; 378  :             //if( sym->state != SYM_EXTERNAL && sym->state != SYM_STACK ) {
; 379  :             /* v1.95: condition changed. Now there's an error msg only if
; 380  :              * the symbol has an explicite segment.
; 381  :              */
; 382  :             if( sym->segment != NULL ) {

	cmp	QWORD PTR [rbx+24], 0
	je	SHORT $LN7@check_assu

; 383  :                 DebugMsg1(("check_assume: no segment register available to access label %s\n", sym->name ));
; 384  :                 EmitErr( CANNOT_ACCESS_LABEL_THROUGH_SEGMENT_REGISTERS, sym->name );

	mov	rdx, QWORD PTR [rbx+8]
	lea	ecx, QWORD PTR [rbp+91]
	call	EmitErr

; 385  :             } else

	jmp	SHORT $LN11@check_assu
$LN7@check_assu:

; 386  :                 CodeInfo->prefix.RegOverride = default_reg;

	mov	DWORD PTR [rsi+4], edi

; 387  :         } else {

	jmp	SHORT $LN11@check_assu
$LN5@check_assu:

; 388  :             DebugMsg1(("check_assume: no segment register available to access seg-label %s\n", SegOverride->name ));
; 389  :             EmitErr( CANNOT_ACCESS_LABEL_THROUGH_SEGMENT_REGISTERS, SegOverride->name );

	mov	rdx, QWORD PTR SegOverride
	mov	ecx, 89					; 00000059H
	mov	rdx, QWORD PTR [rdx+8]
	call	EmitErr

; 390  :         }

	jmp	SHORT $LN11@check_assu
$LN3@check_assu:

; 391  :     } else if( default_reg != EMPTY ) {

	cmp	edi, -2
	je	SHORT $LN11@check_assu

; 392  :         CodeInfo->prefix.RegOverride = reg;

	mov	DWORD PTR [rsi+4], ebp
$LN11@check_assu:
	mov	rbp, QWORD PTR [rsp+48]
$LN9@check_assu:

; 393  :     }
; 394  : }

	mov	rbx, QWORD PTR [rsp+64]
	mov	rsi, QWORD PTR [rsp+72]
	add	rsp, 32					; 00000020H
	pop	rdi
	ret	0
check_assume ENDP
_TEXT	ENDS
; Function compile flags: /Ogtpy
; File d:\hjwasm\hjwasm2.13.1s\hjwasm2.13.1s\parser.c
;	COMDAT comp_mem16
_TEXT	SEGMENT
reg1$ = 8
reg2$ = 16
comp_mem16 PROC						; COMDAT

; 338  :     switch( reg1 ) {

	cmp	ecx, 12
	je	SHORT $LN8@comp_mem16
	cmp	ecx, 14
	je	SHORT $LN11@comp_mem16

; 349  :         }
; 350  :         break;
; 351  :     default:
; 352  :         return( EmitError( MULTIPLE_INDEX_REGISTERS_NOT_ALLOWED ) );

	mov	ecx, 34					; 00000022H
	jmp	EmitError
$LN11@comp_mem16:

; 343  :         }
; 344  :         break;
; 345  :     case T_BP:
; 346  :         switch( reg2 ) {

	sub	edx, 15
	je	SHORT $LN12@comp_mem16
	cmp	edx, 1
	jne	SHORT $LN4@comp_mem16

; 348  :         case T_DI: return( RM_BP_DI ); /* 03 */

	lea	eax, QWORD PTR [rdx+2]

; 355  : }

	ret	0
$LN12@comp_mem16:

; 347  :         case T_SI: return( RM_BP_SI ); /* 02 */

	mov	eax, 2

; 355  : }

	ret	0
$LN8@comp_mem16:

; 339  :     case T_BX:
; 340  :         switch( reg2 ) {

	sub	edx, 15
	je	SHORT $LN9@comp_mem16
	cmp	edx, 1
	je	SHORT $LN10@comp_mem16
$LN4@comp_mem16:

; 353  :     }
; 354  :     return( EmitError( MULTIPLE_BASE_REGISTERS_NOT_ALLOWED ) );

	mov	ecx, 29
	jmp	EmitError
$LN10@comp_mem16:

; 342  :         case T_DI: return( RM_BX_DI ); /* 01 */

	mov	eax, 1

; 355  : }

	ret	0
$LN9@comp_mem16:

; 341  :         case T_SI: return( RM_BX_SI ); /* 00 */

	xor	eax, eax

; 355  : }

	ret	0
comp_mem16 ENDP
_TEXT	ENDS
; Function compile flags: /Ogtpy
; File d:\hjwasm\hjwasm2.13.1s\hjwasm2.13.1s\parser.c
_TEXT	SEGMENT
tokenarray$ = 48
ProcessFile PROC

; 3514 : {

$LN12:
	push	rbx
	sub	rsp, 32					; 00000020H

; 3515 :     while ( ModuleInfo.EndDirFound == FALSE && GetTextLine( CurrSource ) ) {

	test	BYTE PTR ModuleInfo+410, 1
	mov	rbx, rcx
	jne	SHORT $LN10@ProcessFil
$LL2@ProcessFil:
	mov	rcx, QWORD PTR ModuleInfo+464
	call	GetTextLine
	test	rax, rax
	je	SHORT $LN10@ProcessFil

; 3516 :         if ( PreprocessLine( CurrSource, tokenarray ) ) {

	mov	rcx, QWORD PTR ModuleInfo+464
	mov	rdx, rbx
	call	PreprocessLine
	test	eax, eax
	je	SHORT $LN5@ProcessFil

; 3517 :             ParseLine( tokenarray );

	mov	rcx, rbx
	call	ParseLine

; 3518 :             if ( Options.preprocessor_stdout == TRUE && Parse_Pass == PASS_1 )

	cmp	BYTE PTR Options+125, 1
	jne	SHORT $LN5@ProcessFil
	cmp	DWORD PTR Parse_Pass, 0
	jne	SHORT $LN5@ProcessFil

; 3519 :                 WritePreprocessedLine( CurrSource );

	mov	rcx, QWORD PTR ModuleInfo+464
	call	WritePreprocessedLine
$LN5@ProcessFil:

; 3515 :     while ( ModuleInfo.EndDirFound == FALSE && GetTextLine( CurrSource ) ) {

	test	BYTE PTR ModuleInfo+410, 1
	je	SHORT $LL2@ProcessFil
$LN10@ProcessFil:

; 3520 :         }
; 3521 :     }
; 3522 :     return;
; 3523 : }

	add	rsp, 32					; 00000020H
	pop	rbx
	ret	0
ProcessFile ENDP
_TEXT	ENDS
; Function compile flags: /Ogtpy
; File d:\hjwasm\hjwasm2.13.1s\hjwasm2.13.1s\parser.c
_TEXT	SEGMENT
CodeInfo$ = 48
opndx$ = 192
oldofs$ = 688
i$ = 688
tokenarray$ = 688
oldofs$1$ = 696
tv2597 = 704
tv2228 = 704
tv2241 = 712
ParseLine PROC

; 2863 : {

$LN325:
	push	rbp
	push	rbx
	push	rdi
	push	r14
	lea	rbp, QWORD PTR [rsp-392]
	sub	rsp, 648				; 00000288H

; 2864 :   int                 i;
; 2865 :   int                 j;
; 2866 :   unsigned            dirflags;
; 2867 :   unsigned            CurrOpnd;
; 2868 :   ret_code            temp;
; 2869 :   struct asym         *sym;
; 2870 :   uint_32             oldofs;
; 2871 :   enum special_token regtok;
; 2872 : #ifdef DEBUG_OUT
; 2873 :   char                *instr;
; 2874 : #endif
; 2875 :   struct code_info    CodeInfo;
; 2876 : #if AVXSUPP
; 2877 :   struct expr         opndx[MAX_OPND + 1];
; 2878 : #else
; 2879 :   struct expr         opndx[MAX_OPND];
; 2880 : #endif
; 2881 : 
; 2882 :   DebugMsg1(("ParseLine enter, Token_Count=%u, ofs=%Xh\n",
; 2883 :     Token_Count, GetCurrOffset()));
; 2884 :   i = 0;

	xor	ebx, ebx
	mov	rdi, rcx

; 2885 :   /* Does line start with a code label? */
; 2886 :   if (tokenarray[0].token == T_ID && (tokenarray[1].token == T_COLON || tokenarray[1].token == T_DBL_COLON)) {

	cmp	BYTE PTR [rcx], 8
	mov	r9d, ebx
	mov	DWORD PTR i$[rbp-256], ebx
	lea	r14d, QWORD PTR [rbx+1]
	jne	$LN39@ParseLine
	movzx	eax, BYTE PTR [rcx+32]
	cmp	al, 58					; 0000003aH
	je	SHORT $LN36@ParseLine
	cmp	al, 13
	jne	$LN39@ParseLine
$LN36@ParseLine:

; 2887 :     i = 2;
; 2888 :     DebugMsg1(("ParseLine T_COLON, code label=%s\n", tokenarray[0].string_ptr));
; 2889 :     if (ProcStatus & PRST_PROLOGUE_NOT_DONE) write_prologue(tokenarray);

	test	BYTE PTR ProcStatus, -128		; ffffffffffffff80H
	mov	DWORD PTR i$[rbp-256], 2
	je	SHORT $LN37@ParseLine
	call	write_prologue
$LN37@ParseLine:

; 2890 : 
; 2891 :     /* create a global or local code label */
; 2892 :     if (CreateLabel(tokenarray[0].string_ptr, MT_NEAR, NULL,
; 2893 :       (ModuleInfo.scoped && CurrProc && tokenarray[1].token != T_DBL_COLON)) == NULL) {

	test	BYTE PTR ModuleInfo+408, 128		; 00000080H
	je	SHORT $LN202@ParseLine
	cmp	QWORD PTR CurrProc, rbx
	je	SHORT $LN202@ParseLine
	cmp	BYTE PTR [rdi+32], 13
	mov	eax, r14d
	jne	SHORT $LN203@ParseLine
$LN202@ParseLine:
	mov	eax, ebx
$LN203@ParseLine:
	mov	rcx, QWORD PTR [rdi+8]
	movzx	r9d, al
	xor	r8d, r8d
	mov	edx, 129				; 00000081H
	call	CreateLabel
	test	rax, rax
	jne	SHORT $LN38@ParseLine

; 2894 :       DebugMsg(("ParseLine, CreateLabel(%s) failed, exit\n", tokenarray[0].string_ptr));
; 2895 :       return(ERROR);

	or	eax, -1

; 3507 :   return( temp );
; 3508 : }

	add	rsp, 648				; 00000288H
	pop	r14
	pop	rdi
	pop	rbx
	pop	rbp
	ret	0
$LN38@ParseLine:

; 2896 :     }
; 2897 :     if (tokenarray[i].token == T_FINAL) {

	movsxd	r9, DWORD PTR i$[rbp-256]
	mov	rax, r9
	shl	rax, 5
	cmp	BYTE PTR [rax+rdi], bl
	jne	SHORT $LN39@ParseLine

; 2898 :       /* v2.06: this is a bit too late. Should be done BEFORE
; 2899 :        * CreateLabel, because of '@@'. There's a flag supposed to
; 2900 :        * be used for this handling, LOF_STORED in line_flags.
; 2901 :        * It's only a problem if a '@@:' is the first line
; 2902 :        * in the code section.
; 2903 :        * v2.10: is no longer an issue because the label counter has
; 2904 :        * been moved to module_vars (see global.h).
; 2905 :        */
; 2906 :       FStoreLine(0);

	cmp	DWORD PTR Parse_Pass, ebx
	jne	SHORT $LN40@ParseLine
	mov	rcx, QWORD PTR ModuleInfo+464
	xor	r8d, r8d
	xor	edx, edx
	call	StoreLine
$LN40@ParseLine:

; 2907 :       if (CurrFile[LST]) {

	cmp	QWORD PTR ModuleInfo+112, rbx
	je	SHORT $LN42@ParseLine

; 2908 :         LstWrite(LSTTYPE_LABEL, 0, NULL);

	xor	edx, edx
	xor	r8d, r8d
	lea	ecx, QWORD PTR [rdx+7]
	call	LstWrite
$LN42@ParseLine:

; 2909 :       }
; 2910 :       return(NOT_ERROR);

	xor	eax, eax

; 3507 :   return( temp );
; 3508 : }

	add	rsp, 648				; 00000288H
	pop	r14
	pop	rdi
	pop	rbx
	pop	rbp
	ret	0
$LN39@ParseLine:

; 2911 :     }
; 2912 :   }
; 2913 :   /* handle directives and (anonymous) data items */
; 2914 :   if (tokenarray[i].token != T_INSTRUCTION) {

	movsxd	rax, r9d
	shl	rax, 5
	mov	QWORD PTR [rsp+640], rsi
	cmp	BYTE PTR [rax+rdi], r14b
	je	$LN43@ParseLine

; 2915 :     /* a code label before a data item is only accepted in Masm5 compat mode */
; 2916 :     Frame_Type = FRAME_NONE;

	mov	BYTE PTR Frame_Type, 6

; 2917 :     SegOverride = NULL;

	mov	QWORD PTR SegOverride, rbx

; 2918 :     if (i == 0 && tokenarray[0].token == T_ID) {

	test	r9d, r9d
	jne	SHORT $LN290@ParseLine
	cmp	BYTE PTR [rdi], 8
	jne	SHORT $LN290@ParseLine

; 2919 :       /* token at pos 0 may be a label.
; 2920 :        * it IS a label if:
; 2921 :        * 1. token at pos 1 is a directive (lbl dd ...)
; 2922 :        * 2. token at pos 0 is NOT a userdef type ( lbl DWORD ...)
; 2923 :        * 3. inside a struct and token at pos 1 is a userdef type
; 2924 :        *    or a predefined type. (usertype DWORD|usertype ... )
; 2925 :        *    the separate namespace allows this syntax here.
; 2926 :        */
; 2927 :       if (tokenarray[1].token == T_DIRECTIVE)

	cmp	BYTE PTR [rdi+32], 3
	jne	SHORT $LN45@ParseLine

; 2928 :         i++;

	mov	r9d, r14d
	mov	DWORD PTR i$[rbp-256], r14d
	jmp	SHORT $LN290@ParseLine
$LN45@ParseLine:

; 2929 :       else {
; 2930 :         sym = IsType(tokenarray[0].string_ptr);

	mov	rcx, QWORD PTR [rdi+8]
	call	SymFind
	test	rax, rax
	je	SHORT $LN273@ParseLine
	cmp	DWORD PTR [rax+32], 7
	jne	SHORT $LN273@ParseLine

; 2933 :         else if (CurrStruct &&

	cmp	QWORD PTR CurrStruct, rbx
	je	SHORT $LN289@ParseLine
	movzx	eax, BYTE PTR [rdi+32]
	cmp	al, 6
	je	SHORT $LN273@ParseLine
	cmp	al, 8
	jne	SHORT $LN289@ParseLine
	mov	rcx, QWORD PTR [rdi+40]
	call	SymFind
	test	rax, rax
	je	SHORT $LN289@ParseLine
	cmp	DWORD PTR [rax+32], 7
	je	SHORT $LN273@ParseLine
$LN289@ParseLine:

; 2931 :         if (sym == NULL)
; 2932 :           i++;

	mov	r9d, DWORD PTR i$[rbp-256]
	jmp	SHORT $LN290@ParseLine
$LN273@ParseLine:
	mov	r9d, DWORD PTR i$[rbp-256]
	inc	r9d
	mov	DWORD PTR i$[rbp-256], r9d
$LN290@ParseLine:

; 2934 :           ((tokenarray[1].token == T_STYPE) ||
; 2935 :           (tokenarray[1].token == T_ID && (IsType(tokenarray[1].string_ptr)))))
; 2936 :           i++;
; 2937 :       }
; 2938 :     }
; 2939 :     switch (tokenarray[i].token) {

	movsxd	rax, r9d
	shl	rax, 5
	movzx	ecx, BYTE PTR [rax+rdi]
	lea	rdx, QWORD PTR [rax+rdi]
	movzx	eax, cl
	cmp	cl, 3
	je	$LN51@ParseLine
	cmp	al, 6
	je	$LN74@ParseLine
	cmp	al, 8
	je	SHORT $LN75@ParseLine

; 3015 :       }
; 3016 :       break;
; 3017 :     default:
; 3018 :       if (tokenarray[i].token == T_COLON) {

	cmp	cl, 58					; 0000003aH
	jne	SHORT $LN76@ParseLine

; 3019 :         DebugMsg(("ParseLine: unexpected colon\n"));
; 3020 :         return(EmitError(SYNTAX_ERROR_UNEXPECTED_COLON));

	mov	ecx, 47					; 0000002fH
	call	EmitError
	jmp	$LN310@ParseLine
$LN75@ParseLine:

; 3008 :     case T_STYPE:
; 3009 :       DebugMsg1(("ParseLine: T_STYPE >%s<\n", tokenarray[i].string_ptr));
; 3010 :       return(data_dir(i, tokenarray, NULL));
; 3011 :     case T_ID:
; 3012 :       DebugMsg1(("ParseLine: T_ID >%s<\n", tokenarray[i].string_ptr));
; 3013 :       if (sym = IsType(tokenarray[i].string_ptr)) {

	mov	rcx, QWORD PTR [rdx+8]
	call	SymFind
	test	rax, rax
	je	SHORT $LN292@ParseLine
	cmp	DWORD PTR [rax+32], 7
	jne	SHORT $LN292@ParseLine

; 3014 :         return(data_dir(i, tokenarray, sym));

	mov	ecx, DWORD PTR i$[rbp-256]
	mov	r8, rax
	mov	rdx, rdi
	call	data_dir
	jmp	$LN310@ParseLine
$LN292@ParseLine:
	mov	r9d, DWORD PTR i$[rbp-256]
$LN76@ParseLine:

; 3021 :       }
; 3022 :       break;
; 3023 :     } /* end switch (tokenarray[i].token) */
; 3024 :     if (i && tokenarray[i - 1].token == T_ID)

	test	r9d, r9d
	je	SHORT $LN79@ParseLine
	movsxd	rax, r9d
	shl	rax, 5
	cmp	BYTE PTR [rax+rdi-32], 8
	jne	SHORT $LN79@ParseLine

; 3025 :       i--;

	dec	r9d
	mov	DWORD PTR i$[rbp-256], r9d
$LN79@ParseLine:

; 3026 :     DebugMsg(("ParseLine: unexpected token=%u, i=%u, string=%s\n", tokenarray[i].token, i, tokenarray[i].string_ptr));
; 3027 :     return(EmitErr(SYNTAX_ERROR_EX, tokenarray[i].string_ptr));

	movsxd	rdx, r9d
	mov	ecx, 209				; 000000d1H
	shl	rdx, 5
	mov	rdx, QWORD PTR [rdx+rdi+8]
	call	EmitErr
	jmp	$LN310@ParseLine
$LN51@ParseLine:

; 2940 :     case T_DIRECTIVE:
; 2941 :       DebugMsg1(("ParseLine: T_DIRECTIVE >%s<\n", tokenarray[i].string_ptr));
; 2942 :       if (tokenarray[i].dirtype == DRT_DATADIR) {

	cmp	BYTE PTR [rdx+1], 8
	jne	SHORT $LN52@ParseLine
$LN74@ParseLine:

; 2943 :         return(data_dir(i, tokenarray, NULL));

	xor	r8d, r8d
	mov	rdx, rdi
	mov	ecx, r9d
	call	data_dir
	jmp	$LN310@ParseLine
$LN52@ParseLine:

; 2944 :       }
; 2945 :       dirflags = GetValueSp(tokenarray[i].tokval);
; 2946 :       if (CurrStruct && (dirflags & DF_NOSTRUC)) {

	cmp	QWORD PTR CurrStruct, 0
	lea	rsi, OFFSET FLAT:__ImageBase
	mov	eax, DWORD PTR [rdx+16]
	lea	rcx, QWORD PTR [rax+rax*2]
	mov	ebx, DWORD PTR SpecialTable[rsi+rcx*4]
	je	SHORT $LN53@ParseLine
	test	bl, 16
	jne	$LN322@ParseLine
$LN53@ParseLine:

; 2947 :         return(EmitError(STATEMENT_NOT_ALLOWED_INSIDE_STRUCTURE_DEFINITION));
; 2948 :       }
; 2949 :       /* label allowed for directive? */
; 2950 :       //if ( tokenarray[i].flags & DF_LABEL ) {
; 2951 :       if (dirflags & DF_LABEL) {

	test	bl, 8
	je	SHORT $LN54@ParseLine

; 2952 :         if (i && tokenarray[0].token != T_ID) {

	test	r9d, r9d
	je	SHORT $LN57@ParseLine
	cmp	BYTE PTR [rdi], 8
	je	SHORT $LN57@ParseLine

; 2953 :           return(EmitErr(SYNTAX_ERROR_EX, tokenarray[0].string_ptr));

	mov	rdx, QWORD PTR [rdi+8]
	mov	ecx, 209				; 000000d1H
	call	EmitErr
	jmp	$LN310@ParseLine
$LN54@ParseLine:

; 2954 :         }
; 2955 :       }
; 2956 :       else if (i && tokenarray[i - 1].token != T_COLON && tokenarray[i - 1].token != T_DBL_COLON) {

	test	r9d, r9d
	je	SHORT $LN57@ParseLine
	movzx	eax, BYTE PTR [rdx-32]
	cmp	al, 58					; 0000003aH
	je	SHORT $LN57@ParseLine
	cmp	al, 13
	je	SHORT $LN57@ParseLine

; 2957 :         return(EmitErr(SYNTAX_ERROR_EX, tokenarray[i - 1].string_ptr));

	mov	rdx, QWORD PTR [rdx-24]
	mov	ecx, 209				; 000000d1H
	call	EmitErr
	jmp	$LN310@ParseLine
$LN57@ParseLine:

; 2958 :       }
; 2959 :       /* must be done BEFORE FStoreLine()! */
; 2960 :       if ((ProcStatus & PRST_PROLOGUE_NOT_DONE) && (dirflags & DF_PROC)) write_prologue(tokenarray);

	test	BYTE PTR ProcStatus, -128		; ffffffffffffff80H
	je	SHORT $LN58@ParseLine
	test	bl, 64					; 00000040H
	je	SHORT $LN58@ParseLine
	mov	rcx, rdi
	call	write_prologue
	mov	r9d, DWORD PTR i$[rbp-256]
$LN58@ParseLine:

; 2961 : #if FASTPASS
; 2962 :       if (StoreState || (dirflags & DF_STORE)) {

	cmp	BYTE PTR StoreState, 0
	jne	SHORT $LN60@ParseLine
	test	bl, bl
	jns	SHORT $LN65@ParseLine
$LN60@ParseLine:

; 2963 :         /* v2.07: the comment must be stored as well
; 2964 :          * if a listing (with -Sg) is to be written and
; 2965 :          * the directive will generate lines
; 2966 :          */
; 2967 :         if ((dirflags & DF_CGEN) && ModuleInfo.CurrComment && ModuleInfo.list_generated_code) {

	bt	ebx, 8
	jae	SHORT $LN61@ParseLine
	cmp	QWORD PTR ModuleInfo+472, 0
	je	SHORT $LN61@ParseLine
	test	DWORD PTR ModuleInfo+408, 16384		; 00004000H
	je	SHORT $LN61@ParseLine

; 2968 :           FStoreLine(1);

	cmp	DWORD PTR Parse_Pass, 0
	jne	SHORT $LN65@ParseLine
	mov	edx, r14d

; 2969 :         }

	jmp	SHORT $LN314@ParseLine
$LN61@ParseLine:

; 2970 :         else
; 2971 :           FStoreLine(0);

	cmp	DWORD PTR Parse_Pass, 0
	jne	SHORT $LN65@ParseLine
	xor	edx, edx
$LN314@ParseLine:
	mov	rcx, QWORD PTR ModuleInfo+464
	xor	r8d, r8d
	call	StoreLine
	mov	r9d, DWORD PTR i$[rbp-256]
$LN65@ParseLine:

; 2972 :       }
; 2973 : #endif
; 2974 :       if (tokenarray[i].dirtype > DRT_DATADIR) {

	movsxd	rax, r9d
	shl	rax, 5
	lea	rdx, QWORD PTR [rax+rdi]
	movzx	eax, BYTE PTR [rax+rdi+1]
	cmp	al, 8
	jbe	SHORT $LN67@ParseLine

; 2975 :         temp = directive_tab[tokenarray[i].dirtype](i, tokenarray);

	movzx	eax, al
	mov	rdx, rdi
	mov	ecx, r9d
	call	QWORD PTR directive_tab[rsi+rax*8]
	mov	ebx, eax

; 2976 :       }

	jmp	SHORT $LN4@ParseLine
$LN67@ParseLine:

; 2977 :       else {
; 2978 :         temp = ERROR;
; 2979 :         /* ENDM, EXITM and GOTO directives should never be seen here */
; 2980 :         switch (tokenarray[i].tokval) {

	mov	ecx, DWORD PTR [rdx+16]
	or	ebx, -1
	sub	ecx, 393				; 00000189H
	je	SHORT $LN70@ParseLine
	sub	ecx, r14d
	je	SHORT $LN69@ParseLine
	cmp	ecx, r14d
	je	SHORT $LN70@ParseLine

; 2987 :           break;
; 2988 :         default:
; 2989 :           /* this error may happen if
; 2990 :            * CATSTR, SUBSTR, MACRO, ...
; 2991 :            * aren't at pos 1
; 2992 :            */
; 2993 :           EmitErr(SYNTAX_ERROR_EX, tokenarray[i].string_ptr);

	mov	rdx, QWORD PTR [rdx+8]
	mov	ecx, 209				; 000000d1H
	call	EmitErr
	jmp	SHORT $LN4@ParseLine
$LN69@ParseLine:

; 2981 :         case T_ENDM:
; 2982 :           EmitError(UNMATCHED_MACRO_NESTING);

	mov	ecx, 162				; 000000a2H

; 2983 :           break;

	jmp	SHORT $LN315@ParseLine
$LN70@ParseLine:

; 2984 :         case T_EXITM:
; 2985 :         case T_GOTO:
; 2986 :           EmitError(DIRECTIVE_MUST_APPEAR_INSIDE_A_MACRO);

	mov	ecx, 178				; 000000b2H
$LN315@ParseLine:
	call	EmitError
$LN4@ParseLine:

; 2994 :           break;
; 2995 :         }
; 2996 :       }
; 2997 :       /* v2.0: for generated code it's important that list file is
; 2998 :        * written in ALL passes, to update file position! */
; 2999 :       //if ( ModuleInfo.list && (( line_flags & LOF_LISTED ) == 0 ) && Parse_Pass == PASS_1 )
; 3000 : #if FASTPASS
; 3001 :       /* v2.08: UseSavedState == FALSE added */
; 3002 :       if (ModuleInfo.list && (Parse_Pass == PASS_1 || ModuleInfo.GeneratedCode || UseSavedState == FALSE))

	test	DWORD PTR ModuleInfo+408, 2048		; 00000800H
	je	SHORT $LN72@ParseLine
	cmp	DWORD PTR Parse_Pass, 0
	je	SHORT $LN73@ParseLine
	cmp	DWORD PTR ModuleInfo+456, 0
	jne	SHORT $LN73@ParseLine
	cmp	BYTE PTR UseSavedState, 0
	jne	SHORT $LN72@ParseLine
$LN73@ParseLine:

; 3003 : #else
; 3004 :       if ( ModuleInfo.list )
; 3005 : #endif
; 3006 :         LstWriteSrcLine();

	call	LstWriteSrcLine
$LN72@ParseLine:

; 3007 :       return(temp);

	mov	eax, ebx
	jmp	$LN310@ParseLine
$LN43@ParseLine:

; 3028 :   }
; 3029 : 
; 3030 :   DebugMsg1(("ParseLine: %s\n", tokenarray[i].string_ptr));
; 3031 :   /* v2.04 added */
; 3032 :   if (CurrStruct) {

	cmp	QWORD PTR CurrStruct, rbx
	je	SHORT $LN80@ParseLine
$LN322@ParseLine:

; 3033 :     return(EmitError(STATEMENT_NOT_ALLOWED_INSIDE_STRUCTURE_DEFINITION));

	mov	ecx, 141				; 0000008dH
	call	EmitError
	jmp	$LN310@ParseLine
$LN80@ParseLine:

; 3034 :   }
; 3035 : 
; 3036 :   if (ProcStatus & PRST_PROLOGUE_NOT_DONE) write_prologue(tokenarray);

	test	BYTE PTR ProcStatus, -128		; ffffffffffffff80H
	je	SHORT $LN81@ParseLine
	mov	rcx, rdi
	call	write_prologue
	mov	r9d, DWORD PTR i$[rbp-256]
$LN81@ParseLine:

; 3037 : 
; 3038 :   /* v2.07: moved because special handling is needed for RET/IRET */
; 3039 :   //FStoreLine(); /* must be placed AFTER write_prologue() */
; 3040 : 
; 3041 :   if (CurrFile[LST]) oldofs = GetCurrOffset();

	cmp	QWORD PTR ModuleInfo+112, rbx
	je	SHORT $LN293@ParseLine
	call	GetCurrOffset
	mov	r9d, DWORD PTR i$[rbp-256]
	jmp	SHORT $LN316@ParseLine
$LN293@ParseLine:
	mov	eax, DWORD PTR oldofs$[rbp-256]
$LN316@ParseLine:

; 3042 : 
; 3043 :   /* init CodeInfo */
; 3044 :   CodeInfo.prefix.ins = EMPTY;
; 3045 :   CodeInfo.prefix.RegOverride = EMPTY;
; 3046 : #if AMD64_SUPPORT
; 3047 :   CodeInfo.prefix.rex = 0;
; 3048 : #endif
; 3049 :   CodeInfo.prefix.adrsiz = FALSE;
; 3050 :   CodeInfo.prefix.opsiz = FALSE;

	and	BYTE PTR CodeInfo$[rsp+9], 252		; 000000fcH
	mov	DWORD PTR oldofs$1$[rbp-256], eax

; 3051 :   CodeInfo.mem_type = MT_EMPTY;
; 3052 :   for (j = 0; j < MAX_OPND; j++) {
; 3053 :     CodeInfo.opnd[j].type = OP_NONE;
; 3054 : #ifdef DEBUG_OUT
; 3055 :     CodeInfo.opnd[j].data32l = -1;
; 3056 :     /* make sure it's invalid */
; 3057 :     CodeInfo.opnd[j].InsFixup = (void *)0xffffffff;
; 3058 : #endif
; 3059 :   }
; 3060 :   CodeInfo.rm_byte = 0;
; 3061 :   CodeInfo.sib = 0;            /* assume ss is *1 */
; 3062 :   CodeInfo.Ofssize = ModuleInfo.Ofssize;

	movzx	eax, BYTE PTR ModuleInfo+404
	mov	BYTE PTR CodeInfo$[rbp-150], al
	mov	eax, DWORD PTR [rdi+16]
	sub	eax, 1682				; 00000692H
	mov	DWORD PTR CodeInfo$[rsp], -2
	mov	DWORD PTR CodeInfo$[rsp+4], -2
	mov	BYTE PTR CodeInfo$[rsp+8], bl
	mov	QWORD PTR CodeInfo$[rsp+28], 192	; 000000c0H
	mov	DWORD PTR CodeInfo$[rsp+56], ebx
	mov	DWORD PTR CodeInfo$[rbp-176], ebx
	mov	WORD PTR CodeInfo$[rbp-152], bx

; 3063 :   CodeInfo.opc_or = 0;

	mov	WORD PTR CodeInfo$[rbp-149], bx

; 3064 :   CodeInfo.basetype = 0;
; 3065 : #if AVXSUPP
; 3066 :   CodeInfo.evex_sae = 0;
; 3067 :   CodeInfo.vexregop = 0;
; 3068 :   CodeInfo.tuple = 0;

	mov	WORD PTR CodeInfo$[rbp-116], bx
	mov	BYTE PTR CodeInfo$[rbp-128], bl

; 3069 :   CodeInfo.vexconst = 0;

	mov	DWORD PTR CodeInfo$[rbp-132], ebx

; 3070 :   CodeInfo.evex_flag = FALSE;  /* if TRUE will output 0x62 */

	mov	BYTE PTR CodeInfo$[rbp-120], bl

; 3071 :   CodeInfo.reg3 = 0xff;          /* if not reg3 make it negative  */

	mov	WORD PTR CodeInfo$[rbp-145], 65535	; 0000ffffH

; 3072 :   CodeInfo.basereg = 0xff;

	mov	BYTE PTR CodeInfo$[rbp-143], 255	; 000000ffH
	cmp	eax, 46					; 0000002eH
	ja	SHORT $LN83@ParseLine

; 3073 :   CodeInfo.indexreg = 0xff;
; 3074 :   if (tokenarray[0].tokval >= T_KADDB && tokenarray[0].tokval <= T_KMOVW){
; 3075 :     CodeInfo.evex_flag = FALSE;

	mov	BYTE PTR CodeInfo$[rbp-120], bl

; 3076 :   }

	jmp	SHORT $LN85@ParseLine
$LN83@ParseLine:

; 3077 :   else{
; 3078 :     //Init EVEX three bytes
; 3079 :     CodeInfo.evex_p0 = 0;      /* P0[3 : 2] Must be 0 */
; 3080 :     CodeInfo.evex_p1 = 0x4;    /* P1[2]    Must be 1  */
; 3081 :     CodeInfo.evex_p2 = 0;
; 3082 :     if (broadflags || decoflags)

	cmp	BYTE PTR broadflags, bl
	mov	WORD PTR CodeInfo$[rbp-119], 1024	; 00000400H
	mov	BYTE PTR CodeInfo$[rbp-117], bl
	jne	SHORT $LN86@ParseLine
	cmp	BYTE PTR decoflags, bl
	je	SHORT $LN85@ParseLine
$LN86@ParseLine:

; 3083 :       CodeInfo.evex_flag = TRUE;   /* if TRUE will output 0x62 */

	mov	BYTE PTR CodeInfo$[rbp-120], r14b
$LN85@ParseLine:

; 3084 :   }
; 3085 : #endif
; 3086 :   CodeInfo.flags = 0;
; 3087 : 
; 3088 :   /* instruction prefix?
; 3089 :    * T_LOCK, T_REP, T_REPE, T_REPNE, T_REPNZ, T_REPZ */
; 3090 :   if (tokenarray[i].tokval >= T_LOCK && tokenarray[i].tokval <= T_REPZ) {

	movsxd	rcx, r9d
	shl	rcx, 5
	add	rcx, rdi
	mov	BYTE PTR CodeInfo$[rbp-114], bl
	mov	edx, DWORD PTR [rcx+16]
	lea	eax, DWORD PTR [rdx-577]
	cmp	eax, 5
	ja	SHORT $LN88@ParseLine

; 3091 :     CodeInfo.prefix.ins = tokenarray[i].tokval;
; 3092 :     i++;

	inc	r9d
	mov	DWORD PTR CodeInfo$[rsp], edx

; 3093 :     /* prefix has to be followed by an instruction */
; 3094 :     if (tokenarray[i].token != T_INSTRUCTION) {

	movsxd	rcx, r9d
	shl	rcx, 5
	add	rcx, rdi
	mov	DWORD PTR i$[rbp-256], r9d
	cmp	BYTE PTR [rcx], r14b
	je	SHORT $LN88@ParseLine

; 3095 :       DebugMsg(("ParseLine: unexpected token %u after prefix, exit, error\n", tokenarray[i].token));
; 3096 :       return(EmitError(PREFIX_MUST_BE_FOLLOWED_BY_AN_INSTRUCTION));

	mov	ecx, 46					; 0000002eH
	call	EmitError
	jmp	$LN310@ParseLine
$LN88@ParseLine:

; 3097 :     }
; 3098 :     DebugMsg1(("ParseLine: %s\n", tokenarray[i].tokpos));
; 3099 :   };
; 3100 : 
; 3101 :   if (CurrProc) {

	mov	r8, QWORD PTR CurrProc
	test	r8, r8
	je	$LN94@ParseLine

; 3102 :     switch (tokenarray[i].tokval) {

	mov	edx, DWORD PTR [rcx+16]
	lea	eax, DWORD PTR [rdx-622]
	cmp	eax, r14d
	jbe	SHORT $LN90@ParseLine
	cmp	edx, 644				; 00000284H
	je	SHORT $LN90@ParseLine
	cmp	edx, 1203				; 000004b3H
	jne	$LN94@ParseLine
$LN90@ParseLine:

; 3103 :     case T_RET:
; 3104 :     case T_IRET:  /* IRET is always 16-bit; OTOH, IRETW doesn't exist */
; 3105 :     case T_IRETD:
; 3106 : #if AMD64_SUPPORT
; 3107 :     case T_IRETQ:
; 3108 : #endif
; 3109 :       if (!(ProcStatus & PRST_INSIDE_EPILOGUE) && ModuleInfo.epiloguemode != PEM_NONE) {

	test	BYTE PTR ProcStatus, 2
	jne	SHORT $LN91@ParseLine
	cmp	BYTE PTR ModuleInfo+425, 2
	je	SHORT $LN91@ParseLine

; 3110 :         /* v2.07: special handling for RET/IRET */
; 3111 :         FStoreLine((ModuleInfo.CurrComment && ModuleInfo.list_generated_code) ? 1 : 0);

	cmp	DWORD PTR Parse_Pass, ebx
	jne	SHORT $LN92@ParseLine
	cmp	QWORD PTR ModuleInfo+472, rbx
	je	SHORT $LN204@ParseLine
	test	DWORD PTR ModuleInfo+408, 16384		; 00004000H
	jne	SHORT $LN205@ParseLine
$LN204@ParseLine:
	mov	r14d, ebx
$LN205@ParseLine:
	mov	rcx, QWORD PTR ModuleInfo+464
	xor	r8d, r8d
	mov	edx, r14d
	call	StoreLine
	mov	r9d, DWORD PTR i$[rbp-256]
$LN92@ParseLine:

; 3112 :         ProcStatus |= PRST_INSIDE_EPILOGUE;
; 3113 :         temp = RetInstr(i, tokenarray, Token_Count);

	mov	r8d, DWORD PTR ModuleInfo+496
	mov	rdx, rdi
	or	DWORD PTR ProcStatus, 2
	mov	ecx, r9d
	call	RetInstr

; 3114 :         ProcStatus &= ~PRST_INSIDE_EPILOGUE;

	and	DWORD PTR ProcStatus, -3

; 3115 :         return(temp);

	jmp	$LN310@ParseLine
$LN91@ParseLine:

; 3116 :       }
; 3117 :       /* default translation: just RET to RETF if proc is far */
; 3118 :       /* v2.08: this code must run even if PRST_INSIDE_EPILOGUE is set */
; 3119 :       if (tokenarray[i].tokval == T_RET && CurrProc->sym.mem_type == MT_FAR)

	cmp	edx, 644				; 00000284H
	jne	SHORT $LN94@ParseLine
	cmp	DWORD PTR [r8+36], 130			; 00000082H
	jne	SHORT $LN94@ParseLine

; 3120 :         tokenarray[i].tokval = T_RETF;

	mov	DWORD PTR [rcx+16], 646			; 00000286H
	mov	r9d, DWORD PTR i$[rbp-256]
$LN94@ParseLine:

; 3121 :     }
; 3122 :   }
; 3123 : 
; 3124 :   FStoreLine(0); /* must be placed AFTER write_prologue() */

	cmp	DWORD PTR Parse_Pass, ebx
	jne	SHORT $LN95@ParseLine
	mov	rcx, QWORD PTR ModuleInfo+464
	xor	r8d, r8d
	xor	edx, edx
	call	StoreLine
	mov	r9d, DWORD PTR i$[rbp-256]
$LN95@ParseLine:

; 3125 : 
; 3126 : #ifdef DEBUG_OUT
; 3127 :   instr = tokenarray[i].string_ptr;
; 3128 : #endif
; 3129 :   CodeInfo.token = tokenarray[i].tokval;

	movsxd	rax, r9d

; 3130 :   /* get the instruction's start position in InstrTable[] */
; 3131 :   CodeInfo.pinstr = &InstrTable[IndexFromToken(CodeInfo.token)];

	lea	rcx, OFFSET FLAT:__ImageBase
	shl	rax, 5

; 3132 :   i++;

	inc	r9d
	movsxd	r8, DWORD PTR [rax+rdi+16]
	mov	DWORD PTR CodeInfo$[rsp+24], r8d
	mov	DWORD PTR i$[rbp-256], r9d
	movzx	eax, WORD PTR optable_idx[rcx+r8*2-900]
	imul	rcx, rax, 14
	lea	rax, OFFSET FLAT:InstrTable
	add	rcx, rax

; 3133 : 
; 3134 :   if (CurrSeg == NULL) {

	mov	rax, QWORD PTR ModuleInfo+432
	mov	QWORD PTR CodeInfo$[rsp+16], rcx
	test	rax, rax
	jne	SHORT $LN97@ParseLine

; 3135 :     return(EmitError(MUST_BE_IN_SEGMENT_BLOCK));

	lea	ecx, QWORD PTR [rax+82]
	call	EmitError
	jmp	$LN310@ParseLine
$LN97@ParseLine:

; 3136 :   }
; 3137 :   if (CurrSeg->e.seginfo->segtype == SEGTYPE_UNDEF) {

	mov	rax, QWORD PTR [rax+96]
	mov	QWORD PTR [rsp+632], r12
	mov	QWORD PTR [rsp+624], r13
	mov	QWORD PTR [rsp+616], r15
	cmp	DWORD PTR [rax+72], ebx
	jne	SHORT $LN98@ParseLine

; 3138 :     CurrSeg->e.seginfo->segtype = SEGTYPE_CODE;

	mov	DWORD PTR [rax+72], r14d
	mov	r9d, DWORD PTR i$[rbp-256]
	mov	r8d, DWORD PTR CodeInfo$[rsp+24]
$LN98@ParseLine:

; 3139 :   }
; 3140 :   if (ModuleInfo.CommentDataInCode)

	cmp	BYTE PTR ModuleInfo+423, bl
	je	SHORT $LN99@ParseLine

; 3141 :     omf_OutSelect(FALSE);

	xor	ecx, ecx
	call	omf_OutSelect
	mov	r9d, DWORD PTR i$[rbp-256]
	mov	r8d, DWORD PTR CodeInfo$[rsp+24]
$LN99@ParseLine:

; 3142 : 
; 3143 :   /* get the instruction's arguments.
; 3144 :    * This loop accepts up to 4 arguments if AVXSUPP is on */
; 3145 :   for (j = 0; j < sizeof(opndx) / sizeof(opndx[0]) && tokenarray[i].token != T_FINAL; j++) {

	xor	r11d, r11d
	lea	rax, QWORD PTR opndx$[rbp-192]
	lea	r15, QWORD PTR opndx$[rbp-180]
	mov	QWORD PTR tv2228[rbp-256], rax
	mov	esi, r11d
	lea	r12, QWORD PTR opndx$[rbp-240]
	sub	r15, 208				; 000000d0H
	lea	rbx, QWORD PTR opndx$[rbp-196]
	lea	r14, QWORD PTR opndx$[rbp-180]
	lea	r13, QWORD PTR opndx$[rbp-186]
	npad	6
$LL13@ParseLine:
	movsxd	rax, r9d
	shl	rax, 5
	movzx	ecx, BYTE PTR [rax+rdi]
	test	cl, cl
	je	$LN12@ParseLine

; 3146 :     if (j) {

	test	esi, esi
	je	SHORT $LN100@ParseLine

; 3147 :       if (tokenarray[i].token != T_COMMA)

	cmp	cl, 44					; 0000002cH
	jne	$LN12@ParseLine

; 3148 :         break;
; 3149 :       i++;

	inc	r9d
	mov	DWORD PTR i$[rbp-256], r9d
$LN100@ParseLine:

; 3150 :     }
; 3151 :     DebugMsg1(("ParseLine(%s): calling EvalOperand, i=%u\n", instr, i));
; 3152 :     //if (CodeInfo.token == T_VMOVSS) __debugbreak();
; 3153 :     if (EvalOperand(&i, tokenarray, Token_Count, &opndx[j], 0) == ERROR) {

	mov	r8d, DWORD PTR ModuleInfo+496
	mov	rdx, rdi
	movsxd	rax, esi
	imul	rcx, rax, 104				; 00000068H
	lea	rax, QWORD PTR opndx$[rbp-256]
	mov	BYTE PTR [rsp+32], 0
	add	rax, rcx
	lea	rcx, QWORD PTR i$[rbp-256]
	mov	r9, rax
	mov	QWORD PTR tv2241[rbp-256], rax
	call	EvalOperand
	cmp	eax, -1
	je	$LN235@ParseLine

; 3154 :       DebugMsg(("ParseLine(%s): EvalOperand() failed\n", instr));
; 3155 :       return(ERROR);
; 3156 :     }
; 3157 : 
; 3158 :     if (j == 2 && (opndx[j].kind == EXPR_REG)){

	cmp	esi, 2
	jne	SHORT $LN103@ParseLine
	cmp	DWORD PTR [rbx], esi
	jne	SHORT $LN103@ParseLine

; 3159 :       regtok = opndx[OPND3].base_reg->tokval;
; 3160 :       CodeInfo.reg3 = GetRegNo(regtok);

	mov	rax, QWORD PTR opndx$[rbp-24]
	movsxd	rcx, DWORD PTR [rax+16]
	lea	rax, QWORD PTR [rcx+rcx*2]
	lea	rcx, OFFSET FLAT:__ImageBase
	movzx	eax, BYTE PTR SpecialTable[rcx+rax*4+10]
	mov	BYTE PTR CodeInfo$[rbp-145], al
$LN103@ParseLine:

; 3161 :     }
; 3162 :     switch (opndx[j].kind) {

	mov	eax, DWORD PTR [rbx]
	cmp	eax, -2
	je	$LN111@ParseLine
	cmp	eax, -1
	je	$LN294@ParseLine
	mov	r8d, DWORD PTR CodeInfo$[rsp+24]
	cmp	eax, 3
	je	SHORT $LN104@ParseLine
	cmp	eax, 4
	je	SHORT $LN105@ParseLine
	xor	r11d, r11d
	jmp	$LN317@ParseLine
$LN104@ParseLine:

; 3163 :     case EXPR_FLOAT:
; 3164 :       /* v2.06: accept float constants for PUSH */
; 3165 :       if (j == OPND2 || CodeInfo.token == T_PUSH || CodeInfo.token == T_PUSHD) {

	cmp	esi, 1
	je	SHORT $LN106@ParseLine
	cmp	r8d, 596				; 00000254H
	je	SHORT $LN106@ParseLine
	cmp	r8d, 560				; 00000230H
	je	SHORT $LN106@ParseLine
$LN105@ParseLine:

; 3142 : 
; 3143 :   /* get the instruction's arguments.
; 3144 :    * This loop accepts up to 4 arguments if AVXSUPP is on */
; 3145 :   for (j = 0; j < sizeof(opndx) / sizeof(opndx[0]) && tokenarray[i].token != T_FINAL; j++) {

	add	r14, -104				; ffffffffffffff98H

; 3177 :       }
; 3178 : #if AVXSUPP
; 3179 :  /* here is handled EVEX Static Rounding Mode {sae}, {rn-sae}, {rd-sae}, {ru-sae}, {rz-sae} */
; 3180 :     case EXPR_DECORATOR:
; 3181 :       if (opndx[j - 1].indirect || opndx[j - 2].indirect)

	test	BYTE PTR [r14], 1
	jne	$LN229@ParseLine
	test	BYTE PTR [r15], 1
	jne	$LN229@ParseLine

; 3183 :         CodeInfo.evex_sae = opndx[j].saeflags;

	movzx	eax, BYTE PTR [r13]

; 3184 :         j--;

	dec	esi
	mov	rdx, QWORD PTR tv2228[rbp-256]
	sub	r15, 104				; 00000068H
	sub	rdx, 104				; 00000068H
	mov	BYTE PTR CodeInfo$[rbp-115], al
	sub	r13, 104				; 00000068H
	sub	rbx, 104				; 00000068H
	sub	r12, 104				; 00000068H

; 3185 :         break;

	xor	r11d, r11d
	jmp	SHORT $LN11@ParseLine
$LN106@ParseLine:

; 3166 : #if FPIMMEDIATE
; 3167 :         if (Options.strict_masm_compat == FALSE) {

	cmp	BYTE PTR Options+127, 0
	jne	$LN107@ParseLine

; 3168 :           /* convert to REAL4, unless REAL8 coercion is requested */
; 3169 :           atofloat(&opndx[j].fvalue, opndx[j].float_tok->string_ptr, opndx[j].mem_type == MT_REAL8 ? 8 : 4, opndx[j].negative, opndx[j].float_tok->floattype);

	mov	rax, QWORD PTR tv2228[rbp-256]
	mov	r8d, 4
	mov	rdx, QWORD PTR [r12]
	mov	r9d, DWORD PTR [r14]
	mov	rcx, QWORD PTR tv2241[rbp-256]
	shr	r9d, 5
	and	r9b, 1
	cmp	DWORD PTR [rax], 39			; 00000027H
	mov	eax, 8
	cmove	r8d, eax
	movzx	eax, BYTE PTR [rdx+1]
	mov	rdx, QWORD PTR [rdx+8]
	mov	BYTE PTR [rsp+32], al
	call	atofloat

; 3170 :           opndx[j].kind = EXPR_CONST;

	xor	r11d, r11d
	mov	DWORD PTR [rbx], r11d

; 3171 :           opndx[j].float_tok = NULL;

	mov	QWORD PTR [r12], r11
$LN317@ParseLine:
	mov	rdx, QWORD PTR tv2228[rbp-256]
	mov	r8d, DWORD PTR CodeInfo$[rsp+24]
$LN11@ParseLine:

; 3142 : 
; 3143 :   /* get the instruction's arguments.
; 3144 :    * This loop accepts up to 4 arguments if AVXSUPP is on */
; 3145 :   for (j = 0; j < sizeof(opndx) / sizeof(opndx[0]) && tokenarray[i].token != T_FINAL; j++) {

	mov	r9d, DWORD PTR i$[rbp-256]
	inc	esi
	add	rdx, 104				; 00000068H
	movsxd	rax, esi
	add	r15, 104				; 00000068H
	mov	QWORD PTR tv2228[rbp-256], rdx
	add	r13, 104				; 00000068H
	add	r14, 104				; 00000068H
	add	rbx, 104				; 00000068H
	add	r12, 104				; 00000068H
	cmp	rax, 4
	jb	$LL13@ParseLine
$LN12@ParseLine:

; 3195 :     }
; 3196 :   }
; 3197 :   if (tokenarray[i].token != T_FINAL) {

	movsxd	rdx, r9d
	shl	rdx, 5
	add	rdx, rdi
	cmp	BYTE PTR [rdx], 0
	je	SHORT $LN114@ParseLine

; 3198 :     DebugMsg(("ParseLine(%s): too many operands (%s) \n", instr, tokenarray[i].tokpos));
; 3199 :     return(EmitErr(SYNTAX_ERROR_EX, tokenarray[i].tokpos));

	mov	rdx, QWORD PTR [rdx+24]
	mov	ecx, 209				; 000000d1H
	call	EmitErr
	jmp	$LN313@ParseLine
$LN229@ParseLine:

; 3182 :         return(EmitError(EMBEDDED_ROUNDING_IS_AVAILABLE_ONLY_WITH_REG_REG_OP));

	mov	ecx, 21
	call	EmitError
	jmp	$LN313@ParseLine
$LN107@ParseLine:

; 3172 :           break;
; 3173 :         }
; 3174 : #endif
; 3175 :         /* Masm message is: real or BCD number not allowed */
; 3176 :         return(EmitError(FP_INITIALIZER_IGNORED));

	mov	ecx, 74					; 0000004aH
	call	EmitError
	jmp	$LN313@ParseLine
$LN294@ParseLine:

; 3190 :         i--;  /* v2.08: if there was a terminating comma, display it */

	mov	eax, DWORD PTR i$[rbp-256]
	jmp	SHORT $LN112@ParseLine
$LN111@ParseLine:

; 3186 :       /* fall through */
; 3187 : #endif
; 3188 :     case EXPR_EMPTY:
; 3189 :       if (i == Token_Count)

	mov	eax, DWORD PTR i$[rbp-256]
	cmp	eax, DWORD PTR ModuleInfo+496
	jne	SHORT $LN112@ParseLine

; 3190 :         i--;  /* v2.08: if there was a terminating comma, display it */

	dec	eax
	mov	DWORD PTR i$[rbp-256], eax
$LN112@ParseLine:

; 3191 :       /* fall through */
; 3192 :     case EXPR_ERROR:
; 3193 :       DebugMsg(("ParseLine(%s): unexpected operand kind=%d, error, exit\n", instr, opndx[j].kind));
; 3194 :       return(EmitErr(SYNTAX_ERROR_EX, tokenarray[i].string_ptr));

	movsxd	rdx, eax
	mov	ecx, 209				; 000000d1H
	shl	rdx, 5
	mov	rdx, QWORD PTR [rdx+rdi+8]
	call	EmitErr
	jmp	$LN313@ParseLine
$LN114@ParseLine:

; 3200 :   }
; 3201 :   for (CurrOpnd = 0; CurrOpnd < j && CurrOpnd < MAX_OPND; CurrOpnd++) {

	mov	ebx, r11d
	mov	r13d, -1887436800			; ffffffff8f800000H
	test	esi, esi
	je	$LN302@ParseLine
	mov	r10, QWORD PTR opndx$[rbp-128]
	npad	6
$LL18@ParseLine:
	cmp	ebx, 3
	jae	$LN303@ParseLine

; 3202 : 
; 3203 :     Frame_Type = FRAME_NONE;
; 3204 :     SegOverride = NULL; /* segreg prefix is stored in RegOverride */
; 3205 :     CodeInfo.opnd[CurrOpnd].data32l = 0;

	mov	r15d, ebx
	mov	BYTE PTR Frame_Type, 6
	mov	QWORD PTR SegOverride, r11
	lea	rax, QWORD PTR [r15+r15*2]
	mov	DWORD PTR CodeInfo$[rsp+rax*8+40], r11d

; 3206 :     CodeInfo.opnd[CurrOpnd].InsFixup = NULL;

	mov	QWORD PTR CodeInfo$[rsp+rax*8+48], r11

; 3207 : #if AVXSUPP
; 3208 :     /* if encoding is VEX and destination op is XMM, YMM or memory,
; 3209 :      * the second argument may be stored in the vexregop field.
; 3210 :      */
; 3211 :     if (CodeInfo.token >= VEX_START &&
; 3212 :       CurrOpnd == OPND2 &&

	movsxd	r8, DWORD PTR CodeInfo$[rsp+24]
	cmp	r8d, 1291				; 0000050bH
	jl	$LN308@ParseLine
	cmp	ebx, 1
	jne	$LN308@ParseLine
	test	DWORD PTR CodeInfo$[rsp+32], -1082129940 ; ffffffffbf8001ecH
	je	$LN308@ParseLine

; 3213 :       (CodeInfo.opnd[OPND1].type & (OP_R32 | OP_R64 | OP_K | OP_XMM | OP_YMM | OP_ZMM | OP_M | OP_M64 | OP_M256 | OP_M512))) {
; 3214 :       CodeInfo.indexreg = 0xFF;
; 3215 :       CodeInfo.basereg = 0xFF;
; 3216 :       if (opndx[OPND1].kind == EXPR_REG){

	cmp	DWORD PTR opndx$[rbp-196], 2

; 3217 :         regtok = opndx[OPND1].base_reg->tokval;
; 3218 :       CodeInfo.reg1 = GetRegNo(regtok);

	lea	r14, OFFSET FLAT:__ImageBase
	mov	WORD PTR CodeInfo$[rbp-144], 65535	; 0000ffffH
	jne	SHORT $LN295@ParseLine
	mov	r9, QWORD PTR opndx$[rbp-232]
	movsxd	rax, DWORD PTR [r9+16]
	lea	rcx, QWORD PTR [rax+rax*2]

; 3219 :       if (opndx[OPND1].idx_reg) CodeInfo.indexreg = opndx[OPND1].idx_reg->bytval;

	mov	rax, QWORD PTR opndx$[rbp-224]
	movzx	r11d, BYTE PTR SpecialTable[r14+rcx*4+10]
	mov	BYTE PTR CodeInfo$[rbp-147], r11b
	test	rax, rax
	je	SHORT $LN117@ParseLine
	movzx	eax, BYTE PTR [rax+1]
	mov	BYTE PTR CodeInfo$[rbp-144], al
$LN117@ParseLine:

; 3220 :       if (CodeInfo.reg1 > 15) CodeInfo.evex_flag = TRUE;

	movzx	edx, BYTE PTR CodeInfo$[rbp-120]
	cmp	r11b, 15
	mov	r12d, 1
	cmova	edx, r12d
	mov	BYTE PTR CodeInfo$[rbp-120], dl

; 3221 :       CodeInfo.r1type = GetValueSp(opndx[OPND1].base_reg->tokval);

	mov	eax, DWORD PTR [r9+16]

; 3222 :       if (CodeInfo.r1type == OP_ZMM)CodeInfo.evex_flag = TRUE;

	movzx	r9d, dl
	lea	rcx, QWORD PTR [rax+rax*2]
	mov	eax, DWORD PTR SpecialTable[r14+rcx*4]
	cmp	eax, 256				; 00000100H
	mov	DWORD PTR CodeInfo$[rbp-140], eax
	cmove	r9d, r12d
