; Listing generated by Microsoft (R) Optimizing Compiler Version 19.00.23026.0 

include listing.inc

INCLUDELIB LIBCMT
INCLUDELIB OLDNAMES

PUBLIC	stackreg
_DATA	SEGMENT
COMM	ProcStatus:DWORD
COMM	StackAdj:DWORD
COMM	StackAdjHigh:DWORD
_DATA	ENDS
_BSS	SEGMENT
$SG12496 DB	01H DUP (?)
$SG11585 DB	01H DUP (?)
$SG11615 DB	01H DUP (?)
$SG11618 DB	01H DUP (?)
$SG11637 DB	01H DUP (?)
$SG11757 DB	01H DUP (?)
_BSS	ENDS
_DATA	SEGMENT
COMM	decoflags:BYTE
COMM	broadflags:BYTE
COMM	evex:BYTE
_DATA	ENDS
_BSS	SEGMENT
$SG12090 DB	01H DUP (?)
_BSS	ENDS
_DATA	SEGMENT
COMM	CurrProc:QWORD
COMM	sym_ReservedStack:QWORD
COMM	procidx:DWORD
_DATA	ENDS
CONST	SEGMENT
fastcall_tab DQ	FLAT:ms32_pcheck
	DQ	FLAT:ms32_return
	DQ	FLAT:watc_pcheck
	DQ	FLAT:watc_return
	DQ	FLAT:ms64_pcheck
	DQ	FLAT:ms64_return
stackreg DD	0dH
	DD	015H
	DD	077H
	ORG $+4
fmtstk0	DQ	FLAT:$SG11315
	DQ	FLAT:$SG11316
fmtstk1	DQ	FLAT:$SG11318
	DQ	FLAT:$SG11319
CONST	ENDS
_DATA	SEGMENT
$SG12289 DB	'add %r, %d', 00H
	ORG $+5
$SG12290 DB	'sub %r, %d', 00H
	ORG $+1
$SG11361 DB	'::', 00H
	ORG $+1
$SG12292 DB	'push %r', 00H
$SG12293 DB	'mov %r, %s', 00H
	ORG $+1
$SG11915 DB	'dw', 00H
	ORG $+1
$SG12294 DB	'mov %r, %r', 00H
	ORG $+1
$SG11917 DB	',', 00H
	ORG $+2
$SG12296 DB	'push %r', 00H
$SG11315 DB	'sub %r, %d', 00H
	ORG $+1
$SG11316 DB	'%r %d', 00H
	ORG $+2
$SG11364 DB	'%s::%s', 00H
	ORG $+1
$SG11920 DB	'dw', 00H
	ORG $+1
$SG11318 DB	'sub %r, %d + %s', 00H
$SG11319 DB	'%r %d + %s', 00H
	ORG $+1
$SG12389 DB	'pop %r', 00H
	ORG $+1
$SG12391 DB	'pop %r', 00H
	ORG $+1
$SG11373 DB	'%d%c', 00H
	ORG $+3
$SG11391 DB	'%d%c', 00H
	ORG $+3
$SG12440 DB	'pop %r', 00H
	ORG $+1
$SG12252 DB	'%r', 00H
	ORG $+1
$SG12419 DB	'vmovdqa %r, [%r + %u + %s]', 00H
	ORG $+5
$SG12420 DB	'vmovdqa %r, [%r + %u]', 00H
	ORG $+2
$SG12426 DB	'add %r, %d + %s', 00H
$SG12427 DB	'add %r, %d + %s', 00H
$SG12428 DB	'add %r, %d', 00H
	ORG $+5
$SG12437 DB	'mov %r, [%r+%u]', 00H
$SG12450 DB	'add %r, %d + %s', 00H
$SG12452 DB	'pop %r', 00H
	ORG $+1
$SG12458 DB	'leave', 00H
	ORG $+2
$SG12463 DB	'add %r, %d', 00H
	ORG $+5
$SG12465 DB	'mov %r, %r', 00H
	ORG $+1
$SG12466 DB	'pop %r', 00H
	ORG $+5
$SG12497 DB	'%s, 0%XH, 0%XH, 0%XH, <<%s>>, <%s>', 00H
	ORG $+5
$SG12499 DB	'option epilogue:none', 0aH, 00H
	ORG $+2
$SG12530 DB	'%d%c', 00H
	ORG $+3
$SG12534 DB	'%d%c', 00H
	ORG $+3
$SG11711 DB	'PRIVATE', 00H
$SG11716 DB	'PUBLIC', 00H
	ORG $+1
$SG11718 DB	'EXPORT', 00H
	ORG $+1
$SG11730 DB	'FORCEFRAME', 00H
	ORG $+1
$SG11733 DB	'LOADDS', 00H
	ORG $+1
$SG11746 DB	'USES', 00H
	ORG $+3
$SG11905 DB	'.xdata', 00H
	ORG $+1
$SG11909 DB	'%s %r', 00H
	ORG $+6
$SG11910 DB	'%s %r align(%u) flat read ''DATA''', 00H
	ORG $+7
$SG11911 DB	'$xdatasym label near', 00H
	ORG $+3
$SG11913 DB	'db %ut + (0%xh shl 3), %ut, %ut, 0%xh + (0%xh shl 4)', 00H
	ORG $+3
$SG11916 DB	'%s 0%xh', 00H
$SG11921 DB	'%r 4', 00H
	ORG $+3
$SG11923 DB	'dd %r %s', 00H
	ORG $+3
$SG11924 DB	'%r 8', 00H
	ORG $+3
$SG11925 DB	'%s %r', 00H
	ORG $+2
$SG11928 DB	'.pdata', 00H
	ORG $+5
$SG11929 DB	'.pdata$%04u', 00H
$SG11932 DB	'%s %r', 00H
	ORG $+6
$SG11933 DB	'%s %r align(%u) flat read ''DATA''', 00H
	ORG $+7
$SG11934 DB	'dd %r %s, %r %s+0%xh, %r $xdatasym+0%xh', 00H
$SG11935 DB	'%s %r', 00H
	ORG $+2
$SG12021 DB	'CODE', 00H
	ORG $+3
$SG12087 DB	'option prologue:none', 0aH, 00H
	ORG $+2
$SG12091 DB	' (%s, 0%XH, 0%XH, 0%XH, <<%s>>, <%s>)', 00H
	ORG $+2
$SG12114 DB	'movq [%r+%u], %r', 00H
	ORG $+7
$SG12116 DB	'mov [%r+%u], %r', 00H
$SG12117 DB	'mov [%r+%u], %r', 00H
$SG12122 DB	'movq [%r+%u], %r', 00H
	ORG $+7
$SG12123 DB	'mov [%r+%u], %r', 00H
$SG12124 DB	'mov [%r+%u], %r', 00H
$SG12184 DB	'mov [%r+%u], %r', 00H
$SG12185 DB	'%r %r, %u', 00H
	ORG $+6
$SG12214 DB	'push %r', 00H
$SG12215 DB	'%r %r', 00H
	ORG $+2
$SG12216 DB	'mov %r, %r', 00H
	ORG $+5
$SG12217 DB	'%r %r, 0', 00H
	ORG $+7
$SG12225 DB	'push %r', 00H
$SG12227 DB	'%r %r', 00H
	ORG $+2
$SG12231 DB	'push %r', 00H
$SG12233 DB	'%r %r', 00H
	ORG $+2
$SG12246 DB	'vmovdqa [%r+%u+%s], %r', 00H
	ORG $+1
$SG12248 DB	'%r %r, %u+%s', 00H
	ORG $+3
$SG12249 DB	'vmovdqa [%r+%u], %r', 00H
	ORG $+4
$SG12251 DB	'%r %r, %u', 00H
	ORG $+6
$SG12278 DB	'push %r', 00H
$SG12279 DB	'mov %r, %r', 00H
	ORG $+5
$SG12283 DB	'push %r', 00H
$SG12284 DB	'sub %r, %d + %s', 00H
_DATA	ENDS
PUBLIC	__local_stdio_printf_options
PUBLIC	printf
PUBLIC	sprintf
PUBLIC	ParseProc
PUBLIC	CreateProc
PUBLIC	DeleteProc
PUBLIC	CopyPrototype
PUBLIC	RetInstr
PUBLIC	write_prologue
PUBLIC	ProcInit
PUBLIC	ProcCheckOpen
PUBLIC	LocalDir
PUBLIC	UpdateStackBase
PUBLIC	UpdateProcStatus
PUBLIC	ProcDir
PUBLIC	EndpDir
PUBLIC	ExcFrameDirective
EXTRN	__acrt_iob_func:PROC
EXTRN	__stdio_common_vfprintf:PROC
EXTRN	__stdio_common_vsprintf:PROC
EXTRN	atoi:PROC
EXTRN	_stricmp:PROC
EXTRN	EmitError:PROC
EXTRN	EmitErr:PROC
EXTRN	EmitWarn:PROC
EXTRN	AddLinnumDataRef:PROC
EXTRN	LclAlloc:PROC
EXTRN	SymAlloc:PROC
EXTRN	SymFree:PROC
EXTRN	SymCreate:PROC
EXTRN	SymLCreate:PROC
EXTRN	SymAddLocal:PROC
EXTRN	SymFind:PROC
EXTRN	SymClearLocal:PROC
EXTRN	SymSetLocal:PROC
EXTRN	SymGetLocal:PROC
EXTRN	SizeFromMemtype:PROC
EXTRN	SizeFromRegister:PROC
EXTRN	GetLangType:PROC
EXTRN	sym_add_table:PROC
EXTRN	sym_remove_table:PROC
EXTRN	sym_ext2int:PROC
EXTRN	ParseLine:PROC
EXTRN	SetSymSegOfs:PROC
EXTRN	GetSymOfssize:PROC
EXTRN	GetCurrOffset:PROC
EXTRN	GetSegIdx:PROC
EXTRN	SimGetSegName:PROC
EXTRN	AddPublicData:PROC
EXTRN	BackPatch:PROC
EXTRN	GetLineNumber:PROC
EXTRN	get_curr_srcfile:PROC
EXTRN	AddLineQueue:PROC
EXTRN	AddLineQueueX:PROC
EXTRN	RunLineQueue:PROC
EXTRN	Tokenize:PROC
EXTRN	EvalOperand:PROC
EXTRN	EmitConstError:PROC
EXTRN	GetQualifiedType:PROC
EXTRN	RunMacro:PROC
EXTRN	SkipSavedState:PROC
EXTRN	LstWrite:PROC
EXTRN	LstSetPosition:PROC
EXTRN	AlignCurrOffset:PROC
EXTRN	GetResWName:PROC
EXTRN	Options:BYTE
EXTRN	ModuleInfo:BYTE
EXTRN	Parse_Pass:DWORD
EXTRN	SymCmpFunc:QWORD
EXTRN	SymTables:BYTE
EXTRN	SpecialTable:BYTE
EXTRN	LineStoreCurr:QWORD
EXTRN	UseSavedState:BYTE
EXTRN	szDgroup:BYTE
EXTRN	list_pos:DWORD
EXTRN	__ImageBase:BYTE
_DATA	SEGMENT
COMM	?_OptionsStorage@?1??__local_stdio_printf_options@@9@9:QWORD							; `__local_stdio_printf_options'::`2'::_OptionsStorage
_DATA	ENDS
_BSS	SEGMENT
	ALIGN	8

ProcStack DQ	01H DUP (?)
endprolog_found DB 01H DUP (?)
	ALIGN	4

unw_segs_defined DB 01H DUP (?)
	ALIGN	4

unw_info DD	01H DUP (?)
unw_code DW	0102H DUP (?)
?regname@?1??watc_pcheck@@9@9 DB 040H DUP (?)		; `watc_pcheck'::`2'::regname
?regist@?1??watc_pcheck@@9@9 DB 020H DUP (?)		; `watc_pcheck'::`2'::regist
_BSS	ENDS
;	COMDAT pdata
pdata	SEGMENT
$pdata$_vfprintf_l DD imagerel $LN4
	DD	imagerel $LN4+80
	DD	imagerel $unwind$_vfprintf_l
pdata	ENDS
;	COMDAT pdata
pdata	SEGMENT
$pdata$printf DD imagerel $LN6
	DD	imagerel $LN6+83
	DD	imagerel $unwind$printf
pdata	ENDS
;	COMDAT pdata
pdata	SEGMENT
$pdata$_vsnprintf_l DD imagerel $LN4
	DD	imagerel $LN4+102
	DD	imagerel $unwind$_vsnprintf_l
pdata	ENDS
;	COMDAT pdata
pdata	SEGMENT
$pdata$_vsprintf_l DD imagerel $LN6
	DD	imagerel $LN6+98
	DD	imagerel $unwind$_vsprintf_l
pdata	ENDS
;	COMDAT pdata
pdata	SEGMENT
$pdata$sprintf DD imagerel $LN8
	DD	imagerel $LN8+90
	DD	imagerel $unwind$sprintf
pdata	ENDS
pdata	SEGMENT
$pdata$ParseProc DD imagerel $LN124
	DD	imagerel $LN124+1893
	DD	imagerel $unwind$ParseProc
$pdata$CreateProc DD imagerel $LN22
	DD	imagerel $LN22+302
	DD	imagerel $unwind$CreateProc
$pdata$DeleteProc DD imagerel $LN15
	DD	imagerel $LN15+23
	DD	imagerel $unwind$DeleteProc
$pdata$0$DeleteProc DD imagerel $LN15+23
	DD	imagerel $LN15+54
	DD	imagerel $chain$0$DeleteProc
$pdata$1$DeleteProc DD imagerel $LN15+54
	DD	imagerel $LN15+59
	DD	imagerel $chain$1$DeleteProc
$pdata$CopyPrototype DD imagerel $LN21
	DD	imagerel $LN21+302
	DD	imagerel $unwind$CopyPrototype
$pdata$RetInstr DD imagerel $LN36
	DD	imagerel $LN36+573
	DD	imagerel $unwind$RetInstr
$pdata$write_prologue DD imagerel $LN14
	DD	imagerel $LN14+198
	DD	imagerel $unwind$write_prologue
$pdata$ProcCheckOpen DD imagerel $LN60
	DD	imagerel $LN60+20
	DD	imagerel $unwind$ProcCheckOpen
$pdata$2$ProcCheckOpen DD imagerel $LN60+20
	DD	imagerel $LN60+544
	DD	imagerel $chain$2$ProcCheckOpen
$pdata$3$ProcCheckOpen DD imagerel $LN60+544
	DD	imagerel $LN60+549
	DD	imagerel $chain$3$ProcCheckOpen
$pdata$ms32_pcheck DD imagerel ms32_pcheck
	DD	imagerel ms32_pcheck+240
	DD	imagerel $unwind$ms32_pcheck
$pdata$watc_pcheck DD imagerel watc_pcheck
	DD	imagerel watc_pcheck+73
	DD	imagerel $unwind$watc_pcheck
$pdata$0$watc_pcheck DD imagerel watc_pcheck+73
	DD	imagerel watc_pcheck+211
	DD	imagerel $chain$0$watc_pcheck
$pdata$2$watc_pcheck DD imagerel watc_pcheck+211
	DD	imagerel watc_pcheck+234
	DD	imagerel $chain$2$watc_pcheck
$pdata$6$watc_pcheck DD imagerel watc_pcheck+234
	DD	imagerel watc_pcheck+255
	DD	imagerel $chain$6$watc_pcheck
$pdata$7$watc_pcheck DD imagerel watc_pcheck+255
	DD	imagerel watc_pcheck+560
	DD	imagerel $chain$7$watc_pcheck
$pdata$8$watc_pcheck DD imagerel watc_pcheck+560
	DD	imagerel watc_pcheck+672
	DD	imagerel $chain$8$watc_pcheck
$pdata$9$watc_pcheck DD imagerel watc_pcheck+672
	DD	imagerel watc_pcheck+715
	DD	imagerel $chain$9$watc_pcheck
pdata	ENDS
;	COMDAT pdata
pdata	SEGMENT
$pdata$pushitem DD imagerel pushitem
	DD	imagerel pushitem+50
	DD	imagerel $unwind$pushitem
pdata	ENDS
;	COMDAT pdata
pdata	SEGMENT
$pdata$push_proc DD imagerel push_proc
	DD	imagerel push_proc+60
	DD	imagerel $unwind$push_proc
pdata	ENDS
pdata	SEGMENT
$pdata$LocalDir DD imagerel $LN66
	DD	imagerel $LN66+74
	DD	imagerel $unwind$LocalDir
$pdata$2$LocalDir DD imagerel $LN66+74
	DD	imagerel $LN66+759
	DD	imagerel $chain$2$LocalDir
$pdata$4$LocalDir DD imagerel $LN66+759
	DD	imagerel $LN66+778
	DD	imagerel $chain$4$LocalDir
$pdata$5$LocalDir DD imagerel $LN66+778
	DD	imagerel $LN66+798
	DD	imagerel $chain$5$LocalDir
pdata	ENDS
;	COMDAT pdata
pdata	SEGMENT
$pdata$ParseParams DD imagerel ParseParams
	DD	imagerel ParseParams+100
	DD	imagerel $unwind$ParseParams
pdata	ENDS
;	COMDAT pdata
pdata	SEGMENT
$pdata$1$ParseParams DD imagerel ParseParams+100
	DD	imagerel ParseParams+157
	DD	imagerel $chain$1$ParseParams
pdata	ENDS
;	COMDAT pdata
pdata	SEGMENT
$pdata$2$ParseParams DD imagerel ParseParams+157
	DD	imagerel ParseParams+190
	DD	imagerel $chain$2$ParseParams
pdata	ENDS
;	COMDAT pdata
pdata	SEGMENT
$pdata$3$ParseParams DD imagerel ParseParams+190
	DD	imagerel ParseParams+1640
	DD	imagerel $chain$3$ParseParams
pdata	ENDS
pdata	SEGMENT
$pdata$ProcDir DD imagerel $LN47
	DD	imagerel $LN47+66
	DD	imagerel $unwind$ProcDir
$pdata$1$ProcDir DD imagerel $LN47+66
	DD	imagerel $LN47+205
	DD	imagerel $chain$1$ProcDir
$pdata$3$ProcDir DD imagerel $LN47+205
	DD	imagerel $LN47+329
	DD	imagerel $chain$3$ProcDir
$pdata$4$ProcDir DD imagerel $LN47+329
	DD	imagerel $LN47+357
	DD	imagerel $chain$4$ProcDir
$pdata$6$ProcDir DD imagerel $LN47+357
	DD	imagerel $LN47+982
	DD	imagerel $chain$6$ProcDir
pdata	ENDS
;	COMDAT pdata
pdata	SEGMENT
$pdata$WriteSEHData DD imagerel WriteSEHData
	DD	imagerel WriteSEHData+218
	DD	imagerel $unwind$WriteSEHData
pdata	ENDS
;	COMDAT pdata
pdata	SEGMENT
$pdata$0$WriteSEHData DD imagerel WriteSEHData+218
	DD	imagerel WriteSEHData+378
	DD	imagerel $chain$0$WriteSEHData
pdata	ENDS
;	COMDAT pdata
pdata	SEGMENT
$pdata$1$WriteSEHData DD imagerel WriteSEHData+378
	DD	imagerel WriteSEHData+779
	DD	imagerel $chain$1$WriteSEHData
pdata	ENDS
;	COMDAT pdata
pdata	SEGMENT
$pdata$SetLocalOffsets DD imagerel SetLocalOffsets
	DD	imagerel SetLocalOffsets+21
	DD	imagerel $unwind$SetLocalOffsets
pdata	ENDS
;	COMDAT pdata
pdata	SEGMENT
$pdata$2$SetLocalOffsets DD imagerel SetLocalOffsets+21
	DD	imagerel SetLocalOffsets+140
	DD	imagerel $chain$2$SetLocalOffsets
pdata	ENDS
;	COMDAT pdata
pdata	SEGMENT
$pdata$3$SetLocalOffsets DD imagerel SetLocalOffsets+140
	DD	imagerel SetLocalOffsets+196
	DD	imagerel $chain$3$SetLocalOffsets
pdata	ENDS
;	COMDAT pdata
pdata	SEGMENT
$pdata$4$SetLocalOffsets DD imagerel SetLocalOffsets+196
	DD	imagerel SetLocalOffsets+337
	DD	imagerel $chain$4$SetLocalOffsets
pdata	ENDS
;	COMDAT pdata
pdata	SEGMENT
$pdata$5$SetLocalOffsets DD imagerel SetLocalOffsets+337
	DD	imagerel SetLocalOffsets+488
	DD	imagerel $chain$5$SetLocalOffsets
pdata	ENDS
;	COMDAT pdata
pdata	SEGMENT
$pdata$6$SetLocalOffsets DD imagerel SetLocalOffsets+488
	DD	imagerel SetLocalOffsets+745
	DD	imagerel $chain$6$SetLocalOffsets
pdata	ENDS
;	COMDAT pdata
pdata	SEGMENT
$pdata$ProcFini DD imagerel ProcFini
	DD	imagerel ProcFini+11
	DD	imagerel $unwind$ProcFini
pdata	ENDS
;	COMDAT pdata
pdata	SEGMENT
$pdata$0$ProcFini DD imagerel ProcFini+11
	DD	imagerel ProcFini+92
	DD	imagerel $chain$0$ProcFini
pdata	ENDS
;	COMDAT pdata
pdata	SEGMENT
$pdata$1$ProcFini DD imagerel ProcFini+92
	DD	imagerel ProcFini+199
	DD	imagerel $chain$1$ProcFini
pdata	ENDS
;	COMDAT pdata
pdata	SEGMENT
$pdata$2$ProcFini DD imagerel ProcFini+199
	DD	imagerel ProcFini+363
	DD	imagerel $chain$2$ProcFini
pdata	ENDS
;	COMDAT pdata
pdata	SEGMENT
$pdata$3$ProcFini DD imagerel ProcFini+363
	DD	imagerel ProcFini+498
	DD	imagerel $chain$3$ProcFini
pdata	ENDS
pdata	SEGMENT
$pdata$EndpDir DD imagerel $LN9
	DD	imagerel $LN9+125
	DD	imagerel $unwind$EndpDir
$pdata$ExcFrameDirective DD imagerel $LN80
	DD	imagerel $LN80+157
	DD	imagerel $unwind$ExcFrameDirective
$pdata$4$ExcFrameDirective DD imagerel $LN80+157
	DD	imagerel $LN80+938
	DD	imagerel $chain$4$ExcFrameDirective
$pdata$6$ExcFrameDirective DD imagerel $LN80+938
	DD	imagerel $LN80+1491
	DD	imagerel $chain$6$ExcFrameDirective
$pdata$7$ExcFrameDirective DD imagerel $LN80+1491
	DD	imagerel $LN80+1548
	DD	imagerel $chain$7$ExcFrameDirective
pdata	ENDS
;	COMDAT pdata
pdata	SEGMENT
$pdata$write_userdef_prologue DD imagerel write_userdef_prologue
	DD	imagerel write_userdef_prologue+220
	DD	imagerel $unwind$write_userdef_prologue
pdata	ENDS
;	COMDAT pdata
pdata	SEGMENT
$pdata$4$write_userdef_prologue DD imagerel write_userdef_prologue+220
	DD	imagerel write_userdef_prologue+263
	DD	imagerel $chain$4$write_userdef_prologue
pdata	ENDS
;	COMDAT pdata
pdata	SEGMENT
$pdata$5$write_userdef_prologue DD imagerel write_userdef_prologue+263
	DD	imagerel write_userdef_prologue+344
	DD	imagerel $chain$5$write_userdef_prologue
pdata	ENDS
;	COMDAT pdata
pdata	SEGMENT
$pdata$6$write_userdef_prologue DD imagerel write_userdef_prologue+344
	DD	imagerel write_userdef_prologue+538
	DD	imagerel $chain$6$write_userdef_prologue
pdata	ENDS
;	COMDAT pdata
pdata	SEGMENT
$pdata$7$write_userdef_prologue DD imagerel write_userdef_prologue+538
	DD	imagerel write_userdef_prologue+625
	DD	imagerel $chain$7$write_userdef_prologue
pdata	ENDS
;	COMDAT pdata
pdata	SEGMENT
$pdata$win64_SaveRegParams DD imagerel win64_SaveRegParams
	DD	imagerel win64_SaveRegParams+362
	DD	imagerel $unwind$win64_SaveRegParams
pdata	ENDS
;	COMDAT pdata
pdata	SEGMENT
$pdata$win64_StoreRegHome DD imagerel win64_StoreRegHome
	DD	imagerel win64_StoreRegHome+42
	DD	imagerel $unwind$win64_StoreRegHome
pdata	ENDS
;	COMDAT pdata
pdata	SEGMENT
$pdata$1$win64_StoreRegHome DD imagerel win64_StoreRegHome+42
	DD	imagerel win64_StoreRegHome+365
	DD	imagerel $chain$1$win64_StoreRegHome
pdata	ENDS
;	COMDAT pdata
pdata	SEGMENT
$pdata$2$win64_StoreRegHome DD imagerel win64_StoreRegHome+365
	DD	imagerel win64_StoreRegHome+490
	DD	imagerel $chain$2$win64_StoreRegHome
pdata	ENDS
;	COMDAT pdata
pdata	SEGMENT
$pdata$3$win64_StoreRegHome DD imagerel win64_StoreRegHome+490
	DD	imagerel win64_StoreRegHome+500
	DD	imagerel $chain$3$win64_StoreRegHome
pdata	ENDS
;	COMDAT pdata
pdata	SEGMENT
$pdata$4$win64_StoreRegHome DD imagerel win64_StoreRegHome+500
	DD	imagerel win64_StoreRegHome+509
	DD	imagerel $chain$4$win64_StoreRegHome
pdata	ENDS
;	COMDAT pdata
pdata	SEGMENT
$pdata$write_win64_default_prologue DD imagerel write_win64_default_prologue
	DD	imagerel write_win64_default_prologue+10
	DD	imagerel $unwind$write_win64_default_prologue
pdata	ENDS
;	COMDAT pdata
pdata	SEGMENT
$pdata$3$write_win64_default_prologue DD imagerel write_win64_default_prologue+10
	DD	imagerel write_win64_default_prologue+212
	DD	imagerel $chain$3$write_win64_default_prologue
pdata	ENDS
;	COMDAT pdata
pdata	SEGMENT
$pdata$4$write_win64_default_prologue DD imagerel write_win64_default_prologue+212
	DD	imagerel write_win64_default_prologue+486
	DD	imagerel $chain$4$write_win64_default_prologue
pdata	ENDS
;	COMDAT pdata
pdata	SEGMENT
$pdata$5$write_win64_default_prologue DD imagerel write_win64_default_prologue+486
	DD	imagerel write_win64_default_prologue+545
	DD	imagerel $chain$5$write_win64_default_prologue
pdata	ENDS
;	COMDAT pdata
pdata	SEGMENT
$pdata$6$write_win64_default_prologue DD imagerel write_win64_default_prologue+545
	DD	imagerel write_win64_default_prologue+955
	DD	imagerel $chain$6$write_win64_default_prologue
pdata	ENDS
;	COMDAT pdata
pdata	SEGMENT
$pdata$write_default_prologue DD imagerel write_default_prologue
	DD	imagerel write_default_prologue+139
	DD	imagerel $unwind$write_default_prologue
pdata	ENDS
;	COMDAT pdata
pdata	SEGMENT
$pdata$0$write_default_prologue DD imagerel write_default_prologue+139
	DD	imagerel write_default_prologue+147
	DD	imagerel $chain$0$write_default_prologue
pdata	ENDS
;	COMDAT pdata
pdata	SEGMENT
$pdata$1$write_default_prologue DD imagerel write_default_prologue+147
	DD	imagerel write_default_prologue+429
	DD	imagerel $chain$1$write_default_prologue
pdata	ENDS
;	COMDAT pdata
pdata	SEGMENT
$pdata$2$write_default_prologue DD imagerel write_default_prologue+429
	DD	imagerel write_default_prologue+557
	DD	imagerel $chain$2$write_default_prologue
pdata	ENDS
;	COMDAT pdata
pdata	SEGMENT
$pdata$3$write_default_prologue DD imagerel write_default_prologue+557
	DD	imagerel write_default_prologue+691
	DD	imagerel $chain$3$write_default_prologue
pdata	ENDS
;	COMDAT pdata
pdata	SEGMENT
$pdata$pop_register DD imagerel pop_register
	DD	imagerel pop_register+20
	DD	imagerel $unwind$pop_register
pdata	ENDS
;	COMDAT pdata
pdata	SEGMENT
$pdata$2$pop_register DD imagerel pop_register+20
	DD	imagerel pop_register+140
	DD	imagerel $chain$2$pop_register
pdata	ENDS
;	COMDAT pdata
pdata	SEGMENT
$pdata$4$pop_register DD imagerel pop_register+140
	DD	imagerel pop_register+211
	DD	imagerel $chain$4$pop_register
pdata	ENDS
;	COMDAT pdata
pdata	SEGMENT
$pdata$5$pop_register DD imagerel pop_register+211
	DD	imagerel pop_register+216
	DD	imagerel $chain$5$pop_register
pdata	ENDS
;	COMDAT pdata
pdata	SEGMENT
$pdata$write_win64_default_epilogue DD imagerel write_win64_default_epilogue
	DD	imagerel write_win64_default_epilogue+6
	DD	imagerel $unwind$write_win64_default_epilogue
pdata	ENDS
;	COMDAT pdata
pdata	SEGMENT
$pdata$4$write_win64_default_epilogue DD imagerel write_win64_default_epilogue+6
	DD	imagerel write_win64_default_epilogue+611
	DD	imagerel $chain$4$write_win64_default_epilogue
pdata	ENDS
;	COMDAT pdata
pdata	SEGMENT
$pdata$5$write_win64_default_epilogue DD imagerel write_win64_default_epilogue+611
	DD	imagerel write_win64_default_epilogue+652
	DD	imagerel $chain$5$write_win64_default_epilogue
pdata	ENDS
;	COMDAT pdata
pdata	SEGMENT
$pdata$write_default_epilogue DD imagerel write_default_epilogue
	DD	imagerel write_default_epilogue+393
	DD	imagerel $unwind$write_default_epilogue
pdata	ENDS
;	COMDAT pdata
pdata	SEGMENT
$pdata$write_userdef_epilogue DD imagerel write_userdef_epilogue
	DD	imagerel write_userdef_epilogue+81
	DD	imagerel $unwind$write_userdef_epilogue
pdata	ENDS
;	COMDAT pdata
pdata	SEGMENT
$pdata$0$write_userdef_epilogue DD imagerel write_userdef_epilogue+81
	DD	imagerel write_userdef_epilogue+92
	DD	imagerel $chain$0$write_userdef_epilogue
pdata	ENDS
;	COMDAT pdata
pdata	SEGMENT
$pdata$1$write_userdef_epilogue DD imagerel write_userdef_epilogue+92
	DD	imagerel write_userdef_epilogue+211
	DD	imagerel $chain$1$write_userdef_epilogue
pdata	ENDS
;	COMDAT pdata
pdata	SEGMENT
$pdata$3$write_userdef_epilogue DD imagerel write_userdef_epilogue+211
	DD	imagerel write_userdef_epilogue+304
	DD	imagerel $chain$3$write_userdef_epilogue
pdata	ENDS
;	COMDAT pdata
pdata	SEGMENT
$pdata$4$write_userdef_epilogue DD imagerel write_userdef_epilogue+304
	DD	imagerel write_userdef_epilogue+438
	DD	imagerel $chain$4$write_userdef_epilogue
pdata	ENDS
;	COMDAT pdata
pdata	SEGMENT
$pdata$5$write_userdef_epilogue DD imagerel write_userdef_epilogue+438
	DD	imagerel write_userdef_epilogue+515
	DD	imagerel $chain$5$write_userdef_epilogue
pdata	ENDS
;	COMDAT pdata
pdata	SEGMENT
$pdata$6$write_userdef_epilogue DD imagerel write_userdef_epilogue+515
	DD	imagerel write_userdef_epilogue+546
	DD	imagerel $chain$6$write_userdef_epilogue
pdata	ENDS
CONST	SEGMENT
ms32_regs16 DD	09H
	DD	0bH
	DD	0cH
	ORG $+4
ms32_regs32 DD	012H
	DD	013H
ms32_maxreg DD	03H
	DD	02H
watc_regs8 DD	01H
	DD	03H
	DD	04H
	DD	02H
watc_regs16 DD	09H
	DD	0bH
	DD	0cH
	DD	0aH
watc_regs32 DD	011H
	DD	013H
	DD	014H
	DD	012H
watc_regs_qw DD	09H
	DD	0cH
	DD	0aH
	DD	0bH
ms64_regs DD	074H
	DD	075H
	DD	07bH
	DD	07cH
CONST	ENDS
;	COMDAT xdata
xdata	SEGMENT
$chain$6$write_userdef_epilogue DD 021H
	DD	imagerel write_userdef_epilogue
	DD	imagerel write_userdef_epilogue+81
	DD	imagerel $unwind$write_userdef_epilogue
xdata	ENDS
;	COMDAT xdata
xdata	SEGMENT
$chain$5$write_userdef_epilogue DD 021H
	DD	imagerel write_userdef_epilogue+81
	DD	imagerel write_userdef_epilogue+92
	DD	imagerel $chain$0$write_userdef_epilogue
xdata	ENDS
;	COMDAT xdata
xdata	SEGMENT
$chain$4$write_userdef_epilogue DD 021H
	DD	imagerel write_userdef_epilogue+92
	DD	imagerel write_userdef_epilogue+211
	DD	imagerel $chain$1$write_userdef_epilogue
xdata	ENDS
;	COMDAT xdata
xdata	SEGMENT
$chain$3$write_userdef_epilogue DD 041021H
	DD	06b7410H
	DD	06a6408H
	DD	imagerel write_userdef_epilogue+92
	DD	imagerel write_userdef_epilogue+211
	DD	imagerel $chain$1$write_userdef_epilogue
xdata	ENDS
;	COMDAT xdata
xdata	SEGMENT
$chain$1$write_userdef_epilogue DD 020821H
	DD	064f408H
	DD	imagerel write_userdef_epilogue+81
	DD	imagerel write_userdef_epilogue+92
	DD	imagerel $chain$0$write_userdef_epilogue
xdata	ENDS
;	COMDAT xdata
xdata	SEGMENT
$chain$0$write_userdef_epilogue DD 020821H
	DD	06dd408H
	DD	imagerel write_userdef_epilogue
	DD	imagerel write_userdef_epilogue+81
	DD	imagerel $unwind$write_userdef_epilogue
xdata	ENDS
;	COMDAT xdata
xdata	SEGMENT
$unwind$write_userdef_epilogue DD 060e01H
	DD	065010eH
	DD	0c005e007H
	DD	030025003H
xdata	ENDS
;	COMDAT xdata
xdata	SEGMENT
$unwind$write_default_epilogue DD 040a01H
	DD	06340aH
	DD	07006320aH
xdata	ENDS
;	COMDAT xdata
xdata	SEGMENT
$chain$5$write_win64_default_epilogue DD 021H
	DD	imagerel write_win64_default_epilogue
	DD	imagerel write_win64_default_epilogue+6
	DD	imagerel $unwind$write_win64_default_epilogue
xdata	ENDS
;	COMDAT xdata
xdata	SEGMENT
$chain$4$write_win64_default_epilogue DD 0a2121H
	DD	06f421H
	DD	077419H
	DD	0c6414H
	DD	0b540dH
	DD	0a3405H
	DD	imagerel write_win64_default_epilogue
	DD	imagerel write_win64_default_epilogue+6
	DD	imagerel $unwind$write_win64_default_epilogue
xdata	ENDS
;	COMDAT xdata
xdata	SEGMENT
$unwind$write_win64_default_epilogue DD 020601H
	DD	0e0027206H
xdata	ENDS
;	COMDAT xdata
xdata	SEGMENT
$chain$5$pop_register DD 021H
	DD	imagerel pop_register
	DD	imagerel pop_register+20
	DD	imagerel $unwind$pop_register
xdata	ENDS
;	COMDAT xdata
xdata	SEGMENT
$chain$4$pop_register DD 060021H
	DD	047400H
	DD	076400H
	DD	063400H
	DD	imagerel pop_register
	DD	imagerel pop_register+20
	DD	imagerel $unwind$pop_register
xdata	ENDS
;	COMDAT xdata
xdata	SEGMENT
$chain$2$pop_register DD 061221H
	DD	047412H
	DD	07640dH
	DD	063405H
	DD	imagerel pop_register
	DD	imagerel pop_register+20
	DD	imagerel $unwind$pop_register
xdata	ENDS
;	COMDAT xdata
xdata	SEGMENT
$unwind$pop_register DD 010401H
	DD	04204H
xdata	ENDS
;	COMDAT xdata
xdata	SEGMENT
$chain$3$write_default_prologue DD 021H
	DD	imagerel write_default_prologue
	DD	imagerel write_default_prologue+139
	DD	imagerel $unwind$write_default_prologue
xdata	ENDS
;	COMDAT xdata
xdata	SEGMENT
$chain$2$write_default_prologue DD 021H
	DD	imagerel write_default_prologue+139
	DD	imagerel write_default_prologue+147
	DD	imagerel $chain$0$write_default_prologue
xdata	ENDS
;	COMDAT xdata
xdata	SEGMENT
$chain$1$write_default_prologue DD 020521H
	DD	07e405H
	DD	imagerel write_default_prologue+139
	DD	imagerel write_default_prologue+147
	DD	imagerel $chain$0$write_default_prologue
xdata	ENDS
;	COMDAT xdata
xdata	SEGMENT
$chain$0$write_default_prologue DD 020521H
	DD	067405H
	DD	imagerel write_default_prologue
	DD	imagerel write_default_prologue+139
	DD	imagerel $unwind$write_default_prologue
xdata	ENDS
;	COMDAT xdata
xdata	SEGMENT
$unwind$write_default_prologue DD 040a01H
	DD	08340aH
	DD	06006320aH
xdata	ENDS
;	COMDAT xdata
xdata	SEGMENT
$chain$6$write_win64_default_prologue DD 060021H
	DD	0e6400H
	DD	0d5400H
	DD	0c3400H
	DD	imagerel write_win64_default_prologue
	DD	imagerel write_win64_default_prologue+10
	DD	imagerel $unwind$write_win64_default_prologue
xdata	ENDS
;	COMDAT xdata
xdata	SEGMENT
$chain$5$write_win64_default_prologue DD 021H
	DD	imagerel write_win64_default_prologue+10
	DD	imagerel write_win64_default_prologue+212
	DD	imagerel $chain$3$write_win64_default_prologue
xdata	ENDS
;	COMDAT xdata
xdata	SEGMENT
$chain$4$write_win64_default_prologue DD 020521H
	DD	06e405H
	DD	imagerel write_win64_default_prologue+10
	DD	imagerel write_win64_default_prologue+212
	DD	imagerel $chain$3$write_win64_default_prologue
xdata	ENDS
;	COMDAT xdata
xdata	SEGMENT
$chain$3$write_win64_default_prologue DD 08c721H
	DD	0e64c7H
	DD	0d54c2H
	DD	0c34baH
	DD	07d405H
	DD	imagerel write_win64_default_prologue
	DD	imagerel write_win64_default_prologue+10
	DD	imagerel $unwind$write_win64_default_prologue
xdata	ENDS
;	COMDAT xdata
xdata	SEGMENT
$unwind$write_win64_default_prologue DD 040a01H
	DD	0f006720aH
	DD	07002c004H
xdata	ENDS
;	COMDAT xdata
xdata	SEGMENT
$chain$4$win64_StoreRegHome DD 021H
	DD	imagerel win64_StoreRegHome
	DD	imagerel win64_StoreRegHome+42
	DD	imagerel $unwind$win64_StoreRegHome
xdata	ENDS
;	COMDAT xdata
xdata	SEGMENT
$chain$3$win64_StoreRegHome DD 021H
	DD	imagerel win64_StoreRegHome+42
	DD	imagerel win64_StoreRegHome+365
	DD	imagerel $chain$1$win64_StoreRegHome
xdata	ENDS
;	COMDAT xdata
xdata	SEGMENT
$chain$2$win64_StoreRegHome DD 020521H
	DD	095405H
	DD	imagerel win64_StoreRegHome+42
	DD	imagerel win64_StoreRegHome+365
	DD	imagerel $chain$1$win64_StoreRegHome
xdata	ENDS
;	COMDAT xdata
xdata	SEGMENT
$chain$1$win64_StoreRegHome DD 040a21H
	DD	0af40aH
	DD	083405H
	DD	imagerel win64_StoreRegHome
	DD	imagerel win64_StoreRegHome+42
	DD	imagerel $unwind$win64_StoreRegHome
xdata	ENDS
;	COMDAT xdata
xdata	SEGMENT
$unwind$win64_StoreRegHome DD 040901H
	DD	0e0053209H
	DD	060027003H
xdata	ENDS
;	COMDAT xdata
xdata	SEGMENT
$unwind$win64_SaveRegParams DD 0a1801H
	DD	0a6418H
	DD	095418H
	DD	083418H
	DD	0f0143218H
	DD	07010e012H
xdata	ENDS
;	COMDAT xdata
xdata	SEGMENT
$chain$7$write_userdef_prologue DD 021H
	DD	imagerel write_userdef_prologue
	DD	imagerel write_userdef_prologue+220
	DD	imagerel $unwind$write_userdef_prologue
xdata	ENDS
;	COMDAT xdata
xdata	SEGMENT
$chain$6$write_userdef_prologue DD 021H
	DD	imagerel write_userdef_prologue+220
	DD	imagerel write_userdef_prologue+263
	DD	imagerel $chain$4$write_userdef_prologue
xdata	ENDS
;	COMDAT xdata
xdata	SEGMENT
$chain$5$write_userdef_prologue DD 020821H
	DD	06d7408H
	DD	imagerel write_userdef_prologue+220
	DD	imagerel write_userdef_prologue+263
	DD	imagerel $chain$4$write_userdef_prologue
xdata	ENDS
;	COMDAT xdata
xdata	SEGMENT
$chain$4$write_userdef_prologue DD 041021H
	DD	06c6410H
	DD	06a3408H
	DD	imagerel write_userdef_prologue
	DD	imagerel write_userdef_prologue+220
	DD	imagerel $unwind$write_userdef_prologue
xdata	ENDS
;	COMDAT xdata
xdata	SEGMENT
$unwind$write_userdef_prologue DD 0a5901H
	DD	064f459H
	DD	065e44dH
	DD	066d442H
	DD	067010bH
	DD	05002c004H
xdata	ENDS
;	COMDAT xdata
xdata	SEGMENT
$chain$3$ProcFini DD 021H
	DD	imagerel ProcFini
	DD	imagerel ProcFini+11
	DD	imagerel $unwind$ProcFini
xdata	ENDS
;	COMDAT xdata
xdata	SEGMENT
$chain$2$ProcFini DD 021H
	DD	imagerel ProcFini+11
	DD	imagerel ProcFini+92
	DD	imagerel $chain$0$ProcFini
xdata	ENDS
;	COMDAT xdata
xdata	SEGMENT
$chain$1$ProcFini DD 020521H
	DD	063405H
	DD	imagerel ProcFini+11
	DD	imagerel ProcFini+92
	DD	imagerel $chain$0$ProcFini
xdata	ENDS
;	COMDAT xdata
xdata	SEGMENT
$chain$0$ProcFini DD 020521H
	DD	047405H
	DD	imagerel ProcFini
	DD	imagerel ProcFini+11
	DD	imagerel $unwind$ProcFini
xdata	ENDS
;	COMDAT xdata
xdata	SEGMENT
$unwind$ProcFini DD 010401H
	DD	04204H
xdata	ENDS
;	COMDAT xdata
xdata	SEGMENT
$chain$6$SetLocalOffsets DD 021H
	DD	imagerel SetLocalOffsets
	DD	imagerel SetLocalOffsets+21
	DD	imagerel $unwind$SetLocalOffsets
xdata	ENDS
;	COMDAT xdata
xdata	SEGMENT
$chain$5$SetLocalOffsets DD 020021H
	DD	086400H
	DD	imagerel SetLocalOffsets
	DD	imagerel SetLocalOffsets+21
	DD	imagerel $unwind$SetLocalOffsets
xdata	ENDS
;	COMDAT xdata
xdata	SEGMENT
$chain$4$SetLocalOffsets DD 021H
	DD	imagerel SetLocalOffsets+21
	DD	imagerel SetLocalOffsets+140
	DD	imagerel $chain$2$SetLocalOffsets
xdata	ENDS
;	COMDAT xdata
xdata	SEGMENT
$chain$3$SetLocalOffsets DD 020421H
	DD	0c404H
	DD	imagerel SetLocalOffsets+21
	DD	imagerel SetLocalOffsets+140
	DD	imagerel $chain$2$SetLocalOffsets
xdata	ENDS
;	COMDAT xdata
xdata	SEGMENT
$chain$2$SetLocalOffsets DD 061e21H
	DD	01741eH
	DD	086416H
	DD	073405H
	DD	imagerel SetLocalOffsets
	DD	imagerel SetLocalOffsets+21
	DD	imagerel $unwind$SetLocalOffsets
xdata	ENDS
;	COMDAT xdata
xdata	SEGMENT
$unwind$SetLocalOffsets DD 040a01H
	DD	0f006120aH
	DD	05002e004H
xdata	ENDS
;	COMDAT xdata
xdata	SEGMENT
$chain$1$WriteSEHData DD 021H
	DD	imagerel WriteSEHData
	DD	imagerel WriteSEHData+218
	DD	imagerel $unwind$WriteSEHData
xdata	ENDS
;	COMDAT xdata
xdata	SEGMENT
$chain$0$WriteSEHData DD 020821H
	DD	01d7408H
	DD	imagerel WriteSEHData
	DD	imagerel WriteSEHData+218
	DD	imagerel $unwind$WriteSEHData
xdata	ENDS
;	COMDAT xdata
xdata	SEGMENT
$unwind$WriteSEHData DD 071201H
	DD	01f5412H
	DD	01e3412H
	DD	01a0112H
	DD	0600bH
xdata	ENDS
;	COMDAT xdata
xdata	SEGMENT
$chain$3$ParseParams DD 040021H
	DD	0bc400H
	DD	0c6400H
	DD	imagerel ParseParams
	DD	imagerel ParseParams+100
	DD	imagerel $unwind$ParseParams
xdata	ENDS
;	COMDAT xdata
xdata	SEGMENT
$chain$2$ParseParams DD 021H
	DD	imagerel ParseParams
	DD	imagerel ParseParams+100
	DD	imagerel $unwind$ParseParams
xdata	ENDS
;	COMDAT xdata
xdata	SEGMENT
$chain$1$ParseParams DD 041421H
	DD	0bc414H
	DD	0c6405H
	DD	imagerel ParseParams
	DD	imagerel ParseParams+100
	DD	imagerel $unwind$ParseParams
xdata	ENDS
;	COMDAT xdata
xdata	SEGMENT
$unwind$ParseParams DD 071e01H
	DD	0f017c21eH
	DD	0d013e015H
	DD	030107011H
	DD	0500fH
xdata	ENDS
;	COMDAT xdata
xdata	SEGMENT
$unwind$push_proc DD 020601H
	DD	030023206H
xdata	ENDS
;	COMDAT xdata
xdata	SEGMENT
$unwind$pushitem DD 040a01H
	DD	06340aH
	DD	07006320aH
xdata	ENDS
xdata	SEGMENT
$unwind$ParseProc DD 0aea01H
	DD	0ee4eaH
	DD	0f013321aH
	DD	0c00fd011H
	DD	0600c700dH
	DD	0500a300bH
$unwind$CreateProc DD 060f01H
	DD	07640fH
	DD	06340fH
	DD	0700b320fH
$unwind$DeleteProc DD 010401H
	DD	04204H
$chain$0$DeleteProc DD 020521H
	DD	043405H
	DD	imagerel $LN15
	DD	imagerel $LN15+23
	DD	imagerel $unwind$DeleteProc
$chain$1$DeleteProc DD 021H
	DD	imagerel $LN15
	DD	imagerel $LN15+23
	DD	imagerel $unwind$DeleteProc
$unwind$CopyPrototype DD 062a01H
	DD	07642aH
	DD	063425H
	DD	070023206H
$unwind$RetInstr DD 0b1d01H
	DD	055741dH
	DD	054641dH
	DD	053541dH
	DD	052341dH
	DD	050011dH
	DD	0e016H
$unwind$write_prologue DD 020601H
	DD	030023206H
$unwind$ProcCheckOpen DD 010401H
	DD	04204H
$chain$2$ProcCheckOpen DD 061121H
	DD	047411H
	DD	07640aH
	DD	063405H
	DD	imagerel $LN60
	DD	imagerel $LN60+20
	DD	imagerel $unwind$ProcCheckOpen
$chain$3$ProcCheckOpen DD 021H
	DD	imagerel $LN60
	DD	imagerel $LN60+20
	DD	imagerel $unwind$ProcCheckOpen
$unwind$ms32_pcheck DD 040a01H
	DD	0a340aH
	DD	07006720aH
$unwind$watc_pcheck DD 050b01H
	DD	0d007420bH
	DD	05003c005H
	DD	03002H
$chain$0$watc_pcheck DD 020521H
	DD	0ce405H
	DD	imagerel watc_pcheck
	DD	imagerel watc_pcheck+73
	DD	imagerel $unwind$watc_pcheck
$chain$2$watc_pcheck DD 020021H
	DD	0ce400H
	DD	imagerel watc_pcheck
	DD	imagerel watc_pcheck+73
	DD	imagerel $unwind$watc_pcheck
$chain$6$watc_pcheck DD 060e21H
	DD	0b740eH
	DD	0a6405H
	DD	0ce400H
	DD	imagerel watc_pcheck
	DD	imagerel watc_pcheck+73
	DD	imagerel $unwind$watc_pcheck
$chain$7$watc_pcheck DD 020521H
	DD	04f405H
	DD	imagerel watc_pcheck+234
	DD	imagerel watc_pcheck+255
	DD	imagerel $chain$6$watc_pcheck
$chain$8$watc_pcheck DD 021H
	DD	imagerel watc_pcheck+234
	DD	imagerel watc_pcheck+255
	DD	imagerel $chain$6$watc_pcheck
$chain$9$watc_pcheck DD 040021H
	DD	0b7400H
	DD	0ce400H
	DD	imagerel watc_pcheck
	DD	imagerel watc_pcheck+73
	DD	imagerel $unwind$watc_pcheck
$unwind$LocalDir DD 041201H
	DD	0190112H
	DD	050057006H
$chain$2$LocalDir DD 064321H
	DD	01d3443H
	DD	018e414H
	DD	01e6408H
	DD	imagerel $LN66
	DD	imagerel $LN66+74
	DD	imagerel $unwind$LocalDir
$chain$4$LocalDir DD 060021H
	DD	018e400H
	DD	01e6400H
	DD	01d3400H
	DD	imagerel $LN66
	DD	imagerel $LN66+74
	DD	imagerel $unwind$LocalDir
$chain$5$LocalDir DD 021H
	DD	imagerel $LN66
	DD	imagerel $LN66+74
	DD	imagerel $unwind$LocalDir
$unwind$ProcDir DD 020601H
	DD	050025206H
$chain$1$ProcDir DD 041121H
	DD	096411H
	DD	083405H
	DD	imagerel $LN47
	DD	imagerel $LN47+66
	DD	imagerel $unwind$ProcDir
$chain$3$ProcDir DD 040d21H
	DD	0be40dH
	DD	0a7405H
	DD	imagerel $LN47+66
	DD	imagerel $LN47+205
	DD	imagerel $chain$1$ProcDir
$chain$4$ProcDir DD 021H
	DD	imagerel $LN47+66
	DD	imagerel $LN47+205
	DD	imagerel $chain$1$ProcDir
$chain$6$ProcDir DD 080021H
	DD	0be400H
	DD	0a7400H
	DD	096400H
	DD	083400H
	DD	imagerel $LN47
	DD	imagerel $LN47+66
	DD	imagerel $unwind$ProcDir
$unwind$EndpDir DD 020601H
	DD	030023206H
$unwind$ExcFrameDirective DD 051501H
	DD	0160115H
	DD	0d007f009H
	DD	05005H
$chain$4$ExcFrameDirective DD 0a3321H
	DD	014e433H
	DD	015c42bH
	DD	01d7423H
	DD	01c6410H
	DD	01b3408H
	DD	imagerel $LN80
	DD	imagerel $LN80+157
	DD	imagerel $unwind$ExcFrameDirective
$chain$6$ExcFrameDirective DD 0a0021H
	DD	014e400H
	DD	015c400H
	DD	01d7400H
	DD	01c6400H
	DD	01b3400H
	DD	imagerel $LN80
	DD	imagerel $LN80+157
	DD	imagerel $unwind$ExcFrameDirective
$chain$7$ExcFrameDirective DD 021H
	DD	imagerel $LN80
	DD	imagerel $LN80+157
	DD	imagerel $unwind$ExcFrameDirective
xdata	ENDS
;	COMDAT xdata
xdata	SEGMENT
$unwind$sprintf DD 041601H
	DD	070125216H
	DD	030106011H
xdata	ENDS
;	COMDAT xdata
xdata	SEGMENT
$unwind$_vsprintf_l DD 081401H
	DD	0a6414H
	DD	095414H
	DD	083414H
	DD	070105214H
xdata	ENDS
;	COMDAT xdata
xdata	SEGMENT
$unwind$_vsnprintf_l DD 081401H
	DD	0a6414H
	DD	095414H
	DD	083414H
	DD	070105214H
xdata	ENDS
;	COMDAT xdata
xdata	SEGMENT
$unwind$printf DD 041b01H
	DD	07017521bH
	DD	030156016H
xdata	ENDS
;	COMDAT xdata
xdata	SEGMENT
$unwind$_vfprintf_l DD 081401H
	DD	0a6414H
	DD	095414H
	DD	083414H
	DD	070105214H
xdata	ENDS
; Function compile flags: /Ogtpy
; File d:\hjwasm\hjwasm2.13.1s\hjwasm2.13.1s\proc.c
;	COMDAT write_userdef_epilogue
_TEXT	SEGMENT
reglst$ = 64
buffer$ = 192
flag_iret$ = 848
tokenarray$ = 856
is_exitm$ = 864
write_userdef_epilogue PROC				; COMDAT

; 3096 : {

	push	rbx
	push	rbp
	push	r12
	push	r14
	sub	rsp, 808				; 00000328H

; 3097 :     uint_16 *regs;
; 3098 :     int i;
; 3099 :     char *p;
; 3100 :     bool is_exitm;
; 3101 :     struct proc_info   *info;
; 3102 :     int flags = CurrProc->sym.langtype; /* set bits 0-2 */

	mov	rax, QWORD PTR CurrProc
	movzx	ebx, cl

; 3103 :     struct dsym *dir;
; 3104 :     char reglst[128];
; 3105 :     char buffer[MAX_LINE_LEN]; /* stores string for RunMacro() */
; 3106 : 
; 3107 :     dir = (struct dsym *)SymSearch( ModuleInfo.proc_epilogue );

	mov	rcx, QWORD PTR ModuleInfo+328
	mov	r12, rdx
	mov	ebp, DWORD PTR [rax+76]
	call	SymFind
	mov	r14, rax

; 3108 :     if (dir == NULL ||
; 3109 :         dir->sym.state != SYM_MACRO ||

	test	rax, rax
	je	$LN6@write_user
	cmp	DWORD PTR [rax+32], 9
	jne	$LN6@write_user
	test	BYTE PTR [rax+44], 2
	jne	$LN6@write_user

; 3112 :     }
; 3113 : 
; 3114 :     info = CurrProc->e.procinfo;

	mov	rdx, QWORD PTR CurrProc
	mov	QWORD PTR [rsp+872], r13

; 3115 : 
; 3116 : #if AMD64_SUPPORT
; 3117 :     /* to be compatible with ML64, translate FASTCALL to 0 (not 7) */
; 3118 :     if ( CurrProc->sym.langtype == LANG_FASTCALL && ModuleInfo.fctype == FCT_WIN64 )

	xor	r13d, r13d
	mov	QWORD PTR [rsp+800], r15
	mov	ecx, DWORD PTR [rdx+76]
	mov	r15, QWORD PTR [rdx+96]
	cmp	ecx, 7
	jne	SHORT $LN7@write_user
	cmp	DWORD PTR ModuleInfo+376, 2
	cmove	ebp, r13d
$LN7@write_user:
	lea	eax, DWORD PTR [rcx-1]
	cmp	eax, 1
	jbe	SHORT $LN9@write_user
	cmp	ecx, 7
	jne	SHORT $LN8@write_user
$LN9@write_user:

; 3119 :         flags = 0;
; 3120 : #endif
; 3121 :     if ( CurrProc->sym.langtype == LANG_C ||
; 3122 :          CurrProc->sym.langtype == LANG_SYSCALL ||
; 3123 :          CurrProc->sym.langtype == LANG_FASTCALL)
; 3124 :         flags |= 0x10;

	or	ebp, 16
$LN8@write_user:

; 3125 : 
; 3126 :     flags |= ( CurrProc->sym.mem_type == MT_FAR ? 0x20 : 0 );
; 3127 :     flags |= ( CurrProc->sym.ispublic ? 0 : 0x40 );
; 3128 :     /* v2.11: set bit 7, the export flag */
; 3129 :     flags |= ( info->isexport ? 0x80 : 0 );
; 3130 :     flags |= flag_iret ? 0x100 : 0;  /* bit 8: 1 if IRET    */

	movzx	ecx, BYTE PTR [rdx+40]
	mov	r8d, 32					; 00000020H
	movzx	eax, BYTE PTR [r15+84]
	not	cl
	shr	ecx, 1
	and	eax, 4
	shl	eax, 5
	and	ecx, 64					; 00000040H
	or	ecx, eax
	mov	eax, r13d
	cmp	DWORD PTR [rdx+36], 130			; 00000082H
	cmove	eax, r8d
	or	ecx, eax
	neg	bl

; 3131 : 
; 3132 :     p = reglst;

	lea	rbx, QWORD PTR reglst$[rsp]
	sbb	eax, eax
	and	eax, 256				; 00000100H
	or	ecx, eax
	or	ebp, ecx

; 3133 :     if ( info->regslist ) {

	mov	rcx, QWORD PTR [r15]
	test	rcx, rcx
	je	SHORT $LN3@write_user

; 3134 :         int cnt = *info->regslist;

	mov	QWORD PTR [rsp+848], rsi
	mov	QWORD PTR [rsp+856], rdi
	movzx	edi, WORD PTR [rcx]

; 3135 :         regs = info->regslist + cnt;

	lea	rsi, QWORD PTR [rcx+rdi*2]

; 3136 :         for ( ; cnt; regs--, cnt-- ) {

	test	edi, edi
	je	SHORT $LN23@write_user
	npad	2
$LL4@write_user:

; 3137 :             GetResWName( *regs, p );

	movzx	ecx, WORD PTR [rsi]
	mov	rdx, rbx
	call	GetResWName

; 3138 :             p += strlen( p );

	or	rax, -1
	npad	1
$LL21@write_user:
	inc	rax
	cmp	BYTE PTR [rbx+rax], r13b
	jne	SHORT $LL21@write_user
	add	rbx, rax

; 3139 :             if ( cnt != 1 )

	cmp	edi, 1
	je	SHORT $LN2@write_user

; 3140 :                 *p++ = ',';

	mov	BYTE PTR [rbx], 44			; 0000002cH
	inc	rbx
$LN2@write_user:

; 3136 :         for ( ; cnt; regs--, cnt-- ) {

	sub	rsi, 2
	sub	edi, 1
	jne	SHORT $LL4@write_user
$LN23@write_user:
	mov	rsi, QWORD PTR [rsp+848]
	mov	rdi, QWORD PTR [rsp+856]
$LN3@write_user:

; 3141 :         }
; 3142 :     }
; 3143 :     *p = NULLC;

	mov	BYTE PTR [rbx], r13b

; 3144 :     //strcat( reglst, ">" );
; 3145 : 
; 3146 :     /* v2.07: make the numeric arguments more Masm-compatible */
; 3147 :     //sprintf( buffer,"%s %s, %02XH, %02XH, %02XH, <<%s>>, <%s>", ModuleInfo.proc_epilogue,
; 3148 :     sprintf( buffer,"%s, 0%XH, 0%XH, 0%XH, <<%s>>, <%s>",

	lea	rcx, OFFSET FLAT:$SG12496
	mov	rax, QWORD PTR [r15+40]
	lea	rdx, OFFSET FLAT:$SG12497
	mov	r8, QWORD PTR CurrProc
	test	rax, rax
	mov	r9d, ebp
	cmovne	rcx, rax
	lea	rax, QWORD PTR reglst$[rsp]
	mov	QWORD PTR [rsp+56], rcx
	lea	rcx, QWORD PTR buffer$[rsp]
	mov	r8, QWORD PTR [r8+8]
	mov	QWORD PTR [rsp+48], rax
	mov	eax, DWORD PTR [r15+36]
	mov	DWORD PTR [rsp+40], eax
	mov	eax, DWORD PTR [r15+32]
	mov	DWORD PTR [rsp+32], eax
	call	sprintf

; 3149 :             CurrProc->sym.name, flags, info->parasize, info->localsize,
; 3150 :             reglst, info->prologuearg ? info->prologuearg : "" );
; 3151 :     i = Token_Count + 1;

	mov	ebx, DWORD PTR ModuleInfo+496

; 3152 :     Tokenize( buffer, i, tokenarray, TOK_RESCAN );

	lea	rcx, QWORD PTR buffer$[rsp]
	mov	r9d, 1
	mov	r8, r12
	lea	edx, DWORD PTR [rbx+1]
	call	Tokenize

; 3153 : 
; 3154 :     /* if -EP is on, emit "epilogue: none" */
; 3155 :     if ( Options.preprocessor_stdout )

	cmp	BYTE PTR Options+125, r13b
	mov	r15, QWORD PTR [rsp+800]
	je	SHORT $LN12@write_user

; 3156 :         printf( "option epilogue:none\n" );

	lea	rcx, OFFSET FLAT:$SG12499
	call	printf
$LN12@write_user:

; 3157 : 
; 3158 :     RunMacro( dir, i, tokenarray, NULL, 0, &is_exitm );

	lea	rax, QWORD PTR is_exitm$[rsp]
	xor	r9d, r9d
	mov	QWORD PTR [rsp+40], rax
	lea	edx, DWORD PTR [rbx+1]
	mov	r8, r12
	mov	DWORD PTR [rsp+32], r13d
	mov	rcx, r14
	call	RunMacro
	mov	r13, QWORD PTR [rsp+872]

; 3159 :     Token_Count = i - 1;
; 3160 :     return( NOT_ERROR );

	xor	eax, eax
	mov	DWORD PTR ModuleInfo+496, ebx

; 3161 : }

	add	rsp, 808				; 00000328H
	pop	r14
	pop	r12
	pop	rbp
	pop	rbx
	ret	0
$LN6@write_user:

; 3110 :         dir->sym.isfunc == TRUE ) {
; 3111 :         return( EmitErr( EPILOGUE_MUST_BE_MACRO_PROC, ModuleInfo.proc_epilogue ) );

	mov	rdx, QWORD PTR ModuleInfo+328
	mov	ecx, 157				; 0000009dH
	call	EmitErr

; 3161 : }

	add	rsp, 808				; 00000328H
	pop	r14
	pop	r12
	pop	rbp
	pop	rbx
	ret	0
write_userdef_epilogue ENDP
_TEXT	ENDS
; Function compile flags: /Ogtpy
; File d:\hjwasm\hjwasm2.13.1s\hjwasm2.13.1s\proc.c
;	COMDAT write_default_epilogue
_TEXT	SEGMENT
write_default_epilogue PROC				; COMDAT

; 3007 : {

	mov	QWORD PTR [rsp+8], rbx
	push	rdi
	sub	rsp, 32					; 00000020H

; 3008 :     struct proc_info   *info;
; 3009 : #if AMD64_SUPPORT
; 3010 :     int resstack = 0;
; 3011 : #endif
; 3012 : 
; 3013 :     info = CurrProc->e.procinfo;

	mov	rcx, QWORD PTR CurrProc
	xor	edi, edi
	mov	rbx, QWORD PTR [rcx+96]

; 3014 : 
; 3015 : #if AMD64_SUPPORT
; 3016 :     if ( info->isframe ) {

	test	BYTE PTR [rbx+84], 64			; 00000040H
	je	SHORT $LN2@write_defa

; 3017 :         if ( ModuleInfo.frame_auto )

	test	DWORD PTR ModuleInfo+408, 131072	; 00020000H
	je	$LN10@write_defa

; 3018 :             write_win64_default_epilogue( info );

	mov	rcx, rbx

; 3085 : #else
; 3086 :         AddLineQueueX( "pop %r", basereg[ModuleInfo.Ofssize] );
; 3087 : #endif
; 3088 :     }
; 3089 : }

	mov	rbx, QWORD PTR [rsp+48]
	add	rsp, 32					; 00000020H
	pop	rdi

; 3018 :             write_win64_default_epilogue( info );

	jmp	write_win64_default_epilogue
$LN2@write_defa:

; 3019 :         return;
; 3020 :     }
; 3021 :     if ( ModuleInfo.Ofssize == USE64 && ModuleInfo.fctype == FCT_WIN64 && ( ModuleInfo.win64_flags & W64F_AUTOSTACKSP ) ) {

	cmp	BYTE PTR ModuleInfo+404, 2
	jne	SHORT $LN4@write_defa
	cmp	DWORD PTR ModuleInfo+376, 2
	jne	SHORT $LN4@write_defa
	test	BYTE PTR ModuleInfo+413, 2
	je	SHORT $LN4@write_defa

; 3022 :         resstack  = sym_ReservedStack->value;

	mov	r9, QWORD PTR sym_ReservedStack

; 3023 :         /* if no framepointer was pushed, add 8 to align stack on OWORD
; 3024 :          * v2.12: obsolete; localsize contains correct value.
; 3025 :          */
; 3026 :         //if( !(info->localsize || info->stackparam || info->has_vararg || info->forceframe ))
; 3027 :         //    AddLineQueueX( "add %r, 8 + %s", stackreg[ModuleInfo.Ofssize], sym_ReservedStack->name );
; 3028 :         //else
; 3029 :         AddLineQueueX( "add %r, %d + %s", stackreg[ModuleInfo.Ofssize], NUMQUAL info->localsize, sym_ReservedStack->name );

	lea	rcx, OFFSET FLAT:$SG12450
	mov	r8d, DWORD PTR [rbx+36]
	mov	edx, 119				; 00000077H
	mov	edi, DWORD PTR [r9+16]
	mov	r9, QWORD PTR [r9+8]
	call	AddLineQueueX
	mov	rcx, QWORD PTR CurrProc
$LN4@write_defa:

; 3030 :     }
; 3031 : #endif
; 3032 : 
; 3033 :     /* Pop the registers */
; 3034 :     pop_register( CurrProc->e.procinfo->regslist );

	mov	rcx, QWORD PTR [rcx+96]
	mov	rcx, QWORD PTR [rcx]
	call	pop_register

; 3035 : 
; 3036 :     if ( info->loadds ) {

	test	BYTE PTR [rbx+84], 16
	je	SHORT $LN5@write_defa

; 3037 :         AddLineQueueX( "pop %r", T_DS );

	mov	edx, 28
	lea	rcx, OFFSET FLAT:$SG12452
	call	AddLineQueueX
$LN5@write_defa:

; 3038 :     }
; 3039 : 
; 3040 :     if( ( info->locallist == NULL ) &&
; 3041 :        info->stackparam == FALSE &&
; 3042 :        info->has_vararg == FALSE &&
; 3043 : #if AMD64_SUPPORT
; 3044 :        resstack == 0 &&

	mov	rax, QWORD PTR [rbx+16]
	test	rax, rax
	jne	SHORT $LN7@write_defa
	movzx	ecx, BYTE PTR [rbx+84]
	test	cl, 33					; 00000021H
	jne	SHORT $LN6@write_defa
	test	edi, edi
	jne	SHORT $LN6@write_defa
	test	cl, 8
	je	$LN10@write_defa
$LN6@write_defa:

; 3045 : #endif
; 3046 :        info->forceframe == FALSE )
; 3047 :         return;
; 3048 : 
; 3049 :     /* restore registers e/sp and e/bp.
; 3050 :      * emit either "leave" or "mov e/sp,e/bp, pop e/bp".
; 3051 :      */
; 3052 : #if AMD64_SUPPORT
; 3053 :     if( !(info->locallist || info->stackparam || info->has_vararg || info->forceframe ))

	test	rax, rax
	jne	SHORT $LN7@write_defa
	movzx	eax, BYTE PTR [rbx+84]
	test	al, 33					; 00000021H
	jne	SHORT $LN7@write_defa
	test	al, 8
	je	$LN10@write_defa
$LN7@write_defa:

; 3054 :         ;
; 3055 :     else
; 3056 : #endif
; 3057 :     if( info->pe_type ) {

	movzx	eax, BYTE PTR [rbx+84]
	test	al, 2
	je	SHORT $LN9@write_defa

; 3058 :         AddLineQueue( "leave" );

	lea	rcx, OFFSET FLAT:$SG12458

; 3085 : #else
; 3086 :         AddLineQueueX( "pop %r", basereg[ModuleInfo.Ofssize] );
; 3087 : #endif
; 3088 :     }
; 3089 : }

	mov	rbx, QWORD PTR [rsp+48]
	add	rsp, 32					; 00000020H
	pop	rdi

; 3058 :         AddLineQueue( "leave" );

	jmp	AddLineQueue
$LN9@write_defa:

; 3059 :     } else  {
; 3060 : #if STACKBASESUPP
; 3061 :         if ( info->fpo ) {

	test	al, al
	jns	SHORT $LN11@write_defa

; 3062 : #if AMD64_SUPPORT
; 3063 :             if ( ModuleInfo.Ofssize == USE64 && ModuleInfo.fctype == FCT_WIN64 && ( ModuleInfo.win64_flags & W64F_AUTOSTACKSP ) )

	movzx	eax, BYTE PTR ModuleInfo+404
	cmp	al, 2
	jne	SHORT $LN12@write_defa
	cmp	DWORD PTR ModuleInfo+376, 2
	jne	SHORT $LN12@write_defa
	test	BYTE PTR ModuleInfo+413, al
	jne	SHORT $LN10@write_defa
$LN12@write_defa:

; 3064 :                 ;
; 3065 :             else
; 3066 : #endif
; 3067 :             if ( info->localsize )

	mov	r8d, DWORD PTR [rbx+36]
	test	r8d, r8d
	je	SHORT $LN10@write_defa

; 3068 :                 AddLineQueueX( "add %r, %d", stackreg[ModuleInfo.Ofssize], NUMQUAL info->localsize );

	movzx	eax, al
	lea	rcx, OFFSET FLAT:stackreg
	mov	edx, DWORD PTR [rcx+rax*4]
	lea	rcx, OFFSET FLAT:$SG12463

; 3085 : #else
; 3086 :         AddLineQueueX( "pop %r", basereg[ModuleInfo.Ofssize] );
; 3087 : #endif
; 3088 :     }
; 3089 : }

	mov	rbx, QWORD PTR [rsp+48]
	add	rsp, 32					; 00000020H
	pop	rdi

; 3068 :                 AddLineQueueX( "add %r, %d", stackreg[ModuleInfo.Ofssize], NUMQUAL info->localsize );

	jmp	AddLineQueueX
$LN11@write_defa:

; 3069 :             return;
; 3070 :         }
; 3071 : #endif
; 3072 :         /*
; 3073 :          MOV [E|R]SP, [E|R]BP
; 3074 :          POP [E|R]BP
; 3075 :          */
; 3076 :         if( info->localsize != 0 ) {

	cmp	DWORD PTR [rbx+36], 0
	je	SHORT $LN15@write_defa

; 3077 : #if STACKBASESUPP
; 3078 :             AddLineQueueX( "mov %r, %r", stackreg[ModuleInfo.Ofssize], info->basereg );

	movzx	eax, BYTE PTR ModuleInfo+404
	lea	rcx, OFFSET FLAT:stackreg
	movzx	r8d, WORD PTR [rbx+86]
	mov	edx, DWORD PTR [rcx+rax*4]
	lea	rcx, OFFSET FLAT:$SG12465
	call	AddLineQueueX
$LN15@write_defa:

; 3079 : #else
; 3080 :             AddLineQueueX( "mov %r, %r", stackreg[ModuleInfo.Ofssize], basereg[ModuleInfo.Ofssize] );
; 3081 : #endif
; 3082 :         }
; 3083 : #if STACKBASESUPP
; 3084 :         AddLineQueueX( "pop %r", info->basereg );

	movzx	edx, WORD PTR [rbx+86]
	lea	rcx, OFFSET FLAT:$SG12466
	call	AddLineQueueX
$LN10@write_defa:

; 3085 : #else
; 3086 :         AddLineQueueX( "pop %r", basereg[ModuleInfo.Ofssize] );
; 3087 : #endif
; 3088 :     }
; 3089 : }

	mov	rbx, QWORD PTR [rsp+48]
	add	rsp, 32					; 00000020H
	pop	rdi
	ret	0
write_default_epilogue ENDP
_TEXT	ENDS
; Function compile flags: /Ogtpy
; File d:\hjwasm\hjwasm2.13.1s\hjwasm2.13.1s\proc.c
;	COMDAT write_win64_default_epilogue
_TEXT	SEGMENT
info$ = 80
write_win64_default_epilogue PROC			; COMDAT

; 2858 : {

	push	r14
	sub	rsp, 64					; 00000040H
	mov	QWORD PTR [rsp+80], rbx
	mov	r14, rcx
	mov	QWORD PTR [rsp+88], rbp

; 2859 : #if STACKBASESUPP
; 2860 :     /* v2.12: obsolete */
; 2861 :     //if ( GetRegNo( info->basereg ) == 4 || ( info->parasize == 0 && info->locallist == NULL ) )
; 2862 :     //    sizestd = 8;
; 2863 : #endif
; 2864 :     /* restore non-volatile xmm registers */
; 2865 :     if ( info->regslist ) {

	xor	ebp, ebp
	mov	QWORD PTR [rsp+96], rsi
	mov	QWORD PTR [rsp+56], rdi
	mov	rdi, QWORD PTR [rcx]
	mov	QWORD PTR [rsp+48], r15
	lea	r15, OFFSET FLAT:__ImageBase
	test	rdi, rdi
	je	$LN6@write_win6

; 2866 :         uint_16 *regs;
; 2867 :         int cnt;
; 2868 :         int i;
; 2869 : 
; 2870 :         /* v2.12: space for xmm saves is now included in localsize
; 2871 :          * so first thing to do is to count the xmm regs that were saved
; 2872 :          */
; 2873 :         for( regs = info->regslist, cnt = *regs++, i = 0; cnt; cnt--, regs++ )

	movzx	r8d, WORD PTR [rdi]
	lea	rdx, QWORD PTR [rdi+2]
	mov	r9d, ebp
	test	r8d, r8d
	je	$LN6@write_win6
	npad	5
$LL4@write_win6:

; 2874 :             if ( GetValueSp( *regs ) & OP_XYZMM )

	movzx	eax, WORD PTR [rdx]
	lea	rcx, QWORD PTR [rax+rax*2]
	test	BYTE PTR SpecialTable[r15+rcx*4], 128	; 00000080H
	je	SHORT $LN2@write_win6

; 2875 :                 i++;

	inc	r9d
$LN2@write_win6:

; 2866 :         uint_16 *regs;
; 2867 :         int cnt;
; 2868 :         int i;
; 2869 : 
; 2870 :         /* v2.12: space for xmm saves is now included in localsize
; 2871 :          * so first thing to do is to count the xmm regs that were saved
; 2872 :          */
; 2873 :         for( regs = info->regslist, cnt = *regs++, i = 0; cnt; cnt--, regs++ )

	add	rdx, 2
	sub	r8d, 1
	jne	SHORT $LL4@write_win6

; 2876 : 
; 2877 :         DebugMsg1(("write_win64_default_epilogue(%s): %u xmm registers to restore\n", CurrProc->sym.name , i ));
; 2878 : 
; 2879 :         if ( i ) {

	test	r9d, r9d
	je	$LN6@write_win6

; 2880 :             i = ( info->localsize - i * XYZMMsize ) & ~(XYZMMsize-1);
; 2881 :             for( regs = info->regslist, cnt = *regs++; cnt; cnt--, regs++ ) {

	movzx	esi, WORD PTR [rdi]
	add	rdi, 2
	mov	ebx, DWORD PTR [r14+36]
	shl	r9d, 5
	sub	ebx, r9d
	and	ebx, -32				; ffffffffffffffe0H
	test	esi, esi
	je	$LN6@write_win6
	npad	11
$LL7@write_win6:

; 2882 :                 if ( GetValueSp( *regs ) & OP_XYZMM ) {

	movzx	ecx, WORD PTR [rdi]
	lea	rax, QWORD PTR [rcx+rcx*2]
	test	BYTE PTR SpecialTable[r15+rax*4], 128	; 00000080H
	je	SHORT $LN5@write_win6

; 2883 :                     DebugMsg1(("write_win64_default_epilogue(%s): restore %s, offset=%d\n", CurrProc->sym.name , GetResWName( *regs, NULL ), i ));
; 2884 :                     //AddLineQueueX( "movdqa %r, [%r+%u]", *regist, stackreg[ModuleInfo.Ofssize], NUMQUAL info->localsize + sizexmm );
; 2885 :                     /* v2.11: use @ReservedStack only if option win64:2 is set */
; 2886 :                     if ( ModuleInfo.win64_flags & W64F_AUTOSTACKSP )

	test	BYTE PTR ModuleInfo+413, 2

; 2887 :                         AddLineQueueX( "vmovdqa %r, [%r + %u + %s]", *regs, stackreg[ModuleInfo.Ofssize], NUMQUAL i, sym_ReservedStack->name );

	mov	edx, ecx
	mov	r9d, ebx
	je	SHORT $LN15@write_win6
	mov	rax, QWORD PTR sym_ReservedStack
	movzx	r8d, BYTE PTR ModuleInfo+404
	mov	rcx, QWORD PTR [rax+8]
	mov	r8d, DWORD PTR stackreg[r15+r8*4]
	mov	QWORD PTR [rsp+32], rcx
	lea	rcx, OFFSET FLAT:$SG12419
	call	AddLineQueueX
	jmp	SHORT $LN16@write_win6
$LN15@write_win6:

; 2888 :                     else
; 2889 :                         AddLineQueueX( "vmovdqa %r, [%r + %u]", *regs, stackreg[ModuleInfo.Ofssize], NUMQUAL i );

	movzx	eax, BYTE PTR ModuleInfo+404
	lea	rcx, OFFSET FLAT:$SG12420
	mov	r8d, DWORD PTR stackreg[r15+rax*4]
	call	AddLineQueueX
$LN16@write_win6:

; 2890 :                     i += XYZMMsize;

	add	ebx, 32					; 00000020H
$LN5@write_win6:

; 2880 :             i = ( info->localsize - i * XYZMMsize ) & ~(XYZMMsize-1);
; 2881 :             for( regs = info->regslist, cnt = *regs++; cnt; cnt--, regs++ ) {

	add	rdi, 2
	sub	esi, 1
	jne	SHORT $LL7@write_win6
$LN6@write_win6:

; 2891 :                 }
; 2892 :             }
; 2893 :         }
; 2894 :     }
; 2895 : 
; 2896 :     if (ModuleInfo.fctype == FCT_WIN64 && (ModuleInfo.win64_flags & W64F_AUTOSTACKSP)){

	cmp	DWORD PTR ModuleInfo+376, 2
	jne	SHORT $LN17@write_win6
	movzx	eax, BYTE PTR ModuleInfo+413
	test	al, 2
	je	SHORT $LN17@write_win6

; 2897 :       if (ModuleInfo.win64_flags & W64F_HABRAN){
; 2898 :         if (info->localsize + sym_ReservedStack->value)

	mov	r8d, DWORD PTR [r14+36]
	mov	r9, QWORD PTR sym_ReservedStack
	test	al, 11
	je	SHORT $LN19@write_win6
	mov	ecx, DWORD PTR [r9+16]
	add	ecx, r8d
	je	SHORT $LN18@write_win6

; 2899 :           AddLineQueueX("add %r, %d + %s", stackreg[ModuleInfo.Ofssize], NUMQUAL info->localsize, sym_ReservedStack->name);

	movzx	eax, BYTE PTR ModuleInfo+404
	lea	rcx, OFFSET FLAT:$SG12426
	mov	r9, QWORD PTR [r9+8]
	mov	edx, DWORD PTR stackreg[r15+rax*4]
	call	AddLineQueueX

; 2900 :       }

	jmp	SHORT $LN18@write_win6
$LN19@write_win6:

; 2901 :         else
; 2902 :           AddLineQueueX("add %r, %d + %s", stackreg[ModuleInfo.Ofssize], NUMQUAL info->localsize, sym_ReservedStack->name);

	movzx	eax, BYTE PTR ModuleInfo+404
	lea	rcx, OFFSET FLAT:$SG12427
	mov	r9, QWORD PTR [r9+8]
	mov	edx, DWORD PTR stackreg[r15+rax*4]
	call	AddLineQueueX

; 2903 :     }

	jmp	SHORT $LN18@write_win6
$LN17@write_win6:

; 2904 :     else
; 2905 :         AddLineQueueX( "add %r, %d", stackreg[ModuleInfo.Ofssize], NUMQUAL info->localsize );

	movzx	eax, BYTE PTR ModuleInfo+404
	lea	rcx, OFFSET FLAT:$SG12428
	mov	r8d, DWORD PTR [r14+36]
	mov	edx, DWORD PTR stackreg[r15+rax*4]
	call	AddLineQueueX
$LN18@write_win6:

; 2906 :     pop_register( CurrProc->e.procinfo->regslist );

	mov	rax, QWORD PTR CurrProc
	mov	rcx, QWORD PTR [rax+96]
	mov	rcx, QWORD PTR [rcx]
	call	pop_register

; 2907 : #if STACKBASESUPP
; 2908 :     if (ModuleInfo.win64_flags & W64F_HABRAN){

	movzx	eax, BYTE PTR ModuleInfo+413
	test	al, 11
	je	SHORT $LN9@write_win6

; 2909 :       /* restore non-volatile registers from shadow space */
; 2910 :       if (info->regslist) {

	mov	rbx, QWORD PTR [r14]
	test	rbx, rbx
	je	SHORT $LN9@write_win6

; 2911 :         uint_16 *regist = info->regslist;
; 2912 :         int cnt;
; 2913 :         if (ModuleInfo.win64_flags){

	test	al, al
	je	SHORT $LN9@write_win6

; 2915 :           int gprzize = 0;
; 2916 :           for (cnt = *regist++; cnt; cnt--, regist++)

	movzx	edi, WORD PTR [rbx]
	add	rbx, 2
	test	edi, edi
	je	SHORT $LN9@write_win6

; 2914 :           int i = 0;

	mov	rsi, rbp
	npad	6
$LL10@write_win6:

; 2917 :           {
; 2918 :             if (GetValueSp(*regist) & OP_XYZMM) continue;

	movzx	ecx, WORD PTR [rbx]
	lea	rax, QWORD PTR [rcx+rcx*2]
	test	BYTE PTR SpecialTable[r15+rax*4], 128	; 00000080H
	jne	SHORT $LN8@write_win6

; 2919 :             else {
; 2920 :               gprzize += 8;

	add	ebp, 8

; 2921 :               if (gprzize <= 0x20)

	cmp	ebp, 32					; 00000020H
	jg	SHORT $LN8@write_win6

; 2922 :               {
; 2923 :                 if (info->home_used[i] == 0){

	cmp	BYTE PTR [rsi+r14+76], 0
	jne	SHORT $LN28@write_win6

; 2924 :                   AddLineQueueX("mov %r, [%r+%u]", *regist, stackreg[ModuleInfo.Ofssize], NUMQUAL gprzize);

	movzx	eax, BYTE PTR ModuleInfo+404
	mov	edx, ecx
	mov	r9d, ebp
	lea	rcx, OFFSET FLAT:$SG12437
	mov	r8d, DWORD PTR stackreg[r15+rax*4]
	call	AddLineQueueX

; 2925 :                 }

	jmp	SHORT $LN29@write_win6
$LN28@write_win6:

; 2926 :                 else {
; 2927 :                   cnt++; regist--;

	inc	edi
	sub	rbx, 2
$LN29@write_win6:

; 2928 :                 }
; 2929 :                 i++;

	inc	rsi
$LN8@write_win6:

; 2915 :           int gprzize = 0;
; 2916 :           for (cnt = *regist++; cnt; cnt--, regist++)

	add	rbx, 2
	sub	edi, 1
	jne	SHORT $LL10@write_win6
$LN9@write_win6:

; 2930 :               }
; 2931 :             }
; 2932 :           }
; 2933 :         }
; 2934 :       }
; 2935 :     }
; 2936 :     //if ( !info->fpo )
; 2937 :     if ( GetRegNo( info->basereg ) != 4 && ( info->parasize != 0 || info->locallist != NULL ) )

	movzx	ecx, WORD PTR [r14+86]
	mov	rdi, QWORD PTR [rsp+56]
	mov	rsi, QWORD PTR [rsp+96]
	mov	rbp, QWORD PTR [rsp+88]
	mov	rbx, QWORD PTR [rsp+80]
	lea	rax, QWORD PTR [rcx+rcx*2]
	cmp	BYTE PTR SpecialTable[r15+rax*4+10], 4
	mov	r15, QWORD PTR [rsp+48]
	je	SHORT $LN30@write_win6
	cmp	DWORD PTR [r14+32], 0
	jne	SHORT $LN31@write_win6
	cmp	QWORD PTR [r14+16], 0
	je	SHORT $LN30@write_win6
$LN31@write_win6:

; 2938 :         AddLineQueueX( "pop %r", info->basereg );

	mov	edx, ecx
	lea	rcx, OFFSET FLAT:$SG12440

; 2939 : #else
; 2940 :     AddLineQueueX( "pop %r", basereg[ModuleInfo.Ofssize] );
; 2941 : #endif
; 2942 :     return;
; 2943 : }

	add	rsp, 64					; 00000040H
	pop	r14

; 2938 :         AddLineQueueX( "pop %r", info->basereg );

	jmp	AddLineQueueX
$LN30@write_win6:

; 2939 : #else
; 2940 :     AddLineQueueX( "pop %r", basereg[ModuleInfo.Ofssize] );
; 2941 : #endif
; 2942 :     return;
; 2943 : }

	add	rsp, 64					; 00000040H
	pop	r14
	ret	0
write_win64_default_epilogue ENDP
_TEXT	ENDS
; Function compile flags: /Ogtpy
; File d:\hjwasm\hjwasm2.13.1s\hjwasm2.13.1s\proc.c
;	COMDAT pop_register
_TEXT	SEGMENT
regist$ = 48
pop_register PROC					; COMDAT

; 2824 : {

	sub	rsp, 40					; 00000028H

; 2825 :     int cnt;
; 2826 :     if( regist == NULL )

	test	rcx, rcx
	je	$LN6@pop_regist

; 2827 :         return;
; 2828 :     cnt = *regist;
; 2829 :     regist += cnt;
; 2830 :     if (ModuleInfo.win64_flags & W64F_HABRAN)

	test	BYTE PTR ModuleInfo+413, 11
	mov	QWORD PTR [rsp+48], rbx
	movzx	ebx, WORD PTR [rcx]
	mov	QWORD PTR [rsp+56], rsi
	mov	QWORD PTR [rsp+32], rdi
	lea	rdi, QWORD PTR [rcx+rbx*2]
	je	SHORT $LN9@pop_regist

; 2831 :     {
; 2832 :       for (cnt = CurrProc->e.procinfo->pushed_reg; cnt; cnt--, regist--) {

	mov	rax, QWORD PTR CurrProc
	mov	rcx, QWORD PTR [rax+96]
	mov	ebx, DWORD PTR [rcx+64]
	test	ebx, ebx
	je	$LN24@pop_regist
	lea	rsi, OFFSET FLAT:SpecialTable
	npad	7
$LL4@pop_regist:

; 2833 :         /* don't "pop" xmm registers */
; 2834 :         if (GetValueSp(*regist) & OP_XYZMM){

	movzx	ecx, WORD PTR [rdi]
	lea	rax, QWORD PTR [rcx+rcx*2]
	test	BYTE PTR [rsi+rax*4], 128		; 00000080H
	je	SHORT $LN11@pop_regist

; 2835 :           cnt++;

	inc	ebx

; 2836 :           continue;

	jmp	SHORT $LN2@pop_regist
$LN11@pop_regist:

; 2837 :         }
; 2838 :         AddLineQueueX("pop %r", *regist);

	mov	edx, ecx
	lea	rcx, OFFSET FLAT:$SG12389
	call	AddLineQueueX
$LN2@pop_regist:

; 2831 :     {
; 2832 :       for (cnt = CurrProc->e.procinfo->pushed_reg; cnt; cnt--, regist--) {

	sub	rdi, 2
	sub	ebx, 1
	jne	SHORT $LL4@pop_regist
	mov	rsi, QWORD PTR [rsp+56]
	mov	rbx, QWORD PTR [rsp+48]
	mov	rdi, QWORD PTR [rsp+32]

; 2847 :       }
; 2848 :     }
; 2849 : }

	add	rsp, 40					; 00000028H
	ret	0
$LN9@pop_regist:

; 2839 :       }
; 2840 :     }
; 2841 :     else {
; 2842 :       for (; cnt; cnt--, regist--) {

	test	ebx, ebx
	je	SHORT $LN24@pop_regist
	lea	rsi, OFFSET FLAT:SpecialTable
	npad	9
$LL7@pop_regist:

; 2843 :         /* don't "pop" xmm registers */
; 2844 :         if (GetValueSp(*regist) & OP_XYZMM)

	movzx	ecx, WORD PTR [rdi]
	lea	rax, QWORD PTR [rcx+rcx*2]
	test	BYTE PTR [rsi+rax*4], 128		; 00000080H
	jne	SHORT $LN5@pop_regist

; 2845 :           continue;
; 2846 :         AddLineQueueX("pop %r", *regist);

	mov	edx, ecx
	lea	rcx, OFFSET FLAT:$SG12391
	call	AddLineQueueX
$LN5@pop_regist:

; 2839 :       }
; 2840 :     }
; 2841 :     else {
; 2842 :       for (; cnt; cnt--, regist--) {

	sub	rdi, 2
	sub	ebx, 1
	jne	SHORT $LL7@pop_regist
$LN24@pop_regist:
	mov	rsi, QWORD PTR [rsp+56]
	mov	rbx, QWORD PTR [rsp+48]
	mov	rdi, QWORD PTR [rsp+32]
$LN6@pop_regist:

; 2847 :       }
; 2848 :     }
; 2849 : }

	add	rsp, 40					; 00000028H
	ret	0
pop_register ENDP
_TEXT	ENDS
; Function compile flags: /Ogtpy
; File d:\hjwasm\hjwasm2.13.1s\hjwasm2.13.1s\proc.c
;	COMDAT write_default_prologue
_TEXT	SEGMENT
write_default_prologue PROC				; COMDAT

; 2483 : {

	mov	QWORD PTR [rsp+24], rbx
	push	rsi
	sub	rsp, 32					; 00000020H

; 2484 :     struct proc_info    *info;
; 2485 :     uint_16             *regist;
; 2486 :     uint_8              oldlinenumbers;
; 2487 :     int                 cnt;
; 2488 : #if AMD64_SUPPORT
; 2489 :     int                 resstack = 0;
; 2490 : #endif
; 2491 : 
; 2492 :     info = CurrProc->e.procinfo;

	mov	r8, QWORD PTR CurrProc
	xor	ebx, ebx
	mov	rsi, QWORD PTR [r8+96]

; 2493 : 
; 2494 : #if AMD64_SUPPORT
; 2495 :     if ( info->isframe ) {

	movzx	edx, BYTE PTR [rsi+84]
	test	dl, 64					; 00000040H
	je	SHORT $LN8@write_defa

; 2496 :         //DebugMsg(("write_default_prologue: isframe\n"));
; 2497 :         if ( ModuleInfo.frame_auto ) {

	test	DWORD PTR ModuleInfo+408, 131072	; 00020000H
	je	$LN28@write_defa

; 2498 :             write_win64_default_prologue( info );

	mov	rcx, rsi
	call	write_win64_default_prologue

; 2499 :             /* v2.11: line queue is now run here */
; 2500 :             goto runqueue;

	jmp	$runqueue$41
$LN8@write_defa:

; 2501 :         }
; 2502 :         return( NOT_ERROR );
; 2503 :     }
; 2504 :     if ( ModuleInfo.Ofssize == USE64 && ModuleInfo.fctype == FCT_WIN64 && ( ModuleInfo.win64_flags & W64F_AUTOSTACKSP ) )

	movzx	ecx, BYTE PTR ModuleInfo+404
	movzx	r10d, BYTE PTR ModuleInfo+413
	mov	r9d, DWORD PTR ModuleInfo+376
	cmp	cl, 2
	jne	SHORT $LN10@write_defa
	cmp	r9d, 2
	jne	SHORT $LN10@write_defa
	test	r10b, cl
	je	SHORT $LN10@write_defa

; 2505 :         resstack = sym_ReservedStack->value;

	mov	rax, QWORD PTR sym_ReservedStack
	mov	ebx, DWORD PTR [rax+16]
$LN10@write_defa:

; 2506 : #endif
; 2507 :     /* default processing. if no params/locals are defined, continue */
; 2508 :     if( info->forceframe == FALSE &&
; 2509 :        info->localsize == 0 &&
; 2510 :        info->stackparam == FALSE &&
; 2511 :        info->has_vararg == FALSE &&
; 2512 : #if AMD64_SUPPORT
; 2513 :        resstack == 0 &&

	test	dl, 8
	jne	SHORT $LN11@write_defa
	cmp	DWORD PTR [rsi+36], 0
	jne	SHORT $LN11@write_defa
	test	dl, 33					; 00000021H
	jne	SHORT $LN11@write_defa
	test	ebx, ebx
	jne	SHORT $LN11@write_defa
	cmp	QWORD PTR [rsi], 0
	je	$LN28@write_defa
$LN11@write_defa:
	mov	QWORD PTR [rsp+48], rdi

; 2514 : #endif
; 2515 :        info->regslist == NULL )
; 2516 :         return( NOT_ERROR );
; 2517 : 
; 2518 :     /* v2.11: now done in write_prologue() */
; 2519 :     //info->localsize = ROUND_UP( info->localsize, CurrWordSize );
; 2520 :     regist = info->regslist;

	mov	rdi, QWORD PTR [rsi]
	mov	QWORD PTR [rsp+56], r14

; 2521 : 
; 2522 : #if AMD64_SUPPORT
; 2523 :     /* initialize shadow space for register params */
; 2524 :     if ( ModuleInfo.Ofssize == USE64 &&
; 2525 :         CurrProc->sym.langtype == LANG_FASTCALL &&
; 2526 :         ModuleInfo.fctype == FCT_WIN64 &&

	cmp	cl, 2
	jne	SHORT $LN12@write_defa
	cmp	DWORD PTR [r8+76], 7
	jne	SHORT $LN12@write_defa
	cmp	r9d, 2
	jne	SHORT $LN12@write_defa
	test	r10b, 1
	je	SHORT $LN12@write_defa

; 2527 :         ( ModuleInfo.win64_flags & W64F_SAVEREGPARAMS ) )
; 2528 :         win64_SaveRegParams( info );

	mov	rcx, rsi
	call	win64_SaveRegParams
	movzx	ecx, BYTE PTR ModuleInfo+404
$LN12@write_defa:

; 2529 : #endif
; 2530 :     if( info->locallist || info->stackparam || info->has_vararg || info->forceframe ) {

	cmp	QWORD PTR [rsi+16], 0
	lea	r14, OFFSET FLAT:stackreg
	jne	SHORT $LN14@write_defa
	test	BYTE PTR [rsi+84], 41			; 00000029H
	je	SHORT $LN15@write_defa
$LN14@write_defa:

; 2531 : 
; 2532 :         /* write 80386 prolog code
; 2533 :          * PUSH [E|R]BP
; 2534 :          * MOV  [E|R]BP, [E|R]SP
; 2535 :          * SUB  [E|R]SP, localsize
; 2536 :          */
; 2537 : #if STACKBASESUPP
; 2538 :         if ( !info->fpo ) {

	test	BYTE PTR [rsi+84], 128			; 00000080H
	jne	SHORT $LN15@write_defa

; 2539 :             AddLineQueueX( "push %r", info->basereg );

	movzx	edx, WORD PTR [rsi+86]
	lea	rcx, OFFSET FLAT:$SG12278
	call	AddLineQueueX

; 2540 :             AddLineQueueX( "mov %r, %r", info->basereg, stackreg[ModuleInfo.Ofssize] );

	movzx	eax, BYTE PTR ModuleInfo+404
	lea	rcx, OFFSET FLAT:$SG12279
	movzx	edx, WORD PTR [rsi+86]
	mov	r8d, DWORD PTR [r14+rax*4]
	call	AddLineQueueX
	movzx	ecx, BYTE PTR ModuleInfo+404
$LN15@write_defa:

; 2541 :         }
; 2542 : #else
; 2543 :         AddLineQueueX( "push %r", basereg[ModuleInfo.Ofssize] );
; 2544 :         AddLineQueueX( "mov %r, %r", basereg[ModuleInfo.Ofssize], stackreg[ModuleInfo.Ofssize] );
; 2545 : #endif
; 2546 :     }
; 2547 : #if AMD64_SUPPORT
; 2548 :     if( resstack ) {

	test	ebx, ebx
	je	SHORT $LN16@write_defa

; 2549 :         /* in this case, push the USES registers BEFORE the stack space is reserved */
; 2550 :         if ( regist ) {

	test	rdi, rdi
	je	SHORT $LN18@write_defa

; 2551 :             for( cnt = *regist++; cnt; cnt--, regist++ )

	movzx	ebx, WORD PTR [rdi]
	add	rdi, 2
	test	ebx, ebx
	je	SHORT $LN3@write_defa
	npad	1
$LL4@write_defa:

; 2552 :                 AddLineQueueX( "push %r", *regist );

	movzx	edx, WORD PTR [rdi]
	lea	rcx, OFFSET FLAT:$SG12283
	call	AddLineQueueX
	lea	rdi, QWORD PTR [rdi+2]
	sub	ebx, 1
	jne	SHORT $LL4@write_defa

; 2551 :             for( cnt = *regist++; cnt; cnt--, regist++ )

	movzx	ecx, BYTE PTR ModuleInfo+404
$LN3@write_defa:

; 2553 :             regist = NULL;

	xor	edi, edi
$LN18@write_defa:

; 2554 :         }
; 2555 :         /* if no framepointer was pushed, add 8 to align stack on OWORD.
; 2556 :          * v2.12: obsolete, localsize contains correct value in this case.
; 2557 :          */
; 2558 :         //if( !(info->localsize || info->stackparam || info->has_vararg || info->forceframe ))
; 2559 :         //    AddLineQueueX( "sub %r, 8 + %s", stackreg[ModuleInfo.Ofssize], sym_ReservedStack->name );
; 2560 :         //else
; 2561 :         AddLineQueueX( "sub %r, %d + %s", stackreg[ModuleInfo.Ofssize], NUMQUAL info->localsize, sym_ReservedStack->name );

	mov	r9, QWORD PTR sym_ReservedStack
	mov	r8d, DWORD PTR [rsi+36]
	movzx	eax, cl
	lea	rcx, OFFSET FLAT:$SG12284
	mov	r9, QWORD PTR [r9+8]
	mov	edx, DWORD PTR [r14+rax*4]
	call	AddLineQueueX

; 2562 :     } else

	jmp	SHORT $LN21@write_defa
$LN16@write_defa:

; 2563 : #endif
; 2564 :     if( info->localsize  ) {

	mov	r8d, DWORD PTR [rsi+36]
	test	r8d, r8d
	je	SHORT $LN21@write_defa

; 2565 :         /* using ADD and the 2-complement has one advantage:
; 2566 :          * it will generate short instructions up to a size of 128.
; 2567 :          * with SUB, short instructions work up to 127 only.
; 2568 :          */
; 2569 :         if ( Options.masm_compat_gencode || info->localsize == 128 )

	cmp	BYTE PTR Options+128, 0
	jne	SHORT $LN22@write_defa
	cmp	r8d, 128				; 00000080H
	je	SHORT $LN22@write_defa

; 2571 :         else
; 2572 :             AddLineQueueX( "sub %r, %d", stackreg[ModuleInfo.Ofssize], NUMQUAL info->localsize );

	movzx	eax, cl
	lea	rcx, OFFSET FLAT:$SG12290
	jmp	SHORT $LN39@write_defa
$LN22@write_defa:

; 2570 :             AddLineQueueX( "add %r, %d", stackreg[ModuleInfo.Ofssize], NUMQUAL - info->localsize );

	movzx	eax, cl
	neg	r8d
	lea	rcx, OFFSET FLAT:$SG12289
$LN39@write_defa:
	mov	edx, DWORD PTR [r14+rax*4]
	call	AddLineQueueX
$LN21@write_defa:

; 2573 :     }
; 2574 : 
; 2575 :     if ( info->loadds ) {

	test	BYTE PTR [rsi+84], 16
	mov	r14, QWORD PTR [rsp+56]
	je	SHORT $LN23@write_defa

; 2576 :         AddLineQueueX( "push %r", T_DS );

	mov	edx, 28
	lea	rcx, OFFSET FLAT:$SG12292
	call	AddLineQueueX

; 2577 :         AddLineQueueX( "mov %r, %s", T_AX, szDgroup );

	mov	ebx, 9
	lea	r8, OFFSET FLAT:szDgroup
	mov	edx, ebx
	lea	rcx, OFFSET FLAT:$SG12293
	call	AddLineQueueX

; 2578 :         AddLineQueueX( "mov %r, %r", T_DS, ModuleInfo.Ofssize ? T_EAX : T_AX );

	cmp	BYTE PTR ModuleInfo+404, 0
	lea	rcx, OFFSET FLAT:$SG12294
	mov	eax, 17
	cmovne	ebx, eax
	mov	r8d, ebx
	lea	edx, QWORD PTR [rax+11]
	call	AddLineQueueX
$LN23@write_defa:

; 2579 :     }
; 2580 : 
; 2581 :     /* Push the GPR registers of the USES clause */
; 2582 :     if ( regist ) {

	test	rdi, rdi
	je	SHORT $LN38@write_defa

; 2583 :         for( cnt = *regist++; cnt; cnt--, regist++ ) {

	movzx	ebx, WORD PTR [rdi]
	add	rdi, 2
	test	ebx, ebx
	je	SHORT $LN38@write_defa
	npad	7
$LL7@write_defa:

; 2584 :             AddLineQueueX( "push %r", *regist );

	movzx	edx, WORD PTR [rdi]
	lea	rcx, OFFSET FLAT:$SG12296
	call	AddLineQueueX
	lea	rdi, QWORD PTR [rdi+2]
	sub	ebx, 1
	jne	SHORT $LL7@write_defa
$LN38@write_defa:
	mov	rdi, QWORD PTR [rsp+48]
$runqueue$41:

; 2585 :         }
; 2586 :     }
; 2587 : 
; 2588 : #if AMD64_SUPPORT
; 2589 : runqueue:
; 2590 : #endif
; 2591 : 
; 2592 : #if FASTPASS
; 2593 :     /* special case: generated code runs BEFORE the line.*/
; 2594 :     if ( ModuleInfo.list && UseSavedState )

	test	DWORD PTR ModuleInfo+408, 2048		; 00000800H
	je	SHORT $LN27@write_defa
	cmp	BYTE PTR UseSavedState, 0
	je	SHORT $LN27@write_defa

; 2595 :         if ( Parse_Pass == PASS_1 )

	cmp	DWORD PTR Parse_Pass, 0
	jne	SHORT $LN26@write_defa

; 2596 :             info->prolog_list_pos = list_pos;

	mov	eax, DWORD PTR list_pos
	mov	DWORD PTR [rsi+80], eax
	jmp	SHORT $LN27@write_defa
$LN26@write_defa:

; 2597 :         else
; 2598 :             list_pos = info->prolog_list_pos;

	mov	eax, DWORD PTR [rsi+80]
	mov	DWORD PTR list_pos, eax
$LN27@write_defa:

; 2599 : #endif
; 2600 :     /* line number debug info also needs special treatment
; 2601 :      * because current line number is the first true src line
; 2602 :      * IN the proc.
; 2603 :      */
; 2604 :     oldlinenumbers = Options.line_numbers;

	movzx	ebx, BYTE PTR Options+1

; 2605 :     Options.line_numbers = FALSE; /* temporarily disable line numbers */

	mov	BYTE PTR Options+1, 0

; 2606 :     RunLineQueue();

	call	RunLineQueue

; 2607 :     Options.line_numbers = oldlinenumbers;
; 2608 : 
; 2609 : #if FASTPASS
; 2610 :     if ( ModuleInfo.list && UseSavedState && (Parse_Pass > PASS_1))

	test	DWORD PTR ModuleInfo+408, 2048		; 00000800H
	mov	BYTE PTR Options+1, bl
	je	SHORT $LN28@write_defa
	cmp	BYTE PTR UseSavedState, 0
	je	SHORT $LN28@write_defa
	cmp	DWORD PTR Parse_Pass, 0
	jbe	SHORT $LN28@write_defa

; 2611 :          LineStoreCurr->list_pos = list_pos;

	mov	rax, QWORD PTR LineStoreCurr
	mov	ecx, DWORD PTR list_pos
	mov	DWORD PTR [rax+12], ecx
$LN28@write_defa:

; 2612 : #endif
; 2613 : 
; 2614 :     return( NOT_ERROR );

	xor	eax, eax

; 2615 : }

	mov	rbx, QWORD PTR [rsp+64]
	add	rsp, 32					; 00000020H
	pop	rsi
	ret	0
write_default_prologue ENDP
_TEXT	ENDS
; Function compile flags: /Ogtpy
; File d:\hjwasm\hjwasm2.13.1s\hjwasm2.13.1s\proc.c
;	COMDAT write_win64_default_prologue
_TEXT	SEGMENT
info$ = 96
write_win64_default_prologue PROC			; COMDAT

; 2313 : {

	push	rdi
	push	r12
	push	r15
	sub	rsp, 64					; 00000040H
	mov	QWORD PTR [rsp+56], r13
	mov	rdi, rcx

; 2314 :     uint_16             *regist;
; 2315 :     const char * const  *ppfmt;
; 2316 :     int                 cntxmm;
; 2317 :     int                 resstack = ( ( ModuleInfo.win64_flags & W64F_AUTOSTACKSP ) ? sym_ReservedStack->value : 0 );

	xor	r13d, r13d
	test	BYTE PTR ModuleInfo+413, 2
	je	SHORT $LN43@write_win6
	mov	rax, QWORD PTR sym_ReservedStack
	mov	r15d, DWORD PTR [rax+16]
	jmp	SHORT $LN44@write_win6
$LN43@write_win6:
	mov	r15d, r13d
$LN44@write_win6:

; 2318 : 
; 2319 :     DebugMsg1(("write_win64_default_prologue enter\n"));
; 2320 : 
; 2321 :     if ( ModuleInfo.win64_flags & W64F_SAVEREGPARAMS )

	test	BYTE PTR ModuleInfo+413, 1
	je	SHORT $LN11@write_win6

; 2322 :         win64_SaveRegParams( info );

	call	win64_SaveRegParams
$LN11@write_win6:

; 2323 :     if (ModuleInfo.win64_flags & W64F_HABRAN) 

	test	BYTE PTR ModuleInfo+413, 11
	je	SHORT $LN12@write_win6

; 2324 :       win64_StoreRegHome(info);

	mov	rcx, rdi
	call	win64_StoreRegHome
$LN12@write_win6:

; 2325 :     /*
; 2326 :      * PUSH RBP
; 2327 :      * .PUSHREG RBP
; 2328 :      * MOV RBP, RSP
; 2329 :      * .SETFRAME RBP, 0
; 2330 :      */
; 2331 : #if STACKBASESUPP
; 2332 :     /* info->locallist tells whether there are local variables ( info->localsize doesn't! ) */
; 2333 :     if ( info->fpo || ( info->parasize == 0 && info->locallist == NULL ) ) {

	test	BYTE PTR [rdi+84], 128			; 00000080H
	jne	SHORT $LN15@write_win6
	cmp	DWORD PTR [rdi+32], r13d
	jne	SHORT $LN13@write_win6
	cmp	QWORD PTR [rdi+16], r13
	je	SHORT $LN15@write_win6
$LN13@write_win6:

; 2334 :         DebugMsg1(("write_win64_default_prologue: no frame register needed\n"));
; 2335 :         //sizestd += 8; /* v2.12: obsolete */
; 2336 :     } else {
; 2337 :         AddLineQueueX( "push %r", info->basereg );

	movzx	edx, WORD PTR [rdi+86]
	lea	rcx, OFFSET FLAT:$SG12214
	call	AddLineQueueX

; 2338 :         AddLineQueueX( "%r %r", T_DOT_PUSHREG, info->basereg );

	movzx	r8d, WORD PTR [rdi+86]
	lea	rcx, OFFSET FLAT:$SG12215
	mov	edx, 412				; 0000019cH
	call	AddLineQueueX

; 2339 :         AddLineQueueX( "mov %r, %r", info->basereg, T_RSP );

	movzx	edx, WORD PTR [rdi+86]
	lea	rcx, OFFSET FLAT:$SG12216
	mov	r8d, 119				; 00000077H
	call	AddLineQueueX

; 2340 :         AddLineQueueX( "%r %r, 0", T_DOT_SETFRAME, info->basereg );

	movzx	r8d, WORD PTR [rdi+86]
	lea	rcx, OFFSET FLAT:$SG12217
	mov	edx, 416				; 000001a0H
	call	AddLineQueueX
$LN15@write_win6:

; 2341 :     }
; 2342 : #else
; 2343 :     AddLineQueueX( "push %r", basereg[USE64] );
; 2344 :     AddLineQueueX( "%r %r", T_DOT_PUSHREG, basereg[USE64] );
; 2345 :     AddLineQueueX( "mov %r, %r", basereg[USE64], T_RSP );
; 2346 :     AddLineQueueX( "%r %r, 0", T_DOT_SETFRAME, basereg[USE64] );
; 2347 : #endif
; 2348 :     if (ModuleInfo.win64_flags & W64F_HABRAN){

	test	BYTE PTR ModuleInfo+413, 11
	lea	r12, OFFSET FLAT:SpecialTable
	mov	QWORD PTR [rsp+96], rbx

; 2349 :       cntxmm = 0;
; 2350 :       if (info->regslist) {

	mov	rbx, QWORD PTR [rdi]
	mov	QWORD PTR [rsp+104], rbp
	mov	QWORD PTR [rsp+112], rsi
	mov	esi, r13d
	mov	QWORD PTR [rsp+48], r14
	je	$LN16@write_win6
	test	rbx, rbx
	je	$LN6@write_win6

; 2351 :         int cnt;
; 2352 :         int n = 0;
; 2353 :         info->pushed_reg = 0; /*count of pushed registers */

	mov	DWORD PTR [rdi+64], r13d
	mov	r14d, r13d

; 2354 :         regist = info->regslist;
; 2355 :         for (cnt = *regist++; cnt; cnt--, regist++) {

	movzx	ebp, WORD PTR [rbx]
	add	rbx, 2
	test	ebp, ebp
	je	$LN6@write_win6
	npad	2
$LL4@write_win6:

; 2356 :           if (GetValueSp(*regist) & OP_XYZMM) {

	movzx	eax, WORD PTR [rbx]
	lea	rcx, QWORD PTR [rax+rax*2]
	test	BYTE PTR [r12+rcx*4], 128		; 00000080H
	je	SHORT $LN19@write_win6

; 2357 :             cntxmm += 1;

	inc	esi

; 2358 :           }

	jmp	SHORT $LN2@write_win6
$LN19@write_win6:

; 2359 :           else {
; 2360 :             if (n < info->stored_reg) n++;

	cmp	r14d, DWORD PTR [rdi+60]
	jge	SHORT $LN21@write_win6
	inc	r14d
	jmp	SHORT $LN2@write_win6
$LN21@write_win6:

; 2361 :             else{
; 2362 :               info->pushed_reg += 1;

	inc	DWORD PTR [rdi+64]

; 2363 :               AddLineQueueX("push %r", *regist);

	lea	rcx, OFFSET FLAT:$SG12225
	movzx	edx, WORD PTR [rbx]
	call	AddLineQueueX

; 2364 :               if ((1 << GetRegNo(*regist)) & win64_nvgpr) {

	movzx	edx, WORD PTR [rbx]
	lea	rax, QWORD PTR [rdx+rdx*2]
	movzx	ecx, BYTE PTR [r12+rax*4+10]
	mov	eax, 1
	shl	eax, cl
	test	eax, 61672				; 0000f0e8H
	je	SHORT $LN2@write_win6

; 2365 :                 AddLineQueueX("%r %r", T_DOT_PUSHREG, *regist);

	mov	r8d, edx
	lea	rcx, OFFSET FLAT:$SG12227
	mov	edx, 412				; 0000019cH
	call	AddLineQueueX
$LN2@write_win6:

; 2354 :         regist = info->regslist;
; 2355 :         for (cnt = *regist++; cnt; cnt--, regist++) {

	add	rbx, 2
	sub	ebp, 1
	jne	SHORT $LL4@write_win6

; 2366 :               }
; 2367 :             }
; 2368 :           }
; 2369 :         } /* end for */
; 2370 :       }
; 2371 :     }

	jmp	SHORT $LN6@write_win6
$LN16@write_win6:

; 2372 :     else{
; 2373 :       /* after the "push rbp", the stack is xmmword aligned */
; 2374 : 
; 2375 :       /* Push the registers */
; 2376 :       cntxmm = 0;
; 2377 :       if (info->regslist) {

	test	rbx, rbx
	je	SHORT $LN6@write_win6

; 2378 :         int cnt;
; 2379 :         regist = info->regslist;
; 2380 :         for (cnt = *regist++; cnt; cnt--, regist++) {

	movzx	ebp, WORD PTR [rbx]
	add	rbx, 2
	test	ebp, ebp
	je	SHORT $LN6@write_win6
	npad	7
$LL7@write_win6:

; 2381 :           if (GetValueSp(*regist) & OP_XYZMM) {

	movzx	ecx, WORD PTR [rbx]
	lea	rax, QWORD PTR [rcx+rcx*2]
	test	BYTE PTR [r12+rax*4], 128		; 00000080H
	je	SHORT $LN25@write_win6

; 2382 :             cntxmm += 1;

	inc	esi

; 2383 :           }

	jmp	SHORT $LN5@write_win6
$LN25@write_win6:

; 2384 :           else {
; 2385 :             AddLineQueueX("push %r", *regist);

	mov	edx, ecx
	lea	rcx, OFFSET FLAT:$SG12231
	call	AddLineQueueX

; 2386 :             if ((1 << GetRegNo(*regist)) & win64_nvgpr) {

	movzx	edx, WORD PTR [rbx]
	lea	rax, QWORD PTR [rdx+rdx*2]
	movzx	ecx, BYTE PTR [r12+rax*4+10]
	mov	eax, 1
	shl	eax, cl
	test	eax, 61672				; 0000f0e8H
	je	SHORT $LN5@write_win6

; 2387 :               AddLineQueueX("%r %r", T_DOT_PUSHREG, *regist);

	mov	r8d, edx
	lea	rcx, OFFSET FLAT:$SG12233
	mov	edx, 412				; 0000019cH
	call	AddLineQueueX
$LN5@write_win6:

; 2378 :         int cnt;
; 2379 :         regist = info->regslist;
; 2380 :         for (cnt = *regist++; cnt; cnt--, regist++) {

	add	rbx, 2
	sub	ebp, 1
	jne	SHORT $LL7@write_win6
$LN6@write_win6:

; 2388 :             }
; 2389 :           }
; 2390 :         } /* end for */
; 2391 :       }
; 2392 :     }
; 2393 :     /* v2.11: now done in write_prologue() */
; 2394 :     //info->localsize = ROUND_UP( info->localsize, CurrWordSize );
; 2395 :     if (ModuleInfo.win64_flags & W64F_HABRAN){

	test	BYTE PTR ModuleInfo+413, 11
	mov	r14, QWORD PTR [rsp+48]
	je	SHORT $LN30@write_win6

; 2396 :       if (Parse_Pass && sym_ReservedStack->hasinvoke == 0) resstack = 0;

	cmp	DWORD PTR Parse_Pass, r13d
	je	SHORT $LN29@write_win6
	mov	rax, QWORD PTR sym_ReservedStack
	cmp	DWORD PTR [rax+16], r13d
	cmove	r15d, r13d
$LN29@write_win6:

; 2397 :       if (!(info->locallist) && !(resstack)) info->localsize = 0;

	cmp	QWORD PTR [rdi+16], r13
	jne	SHORT $LN30@write_win6
	test	r15d, r15d
	jne	SHORT $LN30@write_win6
	mov	DWORD PTR [rdi+36], r13d
$LN30@write_win6:

; 2398 :     }
; 2399 :     /* alloc space for local variables */
; 2400 :     //if( info->localsize + sizestd ) {
; 2401 :     if( info->localsize + resstack ) {

	mov	ecx, DWORD PTR [rdi+36]
	mov	r13, QWORD PTR [rsp+56]
	lea	eax, DWORD PTR [rcx+r15]
	test	eax, eax
	je	$LN9@write_win6

; 2402 :         DebugMsg1(("write_win64_default_prologue: localsize=%u resstack=%u\n", info->localsize, resstack ));
; 2403 :         if (ModuleInfo.win64_flags & W64F_HABRAN){

	test	BYTE PTR ModuleInfo+413, 11
	je	SHORT $LN33@write_win6

; 2404 :           if (((info->pushed_reg & 1) && (info->localsize & 0xF)) ||

	mov	eax, DWORD PTR [rdi+64]
	and	eax, 1
	je	SHORT $LN35@write_win6
	test	cl, 15
	jne	SHORT $LN34@write_win6
$LN35@write_win6:
	test	eax, eax
	jne	SHORT $LN33@write_win6
	test	cl, 15
	jne	SHORT $LN33@write_win6
	test	esi, esi
	jne	SHORT $LN33@write_win6
$LN34@write_win6:

; 2405 :             ((!(info->pushed_reg & 1)) && (!(info->localsize & 0xF))) && (!(info->pushed_reg & 1)) && (!(cntxmm)))
; 2406 :             info->localsize += 8;

	lea	eax, DWORD PTR [rcx+8]
	mov	DWORD PTR [rdi+36], eax
$LN33@write_win6:

; 2407 :         }
; 2408 :           /*
; 2409 :          * SUB  RSP, localsize
; 2410 :          * .ALLOCSTACK localsize
; 2411 :          */
; 2412 :         ppfmt = ( resstack ? fmtstk1 : fmtstk0 );
; 2413 : #if STACKPROBE
; 2414 :         if ( info->localsize + resstack > 0x1000 ) {
; 2415 :             AddLineQueueX( *(ppfmt+2), T_RAX, NUMQUAL info->localsize, sym_ReservedStack->name );
; 2416 :             AddLineQueue(  "externdef __chkstk:PROC" );
; 2417 :             AddLineQueue(  "call __chkstk" );
; 2418 :             AddLineQueueX( "mov %r, %r", T_RSP, T_RAX );
; 2419 :         } else
; 2420 : #endif
; 2421 :         AddLineQueueX( *(ppfmt+0), T_RSP, NUMQUAL info->localsize, sym_ReservedStack->name );

	mov	r9, QWORD PTR sym_ReservedStack
	lea	rax, OFFSET FLAT:fmtstk1
	mov	r8d, DWORD PTR [rdi+36]
	lea	rbx, OFFSET FLAT:fmtstk0
	test	r15d, r15d
	mov	edx, 119				; 00000077H
	mov	r9, QWORD PTR [r9+8]
	cmovne	rbx, rax
	mov	rcx, QWORD PTR [rbx]
	call	AddLineQueueX

; 2422 :         AddLineQueueX( *(ppfmt+1), T_DOT_ALLOCSTACK, NUMQUAL info->localsize, sym_ReservedStack->name );

	mov	r9, QWORD PTR sym_ReservedStack
	mov	edx, 409				; 00000199H
	mov	r8d, DWORD PTR [rdi+36]
	mov	rcx, QWORD PTR [rbx+8]
	mov	r9, QWORD PTR [r9+8]
	call	AddLineQueueX

; 2423 : 
; 2424 :         /* save xmm registers */
; 2425 :         if ( cntxmm ) {

	test	esi, esi
	je	$LN9@write_win6

; 2426 :             int i;
; 2427 :             int cnt;
; 2428 :             regist = info->regslist;

	mov	rbp, QWORD PTR [rdi]

; 2429 :             i = ( info->localsize - cntxmm * 32 ) & ~(32-1);

	mov	ebx, DWORD PTR [rdi+36]
	shl	esi, 5
	sub	ebx, esi

; 2430 :             for( cnt = *regist++; cnt; cnt--, regist++ ) {

	movzx	edi, WORD PTR [rbp]
	and	ebx, -32				; ffffffffffffffe0H
	add	rbp, 2
	test	edi, edi
	je	$LN9@write_win6
	npad	2
$LL10@write_win6:

; 2431 :                 if ( GetValueSp( *regist ) & OP_XYZMM ) {

	movzx	ecx, WORD PTR [rbp]
	lea	rax, QWORD PTR [rcx+rcx*2]
	test	BYTE PTR [r12+rax*4], 128		; 00000080H
	je	$LN8@write_win6

; 2432 :                     if ( resstack ) {
; 2433 :                         AddLineQueueX( "vmovdqa [%r+%u+%s], %r", T_RSP, NUMQUAL i, sym_ReservedStack->name, *regist );

	mov	r8d, ebx
	mov	edx, 119				; 00000077H
	test	r15d, r15d
	je	SHORT $LN38@write_win6
	mov	r9, QWORD PTR sym_ReservedStack
	mov	DWORD PTR [rsp+32], ecx
	lea	rcx, OFFSET FLAT:$SG12246
	mov	r9, QWORD PTR [r9+8]
	call	AddLineQueueX

; 2434 :                         if ( ( 1 << GetRegNo( *regist ) ) & win64_nvxmm )  {

	movzx	edx, WORD PTR [rbp]
	lea	rax, QWORD PTR [rdx+rdx*2]
	movzx	ecx, BYTE PTR [r12+rax*4+10]
	mov	eax, 1
	shl	eax, cl
	test	eax, 65472				; 0000ffc0H
	je	SHORT $LN41@write_win6

; 2435 :                             AddLineQueueX( "%r %r, %u+%s", T_DOT_SAVEYMM256, *regist, NUMQUAL i, sym_ReservedStack->name );

	mov	rax, QWORD PTR sym_ReservedStack
	mov	r8d, edx
	mov	r9d, ebx
	mov	edx, 415				; 0000019fH
	mov	rcx, QWORD PTR [rax+8]
	mov	QWORD PTR [rsp+32], rcx
	lea	rcx, OFFSET FLAT:$SG12248
	call	AddLineQueueX

; 2436 :                         }
; 2437 :                     } else {

	jmp	SHORT $LN41@write_win6
$LN38@write_win6:

; 2438 :                         AddLineQueueX( "vmovdqa [%r+%u], %r", T_RSP, NUMQUAL i, *regist );

	mov	r9d, ecx
	lea	rcx, OFFSET FLAT:$SG12249
	call	AddLineQueueX

; 2439 :                         if ( ( 1 << GetRegNo( *regist ) ) & win64_nvxmm )  {

	movzx	edx, WORD PTR [rbp]
	lea	rax, QWORD PTR [rdx+rdx*2]
	movzx	ecx, BYTE PTR [r12+rax*4+10]
	mov	eax, 1
	shl	eax, cl
	test	eax, 65472				; 0000ffc0H
	je	SHORT $LN41@write_win6

; 2440 :                             AddLineQueueX( "%r %r, %u", T_DOT_SAVEYMM256, *regist, NUMQUAL i );

	mov	r8d, edx
	lea	rcx, OFFSET FLAT:$SG12251
	mov	edx, 415				; 0000019fH
	mov	r9d, ebx
	call	AddLineQueueX
$LN41@write_win6:

; 2441 :                         }
; 2442 :                     }
; 2443 :                     i += 32;

	add	ebx, 32					; 00000020H
$LN8@write_win6:

; 2430 :             for( cnt = *regist++; cnt; cnt--, regist++ ) {

	add	rbp, 2
	sub	edi, 1
	jne	$LL10@write_win6
$LN9@write_win6:

; 2444 :                 }
; 2445 :             }
; 2446 :         }
; 2447 : 
; 2448 :     }
; 2449 :     AddLineQueueX( "%r", T_DOT_ENDPROLOG );

	mov	edx, 410				; 0000019aH
	lea	rcx, OFFSET FLAT:$SG12252
	mov	rsi, QWORD PTR [rsp+112]
	mov	rbp, QWORD PTR [rsp+104]
	mov	rbx, QWORD PTR [rsp+96]

; 2450 : 
; 2451 :     /* v2.11: linequeue is now run in write_default_prologue() */
; 2452 :     return;
; 2453 : }

	add	rsp, 64					; 00000040H
	pop	r15
	pop	r12
	pop	rdi

; 2444 :                 }
; 2445 :             }
; 2446 :         }
; 2447 : 
; 2448 :     }
; 2449 :     AddLineQueueX( "%r", T_DOT_ENDPROLOG );

	jmp	AddLineQueueX
write_win64_default_prologue ENDP
_TEXT	ENDS
; Function compile flags: /Ogtpy
; File d:\hjwasm\hjwasm2.13.1s\hjwasm2.13.1s\proc.c
;	COMDAT win64_StoreRegHome
_TEXT	SEGMENT
info$ = 64
win64_StoreRegHome PROC					; COMDAT

; 2235 : {

	push	rsi
	push	rdi
	push	r14
	sub	rsp, 32					; 00000020H

; 2236 :   int			       i = 0;
; 2237 :   int			       cnt;
; 2238 :   int            grcount = 0;
; 2239 :   int			       sizestd = 0;
; 2240 :   int            freeshadow = 4;
; 2241 :   uint_16        *regist;
; 2242 :   info->stored_reg = 0;
; 2243 :   if (info->regslist) {

	mov	rdi, QWORD PTR [rcx]
	xor	r14d, r14d
	mov	DWORD PTR [rcx+60], r14d
	mov	rsi, rcx
	mov	edx, r14d
	test	rdi, rdi
	je	$LN24@win64_Stor

; 2244 :     for (regist = info->regslist, cnt = *regist++; cnt; cnt--, regist++, i++) {

	movzx	r8d, WORD PTR [rdi]
	add	rdi, 2
	mov	QWORD PTR [rsp+64], rbx
	mov	QWORD PTR [rsp+80], r15
	lea	r15, OFFSET FLAT:SpecialTable
	test	r8d, r8d
	je	SHORT $LN3@win64_Stor
$LL4@win64_Stor:

; 2245 :       if (GetValueSp(*regist) & OP_XYZMM) continue;

	movzx	eax, WORD PTR [rdi]
	lea	rcx, QWORD PTR [rax+rax*2]
	test	BYTE PTR [r15+rcx*4], 128		; 00000080H
	jne	SHORT $LN2@win64_Stor

; 2246 :       else ++grcount;                                       //find how many general registers to save

	inc	edx
$LN2@win64_Stor:

; 2244 :     for (regist = info->regslist, cnt = *regist++; cnt; cnt--, regist++, i++) {

	add	rdi, 2
	sub	r8d, 1
	jne	SHORT $LL4@win64_Stor
$LN3@win64_Stor:

; 2247 :     }
; 2248 :     //for (i = 0, freeshadow = 0; i<4; i++){                  
; 2249 :     //  if (info->home_used[i] == 0) ++freeshadow;
; 2250 :     //}
; 2251 :     freeshadow -= info->home_taken;                         //find out how many free shadows

	mov	r8d, 4
	mov	eax, r8d
	sub	eax, DWORD PTR [rsi+68]

; 2252 :     if (freeshadow){                                        //skip if all shadow spaces are taken  

	je	$LN44@win64_Stor

; 2253 :       if (grcount == 1) memset(info->home_used, 1, 4);      //1 register only? don't store it, push it to prevent 'sub rsp,...8'

	cmp	edx, 1
	jne	SHORT $LN30@win64_Stor
	mov	rax, 72340172838076673			; 0101010101010101H
	mov	DWORD PTR [rsi+76], eax
	jmp	$LN44@win64_Stor
$LN30@win64_Stor:

; 2254 :       else if (grcount == 2 && freeshadow >= 2){            //store only one egister, another push to prevent 'sub rsp,...8'

	cmp	edx, 2
	jne	SHORT $LN32@win64_Stor
	cmp	eax, edx
	jl	$LN44@win64_Stor

; 2255 :         for (i = 0; i<4; i++){

	mov	ecx, r14d
	mov	rax, r14
$LL7@win64_Stor:

; 2256 :           if (info->home_used[i] == 0) break;               //we need only one space   

	cmp	BYTE PTR [rsi+rax+76], r14b
	je	SHORT $LN60@win64_Stor

; 2255 :         for (i = 0; i<4; i++){

	inc	ecx
	inc	rax
	cmp	rax, r8
	jl	SHORT $LL7@win64_Stor
$LN60@win64_Stor:

; 2257 :         }
; 2258 :         for (++i; i<4; i++)                                 //the rest of free spaces render as taken

	lea	eax, DWORD PTR [rcx+1]

; 2259 :           info->home_used[i] = 1;
; 2260 :       }

	jmp	SHORT $LN92@win64_Stor
$LN32@win64_Stor:

; 2261 :       else if (grcount == 3){                               //3 registers?

	cmp	edx, 3
	jne	SHORT $LN35@win64_Stor

; 2262 :         if (freeshadow == 1) memset(info->home_used, 1, 4); //if only 1 free shadow, don't store it, push them

	cmp	eax, 1
	jne	SHORT $LN37@win64_Stor
	mov	rax, 72340172838076673			; 0101010101010101H
	mov	DWORD PTR [rsi+76], eax

; 2263 :         if (freeshadow >= 3){                               //enen if there is enough space we will store only two

	jmp	$LN44@win64_Stor
$LN37@win64_Stor:
	cmp	eax, 3
	jl	$LN44@win64_Stor

; 2264 :           for (i = 0; i<4; i++){                            //the third one we will push to keep uneven stack 

	mov	eax, r14d
	mov	rcx, r14
$LL13@win64_Stor:

; 2265 :             if (info->home_used[i] == 0) break;             //found first availible

	cmp	BYTE PTR [rsi+rcx+76], r14b
	je	SHORT $LN61@win64_Stor

; 2264 :           for (i = 0; i<4; i++){                            //the third one we will push to keep uneven stack 

	inc	eax
	inc	rcx
	cmp	rcx, r8
	jl	SHORT $LL13@win64_Stor
$LN61@win64_Stor:

; 2266 :           }
; 2267 :           for (++i; i<4; i++){

	inc	eax
	movsxd	rcx, eax
	cmp	rcx, r8
	jge	SHORT $LN88@win64_Stor
$LL16@win64_Stor:

; 2268 :             if (info->home_used[i] == 0) break;            //found second availible

	cmp	BYTE PTR [rsi+rcx+76], r14b
	je	SHORT $LN88@win64_Stor

; 2266 :           }
; 2267 :           for (++i; i<4; i++){

	inc	eax
	inc	rcx
	cmp	rcx, r8
	jl	SHORT $LL16@win64_Stor
$LN88@win64_Stor:

; 2269 :           }
; 2270 :           for (++i; i<4; i++)

	inc	eax
$LN92@win64_Stor:
	movsxd	rcx, eax
	cmp	rcx, r8
	jge	SHORT $LN44@win64_Stor
	lea	rdi, QWORD PTR [rsi+76]
	mov	eax, 1
	add	rdi, rcx
	sub	r8, rcx
	mov	rcx, r8
	rep stosb

; 2271 :             info->home_used[i] = 1;                        //render the rest of the shadow spaces as taken
; 2272 :         }
; 2273 :       }

	jmp	SHORT $LN44@win64_Stor
$LN35@win64_Stor:

; 2274 :       else if (grcount == 4 && freeshadow == 4){          //easy case

	cmp	edx, r8d
	jne	SHORT $LN91@win64_Stor
	cmp	eax, r8d
	jne	SHORT $LN44@win64_Stor

; 2275 :         info->home_used[3] = 1;                           //render the last shadow spaces as taken

	mov	BYTE PTR [rsi+79], 1

; 2276 :       }                                                   //remember the first space is 0 than 1, 2 and 3 follow 

	jmp	SHORT $LN44@win64_Stor
$LN91@win64_Stor:

; 2277 :       else if (grcount > 4){                              //if more registars than spaces

	jle	SHORT $LN44@win64_Stor

; 2278 :         freeshadow = grcount - freeshadow;                //find out how many we can store

	sub	edx, eax

; 2279 :         if (!(freeshadow & 1)){                           //if it is even number

	test	dl, 1
	jne	SHORT $LN44@win64_Stor

; 2280 :           for (i = 0; i<4; i++){                          //than we have to disable one space

	mov	ecx, r14d
	mov	rax, r14
$LL22@win64_Stor:

; 2281 :             if (info->home_used[i] == 0) break;           //find the first free space 

	cmp	BYTE PTR [rsi+rax+76], r14b
	je	SHORT $LN63@win64_Stor

; 2280 :           for (i = 0; i<4; i++){                          //than we have to disable one space

	inc	ecx
	inc	rax
	cmp	rax, r8
	jl	SHORT $LL22@win64_Stor
$LN63@win64_Stor:

; 2282 :           }
; 2283 :           info->home_used[i] = 1;                         //and render it as taken

	movsxd	rax, ecx
	mov	BYTE PTR [rax+rsi+76], 1
$LN44@win64_Stor:

; 2284 :         }
; 2285 :       }
; 2286 :     }
; 2287 :     for (i = 0, regist = info->regslist, cnt = *regist++; cnt; cnt--, regist++, i++) {

	mov	rdi, QWORD PTR [rsi]
	movzx	ebx, WORD PTR [rdi]
	add	rdi, 2
	test	ebx, ebx
	je	$LN90@win64_Stor
	mov	QWORD PTR [rsp+72], rbp
	mov	rbp, r14
	npad	11
$LL25@win64_Stor:

; 2288 :       if (GetValueSp(*regist) & (OP_XYZMM )) continue;

	movzx	ecx, WORD PTR [rdi]
	lea	rax, QWORD PTR [rcx+rcx*2]
	test	BYTE PTR [r15+rax*4], 128		; 00000080H
	jne	SHORT $LN23@win64_Stor

; 2289 :       else {
; 2290 :         sizestd += 8;

	add	r14d, 8

; 2291 :         if (i < 4)

	cmp	rbp, 4
	jge	SHORT $LN23@win64_Stor

; 2292 :         {
; 2293 :           if (info->home_used[i] == 0){

	cmp	BYTE PTR [rsi+rbp+76], 0
	jne	SHORT $LN49@win64_Stor

; 2294 :             AddLineQueueX("mov [%r+%u], %r", T_RSP, NUMQUAL sizestd, *regist);

	mov	r9d, ecx
	mov	r8d, r14d
	lea	rcx, OFFSET FLAT:$SG12184
	mov	edx, 119				; 00000077H
	call	AddLineQueueX

; 2295 :             AddLineQueueX("%r %r, %u", T_DOT_SAVEREG, *regist, NUMQUAL sizestd);

	movzx	r8d, WORD PTR [rdi]
	lea	rcx, OFFSET FLAT:$SG12185
	mov	r9d, r14d
	mov	edx, 413				; 0000019dH
	call	AddLineQueueX

; 2296 :             info->stored_reg++;

	inc	DWORD PTR [rsi+60]

; 2297 :           }

	jmp	SHORT $LN23@win64_Stor
$LN49@win64_Stor:

; 2298 :           else {
; 2299 :             cnt++; regist--;

	inc	ebx
	sub	rdi, 2
$LN23@win64_Stor:

; 2284 :         }
; 2285 :       }
; 2286 :     }
; 2287 :     for (i = 0, regist = info->regslist, cnt = *regist++; cnt; cnt--, regist++, i++) {

	add	rdi, 2
	inc	rbp
	sub	ebx, 1
	jne	SHORT $LL25@win64_Stor
	mov	rbp, QWORD PTR [rsp+72]
$LN90@win64_Stor:
	mov	rbx, QWORD PTR [rsp+64]
	mov	r15, QWORD PTR [rsp+80]
$LN24@win64_Stor:

; 2300 :           }
; 2301 :         }
; 2302 :       }
; 2303 :     }/* end for */
; 2304 :   }
; 2305 :   return;
; 2306 : }

	add	rsp, 32					; 00000020H
	pop	r14
	pop	rdi
	pop	rsi
	ret	0
win64_StoreRegHome ENDP
_TEXT	ENDS
; Function compile flags: /Ogtpy
; File d:\hjwasm\hjwasm2.13.1s\hjwasm2.13.1s\proc.c
;	COMDAT win64_SaveRegParams
_TEXT	SEGMENT
info$ = 64
win64_SaveRegParams PROC				; COMDAT

; 2180 : {

	mov	QWORD PTR [rsp+8], rbx
	mov	QWORD PTR [rsp+16], rbp
	mov	QWORD PTR [rsp+24], rsi
	push	rdi
	push	r14
	push	r15
	sub	rsp, 32					; 00000020H

; 2181 :     int i;
; 2182 :     struct dsym *param;
; 2183 :     if (ModuleInfo.win64_flags & W64F_HABRAN){
; 2184 :       int			   cnt;
; 2185 :       uint_16        *regist;
; 2186 :       info->home_taken = 0;

	xor	ebp, ebp
	mov	r14, rcx
	test	BYTE PTR ModuleInfo+413, 11
	je	$LN8@win64_Save

; 2187 :       memset(info->home_used, 0, 4);

	xor	eax, eax
	mov	DWORD PTR [rcx+68], ebp
	lea	r15, QWORD PTR [rcx+76]
	mov	DWORD PTR [r15], eax

; 2188 :       if (info->regslist)
; 2189 :         regist = info->regslist;
; 2190 : 
; 2191 :       for (i = 0, param = info->paralist; param && (i < 4); i++) {

	mov	rdi, QWORD PTR [rcx+8]
	test	rdi, rdi
	je	$LN29@win64_Save
	mov	ebx, 8
	lea	rsi, OFFSET FLAT:ms64_regs
	npad	1
$LL4@win64_Save:
	cmp	ebx, 40					; 00000028H
	jge	$LN29@win64_Save

; 2192 :         /* v2.05: save XMMx if type is float/double */
; 2193 :         if (param->sym.is_vararg == FALSE) {

	test	BYTE PTR [rdi+47], 32			; 00000020H
	jne	SHORT $LN11@win64_Save

; 2194 :           if ((param->sym.mem_type & MT_FLOAT) && param->sym.used){  // added  && param->sym.used

	test	BYTE PTR [rdi+36], 32			; 00000020H
	je	SHORT $LN13@win64_Save
	test	BYTE PTR [rdi+40], 1
	je	SHORT $LN15@win64_Save

; 2195 :             AddLineQueueX("movq [%r+%u], %r", T_RSP, 8 + i * 8, T_XMM0 + i);

	lea	r9d, DWORD PTR [rbp+40]
	lea	rcx, OFFSET FLAT:$SG12114

; 2196 :             info->home_used[i] = 1;
; 2197 :             ++info->home_taken;
; 2198 :           }

	jmp	SHORT $LN31@win64_Save
$LN13@win64_Save:

; 2199 :           else{
; 2200 :             if (param->sym.used){                                    //here as well 

	test	BYTE PTR [rdi+40], 1
	je	SHORT $LN15@win64_Save

; 2201 :               AddLineQueueX("mov [%r+%u], %r", T_RSP, 8 + i * 8, ms64_regs[i]);

	mov	r9d, DWORD PTR [rsi]
	lea	rcx, OFFSET FLAT:$SG12116
$LN31@win64_Save:
	mov	r8d, ebx
	mov	edx, 119				; 00000077H
	call	AddLineQueueX

; 2202 :               info->home_used[i] = 1;

	mov	BYTE PTR [r15], 1

; 2203 :               ++info->home_taken;

	inc	DWORD PTR [r14+68]
$LN15@win64_Save:

; 2204 :             }
; 2205 :           }
; 2206 :           param = param->nextparam;

	mov	rdi, QWORD PTR [rdi+112]

; 2207 :         }

	jmp	SHORT $LN2@win64_Save
$LN11@win64_Save:

; 2208 :         else { /* v2.09: else branch added */
; 2209 :           AddLineQueueX("mov [%r+%u], %r", T_RSP, 8 + i * 8, ms64_regs[i]);

	mov	r9d, DWORD PTR [rsi]
	lea	rcx, OFFSET FLAT:$SG12117
	mov	r8d, ebx
	mov	edx, 119				; 00000077H
	call	AddLineQueueX

; 2210 :           info->home_used[i] = 1;

	mov	BYTE PTR [r15], 1

; 2211 :           ++info->home_taken;

	inc	DWORD PTR [r14+68]
$LN2@win64_Save:

; 2188 :       if (info->regslist)
; 2189 :         regist = info->regslist;
; 2190 : 
; 2191 :       for (i = 0, param = info->paralist; param && (i < 4); i++) {

	inc	ebp
	add	ebx, 8
	add	rsi, 4
	inc	r15
	test	rdi, rdi
	jne	$LL4@win64_Save

; 2212 :         }
; 2213 :       }
; 2214 :     }

	jmp	SHORT $LN29@win64_Save
$LN8@win64_Save:

; 2215 :     else {
; 2216 :       for (i = 0, param = info->paralist; param && (i < 4); i++) {

	mov	rdi, QWORD PTR [rcx+8]
	test	rdi, rdi
	je	SHORT $LN29@win64_Save
	mov	ebx, 8
	lea	rsi, OFFSET FLAT:ms64_regs
	npad	2
$LL7@win64_Save:
	cmp	ebx, 40					; 00000028H
	jge	SHORT $LN29@win64_Save

; 2217 :         /* v2.05: save XMMx if type is float/double */
; 2218 :         if (param->sym.is_vararg == FALSE) {

	test	BYTE PTR [rdi+47], 32			; 00000020H

; 2220 :             AddLineQueueX("movq [%r+%u], %r", T_RSP, 8 + i * 8, T_XMM0 + i);

	mov	r8d, ebx
	mov	edx, 119				; 00000077H
	jne	SHORT $LN16@win64_Save

; 2219 :           if (param->sym.mem_type & MT_FLOAT)

	test	BYTE PTR [rdi+36], 32			; 00000020H
	je	SHORT $LN18@win64_Save

; 2220 :             AddLineQueueX("movq [%r+%u], %r", T_RSP, 8 + i * 8, T_XMM0 + i);

	lea	r9d, DWORD PTR [rbp+40]
	lea	rcx, OFFSET FLAT:$SG12122

; 2221 :           else
; 2222 :             AddLineQueueX("mov [%r+%u], %r", T_RSP, 8 + i * 8, ms64_regs[i]);

	call	AddLineQueueX

; 2223 :           param = param->nextparam;

	mov	rdi, QWORD PTR [rdi+112]

; 2224 :         }

	jmp	SHORT $LN5@win64_Save
$LN18@win64_Save:

; 2221 :           else
; 2222 :             AddLineQueueX("mov [%r+%u], %r", T_RSP, 8 + i * 8, ms64_regs[i]);

	mov	r9d, DWORD PTR [rsi]
	lea	rcx, OFFSET FLAT:$SG12123
	call	AddLineQueueX

; 2223 :           param = param->nextparam;

	mov	rdi, QWORD PTR [rdi+112]

; 2224 :         }

	jmp	SHORT $LN5@win64_Save
$LN16@win64_Save:

; 2225 :         else { /* v2.09: else branch added */
; 2226 :           AddLineQueueX("mov [%r+%u], %r", T_RSP, 8 + i * 8, ms64_regs[i]);

	mov	r9d, DWORD PTR [rsi]
	lea	rcx, OFFSET FLAT:$SG12124
	call	AddLineQueueX
$LN5@win64_Save:

; 2215 :     else {
; 2216 :       for (i = 0, param = info->paralist; param && (i < 4); i++) {

	inc	ebp
	add	ebx, 8
	add	rsi, 4
	test	rdi, rdi
	jne	SHORT $LL7@win64_Save
$LN29@win64_Save:

; 2227 :         }
; 2228 :       }
; 2229 :     }
; 2230 :     return;
; 2231 : }

	mov	rbx, QWORD PTR [rsp+64]
	mov	rbp, QWORD PTR [rsp+72]
	mov	rsi, QWORD PTR [rsp+80]
	add	rsp, 32					; 00000020H
	pop	r15
	pop	r14
	pop	rdi
	ret	0
win64_SaveRegParams ENDP
_TEXT	ENDS
; Function compile flags: /Ogtpy
; File d:\hjwasm\hjwasm2.13.1s\hjwasm2.13.1s\proc.c
;	COMDAT write_userdef_prologue
_TEXT	SEGMENT
reglst$ = 64
buffer$ = 192
tokenarray$ = 848
is_exitm$ = 856
write_userdef_prologue PROC				; COMDAT

; 2089 : {

	push	rbp
	push	r12
	sub	rsp, 824				; 00000338H

; 2090 :     int                 len;
; 2091 :     int                 i;
; 2092 :     struct proc_info    *info;
; 2093 :     char                *p;
; 2094 :     bool                is_exitm;
; 2095 :     struct dsym         *dir;
; 2096 :     //int                 align = CurrWordSize;
; 2097 :     int                 flags = CurrProc->sym.langtype; /* set bits 0-2 */
; 2098 :     uint_16             *regs;
; 2099 :     char                reglst[128];
; 2100 :     char                buffer[MAX_LINE_LEN];
; 2101 : 
; 2102 : #if FASTPASS
; 2103 :     if ( Parse_Pass > PASS_1 && UseSavedState )

	cmp	DWORD PTR Parse_Pass, 0
	mov	r12, rcx
	mov	r8, QWORD PTR CurrProc
	mov	edx, DWORD PTR [r8+76]
	mov	ebp, edx
	jbe	SHORT $LN8@write_user
	cmp	BYTE PTR UseSavedState, 0
	je	SHORT $LN8@write_user

; 2104 :         return( NOT_ERROR );

	xor	eax, eax

; 2172 : }

	add	rsp, 824				; 00000338H
	pop	r12
	pop	rbp
	ret	0
$LN8@write_user:
	mov	QWORD PTR [rsp+816], r13

; 2105 : #endif
; 2106 : 
; 2107 :     info = CurrProc->e.procinfo;
; 2108 :     /* v2.11: now done in write_prologue() */
; 2109 :     //info->localsize = ROUND_UP( info->localsize, CurrWordSize );
; 2110 : #if AMD64_SUPPORT
; 2111 :     /* to be compatible with ML64, translate FASTCALL to 0 (not 7) */
; 2112 :     if ( CurrProc->sym.langtype == LANG_FASTCALL && ModuleInfo.fctype == FCT_WIN64 )

	xor	r13d, r13d
	mov	QWORD PTR [rsp+808], r14
	mov	r14, QWORD PTR [r8+96]
	mov	QWORD PTR [rsp+800], r15
	cmp	edx, 7
	jne	SHORT $LN9@write_user
	cmp	DWORD PTR ModuleInfo+376, 2
	cmove	ebp, r13d
$LN9@write_user:
	lea	eax, DWORD PTR [rdx-1]
	cmp	eax, 1
	jbe	SHORT $LN11@write_user
	cmp	edx, 7
	jne	SHORT $LN10@write_user
$LN11@write_user:

; 2113 :         flags = 0;
; 2114 : #endif
; 2115 :     /* set bit 4 if the caller restores (E)SP */
; 2116 :     if ( CurrProc->sym.langtype == LANG_C ||
; 2117 :         CurrProc->sym.langtype == LANG_SYSCALL ||
; 2118 :         CurrProc->sym.langtype == LANG_FASTCALL )
; 2119 :         flags |= 0x10;

	or	ebp, 16
$LN10@write_user:

; 2120 : 
; 2121 :     /* set bit 5 if proc is far */
; 2122 :     /* set bit 6 if proc is private */
; 2123 :     /* v2.11: set bit 7 if proc is export */
; 2124 :     flags |= ( CurrProc->sym.mem_type == MT_FAR ? 0x20 : 0 );
; 2125 :     flags |= ( CurrProc->sym.ispublic ? 0 : 0x40 );
; 2126 :     flags |= ( info->isexport ? 0x80 : 0 );

	movzx	ecx, BYTE PTR [r8+40]
	mov	edx, 32					; 00000020H
	movzx	eax, BYTE PTR [r14+84]
	not	cl
	shr	ecx, 1
	and	eax, 4
	and	ecx, 64					; 00000040H
	shl	eax, 5
	or	ecx, eax
	mov	eax, r13d
	cmp	DWORD PTR [r8+36], 130			; 00000082H
	cmove	eax, edx
	or	ecx, eax
	or	ebp, ecx

; 2127 : 
; 2128 :     dir = (struct dsym *)SymSearch( ModuleInfo.proc_prologue );

	mov	rcx, QWORD PTR ModuleInfo+320
	call	SymFind
	mov	r15, rax

; 2129 :     if ( dir == NULL || dir->sym.state != SYM_MACRO || dir->sym.isfunc != TRUE ) {

	test	rax, rax
	je	$LN13@write_user
	cmp	DWORD PTR [rax+32], 9
	jne	$LN13@write_user
	test	BYTE PTR [rax+44], 2
	je	$LN13@write_user

; 2131 :     }
; 2132 : 
; 2133 :     /* if -EP is on, emit "prologue: none" */
; 2134 :     if ( Options.preprocessor_stdout )

	cmp	BYTE PTR Options+125, r13b
	mov	QWORD PTR [rsp+848], rbx
	mov	QWORD PTR [rsp+864], rsi
	je	SHORT $LN14@write_user

; 2135 :         printf( "option prologue:none\n" );

	lea	rcx, OFFSET FLAT:$SG12087
	call	printf
$LN14@write_user:

; 2136 : 
; 2137 :     p = reglst;
; 2138 :     if ( info->regslist ) {

	mov	rsi, QWORD PTR [r14]
	lea	rbx, QWORD PTR reglst$[rsp]
	test	rsi, rsi
	je	SHORT $LN3@write_user

; 2139 :         regs = info->regslist;
; 2140 :         for ( len = *regs++; len; len--, regs++ ) {

	mov	QWORD PTR [rsp+872], rdi
	movzx	edi, WORD PTR [rsi]
	add	rsi, 2
	test	edi, edi
	je	SHORT $LN34@write_user
	npad	6
$LL4@write_user:

; 2141 :             GetResWName( *regs, p );

	movzx	ecx, WORD PTR [rsi]
	mov	rdx, rbx
	call	GetResWName

; 2142 :             p += strlen( p );

	or	rax, -1
	npad	1
$LL30@write_user:
	inc	rax
	cmp	BYTE PTR [rbx+rax], r13b
	jne	SHORT $LL30@write_user
	add	rbx, rax

; 2143 :             if ( len > 1 )

	cmp	edi, 1
	jle	SHORT $LN2@write_user

; 2144 :                 *p++ = ',';

	mov	BYTE PTR [rbx], 44			; 0000002cH
	inc	rbx
$LN2@write_user:

; 2139 :         regs = info->regslist;
; 2140 :         for ( len = *regs++; len; len--, regs++ ) {

	add	rsi, 2
	sub	edi, 1
	jne	SHORT $LL4@write_user
$LN34@write_user:
	mov	rdi, QWORD PTR [rsp+872]
$LN3@write_user:

; 2145 :         }
; 2146 :     }
; 2147 :     *p = NULLC;

	mov	BYTE PTR [rbx], r13b

; 2148 : 
; 2149 :     /* v2.07: make this work with radix != 10 */
; 2150 :     /* leave a space at pos 0 of buffer, because the buffer is used for
; 2151 :      * both macro arguments and EXITM return value.
; 2152 :      */
; 2153 :     sprintf( buffer," (%s, 0%XH, 0%XH, 0%XH, <<%s>>, <%s>)",

	lea	rcx, OFFSET FLAT:$SG12090
	mov	rax, QWORD PTR [r14+40]
	lea	rdx, OFFSET FLAT:$SG12091
	mov	r8, QWORD PTR CurrProc
	test	rax, rax
	mov	r9d, ebp
	cmovne	rcx, rax
	lea	rax, QWORD PTR reglst$[rsp]
	mov	QWORD PTR [rsp+56], rcx
	lea	rcx, QWORD PTR buffer$[rsp]
	mov	r8, QWORD PTR [r8+8]
	mov	QWORD PTR [rsp+48], rax
	mov	eax, DWORD PTR [r14+36]
	mov	DWORD PTR [rsp+40], eax
	mov	eax, DWORD PTR [r14+32]
	mov	DWORD PTR [rsp+32], eax
	call	sprintf

; 2154 :              CurrProc->sym.name, flags, info->parasize, info->localsize,
; 2155 :             reglst, info->prologuearg ? info->prologuearg : "" );
; 2156 :     i = Token_Count + 1;

	mov	ebx, DWORD PTR ModuleInfo+496

; 2157 :     Token_Count = Tokenize( buffer, i, tokenarray, TOK_RESCAN );

	lea	rcx, QWORD PTR buffer$[rsp]
	mov	r9d, 1
	mov	r8, r12
	lea	edx, DWORD PTR [rbx+1]
	call	Tokenize
	mov	DWORD PTR ModuleInfo+496, eax

; 2158 : 
; 2159 :     RunMacro( dir, i, tokenarray, buffer, 0, &is_exitm );

	lea	r9, QWORD PTR buffer$[rsp]
	lea	rax, QWORD PTR is_exitm$[rsp]
	mov	r8, r12
	mov	QWORD PTR [rsp+40], rax
	lea	edx, DWORD PTR [rbx+1]
	mov	rcx, r15
	mov	DWORD PTR [rsp+32], r13d
	call	RunMacro

; 2160 :     Token_Count = i - 1;
; 2161 :     DebugMsg(("write_userdef_prologue: macro %s returned >%s<\n", ModuleInfo.proc_prologue, buffer ));
; 2162 : 
; 2163 :     if ( Parse_Pass == PASS_1 ) {

	cmp	DWORD PTR Parse_Pass, r13d
	mov	rsi, QWORD PTR [rsp+864]
	mov	DWORD PTR ModuleInfo+496, ebx
	mov	rbx, QWORD PTR [rsp+848]
	jne	SHORT $LN6@write_user

; 2164 :         struct dsym *curr;
; 2165 :         len = atoi( buffer ) - info->localsize;

	lea	rcx, QWORD PTR buffer$[rsp]
	call	atoi
	sub	eax, DWORD PTR [r14+36]

; 2166 :         for ( curr = info->locallist; curr; curr = curr->nextlocal ) {

	mov	rcx, QWORD PTR [r14+16]
	test	rcx, rcx
	je	SHORT $LN6@write_user
$LL7@write_user:

; 2167 :             curr->sym.offset -= len;

	sub	DWORD PTR [rcx+16], eax
	mov	rcx, QWORD PTR [rcx+112]
	test	rcx, rcx
	jne	SHORT $LL7@write_user
$LN6@write_user:

; 2168 :         }
; 2169 :     }
; 2170 : 
; 2171 :     return ( NOT_ERROR );

	xor	eax, eax
	jmp	SHORT $LN33@write_user
$LN13@write_user:

; 2130 :         return( EmitError( PROLOGUE_MUST_BE_MACRO_FUNC ) );

	mov	ecx, 156				; 0000009cH
	call	EmitError
$LN33@write_user:
	mov	r13, QWORD PTR [rsp+816]
	mov	r14, QWORD PTR [rsp+808]
	mov	r15, QWORD PTR [rsp+800]

; 2172 : }

	add	rsp, 824				; 00000338H
	pop	r12
	pop	rbp
	ret	0
write_userdef_prologue ENDP
_TEXT	ENDS
; Function compile flags: /Ogtpy
; File d:\hjwasm\hjwasm2.13.1s\hjwasm2.13.1s\proc.c
_TEXT	SEGMENT
opndx$ = 48
i$ = 208
tokenarray$ = 216
ExcFrameDirective PROC

; 1843 : {

$LN80:
	mov	DWORD PTR [rsp+8], ecx
	push	rbp
	push	r13
	push	r15
	lea	rbp, QWORD PTR [rsp-71]
	sub	rsp, 176				; 000000b0H

; 1844 :     struct expr opndx;
; 1845 :     int token;
; 1846 :     unsigned int size;
; 1847 :     uint_8 oldcodes = unw_info.CountOfCodes;
; 1848 :     uint_8 reg;
; 1849 :     uint_8 ofs;
; 1850 :     UNWIND_CODE *puc;
; 1851 : 
; 1852 :     DebugMsg1(("ExcFrameDirective(%s) enter\n", tokenarray[i].string_ptr ));
; 1853 :     /* v2.05: accept directives for windows only */
; 1854 :     if ( Options.output_format != OFORMAT_COFF
; 1855 : #if PE_SUPPORT
; 1856 :         && ModuleInfo.sub_format != SFORMAT_PE

	cmp	DWORD PTR Options+144, 2
	mov	r15, rdx
	movzx	r13d, BYTE PTR unw_info+2
	je	SHORT $LN6@ExcFrameDi
	cmp	DWORD PTR ModuleInfo+372, 2
	je	SHORT $LN6@ExcFrameDi

; 1857 : #endif
; 1858 :        ) {
; 1859 :         return( EmitErr( NOT_SUPPORTED_WITH_CURR_FORMAT, GetResWName( tokenarray[i].tokval, NULL ) ) );

	movsxd	rax, ecx
	xor	edx, edx
	shl	rax, 5
	mov	ecx, DWORD PTR [rax+r15+16]
	call	GetResWName
	mov	rdx, rax
	mov	ecx, 224				; 000000e0H
	call	EmitErr

; 2071 : }

	add	rsp, 176				; 000000b0H
	pop	r15
	pop	r13
	pop	rbp
	ret	0
$LN6@ExcFrameDi:

; 1860 :     }
; 1861 :     if ( CurrProc == NULL || endprolog_found == TRUE ) {

	mov	rax, QWORD PTR CurrProc
	test	rax, rax
	je	$LN8@ExcFrameDi
	cmp	BYTE PTR endprolog_found, 1
	je	$LN8@ExcFrameDi

; 1863 :     }
; 1864 :     if ( CurrProc->e.procinfo->isframe == FALSE ) {

	mov	rax, QWORD PTR [rax+96]
	test	BYTE PTR [rax+84], 64			; 00000040H
	jne	SHORT $LN9@ExcFrameDi

; 1865 :         return( EmitError( MISSING_FRAME_IN_PROC ) );

	mov	ecx, 255				; 000000ffH
	call	EmitError

; 2071 : }

	add	rsp, 176				; 000000b0H
	pop	r15
	pop	r13
	pop	rbp
	ret	0
$LN9@ExcFrameDi:
	mov	QWORD PTR [rsp+216], rbx
	mov	QWORD PTR [rsp+224], rsi

; 1866 :     }
; 1867 : 
; 1868 :     puc = &unw_code[unw_info.CountOfCodes];

	lea	rsi, OFFSET FLAT:__ImageBase
	movzx	eax, r13b
	mov	QWORD PTR [rsp+232], rdi
	mov	QWORD PTR [rsp+168], r12
	mov	QWORD PTR [rsp+160], r14
	lea	rbx, QWORD PTR unw_code[rax*2]
	add	rbx, rsi

; 1869 : 
; 1870 :     ofs = GetCurrOffset() - CurrProc->sym.offset;

	call	GetCurrOffset

; 1871 :     token = tokenarray[i].tokval;

	movsxd	r8, DWORD PTR i$[rbp-105]
	mov	r12d, eax
	mov	rcx, QWORD PTR CurrProc
	sub	r12b, BYTE PTR [rcx+16]
	mov	rcx, r8
	shl	rcx, 5

; 1872 :     i++;

	inc	r8d
	mov	edi, DWORD PTR [rcx+r15+16]
	mov	DWORD PTR i$[rbp-105], r8d

; 1873 : 
; 1874 :     /* note: since the codes will be written from "right to left",
; 1875 :      * the opcode item has to be written last!
; 1876 :      */
; 1877 : 
; 1878 :     switch ( token ) {

	lea	eax, DWORD PTR [rdi-409]
	cmp	eax, 7
	ja	$LN61@ExcFrameDi
	movsxd	rcx, eax
	mov	eax, DWORD PTR $LN59@ExcFrameDi[rsi+rcx*4]
	add	rax, rsi
	jmp	rax
$LN10@ExcFrameDi:

; 1879 :     case T_DOT_ALLOCSTACK: /* syntax: .ALLOCSTACK size */
; 1880 :         if ( ERROR == EvalOperand( &i, tokenarray, Token_Count, &opndx, 0 ) )

	mov	r8d, DWORD PTR ModuleInfo+496
	lea	r9, QWORD PTR opndx$[rbp-105]
	mov	rdx, r15
	mov	BYTE PTR [rsp+32], 0
	lea	rcx, QWORD PTR i$[rbp-105]
	call	EvalOperand
	cmp	eax, -1
	je	$LN75@ExcFrameDi

; 1881 :             return( ERROR );
; 1882 :         if ( opndx.kind == EXPR_ADDR && opndx.sym->state == SYM_UNDEFINED ) /* v2.11: allow forward references */

	mov	eax, DWORD PTR opndx$[rbp-45]
	cmp	eax, 1
	jne	SHORT $LN12@ExcFrameDi
	mov	rax, QWORD PTR opndx$[rbp-25]
	cmp	DWORD PTR [rax+32], 0

; 1883 :              ;
; 1884 :         else if ( opndx.kind != EXPR_CONST ) {

	jmp	SHORT $LN68@ExcFrameDi
$LN12@ExcFrameDi:
	test	eax, eax
$LN68@ExcFrameDi:
	jne	$LN74@ExcFrameDi

; 1885 :             return( EmitError( CONSTANT_EXPECTED ) );
; 1886 :         }
; 1887 :         /* v2.11: check added */
; 1888 :         if ( opndx.hvalue ) {

	cmp	DWORD PTR opndx$[rbp-101], 0
	jne	$LN72@ExcFrameDi

; 1889 :             return( EmitConstError( &opndx ) );
; 1890 :         }
; 1891 :         if ( opndx.uvalue == 0 ) {

	mov	eax, DWORD PTR opndx$[rbp-105]
	test	eax, eax
	jne	SHORT $LN16@ExcFrameDi

; 1892 :             return( EmitError( NONZERO_VALUE_EXPECTED ) );

	mov	ecx, 257				; 00000101H
	call	EmitError
	jmp	$LN67@ExcFrameDi
$LN16@ExcFrameDi:

; 1893 :         }
; 1894 :         if ( opndx.value & 7 ) {

	test	al, 7
	jne	$LN73@ExcFrameDi

; 1900 :                 /* allocation size 512k - 4G-8 */
; 1901 :                 /* v2.11: value is stored UNSCALED in 2 WORDs! */
; 1902 :                 puc->FrameOffset = ( opndx.uvalue >> 16 );
; 1903 :                 puc++;
; 1904 :                 puc->FrameOffset = opndx.uvalue & 0xFFFF;
; 1905 :                 puc++;
; 1906 :                 unw_info.CountOfCodes += 2;

	movzx	ecx, BYTE PTR unw_info+2
	cmp	eax, 128				; 00000080H
	jbe	SHORT $LN18@ExcFrameDi

; 1895 :             return( EmitError( BAD_ALIGNMENT_FOR_OFFSET_IN_UNWIND_CODE ) );
; 1896 :         }
; 1897 :         //opndx.value -= 8; /* v2.11: subtract 8 only for UWOP_ALLOC_SMALL! */
; 1898 :         if ( opndx.uvalue > 16*8 ) {
; 1899 :             if ( opndx.uvalue >= 65536*8 ) {

	cmp	eax, 524288				; 00080000H
	jb	SHORT $LN20@ExcFrameDi

; 1907 :                 puc->OpInfo = 1;
; 1908 :                 DebugMsg1(("ExcFrameDirective: UWOP_ALLOC_LARGE, operation info 1, size=%Xh\n", opndx.value ));
; 1909 :             } else {
; 1910 :                 /* allocation size 128+8 - 512k-8 */
; 1911 :                 puc->FrameOffset = ( opndx.uvalue >> 3 );
; 1912 :                 puc++;
; 1913 :                 unw_info.CountOfCodes++;
; 1914 :                 puc->OpInfo = 0;
; 1915 :                 DebugMsg1(("ExcFrameDirective: UWOP_ALLOC_LARGE, operation info 0, size=%Xh\n", opndx.value ));
; 1916 :             }
; 1917 :             puc->UnwindOp = UWOP_ALLOC_LARGE;
; 1918 :         } else {
; 1919 :             /* allocation size 8-128 bytes */
; 1920 :             puc->UnwindOp = UWOP_ALLOC_SMALL;
; 1921 :             /* v2.11: subtract 8 only for UWOP_ALLOC_SMALL! */
; 1922 :             //puc->OpInfo = ( opndx.value >> 3 );
; 1923 :             puc->OpInfo = ( (opndx.uvalue - 8 ) >> 3 );
; 1924 :             DebugMsg1(("ExcFrameDirective: UWOP_ALLOC_SMALL, size=%Xh\n", opndx.value ));
; 1925 :         }
; 1926 :         puc->CodeOffset = ofs;
; 1927 :         unw_info.CountOfCodes++;
; 1928 :         break;

	mov	r8d, DWORD PTR i$[rbp-105]
	add	cl, 2
	shr	eax, 16
	mov	WORD PTR [rbx], ax
	movzx	eax, WORD PTR opndx$[rbp-105]
	mov	WORD PTR [rbx+2], ax
	add	rbx, 4
	and	BYTE PTR [rbx+1], 15
	or	BYTE PTR [rbx+1], 16
	and	BYTE PTR [rbx+1], 241			; 000000f1H
	or	BYTE PTR [rbx+1], 1
	inc	cl
	mov	BYTE PTR [rbx], r12b
	mov	BYTE PTR unw_info+2, cl
	jmp	$LN4@ExcFrameDi
$LN20@ExcFrameDi:
	mov	r8d, DWORD PTR i$[rbp-105]
	inc	cl
	shr	eax, 3
	mov	WORD PTR [rbx], ax
	add	rbx, 2
	and	BYTE PTR [rbx+1], 15
	and	BYTE PTR [rbx+1], 241			; 000000f1H
	or	BYTE PTR [rbx+1], 1
	inc	cl
	mov	BYTE PTR [rbx], r12b
	mov	BYTE PTR unw_info+2, cl
	jmp	SHORT $LN4@ExcFrameDi
$LN18@ExcFrameDi:
	mov	r8d, DWORD PTR i$[rbp-105]
	add	eax, -8					; fffffff8H
	shr	eax, 3
	shl	al, 4
	or	al, 2
	inc	cl
	mov	BYTE PTR [rbx+1], al
	mov	BYTE PTR unw_info+2, cl
	mov	BYTE PTR [rbx], r12b
	jmp	SHORT $LN4@ExcFrameDi
$LN22@ExcFrameDi:

; 1929 :     case T_DOT_ENDPROLOG: /* syntax: .ENDPROLOG */
; 1930 :         opndx.value = GetCurrOffset() - CurrProc->sym.offset;

	call	GetCurrOffset
	mov	rcx, QWORD PTR CurrProc
	sub	eax, DWORD PTR [rcx+16]
	mov	DWORD PTR opndx$[rbp-105], eax

; 1931 :         if ( opndx.uvalue > 255 ) {

	cmp	eax, 255				; 000000ffH
	jbe	SHORT $LN23@ExcFrameDi

; 1932 :             return( EmitError( SIZE_OF_PROLOG_TOO_BIG ) );

	mov	ecx, 258				; 00000102H
	call	EmitError
	jmp	$LN67@ExcFrameDi
$LN23@ExcFrameDi:

; 1933 :         }
; 1934 :         unw_info.SizeOfProlog = (uint_8)opndx.uvalue;

	movzx	eax, BYTE PTR opndx$[rbp-105]
	mov	BYTE PTR unw_info+1, al

; 1935 :         endprolog_found = TRUE;

	mov	BYTE PTR endprolog_found, 1
$LN62@ExcFrameDi:

; 1936 :         break;

	mov	r8d, DWORD PTR i$[rbp-105]
$LN61@ExcFrameDi:

; 2026 :             }
; 2027 :             puc->CodeOffset = ofs;
; 2028 :             puc->OpInfo = reg;

	movzx	ecx, BYTE PTR unw_info+2
$LN4@ExcFrameDi:

; 2058 :             break;
; 2059 :         }
; 2060 :         break;
; 2061 :     }
; 2062 :     if ( tokenarray[i].token != T_FINAL ) {

	movsxd	rax, r8d
	shl	rax, 5
	cmp	BYTE PTR [rax+r15], 0
	je	$LN54@ExcFrameDi

; 2063 :         return( EmitErr( SYNTAX_ERROR_EX, tokenarray[i].string_ptr ) );

	mov	rdx, QWORD PTR [rax+r15+8]
	jmp	$LN77@ExcFrameDi
$LN24@ExcFrameDi:

; 1937 :     case T_DOT_PUSHFRAME: /* syntax: .PUSHFRAME [code] */
; 1938 :         puc->CodeOffset = ofs;
; 1939 :         puc->UnwindOp = UWOP_PUSH_MACHFRAME;
; 1940 :         puc->OpInfo = 0;
; 1941 :         if ( tokenarray[i].token == T_ID && (_stricmp( tokenarray[i].string_ptr, "CODE") == 0 ) ) {

	movsxd	rax, r8d
	shl	rax, 5
	mov	BYTE PTR [rbx], r12b
	mov	BYTE PTR [rbx+1], 10
	cmp	BYTE PTR [rax+r15], 8
	jne	SHORT $LN25@ExcFrameDi
	mov	rcx, QWORD PTR [rax+r15+8]
	lea	rdx, OFFSET FLAT:$SG12021
	call	_stricmp

; 1943 :             i++;

	mov	r8d, DWORD PTR i$[rbp-105]
	test	eax, eax
	jne	SHORT $LN25@ExcFrameDi

; 1942 :             puc->OpInfo = 1;

	and	BYTE PTR [rbx+1], 15
	or	BYTE PTR [rbx+1], 16

; 1943 :             i++;

	inc	r8d
	mov	DWORD PTR i$[rbp-105], r8d
$LN25@ExcFrameDi:

; 1944 :         }
; 1945 :         unw_info.CountOfCodes++;

	movzx	ecx, BYTE PTR unw_info+2
	inc	cl
	mov	BYTE PTR unw_info+2, cl

; 1946 :         break;

	jmp	SHORT $LN4@ExcFrameDi
$LN26@ExcFrameDi:

; 1947 :     case T_DOT_PUSHREG: /* syntax: .PUSHREG r64 */
; 1948 :         if ( tokenarray[i].token != T_REG || !( GetValueSp( tokenarray[i].tokval ) & OP_R64 ) ) {

	movsxd	r9, r8d
	shl	r9, 5
	add	r9, r15
	cmp	BYTE PTR [r9], 2
	jne	SHORT $LN28@ExcFrameDi
	mov	eax, DWORD PTR [r9+16]
	lea	rcx, QWORD PTR [rax+rax*2]
	test	BYTE PTR SpecialTable[rsi+rcx*4], 8
	je	SHORT $LN28@ExcFrameDi

; 1950 :         }
; 1951 :         puc->CodeOffset = ofs;
; 1952 :         puc->UnwindOp = UWOP_PUSH_NONVOL;

	and	BYTE PTR [rbx+1], 240			; 000000f0H
	movzx	edx, BYTE PTR [rbx+1]

; 1953 :         puc->OpInfo = GetRegNo( tokenarray[i].tokval );

	and	dl, 15
	mov	BYTE PTR [rbx], r12b
	mov	eax, DWORD PTR [r9+16]
	lea	rcx, QWORD PTR [rax+rax*2]
	movzx	eax, BYTE PTR SpecialTable[rsi+rcx*4+10]

; 1954 :         unw_info.CountOfCodes++;

	movzx	ecx, BYTE PTR unw_info+2
	shl	al, 4
	inc	cl
	or	al, dl
	mov	BYTE PTR unw_info+2, cl

; 1955 :         i++;

	inc	r8d
	mov	BYTE PTR [rbx+1], al
	mov	DWORD PTR i$[rbp-105], r8d

; 1956 :         break;

	jmp	$LN4@ExcFrameDi
$LN28@ExcFrameDi:

; 1949 :             return( EmitErr( SYNTAX_ERROR_EX, tokenarray[i].string_ptr ) );

	mov	rdx, QWORD PTR [r9+8]
	jmp	SHORT $LN77@ExcFrameDi
$LN29@ExcFrameDi:

; 1957 :     case T_DOT_SAVEREG:    /* syntax: .SAVEREG r64, offset       */
; 1958 :     case T_DOT_SAVEXMM128: /* syntax: .SAVEXMM128 xmmreg, offset */
; 1959 :     case T_DOT_SAVEYMM256: /* syntax: .SAVEYMM256 ymmreg, offset */
; 1960 : #if EVEXSUPP
; 1961 :     case T_DOT_SAVEZMM512: /* syntax: .SAVEXMM512 zmmreg, offset */
; 1962 : #endif
; 1963 :     case T_DOT_SETFRAME:   /* syntax: .SETFRAME r64, offset      */
; 1964 :         if ( tokenarray[i].token != T_REG ) {

	movsxd	rdx, r8d
	shl	rdx, 5
	add	rdx, r15
	cmp	BYTE PTR [rdx], 2
	jne	SHORT $LN76@ExcFrameDi

; 1965 :             return( EmitErr( SYNTAX_ERROR_EX, tokenarray[i].string_ptr ) );
; 1966 :         }
; 1967 :         if ( token == T_DOT_SAVEXMM128 ) {
; 1968 :             if ( !( GetValueSp( tokenarray[i].tokval ) & OP_XMM ) ) {

	mov	eax, DWORD PTR [rdx+16]
	lea	rcx, QWORD PTR [rax+rax*2]
	lea	rcx, QWORD PTR [rcx*4]
	cmp	edi, 414				; 0000019eH
	jne	SHORT $LN31@ExcFrameDi
	test	BYTE PTR SpecialTable[rcx+rsi], 32	; 00000020H
$LN78@ExcFrameDi:

; 1973 :           if (!(GetValueSp(tokenarray[i].tokval) & OP_YMM)) {

	jne	SHORT $LN37@ExcFrameDi
$LN76@ExcFrameDi:

; 1974 :             return(EmitErr(SYNTAX_ERROR_EX, tokenarray[i].string_ptr));

	mov	rdx, QWORD PTR [rdx+8]
$LN77@ExcFrameDi:

; 1998 :             return( EmitErr( SYNTAX_ERROR_EX, tokenarray[i].string_ptr ) );

	mov	ecx, 209				; 000000d1H
	call	EmitErr
$LN67@ExcFrameDi:
	mov	r12, QWORD PTR [rsp+168]
	mov	rdi, QWORD PTR [rsp+232]
	mov	rsi, QWORD PTR [rsp+224]
	mov	rbx, QWORD PTR [rsp+216]
	mov	r14, QWORD PTR [rsp+160]

; 2071 : }

	add	rsp, 176				; 000000b0H
	pop	r15
	pop	r13
	pop	rbp
	ret	0
$LN31@ExcFrameDi:

; 1969 :                 return( EmitErr( SYNTAX_ERROR_EX, tokenarray[i].string_ptr ) );
; 1970 :             }
; 1971 :         } 
; 1972 :         else if (token == T_DOT_SAVEYMM256) {

	cmp	edi, 415				; 0000019fH
	jne	SHORT $LN34@ExcFrameDi

; 1973 :           if (!(GetValueSp(tokenarray[i].tokval) & OP_YMM)) {

	test	BYTE PTR SpecialTable[rcx+rsi], 128	; 00000080H

; 1974 :             return(EmitErr(SYNTAX_ERROR_EX, tokenarray[i].string_ptr));

	jmp	SHORT $LN78@ExcFrameDi
$LN34@ExcFrameDi:

; 1975 :           }
; 1976 :         }
; 1977 : #if EVEXSUPP
; 1978 :         else if (token == T_DOT_SAVEZMM512) {
; 1979 :           if (!(GetValueSp(tokenarray[i].tokval) & OP_ZMM)) {
; 1980 :             return(EmitErr(SYNTAX_ERROR_EX, tokenarray[i].string_ptr));
; 1981 :           }
; 1982 :         }
; 1983 : #endif
; 1984 :         else {
; 1985 :             if ( !( GetValueSp( tokenarray[i].tokval ) & OP_R64 ) ) {

	test	BYTE PTR SpecialTable[rcx+rsi], 8

; 1986 :                 return( EmitErr( SYNTAX_ERROR_EX, tokenarray[i].string_ptr ) );

	jmp	SHORT $LN78@ExcFrameDi
$LN37@ExcFrameDi:

; 1987 :             }
; 1988 :         }
; 1989 :         reg = GetRegNo( tokenarray[i].tokval );

	movzx	esi, BYTE PTR SpecialTable[rcx+rsi+10]

; 1990 : 
; 1991 :         if ( token == T_DOT_SAVEREG )

	cmp	edi, 413				; 0000019dH
	mov	eax, 8
	mov	r14d, 16
	cmove	r14d, eax

; 1992 :             size = 8;
; 1993 :         else
; 1994 :             size = 16;
; 1995 : 
; 1996 :         i++;

	inc	r8d

; 1997 :         if ( tokenarray[i].token != T_COMMA ) {

	movsxd	rdx, r8d
	shl	rdx, 5
	mov	DWORD PTR i$[rbp-105], r8d
	cmp	BYTE PTR [rdx+r15], 44			; 0000002cH
	je	SHORT $LN40@ExcFrameDi

; 1998 :             return( EmitErr( SYNTAX_ERROR_EX, tokenarray[i].string_ptr ) );

	mov	rdx, QWORD PTR [rdx+r15+8]
	jmp	$LN77@ExcFrameDi
$LN40@ExcFrameDi:

; 1999 :         }
; 2000 :         i++;

	inc	r8d

; 2001 :         if ( ERROR == EvalOperand( &i, tokenarray, Token_Count, &opndx, 0 ) )

	mov	BYTE PTR [rsp+32], 0
	mov	DWORD PTR i$[rbp-105], r8d
	lea	r9, QWORD PTR opndx$[rbp-105]
	mov	r8d, DWORD PTR ModuleInfo+496
	lea	rcx, QWORD PTR i$[rbp-105]
	mov	rdx, r15
	call	EvalOperand
	cmp	eax, -1
	jne	SHORT $LN41@ExcFrameDi
$LN75@ExcFrameDi:

; 2002 :             return( ERROR );

	or	eax, -1
	jmp	$LN67@ExcFrameDi
$LN41@ExcFrameDi:

; 2003 :         if ( opndx.kind == EXPR_ADDR && opndx.sym->state == SYM_UNDEFINED ) /* v2.11: allow forward references */

	mov	eax, DWORD PTR opndx$[rbp-45]
	cmp	eax, 1
	jne	SHORT $LN42@ExcFrameDi
	mov	rax, QWORD PTR opndx$[rbp-25]
	cmp	DWORD PTR [rax+32], 0

; 2004 :              ;
; 2005 :         else if ( opndx.kind != EXPR_CONST ) {

	jmp	SHORT $LN69@ExcFrameDi
$LN42@ExcFrameDi:
	test	eax, eax
$LN69@ExcFrameDi:
	je	SHORT $LN44@ExcFrameDi
$LN74@ExcFrameDi:

; 2006 :             return( EmitError( CONSTANT_EXPECTED ) );

	mov	ecx, 65					; 00000041H
	call	EmitError
	jmp	$LN67@ExcFrameDi
$LN44@ExcFrameDi:

; 2007 :         }
; 2008 :         if ( opndx.value & (size - 1) ) {

	mov	ecx, DWORD PTR opndx$[rbp-105]
	lea	eax, DWORD PTR [r14-1]
	test	eax, ecx
	je	SHORT $LN45@ExcFrameDi
$LN73@ExcFrameDi:

; 2009 :             return( EmitError( BAD_ALIGNMENT_FOR_OFFSET_IN_UNWIND_CODE ) );

	mov	ecx, 256				; 00000100H
	call	EmitError
	jmp	$LN67@ExcFrameDi
$LN45@ExcFrameDi:

; 2010 :         }
; 2011 :         switch ( token ) {

	sub	edi, 413				; 0000019dH
	je	$LN46@ExcFrameDi
	sub	edi, 1
	je	SHORT $LN49@ExcFrameDi
	cmp	edi, 2
	jne	$LN62@ExcFrameDi

; 2047 :         case T_DOT_SETFRAME:
; 2048 :             if ( opndx.uvalue > 240 ) {

	cmp	ecx, 240				; 000000f0H
	jbe	SHORT $LN53@ExcFrameDi
$LN72@ExcFrameDi:

; 2049 :                 return( EmitConstError( &opndx ) );

	lea	rcx, QWORD PTR opndx$[rbp-105]
	call	EmitConstError
	jmp	$LN67@ExcFrameDi
$LN53@ExcFrameDi:

; 2050 :             }
; 2051 :             unw_info.FrameRegister = reg;
; 2052 :             unw_info.FrameOffset = ( opndx.uvalue >> 4 );
; 2053 :             puc->CodeOffset = ofs;
; 2054 :             puc->UnwindOp = UWOP_SET_FPREG;
; 2055 :             //puc->OpInfo = ( opndx.uvalue >> 4 );
; 2056 :             puc->OpInfo = reg;
; 2057 :             unw_info.CountOfCodes++;

	mov	r8d, DWORD PTR i$[rbp-105]
	movzx	eax, sil
	shr	ecx, 4
	and	al, 15
	shl	cl, 4
	or	cl, al
	shl	sil, 4
	mov	BYTE PTR unw_info+3, cl
	or	sil, 3
	movzx	ecx, BYTE PTR unw_info+2
	inc	cl
	mov	BYTE PTR [rbx], r12b
	mov	BYTE PTR unw_info+2, cl
	mov	BYTE PTR [rbx+1], sil
	jmp	$LN4@ExcFrameDi
$LN49@ExcFrameDi:

; 2029 :             break;
; 2030 :         case T_DOT_SAVEXMM128:
; 2031 :             if ( opndx.value > 65536 * size ) {

	shl	r14d, 16
	cmp	ecx, r14d
	jbe	SHORT $LN50@ExcFrameDi

; 2032 :                 puc->FrameOffset = ( opndx.value >> 20 );

	mov	eax, ecx

; 2033 :                 puc++;
; 2034 :                 puc->FrameOffset = ( opndx.value >> 4 );

	sar	ecx, 4
	sar	eax, 20
	mov	WORD PTR [rbx], ax
	mov	WORD PTR [rbx+2], cx

; 2035 :                 puc++;

	add	rbx, 4

; 2036 :                 puc->UnwindOp = UWOP_SAVE_XMM128_FAR;
; 2037 :                 unw_info.CountOfCodes += 3;

	movzx	ecx, BYTE PTR unw_info+2
	and	BYTE PTR [rbx+1], 249			; 000000f9H
	or	BYTE PTR [rbx+1], 9
	add	cl, 3

; 2038 :             } else {

	jmp	SHORT $LN70@ExcFrameDi
$LN50@ExcFrameDi:

; 2039 :                 puc->FrameOffset = ( opndx.value >> 4 );

	sar	ecx, 4
	mov	WORD PTR [rbx], cx

; 2040 :                 puc++;

	add	rbx, 2

; 2041 :                 puc->UnwindOp = UWOP_SAVE_XMM128;
; 2042 :                 unw_info.CountOfCodes += 2;

	movzx	ecx, BYTE PTR unw_info+2
	and	BYTE PTR [rbx+1], 248			; 000000f8H
	or	BYTE PTR [rbx+1], 8
	add	cl, 2
$LN70@ExcFrameDi:

; 2043 :             }
; 2044 :             puc->CodeOffset = ofs;
; 2045 :             puc->OpInfo = reg;

	and	BYTE PTR [rbx+1], 15

; 2046 :             break;

	mov	r8d, DWORD PTR i$[rbp-105]
	shl	sil, 4
	or	BYTE PTR [rbx+1], sil
	mov	BYTE PTR unw_info+2, cl
	mov	BYTE PTR [rbx], r12b
	jmp	$LN4@ExcFrameDi
$LN46@ExcFrameDi:

; 2012 :         case T_DOT_SAVEREG:
; 2013 :             puc->OpInfo = reg;

	and	BYTE PTR [rbx+1], 15
	shl	sil, 4
	or	BYTE PTR [rbx+1], sil

; 2014 :             if ( opndx.value > 65536 * size ) {

	shl	r14d, 16
	cmp	ecx, r14d
	jbe	SHORT $LN47@ExcFrameDi

; 2015 :                 puc->FrameOffset = ( opndx.value >> 19 );

	mov	eax, ecx

; 2016 :                 puc++;
; 2017 :                 puc->FrameOffset = ( opndx.value >> 3 );

	sar	ecx, 3
	sar	eax, 19
	mov	WORD PTR [rbx], ax
	mov	WORD PTR [rbx+2], cx

; 2018 :                 puc++;

	add	rbx, 4

; 2019 :                 puc->UnwindOp = UWOP_SAVE_NONVOL_FAR;
; 2020 :                 unw_info.CountOfCodes += 3;

	movzx	ecx, BYTE PTR unw_info+2
	and	BYTE PTR [rbx+1], 245			; 000000f5H
	or	BYTE PTR [rbx+1], 5
	add	cl, 3

; 2021 :             } else {

	jmp	SHORT $LN71@ExcFrameDi
$LN47@ExcFrameDi:

; 2022 :                 puc->FrameOffset = ( opndx.value >> 3 );

	sar	ecx, 3
	mov	WORD PTR [rbx], cx

; 2023 :                 puc++;

	add	rbx, 2

; 2024 :                 puc->UnwindOp = UWOP_SAVE_NONVOL;
; 2025 :                 unw_info.CountOfCodes += 2;

	movzx	ecx, BYTE PTR unw_info+2
	and	BYTE PTR [rbx+1], 244			; 000000f4H
	or	BYTE PTR [rbx+1], 4
	add	cl, 2
$LN71@ExcFrameDi:

; 2026 :             }
; 2027 :             puc->CodeOffset = ofs;
; 2028 :             puc->OpInfo = reg;

	and	BYTE PTR [rbx+1], 15
	or	BYTE PTR [rbx+1], sil
	mov	r8d, DWORD PTR i$[rbp-105]
	mov	BYTE PTR unw_info+2, cl
	mov	BYTE PTR [rbx], r12b
	jmp	$LN4@ExcFrameDi
$LN54@ExcFrameDi:

; 2064 :     }
; 2065 :     /* v2.11: check if the table of codes has been exceeded */
; 2066 :     if ( oldcodes > unw_info.CountOfCodes ) {

	cmp	r13b, cl
	jbe	SHORT $LN55@ExcFrameDi

; 2067 :         return( EmitErr( TOO_MANY_UNWIND_CODES_IN_FRAME_PROC ) );

	mov	ecx, 210				; 000000d2H
	call	EmitErr
	jmp	$LN67@ExcFrameDi
$LN55@ExcFrameDi:

; 2068 :     }
; 2069 :     DebugMsg1(("ExcFrameDirective() exit, ok\n" ));
; 2070 :     return( NOT_ERROR );

	xor	eax, eax
	jmp	$LN67@ExcFrameDi
$LN8@ExcFrameDi:

; 1862 :         return( EmitError( ENDPROLOG_FOUND_BEFORE_EH_DIRECTIVES ) );

	mov	ecx, 254				; 000000feH
	call	EmitError

; 2071 : }

	add	rsp, 176				; 000000b0H
	pop	r15
	pop	r13
	pop	rbp
	ret	0
	npad	2
$LN59@ExcFrameDi:
	DD	$LN10@ExcFrameDi
	DD	$LN22@ExcFrameDi
	DD	$LN24@ExcFrameDi
	DD	$LN26@ExcFrameDi
	DD	$LN29@ExcFrameDi
	DD	$LN29@ExcFrameDi
	DD	$LN29@ExcFrameDi
	DD	$LN29@ExcFrameDi
ExcFrameDirective ENDP
_TEXT	ENDS
; Function compile flags: /Ogtpy
; File d:\hjwasm\hjwasm2.13.1s\hjwasm2.13.1s\proc.c
_TEXT	SEGMENT
i$ = 48
tokenarray$ = 56
EndpDir	PROC

; 1814 : {

$LN9:
	push	rbx
	sub	rsp, 32					; 00000020H
	mov	rbx, rdx

; 1815 :     DebugMsg1(("EndpDir(%s) enter, curr ofs=% " I32_SPEC "X, CurrProc=%s\n", tokenarray[0].string_ptr, GetCurrOffset(), CurrProc ? CurrProc->sym.name : "NULL" ));
; 1816 :     if( i != 1 || tokenarray[2].token != T_FINAL ) {

	cmp	ecx, 1
	jne	SHORT $LN3@EndpDir
	cmp	BYTE PTR [rdx+64], 0
	jne	SHORT $LN3@EndpDir

; 1818 :     }
; 1819 :     /* v2.10: "+ 1" added to CurrProc->sym.name_size */
; 1820 :     if( CurrProc &&

	mov	rcx, QWORD PTR CurrProc
	test	rcx, rcx
	je	SHORT $LN4@EndpDir
	movzx	eax, BYTE PTR [rcx+72]
	mov	rdx, QWORD PTR [rdx+8]
	inc	eax
	mov	rcx, QWORD PTR [rcx+8]
	movsxd	r8, eax
	call	QWORD PTR SymCmpFunc
	test	eax, eax
	jne	SHORT $LN4@EndpDir

; 1821 :        ( SymCmpFunc(CurrProc->sym.name, tokenarray[0].string_ptr, CurrProc->sym.name_size + 1 ) == 0 ) ) {
; 1822 :         ProcFini( CurrProc );

	mov	rcx, QWORD PTR CurrProc
	call	ProcFini

; 1825 :     }
; 1826 :     return( NOT_ERROR );

	xor	eax, eax

; 1827 : }

	add	rsp, 32					; 00000020H
	pop	rbx
	ret	0
$LN4@EndpDir:

; 1823 :     } else {
; 1824 :         return( EmitErr( UNMATCHED_BLOCK_NESTING, tokenarray[0].string_ptr ) );

	mov	rdx, QWORD PTR [rbx+8]
	mov	ecx, 142				; 0000008eH

; 1827 : }

	add	rsp, 32					; 00000020H
	pop	rbx

; 1823 :     } else {
; 1824 :         return( EmitErr( UNMATCHED_BLOCK_NESTING, tokenarray[0].string_ptr ) );

	jmp	EmitErr
$LN3@EndpDir:

; 1817 :         return( EmitErr( SYNTAX_ERROR_EX, tokenarray[i].tokpos ) );

	movsxd	rdx, ecx
	mov	ecx, 209				; 000000d1H
	shl	rdx, 5
	mov	rdx, QWORD PTR [rdx+rbx+24]

; 1827 : }

	add	rsp, 32					; 00000020H
	pop	rbx

; 1817 :         return( EmitErr( SYNTAX_ERROR_EX, tokenarray[i].tokpos ) );

	jmp	EmitErr
EndpDir	ENDP
_TEXT	ENDS
; Function compile flags: /Ogtpy
; File d:\hjwasm\hjwasm2.13.1s\hjwasm2.13.1s\proc.c
;	COMDAT ProcFini
_TEXT	SEGMENT
proc$ = 48
ProcFini PROC						; COMDAT

; 1738 : {

	sub	rsp, 40					; 00000028H

; 1739 :     struct dsym *curr;
; 1740 :     /* v2.06: emit an error if current segment isn't equal to
; 1741 :      * the one of the matching PROC directive. Close the proc anyway!
; 1742 :      */
; 1743 :     if ( proc->sym.segment == &CurrSeg->sym ) {

	mov	rax, QWORD PTR ModuleInfo+432
	mov	QWORD PTR [rsp+32], rdi
	mov	rdi, rcx
	cmp	QWORD PTR [rcx+24], rax
	jne	SHORT $LN14@ProcFini

; 1744 :         proc->sym.total_size = GetCurrOffset() - proc->sym.offset;

	call	GetCurrOffset

; 1745 :     } else {

	jmp	SHORT $LN52@ProcFini
$LN14@ProcFini:

; 1746 :         DebugMsg1(("ProcFini(%s): unmatched block nesting error, proc->seg=%s, CurrSeg=%s\n",
; 1747 :                    proc->sym.name, proc->sym.segment->name, CurrSeg ? CurrSeg->sym.name : "NULL" ));
; 1748 :         EmitErr( UNMATCHED_BLOCK_NESTING, proc->sym.name );

	mov	rdx, QWORD PTR [rcx+8]
	mov	ecx, 142				; 0000008eH
	call	EmitErr

; 1749 :         proc->sym.total_size = CurrProc->sym.segment->offset - proc->sym.offset;

	mov	rax, QWORD PTR CurrProc
	mov	rcx, QWORD PTR [rax+24]
	mov	eax, DWORD PTR [rcx+16]
$LN52@ProcFini:
	sub	eax, DWORD PTR [rdi+16]
	mov	DWORD PTR [rdi+56], eax

; 1750 :     }
; 1751 : 
; 1752 :     /* v2.03: for W3+, check for unused params and locals */
; 1753 :     if ( Options.warning_level > 2 && Parse_Pass == PASS_1 ) {

	cmp	BYTE PTR Options+13, 2
	jbe	SHORT $LN49@ProcFini
	cmp	DWORD PTR Parse_Pass, 0
	jne	$LN50@ProcFini

; 1754 :         for ( curr = proc->e.procinfo->paralist; curr; curr = curr->nextparam ) {

	mov	rax, QWORD PTR [rdi+96]
	mov	QWORD PTR [rsp+48], rbx
	mov	rbx, QWORD PTR [rax+8]
	test	rbx, rbx
	je	SHORT $LN3@ProcFini
	npad	6
$LL4@ProcFini:

; 1755 :             if ( curr->sym.used == FALSE )

	test	BYTE PTR [rbx+40], 1
	jne	SHORT $LN2@ProcFini

; 1756 :                 EmitWarn( 3, PROCEDURE_ARGUMENT_OR_LOCAL_NOT_REFERENCED, curr->sym.name );

	mov	r8, QWORD PTR [rbx+8]
	mov	edx, 265				; 00000109H
	mov	ecx, 3
	call	EmitWarn
$LN2@ProcFini:

; 1754 :         for ( curr = proc->e.procinfo->paralist; curr; curr = curr->nextparam ) {

	mov	rbx, QWORD PTR [rbx+112]
	test	rbx, rbx
	jne	SHORT $LL4@ProcFini
$LN3@ProcFini:

; 1757 :         }
; 1758 :         for ( curr = proc->e.procinfo->locallist; curr; curr = curr->nextlocal ) {

	mov	rax, QWORD PTR [rdi+96]
	mov	rbx, QWORD PTR [rax+16]
	test	rbx, rbx
	je	SHORT $LN51@ProcFini
	npad	1
$LL7@ProcFini:

; 1759 :             if ( curr->sym.used == FALSE )

	test	BYTE PTR [rbx+40], 1
	jne	SHORT $LN5@ProcFini

; 1760 :                 EmitWarn( 3, PROCEDURE_ARGUMENT_OR_LOCAL_NOT_REFERENCED, curr->sym.name );

	mov	r8, QWORD PTR [rbx+8]
	mov	edx, 265				; 00000109H
	mov	ecx, 3
	call	EmitWarn
$LN5@ProcFini:

; 1757 :         }
; 1758 :         for ( curr = proc->e.procinfo->locallist; curr; curr = curr->nextlocal ) {

	mov	rbx, QWORD PTR [rbx+112]
	test	rbx, rbx
	jne	SHORT $LL7@ProcFini
$LN51@ProcFini:
	mov	rbx, QWORD PTR [rsp+48]
$LN49@ProcFini:

; 1761 :         }
; 1762 :     }
; 1763 : #if AMD64_SUPPORT
; 1764 :     /* save stack space reserved for INVOKE if OPTION WIN64:2 is set */
; 1765 :     if ( Parse_Pass == PASS_1 &&
; 1766 :         ModuleInfo.fctype == FCT_WIN64 &&

	cmp	DWORD PTR Parse_Pass, 0
	jne	SHORT $LN50@ProcFini
	cmp	DWORD PTR ModuleInfo+376, 2
	jne	SHORT $LN50@ProcFini
	test	BYTE PTR ModuleInfo+413, 2
	je	SHORT $LN50@ProcFini

; 1767 :         ( ModuleInfo.win64_flags & W64F_AUTOSTACKSP ) ) {
; 1768 :         proc->e.procinfo->ReservedStack = sym_ReservedStack->value;

	mov	rax, QWORD PTR sym_ReservedStack
	mov	rdx, QWORD PTR [rdi+96]
	mov	ecx, DWORD PTR [rax+16]
	mov	DWORD PTR [rdx+56], ecx

; 1769 :         DebugMsg1(("ProcFini(%s): localsize=%u ReservedStack=%u\n", proc->sym.name, proc->e.procinfo->localsize, proc->e.procinfo->ReservedStack ));
; 1770 : #if STACKBASESUPP
; 1771 :         if ( proc->e.procinfo->fpo ) {

	mov	rdx, QWORD PTR [rdi+96]
	test	BYTE PTR [rdx+84], 128			; 00000080H
	je	SHORT $LN50@ProcFini

; 1772 :             for ( curr = proc->e.procinfo->locallist; curr; curr = curr->nextlocal ) {

	mov	rdx, QWORD PTR [rdx+16]
	test	rdx, rdx
	je	SHORT $LN9@ProcFini
	npad	10
$LL10@ProcFini:

; 1773 :                 DebugMsg1(("ProcFini(%s): FPO, offset for %s %8d -> %8d\n", proc->sym.name, curr->sym.name, curr->sym.offset, curr->sym.offset + proc->e.procinfo->ReservedStack ));
; 1774 :                 curr->sym.offset += proc->e.procinfo->ReservedStack;

	mov	rax, QWORD PTR [rdi+96]
	mov	ecx, DWORD PTR [rax+56]
	add	DWORD PTR [rdx+16], ecx
	mov	rdx, QWORD PTR [rdx+112]
	test	rdx, rdx
	jne	SHORT $LL10@ProcFini
$LN9@ProcFini:

; 1775 :             }
; 1776 :             for ( curr = proc->e.procinfo->paralist; curr; curr = curr->nextparam ) {

	mov	rax, QWORD PTR [rdi+96]
	mov	rdx, QWORD PTR [rax+8]
	test	rdx, rdx
	je	SHORT $LN50@ProcFini
$LL13@ProcFini:

; 1777 :                 DebugMsg1(("ProcFini(%s): FPO, offset for %s %8d -> %8d\n", proc->sym.name, curr->sym.name, curr->sym.offset, curr->sym.offset + proc->e.procinfo->ReservedStack ));
; 1778 :                 curr->sym.offset += proc->e.procinfo->ReservedStack;

	mov	rax, QWORD PTR [rdi+96]
	mov	ecx, DWORD PTR [rax+56]
	add	DWORD PTR [rdx+16], ecx
	mov	rdx, QWORD PTR [rdx+112]
	test	rdx, rdx
	jne	SHORT $LL13@ProcFini
$LN50@ProcFini:

; 1779 :             }
; 1780 :         }
; 1781 : #endif
; 1782 :     }
; 1783 : 
; 1784 :     /* create the .pdata and .xdata stuff */
; 1785 :     if ( proc->e.procinfo->isframe ) {

	mov	rax, QWORD PTR [rdi+96]
	test	BYTE PTR [rax+84], 64			; 00000040H
	je	SHORT $LN21@ProcFini

; 1786 : #if FASTPASS
; 1787 :         LstSetPosition(); /* needed if generated code is done BEFORE the line is listed */

	call	LstSetPosition

; 1788 : #endif
; 1789 :         WriteSEHData( proc );

	mov	rcx, rdi
	call	WriteSEHData
$LN21@ProcFini:

; 1790 :     }
; 1791 : #endif
; 1792 :     if ( ModuleInfo.list )

	test	DWORD PTR ModuleInfo+408, 2048		; 00000800H
	mov	rdi, QWORD PTR [rsp+32]
	je	SHORT $LN22@ProcFini

; 1793 :         LstWrite( LSTTYPE_LABEL, 0, NULL );

	xor	edx, edx
	xor	r8d, r8d
	lea	ecx, QWORD PTR [rdx+7]
	call	LstWrite
$LN22@ProcFini:

; 1794 : 
; 1795 :     /* create the list of locals */
; 1796 :     if ( Parse_Pass == PASS_1 ) {

	cmp	DWORD PTR Parse_Pass, 0
	jne	SHORT $LN23@ProcFini

; 1797 :         /* in case the procedure is empty, init addresses of local variables ( for proper listing ) */
; 1798 :         if( ProcStatus & PRST_PROLOGUE_NOT_DONE )

	test	BYTE PTR ProcStatus, -128		; ffffffffffffff80H
	je	SHORT $LN24@ProcFini

; 1799 :             SetLocalOffsets( CurrProc->e.procinfo );

	mov	rcx, QWORD PTR CurrProc
	mov	rcx, QWORD PTR [rcx+96]
	call	SetLocalOffsets
$LN24@ProcFini:

; 1800 :         SymGetLocal( (struct asym *)CurrProc );

	mov	rcx, QWORD PTR CurrProc
	call	SymGetLocal
$LN23@ProcFini:

; 1801 :     }
; 1802 : 
; 1803 :     CurrProc = pop_proc();

	mov	rcx, QWORD PTR ProcStack
	test	rcx, rcx
	jne	SHORT $LN28@ProcFini
	xor	eax, eax
	mov	QWORD PTR CurrProc, rax

; 1806 : 
; 1807 :     ProcStatus = 0; /* in case there was an empty PROC/ENDP pair */

	mov	DWORD PTR ProcStatus, eax

; 1808 : }

	add	rsp, 40					; 00000028H
	ret	0

; 1801 :     }
; 1802 : 
; 1803 :     CurrProc = pop_proc();

$LN28@ProcFini:
	mov	rax, QWORD PTR [rcx]
	mov	QWORD PTR ProcStack, rax
	mov	rcx, QWORD PTR [rcx+8]
	mov	QWORD PTR CurrProc, rcx

; 1804 :     if ( CurrProc )

	test	rcx, rcx
	je	SHORT $LN48@ProcFini

; 1805 :         SymSetLocal( (struct asym *)CurrProc );  /* restore local symbol table */

	call	SymSetLocal
$LN48@ProcFini:

; 1806 : 
; 1807 :     ProcStatus = 0; /* in case there was an empty PROC/ENDP pair */

	xor	eax, eax
	mov	DWORD PTR ProcStatus, eax

; 1808 : }

	add	rsp, 40					; 00000028H
	ret	0
ProcFini ENDP
_TEXT	ENDS
; Function compile flags: /Ogtpy
; File d:\hjwasm\hjwasm2.13.1s\hjwasm2.13.1s\proc.c
;	COMDAT SetLocalOffsets
_TEXT	SEGMENT
paramadj$1 = 48
info$ = 48
SetLocalOffsets PROC					; COMDAT

; 2630 : {

	push	rbp
	push	r14
	push	r15
	sub	rsp, 16

; 2631 :     struct dsym *curr;
; 2632 : #if AMD64_SUPPORT || STACKBASESUPP
; 2633 :     int         cntxmm = 0;
; 2634 :     int         cntstd = 0;
; 2635 :     int         start = 0;
; 2636 : #endif
; 2637 : #if AMD64_SUPPORT
; 2638 :     int         rspalign = FALSE;
; 2639 : #endif
; 2640 :     int         align = CurrWordSize;
; 2641 : 
; 2642 : #if AMD64_SUPPORT
; 2643 :     if ( info->isframe || ( ModuleInfo.fctype == FCT_WIN64 && ( ModuleInfo.win64_flags & W64F_AUTOSTACKSP ) ) ) {

	movzx	r9d, BYTE PTR ModuleInfo+413
	xor	r10d, r10d
	mov	QWORD PTR [rsp+56], rbx
	xor	r14d, r14d
	movzx	ebx, BYTE PTR ModuleInfo+406
	xor	ebp, ebp
	mov	QWORD PTR [rsp+64], rsi
	xor	r15d, r15d
	mov	QWORD PTR [rsp+8], rdi
	mov	r8, rcx
	movzx	edi, BYTE PTR [rcx+84]
	mov	esi, ebx
	test	dil, 64					; 00000040H
	jne	SHORT $LN15@SetLocalOf
	cmp	DWORD PTR ModuleInfo+376, 2
	jne	SHORT $LN16@SetLocalOf
	test	r9b, 2
	je	SHORT $LN16@SetLocalOf
$LN15@SetLocalOf:

; 2644 :         rspalign = TRUE;
; 2645 :         if ( ModuleInfo.win64_flags & W64F_STACKALIGN16 )

	movzx	eax, r9b
	mov	ecx, 16
	and	al, 4
	mov	r15d, 1
	cmovne	esi, ecx
$LN16@SetLocalOf:

; 2646 :             align = 16;
; 2647 :     }
; 2648 : #endif
; 2649 : #if AMD64_SUPPORT || STACKBASESUPP
; 2650 :     /* in 64-bit, if the FRAME attribute is set, the space for the registers
; 2651 :      * saved by the USES clause is located ABOVE the local variables!
; 2652 :      * v2.09: if stack space is to be reserved for INVOKE ( option WIN64:2 ),
; 2653 :      * the registers are also saved ABOVE the local variables.
; 2654 :      */
; 2655 :     if (
; 2656 : #if STACKBASESUPP
; 2657 :         info->fpo
; 2658 : #endif
; 2659 : #if AMD64_SUPPORT
; 2660 :         || rspalign

	shr	dil, 7
	test	dil, dil
	jne	SHORT $LN18@SetLocalOf
	test	r15d, r15d
	je	$LN29@SetLocalOf
$LN18@SetLocalOf:

; 2661 : #endif
; 2662 :        ) {
; 2663 :         /* count registers to be saved ABOVE local variables.
; 2664 :          * v2.06: the list may contain xmm registers, which have size 16!
; 2665 :          */
; 2666 :         if ( info->regslist ) {

	mov	rdx, QWORD PTR [r8]
	test	rdx, rdx
	je	SHORT $LN3@SetLocalOf

; 2667 :             int         cnt;
; 2668 :             uint_16     *regs;
; 2669 :             for( regs = info->regslist, cnt = *regs++; cnt; cnt--, regs++ )

	movzx	r11d, WORD PTR [rdx]
	add	rdx, 2
	test	r11d, r11d
	je	SHORT $LN3@SetLocalOf
	mov	QWORD PTR [rsp], r12
	lea	r12, OFFSET FLAT:SpecialTable
	npad	9
$LL4@SetLocalOf:

; 2670 :                 if ( GetValueSp( *regs ) & OP_XYZMM )

	movzx	eax, WORD PTR [rdx]
	lea	rcx, QWORD PTR [rax+rax*2]
	test	BYTE PTR [r12+rcx*4], 128		; 00000080H
	je	SHORT $LN20@SetLocalOf

; 2671 :                     cntxmm++;

	inc	r10d
	jmp	SHORT $LN2@SetLocalOf
$LN20@SetLocalOf:

; 2672 :                 else
; 2673 :                     cntstd++;

	inc	r14d
$LN2@SetLocalOf:

; 2667 :             int         cnt;
; 2668 :             uint_16     *regs;
; 2669 :             for( regs = info->regslist, cnt = *regs++; cnt; cnt--, regs++ )

	add	rdx, 2
	sub	r11d, 1
	jne	SHORT $LL4@SetLocalOf
	mov	r12, QWORD PTR [rsp]
$LN3@SetLocalOf:

; 2674 :         }        
; 2675 :         /* in case there's no frame register, adjust start offset. */
; 2676 :         if ( info->parasize == 0 && info->locallist == NULL  )

	cmp	DWORD PTR [r8+32], ebp
	jne	SHORT $LN22@SetLocalOf
	cmp	QWORD PTR [r8+16], rbp
	cmove	ebp, ebx
$LN22@SetLocalOf:

; 2677 :             start = CurrWordSize;
; 2678 :         if (info->fpo && !(ModuleInfo.win64_flags & W64F_HABRAN)) start = CurrWordSize;

	test	dil, dil
	je	SHORT $LN23@SetLocalOf
	movzx	eax, r9b
	and	al, 11
	cmove	ebp, ebx
$LN23@SetLocalOf:

; 2679 : #if AMD64_SUPPORT
; 2680 :         if (ModuleInfo.win64_flags & W64F_HABRAN){

	test	r9b, 11
	je	SHORT $LN24@SetLocalOf

; 2681 :           info->localsize += start;

	add	DWORD PTR [r8+36], ebp

; 2682 :           cntstd = info->pushed_reg;

	mov	r14d, DWORD PTR [r8+64]

; 2683 :           if (rspalign && cntxmm) {

	test	r15d, r15d
	je	SHORT $LN66@SetLocalOf
	test	r10d, r10d
	je	SHORT $LN66@SetLocalOf

; 2684 :               if (!(cntstd & 1)) info->localsize += 8;

	test	r14b, 1
	jne	SHORT $LN27@SetLocalOf
	add	DWORD PTR [r8+36], 8
$LN27@SetLocalOf:

; 2685 :               info->localsize += 32 * cntxmm;

	shl	r10d, 5
	add	DWORD PTR [r8+36], r10d

; 2686 :               }
; 2687 :            }

	jmp	SHORT $LN66@SetLocalOf
$LN24@SetLocalOf:

; 2688 :         else {
; 2689 :           if (rspalign) {

	test	r15d, r15d
	je	SHORT $LN29@SetLocalOf

; 2690 :             info->localsize = start + cntstd * CurrWordSize;

	imul	ebx, r14d
	lea	eax, DWORD PTR [rbx+rbp]
	mov	DWORD PTR [r8+36], eax

; 2691 :             if (cntxmm) {

	test	r10d, r10d
	je	SHORT $LN66@SetLocalOf

; 2692 :               info->localsize += 16 * cntxmm;

	shl	r10d, 4

; 2693 :               info->localsize = ROUND_UP(info->localsize, 16);

	add	eax, 15
	add	eax, r10d
	and	eax, -16				; fffffff0H
	mov	DWORD PTR [r8+36], eax
$LN66@SetLocalOf:
	movzx	r9d, BYTE PTR ModuleInfo+413
$LN29@SetLocalOf:

; 2694 :             }
; 2695 :           }
; 2696 :         }
; 2697 : #endif
; 2698 :         DebugMsg1(("SetLocalOffsets(%s): cntxmm=%u cntstd=%u start=%u align=%u localsize=%u\n", CurrProc->sym.name, cntxmm, cntstd, start, align, info->localsize ));
; 2699 :     }
; 2700 : #endif
; 2701 : 
; 2702 :     /* scan the locals list and set member sym.offset */
; 2703 :     for( curr = info->locallist; curr; curr = curr->nextlocal ) {

	mov	r10, QWORD PTR [r8+16]
	mov	rdi, QWORD PTR [rsp+8]
	mov	rbx, QWORD PTR [rsp+56]
	test	r10, r10
	je	$LN6@SetLocalOf
$LL7@SetLocalOf:

; 2704 :         uint_32 itemsize = ( curr->sym.total_size == 0 ? 0 : curr->sym.total_size / curr->sym.total_length );

	mov	r11d, DWORD PTR [r10+56]
	test	r11d, r11d
	jne	SHORT $LN48@SetLocalOf
	xor	edx, edx
	jmp	SHORT $LN49@SetLocalOf
$LN48@SetLocalOf:
	xor	edx, edx
	mov	eax, r11d
	div	DWORD PTR [r10+64]
	mov	edx, eax
$LN49@SetLocalOf:

; 2705 :         if (ModuleInfo.win64_flags & W64F_HABRAN){

	test	r9b, 11
	je	SHORT $LN30@SetLocalOf

; 2706 :           int n = 0;

	xor	ecx, ecx

; 2707 :           if (curr->sym.isarray) n = curr->sym.total_size & 0x7;

	test	BYTE PTR [r10+41], 2
	je	SHORT $LN31@SetLocalOf
	mov	ecx, r11d
	and	ecx, 7
$LN31@SetLocalOf:

; 2708 :           curr->sym.offset = info->localsize + n; //that works

	add	ecx, DWORD PTR [r8+36]
	mov	DWORD PTR [r10+16], ecx
$LN30@SetLocalOf:

; 2709 :         }
; 2710 :         info->localsize += curr->sym.total_size;

	add	DWORD PTR [r8+36], r11d
	mov	eax, DWORD PTR [r8+36]

; 2711 :         if ( itemsize > align )

	cmp	edx, esi
	jbe	SHORT $LN32@SetLocalOf

; 2712 :             info->localsize = ROUND_UP( info->localsize, align );

	lea	ecx, DWORD PTR [rax-1]
	add	ecx, esi
	lea	eax, DWORD PTR [rsi-1]
	jmp	SHORT $LN68@SetLocalOf
$LN32@SetLocalOf:

; 2713 :         else if ( itemsize ) /* v2.04: skip if size == 0 */

	test	edx, edx
	je	SHORT $LN34@SetLocalOf

; 2714 :             info->localsize = ROUND_UP( info->localsize, itemsize );

	lea	ecx, DWORD PTR [rax-1]
	add	ecx, edx
	lea	eax, DWORD PTR [rdx-1]
$LN68@SetLocalOf:
	not	eax
	and	ecx, eax
	mov	DWORD PTR [r8+36], ecx
$LN34@SetLocalOf:

; 2715 :         if (!(ModuleInfo.win64_flags & W64F_HABRAN))

	movzx	r9d, BYTE PTR ModuleInfo+413
	test	r9b, 11
	jne	SHORT $LN5@SetLocalOf

; 2716 :         curr->sym.offset = - info->localsize;

	mov	eax, DWORD PTR [r8+36]
	neg	eax
	mov	DWORD PTR [r10+16], eax
	movzx	r9d, BYTE PTR ModuleInfo+413
$LN5@SetLocalOf:

; 2694 :             }
; 2695 :           }
; 2696 :         }
; 2697 : #endif
; 2698 :         DebugMsg1(("SetLocalOffsets(%s): cntxmm=%u cntstd=%u start=%u align=%u localsize=%u\n", CurrProc->sym.name, cntxmm, cntstd, start, align, info->localsize ));
; 2699 :     }
; 2700 : #endif
; 2701 : 
; 2702 :     /* scan the locals list and set member sym.offset */
; 2703 :     for( curr = info->locallist; curr; curr = curr->nextlocal ) {

	mov	r10, QWORD PTR [r10+112]
	test	r10, r10
	jne	$LL7@SetLocalOf
$LN6@SetLocalOf:
	mov	rsi, QWORD PTR [rsp+64]

; 2717 :         DebugMsg1(("SetLocalOffsets(%s): offset of %s (size=%u) set to %d\n", CurrProc->sym.name, curr->sym.name, curr->sym.total_size, curr->sym.offset));
; 2718 :     }
; 2719 : 
; 2720 :     /* v2.11: localsize must be rounded before offset adjustment if fpo */
; 2721 :     if (!(ModuleInfo.win64_flags & W64F_HABRAN))

	test	r9b, 11
	jne	SHORT $LN36@SetLocalOf

; 2722 :     info->localsize = ROUND_UP( info->localsize, CurrWordSize );

	movzx	ecx, BYTE PTR ModuleInfo+406
	lea	edx, DWORD PTR [rcx-1]
	add	edx, DWORD PTR [r8+36]
	lea	eax, DWORD PTR [rcx-1]
	not	eax
	and	edx, eax
	mov	DWORD PTR [r8+36], edx
	movzx	r9d, BYTE PTR ModuleInfo+413
$LN36@SetLocalOf:

; 2723 : #if AMD64_SUPPORT
; 2724 :     /* RSP 16-byte alignment? */
; 2725 :     if ( rspalign ) {

	test	r15d, r15d
	je	SHORT $LN39@SetLocalOf

; 2726 :       if (ModuleInfo.win64_flags & W64F_HABRAN)info->localsize = ROUND_UP(info->localsize, 8);

	mov	eax, DWORD PTR [r8+36]
	test	r9b, 11
	je	SHORT $LN38@SetLocalOf
	add	eax, 7
	and	eax, -8					; fffffff8H
	jmp	SHORT $LN69@SetLocalOf
$LN38@SetLocalOf:

; 2727 :       else  info->localsize = ROUND_UP( info->localsize, 16 );

	add	eax, 15
	and	eax, -16				; fffffff0H
$LN69@SetLocalOf:
	mov	DWORD PTR [r8+36], eax
	movzx	r9d, BYTE PTR ModuleInfo+413
$LN39@SetLocalOf:

; 2728 :     }
; 2729 : #endif
; 2730 : 
; 2731 :     DebugMsg1(("SetLocalOffsets(%s): localsize=%u after processing locals\n", CurrProc->sym.name, info->localsize ));
; 2732 : 
; 2733 : #if STACKBASESUPP
; 2734 :     /* v2.11: recalculate offsets for params and locals if there's no frame pointer.
; 2735 :      * Problem in 64-bit: option win64:2 triggers the "stack space reservation" feature -
; 2736 :      * but the final value of this space is known at the procedure's END only.
; 2737 :      * Hence in this case the values calculated below are "preliminary".
; 2738 :      */
; 2739 :     if (info->fpo) {

	test	BYTE PTR [r8+84], 128			; 00000080H
	je	$LN12@SetLocalOf

; 2740 :       unsigned localadj;
; 2741 :       unsigned paramadj;
; 2742 : #if AMD64_SUPPORT
; 2743 :       if (rspalign) {

	test	r15d, r15d
	je	SHORT $LN41@SetLocalOf

; 2744 :         localadj = info->localsize;

	mov	r10d, DWORD PTR [r8+36]

; 2745 :         if (!(ModuleInfo.win64_flags & W64F_HABRAN))

	test	r9b, 11
	jne	SHORT $LN67@SetLocalOf

; 2746 :           paramadj = info->localsize - CurrWordSize - start;

	movzx	eax, BYTE PTR ModuleInfo+406
	mov	edx, r10d
	sub	edx, eax
	sub	edx, ebp

; 2747 :       }

	jmp	SHORT $LN42@SetLocalOf
$LN67@SetLocalOf:

; 2751 :         paramadj = info->localsize + cntstd * CurrWordSize - CurrWordSize;

	mov	edx, DWORD PTR paramadj$1[rsp]
	jmp	SHORT $LN42@SetLocalOf
$LN41@SetLocalOf:

; 2748 :       else {
; 2749 : #endif
; 2750 :         localadj = info->localsize + cntstd * CurrWordSize;

	movzx	eax, BYTE PTR ModuleInfo+406

; 2751 :         paramadj = info->localsize + cntstd * CurrWordSize - CurrWordSize;

	lea	edx, DWORD PTR [r14-1]
	mov	r10d, eax
	imul	edx, eax
	imul	r10d, r14d
	add	r10d, DWORD PTR [r8+36]
	add	edx, DWORD PTR [r8+36]
$LN42@SetLocalOf:

; 2752 : #if AMD64_SUPPORT
; 2753 :       }
; 2754 : #endif
; 2755 :       if (!(ModuleInfo.win64_flags & W64F_HABRAN)){

	test	r9b, 11
	jne	SHORT $LN46@SetLocalOf

; 2756 :         DebugMsg1(("SetLocalOffsets(%s): FPO, adjusting offsets\n", CurrProc->sym.name));
; 2757 :         /* subtract CurrWordSize value for params, since no space is required to save the frame pointer value */
; 2758 :         for (curr = info->locallist; curr; curr = curr->nextlocal) {

	mov	rax, QWORD PTR [r8+16]
	test	rax, rax
	je	SHORT $LN9@SetLocalOf
	npad	2
$LL10@SetLocalOf:

; 2759 :           DebugMsg1(("SetLocalOffsets(%s): FPO, offset for %s %4d -> %4d\n", CurrProc->sym.name, curr->sym.name, curr->sym.offset, curr->sym.offset + localadj));
; 2760 :           curr->sym.offset += localadj;

	add	DWORD PTR [rax+16], r10d
	mov	rax, QWORD PTR [rax+112]
	test	rax, rax
	jne	SHORT $LL10@SetLocalOf

; 2756 :         DebugMsg1(("SetLocalOffsets(%s): FPO, adjusting offsets\n", CurrProc->sym.name));
; 2757 :         /* subtract CurrWordSize value for params, since no space is required to save the frame pointer value */
; 2758 :         for (curr = info->locallist; curr; curr = curr->nextlocal) {

	movzx	r9d, BYTE PTR ModuleInfo+413
$LN9@SetLocalOf:

; 2761 :         }
; 2762 :         for (curr = info->paralist; curr; curr = curr->nextparam) {

	mov	rax, QWORD PTR [r8+8]
	test	rax, rax
	je	SHORT $LN12@SetLocalOf
	npad	2
$LL13@SetLocalOf:

; 2763 :           DebugMsg1(("SetLocalOffsets(%s): FPO, offset for %s %4d -> %4d\n", CurrProc->sym.name, curr->sym.name, curr->sym.offset, curr->sym.offset + paramadj));
; 2764 :           curr->sym.offset += paramadj;

	add	DWORD PTR [rax+16], edx
	mov	rax, QWORD PTR [rax+112]
	test	rax, rax
	jne	SHORT $LL13@SetLocalOf

; 2761 :         }
; 2762 :         for (curr = info->paralist; curr; curr = curr->nextparam) {

	movzx	r9d, BYTE PTR ModuleInfo+413
$LN12@SetLocalOf:

; 2765 :         }
; 2766 :       }
; 2767 :     }
; 2768 : #endif
; 2769 : 
; 2770 : #if AMD64_SUPPORT
; 2771 :     /* v2.12: if the space used for register saves has been added to localsize,
; 2772 :      * the part that covers "pushed" GPRs has to be subtracted now, before prologue code is generated.
; 2773 :      */
; 2774 :     if (!(ModuleInfo.win64_flags & W64F_HABRAN)){

	test	r9b, 11
	jne	SHORT $LN46@SetLocalOf

; 2775 :       if (rspalign) {

	test	r15d, r15d
	je	SHORT $LN46@SetLocalOf

; 2776 :         info->localsize -= cntstd * 8 + start;

	neg	ebp
	lea	eax, DWORD PTR [r14*8]
	sub	ebp, eax
	add	DWORD PTR [r8+36], ebp
$LN46@SetLocalOf:

; 2777 :         DebugMsg1(("SetLocalOffsets(%s): final localsize=%u\n", CurrProc->sym.name, info->localsize));
; 2778 :       }
; 2779 :     }
; 2780 : #endif
; 2781 : }

	add	rsp, 16
	pop	r15
	pop	r14
	pop	rbp
	ret	0
SetLocalOffsets ENDP
_TEXT	ENDS
; Function compile flags: /Ogtpy
; File d:\hjwasm\hjwasm2.13.1s\hjwasm2.13.1s\proc.c
;	COMDAT WriteSEHData
_TEXT	SEGMENT
segnamebuff$ = 64
buffer$ = 80
proc$ = 224
WriteSEHData PROC					; COMDAT

; 1642 : {

	mov	QWORD PTR [rsp+24], rbx
	mov	QWORD PTR [rsp+32], rbp
	push	rsi
	sub	rsp, 208				; 000000d0H

; 1643 :     struct dsym *xdata;
; 1644 :     char *segname = ".xdata";
; 1645 :     int i;
; 1646 :     int simplespec;
; 1647 :     uint_8 olddotname;
; 1648 :     uint_32 xdataofs = 0;
; 1649 :     char segnamebuff[12];
; 1650 :     char buffer[128];
; 1651 : 
; 1652 :     if ( endprolog_found == FALSE ) {

	cmp	BYTE PTR endprolog_found, 0
	mov	rsi, rcx
	jne	SHORT $LN5@WriteSEHDa

; 1653 :         EmitErr( MISSING_ENDPROLOG, proc->sym.name );

	mov	rdx, QWORD PTR [rcx+8]
	mov	ecx, 259				; 00000103H
	call	EmitErr
$LN5@WriteSEHDa:

; 1654 :     }
; 1655 :     if ( unw_segs_defined )

	cmp	BYTE PTR unw_segs_defined, 0

; 1656 :         AddLineQueueX("%s %r", segname, T_SEGMENT );

	lea	rdx, OFFSET FLAT:$SG11905
	mov	r8d, 436				; 000001b4H
	je	SHORT $LN6@WriteSEHDa
	lea	rcx, OFFSET FLAT:$SG11909
	call	AddLineQueueX
	jmp	SHORT $LN7@WriteSEHDa
$LN6@WriteSEHDa:

; 1657 :     else {
; 1658 :         AddLineQueueX("%s %r align(%u) flat read 'DATA'", segname, T_SEGMENT, 8 );

	mov	r9d, 8
	lea	rcx, OFFSET FLAT:$SG11910
	call	AddLineQueueX

; 1659 :         AddLineQueue("$xdatasym label near");

	lea	rcx, OFFSET FLAT:$SG11911
	call	AddLineQueue
$LN7@WriteSEHDa:

; 1660 :     }
; 1661 :     xdataofs = 0;
; 1662 :     xdata = (struct dsym *)SymSearch( segname );

	lea	rcx, OFFSET FLAT:$SG11905
	xor	ebp, ebp
	call	SymFind

; 1663 :     if ( xdata ) {

	test	rax, rax
	je	SHORT $LN8@WriteSEHDa

; 1664 :         /* v2.11: changed offset to max_offset.
; 1665 :          * However, value structinfo.current_loc might even be better.
; 1666 :          */
; 1667 :         xdataofs = xdata->sym.max_offset;

	mov	ebp, DWORD PTR [rax+56]
$LN8@WriteSEHDa:

; 1668 :     }
; 1669 : 
; 1670 :     /* write the .xdata stuff (a UNWIND_INFO entry )
; 1671 :      * v2.11: 't'-suffix added to ensure the values are correct if radix is != 10.
; 1672 :      */
; 1673 :     AddLineQueueX( "db %ut + (0%xh shl 3), %ut, %ut, 0%xh + (0%xh shl 4)",

	movzx	edx, BYTE PTR unw_info+3
	movzx	r8d, BYTE PTR unw_info
	mov	ecx, edx
	movzx	eax, BYTE PTR unw_info+2
	and	edx, 15
	movzx	r9d, BYTE PTR unw_info+1
	shr	ecx, 4
	mov	DWORD PTR [rsp+48], ecx
	lea	rcx, OFFSET FLAT:$SG11913
	mov	DWORD PTR [rsp+40], edx
	mov	edx, 1
	shr	r8d, 3
	mov	DWORD PTR [rsp+32], eax
	call	AddLineQueueX

; 1674 :             UNW_VERSION, unw_info.Flags, unw_info.SizeOfProlog,
; 1675 :             unw_info.CountOfCodes, unw_info.FrameRegister, unw_info.FrameOffset );
; 1676 :     if ( unw_info.CountOfCodes ) {

	movzx	eax, BYTE PTR unw_info+2
	test	al, al
	je	$LN3@WriteSEHDa

; 1677 :         char *pfx = "dw";

	mov	QWORD PTR [rsp+232], rdi
	lea	r8, OFFSET FLAT:$SG11915

; 1678 :         buffer[0] = NULLC;
; 1679 :         /* write the codes from right to left */
; 1680 :         for ( i = unw_info.CountOfCodes; i ; i-- ) {

	movzx	ebx, al
	lea	rdi, OFFSET FLAT:unw_code
	lea	rdi, QWORD PTR [rdi-2]
	mov	BYTE PTR buffer$[rsp], 0
	lea	rdi, QWORD PTR [rdi+rbx*2]
$LL4@WriteSEHDa:

; 1681 :             /* v2.11: use field FrameOffset */
; 1682 :             //sprintf( buffer + strlen( buffer ), "%s 0%xh", pfx, unw_code[i-1] );
; 1683 :             sprintf( buffer + strlen( buffer ), "%s 0%xh", pfx, unw_code[i-1].FrameOffset );

	movzx	r9d, WORD PTR [rdi]
	lea	rcx, QWORD PTR buffer$[rsp]
	or	rax, -1
	npad	3
$LL25@WriteSEHDa:
	inc	rax
	cmp	BYTE PTR [rcx+rax], 0
	jne	SHORT $LL25@WriteSEHDa
	lea	rcx, QWORD PTR buffer$[rsp]
	add	rcx, rax
	lea	rdx, OFFSET FLAT:$SG11916
	call	sprintf

; 1684 :             pfx = ",";

	lea	r8, OFFSET FLAT:$SG11917

; 1685 :             if ( i == 1 || strlen( buffer ) > 72 ) {

	cmp	rbx, 1
	je	SHORT $LN11@WriteSEHDa
	lea	rcx, QWORD PTR buffer$[rsp]
	or	rax, -1
$LL24@WriteSEHDa:
	inc	rax
	cmp	BYTE PTR [rcx+rax], 0
	jne	SHORT $LL24@WriteSEHDa
	cmp	rax, 72					; 00000048H
	jbe	SHORT $LN2@WriteSEHDa
$LN11@WriteSEHDa:

; 1686 :                 AddLineQueue( buffer );

	lea	rcx, QWORD PTR buffer$[rsp]
	call	AddLineQueue

; 1687 :                 buffer[0] = NULLC;
; 1688 :                 pfx = "dw";

	lea	r8, OFFSET FLAT:$SG11920
	mov	BYTE PTR buffer$[rsp], 0
$LN2@WriteSEHDa:

; 1678 :         buffer[0] = NULLC;
; 1679 :         /* write the codes from right to left */
; 1680 :         for ( i = unw_info.CountOfCodes; i ; i-- ) {

	sub	rdi, 2
	sub	rbx, 1
	jne	SHORT $LL4@WriteSEHDa
	mov	rdi, QWORD PTR [rsp+232]
$LN3@WriteSEHDa:

; 1689 :             }
; 1690 :         }
; 1691 :     }
; 1692 :     /* make sure the unwind codes array has an even number of entries */
; 1693 :     AddLineQueueX( "%r 4", T_ALIGN );

	mov	edx, 434				; 000001b2H
	lea	rcx, OFFSET FLAT:$SG11921
	call	AddLineQueueX

; 1694 : 
; 1695 :     if ( proc->e.procinfo->exc_handler ) {

	mov	rax, QWORD PTR [rsi+96]
	mov	r8, QWORD PTR [rax+48]
	test	r8, r8
	je	SHORT $LN12@WriteSEHDa

; 1696 :         AddLineQueueX( "dd %r %s", T_IMAGEREL, proc->e.procinfo->exc_handler->name );

	mov	r8, QWORD PTR [r8+8]
	lea	rcx, OFFSET FLAT:$SG11923
	mov	edx, 233				; 000000e9H
	call	AddLineQueueX

; 1697 :         AddLineQueueX( "%r 8", T_ALIGN );

	mov	edx, 434				; 000001b2H
	lea	rcx, OFFSET FLAT:$SG11924
	call	AddLineQueueX
$LN12@WriteSEHDa:

; 1698 :     }
; 1699 :     AddLineQueueX( "%s %r", segname, T_ENDS );

	mov	r8d, 437				; 000001b5H
	lea	rdx, OFFSET FLAT:$SG11905
	lea	rcx, OFFSET FLAT:$SG11925
	call	AddLineQueueX

; 1700 : 
; 1701 :     /* v2.07: ensure that .pdata items are sorted */
; 1702 :     if ( 0 == strcmp( SimGetSegName( SIM_CODE ), proc->sym.segment->name ) ) {

	mov	rbx, QWORD PTR [rsi+24]
	xor	ecx, ecx
	call	SimGetSegName
	mov	r9, QWORD PTR [rbx+8]
	sub	r9, rax
	npad	7
$LL22@WriteSEHDa:
	movzx	edx, BYTE PTR [rax]
	movzx	ecx, BYTE PTR [rax+r9]
	sub	edx, ecx
	jne	SHORT $LN23@WriteSEHDa
	inc	rax
	test	ecx, ecx
	jne	SHORT $LL22@WriteSEHDa
$LN23@WriteSEHDa:
	test	edx, edx
	jne	SHORT $LN13@WriteSEHDa

; 1703 :         segname = ".pdata";
; 1704 :         simplespec = ( unw_segs_defined & 1 );

	movzx	eax, BYTE PTR unw_segs_defined
	lea	rbx, OFFSET FLAT:$SG11928

; 1705 :         unw_segs_defined = 3;

	mov	BYTE PTR unw_segs_defined, 3
	and	eax, 1

; 1711 :     }
; 1712 : 
; 1713 :     if ( simplespec )

	je	SHORT $LN15@WriteSEHDa

; 1714 :         AddLineQueueX( "%s %r", segname, T_SEGMENT );

	mov	r8d, 436				; 000001b4H
	lea	rcx, OFFSET FLAT:$SG11932
	mov	rdx, rbx
	call	AddLineQueueX
	jmp	SHORT $LN16@WriteSEHDa
$LN13@WriteSEHDa:

; 1706 :     } else {
; 1707 :         segname = segnamebuff;
; 1708 :         sprintf( segname, ".pdata$%04u", GetSegIdx( proc->sym.segment ) );

	mov	rcx, QWORD PTR [rsi+24]
	lea	rbx, QWORD PTR segnamebuff$[rsp]
	call	GetSegIdx
	mov	r8d, eax
	lea	rdx, OFFSET FLAT:$SG11929
	lea	rcx, QWORD PTR segnamebuff$[rsp]
	call	sprintf

; 1709 :         simplespec = 0;
; 1710 :         unw_segs_defined |= 2;

	or	BYTE PTR unw_segs_defined, 2
$LN15@WriteSEHDa:

; 1715 :     else
; 1716 :         AddLineQueueX( "%s %r align(%u) flat read 'DATA'", segname, T_SEGMENT, 4 );

	mov	r9d, 4
	lea	rcx, OFFSET FLAT:$SG11933
	mov	r8d, 436				; 000001b4H
	mov	rdx, rbx
	call	AddLineQueueX
$LN16@WriteSEHDa:

; 1717 :     /* write the .pdata stuff ( type IMAGE_RUNTIME_FUNCTION_ENTRY )*/
; 1718 :     AddLineQueueX( "dd %r %s, %r %s+0%xh, %r $xdatasym+0%xh",

	mov	r8, QWORD PTR [rsi+8]
	lea	rcx, OFFSET FLAT:$SG11934
	mov	eax, DWORD PTR [rsi+56]
	mov	edx, 233				; 000000e9H
	mov	DWORD PTR [rsp+56], ebp
	mov	r9d, edx
	mov	DWORD PTR [rsp+48], 233			; 000000e9H
	mov	DWORD PTR [rsp+40], eax
	mov	QWORD PTR [rsp+32], r8
	call	AddLineQueueX

; 1719 :                   T_IMAGEREL, proc->sym.name,
; 1720 :                   T_IMAGEREL, proc->sym.name, proc->sym.total_size,
; 1721 :                   T_IMAGEREL, xdataofs );
; 1722 :     AddLineQueueX("%s %r", segname, T_ENDS );

	mov	r8d, 437				; 000001b5H
	lea	rcx, OFFSET FLAT:$SG11935
	mov	rdx, rbx
	call	AddLineQueueX

; 1723 :     olddotname = ModuleInfo.dotname;

	mov	eax, DWORD PTR ModuleInfo+408
	mov	ebx, eax

; 1724 :     ModuleInfo.dotname = TRUE; /* set OPTION DOTNAME because .pdata and .xdata */

	or	eax, 16
	shr	ebx, 4
	and	bl, 1
	mov	DWORD PTR ModuleInfo+408, eax

; 1725 :     RunLineQueue();

	call	RunLineQueue

; 1726 :     ModuleInfo.dotname = olddotname;

	mov	eax, DWORD PTR ModuleInfo+408

; 1727 :     return;
; 1728 : }

	lea	r11, QWORD PTR [rsp+208]
	mov	rbp, QWORD PTR [r11+40]
	movzx	ecx, bl
	mov	rbx, QWORD PTR [r11+32]
	shl	ecx, 4
	xor	ecx, eax
	and	ecx, 16
	xor	eax, ecx
	mov	DWORD PTR ModuleInfo+408, eax
	mov	rsp, r11
	pop	rsi
	ret	0
WriteSEHData ENDP
_TEXT	ENDS
; Function compile flags: /Ogtpy
; File d:\hjwasm\hjwasm2.13.1s\hjwasm2.13.1s\proc.c
_TEXT	SEGMENT
i$ = 64
tokenarray$ = 72
ProcDir	PROC

; 1408 : {

$LN47:
	push	rbp
	sub	rsp, 48					; 00000030H
	mov	rbp, rdx

; 1409 :     struct asym         *sym;
; 1410 :     unsigned int        ofs;
; 1411 :     char                *name;
; 1412 :     bool                oldpubstate;
; 1413 :     bool                is_global;
; 1414 : 
; 1415 :     DebugMsg1(("ProcDir enter, curr ofs=%X\n", GetCurrOffset() ));
; 1416 :     if( i != 1 ) {

	cmp	ecx, 1
	je	SHORT $LN2@ProcDir

; 1417 :         return( EmitErr( SYNTAX_ERROR_EX, tokenarray[i].string_ptr ) );

	movsxd	rdx, ecx
	mov	ecx, 209				; 000000d1H
	shl	rdx, 5
	mov	rdx, QWORD PTR [rdx+rbp+8]

; 1597 : }

	add	rsp, 48					; 00000030H
	pop	rbp

; 1417 :         return( EmitErr( SYNTAX_ERROR_EX, tokenarray[i].string_ptr ) );

	jmp	EmitErr
$LN2@ProcDir:

; 1418 :     }
; 1419 :     /* v2.04b: check was missing */
; 1420 :     if( CurrSeg == NULL ) {

	cmp	QWORD PTR ModuleInfo+432, 0
	jne	SHORT $LN3@ProcDir

; 1421 :         return( EmitError( MUST_BE_IN_SEGMENT_BLOCK ) );

	mov	ecx, 82					; 00000052H

; 1597 : }

	add	rsp, 48					; 00000030H
	pop	rbp

; 1421 :         return( EmitError( MUST_BE_IN_SEGMENT_BLOCK ) );

	jmp	EmitError
$LN3@ProcDir:
	mov	QWORD PTR [rsp+64], rbx

; 1422 :     }
; 1423 : 
; 1424 :     name = tokenarray[0].string_ptr;
; 1425 : 
; 1426 :     if( CurrProc != NULL ) {

	mov	rbx, QWORD PTR CurrProc
	mov	QWORD PTR [rsp+72], rsi
	mov	rsi, QWORD PTR [rdx+8]
	test	rbx, rbx
	je	SHORT $LN39@ProcDir

; 1427 : 
; 1428 :         /* this is not needed for HJWasm, but Masm will reject nested
; 1429 :          * procs if there are params, locals or used registers.
; 1430 :          */
; 1431 :         if ( CurrProc->e.procinfo->paralist ||
; 1432 : #if AMD64_SUPPORT
; 1433 :             CurrProc->e.procinfo->isframe ||
; 1434 : #endif
; 1435 :             CurrProc->e.procinfo->locallist ||

	mov	rax, QWORD PTR [rbx+96]
	cmp	QWORD PTR [rax+8], 0
	jne	$LN6@ProcDir
	test	BYTE PTR [rax+84], 64			; 00000040H
	jne	$LN6@ProcDir
	cmp	QWORD PTR [rax+16], 0
	jne	$LN6@ProcDir
	cmp	QWORD PTR [rax], 0
	jne	$LN6@ProcDir

; 1438 :         }
; 1439 :         /* nested procs ... push currproc on a stack */
; 1440 :         push_proc( CurrProc );

	cmp	DWORD PTR Parse_Pass, 0
	jne	SHORT $LN37@ProcDir
	mov	rcx, rbx
	call	SymGetLocal
$LN37@ProcDir:
	mov	ecx, 16
	call	LclAlloc
	mov	rcx, QWORD PTR ProcStack
	mov	QWORD PTR [rax], rcx
	mov	QWORD PTR [rax+8], rbx
	mov	QWORD PTR ProcStack, rax
$LN39@ProcDir:

; 1441 :     }
; 1442 : 
; 1443 : 
; 1444 :     if ( ModuleInfo.procalign ) {

	movzx	eax, BYTE PTR ModuleInfo+399
	test	al, al
	je	SHORT $LN7@ProcDir

; 1445 :         AlignCurrOffset( ModuleInfo.procalign );

	movzx	ecx, al
	call	AlignCurrOffset
$LN7@ProcDir:

; 1446 :     }
; 1447 : 
; 1448 :     i++; /* go past PROC */
; 1449 : 
; 1450 :     sym = SymSearch( name );

	mov	QWORD PTR [rsp+80], rdi
	mov	rcx, rsi
	mov	QWORD PTR [rsp+88], r14
	call	SymFind

; 1451 : 
; 1452 :     if( Parse_Pass == PASS_1 ) {

	cmp	DWORD PTR Parse_Pass, 0
	mov	rbx, rax
	jne	$LN8@ProcDir

; 1453 : 
; 1454 :         oldpubstate = sym ? sym->ispublic : FALSE;

	test	rax, rax
	je	$LN32@ProcDir
	movzx	edi, BYTE PTR [rax+40]

; 1455 :         if( sym == NULL || sym->state == SYM_UNDEFINED ) {

	mov	eax, DWORD PTR [rax+32]
	shr	dil, 7
	test	eax, eax
	je	$LN12@ProcDir

; 1458 :         } else if ( sym->state == SYM_EXTERNAL && sym->weak == TRUE ) {

	cmp	eax, 2
	jne	SHORT $LN13@ProcDir
	test	BYTE PTR [rbx+47], 8
	je	SHORT $LN13@ProcDir

; 1459 :             /* PROTO or EXTERNDEF item */
; 1460 :             is_global = TRUE;
; 1461 :             if ( sym->isproc == TRUE  ) {

	test	BYTE PTR [rbx+41], 8
	mov	r14b, 1
	je	SHORT $LN15@ProcDir

; 1462 :                 /* don't create the procinfo extension; it exists already */
; 1463 :                 procidx++; /* v2.04: added */

	inc	DWORD PTR procidx

; 1464 :                 if ( Options.line_numbers ) {

	cmp	BYTE PTR Options+1, 0
	je	SHORT $LN14@ProcDir

; 1465 :                     sym->debuginfo = LclAlloc( sizeof( struct debug_info ) );

	lea	ecx, QWORD PTR [rax+22]
	call	LclAlloc
	mov	QWORD PTR [rbx+64], rax

; 1466 :                     sym->debuginfo->file = get_curr_srcfile();

	call	get_curr_srcfile
	mov	rcx, QWORD PTR [rbx+64]
	mov	WORD PTR [rcx+14], ax

; 1467 :                 }
; 1468 :             } else {

	jmp	SHORT $LN14@ProcDir
$LN6@ProcDir:

; 1436 :             CurrProc->e.procinfo->regslist ) {
; 1437 :             return( EmitErr( CANNOT_NEST_PROCEDURES, name ) );

	mov	rdx, rsi
	mov	ecx, 93					; 0000005dH
	mov	rbx, QWORD PTR [rsp+64]
	mov	rsi, QWORD PTR [rsp+72]

; 1597 : }

	add	rsp, 48					; 00000030H
	pop	rbp

; 1436 :             CurrProc->e.procinfo->regslist ) {
; 1437 :             return( EmitErr( CANNOT_NEST_PROCEDURES, name ) );

	jmp	EmitErr
$LN15@ProcDir:

; 1469 :                 /* it's a simple EXTERNDEF. Create a PROC item!
; 1470 :                  * this will be SYM_INTERNAL */
; 1471 :                 /* v2.03: don't call dir_free(), it'll clear field Ofssize */
; 1472 :                 //dir_free( (struct dsym *)sym );
; 1473 :                 sym = CreateProc( sym, name, SYM_INTERNAL );

	mov	r8d, 1
	mov	rdx, rsi
	mov	rcx, rbx
	call	CreateProc

; 1474 :             }
; 1475 :         } else {

	jmp	SHORT $LN45@ProcDir
$LN13@ProcDir:

; 1476 :             /* Masm won't reject a redefinition if "certain" parameters
; 1477 :              * won't change. However, in a lot of cases one gets "internal assembler error".
; 1478 :              * Hence this "feature" isn't active in hjwasm.
; 1479 :              */
; 1480 :             //} else if ( sym->state != SYM_INTERNAL || sym->isproc != TRUE ||
; 1481 :             //           sym->offset != GetCurrOffset() || sym->segment != &CurrSeg->sym ) {
; 1482 :             return( EmitErr( SYMBOL_REDEFINITION, sym->name ) );

	mov	rdx, QWORD PTR [rbx+8]
	mov	ecx, 143				; 0000008fH
	call	EmitErr
	jmp	$LN44@ProcDir
$LN32@ProcDir:

; 1453 : 
; 1454 :         oldpubstate = sym ? sym->ispublic : FALSE;

	xor	dil, dil
$LN12@ProcDir:

; 1456 :             sym = CreateProc( sym, name, SYM_INTERNAL );

	mov	r8d, 1
	mov	rdx, rsi
	mov	rcx, rbx
	call	CreateProc

; 1457 :             is_global = FALSE;

	xor	r14b, r14b
$LN45@ProcDir:

; 1456 :             sym = CreateProc( sym, name, SYM_INTERNAL );

	mov	rbx, rax
$LN14@ProcDir:

; 1483 :         }
; 1484 :         SetSymSegOfs( sym );

	mov	rcx, rbx
	call	SetSymSegOfs

; 1485 : 
; 1486 :         SymClearLocal();

	call	SymClearLocal

; 1487 : 
; 1488 : #if STACKBASESUPP
; 1489 :         /* v2.11: added. Note that fpo flag is only set if there ARE params! */
; 1490 :         ((struct dsym *)sym)->e.procinfo->basereg = ModuleInfo.basereg[ModuleInfo.Ofssize];

	movzx	eax, BYTE PTR ModuleInfo+404
	lea	rsi, OFFSET FLAT:__ImageBase
	mov	rcx, QWORD PTR [rbx+96]

; 1491 : #endif
; 1492 :         /* CurrProc must be set, it's used inside SymFind() and SymLCreate()! */
; 1493 :         CurrProc = (struct dsym *)sym;
; 1494 :         if( ParseProc( (struct dsym *)sym, i, tokenarray, TRUE, ModuleInfo.langtype ) == ERROR ) {

	mov	r9b, 1
	mov	r8, rbp
	mov	edx, 2
	movzx	eax, WORD PTR ModuleInfo[rsi+rax*4+500]
	mov	WORD PTR [rcx+86], ax
	mov	rcx, rbx
	mov	eax, DWORD PTR ModuleInfo+364
	mov	DWORD PTR [rsp+32], eax
	mov	QWORD PTR CurrProc, rbx
	call	ParseProc
	cmp	eax, -1
	jne	SHORT $LN18@ProcDir

; 1495 :             CurrProc = NULL;

	xor	edi, edi
	mov	QWORD PTR CurrProc, rdi

; 1496 :             return( ERROR );

	or	eax, eax
	jmp	$LN44@ProcDir
$LN18@ProcDir:

; 1497 :         }
; 1498 :         /* v2.04: added */
; 1499 :         if ( is_global && Options.masm8_proc_visibility )

	test	r14b, r14b
	je	SHORT $LN19@ProcDir
	cmp	BYTE PTR Options+129, 0
	je	SHORT $LN19@ProcDir

; 1500 :             sym->ispublic = TRUE;

	or	BYTE PTR [rbx+40], 128			; 00000080H
$LN19@ProcDir:

; 1501 : 
; 1502 :         /* if there was a PROTO (or EXTERNDEF name:PROTO ...),
; 1503 :          * change symbol to SYM_INTERNAL!
; 1504 :          */
; 1505 :         if ( sym->state == SYM_EXTERNAL && sym->isproc == TRUE ) {

	cmp	DWORD PTR [rbx+32], 2
	jne	SHORT $LN20@ProcDir
	test	BYTE PTR [rbx+41], 8
	je	SHORT $LN20@ProcDir

; 1506 :             sym_ext2int( sym );

	mov	rcx, rbx
	call	sym_ext2int

; 1507 :             /* v2.11: added ( may be better to call CreateProc() - currently not possible ) */
; 1508 :             if ( SymTables[TAB_PROC].head == NULL )

	cmp	QWORD PTR SymTables+64, 0
	jne	SHORT $LN21@ProcDir

; 1509 :                 SymTables[TAB_PROC].head = (struct dsym *)sym;

	mov	QWORD PTR SymTables+64, rbx
	jmp	SHORT $LN22@ProcDir
$LN21@ProcDir:

; 1510 :             else {
; 1511 :                 SymTables[TAB_PROC].tail->nextproc = (struct dsym *)sym;

	mov	rax, QWORD PTR SymTables+72
	mov	QWORD PTR [rax+112], rbx
$LN22@ProcDir:

; 1512 :             }
; 1513 :             SymTables[TAB_PROC].tail = (struct dsym *)sym;

	mov	QWORD PTR SymTables+72, rbx
$LN20@ProcDir:

; 1514 :         }
; 1515 : 
; 1516 :         /* v2.11: sym->isproc is set inside ParseProc() */
; 1517 :         //sym->isproc = TRUE;
; 1518 : #if STACKBASESUPP
; 1519 :         /* v2.11: Note that fpo flag is only set if there ARE params ( or locals )! */
; 1520 :         if ( CurrProc->e.procinfo->paralist && GetRegNo( CurrProc->e.procinfo->basereg ) == 4 )

	mov	rax, QWORD PTR CurrProc
	mov	rdx, QWORD PTR [rax+96]
	cmp	QWORD PTR [rdx+8], 0
	je	SHORT $LN23@ProcDir
	movzx	eax, WORD PTR [rdx+86]
	lea	rcx, QWORD PTR [rax+rax*2]
	cmp	BYTE PTR SpecialTable[rsi+rcx*4+10], 4
	jne	SHORT $LN23@ProcDir

; 1521 :             CurrProc->e.procinfo->fpo = TRUE;

	or	BYTE PTR [rdx+84], 128			; 00000080H
$LN23@ProcDir:

; 1522 : #endif
; 1523 :         if( sym->ispublic == TRUE && oldpubstate == FALSE )

	test	BYTE PTR [rbx+40], 128			; 00000080H
	je	SHORT $LN24@ProcDir
	test	dil, dil
	jne	SHORT $LN24@ProcDir

; 1524 :             AddPublicData( sym );

	mov	rcx, rbx
	call	AddPublicData
$LN24@ProcDir:

; 1525 : 
; 1526 :         /* v2.04: add the proc to the list of labels attached to curr segment.
; 1527 :          * this allows to reduce the number of passes (see fixup.c)
; 1528 :          */
; 1529 :         ((struct dsym *)sym)->next = (struct dsym *)CurrSeg->e.seginfo->label_list;

	mov	rax, QWORD PTR ModuleInfo+432
	mov	rcx, QWORD PTR [rax+96]
	mov	rax, QWORD PTR [rcx+32]
	mov	QWORD PTR [rbx+104], rax

; 1530 :         CurrSeg->e.seginfo->label_list = sym;

	mov	rax, QWORD PTR ModuleInfo+432
	mov	rcx, QWORD PTR [rax+96]
	mov	QWORD PTR [rcx+32], rbx

; 1531 : 
; 1532 :     } else {

	jmp	SHORT $LN26@ProcDir
$LN8@ProcDir:

; 1533 :         /**/myassert( sym != NULL );
; 1534 : 
; 1535 :         procidx++;

	inc	DWORD PTR procidx

; 1536 :         sym->isdefined = TRUE;
; 1537 : 
; 1538 :         SymSetLocal( sym );

	mov	rcx, rax
	or	BYTE PTR [rax+40], 2
	call	SymSetLocal

; 1539 : 
; 1540 :         /* it's necessary to check for a phase error here
; 1541 :          as it is done in LabelCreate() and data_dir()!
; 1542 :          */
; 1543 :         ofs = GetCurrOffset();

	call	GetCurrOffset

; 1544 : 
; 1545 :         if ( ofs != sym->offset) {

	cmp	eax, DWORD PTR [rbx+16]
	je	SHORT $LN25@ProcDir

; 1546 :             DebugMsg(("ProcDir(%s): %spass %u, old ofs=%" I32_SPEC "X, new ofs=%" I32_SPEC "X\n",
; 1547 :                     sym->name,
; 1548 :                     ModuleInfo.PhaseError ? "" : "phase error ",
; 1549 :                     Parse_Pass+1, sym->offset, ofs ));
; 1550 :             sym->offset = ofs;

	mov	DWORD PTR [rbx+16], eax

; 1551 :             ModuleInfo.PhaseError = TRUE;

	mov	BYTE PTR ModuleInfo+422, 1
$LN25@ProcDir:

; 1552 :         }
; 1553 :         CurrProc = (struct dsym *)sym;

	mov	QWORD PTR CurrProc, rbx

; 1554 : #if AMD64_SUPPORT
; 1555 :         /* check if the exception handler set by FRAME is defined */
; 1556 :         if ( CurrProc->e.procinfo->isframe &&
; 1557 :             CurrProc->e.procinfo->exc_handler &&

	mov	rdx, QWORD PTR [rbx+96]
	test	BYTE PTR [rdx+84], 64			; 00000040H
	je	SHORT $LN26@ProcDir
	mov	rdx, QWORD PTR [rdx+48]
	test	rdx, rdx
	je	SHORT $LN26@ProcDir
	cmp	DWORD PTR [rdx+32], 0
	jne	SHORT $LN26@ProcDir

; 1558 :             CurrProc->e.procinfo->exc_handler->state == SYM_UNDEFINED ) {
; 1559 :             EmitErr( SYMBOL_NOT_DEFINED, CurrProc->e.procinfo->exc_handler->name );

	mov	rdx, QWORD PTR [rdx+8]
	mov	ecx, 102				; 00000066H
	call	EmitErr
$LN26@ProcDir:

; 1560 :         }
; 1561 : #endif
; 1562 :     }
; 1563 : 
; 1564 :     /* v2.11: init @ProcStatus - prologue not written yet, optionally set FPO flag */
; 1565 : #if STACKBASESUPP
; 1566 :     ProcStatus = PRST_PROLOGUE_NOT_DONE | ( CurrProc->e.procinfo->fpo ? PRST_FPO : 0 );

	mov	rdx, QWORD PTR CurrProc

; 1567 :     StackAdj = 0;  /* init @StackBase to 0 */

	xor	edi, edi
	mov	rax, QWORD PTR [rdx+96]
	movzx	ecx, BYTE PTR [rax+84]
	shr	ecx, 5
	and	ecx, 4
	mov	DWORD PTR StackAdj, edi
	bts	ecx, 7

; 1568 :     StackAdjHigh = 0;

	mov	DWORD PTR StackAdjHigh, edi
	mov	DWORD PTR ProcStatus, ecx

; 1569 : #else
; 1570 :     ProcStatus = PRST_PROLOGUE_NOT_DONE;
; 1571 : #endif
; 1572 : 
; 1573 : #if AMD64_SUPPORT
; 1574 :     if ( CurrProc->e.procinfo->isframe ) {

	mov	rax, QWORD PTR [rdx+96]
	test	BYTE PTR [rax+84], 64			; 00000040H
	je	SHORT $LN28@ProcDir

; 1575 :         endprolog_found = FALSE;
; 1576 :         /* v2.11: clear all fields */
; 1577 :         memset( &unw_info, 0, sizeof( unw_info ) );

	xor	eax, eax
	mov	BYTE PTR endprolog_found, dil
	mov	DWORD PTR unw_info, eax

; 1578 :         if ( CurrProc->e.procinfo->exc_handler )

	mov	rax, QWORD PTR [rdx+96]
	cmp	QWORD PTR [rax+48], rdi
	je	SHORT $LN28@ProcDir

; 1579 :             unw_info.Flags = UNW_FLAG_FHANDLER;

	movzx	eax, BYTE PTR unw_info
	and	al, 7
	or	al, 24
	mov	BYTE PTR unw_info, al
$LN28@ProcDir:

; 1580 :     }
; 1581 : #endif
; 1582 : 
; 1583 :     sym->asmpass = Parse_Pass;

	movzx	eax, BYTE PTR Parse_Pass
	mov	BYTE PTR [rbx+46], al

; 1584 :     if ( ModuleInfo.list )

	test	DWORD PTR ModuleInfo+408, 2048		; 00000800H
	je	SHORT $LN29@ProcDir

; 1585 :         LstWrite( LSTTYPE_LABEL, 0, NULL );

	xor	edx, edx
	xor	r8d, r8d
	lea	ecx, QWORD PTR [rdx+7]
	call	LstWrite
$LN29@ProcDir:

; 1586 : 
; 1587 :     if( Options.line_numbers ) {

	cmp	BYTE PTR Options+1, dil
	je	SHORT $LN30@ProcDir

; 1588 : #if COFF_SUPPORT
; 1589 :         AddLinnumDataRef( get_curr_srcfile(), Options.output_format == OFORMAT_COFF ? 0 : GetLineNumber() );

	cmp	DWORD PTR Options+144, 2
	je	SHORT $LN35@ProcDir
	call	GetLineNumber
	mov	edi, eax
$LN35@ProcDir:
	call	get_curr_srcfile
	mov	ecx, eax
	mov	edx, edi
	call	AddLinnumDataRef
$LN30@ProcDir:

; 1590 : #else
; 1591 :         AddLinnumDataRef( get_curr_srcfile(), GetLineNumber() );
; 1592 : #endif
; 1593 :     }
; 1594 : 
; 1595 :     BackPatch( sym );

	mov	rcx, rbx
	call	BackPatch

; 1596 :     return( NOT_ERROR );

	xor	eax, eax
$LN44@ProcDir:
	mov	rdi, QWORD PTR [rsp+80]
	mov	r14, QWORD PTR [rsp+88]
	mov	rbx, QWORD PTR [rsp+64]
	mov	rsi, QWORD PTR [rsp+72]

; 1597 : }

	add	rsp, 48					; 00000030H
	pop	rbp
	ret	0
ProcDir	ENDP
_TEXT	ENDS
; Function compile flags: /Ogtpy
; File d:\hjwasm\hjwasm2.13.1s\hjwasm2.13.1s\proc.c
;	COMDAT ParseParams
_TEXT	SEGMENT
fcint$ = 32
ti$ = 40
init_done$1$ = 160
proc$ = 160
i$ = 168
tokenarray$ = 176
IsPROC$ = 184
ParseParams PROC					; COMDAT

; 632  : {

	mov	BYTE PTR [rsp+32], r9b
	mov	QWORD PTR [rsp+24], r8
	mov	DWORD PTR [rsp+16], edx
	push	rbp
	push	rbx
	push	rdi
	push	r13
	push	r14
	push	r15
	mov	rbp, rsp
	sub	rsp, 104				; 00000068H

; 633  :     char            *name;
; 634  :     struct asym     *sym;
; 635  :     int             cntParam;
; 636  :     int             offset;
; 637  :     //int             size;
; 638  :     int             fcint = 0;

	xor	r15d, r15d
	movsxd	r10, edx

; 639  :     struct qualified_type ti;
; 640  :     bool            is_vararg;
; 641  :     bool            init_done;
; 642  :     struct dsym     *paranode;
; 643  :     struct dsym     *paracurr;
; 644  :     int             curr;
; 645  : 
; 646  :     /*
; 647  :      * find "first" parameter ( that is, the first to be pushed in INVOKE ).
; 648  :      */
; 649  :     if (proc->sym.langtype == LANG_C ||
; 650  :         proc->sym.langtype == LANG_SYSCALL ||
; 651  : #if AMD64_SUPPORT
; 652  :         ( proc->sym.langtype == LANG_FASTCALL && ModuleInfo.Ofssize != USE64 ) ||

	mov	edx, DWORD PTR [rcx+76]
	movzx	ebx, r9b
	mov	r9, r8
	mov	DWORD PTR fcint$[rbp-104], r15d
	mov	r14, rcx
	lea	eax, DWORD PTR [rdx-1]
	cmp	eax, 1
	jbe	SHORT $LN37@ParseParam
	cmp	edx, 7
	jne	SHORT $LN38@ParseParam
	cmp	BYTE PTR ModuleInfo+404, 2
	jne	SHORT $LN37@ParseParam
$LN38@ParseParam:
	cmp	edx, 3
	je	SHORT $LN37@ParseParam

; 658  :     else
; 659  :         paracurr = proc->e.procinfo->paralist;

	mov	rax, QWORD PTR [rcx+96]
	mov	rdi, QWORD PTR [rax+8]
$LN162@ParseParam:

; 660  : 
; 661  :     /* v2.11: proc_info.init_done has been removed, sym.isproc flag is used instead */
; 662  :     init_done = proc->sym.isproc;

	movzx	eax, BYTE PTR [rcx+41]

; 663  : 
; 664  :     for( cntParam = 0 ; tokenarray[i].token != T_FINAL ; cntParam++ ) {

	mov	r13d, r15d
	shr	al, 3
	and	al, 1
	mov	QWORD PTR [rsp+96], rsi
	mov	BYTE PTR init_done$1$[rbp-104], al
	mov	rax, r10
	shl	rax, 5
	mov	QWORD PTR [rsp+88], r12
	lea	rcx, QWORD PTR [rax+r8]
$LN170@ParseParam:
	movzx	eax, BYTE PTR [rcx]
	test	al, al
	je	$LN161@ParseParam
	mov	edx, 3

; 665  : 
; 666  :         if ( tokenarray[i].token == T_ID ) {

	cmp	al, 8
	jne	SHORT $LN39@ParseParam

; 667  :             name = tokenarray[i++].string_ptr;

	mov	r12, QWORD PTR [rcx+8]
	inc	r10d
	mov	DWORD PTR i$[rbp-104], r10d
	jmp	SHORT $LN44@ParseParam
$LN37@ParseParam:

; 653  : #else
; 654  :         proc->sym.langtype == LANG_FASTCALL ||
; 655  : #endif
; 656  :         proc->sym.langtype == LANG_STDCALL)
; 657  :         for ( paracurr = proc->e.procinfo->paralist; paracurr && paracurr->nextparam; paracurr = paracurr->nextparam );

	mov	rax, QWORD PTR [rcx+96]
	mov	rdi, QWORD PTR [rax+8]
	test	rdi, rdi
	je	SHORT $LN162@ParseParam
	npad	6
$LL4@ParseParam:
	mov	rax, QWORD PTR [rdi+112]
	test	rax, rax
	je	SHORT $LN162@ParseParam
	mov	rdi, rax
	jmp	SHORT $LL4@ParseParam
$LN39@ParseParam:

; 668  :         } else if ( IsPROC == FALSE && tokenarray[i].token == T_COLON ) {

	test	bl, bl
	jne	$LN41@ParseParam
	cmp	al, 58					; 0000003aH
	jne	$LN41@ParseParam

; 669  :             if ( paracurr )

	test	rdi, rdi
	je	SHORT $LN43@ParseParam

; 670  :                 name = paracurr->sym.name;

	mov	r12, QWORD PTR [rdi+8]
	jmp	SHORT $LN44@ParseParam
$LN43@ParseParam:

; 671  :             else
; 672  :                 name = "";

	lea	r12, OFFSET FLAT:$SG11585
$LN44@ParseParam:

; 677  :         }
; 678  : 
; 679  :         ti.symtype = NULL;
; 680  :         ti.is_ptr = 0;
; 681  :         ti.ptr_memtype = MT_EMPTY;
; 682  :         /* v2.02: init is_far depending on memory model */
; 683  :         //ti.is_far = FALSE;
; 684  :         if ( SIZE_DATAPTR & ( 1 << ModuleInfo.model ) )

	mov	ecx, DWORD PTR ModuleInfo+360
	mov	eax, 1
	shl	al, cl

; 685  :             ti.is_far = TRUE;
; 686  :         else
; 687  :             ti.is_far = FALSE;
; 688  :         ti.Ofssize = ModuleInfo.Ofssize;

	movzx	ecx, BYTE PTR ModuleInfo+404
	test	al, 104					; 00000068H

; 689  :         ti.size = CurrWordSize;

	movzx	eax, BYTE PTR ModuleInfo+406
	mov	DWORD PTR ti$[rbp-104], eax
	setne	BYTE PTR ti$[rbp-83]

; 690  : 
; 691  :         is_vararg = FALSE;
; 692  : 
; 693  :         /* read colon. It's optional for PROC.
; 694  :          * Masm also allows a missing colon for PROTO - if there's
; 695  :          * just one parameter. Probably a Masm bug.
; 696  :          * HJWasm always require a colon for PROTO.
; 697  :          */
; 698  :         if( tokenarray[i].token != T_COLON ) {

	movsxd	rax, r10d
	xor	sil, sil
	shl	rax, 5
	mov	QWORD PTR ti$[rbp-96], r15
	mov	BYTE PTR ti$[rbp-84], r15b
	mov	DWORD PTR ti$[rbp-80], 192		; 000000c0H
	mov	BYTE PTR ti$[rbp-82], cl
	cmp	BYTE PTR [rax+r9], 58			; 0000003aH
	je	SHORT $LN47@ParseParam

; 699  :             if ( IsPROC == FALSE ) {

	test	bl, bl
	je	$LN123@ParseParam

; 701  :             }
; 702  :             switch ( ti.Ofssize ) {

	test	cl, cl
	mov	r9d, 1
	cmovne	r9d, edx
	mov	DWORD PTR ti$[rbp-88], r9d

; 703  :             case USE16:
; 704  :                 ti.mem_type = MT_WORD; break;
; 705  : #if AMD64_SUPPORT
; 706  :                 /* v2.08: default size for arguments is DWORD in 64-bit ( Win64 ) */
; 707  :                 //case USE64: ti.mem_type = MT_QWORD; break;
; 708  : #endif
; 709  :             default:
; 710  :                 ti.mem_type = MT_DWORD; break;
; 711  :             }
; 712  :         } else {

	jmp	$LN57@ParseParam
$LN47@ParseParam:

; 713  :             i++;

	inc	r10d

; 714  :             if (( tokenarray[i].token == T_RES_ID ) && ( tokenarray[i].tokval == T_VARARG )) {

	movsxd	rcx, r10d
	shl	rcx, 5
	mov	DWORD PTR i$[rbp-104], r10d
	cmp	BYTE PTR [rcx+r9], 7
	jne	SHORT $LN52@ParseParam
	cmp	DWORD PTR [rcx+r9+16], 262		; 00000106H
	jne	SHORT $LN52@ParseParam

; 715  :                 switch( proc->sym.langtype ) {

	mov	eax, DWORD PTR [r14+76]
	test	eax, eax
	je	$LN54@ParseParam
	add	eax, -3					; fffffffdH
	cmp	eax, 3
	jbe	$LN54@ParseParam

; 722  :                 }
; 723  :                 /* v2.05: added check */
; 724  :                 if ( tokenarray[i+1].token != T_FINAL )

	cmp	BYTE PTR [rcx+r9+32], r15b
	je	SHORT $LN55@ParseParam

; 725  :                     EmitError( VARARG_PARAMETER_MUST_BE_LAST );

	mov	ecx, 147				; 00000093H
	call	EmitError
	mov	r10d, DWORD PTR i$[rbp-104]
	jmp	SHORT $LN56@ParseParam
$LN55@ParseParam:

; 726  :                 else
; 727  :                     is_vararg = TRUE;

	mov	sil, 1
$LN56@ParseParam:

; 728  :                 ti.mem_type = MT_EMPTY;

	mov	r9d, 192				; 000000c0H

; 729  :                 ti.size = 0;

	mov	DWORD PTR ti$[rbp-104], r15d

; 730  :                 i++;

	inc	r10d
	mov	DWORD PTR ti$[rbp-88], r9d
	mov	DWORD PTR i$[rbp-104], r10d

; 731  :             } else {

	jmp	SHORT $LN57@ParseParam
$LN52@ParseParam:

; 732  :                 if ( GetQualifiedType( &i, tokenarray, &ti ) == ERROR )

	lea	r8, QWORD PTR ti$[rbp-104]
	mov	rdx, r9
	lea	rcx, QWORD PTR i$[rbp-104]
	call	GetQualifiedType
	cmp	eax, -1
	je	$LN124@ParseParam
	mov	r10d, DWORD PTR i$[rbp-104]
	mov	r9d, DWORD PTR ti$[rbp-88]
$LN57@ParseParam:

; 734  :             }
; 735  :         }
; 736  : 
; 737  :         /* check if parameter name is defined already */
; 738  :         if (( IsPROC ) && ( sym = SymSearch( name ) ) && sym->state != SYM_UNDEFINED ) {

	test	bl, bl
	je	SHORT $LN58@ParseParam
	mov	rcx, r12
	call	SymFind
	test	rax, rax
	je	SHORT $LN160@ParseParam
	cmp	DWORD PTR [rax+32], r15d
	jne	$LN125@ParseParam
$LN160@ParseParam:
	mov	r10d, DWORD PTR i$[rbp-104]
	mov	r9d, DWORD PTR ti$[rbp-88]
$LN58@ParseParam:

; 741  :         }
; 742  : 
; 743  :         /* redefinition? */
; 744  :         if ( paracurr ) {

	test	rdi, rdi
	je	$LN59@ParseParam

; 745  : #if 0 /* was active till v2.04 */
; 746  :             int newsize = ti.size;
; 747  :             int oldsize;
; 748  : 
; 749  :             /* check size only (so UINT <-> DWORD wont cause an error) */
; 750  :             if ( paracurr->sym.type )
; 751  :                 oldsize = paracurr->sym.total_size;
; 752  :             else if ( paracurr->sym.mem_type == MT_EMPTY )
; 753  :                 oldsize = 0;
; 754  :             else if ( paracurr->sym.mem_type == MT_PTR )
; 755  :                 oldsize = SizeFromMemtype( paracurr->sym.isfar ? MT_FAR : MT_NEAR, paracurr->sym.Ofssize, NULL );
; 756  :             else
; 757  :                 oldsize = SizeFromMemtype( paracurr->sym.mem_type, paracurr->sym.Ofssize, paracurr->sym.type );
; 758  :             if ( oldsize != newsize ) {
; 759  :                 DebugMsg(("ParseParams: old memtype=%u, new memtype=%u\n", paracurr->sym.mem_type, ti.mem_type));
; 760  :                 EmitErr( CONFLICTING_PARAMETER_DEFINITION, name );
; 761  :                 //return( ERROR );
; 762  :             }
; 763  :             /* the parameter type used in PROC has highest priority! */
; 764  :             if ( IsPROC ) {
; 765  :                 if ( ti.symtype ) {
; 766  :                     paracurr->sym.type = ti.symtype;
; 767  :                     paracurr->sym.mem_type = MT_TYPE;
; 768  :                 } else
; 769  :                     paracurr->sym.mem_type = ti.mem_type;
; 770  :             }
; 771  : #else
; 772  :             struct asym *to;
; 773  :             struct asym *tn;
; 774  :             char oo;
; 775  :             char on;
; 776  :             for( tn = ti.symtype; tn && tn->type; tn = tn->type );

	mov	r8, QWORD PTR ti$[rbp-96]
	test	r8, r8
	je	SHORT $LN163@ParseParam
$LL14@ParseParam:
	mov	rax, QWORD PTR [r8+80]
	test	rax, rax
	je	SHORT $LN163@ParseParam
	mov	r8, rax
	jmp	SHORT $LL14@ParseParam
$LN163@ParseParam:

; 777  :             /* v2.12: don't assume pointer type if mem_type is != MT_TYPE!
; 778  :              * regression test proc9.asm.
; 779  :              */
; 780  :             //to = ( paracurr->sym.mem_type == MT_TYPE ) ? paracurr->sym.type : paracurr->sym.target_type;
; 781  :             if ( paracurr->sym.mem_type == MT_TYPE )

	mov	esi, DWORD PTR [rdi+36]
	cmp	esi, 196				; 000000c4H
	jne	SHORT $LN61@ParseParam

; 782  :                 to = paracurr->sym.type;

	mov	rdx, QWORD PTR [rdi+80]
	jmp	SHORT $LN104@ParseParam
$LN61@ParseParam:

; 783  :             else
; 784  :                 to = ( paracurr->sym.mem_type == MT_PTR ? paracurr->sym.target_type : NULL );

	cmp	esi, 195				; 000000c3H
	jne	SHORT $LN103@ParseParam
	mov	rdx, QWORD PTR [rdi+48]
$LN104@ParseParam:

; 785  :             for( ; to && to->type; to = to->type );

	test	rdx, rdx
	je	SHORT $LN16@ParseParam
$LL17@ParseParam:
	mov	rax, QWORD PTR [rdx+80]
	test	rax, rax
	je	SHORT $LN16@ParseParam
	mov	rdx, rax
	jmp	SHORT $LL17@ParseParam
$LN103@ParseParam:

; 783  :             else
; 784  :                 to = ( paracurr->sym.mem_type == MT_PTR ? paracurr->sym.target_type : NULL );

	mov	rdx, r15
$LN16@ParseParam:

; 786  :             oo = ( paracurr->sym.Ofssize != USE_EMPTY ) ? paracurr->sym.Ofssize : ModuleInfo.Ofssize;

	movzx	ecx, BYTE PTR ModuleInfo+404
	movzx	eax, BYTE PTR [rdi+44]
	mov	r11d, ecx
	cmp	al, 254					; 000000feH

; 787  :             on = ( ti.Ofssize != USE_EMPTY ) ? ti.Ofssize : ModuleInfo.Ofssize;

	mov	ebx, ecx
	movzx	ecx, BYTE PTR ti$[rbp-82]
	cmovne	r11d, eax
	cmp	cl, 254					; 000000feH
	cmovne	ebx, ecx

; 788  :             if ( ti.mem_type != paracurr->sym.mem_type ||
; 789  :                 ( ti.mem_type == MT_TYPE && tn != to ) ||

	cmp	r9d, esi
	jne	SHORT $LN66@ParseParam
	cmp	r9d, 196				; 000000c4H
	jne	SHORT $LN65@ParseParam
	cmp	r8, rdx
	jne	SHORT $LN66@ParseParam
	jmp	SHORT $LN63@ParseParam
$LN65@ParseParam:
	cmp	r9d, 195				; 000000c3H
	jne	SHORT $LN63@ParseParam
	movzx	eax, BYTE PTR [rdi+47]
	shr	al, 4
	and	al, 1
	cmp	BYTE PTR ti$[rbp-83], al
	jne	SHORT $LN66@ParseParam
	cmp	bl, r11b
	jne	SHORT $LN66@ParseParam
	movzx	eax, BYTE PTR [rdi+46]
	cmp	DWORD PTR ti$[rbp-80], eax
	jne	SHORT $LN66@ParseParam
	cmp	r8, rdx
	je	SHORT $LN63@ParseParam
$LN66@ParseParam:

; 790  :                 ( ti.mem_type == MT_PTR &&
; 791  :                  ( ti.is_far != paracurr->sym.isfar ||
; 792  :                   on != oo ||
; 793  :                   ti.ptr_memtype != paracurr->sym.ptr_memtype ||
; 794  :                   tn != to ))) {
; 795  :                 DebugMsg(("ParseParams: old-new memtype=%X-%X type=%X(%s)-%X(%s) far=%u-%u ind=%u-%u ofss=%d-%d pmt=%X-%X\n",
; 796  :                           paracurr->sym.mem_type, ti.mem_type, 
; 797  :                           (paracurr->sym.mem_type == MT_TYPE) ? paracurr->sym.type : paracurr->sym.target_type,
; 798  :                           (paracurr->sym.mem_type == MT_TYPE) ? paracurr->sym.type->name : paracurr->sym.target_type ? paracurr->sym.target_type->name : "",
; 799  :                           ti.symtype, ti.symtype ? ti.symtype->name : "",
; 800  :                           paracurr->sym.isfar, ti.is_far,
; 801  :                           paracurr->sym.is_ptr, ti.is_ptr,
; 802  :                           paracurr->sym.Ofssize, ti.Ofssize,
; 803  :                           paracurr->sym.ptr_memtype, ti.ptr_memtype ));
; 804  :                 EmitErr( CONFLICTING_PARAMETER_DEFINITION, name );

	mov	rdx, r12
	mov	ecx, 137				; 00000089H
	call	EmitErr
	mov	r10d, DWORD PTR i$[rbp-104]
$LN63@ParseParam:

; 805  :                 //return( ERROR );
; 806  :             }
; 807  : #endif
; 808  :             if ( IsPROC ) {

	movzx	ebx, BYTE PTR IsPROC$[rbp-104]
	test	bl, bl
	je	SHORT $LN67@ParseParam

; 809  :                 DebugMsg1(("ParseParams: calling SymAddLocal(%s, %s)\n", paracurr->sym.name, name ));
; 810  :                 /* it has been checked already that the name isn't found - SymAddLocal() shouldn't fail */
; 811  :                 SymAddLocal( &paracurr->sym, name );

	mov	rdx, r12
	mov	rcx, rdi
	call	SymAddLocal
	mov	r10d, DWORD PTR i$[rbp-104]
$LN67@ParseParam:

; 812  :             }
; 813  :             /* set paracurr to next parameter */
; 814  :             if ( proc->sym.langtype == LANG_C ||
; 815  :                 proc->sym.langtype == LANG_SYSCALL ||
; 816  : #if AMD64_SUPPORT
; 817  :                 ( proc->sym.langtype == LANG_FASTCALL && ti.Ofssize != USE64 ) ||

	mov	ecx, DWORD PTR [r14+76]
	lea	eax, DWORD PTR [rcx-1]
	cmp	eax, 1
	jbe	SHORT $LN70@ParseParam
	cmp	ecx, 7
	jne	SHORT $LN71@ParseParam
	cmp	BYTE PTR ti$[rbp-82], 2
	jne	SHORT $LN70@ParseParam
$LN71@ParseParam:
	cmp	ecx, 3
	je	SHORT $LN70@ParseParam

; 827  :             } else
; 828  :                 paracurr = paracurr->nextparam;

	mov	rdi, QWORD PTR [rdi+112]
	jmp	$LN21@ParseParam
$LN70@ParseParam:

; 818  : #else
; 819  :                 proc->sym.langtype == LANG_FASTCALL ||
; 820  : #endif
; 821  :                 proc->sym.langtype == LANG_STDCALL) {
; 822  :                 struct dsym *l;
; 823  :                 for (l = proc->e.procinfo->paralist;

	mov	rax, QWORD PTR [r14+96]
	mov	rcx, QWORD PTR [rax+8]

; 824  :                      l && ( l->nextparam != paracurr );

	test	rcx, rcx
	je	SHORT $LN164@ParseParam
	npad	3
$LL20@ParseParam:
	mov	rax, QWORD PTR [rcx+112]
	cmp	rax, rdi
	je	SHORT $LN164@ParseParam

; 825  :                      l = l->nextparam );

	mov	rcx, rax
	test	rax, rax
	jne	SHORT $LL20@ParseParam
$LN164@ParseParam:

; 826  :                 paracurr = l;

	mov	rdi, rcx

; 829  : 
; 830  :         //} else if ( proc->e.procinfo->init_done == TRUE ) {
; 831  :         } else if ( init_done == TRUE ) {

	jmp	$LN21@ParseParam
$LN59@ParseParam:
	cmp	BYTE PTR init_done$1$[rbp-104], 1
	je	$LN126@ParseParam

; 835  :         } else {
; 836  :             if ( IsPROC ) {

	test	bl, bl
	je	SHORT $LN74@ParseParam

; 837  :                 paranode = (struct dsym *)SymLCreate( name );

	mov	rcx, r12
	call	SymLCreate

; 838  :             } else

	jmp	SHORT $LN165@ParseParam
$LN74@ParseParam:

; 839  :                 paranode = (struct dsym *)SymAlloc( "" );/* for PROTO, no param name needed */

	lea	rcx, OFFSET FLAT:$SG11618
	call	SymAlloc
$LN165@ParseParam:
	mov	rbx, rax

; 840  : 
; 841  :             if( paranode == NULL ) { /* error msg has been displayed already */

	test	rax, rax
	je	$LN124@ParseParam

; 842  :                 DebugMsg(("ParseParams: SymLCreate(%s) failed\n", name ));
; 843  :                 return( ERROR );
; 844  :             }
; 845  :             paranode->sym.isdefined = TRUE;

	or	BYTE PTR [rax+40], 2

; 846  :             paranode->sym.mem_type = ti.mem_type;

	mov	eax, DWORD PTR ti$[rbp-88]
	mov	DWORD PTR [rbx+36], eax

; 847  :             if ( ti.mem_type == MT_TYPE ) {

	cmp	DWORD PTR ti$[rbp-88], 196		; 000000c4H

; 848  :                 paranode->sym.type = ti.symtype;

	mov	rax, QWORD PTR ti$[rbp-96]
	jne	SHORT $LN77@ParseParam
	mov	QWORD PTR [rbx+80], rax

; 849  :             } else {

	jmp	SHORT $LN78@ParseParam
$LN77@ParseParam:

; 850  :                 paranode->sym.target_type = ti.symtype;

	mov	QWORD PTR [rbx+48], rax
$LN78@ParseParam:

; 851  :             }
; 852  : 
; 853  :             /* v2.05: moved BEFORE fastcall_tab() */
; 854  :             paranode->sym.isfar   = ti.is_far;

	movzx	eax, BYTE PTR ti$[rbp-83]
	shl	al, 4
	xor	al, BYTE PTR [rbx+47]
	and	al, 16

; 855  :             paranode->sym.Ofssize = ti.Ofssize;
; 856  :             paranode->sym.is_ptr  = ti.is_ptr;
; 857  :             paranode->sym.ptr_memtype = ti.ptr_memtype;
; 858  :             paranode->sym.is_vararg = is_vararg;

	shl	sil, 5
	xor	BYTE PTR [rbx+47], al
	movzx	eax, BYTE PTR ti$[rbp-82]
	xor	sil, BYTE PTR [rbx+47]
	mov	BYTE PTR [rbx+44], al
	and	sil, 32					; 00000020H
	movzx	eax, BYTE PTR ti$[rbp-84]
	mov	BYTE PTR [rbx+45], al
	movzx	eax, BYTE PTR ti$[rbp-80]
	xor	BYTE PTR [rbx+47], sil
	mov	BYTE PTR [rbx+46], al

; 859  :             if ( proc->sym.langtype == LANG_FASTCALL &&

	cmp	DWORD PTR [r14+76], 7
	jne	SHORT $LN79@ParseParam
	movsxd	rax, DWORD PTR ModuleInfo+376
	lea	r8, QWORD PTR fcint$[rbp-104]
	add	rax, rax
	lea	r9, OFFSET FLAT:fastcall_tab
	mov	rdx, rbx
	mov	rcx, r14
	call	QWORD PTR [r9+rax*8]
	test	eax, eax
	jne	SHORT $LN80@ParseParam
$LN79@ParseParam:

; 860  :                 fastcall_tab[ModuleInfo.fctype].paramcheck( proc, paranode, &fcint ) ) {
; 861  :             } else {
; 862  :                 paranode->sym.state = SYM_STACK;

	mov	DWORD PTR [rbx+32], 5
$LN80@ParseParam:

; 863  :             }
; 864  : 
; 865  :             paranode->sym.total_length = 1; /* v2.04: added */
; 866  :             paranode->sym.total_size = ti.size;
; 867  : 
; 868  :             if( paranode->sym.is_vararg == FALSE )

	test	BYTE PTR [rbx+47], 32			; 00000020H
	mov	DWORD PTR [rbx+64], 1
	mov	eax, DWORD PTR ti$[rbp-104]
	mov	DWORD PTR [rbx+56], eax
	jne	SHORT $LN81@ParseParam

; 869  :                 /* v2.11: CurrWordSize does reflect the default parameter size only for PROCs.
; 870  :                  * For PROTOs and TYPEs use member seg_ofssize.
; 871  :                  */
; 872  :                 //proc->e.procinfo->parasize += ROUND_UP( ti.size, CurrWordSize );
; 873  :                 proc->e.procinfo->parasize += ROUND_UP( ti.size, IsPROC ? CurrWordSize : ( 2 << proc->sym.seg_ofssize ) );

	cmp	BYTE PTR IsPROC$[rbp-104], r15b
	je	SHORT $LN109@ParseParam
	movzx	r8d, BYTE PTR ModuleInfo+406
	jmp	SHORT $LN166@ParseParam
$LN109@ParseParam:
	movzx	ecx, BYTE PTR [r14+47]
	mov	r8d, 2
	and	ecx, 3
	shl	r8d, cl
$LN166@ParseParam:
	mov	ecx, DWORD PTR ti$[rbp-104]
	lea	eax, DWORD PTR [r8-1]
	mov	rdx, QWORD PTR [r14+96]
	dec	ecx
	add	ecx, r8d
	not	eax
	and	ecx, eax
	mov	r9d, r8d
	add	DWORD PTR [rdx+32], ecx
$LN81@ParseParam:

; 874  : 
; 875  :             /* v2.05: the PROC's vararg flag has been set already */
; 876  :             //proc->e.procinfo->is_vararg |= paranode->sym.is_vararg;
; 877  : 
; 878  :             /* Parameters usually are stored in "push" order.
; 879  :              * However, for Win64, it's better to store them
; 880  :              * the "natural" way from left to right, since the
; 881  :              * arguments aren't "pushed".
; 882  :              */
; 883  : 
; 884  :             switch( proc->sym.langtype ) {

	mov	eax, DWORD PTR [r14+76]
	cmp	eax, 4
	jl	SHORT $LN88@ParseParam
	cmp	eax, 6
	jle	SHORT $left_to_right$172
	cmp	eax, 7
	jne	SHORT $LN88@ParseParam

; 902  :             case LANG_FASTCALL:
; 903  : #if AMD64_SUPPORT
; 904  :                 if ( ti.Ofssize == USE64 )

	movzx	eax, BYTE PTR ti$[rbp-82]
	cmp	al, 2
	je	SHORT $left_to_right$172

; 905  :                     goto left_to_right;
; 906  : #endif
; 907  :                 /* v2.07: MS fastcall 16-bit is PASCAL! */
; 908  :                 if ( ti.Ofssize == USE16 && ModuleInfo.fctype == FCT_MSC )

	test	al, al
	jne	SHORT $LN88@ParseParam
	cmp	DWORD PTR ModuleInfo+376, r15d
	jne	SHORT $LN88@ParseParam
$left_to_right$172:

; 885  :             case LANG_BASIC:
; 886  :             case LANG_FORTRAN:
; 887  :             case LANG_PASCAL:
; 888  :             left_to_right:
; 889  :                 paranode->nextparam = NULL;

	mov	QWORD PTR [rbx+112], r15

; 890  :                 if( proc->e.procinfo->paralist == NULL ) {

	mov	rax, QWORD PTR [r14+96]
	mov	rcx, QWORD PTR [rax+8]
	test	rcx, rcx
	je	SHORT $LN167@ParseParam

; 894  :                         if( paracurr->nextparam == NULL ) {

	mov	rax, QWORD PTR [rcx+112]
	test	rax, rax
	je	SHORT $LN122@ParseParam
	npad	1
$LL25@ParseParam:

; 891  :                     proc->e.procinfo->paralist = paranode;
; 892  :                 } else {
; 893  :                     for( paracurr = proc->e.procinfo->paralist;; paracurr = paracurr->nextparam ) {

	mov	rcx, rax

; 894  :                         if( paracurr->nextparam == NULL ) {

	mov	rax, QWORD PTR [rax+112]
	test	rax, rax
	jne	SHORT $LL25@ParseParam
$LN122@ParseParam:

; 895  :                             break;
; 896  :                         }
; 897  :                     }
; 898  :                     paracurr->nextparam = paranode;

	mov	QWORD PTR [rcx+112], rbx

; 899  :                     paracurr = NULL;

	mov	rdi, r15

; 900  :                 }
; 901  :                 break;

	jmp	SHORT $LN168@ParseParam
$LN88@ParseParam:

; 909  :                     goto left_to_right;
; 910  :             default:
; 911  :                 paranode->nextparam = proc->e.procinfo->paralist;

	mov	rax, QWORD PTR [r14+96]
	mov	rcx, QWORD PTR [rax+8]
	mov	QWORD PTR [rbx+112], rcx

; 912  :                 proc->e.procinfo->paralist = paranode;

	mov	rax, QWORD PTR [r14+96]
$LN167@ParseParam:
	mov	QWORD PTR [rax+8], rbx
$LN168@ParseParam:
	mov	r10d, DWORD PTR i$[rbp-104]
	movzx	ebx, BYTE PTR IsPROC$[rbp-104]
$LN21@ParseParam:

; 913  :                 break;
; 914  :             }
; 915  :         }
; 916  :         if ( tokenarray[i].token != T_FINAL ) {

	mov	r9, QWORD PTR tokenarray$[rbp-104]
	movsxd	rax, r10d
	shl	rax, 5
	movzx	ecx, BYTE PTR [rax+r9]
	test	cl, cl
	je	SHORT $LN5@ParseParam

; 917  :             if( tokenarray[i].token != T_COMMA ) {

	cmp	cl, 44					; 0000002cH
	jne	SHORT $LN128@ParseParam

; 920  :             }
; 921  :             i++;    /* go past comma */

	inc	r10d
	mov	DWORD PTR i$[rbp-104], r10d
$LN5@ParseParam:

; 663  : 
; 664  :     for( cntParam = 0 ; tokenarray[i].token != T_FINAL ; cntParam++ ) {

	inc	r13d
	movsxd	rax, r10d
	shl	rax, 5
	lea	rcx, QWORD PTR [rax+r9]
	jmp	$LN170@ParseParam
$LN123@ParseParam:

; 700  :                 return( EmitError( COLON_EXPECTED ) );

	mov	ecx, 84					; 00000054H
	call	EmitError
	jmp	$LN1@ParseParam
$LN54@ParseParam:

; 716  :                 case LANG_NONE:
; 717  :                 case LANG_BASIC:
; 718  :                 case LANG_FORTRAN:
; 719  :                 case LANG_PASCAL:
; 720  :                 case LANG_STDCALL:
; 721  :                     return( EmitError( VARARG_REQUIRES_C_CALLING_CONVENTION ) );

	mov	ecx, 94					; 0000005eH
	call	EmitError
	jmp	$LN1@ParseParam
$LN125@ParseParam:

; 739  :             DebugMsg(("ParseParams: %s defined already, state=%u, local=%u\n", sym->name, sym->state, sym->scoped ));
; 740  :             return( EmitErr( SYMBOL_REDEFINITION, name ) );

	mov	rdx, r12
	mov	ecx, 143				; 0000008fH
	call	EmitErr
	jmp	$LN1@ParseParam
$LN128@ParseParam:

; 918  :                 DebugMsg(("ParseParams: error, cntParam=%u, found %s\n", cntParam, tokenarray[i].tokpos ));
; 919  :                 return( EmitErr( EXPECTING_COMMA, tokenarray[i].tokpos ) );

	movsxd	rdx, r10d
	mov	ecx, 39					; 00000027H
	shl	rdx, 5
	mov	rdx, QWORD PTR [rdx+r9+24]
	call	EmitErr
	jmp	$LN1@ParseParam
$LN126@ParseParam:

; 832  :             /* second definition has more parameters than first */
; 833  :             DebugMsg(("ParseParams: different param count\n"));
; 834  :             return( EmitErr( CONFLICTING_PARAMETER_DEFINITION, "" ) );

	lea	rdx, OFFSET FLAT:$SG11615
	mov	ecx, 137				; 00000089H
	call	EmitErr
	jmp	$LN1@ParseParam
$LN124@ParseParam:

; 733  :                     return( ERROR );

	or	eax, -1
	jmp	$LN1@ParseParam
$LN41@ParseParam:

; 673  :         } else {
; 674  :             /* PROC needs a parameter name, PROTO accepts <void> also */
; 675  :             DebugMsg(("ParseParams: name missing/invalid for parameter %u, i=%u\n", cntParam+1, i));
; 676  :             return( EmitErr( SYNTAX_ERROR_EX, tokenarray[i].string_ptr ) );

	movsxd	rdx, r10d
	mov	ecx, 209				; 000000d1H
	shl	rdx, 5
	mov	rdx, QWORD PTR [rdx+r9+8]
	call	EmitErr
	jmp	$LN1@ParseParam
$LN161@ParseParam:

; 922  :         }
; 923  :     } /* end for */
; 924  : 
; 925  :     //if ( proc->e.procinfo->init_done == TRUE ) {
; 926  :     if ( init_done == TRUE ) {

	cmp	BYTE PTR init_done$1$[rbp-104], 1
	jne	SHORT $LN93@ParseParam

; 927  :         if ( paracurr ) {

	test	rdi, rdi
	je	SHORT $LN93@ParseParam

; 928  :             /* first definition has more parameters than second */
; 929  :             DebugMsg(("ParseParams: a param is left over, cntParam=%u\n", cntParam));
; 930  :             return( EmitErr( CONFLICTING_PARAMETER_DEFINITION, "" ) );

	lea	rdx, OFFSET FLAT:$SG11637
	mov	ecx, 137				; 00000089H
	call	EmitErr
	jmp	$LN1@ParseParam
$LN93@ParseParam:

; 931  :         }
; 932  :     }
; 933  : 
; 934  :     if ( IsPROC ) {

	test	bl, bl
	je	$LN30@ParseParam

; 935  :         /* calc starting offset for parameters,
; 936  :          * offset from [E|R]BP : return addr + old [E|R]BP
; 937  :          * NEAR: 2 * wordsize, FAR: 3 * wordsize
; 938  :          *         NEAR  FAR
; 939  :          *-------------------------
; 940  :          * USE16   +4    +6
; 941  :          * USE32   +8    +12
; 942  :          * USE64   +16   +24
; 943  :          * without frame pointer:
; 944  :          * USE16   +2    +4
; 945  :          * USE32   +4    +8
; 946  :          * USE64   +8    +16
; 947  :          */
; 948  :         offset = ( ( 2 + ( proc->sym.mem_type == MT_FAR ? 1 : 0 ) ) * CurrWordSize );

	cmp	DWORD PTR [r14+36], 130			; 00000082H
	movzx	eax, BYTE PTR ModuleInfo+406
	sete	r15b
	add	r15d, 2
	imul	r15d, eax

; 949  : 
; 950  :         /* now calculate the [E|R]BP offsets */
; 951  : 
; 952  : #if AMD64_SUPPORT
; 953  :         if ( ModuleInfo.Ofssize == USE64 && proc->sym.langtype == LANG_FASTCALL ) {

	cmp	BYTE PTR ModuleInfo+404, 2
	jne	SHORT $LN95@ParseParam
	cmp	DWORD PTR [r14+76], 7
	jne	SHORT $LN95@ParseParam

; 954  :             for ( paranode = proc->e.procinfo->paralist; paranode ;paranode = paranode->nextparam )

	mov	rax, QWORD PTR [r14+96]
	mov	r8, QWORD PTR [rax+8]
	test	r8, r8
	je	$LN30@ParseParam
	npad	3
$LL28@ParseParam:

; 955  :                 if ( paranode->sym.state == SYM_TMACRO ) /* register param */

	cmp	DWORD PTR [r8+32], 10
	je	SHORT $LN26@ParseParam

; 956  :                     ;
; 957  :                 else {
; 958  :                     paranode->sym.offset = offset;

	mov	DWORD PTR [r8+16], r15d

; 959  :                     proc->e.procinfo->stackparam = TRUE;

	mov	rax, QWORD PTR [r14+96]
	or	BYTE PTR [rax+84], 32			; 00000020H

; 960  :                     offset += ROUND_UP( paranode->sym.total_size, CurrWordSize );

	movzx	ecx, BYTE PTR ModuleInfo+406
	lea	edx, DWORD PTR [rcx-1]
	add	edx, DWORD PTR [r8+56]
	lea	eax, DWORD PTR [rcx-1]
	not	eax
	and	edx, eax
	add	r15d, edx

; 961  :                     //set isparam var for W64F_HABRAN
; 962  :                     if (ModuleInfo.win64_flags & W64F_HABRAN) paranode->sym.isparam = TRUE;

	test	BYTE PTR ModuleInfo+413, 11
	je	SHORT $LN26@ParseParam
	or	BYTE PTR [r8+41], 128			; 00000080H
$LN26@ParseParam:

; 954  :             for ( paranode = proc->e.procinfo->paralist; paranode ;paranode = paranode->nextparam )

	mov	r8, QWORD PTR [r8+112]
	test	r8, r8
	jne	SHORT $LL28@ParseParam

; 963  :                 }
; 964  :         } else

	jmp	SHORT $LN30@ParseParam
$LN95@ParseParam:

; 965  : #endif
; 966  :         for ( ; cntParam; cntParam-- ) {

	test	r13d, r13d
	je	SHORT $LN30@ParseParam
	npad	7
$LL31@ParseParam:

; 967  :             for ( curr = 1, paranode = proc->e.procinfo->paralist; curr < cntParam;paranode = paranode->nextparam, curr++ );

	mov	rax, QWORD PTR [r14+96]
	mov	rax, QWORD PTR [rax+8]
	cmp	r13d, 1
	jle	SHORT $LN33@ParseParam
	lea	edx, DWORD PTR [r13-1]
$LL34@ParseParam:
	mov	rax, QWORD PTR [rax+112]
	sub	rdx, 1
	jne	SHORT $LL34@ParseParam
$LN33@ParseParam:

; 968  :             DebugMsg1(("ParseParams: parm=%s, ofs=%u, size=%d\n", paranode->sym.name, offset, paranode->sym.total_size));
; 969  :             if ( paranode->sym.state == SYM_TMACRO ) /* register param? */

	cmp	DWORD PTR [rax+32], 10
	je	SHORT $LN29@ParseParam

; 970  :                 ;
; 971  :             else {
; 972  :                 paranode->sym.offset = offset;

	mov	DWORD PTR [rax+16], r15d

; 973  :                 proc->e.procinfo->stackparam = TRUE;

	mov	rcx, QWORD PTR [r14+96]
	or	BYTE PTR [rcx+84], 32			; 00000020H

; 974  :                 offset += ROUND_UP( paranode->sym.total_size, CurrWordSize );

	movzx	edx, BYTE PTR ModuleInfo+406
	lea	r8d, DWORD PTR [rdx-1]
	add	r8d, DWORD PTR [rax+56]
	lea	eax, DWORD PTR [rdx-1]
	not	eax
	and	r8d, eax
	add	r15d, r8d
$LN29@ParseParam:

; 965  : #endif
; 966  :         for ( ; cntParam; cntParam-- ) {

	sub	r13d, 1
	jne	SHORT $LL31@ParseParam
$LN30@ParseParam:

; 975  :             }
; 976  :         }
; 977  :     }
; 978  :     return ( NOT_ERROR );

	xor	eax, eax
$LN1@ParseParam:
	mov	r12, QWORD PTR [rsp+88]
	mov	rsi, QWORD PTR [rsp+96]

; 979  : }

	add	rsp, 104				; 00000068H
	pop	r15
	pop	r14
	pop	r13
	pop	rdi
	pop	rbx
	pop	rbp
	ret	0
ParseParams ENDP
_TEXT	ENDS
; Function compile flags: /Ogtpy
; File d:\hjwasm\hjwasm2.13.1s\hjwasm2.13.1s\proc.c
_TEXT	SEGMENT
sym$ = 8
opnd$ = 16
UpdateProcStatus PROC

; 621  :     sym->value = ( CurrProc ? ProcStatus : 0 );

	xor	eax, eax
	cmp	QWORD PTR CurrProc, rax
	cmovne	eax, DWORD PTR ProcStatus
	mov	DWORD PTR [rcx+16], eax

; 622  : }

	ret	0
UpdateProcStatus ENDP
_TEXT	ENDS
; Function compile flags: /Ogtpy
; File d:\hjwasm\hjwasm2.13.1s\hjwasm2.13.1s\proc.c
_TEXT	SEGMENT
sym$ = 8
opnd$ = 16
UpdateStackBase PROC

; 608  :     if ( opnd ) {

	test	rdx, rdx
	je	SHORT $LN4@UpdateStac

; 609  :         StackAdj = opnd->uvalue;

	mov	r8d, DWORD PTR [rdx]
	mov	DWORD PTR StackAdj, r8d

; 610  :         StackAdjHigh = opnd->hvalue;

	mov	eax, DWORD PTR [rdx+4]
	mov	DWORD PTR StackAdjHigh, eax

; 611  :     }
; 612  :     sym->value = StackAdj;

	mov	DWORD PTR [rcx+16], r8d

; 613  :     sym->value3264 = StackAdjHigh;

	mov	eax, DWORD PTR StackAdjHigh
	mov	DWORD PTR [rcx+56], eax

; 614  : }

	ret	0
$LN4@UpdateStac:

; 611  :     }
; 612  :     sym->value = StackAdj;

	mov	eax, DWORD PTR StackAdj
	mov	DWORD PTR [rcx+16], eax

; 613  :     sym->value3264 = StackAdjHigh;

	mov	eax, DWORD PTR StackAdjHigh
	mov	DWORD PTR [rcx+56], eax

; 614  : }

	ret	0
UpdateStackBase ENDP
_TEXT	ENDS
; Function compile flags: /Ogtpy
; File d:\hjwasm\hjwasm2.13.1s\hjwasm2.13.1s\proc.c
_TEXT	SEGMENT
ti$ = 48
opndx$1 = 80
i$ = 224
tokenarray$ = 232
LocalDir PROC

; 441  : {

$LN66:
	mov	DWORD PTR [rsp+8], ecx
	push	rbp
	push	rdi
	lea	rbp, QWORD PTR [rsp-79]
	sub	rsp, 200				; 000000c8H

; 442  :     char        *name;
; 443  :     struct dsym *local;
; 444  :     struct dsym *curr;
; 445  :     struct proc_info *info;
; 446  :     //int         size;
; 447  :     //int         idx;
; 448  :     struct qualified_type ti;
; 449  : 
; 450  :     if ( Parse_Pass != PASS_1 ) /* everything is done in pass 1 */

	cmp	DWORD PTR Parse_Pass, 0
	mov	rdi, rdx
	mov	r8d, ecx
	je	SHORT $LN13@LocalDir

; 451  :         return( NOT_ERROR );

	xor	eax, eax

; 599  : }

	add	rsp, 200				; 000000c8H
	pop	rdi
	pop	rbp
	ret	0
$LN13@LocalDir:

; 452  : 
; 453  :     DebugMsg1(("LocalDir(%u) entry\n", i));
; 454  : 
; 455  :     if( !( ProcStatus & PRST_PROLOGUE_NOT_DONE ) || CurrProc == NULL ) {

	test	BYTE PTR ProcStatus, -128		; ffffffffffffff80H
	je	$LN15@LocalDir
	mov	rax, QWORD PTR CurrProc
	test	rax, rax
	je	$LN15@LocalDir

; 457  :     }
; 458  : 
; 459  :     info = CurrProc->e.procinfo;

	mov	QWORD PTR [rsp+240], rsi
	mov	rsi, QWORD PTR [rax+96]
	mov	QWORD PTR [rsp+192], r14

; 460  : #if STACKBASESUPP
; 461  :     /* ensure the fpo bit is set - it's too late to set it in write_prologue().
; 462  :      * Note that the fpo bit is set only IF there are locals or arguments.
; 463  :      * fixme: what if pass > 1?
; 464  :      */
; 465  :     if ( GetRegNo( info->basereg ) == 4 ) {

	movzx	eax, WORD PTR [rsi+86]
	lea	rcx, QWORD PTR [rax+rax*2]
	lea	rax, OFFSET FLAT:SpecialTable+10
	cmp	BYTE PTR [rax+rcx*4], 4
	jne	SHORT $LN16@LocalDir

; 466  :         info->fpo = TRUE;

	or	BYTE PTR [rsi+84], 128			; 00000080H

; 467  :         ProcStatus |= PRST_FPO;

	or	DWORD PTR ProcStatus, 4
	mov	r8d, DWORD PTR i$[rbp-121]
$LN16@LocalDir:

; 468  :     }
; 469  : #endif
; 470  : 
; 471  :     i++; /* go past LOCAL */

	inc	r8d
	mov	QWORD PTR [rsp+232], rbx
	mov	DWORD PTR i$[rbp-121], r8d
	xor	r14d, r14d
$LL4@LocalDir:

; 472  : 
; 473  :     do  {
; 474  :         if( tokenarray[i].token != T_ID ) {

	movsxd	rax, r8d
	shl	rax, 5
	cmp	BYTE PTR [rax+rdi], 8
	jne	$LN46@LocalDir

; 476  :         }
; 477  :         name = tokenarray[i].string_ptr;

	mov	rdx, QWORD PTR [rax+rdi+8]

; 478  : 
; 479  :         DebugMsg1(("LocalDir: item=%s\n", tokenarray[i].tokpos ));
; 480  : 
; 481  :         ti.symtype = NULL;
; 482  :         ti.is_ptr = 0;
; 483  :         ti.ptr_memtype = MT_EMPTY;
; 484  :         if ( SIZE_DATAPTR & ( 1 << ModuleInfo.model ) )

	mov	eax, 1
	mov	ecx, DWORD PTR ModuleInfo+360
	shl	al, cl

; 485  :             ti.is_far = TRUE;
; 486  :         else
; 487  :             ti.is_far = FALSE;
; 488  :         ti.Ofssize = ModuleInfo.Ofssize;
; 489  : 
; 490  : #if 0
; 491  :         /* since v1.95 a local hash table is used. No need to search the
; 492  :          * symbol before SymLCreate() is called. SymLCreate() will display
; 493  :          * an error if the symbol is already defined.
; 494  :          */
; 495  :         if ((local = (struct dsym *)SymSearch( name )) && local->sym.state != SYM_UNDEFINED ) {
; 496  :             return( EmitErr( SYMBOL_ALREADY_DEFINED, name ) );
; 497  :         }
; 498  : #endif
; 499  :         local = (struct dsym *)SymLCreate( name );

	mov	rcx, rdx
	test	al, 104					; 00000068H
	mov	QWORD PTR ti$[rbp-113], r14
	movzx	eax, BYTE PTR ModuleInfo+404
	setne	BYTE PTR ti$[rbp-100]
	mov	BYTE PTR ti$[rbp-99], al
	mov	BYTE PTR ti$[rbp-101], r14b
	mov	DWORD PTR ti$[rbp-97], 192		; 000000c0H
	call	SymLCreate
	mov	rbx, rax

; 500  :         if( !local ) { /* if it failed, an error msg has been written already */

	test	rax, rax
	je	$LN50@LocalDir

; 501  :             DebugMsg(("LocalDir: SymLCreate( %s ) failed\n", name ));
; 502  :             return( ERROR );
; 503  :         }
; 504  :         if (ModuleInfo.win64_flags & W64F_HABRAN) local->sym.isparam = FALSE; //clear isparam var, added  by habran

	test	BYTE PTR ModuleInfo+413, 11
	je	SHORT $LN21@LocalDir
	and	BYTE PTR [rax+41], 127			; 0000007fH
$LN21@LocalDir:

; 505  :         local->sym.state = SYM_STACK;
; 506  :         local->sym.isdefined = TRUE;

	or	BYTE PTR [rax+40], 2
	mov	DWORD PTR [rax+32], 5

; 507  :         local->sym.total_length = 1; /* v2.04: added */

	mov	DWORD PTR [rax+64], 1

; 508  :         switch ( ti.Ofssize ) {

	cmp	BYTE PTR ti$[rbp-99], r14b
	je	SHORT $LN22@LocalDir

; 512  :             break;
; 513  : #if AMD64_SUPPORT
; 514  :             /* v2.08: default type for locals in 64-bit is still DWORD (at least in Win64) */
; 515  :             //case USE64: local->sym.mem_type = MT_QWORD; break;
; 516  :             //ti.size = sizeof( uint_64 );
; 517  : #endif
; 518  :         default: 
; 519  :             local->sym.mem_type = MT_DWORD;

	mov	DWORD PTR [rax+36], 3

; 520  :             ti.size = sizeof( uint_32 );

	mov	DWORD PTR ti$[rbp-121], 4
	jmp	SHORT $LN5@LocalDir
$LN22@LocalDir:

; 509  :         case USE16:
; 510  :             local->sym.mem_type = MT_WORD;

	mov	DWORD PTR [rax+36], 1

; 511  :             ti.size = sizeof( uint_16 );

	mov	DWORD PTR ti$[rbp-121], 2
$LN5@LocalDir:

; 521  :             break;
; 522  :         }
; 523  : 
; 524  :         i++; /* go past name */

	mov	eax, DWORD PTR i$[rbp-121]
	inc	eax

; 525  : 
; 526  :         /* get the optional index factor: local name[xx]:... */
; 527  :         if( tokenarray[i].token == T_OP_SQ_BRACKET ) {

	movsxd	rcx, eax
	shl	rcx, 5
	mov	DWORD PTR i$[rbp-121], eax
	cmp	BYTE PTR [rcx+rdi], 91			; 0000005bH
	jne	$LN30@LocalDir

; 528  :             int j;
; 529  :             struct expr opndx;
; 530  :             i++; /* go past '[' */
; 531  :             /* scan for comma or colon. this isn't really necessary,
; 532  :              * but will prevent the expression evaluator from emitting
; 533  :              * confusing error messages.
; 534  :              */
; 535  :             for ( j = i; j < Token_Count; j++ )

	mov	r8d, DWORD PTR ModuleInfo+496
	inc	eax
	mov	DWORD PTR i$[rbp-121], eax
	cmp	eax, r8d
	jge	SHORT $LN60@LocalDir
	movsxd	rcx, eax
	shl	rcx, 5
	add	rcx, rdi
$LL9@LocalDir:

; 536  :                 if ( tokenarray[j].token == T_COMMA ||

	movzx	edx, BYTE PTR [rcx]
	cmp	dl, 44					; 0000002cH
	je	SHORT $LN60@LocalDir
	cmp	dl, 58					; 0000003aH
	je	SHORT $LN60@LocalDir

; 528  :             int j;
; 529  :             struct expr opndx;
; 530  :             i++; /* go past '[' */
; 531  :             /* scan for comma or colon. this isn't really necessary,
; 532  :              * but will prevent the expression evaluator from emitting
; 533  :              * confusing error messages.
; 534  :              */
; 535  :             for ( j = i; j < Token_Count; j++ )

	inc	eax
	add	rcx, 32					; 00000020H
	cmp	eax, r8d
	jl	SHORT $LL9@LocalDir
$LN60@LocalDir:

; 537  :                     tokenarray[j].token == T_COLON)
; 538  :                     break;
; 539  :             if ( ERROR == EvalOperand( &i, tokenarray, j, &opndx, 0 ) )

	lea	r9, QWORD PTR opndx$1[rbp-121]
	mov	BYTE PTR [rsp+32], r14b
	mov	r8d, eax
	lea	rcx, QWORD PTR i$[rbp-121]
	mov	rdx, rdi
	call	EvalOperand
	cmp	eax, -1
	je	$LN50@LocalDir

; 540  :                 return( ERROR );
; 541  :             if ( opndx.kind != EXPR_CONST ) {

	cmp	DWORD PTR opndx$1[rbp-61], r14d
	je	SHORT $LN59@LocalDir

; 542  :                 EmitError( CONSTANT_EXPECTED );

	mov	ecx, 65					; 00000041H
	call	EmitError

; 543  :                 opndx.value = 1;

	mov	eax, 1
	mov	DWORD PTR opndx$1[rbp-121], eax
	jmp	SHORT $LN28@LocalDir
$LN59@LocalDir:
	mov	eax, DWORD PTR opndx$1[rbp-121]
$LN28@LocalDir:

; 544  :             }
; 545  :             /* zero is allowed as value! */
; 546  :             local->sym.total_length = opndx.value;
; 547  :             local->sym.isarray = TRUE;

	or	BYTE PTR [rbx+41], 2
	mov	DWORD PTR [rbx+64], eax

; 548  :             if( tokenarray[i].token == T_CL_SQ_BRACKET ) {

	movsxd	rax, DWORD PTR i$[rbp-121]
	mov	rcx, rax
	shl	rcx, 5
	cmp	BYTE PTR [rcx+rdi], 93			; 0000005dH
	jne	SHORT $LN29@LocalDir

; 549  :                 i++; /* go past ']' */

	inc	eax
	mov	DWORD PTR i$[rbp-121], eax

; 550  :             } else {

	jmp	SHORT $LN30@LocalDir
$LN29@LocalDir:

; 551  :                 EmitError( EXPECTED_CL_SQ_BRACKET );

	mov	ecx, 111				; 0000006fH
	call	EmitError
	mov	eax, DWORD PTR i$[rbp-121]
$LN30@LocalDir:

; 552  :             }
; 553  :         }
; 554  : 
; 555  :         /* get the optional type: local name[xx]:type  */
; 556  :         if( tokenarray[i].token == T_COLON ) {

	movsxd	rcx, eax
	shl	rcx, 5
	cmp	BYTE PTR [rcx+rdi], 58			; 0000003aH
	jne	SHORT $LN34@LocalDir

; 557  :             i++;

	inc	eax

; 558  : 
; 559  :             if ( GetQualifiedType( &i, tokenarray, &ti ) == ERROR )

	lea	r8, QWORD PTR ti$[rbp-121]
	mov	rdx, rdi
	mov	DWORD PTR i$[rbp-121], eax
	lea	rcx, QWORD PTR i$[rbp-121]
	call	GetQualifiedType
	cmp	eax, -1
	je	$LN50@LocalDir

; 561  : 
; 562  :             local->sym.mem_type = ti.mem_type;

	mov	eax, DWORD PTR ti$[rbp-105]
	mov	DWORD PTR [rbx+36], eax

; 563  :             if ( ti.mem_type == MT_TYPE ) {

	cmp	DWORD PTR ti$[rbp-105], 196		; 000000c4H

; 564  :                 local->sym.type = ti.symtype;

	mov	rax, QWORD PTR ti$[rbp-113]
	jne	SHORT $LN33@LocalDir
	mov	QWORD PTR [rbx+80], rax

; 565  :             } else {

	jmp	SHORT $LN34@LocalDir
$LN33@LocalDir:

; 566  :                 local->sym.target_type = ti.symtype;

	mov	QWORD PTR [rbx+48], rax
$LN34@LocalDir:

; 567  :             }
; 568  :             DebugMsg1(("LocalDir: memtype=%X, type=%s, size=%u*%u\n",
; 569  :                        local->sym.mem_type,
; 570  :                        ti.symtype ? ti.symtype->name : "NULL",
; 571  :                        ti.size, local->sym.total_length ));
; 572  :         }
; 573  :         local->sym.is_ptr  = ti.is_ptr;

	movzx	eax, BYTE PTR ti$[rbp-101]
	mov	BYTE PTR [rbx+45], al

; 574  :         local->sym.isfar   = ti.is_far;

	movzx	eax, BYTE PTR ti$[rbp-100]
	shl	al, 4
	xor	al, BYTE PTR [rbx+47]
	and	al, 16
	xor	BYTE PTR [rbx+47], al

; 575  :         local->sym.Ofssize = ti.Ofssize;

	movzx	eax, BYTE PTR ti$[rbp-99]
	mov	BYTE PTR [rbx+44], al

; 576  :         local->sym.ptr_memtype = ti.ptr_memtype;

	movzx	eax, BYTE PTR ti$[rbp-97]
	mov	BYTE PTR [rbx+46], al

; 577  :         local->sym.total_size = ti.size * local->sym.total_length;

	mov	eax, DWORD PTR [rbx+64]
	imul	eax, DWORD PTR ti$[rbp-121]
	mov	DWORD PTR [rbx+56], eax

; 578  : 
; 579  :         /* v2.12: address calculation is now done in SetLocalOffsets() */
; 580  : 
; 581  :         if( info->locallist == NULL ) {

	mov	rcx, QWORD PTR [rsi+16]
	test	rcx, rcx
	jne	SHORT $LN35@LocalDir

; 582  :             info->locallist = local;

	mov	QWORD PTR [rsi+16], rbx

; 583  :         } else {

	jmp	SHORT $LN36@LocalDir
$LN35@LocalDir:

; 584  :             for( curr = info->locallist; curr->nextlocal ; curr = curr->nextlocal );

	mov	rax, QWORD PTR [rcx+112]
	test	rax, rax
	je	SHORT $LN11@LocalDir
$LL12@LocalDir:
	mov	rcx, rax
	mov	rax, QWORD PTR [rax+112]
	test	rax, rax
	jne	SHORT $LL12@LocalDir
$LN11@LocalDir:

; 585  :             curr->nextlocal = local;

	mov	QWORD PTR [rcx+112], rbx
$LN36@LocalDir:

; 586  :         }
; 587  : 
; 588  :         if ( tokenarray[i].token != T_FINAL )

	movsxd	r8, DWORD PTR i$[rbp-121]
	mov	edx, DWORD PTR ModuleInfo+496
	mov	rax, r8
	shl	rax, 5
	movzx	ecx, BYTE PTR [rax+rdi]
	test	cl, cl
	je	SHORT $LN2@LocalDir

; 589  :             if ( tokenarray[i].token == T_COMMA ) {

	cmp	cl, 44					; 0000002cH
	jne	SHORT $LN38@LocalDir

; 590  :                 if ( (i + 1) < Token_Count )

	lea	eax, DWORD PTR [r8+1]
	cmp	eax, edx
	cmovl	r8d, eax
	mov	DWORD PTR i$[rbp-121], r8d
$LN2@LocalDir:

; 594  :             }
; 595  : 
; 596  :     } while ( i < Token_Count );

	cmp	r8d, edx
	jl	$LL4@LocalDir

; 597  : 
; 598  :     return( NOT_ERROR );

	xor	eax, eax
	jmp	SHORT $LN63@LocalDir
$LN50@LocalDir:

; 560  :                 return( ERROR );

	or	eax, -1
	jmp	SHORT $LN63@LocalDir
$LN38@LocalDir:

; 591  :                     i++;
; 592  :             } else {
; 593  :                 return( EmitErr( EXPECTING_COMMA, tokenarray[i].tokpos ) );

	mov	rdx, r8
	mov	ecx, 39					; 00000027H
	shl	rdx, 5
	mov	rdx, QWORD PTR [rdx+rdi+24]
$LN64@LocalDir:

; 475  :             return( EmitErr( SYNTAX_ERROR_EX, tokenarray[i].string_ptr ) );

	call	EmitErr
$LN63@LocalDir:
	mov	rbx, QWORD PTR [rsp+232]
	mov	rsi, QWORD PTR [rsp+240]
	mov	r14, QWORD PTR [rsp+192]

; 599  : }

	add	rsp, 200				; 000000c8H
	pop	rdi
	pop	rbp
	ret	0
$LN46@LocalDir:

; 475  :             return( EmitErr( SYNTAX_ERROR_EX, tokenarray[i].string_ptr ) );

	movsxd	rdx, r8d
	mov	ecx, 209				; 000000d1H
	shl	rdx, 5
	mov	rdx, QWORD PTR [rdx+rdi+8]
	jmp	SHORT $LN64@LocalDir
$LN15@LocalDir:

; 456  :         return( EmitError( PROC_MACRO_MUST_PRECEDE_LOCAL ) );

	mov	ecx, 92					; 0000005cH
	call	EmitError

; 599  : }

	add	rsp, 200				; 000000c8H
	pop	rdi
	pop	rbp
	ret	0
LocalDir ENDP
_TEXT	ENDS
; Function compile flags: /Ogtpy
; File d:\hjwasm\hjwasm2.13.1s\hjwasm2.13.1s\proc.c
;	COMDAT pop_proc
_TEXT	SEGMENT
pop_proc PROC						; COMDAT

; 426  :     if( ProcStack == NULL )

	mov	rax, QWORD PTR ProcStack
	test	rax, rax
	jne	SHORT $LN2@pop_proc

; 429  : }

	ret	0
$LN2@pop_proc:

; 427  :         return( NULL );
; 428  :     return( (struct dsym *)popitem( &ProcStack ) );

	mov	rcx, QWORD PTR [rax]
	mov	QWORD PTR ProcStack, rcx
	mov	rax, QWORD PTR [rax+8]

; 429  : }

	ret	0
pop_proc ENDP
_TEXT	ENDS
; Function compile flags: /Ogtpy
; File d:\hjwasm\hjwasm2.13.1s\hjwasm2.13.1s\proc.c
;	COMDAT push_proc
_TEXT	SEGMENT
proc$ = 48
push_proc PROC						; COMDAT

; 416  : {

	push	rbx
	sub	rsp, 32					; 00000020H

; 417  :     if ( Parse_Pass == PASS_1 ) /* get the locals stored so far */

	cmp	DWORD PTR Parse_Pass, 0
	mov	rbx, rcx
	jne	SHORT $LN2@push_proc

; 418  :         SymGetLocal( (struct asym *)proc );

	call	SymGetLocal
$LN2@push_proc:

; 419  :     pushitem( &ProcStack, proc );

	mov	ecx, 16
	call	LclAlloc
	mov	rdx, QWORD PTR ProcStack
	mov	QWORD PTR [rax], rdx
	mov	QWORD PTR [rax+8], rbx
	mov	QWORD PTR ProcStack, rax

; 420  :     return;
; 421  : }

	add	rsp, 32					; 00000020H
	pop	rbx
	ret	0
push_proc ENDP
_TEXT	ENDS
; Function compile flags: /Ogtpy
; File d:\hjwasm\hjwasm2.13.1s\hjwasm2.13.1s\proc.c
;	COMDAT popitem
_TEXT	SEGMENT
stk$ = 8
popitem	PROC						; COMDAT

; 386  :     void        **stack = stk;
; 387  :     struct qnode *node;
; 388  :     void        *elmt;
; 389  : 
; 390  :     node = (struct qnode *)(*stack);

	mov	rax, QWORD PTR [rcx]

; 391  :     *stack = node->next;

	mov	rdx, QWORD PTR [rax]
	mov	QWORD PTR [rcx], rdx

; 392  :     elmt = (void *)node->elmt;
; 393  :     LclFree( node );
; 394  :     return( elmt );

	mov	rax, QWORD PTR [rax+8]

; 395  : }

	ret	0
popitem	ENDP
_TEXT	ENDS
; Function compile flags: /Ogtpy
; File d:\hjwasm\hjwasm2.13.1s\hjwasm2.13.1s\proc.c
;	COMDAT pushitem
_TEXT	SEGMENT
stk$ = 48
elmt$ = 56
pushitem PROC						; COMDAT

; 373  : {

	mov	QWORD PTR [rsp+8], rbx
	push	rdi
	sub	rsp, 32					; 00000020H
	mov	rdi, rcx
	mov	rbx, rdx

; 374  :     void      **stack = stk;
; 375  :     struct qnode *node;
; 376  : 
; 377  :     node = LclAlloc( sizeof( struct qnode ));

	mov	ecx, 16
	call	LclAlloc

; 378  :     node->next = *stack;

	mov	r8, QWORD PTR [rdi]

; 379  :     node->elmt = elmt;

	mov	QWORD PTR [rax+8], rbx

; 380  :     *stack = node;
; 381  : }

	mov	rbx, QWORD PTR [rsp+48]
	mov	QWORD PTR [rax], r8
	mov	QWORD PTR [rdi], rax
	add	rsp, 32					; 00000020H
	pop	rdi
	ret	0
pushitem ENDP
_TEXT	ENDS
; Function compile flags: /Ogtpy
; File d:\hjwasm\hjwasm2.13.1s\hjwasm2.13.1s\proc.c
_TEXT	SEGMENT
proc$ = 8
buffer$ = 16
ms64_return PROC

; 366  :     /* nothing to do, the caller cleans the stack */
; 367  :     return;
; 368  : }

	ret	0
ms64_return ENDP
_TEXT	ENDS
; Function compile flags: /Ogtpy
; File d:\hjwasm\hjwasm2.13.1s\hjwasm2.13.1s\proc.c
_TEXT	SEGMENT
proc$ = 8
paranode$ = 16
used$ = 24
ms64_pcheck PROC

; 355  :     /* since the parameter names refer the stack-backup locations,
; 356  :      * there's nothing to do here!
; 357  :      * That is, if a parameter's size is > 8, it has to be changed
; 358  :      * to a pointer. This is to be done yet.
; 359  :      */
; 360  :     return( 0 );

	xor	eax, eax

; 361  : }

	ret	0
ms64_pcheck ENDP
_TEXT	ENDS
; Function compile flags: /Ogtpy
; File d:\hjwasm\hjwasm2.13.1s\hjwasm2.13.1s\proc.c
_TEXT	SEGMENT
proc$ = 8
buffer$ = 16
watc_return PROC

; 293  :     int value;
; 294  :     value = 4 * CurrWordSize;
; 295  :     if( proc->e.procinfo->has_vararg == FALSE && proc->e.procinfo->parasize > value )

	mov	r8, QWORD PTR [rcx+96]
	movzx	eax, BYTE PTR ModuleInfo+406
	shl	eax, 2
	test	BYTE PTR [r8+84], 1
	jne	SHORT $LN2@watc_retur
	mov	r8d, DWORD PTR [r8+32]
	cmp	r8d, eax
	jbe	SHORT $LN2@watc_retur

; 296  :         sprintf( buffer + strlen( buffer ), "%d%c", proc->e.procinfo->parasize - value, ModuleInfo.radix != 10 ? 't' : NULLC );

	xor	r9d, r9d
	mov	ecx, 116				; 00000074H
	cmp	BYTE PTR ModuleInfo+396, 10
	cmovne	r9d, ecx
	sub	r8d, eax
	or	rcx, -1
	npad	8
$LL4@watc_retur:
	inc	rcx
	cmp	BYTE PTR [rdx+rcx], 0
	jne	SHORT $LL4@watc_retur
	add	rcx, rdx
	lea	rdx, OFFSET FLAT:$SG11373
	jmp	sprintf
$LN2@watc_retur:

; 297  :     return;
; 298  : }

	ret	0
watc_return ENDP
_TEXT	ENDS
; Function compile flags: /Ogtpy
; File d:\hjwasm\hjwasm2.13.1s\hjwasm2.13.1s\proc.c
_TEXT	SEGMENT
proc$ = 80
paranode$ = 88
used$ = 96
watc_pcheck PROC

; 211  : {

	push	rbx
	push	rbp
	push	r12
	push	r13
	sub	rsp, 40					; 00000028H
	mov	r12, r8
	mov	r13, rdx
	mov	rbx, rcx

; 212  :     static char regname[64];
; 213  :     static char regist[32];
; 214  :     int newflg;
; 215  :     int shift;
; 216  :     int firstreg;
; 217  :     uint_8 Ofssize = GetSymOfssize( &proc->sym );

	call	GetSymOfssize

; 218  :     int size = SizeFromMemtype( paranode->sym.mem_type, paranode->sym.Ofssize, paranode->sym.type );

	movzx	edx, BYTE PTR [r13+44]
	mov	ebp, eax
	mov	r8, QWORD PTR [r13+80]
	mov	ecx, DWORD PTR [r13+36]
	call	SizeFromMemtype

; 219  : 
; 220  :     /* v2.05: VARARG procs don't have register params */
; 221  :     if ( proc->e.procinfo->has_vararg )

	mov	rcx, QWORD PTR [rbx+96]
	mov	r9d, eax
	test	BYTE PTR [rcx+84], 1
	je	SHORT $LN10@watc_pchec

; 222  :         return( 0 );

	xor	eax, eax

; 288  : }

	add	rsp, 40					; 00000028H
	pop	r13
	pop	r12
	pop	rbp
	pop	rbx
	ret	0
$LN10@watc_pchec:
	dec	eax
	mov	QWORD PTR [rsp+96], r14
	test	eax, -4					; fffffffcH
	jne	SHORT $LN44@watc_pchec
	cmp	r9d, 3
	je	SHORT $LN44@watc_pchec

; 225  :         return( 0 );
; 226  : 
; 227  :     /* v2.05: rewritten. The old code didn't allow to "fill holes" */
; 228  :     if ( size == 8 ) {

	cmp	r9d, 8
	je	SHORT $LN43@watc_pchec

; 231  :     } else if ( size == 4 && Ofssize == USE16 ) {

	cmp	r9d, 4
	jne	SHORT $LN14@watc_pchec
	test	bpl, bpl
	jne	SHORT $LN14@watc_pchec

; 232  :         newflg = 3;
; 233  :         shift = 2;

	lea	ecx, QWORD PTR [r9-2]
	lea	r14d, QWORD PTR [r9-1]

; 234  :     } else {

	jmp	SHORT $LN15@watc_pchec
$LN14@watc_pchec:

; 235  :         newflg = 1;
; 236  :         shift = 1;

	mov	ecx, 1
	mov	r14d, ecx
	jmp	SHORT $LN15@watc_pchec
$LN44@watc_pchec:

; 223  : 
; 224  :     if ( size != 1 && size != 2 && size != 4 && size != 8 )

	cmp	r9d, 8
	jne	SHORT $LN42@watc_pchec
$LN43@watc_pchec:

; 229  :         newflg = Ofssize ? 3 : 15;

	test	bpl, bpl
	mov	r14d, 3

; 230  :         shift = Ofssize ? 2 : 4;

	mov	ecx, 2
	mov	eax, 15
	cmovne	eax, r14d
	mov	r14d, eax
	mov	eax, 4
	cmovne	eax, ecx
	mov	ecx, eax
$LN15@watc_pchec:

; 237  :     }
; 238  : 
; 239  :     /* scan if there's a free register (pair/quadrupel) */
; 240  :     for ( firstreg = 0; firstreg < 4 && (newflg & *used ); newflg <<= shift, firstreg += shift );

	mov	eax, DWORD PTR [r12]
	xor	ebx, ebx
	mov	edx, ebx
$LL4@watc_pchec:
	test	eax, r14d
	je	SHORT $LN3@watc_pchec
	shl	r14d, cl
	add	edx, ecx
	cmp	edx, 4
	jl	SHORT $LL4@watc_pchec

; 242  :         return( 0 );

	xor	eax, eax
	mov	r14, QWORD PTR [rsp+96]

; 288  : }

	add	rsp, 40					; 00000028H
	pop	r13
	pop	r12
	pop	rbp
	pop	rbx
	ret	0
$LN3@watc_pchec:

; 241  :     if ( firstreg >= 4 ) /* exit if nothing is free */

	cmp	edx, 4
	jl	SHORT $LN16@watc_pchec
$LN42@watc_pchec:

; 242  :         return( 0 );

	xor	eax, eax
	mov	r14, QWORD PTR [rsp+96]

; 288  : }

	add	rsp, 40					; 00000028H
	pop	r13
	pop	r12
	pop	rbp
	pop	rbx
	ret	0
$LN16@watc_pchec:
	mov	QWORD PTR [rsp+80], rsi

; 243  : 
; 244  :     paranode->sym.state = SYM_TMACRO;
; 245  :     switch ( size ) {

	or	rsi, -1
	mov	QWORD PTR [rsp+88], rdi
	lea	rdi, OFFSET FLAT:?regname@?1??watc_pcheck@@9@9
	mov	QWORD PTR [rsp+32], r15
	mov	DWORD PTR [r13+32], 10
	sub	r9d, 1
	je	$LN17@watc_pchec
	sub	r9d, 1
	je	$LN18@watc_pchec
	sub	r9d, 2
	je	$LN19@watc_pchec
	cmp	r9d, 4
	jne	$LN8@watc_pchec

; 260  :     case 8:
; 261  :         if ( Ofssize ) {
; 262  :             paranode->sym.regist[0] = watc_regs32[firstreg];

	lea	r15, OFFSET FLAT:__ImageBase
	test	bpl, bpl
	je	SHORT $LN23@watc_pchec
	movsxd	rcx, edx
	movzx	eax, WORD PTR watc_regs32[r15+rcx*4]
	mov	WORD PTR [r13+48], ax

; 263  :             paranode->sym.regist[1] = watc_regs32[firstreg+1];

	movzx	eax, WORD PTR watc_regs32[r15+rcx*4+4]
	mov	WORD PTR [r13+50], ax

; 264  :         } else {

	jmp	$LN8@watc_pchec
$LN23@watc_pchec:

; 265  :             /* the AX:BX:CX:DX sequence is for 16-bit only.
; 266  :              * fixme: no support for codeview debug info yet;
; 267  :              * the S_REGISTER record supports max 2 registers only.
; 268  :              */
; 269  :             for( firstreg = 0, regname[0] = NULLC; firstreg < 4; firstreg++ ) {

	mov	BYTE PTR ?regname@?1??watc_pcheck@@9@9, bl
	lea	rbp, OFFSET FLAT:$SG11361
$LL9@watc_pchec:

; 270  :                 GetResWName( watc_regs_qw[firstreg], regname + strlen( regname ) );

	mov	rdx, rsi
$LL49@watc_pchec:
	inc	rdx
	cmp	BYTE PTR [rdi+rdx], 0
	jne	SHORT $LL49@watc_pchec
	mov	ecx, DWORD PTR watc_regs_qw[r15+rbx*4]
	add	rdx, rdi
	call	GetResWName

; 271  :                 if ( firstreg != 3 )

	cmp	rbx, 3
	je	SHORT $LN7@watc_pchec

; 272  :                     strcat( regname, "::");

	lea	rax, QWORD PTR [rdi-1]
$LL47@watc_pchec:
	inc	rax
	cmp	BYTE PTR [rax], 0
	jne	SHORT $LL47@watc_pchec
	xor	edx, edx
$LL48@watc_pchec:
	movzx	ecx, BYTE PTR [rdx+rbp]
	mov	BYTE PTR [rax+rdx], cl
	lea	rdx, QWORD PTR [rdx+1]
	test	cl, cl
	jne	SHORT $LL48@watc_pchec
$LN7@watc_pchec:

; 265  :             /* the AX:BX:CX:DX sequence is for 16-bit only.
; 266  :              * fixme: no support for codeview debug info yet;
; 267  :              * the S_REGISTER record supports max 2 registers only.
; 268  :              */
; 269  :             for( firstreg = 0, regname[0] = NULLC; firstreg < 4; firstreg++ ) {

	inc	rbx
	cmp	rbx, 4
	jl	SHORT $LL9@watc_pchec

; 237  :     }
; 238  : 
; 239  :     /* scan if there's a free register (pair/quadrupel) */
; 240  :     for ( firstreg = 0; firstreg < 4 && (newflg & *used ); newflg <<= shift, firstreg += shift );

	jmp	SHORT $LN8@watc_pchec
$LN19@watc_pchec:

; 252  :     case 4:
; 253  :         if ( Ofssize ) {
; 254  :             paranode->sym.regist[0] = watc_regs32[firstreg];

	lea	r15, OFFSET FLAT:__ImageBase
	test	bpl, bpl
	je	SHORT $LN20@watc_pchec
	movsxd	rax, edx
	movzx	eax, WORD PTR watc_regs32[r15+rax*4]

; 255  :         } else {

	jmp	SHORT $LN51@watc_pchec
$LN20@watc_pchec:

; 256  :             paranode->sym.regist[0] = watc_regs16[firstreg];

	movsxd	rcx, edx
	movzx	eax, WORD PTR watc_regs16[r15+rcx*4]
	mov	WORD PTR [r13+48], ax

; 257  :             paranode->sym.regist[1] = watc_regs16[firstreg+1];

	movzx	eax, WORD PTR watc_regs16[r15+rcx*4+4]
	mov	WORD PTR [r13+50], ax

; 258  :         }
; 259  :         break;

	jmp	SHORT $LN8@watc_pchec
$LN18@watc_pchec:

; 248  :         break;
; 249  :     case 2:
; 250  :         paranode->sym.regist[0] = watc_regs16[firstreg];

	movsxd	rax, edx
	lea	r15, OFFSET FLAT:__ImageBase
	movzx	eax, WORD PTR watc_regs16[r15+rax*4]

; 251  :         break;

	jmp	SHORT $LN51@watc_pchec
$LN17@watc_pchec:

; 246  :     case 1:
; 247  :         paranode->sym.regist[0] = watc_regs8[firstreg];

	movsxd	rax, edx
	lea	r15, OFFSET FLAT:__ImageBase
	movzx	eax, WORD PTR watc_regs8[r15+rax*4]
$LN51@watc_pchec:
	mov	WORD PTR [r13+48], ax
$LN8@watc_pchec:

; 273  :             }
; 274  :         }
; 275  :     }
; 276  :     if ( paranode->sym.regist[1] ) {

	cmp	WORD PTR [r13+50], 0
	mov	r15, QWORD PTR [rsp+32]
	je	SHORT $LN26@watc_pchec

; 277  :         sprintf( regname, "%s::%s",

	movzx	ecx, WORD PTR [r13+48]
	xor	edx, edx
	call	GetResWName
	movzx	ecx, WORD PTR [r13+50]
	lea	rdx, OFFSET FLAT:?regist@?1??watc_pcheck@@9@9
	mov	rbx, rax
	call	GetResWName
	mov	r8, rax
	lea	rdx, OFFSET FLAT:$SG11364
	mov	r9, rbx
	mov	rcx, rdi
	call	sprintf
	jmp	SHORT $LN28@watc_pchec
$LN26@watc_pchec:

; 278  :                 GetResWName( paranode->sym.regist[1], regist ),
; 279  :                 GetResWName( paranode->sym.regist[0], NULL ) );
; 280  :     } else if ( paranode->sym.regist[0] ) {

	movzx	eax, WORD PTR [r13+48]
	test	ax, ax
	je	SHORT $LN28@watc_pchec

; 281  :         GetResWName( paranode->sym.regist[0], regname );

	movzx	ecx, ax
	mov	rdx, rdi
	call	GetResWName
$LN28@watc_pchec:

; 282  :     }
; 283  :     *used |= newflg;

	or	DWORD PTR [r12], r14d
$LL46@watc_pchec:

; 284  :     paranode->sym.string_ptr = LclAlloc( strlen( regname ) + 1 );

	cmp	BYTE PTR [rdi+rsi+1], 0
	lea	rsi, QWORD PTR [rsi+1]
	jne	SHORT $LL46@watc_pchec
	lea	rcx, QWORD PTR [rsi+1]
	call	LclAlloc
	mov	rsi, QWORD PTR [rsp+80]
	mov	QWORD PTR [r13+16], rax
	npad	3
$LL30@watc_pchec:

; 285  :     strcpy( paranode->sym.string_ptr, regname );

	movzx	ecx, BYTE PTR [rdi]
	lea	rdi, QWORD PTR [rdi+1]
	mov	BYTE PTR [rax], cl
	lea	rax, QWORD PTR [rax+1]
	test	cl, cl
	jne	SHORT $LL30@watc_pchec

; 286  :     DebugMsg(("watc_pcheck(%s.%s): size=%u ptr=%u far=%u reg=%s\n", proc->sym.name, paranode->sym.name, size, paranode->sym.is_ptr, paranode->sym.isfar, regname ));
; 287  :     return( 1 );

	mov	rdi, QWORD PTR [rsp+88]
	mov	eax, 1
	mov	r14, QWORD PTR [rsp+96]

; 288  : }

	add	rsp, 40					; 00000028H
	pop	r13
	pop	r12
	pop	rbp
	pop	rbx
	ret	0
watc_pcheck ENDP
_TEXT	ENDS
; Function compile flags: /Ogtpy
; File d:\hjwasm\hjwasm2.13.1s\hjwasm2.13.1s\proc.c
_TEXT	SEGMENT
proc$ = 8
buffer$ = 16
ms32_return PROC

; 331  :     /* v2.07: changed */
; 332  :     //if( proc->e.procinfo->parasize > ( 2 * CurrWordSize ) )
; 333  :     //    sprintf( buffer + strlen( buffer ), "%d%c", proc->e.procinfo->parasize - (2 * CurrWordSize), ModuleInfo.radix != 10 ? 't' : NULLC );
; 334  :     if( proc->e.procinfo->parasize > ( ms32_maxreg[ModuleInfo.Ofssize] * CurrWordSize ) )

	movzx	r8d, BYTE PTR ModuleInfo+404
	lea	r9, OFFSET FLAT:ms32_maxreg
	movzx	eax, BYTE PTR ModuleInfo+406
	mov	r9d, DWORD PTR [r9+r8*4]
	imul	r9d, eax
	mov	rax, QWORD PTR [rcx+96]
	mov	r8d, DWORD PTR [rax+32]
	cmp	r8d, r9d
	jbe	SHORT $LN2@ms32_retur

; 335  :         sprintf( buffer + strlen( buffer ), "%d%c", proc->e.procinfo->parasize - ( ms32_maxreg[ModuleInfo.Ofssize] * CurrWordSize), ModuleInfo.radix != 10 ? 't' : NULLC );

	xor	eax, eax
	mov	ecx, 116				; 00000074H
	cmp	BYTE PTR ModuleInfo+396, 10
	cmovne	eax, ecx
	sub	r8d, r9d
	or	rcx, -1
$LL4@ms32_retur:
	inc	rcx
	cmp	BYTE PTR [rdx+rcx], 0
	jne	SHORT $LL4@ms32_retur
	add	rcx, rdx
	mov	r9d, eax
	lea	rdx, OFFSET FLAT:$SG11391
	jmp	sprintf
$LN2@ms32_retur:

; 336  :     return;
; 337  : }

	ret	0
ms32_return ENDP
_TEXT	ENDS
; Function compile flags: /Ogtpy
; File d:\hjwasm\hjwasm2.13.1s\hjwasm2.13.1s\proc.c
_TEXT	SEGMENT
regname$ = 32
proc$ = 80
paranode$ = 88
used$ = 96
ms32_pcheck PROC

; 310  : {

	mov	QWORD PTR [rsp+8], rbx
	push	rdi
	sub	rsp, 64					; 00000040H
	mov	rdi, rdx
	mov	rbx, r8

; 311  :     char regname[32];
; 312  :     int size = SizeFromMemtype( paranode->sym.mem_type, paranode->sym.Ofssize, paranode->sym.type );

	movzx	edx, BYTE PTR [rdx+44]
	mov	r8, QWORD PTR [rdi+80]
	mov	ecx, DWORD PTR [rdi+36]
	call	SizeFromMemtype

; 313  : 
; 314  :     /* v2.07: 16-bit has 3 register params (AX,DX,BX) */
; 315  :     //if ( size > CurrWordSize || *used >= 2 )
; 316  :     if ( size > CurrWordSize || *used >= ms32_maxreg[ModuleInfo.Ofssize] )

	movzx	ecx, BYTE PTR ModuleInfo+406
	cmp	eax, ecx
	jg	$LN3@ms32_pchec
	movzx	eax, BYTE PTR ModuleInfo+404
	lea	rdx, OFFSET FLAT:__ImageBase
	mov	eax, DWORD PTR ms32_maxreg[rdx+rax*4]
	cmp	DWORD PTR [rbx], eax
	jge	$LN3@ms32_pchec

; 318  :     paranode->sym.state = SYM_TMACRO;

	mov	DWORD PTR [rdi+32], 10

; 319  :     /* v2.10: for codeview debug info, store the register index in the symbol */
; 320  :     paranode->sym.regist[0] = ModuleInfo.Ofssize ? ms32_regs32[*used] : ms32_regs16[*used];

	cmp	BYTE PTR ModuleInfo+404, 0
	movsxd	rax, DWORD PTR [rbx]
	je	SHORT $LN5@ms32_pchec
	mov	ecx, DWORD PTR ms32_regs32[rdx+rax*4]
	jmp	SHORT $LN6@ms32_pchec
$LN5@ms32_pchec:
	mov	ecx, DWORD PTR ms32_regs16[rdx+rax*4]
$LN6@ms32_pchec:
	mov	WORD PTR [rdi+48], cx

; 321  :     GetResWName( ModuleInfo.Ofssize ? ms32_regs32[*used] : ms32_regs16[*used], regname );

	cmp	BYTE PTR ModuleInfo+404, 0
	movsxd	rax, DWORD PTR [rbx]
	je	SHORT $LN7@ms32_pchec
	mov	ecx, DWORD PTR ms32_regs32[rdx+rax*4]
	jmp	SHORT $LN8@ms32_pchec
$LN7@ms32_pchec:
	mov	ecx, DWORD PTR ms32_regs16[rdx+rax*4]
$LN8@ms32_pchec:
	lea	rdx, QWORD PTR regname$[rsp]
	call	GetResWName

; 322  :     paranode->sym.string_ptr = LclAlloc( strlen( regname ) + 1 );

	lea	rax, QWORD PTR regname$[rsp]
	or	rcx, -1
$LL13@ms32_pchec:
	inc	rcx
	cmp	BYTE PTR [rax+rcx], 0
	jne	SHORT $LL13@ms32_pchec
	inc	rcx
	call	LclAlloc
	mov	QWORD PTR [rdi+16], rax

; 323  :     strcpy( paranode->sym.string_ptr, regname );

	lea	rdx, QWORD PTR regname$[rsp]
	npad	4
$LL9@ms32_pchec:
	movzx	ecx, BYTE PTR [rdx]
	lea	rdx, QWORD PTR [rdx+1]
	mov	BYTE PTR [rax], cl
	lea	rax, QWORD PTR [rax+1]
	test	cl, cl
	jne	SHORT $LL9@ms32_pchec

; 324  :     (*used)++;

	inc	DWORD PTR [rbx]

; 325  :     return( 1 );

	mov	eax, 1

; 326  : }

	mov	rbx, QWORD PTR [rsp+80]
	add	rsp, 64					; 00000040H
	pop	rdi
	ret	0
$LN3@ms32_pchec:

; 317  :         return( 0 );

	xor	eax, eax

; 326  : }

	mov	rbx, QWORD PTR [rsp+80]
	add	rsp, 64					; 00000040H
	pop	rdi
	ret	0
ms32_pcheck ENDP
_TEXT	ENDS
; Function compile flags: /Ogtpy
; File d:\hjwasm\hjwasm2.13.1s\hjwasm2.13.1s\proc.c
_TEXT	SEGMENT
ProcCheckOpen PROC

; 2079 : {

$LN60:
	sub	rsp, 40					; 00000028H

; 2080 :     while( CurrProc != NULL ) {

	mov	rax, QWORD PTR CurrProc
	test	rax, rax
	je	$LN3@ProcCheckO
	mov	QWORD PTR [rsp+48], rbx
	mov	QWORD PTR [rsp+56], rsi
	xor	esi, esi
	mov	QWORD PTR [rsp+32], rdi
	npad	11
$LL2@ProcCheckO:

; 2081 :         DebugMsg1(("ProcCheckOpen: unmatched block nesting error, CurrProc=%s\n", CurrProc->sym.name ));
; 2082 :         EmitErr( UNMATCHED_BLOCK_NESTING, CurrProc->sym.name );

	mov	rdx, QWORD PTR [rax+8]
	mov	ecx, 142				; 0000008eH
	call	EmitErr

; 2083 :         ProcFini( CurrProc );

	mov	rdi, QWORD PTR CurrProc
	mov	rax, QWORD PTR ModuleInfo+432
	cmp	QWORD PTR [rdi+24], rax
	jne	SHORT $LN18@ProcCheckO
	call	GetCurrOffset
	jmp	SHORT $LN58@ProcCheckO
$LN18@ProcCheckO:
	mov	rdx, QWORD PTR [rdi+8]
	mov	ecx, 142				; 0000008eH
	call	EmitErr
	mov	rax, QWORD PTR CurrProc
	mov	rcx, QWORD PTR [rax+24]
	mov	eax, DWORD PTR [rcx+16]
$LN58@ProcCheckO:
	sub	eax, DWORD PTR [rdi+16]
	mov	DWORD PTR [rdi+56], eax
	cmp	BYTE PTR Options+13, 2
	jbe	SHORT $LN56@ProcCheckO
	cmp	DWORD PTR Parse_Pass, esi
	jne	$LN57@ProcCheckO
	mov	rax, QWORD PTR [rdi+96]
	mov	rbx, QWORD PTR [rax+8]
	test	rbx, rbx
	je	SHORT $LN7@ProcCheckO
	npad	3
$LL8@ProcCheckO:
	test	BYTE PTR [rbx+40], 1
	jne	SHORT $LN6@ProcCheckO
	mov	r8, QWORD PTR [rbx+8]
	mov	edx, 265				; 00000109H
	mov	ecx, 3
	call	EmitWarn
$LN6@ProcCheckO:
	mov	rbx, QWORD PTR [rbx+112]
	test	rbx, rbx
	jne	SHORT $LL8@ProcCheckO
$LN7@ProcCheckO:
	mov	rbx, QWORD PTR [rdi+96]
	mov	rbx, QWORD PTR [rbx+16]
	test	rbx, rbx
	je	SHORT $LN56@ProcCheckO
	npad	1
$LL11@ProcCheckO:
	test	BYTE PTR [rbx+40], 1
	jne	SHORT $LN9@ProcCheckO
	mov	r8, QWORD PTR [rbx+8]
	mov	edx, 265				; 00000109H
	mov	ecx, 3
	call	EmitWarn
$LN9@ProcCheckO:
	mov	rbx, QWORD PTR [rbx+112]
	test	rbx, rbx
	jne	SHORT $LL11@ProcCheckO
$LN56@ProcCheckO:
	cmp	DWORD PTR Parse_Pass, esi
	jne	SHORT $LN57@ProcCheckO
	cmp	DWORD PTR ModuleInfo+376, 2
	jne	SHORT $LN57@ProcCheckO
	test	BYTE PTR ModuleInfo+413, 2
	je	SHORT $LN57@ProcCheckO
	mov	rax, QWORD PTR sym_ReservedStack
	mov	rdx, QWORD PTR [rdi+96]
	mov	ecx, DWORD PTR [rax+16]
	mov	DWORD PTR [rdx+56], ecx
	mov	rdx, QWORD PTR [rdi+96]
	test	BYTE PTR [rdx+84], 128			; 00000080H
	je	SHORT $LN57@ProcCheckO
	mov	rdx, QWORD PTR [rdx+16]
	test	rdx, rdx
	je	SHORT $LN13@ProcCheckO
$LL14@ProcCheckO:
	mov	rax, QWORD PTR [rdi+96]
	mov	ecx, DWORD PTR [rax+56]
	add	DWORD PTR [rdx+16], ecx
	mov	rdx, QWORD PTR [rdx+112]
	test	rdx, rdx
	jne	SHORT $LL14@ProcCheckO
$LN13@ProcCheckO:
	mov	rax, QWORD PTR [rdi+96]
	mov	r8, QWORD PTR [rax+8]
	test	r8, r8
	je	SHORT $LN57@ProcCheckO
$LL17@ProcCheckO:
	mov	rax, QWORD PTR [rdi+96]
	mov	edx, DWORD PTR [rax+56]
	add	DWORD PTR [r8+16], edx
	mov	r8, QWORD PTR [r8+112]
	test	r8, r8
	jne	SHORT $LL17@ProcCheckO
$LN57@ProcCheckO:
	mov	rax, QWORD PTR [rdi+96]
	test	BYTE PTR [rax+84], 64			; 00000040H
	je	SHORT $LN25@ProcCheckO
	call	LstSetPosition
	mov	rcx, rdi
	call	WriteSEHData
$LN25@ProcCheckO:
	test	DWORD PTR ModuleInfo+408, 2048		; 00000800H
	je	SHORT $LN26@ProcCheckO
	xor	edx, edx
	xor	r8d, r8d
	lea	ecx, QWORD PTR [rdx+7]
	call	LstWrite
$LN26@ProcCheckO:
	cmp	DWORD PTR Parse_Pass, esi
	jne	SHORT $LN27@ProcCheckO
	test	BYTE PTR ProcStatus, -128		; ffffffffffffff80H
	je	SHORT $LN28@ProcCheckO
	mov	rcx, QWORD PTR CurrProc
	mov	rcx, QWORD PTR [rcx+96]
	call	SetLocalOffsets
$LN28@ProcCheckO:
	mov	rcx, QWORD PTR CurrProc
	call	SymGetLocal
$LN27@ProcCheckO:
	mov	rcx, QWORD PTR ProcStack
	test	rcx, rcx
	jne	SHORT $LN32@ProcCheckO
	mov	rax, rsi
	mov	QWORD PTR CurrProc, rax
	jmp	SHORT $LN29@ProcCheckO
$LN32@ProcCheckO:
	mov	rax, QWORD PTR [rcx]
	mov	QWORD PTR ProcStack, rax
	mov	rax, QWORD PTR [rcx+8]
	mov	QWORD PTR CurrProc, rax
	test	rax, rax
	je	SHORT $LN29@ProcCheckO
	mov	rcx, rax
	call	SymSetLocal
	mov	rax, QWORD PTR CurrProc
$LN29@ProcCheckO:
	mov	DWORD PTR ProcStatus, esi
	test	rax, rax
	jne	$LL2@ProcCheckO
	mov	rdi, QWORD PTR [rsp+32]
	mov	rsi, QWORD PTR [rsp+56]
	mov	rbx, QWORD PTR [rsp+48]
$LN3@ProcCheckO:

; 2084 :     }
; 2085 : }

	add	rsp, 40					; 00000028H
	ret	0
ProcCheckOpen ENDP
_TEXT	ENDS
; Function compile flags: /Ogtpy
; File d:\hjwasm\hjwasm2.13.1s\hjwasm2.13.1s\proc.c
_TEXT	SEGMENT
ProcInit PROC

; 3270 :     ProcStack = NULL;

	xor	eax, eax

; 3271 :     CurrProc  = NULL;
; 3272 :     procidx = 1;

	mov	DWORD PTR procidx, 1
	mov	QWORD PTR ProcStack, rax
	mov	QWORD PTR CurrProc, rax

; 3273 :     ProcStatus = 0;

	mov	DWORD PTR ProcStatus, eax

; 3274 :     /* v2.09: reset prolog and epilog mode */
; 3275 :     ModuleInfo.prologuemode = PEM_DEFAULT;

	mov	WORD PTR ModuleInfo+424, ax

; 3276 :     ModuleInfo.epiloguemode = PEM_DEFAULT;
; 3277 :     /* v2.06: no forward references in INVOKE if -Zne is set */
; 3278 :     ModuleInfo.invoke_exprparm = ( Options.strict_masm_compat ? EXPF_NOUNDEF : 0 );

	movzx	eax, BYTE PTR Options+127
	neg	al

; 3279 : #if STACKBASESUPP
; 3280 :     ModuleInfo.basereg[USE16] = T_BP;

	mov	DWORD PTR ModuleInfo+500, 14

; 3281 :     ModuleInfo.basereg[USE32] = T_EBP;

	mov	DWORD PTR ModuleInfo+504, 22
	sbb	cl, cl

; 3282 : #if AMD64_SUPPORT
; 3283 :     ModuleInfo.basereg[USE64] = T_RBP;

	mov	DWORD PTR ModuleInfo+508, 120		; 00000078H
	and	cl, 2

; 3284 : #endif
; 3285 : #endif
; 3286 : #if AMD64_SUPPORT
; 3287 :     unw_segs_defined = 0;

	mov	BYTE PTR unw_segs_defined, 0
	mov	BYTE PTR ModuleInfo+426, cl

; 3288 : #endif
; 3289 : }

	ret	0
ProcInit ENDP
_TEXT	ENDS
; Function compile flags: /Ogtpy
; File d:\hjwasm\hjwasm2.13.1s\hjwasm2.13.1s\proc.c
_TEXT	SEGMENT
tokenarray$ = 48
write_prologue PROC

; 2785 : {

$LN14:
	push	rbx
	sub	rsp, 32					; 00000020H

; 2786 :     /* reset @ProcStatus flag */
; 2787 :     ProcStatus &= ~PRST_PROLOGUE_NOT_DONE;

	and	DWORD PTR ProcStatus, -129		; ffffffffffffff7fH
	mov	rbx, rcx

; 2788 : 
; 2789 : #if AMD64_SUPPORT
; 2790 :     if ( ModuleInfo.fctype == FCT_WIN64 && ( ModuleInfo.win64_flags & W64F_AUTOSTACKSP ) ) {

	cmp	DWORD PTR ModuleInfo+376, 2
	jne	SHORT $LN3@write_prol
	test	BYTE PTR ModuleInfo+413, 2
	je	SHORT $LN3@write_prol

; 2791 :         /* in pass one init reserved stack with 4*8 to force stack frame creation */
; 2792 :         sym_ReservedStack->value = ( Parse_Pass == PASS_1 ? 4 * sizeof( uint_64 ) : CurrProc->e.procinfo->ReservedStack );

	cmp	DWORD PTR Parse_Pass, 0
	jne	SHORT $LN10@write_prol
	mov	edx, 32					; 00000020H
	jmp	SHORT $LN11@write_prol
$LN10@write_prol:
	mov	rax, QWORD PTR CurrProc
	mov	rcx, QWORD PTR [rax+96]
	movsxd	rdx, DWORD PTR [rcx+56]
$LN11@write_prol:
	mov	rax, QWORD PTR sym_ReservedStack
	mov	DWORD PTR [rax+16], edx

; 2793 :         if (Parse_Pass == PASS_1) sym_ReservedStack->hasinvoke = 0;

	cmp	DWORD PTR Parse_Pass, 0
	jne	SHORT $LN4@write_prol
	mov	rax, QWORD PTR sym_ReservedStack
	mov	DWORD PTR [rax+16], 0
$LN3@write_prol:

; 2794 :     }
; 2795 : #endif
; 2796 :     if ( Parse_Pass == PASS_1 ) {

	cmp	DWORD PTR Parse_Pass, 0
	jne	SHORT $LN4@write_prol

; 2797 :         /* v2.12: calculation of offsets of local variables is done delayed now */
; 2798 :         SetLocalOffsets( CurrProc->e.procinfo );

	mov	rcx, QWORD PTR CurrProc
	mov	rcx, QWORD PTR [rcx+96]
	call	SetLocalOffsets
$LN4@write_prol:

; 2799 :     }
; 2800 :     ProcStatus |= PRST_INSIDE_PROLOGUE;

	or	DWORD PTR ProcStatus, 1

; 2801 :     /* there are 3 cases:
; 2802 :      * option prologue:NONE           proc_prologue == NULL
; 2803 :      * option prologue:default        *proc_prologue == NULLC
; 2804 :      * option prologue:usermacro      *proc_prologue != NULLC
; 2805 :      */
; 2806 :     if ( ModuleInfo.prologuemode == PEM_DEFAULT ) {

	movzx	eax, BYTE PTR ModuleInfo+424
	test	al, al
	jne	SHORT $LN5@write_prol

; 2807 :         DebugMsg1(("write_prologue(%s): default prologue\n", CurrProc->sym.name ));
; 2808 :         write_default_prologue();

	call	write_default_prologue
	jmp	SHORT $LN8@write_prol
$LN5@write_prol:

; 2809 :     } else if ( ModuleInfo.prologuemode == PEM_NONE ) {

	cmp	al, 2
	je	SHORT $LN8@write_prol

; 2810 :         DebugMsg1(("write_prologue(%s): prologue is NULL\n", CurrProc->sym.name  ));
; 2811 :     } else {
; 2812 :         DebugMsg1(("write_prologue(%s): userdefined prologue %s\n", CurrProc->sym.name , ModuleInfo.proc_prologue ));
; 2813 :         write_userdef_prologue( tokenarray );

	mov	rcx, rbx
	call	write_userdef_prologue
$LN8@write_prol:

; 2814 :     }
; 2815 :     ProcStatus &= ~PRST_INSIDE_PROLOGUE;

	and	DWORD PTR ProcStatus, -2

; 2816 :     /* v2.10: for debug info, calculate prologue size */
; 2817 :     CurrProc->e.procinfo->size_prolog = GetCurrOffset() - CurrProc->sym.offset;

	call	GetCurrOffset
	mov	rcx, QWORD PTR CurrProc
	sub	al, BYTE PTR [rcx+16]
	mov	rcx, QWORD PTR [rcx+96]
	mov	BYTE PTR [rcx+85], al

; 2818 :     return;
; 2819 : }

	add	rsp, 32					; 00000020H
	pop	rbx
	ret	0
write_prologue ENDP
_TEXT	ENDS
; Function compile flags: /Ogtpy
; File d:\hjwasm\hjwasm2.13.1s\hjwasm2.13.1s\proc.c
_TEXT	SEGMENT
buffer$ = 32
i$ = 656
tokenarray$ = 664
count$ = 672
RetInstr PROC

; 3169 : {

$LN36:
	mov	QWORD PTR [rsp+8], rbx
	mov	QWORD PTR [rsp+16], rbp
	mov	QWORD PTR [rsp+24], rsi
	mov	QWORD PTR [rsp+32], rdi
	push	r14
	sub	rsp, 640				; 00000280H
	movsxd	rdi, ecx

; 3170 :     struct proc_info   *info;
; 3171 :     bool        is_iret = FALSE;

	xor	sil, sil

; 3172 :     char        *p;
; 3173 : #ifdef DEBUG_OUT
; 3174 :     ret_code    rc;
; 3175 : #endif
; 3176 :     char        buffer[MAX_LINE_LEN]; /* stores modified RETN/RETF/IRET instruction */
; 3177 : 
; 3178 :     DebugMsg1(( "RetInstr() enter\n" ));
; 3179 : 
; 3180 : #if AMD64_SUPPORT
; 3181 :     if( tokenarray[i].tokval == T_IRET || tokenarray[i].tokval == T_IRETD || tokenarray[i].tokval == T_IRETQ )

	mov	rbx, rdi
	mov	r14d, r8d
	shl	rbx, 5
	mov	rbp, rdx
	mov	ecx, DWORD PTR [rbx+rdx+16]
	lea	eax, DWORD PTR [rcx-622]
	cmp	eax, 1
	jbe	SHORT $LN5@RetInstr
	cmp	ecx, 1203				; 000004b3H
	jne	SHORT $LN4@RetInstr
$LN5@RetInstr:

; 3182 : #else
; 3183 :     if( tokenarray[i].tokval == T_IRET || tokenarray[i].tokval == T_IRETD )
; 3184 : #endif
; 3185 :         is_iret = TRUE;

	mov	sil, 1
$LN4@RetInstr:

; 3186 : 
; 3187 :     if ( ModuleInfo.epiloguemode == PEM_MACRO ) {

	cmp	BYTE PTR ModuleInfo+425, 1
	jne	SHORT $LN6@RetInstr

; 3188 : #if FASTPASS
; 3189 :         /* don't run userdefined epilogue macro if pass > 1 */
; 3190 :         if ( UseSavedState ) {

	cmp	BYTE PTR UseSavedState, 0
	je	SHORT $LN7@RetInstr

; 3191 :             if ( Parse_Pass > PASS_1 ) {

	cmp	DWORD PTR Parse_Pass, 0
	jbe	SHORT $LN8@RetInstr

; 3192 :                 DebugMsg(( "RetInstr() exit\n" ));
; 3193 :                 //return( NOT_ERROR );
; 3194 :                 return( ParseLine( tokenarray ) );

	mov	rcx, rdx
	call	ParseLine
	jmp	$LN1@RetInstr
$LN8@RetInstr:

; 3195 :             }
; 3196 :             /* handle the current line as if it is REPLACED by the macro content */
; 3197 :             *(LineStoreCurr->line) = ';';

	mov	rax, QWORD PTR LineStoreCurr
	mov	BYTE PTR [rax+16], 59			; 0000003bH
$LN7@RetInstr:

; 3198 :         }
; 3199 : #endif
; 3200 : #ifdef DEBUG_OUT
; 3201 :         rc = write_userdef_epilogue( is_iret, tokenarray );
; 3202 :         DebugMsg(( "RetInstr() exit\n" ));
; 3203 :         return( rc );
; 3204 : #else
; 3205 :         return( write_userdef_epilogue( is_iret, tokenarray ) );

	movzx	ecx, sil
	call	write_userdef_epilogue
	jmp	$LN1@RetInstr
$LN6@RetInstr:

; 3206 : #endif
; 3207 :     }
; 3208 : 
; 3209 :     if ( ModuleInfo.list ) {

	test	DWORD PTR ModuleInfo+408, 2048		; 00000800H
	je	SHORT $LN9@RetInstr

; 3210 :         LstWrite( LSTTYPE_DIRECTIVE, GetCurrOffset(), NULL );

	call	GetCurrOffset
	xor	r8d, r8d
	mov	edx, eax
	lea	ecx, QWORD PTR [r8+4]
	call	LstWrite
$LN9@RetInstr:

; 3211 :     }
; 3212 : 
; 3213 :     strcpy( buffer, tokenarray[i].string_ptr );

	mov	rcx, QWORD PTR [rbx+rbp+8]
	lea	rdx, QWORD PTR buffer$[rsp]
	sub	rdx, rcx
	npad	9
$LL24@RetInstr:
	movzx	eax, BYTE PTR [rcx]
	mov	BYTE PTR [rdx+rcx], al
	lea	rcx, QWORD PTR [rcx+1]
	test	al, al
	jne	SHORT $LL24@RetInstr

; 3214 :     p = buffer + strlen( buffer );

	lea	rcx, QWORD PTR buffer$[rsp]
	or	rax, -1
$LL33@RetInstr:
	inc	rax
	cmp	BYTE PTR [rcx+rax], 0
	jne	SHORT $LL33@RetInstr
	lea	rbx, QWORD PTR buffer$[rsp]
	add	rbx, rax

; 3215 : 
; 3216 :     write_default_epilogue();

	call	write_default_epilogue

; 3217 : 
; 3218 :     info = CurrProc->e.procinfo;

	mov	r8, QWORD PTR CurrProc
	mov	rcx, QWORD PTR [r8+96]

; 3219 : 
; 3220 :     /* skip this part for IRET */
; 3221 :     if( is_iret == FALSE ) {

	test	sil, sil
	jne	SHORT $LN12@RetInstr

; 3222 :         if ( CurrProc->sym.mem_type == MT_FAR )

	cmp	DWORD PTR [r8+36], 130			; 00000082H
	jne	SHORT $LN11@RetInstr

; 3223 :             *p++ = 'f';   /* ret -> retf */

	mov	BYTE PTR [rbx], 102			; 00000066H
	jmp	SHORT $LN34@RetInstr
$LN11@RetInstr:

; 3224 :         else
; 3225 :             *p++ = 'n';     /* ret -> retn */

	mov	BYTE PTR [rbx], 110			; 0000006eH
$LN34@RetInstr:
	inc	rbx
$LN12@RetInstr:

; 3226 :     }
; 3227 :     i++; /* skip directive */

	inc	edi

; 3228 :     if ( info->parasize || ( count != i ) )

	cmp	DWORD PTR [rcx+32], 0
	jne	SHORT $LN14@RetInstr
	cmp	r14d, edi
	je	SHORT $LN13@RetInstr
$LN14@RetInstr:

; 3229 :         *p++ = ' ';

	mov	BYTE PTR [rbx], 32			; 00000020H
	inc	rbx
$LN13@RetInstr:

; 3230 :     *p = NULLC;

	mov	BYTE PTR [rbx], 0

; 3231 :     /* RET without argument? Then calculate the value */
; 3232 :     if( is_iret == FALSE && count == i ) {

	test	sil, sil
	jne	$LN15@RetInstr
	cmp	r14d, edi
	jne	$LN15@RetInstr

; 3233 :         if ( ModuleInfo.epiloguemode != PEM_NONE ) {

	cmp	BYTE PTR ModuleInfo+425, 2
	je	$LN16@RetInstr

; 3234 :             switch( CurrProc->sym.langtype ) {

	mov	eax, DWORD PTR [r8+76]
	cmp	eax, 3
	je	SHORT $LN21@RetInstr
	jle	$LN16@RetInstr
	cmp	eax, 6
	jle	SHORT $LN18@RetInstr
	cmp	eax, 7
	jne	$LN16@RetInstr

; 3242 :             case LANG_FASTCALL:
; 3243 :                 fastcall_tab[ModuleInfo.fctype].handlereturn( CurrProc, buffer );

	movsxd	rax, DWORD PTR ModuleInfo+376
	lea	r9, OFFSET FLAT:fastcall_tab+8
	add	rax, rax
	lea	rdx, QWORD PTR buffer$[rsp]
	mov	rcx, r8
	call	QWORD PTR [r9+rax*8]

; 3244 :                 break;

	jmp	$LN16@RetInstr
$LN18@RetInstr:

; 3235 :             case LANG_BASIC:
; 3236 :             case LANG_FORTRAN:
; 3237 :             case LANG_PASCAL:
; 3238 :                 if( info->parasize != 0 ) {

	mov	r8d, DWORD PTR [rcx+32]
	test	r8d, r8d
	je	SHORT $LN16@RetInstr

; 3239 :                     sprintf( p, "%d%c", info->parasize, ModuleInfo.radix != 10 ? 't' : NULLC );

	xor	r9d, r9d
	lea	rdx, OFFSET FLAT:$SG12530
	cmp	BYTE PTR ModuleInfo+396, 10
	mov	eax, 116				; 00000074H
	mov	rcx, rbx
	cmovne	r9d, eax
	call	sprintf

; 3240 :                 }
; 3241 :                 break;

	jmp	SHORT $LN16@RetInstr
$LN21@RetInstr:

; 3245 :             case LANG_STDCALL:
; 3246 :                 if( !info->has_vararg && info->parasize != 0 ) {

	test	BYTE PTR [rcx+84], 1
	jne	SHORT $LN16@RetInstr
	mov	r8d, DWORD PTR [rcx+32]
	test	r8d, r8d
	je	SHORT $LN16@RetInstr

; 3247 :                     sprintf( p, "%d%c", info->parasize, ModuleInfo.radix != 10 ? 't' : NULLC  );

	xor	r9d, r9d
	lea	rdx, OFFSET FLAT:$SG12534
	cmp	BYTE PTR ModuleInfo+396, 10
	mov	eax, 116				; 00000074H
	mov	rcx, rbx
	cmovne	r9d, eax
	call	sprintf

; 3248 :                 }
; 3249 :                 break;
; 3250 :             }
; 3251 :         }
; 3252 :     } else {

	jmp	SHORT $LN16@RetInstr
$LN15@RetInstr:

; 3253 :         /* v2.04: changed. Now works for both RET nn and IRETx */
; 3254 :         /* v2.06: changed. Now works even if RET has ben "renamed" */
; 3255 :         strcpy( p, tokenarray[i].tokpos );

	movsxd	rax, edi
	shl	rax, 5
	mov	rcx, QWORD PTR [rax+rbp+24]
	sub	rbx, rcx
	npad	11
$LL25@RetInstr:
	movzx	eax, BYTE PTR [rcx]
	mov	BYTE PTR [rbx+rcx], al
	lea	rcx, QWORD PTR [rcx+1]
	test	al, al
	jne	SHORT $LL25@RetInstr
$LN16@RetInstr:

; 3256 :     }
; 3257 :     AddLineQueue( buffer );

	lea	rcx, QWORD PTR buffer$[rsp]
	call	AddLineQueue

; 3258 :     RunLineQueue();

	call	RunLineQueue

; 3259 : 
; 3260 :     DebugMsg1(( "RetInstr() exit\n" ));
; 3261 : 
; 3262 :     return( NOT_ERROR );

	xor	eax, eax
$LN1@RetInstr:

; 3263 : }

	lea	r11, QWORD PTR [rsp+640]
	mov	rbx, QWORD PTR [r11+16]
	mov	rbp, QWORD PTR [r11+24]
	mov	rsi, QWORD PTR [r11+32]
	mov	rdi, QWORD PTR [r11+40]
	mov	rsp, r11
	pop	r14
	ret	0
RetInstr ENDP
_TEXT	ENDS
; Function compile flags: /Ogtpy
; File d:\hjwasm\hjwasm2.13.1s\hjwasm2.13.1s\proc.c
_TEXT	SEGMENT
proc$ = 48
src$ = 56
CopyPrototype PROC

; 1601 : {

$LN21:
	push	rdi
	sub	rsp, 32					; 00000020H

; 1602 :     struct dsym *curr;
; 1603 :     struct dsym *newl;
; 1604 :     struct dsym *oldl;
; 1605 : 
; 1606 :     if ( src->sym.isproc == FALSE )

	test	BYTE PTR [rdx+41], 8
	mov	rdi, rcx
	jne	SHORT $LN8@CopyProtot

; 1607 :         return( ERROR );

	or	eax, -1

; 1634 : }

	add	rsp, 32					; 00000020H
	pop	rdi
	ret	0
$LN8@CopyProtot:

; 1608 :     memcpy(proc->e.procinfo, src->e.procinfo, sizeof( struct proc_info ) );

	mov	rax, QWORD PTR [rdx+96]
	mov	rcx, QWORD PTR [rcx+96]
	mov	QWORD PTR [rsp+48], rbx
	mov	QWORD PTR [rsp+56], rsi

; 1609 :     proc->sym.mem_type = src->sym.mem_type;
; 1610 :     proc->sym.langtype = src->sym.langtype;
; 1611 : #if MANGLERSUPP
; 1612 :     proc->sym.mangler  = src->sym.mangler;
; 1613 : #endif
; 1614 :     proc->sym.ispublic   = src->sym.ispublic;
; 1615 :     /* we use the PROTO part, not the TYPE part */
; 1616 :     //dir->sym.seg_ofssize = src->sym.Ofssize;
; 1617 :     proc->sym.seg_ofssize = src->sym.seg_ofssize;
; 1618 :     proc->sym.isproc = TRUE;
; 1619 :     proc->e.procinfo->paralist = NULL;

	xor	esi, esi
	movups	xmm0, XMMWORD PTR [rax]
	movups	XMMWORD PTR [rcx], xmm0
	movups	xmm1, XMMWORD PTR [rax+16]
	movups	XMMWORD PTR [rcx+16], xmm1
	movups	xmm0, XMMWORD PTR [rax+32]
	movups	XMMWORD PTR [rcx+32], xmm0
	movups	xmm1, XMMWORD PTR [rax+48]
	movups	XMMWORD PTR [rcx+48], xmm1
	movups	xmm0, XMMWORD PTR [rax+64]
	movups	XMMWORD PTR [rcx+64], xmm0
	movsd	xmm1, QWORD PTR [rax+80]
	movsd	QWORD PTR [rcx+80], xmm1
	mov	eax, DWORD PTR [rdx+36]
	mov	DWORD PTR [rdi+36], eax
	mov	eax, DWORD PTR [rdx+76]
	mov	DWORD PTR [rdi+76], eax
	movzx	eax, BYTE PTR [rdx+40]
	xor	al, BYTE PTR [rdi+40]
	and	al, 127					; 0000007fH
	xor	al, BYTE PTR [rdx+40]
	mov	BYTE PTR [rdi+40], al
	movzx	eax, BYTE PTR [rdx+47]
	xor	al, BYTE PTR [rdi+47]
	or	BYTE PTR [rdi+41], 8
	and	al, 3
	xor	BYTE PTR [rdi+47], al
	mov	rax, QWORD PTR [rdi+96]
	mov	QWORD PTR [rax+8], rsi

; 1620 :     for ( curr = src->e.procinfo->paralist; curr; curr = curr->nextparam ) {

	mov	rax, QWORD PTR [rdx+96]
	mov	rbx, QWORD PTR [rax+8]
	test	rbx, rbx
	je	$LN3@CopyProtot
$LL4@CopyProtot:

; 1621 :         newl = LclAlloc( sizeof( struct dsym ) );

	mov	ecx, 120				; 00000078H
	call	LclAlloc

; 1622 :         memcpy( newl, curr, sizeof( struct dsym ) );

	movups	xmm0, XMMWORD PTR [rbx]
	mov	rdx, rax
	movups	XMMWORD PTR [rax], xmm0
	movups	xmm1, XMMWORD PTR [rbx+16]
	movups	XMMWORD PTR [rax+16], xmm1
	movups	xmm0, XMMWORD PTR [rbx+32]
	movups	XMMWORD PTR [rax+32], xmm0
	movups	xmm1, XMMWORD PTR [rbx+48]
	movups	XMMWORD PTR [rax+48], xmm1
	movups	xmm0, XMMWORD PTR [rbx+64]
	movups	XMMWORD PTR [rax+64], xmm0
	movups	xmm1, XMMWORD PTR [rbx+80]
	movups	XMMWORD PTR [rax+80], xmm1
	movups	xmm0, XMMWORD PTR [rbx+96]
	movups	XMMWORD PTR [rax+96], xmm0

; 1623 :         newl->nextparam = NULL;

	mov	QWORD PTR [rax+112], rsi

; 1624 :         if ( proc->e.procinfo->paralist == NULL)

	mov	rax, QWORD PTR [rdi+96]
	mov	rcx, QWORD PTR [rax+8]
	test	rcx, rcx
	jne	SHORT $LN9@CopyProtot

; 1625 :             proc->e.procinfo->paralist = newl;

	mov	QWORD PTR [rax+8], rdx
	jmp	SHORT $LN2@CopyProtot
$LN9@CopyProtot:

; 1626 :         else {
; 1627 :             for ( oldl = proc->e.procinfo->paralist; oldl->nextparam; oldl = oldl->nextparam );

	mov	rax, QWORD PTR [rcx+112]
	test	rax, rax
	je	SHORT $LN6@CopyProtot
$LL7@CopyProtot:
	mov	rcx, rax
	mov	rax, QWORD PTR [rax+112]
	test	rax, rax
	jne	SHORT $LL7@CopyProtot
$LN6@CopyProtot:

; 1628 :             oldl->nextparam = newl;

	mov	QWORD PTR [rcx+112], rdx
$LN2@CopyProtot:

; 1620 :     for ( curr = src->e.procinfo->paralist; curr; curr = curr->nextparam ) {

	mov	rbx, QWORD PTR [rbx+112]
	test	rbx, rbx
	jne	SHORT $LL4@CopyProtot
$LN3@CopyProtot:
	mov	rsi, QWORD PTR [rsp+56]

; 1629 :         }
; 1630 :     }
; 1631 :     DebugMsg1(("CopyPrototype(%s,src=%s): ofssize=%u\n",
; 1632 :                proc->sym.name, src->sym.name, src->sym.seg_ofssize ));
; 1633 :     return( NOT_ERROR );

	xor	eax, eax
	mov	rbx, QWORD PTR [rsp+48]

; 1634 : }

	add	rsp, 32					; 00000020H
	pop	rdi
	ret	0
CopyPrototype ENDP
_TEXT	ENDS
; Function compile flags: /Ogtpy
; File d:\hjwasm\hjwasm2.13.1s\hjwasm2.13.1s\proc.c
_TEXT	SEGMENT
proc$ = 48
DeleteProc PROC

; 1366 : {

$LN15:
	sub	rsp, 40					; 00000028H

; 1367 :     struct dsym *curr;
; 1368 :     struct dsym *next;
; 1369 : 
; 1370 :     DebugMsg(("DeleteProc(%s) enter\n", proc->sym.name ));
; 1371 :     if ( proc->sym.state == SYM_INTERNAL ) {

	cmp	DWORD PTR [rcx+32], 1
	jne	SHORT $LN3@DeleteProc

; 1372 : 
; 1373 :         /* delete all local symbols ( params, locals, labels ) */
; 1374 :         for( curr = proc->e.procinfo->labellist; curr; ) {

	mov	rax, QWORD PTR [rcx+96]
	mov	rcx, QWORD PTR [rax+24]
	test	rcx, rcx
	je	SHORT $LN3@DeleteProc
	mov	QWORD PTR [rsp+32], rbx
	npad	4
$LL2@DeleteProc:

; 1375 :             next = curr->e.nextll;

	mov	rbx, QWORD PTR [rcx+96]

; 1376 :             DebugMsg(("DeleteProc(%s): free %s [next=%p]\n", proc->sym.name, curr->sym.name, curr->next ));
; 1377 :             SymFree( &curr->sym );

	call	SymFree

; 1378 :             curr = next;

	mov	rcx, rbx
	test	rbx, rbx
	jne	SHORT $LL2@DeleteProc
	mov	rbx, QWORD PTR [rsp+32]
$LN3@DeleteProc:

; 1379 :         }
; 1380 : 
; 1381 :         if ( proc->e.procinfo->regslist )
; 1382 :             LclFree( proc->e.procinfo->regslist );
; 1383 : 
; 1384 :         if ( proc->e.procinfo->prologuearg )
; 1385 :             LclFree( proc->e.procinfo->prologuearg );
; 1386 : 
; 1387 :         if ( Options.line_numbers && proc->sym.state == SYM_INTERNAL )
; 1388 :             LclFree( proc->sym.debuginfo );
; 1389 : #if FASTMEM==0 || defined(DEBUG_OUT)
; 1390 :     } else {
; 1391 :         /* PROTOs have just a parameter list, usually without names */
; 1392 :         for( curr = proc->e.procinfo->paralist; curr; ) {
; 1393 :             next = curr->nextparam;
; 1394 :             DebugMsg(("DeleteProc(%s): free %p (%s) [next=%p]\n", proc->sym.name, curr, curr->sym.name, curr->next ));
; 1395 :             SymFree( &curr->sym );
; 1396 :             curr = next;
; 1397 :         }
; 1398 : #endif
; 1399 :     }
; 1400 :     LclFree( proc->e.procinfo );
; 1401 :     return;
; 1402 : }

	add	rsp, 40					; 00000028H
	ret	0
DeleteProc ENDP
_TEXT	ENDS
; Function compile flags: /Ogtpy
; File d:\hjwasm\hjwasm2.13.1s\hjwasm2.13.1s\proc.c
_TEXT	SEGMENT
sym$ = 48
name$ = 56
state$ = 64
CreateProc PROC

; 1314 : {

$LN22:
	mov	QWORD PTR [rsp+8], rbx
	mov	QWORD PTR [rsp+16], rsi
	push	rdi
	sub	rsp, 32					; 00000020H

; 1315 :     if ( sym == NULL )

	lea	rsi, OFFSET FLAT:SymTables+16
	mov	edi, r8d
	mov	rbx, rcx
	test	rcx, rcx
	jne	SHORT $LN4@CreateProc

; 1316 :         sym = ( *name ? SymCreate( name ) : SymAlloc( name ) );

	mov	rcx, rdx
	cmp	BYTE PTR [rdx], bl
	je	SHORT $LN14@CreateProc
	call	SymCreate
	mov	rbx, rax
	jmp	SHORT $LN5@CreateProc
$LN14@CreateProc:
	call	SymAlloc
	mov	rbx, rax
	jmp	SHORT $LN5@CreateProc
$LN4@CreateProc:

; 1317 :     else
; 1318 :         sym_remove_table( ( sym->state == SYM_UNDEFINED ) ? &SymTables[TAB_UNDEF] : &SymTables[TAB_EXT], (struct dsym *)sym );

	cmp	DWORD PTR [rbx+32], 0
	lea	rcx, OFFSET FLAT:SymTables
	mov	rdx, rbx
	cmovne	rcx, rsi
	call	sym_remove_table
$LN5@CreateProc:

; 1319 : 
; 1320 :     if ( sym ) {

	test	rbx, rbx
	je	$LN19@CreateProc

; 1321 :         struct proc_info *info;
; 1322 :         sym->state = state;

	mov	DWORD PTR [rbx+32], edi

; 1323 :         if ( state != SYM_INTERNAL ) {

	cmp	edi, 1
	je	SHORT $LN7@CreateProc

; 1324 :             sym->seg_ofssize = ModuleInfo.Ofssize;

	movzx	eax, BYTE PTR [rbx+47]
	xor	al, BYTE PTR ModuleInfo+404
	and	al, 3
	xor	BYTE PTR [rbx+47], al
$LN7@CreateProc:

; 1325 :         }
; 1326 :         info = LclAlloc( sizeof( struct proc_info ) );

	mov	ecx, 88					; 00000058H
	call	LclAlloc

; 1327 :         ((struct dsym *)sym)->e.procinfo = info;
; 1328 :         info->regslist = NULL;

	xor	edx, edx
	mov	QWORD PTR [rbx+96], rax
	mov	QWORD PTR [rax], rdx

; 1329 :         info->paralist = NULL;

	mov	QWORD PTR [rax+8], rdx

; 1330 :         info->locallist = NULL;

	mov	QWORD PTR [rax+16], rdx

; 1331 :         info->labellist = NULL;

	mov	QWORD PTR [rax+24], rdx

; 1332 :         info->parasize = 0;

	mov	QWORD PTR [rax+32], rdx

; 1333 :         info->localsize = 0;
; 1334 :         info->prologuearg = NULL;

	mov	QWORD PTR [rax+40], rdx

; 1335 :         info->flags = 0;

	mov	BYTE PTR [rax+84], dl

; 1336 :         switch ( sym->state ) {

	mov	edx, DWORD PTR [rbx+32]
	sub	edx, 1
	je	SHORT $LN8@CreateProc
	cmp	edx, 1
	jne	SHORT $LN19@CreateProc

; 1351 :             }
; 1352 :             break;
; 1353 :         case SYM_EXTERNAL:
; 1354 :             sym->weak = TRUE;

	or	BYTE PTR [rbx+47], 8

; 1355 :             sym_add_table( &SymTables[TAB_EXT], (struct dsym *)sym );

	mov	rdx, rbx
	mov	rcx, rsi
	call	sym_add_table

; 1356 :             break;
; 1357 :         }
; 1358 :     }
; 1359 :     return( sym );

	mov	rax, rbx

; 1360 : }

	mov	rbx, QWORD PTR [rsp+48]
	mov	rsi, QWORD PTR [rsp+56]
	add	rsp, 32					; 00000020H
	pop	rdi
	ret	0
$LN8@CreateProc:

; 1337 :         case SYM_INTERNAL:
; 1338 :             /* v2.04: don't use sym_add_table() and thus
; 1339 :              * free the <next> member field!
; 1340 :              */
; 1341 :             if ( SymTables[TAB_PROC].head == NULL )

	cmp	QWORD PTR SymTables+64, 0
	jne	SHORT $LN9@CreateProc

; 1342 :                 SymTables[TAB_PROC].head = (struct dsym *)sym;

	mov	QWORD PTR SymTables+64, rbx
	jmp	SHORT $LN10@CreateProc
$LN9@CreateProc:

; 1343 :             else {
; 1344 :                 SymTables[TAB_PROC].tail->nextproc = (struct dsym *)sym;

	mov	rax, QWORD PTR SymTables+72
	mov	QWORD PTR [rax+112], rbx
$LN10@CreateProc:

; 1345 :             }
; 1346 :             SymTables[TAB_PROC].tail = (struct dsym *)sym;
; 1347 :             procidx++;

	inc	DWORD PTR procidx

; 1348 :             if ( Options.line_numbers ) {

	cmp	BYTE PTR Options+1, 0
	mov	QWORD PTR SymTables+72, rbx
	je	SHORT $LN19@CreateProc

; 1349 :                 sym->debuginfo = LclAlloc( sizeof( struct debug_info ) );

	mov	ecx, 24
	call	LclAlloc
	mov	QWORD PTR [rbx+64], rax

; 1350 :                 sym->debuginfo->file = get_curr_srcfile();

	call	get_curr_srcfile
	mov	rcx, QWORD PTR [rbx+64]
	mov	WORD PTR [rcx+14], ax
$LN19@CreateProc:

; 1360 : }

	mov	rsi, QWORD PTR [rsp+56]
	mov	rax, rbx
	mov	rbx, QWORD PTR [rsp+48]
	add	rsp, 32					; 00000020H
	pop	rdi
	ret	0
CreateProc ENDP
_TEXT	ENDS
; Function compile flags: /Ogtpy
; File d:\hjwasm\hjwasm2.13.1s\hjwasm2.13.1s\proc.c
_TEXT	SEGMENT
tv1302 = 96
proc$ = 96
i$ = 104
tokenarray$ = 112
IsPROC$ = 120
langtype$ = 128
ParseProc PROC

; 1000 : {

$LN124:
	mov	BYTE PTR [rsp+32], r9b
	mov	DWORD PTR [rsp+16], edx
	push	rbp
	push	rbx
	push	rsi
	push	rdi
	push	r12
	push	r13
	push	r15
	mov	rbp, rsp
	sub	rsp, 32					; 00000020H

; 1001 :     char            *token;
; 1002 :     uint_16         *regist;
; 1003 :     //int             type;
; 1004 :     //enum lang_type  langtype;
; 1005 :     enum memtype    newmemtype;
; 1006 :     uint_8          newofssize;
; 1007 :     uint_8          oldofssize;
; 1008 : #if FASTPASS
; 1009 :     bool            oldpublic = proc->sym.ispublic;

	movzx	r12d, BYTE PTR [rcx+40]

; 1010 : #endif
; 1011 : 
; 1012 :     /* set some default values */
; 1013 : 
; 1014 :     if ( IsPROC ) {

	lea	rdi, OFFSET FLAT:SpecialTable
	shr	r12b, 7
	xor	r13d, r13d
	movzx	r15d, r9b
	mov	rsi, r8
	mov	rbx, rcx
	test	r9b, r9b
	je	$LN16@ParseProc

; 1015 :         proc->e.procinfo->isexport = ModuleInfo.procs_export;

	mov	eax, DWORD PTR ModuleInfo+408
	mov	rdx, QWORD PTR [rcx+96]
	shr	eax, 3
	shl	al, 2
	xor	al, BYTE PTR [rdx+84]
	and	al, 4
	xor	BYTE PTR [rdx+84], al

; 1016 :         /* don't overwrite a PUBLIC directive for this symbol! */
; 1017 :         if ( ModuleInfo.procs_private == FALSE )

	test	BYTE PTR ModuleInfo+408, 4
	jne	SHORT $LN12@ParseProc

; 1018 :             proc->sym.ispublic = TRUE;

	or	BYTE PTR [rcx+40], 128			; 00000080H
$LN12@ParseProc:

; 1019 : 
; 1020 :         /* set type of epilog code */
; 1021 : #if STACKBASESUPP
; 1022 :         /* v2.11: if base register isn't [E|R]BP, don't use LEAVE! */
; 1023 :         if ( GetRegNo( proc->e.procinfo->basereg ) != 5 ) {

	mov	rdx, QWORD PTR [rcx+96]
	movzx	eax, WORD PTR [rdx+86]
	lea	rcx, QWORD PTR [rax+rax*2]
	cmp	BYTE PTR [rdi+rcx*4+10], 5
	je	SHORT $LN13@ParseProc

; 1024 :             proc->e.procinfo->pe_type = 0;

	and	BYTE PTR [rdx+84], 253			; 000000fdH

; 1025 :         } else

	jmp	SHORT $LN16@ParseProc
$LN13@ParseProc:

; 1026 : #endif
; 1027 :         if ( Options.masm_compat_gencode ) {

	cmp	BYTE PTR Options+128, r13b
	je	SHORT $LN15@ParseProc

; 1028 :             /* v2.07: Masm uses LEAVE if
; 1029 :              * - current code is 32-bit/64-bit or
; 1030 :              * - cpu is .286 or .586+ */
; 1031 :             //proc->e.procinfo->pe_type = ( ( ModuleInfo.curr_cpu & P_CPU_MASK ) >= P_286 );
; 1032 :             proc->e.procinfo->pe_type = ( ModuleInfo.Ofssize > USE16 ||

	cmp	BYTE PTR ModuleInfo+404, r13b
	ja	SHORT $LN83@ParseProc
	mov	eax, DWORD PTR ModuleInfo+392
	and	eax, 240				; 000000f0H
	cmp	eax, 32					; 00000020H
	je	SHORT $LN83@ParseProc
	cmp	eax, 80					; 00000050H
	mov	eax, r13d
	jl	SHORT $LN86@ParseProc
$LN83@ParseProc:
	mov	eax, 1

; 1033 :                                          ( ModuleInfo.curr_cpu & P_CPU_MASK ) == P_286 ||
; 1034 :                                          ( ModuleInfo.curr_cpu & P_CPU_MASK ) >= P_586 ) ? 1 : 0;
; 1035 :         } else {

	jmp	SHORT $LN86@ParseProc
$LN15@ParseProc:

; 1036 :             /* use LEAVE for 286, 386 (and x64) */
; 1037 :             proc->e.procinfo->pe_type = ( ( ModuleInfo.curr_cpu & P_CPU_MASK ) == P_286 ||

	mov	ecx, DWORD PTR ModuleInfo+392
	and	ecx, 240				; 000000f0H
	lea	eax, DWORD PTR [rcx-32]
	test	eax, -81				; ffffffafH
	jne	SHORT $LN106@ParseProc
	mov	eax, 1
	cmp	ecx, 96					; 00000060H
	jne	SHORT $LN86@ParseProc
$LN106@ParseProc:
	mov	eax, r13d
$LN86@ParseProc:
	and	BYTE PTR [rdx+84], 253			; 000000fdH
	and	al, 1
	add	al, al
	or	BYTE PTR [rdx+84], al
$LN16@ParseProc:

; 1038 : #if AMD64_SUPPORT
; 1039 :                                          ( ModuleInfo.curr_cpu & P_CPU_MASK ) == P_64 ||
; 1040 : #endif
; 1041 :                                          ( ModuleInfo.curr_cpu & P_CPU_MASK ) == P_386 ) ? 1 : 0;
; 1042 :         }
; 1043 :     }
; 1044 : 
; 1045 : #if MANGLERSUPP
; 1046 :     /* OW name mangling */
; 1047 :     if( tokenarray[i].token == T_STRING && IsPROC ) {
; 1048 :         /* SetMangler() will ignore LANG_NONE */
; 1049 :         SetMangler( &proc->sym, LANG_NONE, tokenarray[i].string_ptr );
; 1050 :         i++;
; 1051 :     }
; 1052 : #endif
; 1053 : 
; 1054 :     /* 1. attribute is <distance> */
; 1055 :     if ( tokenarray[i].token == T_STYPE &&
; 1056 :         tokenarray[i].tokval >= T_NEAR && tokenarray[i].tokval <= T_FAR32 ) {

	movsxd	rax, DWORD PTR i$[rbp-32]
	shl	rax, 5
	mov	QWORD PTR [rsp+112], r14
	cmp	BYTE PTR [rax+r8], 6
	jne	SHORT $LN17@ParseProc
	mov	ecx, DWORD PTR [rax+r8+16]
	lea	eax, DWORD PTR [rcx-221]
	cmp	eax, 5
	ja	SHORT $LN17@ParseProc

; 1057 :         uint_8 Ofssize = GetSflagsSp( tokenarray[i].tokval );

	lea	rcx, QWORD PTR [rcx+rcx*2]

; 1058 :         /* v2.06: SimpleType is obsolete */
; 1059 :         /* v2.05: FindStdType() is obsolete */
; 1060 :         //type = tokenarray[i].bytval;
; 1061 :         //type = FindStdType(tokenarray[i].value);
; 1062 :         if ( IsPROC ) {
; 1063 :             if ( ( ModuleInfo.Ofssize >= USE32 && Ofssize == USE16 ) ||

	movzx	edx, BYTE PTR ModuleInfo+404
	movzx	r15d, BYTE PTR [rdi+rcx*4+4]
	cmp	BYTE PTR IsPROC$[rbp-32], r13b
	je	SHORT $LN20@ParseProc
	cmp	dl, 1
	jb	SHORT $LN22@ParseProc
	test	r15b, r15b
	je	SHORT $LN21@ParseProc
$LN22@ParseProc:
	test	dl, dl
	jne	SHORT $LN20@ParseProc
	cmp	r15b, 1
	jne	SHORT $LN20@ParseProc
$LN21@ParseProc:

; 1064 :                 ( ModuleInfo.Ofssize == USE16 && Ofssize == USE32 ) ) {
; 1065 :                 EmitError( DISTANCE_INVALID );

	mov	ecx, 171				; 000000abH
	call	EmitError
	movzx	edx, BYTE PTR ModuleInfo+404
$LN20@ParseProc:

; 1066 :             }
; 1067 :         }
; 1068 :         newmemtype = GetMemtypeSp( tokenarray[i].tokval );

	movsxd	rax, DWORD PTR i$[rbp-32]
	shl	rax, 5

; 1069 :         newofssize = (( Ofssize != USE_EMPTY ) ? Ofssize : ModuleInfo.Ofssize );

	cmp	r15b, 254				; 000000feH
	movzx	r14d, dl
	mov	eax, DWORD PTR [rax+rsi+16]
	lea	rcx, QWORD PTR [rax+rax*2]
	movzx	eax, r15b
	movzx	edi, BYTE PTR [rdi+rcx*4+10]
	cmovne	r14d, eax

; 1070 :         i++;

	inc	DWORD PTR i$[rbp-32]

; 1071 :     } else {

	movzx	r15d, BYTE PTR IsPROC$[rbp-32]
	jmp	SHORT $LN18@ParseProc
$LN17@ParseProc:

; 1072 :         newmemtype = ( ( SIZE_CODEPTR & ( 1 << ModuleInfo.model ) ) ? MT_FAR : MT_NEAR );

	mov	ecx, DWORD PTR ModuleInfo+360
	mov	edi, r13d

; 1073 :         newofssize = ModuleInfo.Ofssize;

	movzx	r14d, BYTE PTR ModuleInfo+404
	mov	eax, 1
	shl	eax, cl
	test	al, 112					; 00000070H
	setne	dil
	add	edi, 129				; 00000081H
$LN18@ParseProc:

; 1074 :     }
; 1075 : 
; 1076 :     /* v2.11: GetSymOfssize() cannot handle SYM_TYPE correctly */
; 1077 :     if ( proc->sym.state == SYM_TYPE )

	cmp	DWORD PTR [rbx+32], 7
	jne	SHORT $LN23@ParseProc

; 1078 :         oldofssize = proc->sym.seg_ofssize;

	movzx	eax, BYTE PTR [rbx+47]
	and	al, 3
	jmp	SHORT $LN24@ParseProc
$LN23@ParseProc:

; 1079 :     else
; 1080 :         oldofssize = GetSymOfssize( &proc->sym );

	mov	rcx, rbx
	call	GetSymOfssize
$LN24@ParseProc:

; 1081 : 
; 1082 :     /* did the distance attribute change? */
; 1083 :     if ( proc->sym.mem_type != MT_EMPTY &&

	mov	ecx, DWORD PTR [rbx+36]
	cmp	ecx, 192				; 000000c0H
	je	SHORT $LN25@ParseProc
	cmp	ecx, edi
	jne	SHORT $LN27@ParseProc
	cmp	al, r14b
	je	SHORT $LN25@ParseProc
$LN27@ParseProc:
	lea	eax, DWORD PTR [rcx-129]
	cmp	eax, 1
	jbe	SHORT $LN30@ParseProc

; 1089 :         else {
; 1090 :             return( EmitErr( SYMBOL_REDEFINITION, proc->sym.name ) );

	mov	rdx, QWORD PTR [rbx+8]
	mov	ecx, 143				; 0000008fH
	jmp	$LN120@ParseProc
$LN30@ParseProc:

; 1084 :         ( proc->sym.mem_type != newmemtype ||
; 1085 :          oldofssize != newofssize ) ) {
; 1086 :         DebugMsg(("ParseProc: error, memtype changed, old-new memtype=%X-%X, ofssize=%X-%X\n", proc->sym.mem_type, newmemtype, proc->sym.Ofssize, newofssize));
; 1087 :         if ( proc->sym.mem_type == MT_NEAR || proc->sym.mem_type == MT_FAR )
; 1088 :             EmitError( PROC_AND_PROTO_CALLING_CONV_CONFLICT );

	mov	ecx, 138				; 0000008aH
	call	EmitError

; 1091 :         }
; 1092 :     } else {

	jmp	SHORT $LN31@ParseProc
$LN25@ParseProc:

; 1093 :         proc->sym.mem_type = newmemtype;

	mov	DWORD PTR [rbx+36], edi

; 1094 :         if ( IsPROC == FALSE )

	test	r15b, r15b
	jne	SHORT $LN31@ParseProc

; 1095 :             proc->sym.seg_ofssize = newofssize;

	and	BYTE PTR [rbx+47], 252			; 000000fcH
	and	r14b, 3
	or	BYTE PTR [rbx+47], r14b
$LN31@ParseProc:

; 1096 :     }
; 1097 : 
; 1098 :     /* 2. attribute is <langtype> */
; 1099 :     /* v2.09: the default language value is now a function argument. This is because
; 1100 :      * EXTERN[DEF] allows to set the language attribute by:
; 1101 :      * EXTERN[DEF] <langtype> <name> PROTO ...
; 1102 :      * ( see CreateProto() in extern.c )
; 1103 :      */
; 1104 :     //langtype = ModuleInfo.langtype; /* set the default value */
; 1105 :     GetLangType( &i, tokenarray, &langtype ); /* optionally overwrite the value */

	lea	r8, QWORD PTR langtype$[rbp-32]
	mov	rdx, rsi
	lea	rcx, QWORD PTR i$[rbp-32]
	call	GetLangType

; 1106 :     /* has language changed? */
; 1107 :     if ( proc->sym.langtype != LANG_NONE && proc->sym.langtype != langtype ) {

	mov	edx, DWORD PTR [rbx+76]
	mov	eax, DWORD PTR langtype$[rbp-32]
	test	edx, edx
	je	SHORT $LN32@ParseProc
	cmp	edx, eax
	je	SHORT $LN32@ParseProc

; 1108 :         DebugMsg(("ParseProc: error, language changed, %u - %u\n", proc->sym.langtype, langtype ));
; 1109 :         EmitError( PROC_AND_PROTO_CALLING_CONV_CONFLICT );

	mov	ecx, 138				; 0000008aH
	call	EmitError

; 1110 :     } else

	jmp	SHORT $LN33@ParseProc
$LN32@ParseProc:

; 1111 :         proc->sym.langtype = langtype;

	mov	DWORD PTR [rbx+76], eax
$LN33@ParseProc:

; 1112 : 
; 1113 :     /* 3. attribute is <visibility> */
; 1114 :     /* note that reserved word PUBLIC is a directive! */
; 1115 :     /* PROTO does NOT accept PUBLIC! However,
; 1116 :      * PROTO accepts PRIVATE and EXPORT, but these attributes are just ignored!
; 1117 :      */
; 1118 : 
; 1119 :     if ( tokenarray[i].token == T_ID || tokenarray[i].token == T_DIRECTIVE ) {

	movsxd	rdx, DWORD PTR i$[rbp-32]
	mov	rax, rdx
	shl	rax, 5
	lea	rdi, QWORD PTR [rax+rsi]
	movzx	eax, BYTE PTR [rax+rsi]
	cmp	al, 8
	je	SHORT $LN35@ParseProc
	cmp	al, 3
	jne	$LN42@ParseProc
$LN35@ParseProc:

; 1120 :         token = tokenarray[i].string_ptr;

	mov	rdi, QWORD PTR [rdi+8]

; 1121 :         if ( _stricmp( token, "PRIVATE") == 0 ) {

	lea	rdx, OFFSET FLAT:$SG11711
	mov	rcx, rdi
	call	_stricmp
	test	eax, eax
	jne	SHORT $LN36@ParseProc

; 1122 :             if ( IsPROC ) { /* v2.11: ignore PRIVATE for PROTO */

	test	r15b, r15b
	je	SHORT $LN38@ParseProc

; 1123 :                 proc->sym.ispublic = FALSE;

	and	BYTE PTR [rbx+40], 123			; 0000007bH

; 1124 : #if FASTPASS
; 1125 :                 /* error if there was a PUBLIC directive! */
; 1126 :                 proc->sym.scoped = TRUE;

	or	BYTE PTR [rbx+40], 4

; 1127 :                 if ( oldpublic ) {

	test	r12b, r12b
	je	SHORT $LN39@ParseProc

; 1128 :                     SkipSavedState(); /* do a full pass-2 scan */

	call	SkipSavedState

; 1129 :                 }
; 1130 : #endif
; 1131 :                 proc->e.procinfo->isexport = FALSE;
; 1132 :             }
; 1133 :             i++;

	jmp	SHORT $LN39@ParseProc
$LN36@ParseProc:

; 1134 :         } else if ( IsPROC && (_stricmp(token, "PUBLIC") == 0 ) ) {

	test	r15b, r15b
	je	SHORT $LN40@ParseProc
	lea	rdx, OFFSET FLAT:$SG11716
	mov	rcx, rdi
	call	_stricmp
	test	eax, eax
	jne	SHORT $LN40@ParseProc

; 1135 :             proc->sym.ispublic = TRUE;

	or	BYTE PTR [rbx+40], 128			; 00000080H
$LN39@ParseProc:

; 1136 :             proc->e.procinfo->isexport = FALSE;

	mov	rax, QWORD PTR [rbx+96]
	and	BYTE PTR [rax+84], 251			; 000000fbH
$LN38@ParseProc:

; 1137 :             i++;

	mov	edx, DWORD PTR i$[rbp-32]
	inc	edx
	mov	DWORD PTR i$[rbp-32], edx
	jmp	SHORT $LN42@ParseProc
$LN40@ParseProc:

; 1138 :         } else if ( _stricmp(token, "EXPORT") == 0 ) {

	lea	rdx, OFFSET FLAT:$SG11718
	mov	rcx, rdi
	call	_stricmp
	test	eax, eax
	jne	SHORT $LN114@ParseProc

; 1139 :             DebugMsg1(("ParseProc(%s): EXPORT detected\n", proc->sym.name ));
; 1140 :             if ( IsPROC ) { /* v2.11: ignore EXPORT for PROTO */

	test	r15b, r15b
	je	SHORT $LN38@ParseProc

; 1141 :                 proc->sym.ispublic = TRUE;

	or	BYTE PTR [rbx+40], 128			; 00000080H

; 1142 :                 proc->e.procinfo->isexport = TRUE;

	mov	rax, QWORD PTR [rbx+96]
	or	BYTE PTR [rax+84], 4

; 1143 :                 /* v2.11: no export for 16-bit near */
; 1144 :                 if ( ModuleInfo.Ofssize == USE16 && proc->sym.mem_type == MT_NEAR )

	cmp	BYTE PTR ModuleInfo+404, r13b
	jne	SHORT $LN38@ParseProc
	cmp	DWORD PTR [rbx+36], 129			; 00000081H
	jne	SHORT $LN38@ParseProc

; 1145 :                     EmitErr( EXPORT_MUST_BE_FAR, proc->sym.name );

	mov	rdx, QWORD PTR [rbx+8]
	mov	ecx, 276				; 00000114H
	call	EmitErr
	mov	edx, DWORD PTR i$[rbp-32]
	inc	edx
	mov	DWORD PTR i$[rbp-32], edx
	jmp	SHORT $LN42@ParseProc
$LN114@ParseProc:

; 1146 :             }
; 1147 :             i++;

	mov	edx, DWORD PTR i$[rbp-32]
$LN42@ParseProc:

; 1148 :         }
; 1149 :     }
; 1150 : 
; 1151 :     /* 4. attribute is <prologuearg>, for PROC only.
; 1152 :      * it must be enclosed in <>
; 1153 :      */
; 1154 :     if ( IsPROC && tokenarray[i].token == T_STRING && tokenarray[i].string_delim == '<' ) {

	test	r15b, r15b
	je	$LN117@ParseProc
	movsxd	rcx, edx
	shl	rcx, 5
	add	rcx, rsi
	cmp	BYTE PTR [rcx], 9
	jne	$LN117@ParseProc
	cmp	BYTE PTR [rcx+1], 60			; 0000003cH
	jne	$LN117@ParseProc

; 1155 :         int idx = Token_Count + 1;

	mov	eax, DWORD PTR ModuleInfo+496
	lea	r12d, DWORD PTR [rax+1]

; 1156 :         int max;
; 1157 :         if ( ModuleInfo.prologuemode == PEM_NONE )

	movzx	eax, BYTE PTR ModuleInfo+424
	cmp	al, 2
	je	$LN3@ParseProc

; 1158 :             ; /* no prologue at all */
; 1159 :         else if ( ModuleInfo.prologuemode == PEM_MACRO ) {

	cmp	al, 1
	jne	SHORT $LN48@ParseProc

; 1160 :             proc->e.procinfo->prologuearg = LclAlloc( tokenarray[i].stringlen + 1 );

	mov	ecx, DWORD PTR [rcx+16]
	inc	ecx
	call	LclAlloc
	mov	rcx, QWORD PTR [rbx+96]
	mov	QWORD PTR [rcx+40], rax

; 1161 :             strcpy( proc->e.procinfo->prologuearg, tokenarray[i].string_ptr );

	movsxd	rax, DWORD PTR i$[rbp-32]
	shl	rax, 5
	mov	rcx, QWORD PTR [rax+rsi+8]
	mov	rax, QWORD PTR [rbx+96]
	mov	rdx, QWORD PTR [rax+40]
	npad	8
$LL89@ParseProc:
	movzx	eax, BYTE PTR [rcx]
	inc	rcx
	mov	BYTE PTR [rdx], al
	lea	rdx, QWORD PTR [rdx+1]
	test	al, al
	jne	SHORT $LL89@ParseProc

; 1162 :         } else {

	jmp	$LN121@ParseProc
$LN48@ParseProc:

; 1163 :             /* check the argument. The default prologue
; 1164 :              understands FORCEFRAME and LOADDS only
; 1165 :              */
; 1166 :             max = Tokenize( tokenarray[i].string_ptr, idx, tokenarray, TOK_RESCAN );

	mov	rcx, QWORD PTR [rcx+8]
	mov	r9d, 1
	mov	r8, rsi
	movsxd	r15, r12d
	mov	edx, r12d
	call	Tokenize

; 1167 :             for ( ; idx < max; idx++ ) {

	cdqe
	mov	QWORD PTR tv1302[rbp-32], rax
	cmp	r15, rax
	jge	$LN116@ParseProc

; 1155 :         int idx = Token_Count + 1;

	mov	rdi, r15
	lea	r14, QWORD PTR [r15+2]
	shl	rdi, 5
	add	rdi, rsi
	shl	r14, 5
	add	r14, rsi
$LL4@ParseProc:

; 1168 :                 if ( tokenarray[idx].token == T_ID ) {

	cmp	BYTE PTR [rdi], 8
	jne	$LN50@ParseProc

; 1169 :                     if ( _stricmp( tokenarray[idx].string_ptr, "FORCEFRAME") == 0 ) {

	mov	rcx, QWORD PTR [rdi+8]
	lea	rdx, OFFSET FLAT:$SG11730
	call	_stricmp
	test	eax, eax
	jne	SHORT $LN52@ParseProc

; 1170 :                         proc->e.procinfo->forceframe = TRUE;

	mov	rax, QWORD PTR [rbx+96]
	or	BYTE PTR [rax+84], 8
	jmp	SHORT $LN57@ParseProc
$LN52@ParseProc:

; 1171 : #if AMD64_SUPPORT
; 1172 :                     } else if ( ModuleInfo.Ofssize != USE64 && (_stricmp( tokenarray[idx].string_ptr, "LOADDS") == 0 ) ) {

	cmp	BYTE PTR ModuleInfo+404, 2
	je	$LN54@ParseProc
	mov	rcx, QWORD PTR [rdi+8]
	lea	rdx, OFFSET FLAT:$SG11733
	call	_stricmp
	test	eax, eax
	jne	$LN54@ParseProc

; 1173 : #else
; 1174 :                     } else if ( _stricmp( tokenarray[idx].string_ptr, "LOADDS") == 0 ) {
; 1175 : #endif
; 1176 :                         if ( ModuleInfo.model == MODEL_FLAT ) {

	cmp	DWORD PTR ModuleInfo+360, 7
	jne	SHORT $LN56@ParseProc

; 1177 :                             EmitWarn( 2, LOADDS_IGNORED_IN_FLAT_MODEL );

	mov	edx, 226				; 000000e2H
	lea	ecx, QWORD PTR [rax+2]
	call	EmitWarn

; 1178 :                         } else

	jmp	SHORT $LN57@ParseProc
$LN56@ParseProc:

; 1179 :                             proc->e.procinfo->loadds = TRUE;

	mov	rax, QWORD PTR [rbx+96]
	or	BYTE PTR [rax+84], 16
$LN57@ParseProc:

; 1182 :                     }
; 1183 :                     if ( tokenarray[idx+1].token == T_COMMA && tokenarray[idx+2].token != T_FINAL)

	cmp	BYTE PTR [rdi+32], 44			; 0000002cH
	jne	SHORT $LN2@ParseProc
	cmp	BYTE PTR [r14], r13b
	je	SHORT $LN2@ParseProc

; 1184 :                         idx++;

	inc	r12d
	inc	r15
	add	rdi, 32					; 00000020H
	add	r14, 32					; 00000020H
$LN2@ParseProc:

; 1167 :             for ( ; idx < max; idx++ ) {

	inc	r12d
	inc	r15
	add	rdi, 32					; 00000020H
	add	r14, 32					; 00000020H
	cmp	r15, QWORD PTR tv1302[rbp-32]
	jl	$LL4@ParseProc
$LN116@ParseProc:
	movzx	r15d, BYTE PTR IsPROC$[rbp-32]
$LN121@ParseProc:

; 1185 :                 } else {
; 1186 :                     return( EmitErr( SYNTAX_ERROR_EX, tokenarray[idx].string_ptr ) );

	mov	edx, DWORD PTR i$[rbp-32]
$LN3@ParseProc:

; 1187 :                 }
; 1188 :             }
; 1189 :         }
; 1190 :         i++;

	inc	edx
	mov	DWORD PTR i$[rbp-32], edx
$LN117@ParseProc:

; 1191 :     }
; 1192 : 
; 1193 : #if AMD64_SUPPORT
; 1194 :     /* check for optional FRAME[:exc_proc] */
; 1195 :     if ( ModuleInfo.Ofssize == USE64 &&
; 1196 :         IsPROC &&
; 1197 :         tokenarray[i].token == T_RES_ID &&

	cmp	BYTE PTR ModuleInfo+404, 2
	jne	$LN59@ParseProc
	test	r15b, r15b
	je	$LN59@ParseProc
	movsxd	rax, edx
	shl	rax, 5
	cmp	BYTE PTR [rax+rsi], 7
	jne	$LN59@ParseProc
	cmp	DWORD PTR [rax+rsi+16], 263		; 00000107H
	jne	$LN59@ParseProc

; 1198 :         tokenarray[i].tokval == T_FRAME ) {
; 1199 :         /* v2.05: don't accept FRAME for ELF */
; 1200 :         if ( Options.output_format != OFORMAT_COFF
; 1201 : #if PE_SUPPORT
; 1202 :             && ModuleInfo.sub_format != SFORMAT_PE

	cmp	DWORD PTR Options+144, 2
	je	SHORT $LN60@ParseProc
	cmp	DWORD PTR ModuleInfo+372, 2
	je	SHORT $LN60@ParseProc

; 1203 : #endif
; 1204 :            ) {
; 1205 :             return( EmitErr( NOT_SUPPORTED_WITH_CURR_FORMAT, GetResWName( T_FRAME, NULL ) ) );

	xor	edx, edx
	mov	ecx, 263				; 00000107H
	call	GetResWName
	mov	rdx, rax
	mov	ecx, 224				; 000000e0H
	jmp	$LN120@ParseProc
$LN54@ParseProc:

; 1180 :                     } else {
; 1181 :                         return( EmitErr( UNKNOWN_DEFAULT_PROLOGUE_ARGUMENT, tokenarray[idx].string_ptr ) );

	movsxd	rdx, r12d
	mov	ecx, 225				; 000000e1H
	shl	rdx, 5
	mov	rdx, QWORD PTR [rdx+rsi+8]
	jmp	$LN120@ParseProc
$LN50@ParseProc:

; 1185 :                 } else {
; 1186 :                     return( EmitErr( SYNTAX_ERROR_EX, tokenarray[idx].string_ptr ) );

	movsxd	rdx, r12d
	shl	rdx, 5
	mov	rdx, QWORD PTR [rdx+rsi+8]
	jmp	$LN122@ParseProc
$LN60@ParseProc:

; 1206 :         }
; 1207 :         i++;

	inc	edx

; 1208 :         if( tokenarray[i].token == T_COLON ) {

	movsxd	rax, edx
	shl	rax, 5
	mov	DWORD PTR i$[rbp-32], edx
	cmp	BYTE PTR [rax+rsi], 58			; 0000003aH
	jne	SHORT $LN61@ParseProc

; 1209 :             struct asym *sym;
; 1210 :             i++;

	inc	edx

; 1211 :             if ( tokenarray[i].token != T_ID ) {

	movsxd	rcx, edx
	shl	rcx, 5
	mov	DWORD PTR i$[rbp-32], edx
	cmp	BYTE PTR [rcx+rsi], 8
	je	SHORT $LN63@ParseProc

; 1212 :                 return( EmitErr( SYNTAX_ERROR_EX, tokenarray[i].string_ptr ) );

	mov	rdx, QWORD PTR [rcx+rsi+8]
	jmp	$LN122@ParseProc
$LN63@ParseProc:

; 1213 :             }
; 1214 :             sym = SymSearch( tokenarray[i].string_ptr );

	mov	rcx, QWORD PTR [rcx+rsi+8]
	call	SymFind
	mov	rdi, rax

; 1215 :             if ( sym == NULL ) {

	test	rax, rax
	jne	SHORT $LN64@ParseProc

; 1216 :                 sym = SymCreate( tokenarray[i].string_ptr );

	movsxd	rcx, DWORD PTR i$[rbp-32]
	shl	rcx, 5
	mov	rcx, QWORD PTR [rcx+rsi+8]
	call	SymCreate

; 1217 :                 sym->state = SYM_UNDEFINED;
; 1218 :                 sym->used = TRUE;
; 1219 :                 sym_add_table( &SymTables[TAB_UNDEF], (struct dsym *)sym ); /* add UNDEFINED */

	mov	rdx, rax
	lea	rcx, OFFSET FLAT:SymTables
	mov	rdi, rax
	or	BYTE PTR [rax+40], 1
	mov	DWORD PTR [rax+32], r13d
	call	sym_add_table
$LN66@ParseProc:

; 1224 :             }
; 1225 :             proc->e.procinfo->exc_handler = sym;

	mov	rax, QWORD PTR [rbx+96]
	mov	QWORD PTR [rax+48], rdi

; 1226 :             i++;

	inc	DWORD PTR i$[rbp-32]

; 1227 :         } else

	jmp	SHORT $LN62@ParseProc
$LN64@ParseProc:
	cmp	DWORD PTR [rax+32], 2
	jbe	SHORT $LN66@ParseProc

; 1220 :             } else if ( sym->state != SYM_UNDEFINED &&
; 1221 :                        sym->state != SYM_INTERNAL &&
; 1222 :                        sym->state != SYM_EXTERNAL ) {
; 1223 :                 return( EmitErr( SYMBOL_REDEFINITION, sym->name ) );

	mov	rdx, QWORD PTR [rax+8]
	mov	ecx, 143				; 0000008fH
	jmp	$LN120@ParseProc
$LN61@ParseProc:

; 1228 :             proc->e.procinfo->exc_handler = NULL;

	mov	rax, QWORD PTR [rbx+96]
	mov	QWORD PTR [rax+48], r13
$LN62@ParseProc:

; 1229 :         proc->e.procinfo->isframe = TRUE;

	mov	rax, QWORD PTR [rbx+96]
	or	BYTE PTR [rax+84], 64			; 00000040H
	mov	edx, DWORD PTR i$[rbp-32]
$LN59@ParseProc:

; 1230 :     }
; 1231 : #endif
; 1232 :     /* check for USES */
; 1233 :     if ( tokenarray[i].token == T_ID && _stricmp( tokenarray[i].string_ptr, "USES" ) == 0 ) {

	movsxd	rax, edx
	shl	rax, 5
	cmp	BYTE PTR [rax+rsi], 8
	jne	$LN9@ParseProc
	mov	rcx, QWORD PTR [rax+rsi+8]
	lea	rdx, OFFSET FLAT:$SG11746
	call	_stricmp
	test	eax, eax
	jne	$LN119@ParseProc

; 1234 :         int cnt;
; 1235 :         int j;
; 1236 :         if ( !IsPROC ) {/* not for PROTO! */

	test	r15b, r15b
	jne	SHORT $LN68@ParseProc

; 1237 :             DebugMsg(("ParseProc: USES found in PROTO\n"));
; 1238 :             EmitErr( SYNTAX_ERROR_EX, tokenarray[i].string_ptr );

	movsxd	rdx, DWORD PTR i$[rbp-32]
	mov	ecx, 209				; 000000d1H
	shl	rdx, 5
	mov	rdx, QWORD PTR [rdx+rsi+8]
	call	EmitErr
$LN68@ParseProc:

; 1239 :         }
; 1240 :         i++;

	mov	eax, DWORD PTR i$[rbp-32]
	inc	eax

; 1241 :         /* count register names which follow */
; 1242 :         for ( cnt = 0, j = i; tokenarray[j].token == T_REG; j++, cnt++ );

	movsxd	rcx, eax
	mov	rdx, rcx
	mov	DWORD PTR i$[rbp-32], eax
	shl	rdx, 5
	cmp	BYTE PTR [rdx+rsi], 2
	jne	$LN105@ParseProc
	shl	rcx, 5
	add	rcx, rsi
	npad	5
$LL7@ParseProc:
	lea	rcx, QWORD PTR [rcx+32]
	inc	r13d
	cmp	BYTE PTR [rcx], 2
	je	SHORT $LL7@ParseProc

; 1243 : 
; 1244 :         if ( cnt == 0 ) {

	test	r13d, r13d
	je	SHORT $LN105@ParseProc

; 1247 :         } else {
; 1248 :             regist = LclAlloc( (cnt + 1) * sizeof( uint_16 ) );

	lea	eax, DWORD PTR [r13+1]
	movsxd	rcx, eax
	add	rcx, rcx
	call	LclAlloc

; 1249 :             proc->e.procinfo->regslist = regist;

	mov	rcx, QWORD PTR [rbx+96]

; 1250 :             *regist++ = cnt;

	lea	rdi, QWORD PTR [rax+2]
	mov	QWORD PTR [rcx], rax
	mov	WORD PTR [rax], r13w

; 1251 :             /* read in registers */
; 1252 :             for( ; tokenarray[i].token == T_REG; i++ ) {

	movsxd	rdx, DWORD PTR i$[rbp-32]
	mov	rcx, rdx
	shl	rcx, 5
	cmp	BYTE PTR [rcx+rsi], 2
	lea	rax, QWORD PTR [rcx+rsi]
	jne	SHORT $LN9@ParseProc
$LL10@ParseProc:

; 1253 :                 if ( SizeFromRegister( tokenarray[i].tokval ) == 1 ) {

	mov	ecx, DWORD PTR [rax+16]
	call	SizeFromRegister
	cmp	eax, 1
	jne	SHORT $LN71@ParseProc

; 1254 :                     EmitError( INVALID_USE_OF_REGISTER );

	mov	ecx, 170				; 000000aaH
	call	EmitError
$LN71@ParseProc:

; 1255 :                 }
; 1256 :                 *regist++ = tokenarray[i].tokval;

	movsxd	rax, DWORD PTR i$[rbp-32]
	shl	rax, 5
	movzx	eax, WORD PTR [rax+rsi+16]
	mov	WORD PTR [rdi], ax
	add	rdi, 2
	mov	edx, DWORD PTR i$[rbp-32]
	inc	edx
	movsxd	rax, edx
	shl	rax, 5
	add	rax, rsi
	mov	DWORD PTR i$[rbp-32], edx
	cmp	BYTE PTR [rax], 2
	je	SHORT $LL10@ParseProc

; 1251 :             /* read in registers */
; 1252 :             for( ; tokenarray[i].token == T_REG; i++ ) {

	jmp	SHORT $LN9@ParseProc
$LN105@ParseProc:

; 1245 :             DebugMsg(("ParseProc: no registers for regslist\n"));
; 1246 :             EmitErr( SYNTAX_ERROR_EX, tokenarray[i-1].tokpos );

	mov	rdx, QWORD PTR [rdx+rsi-8]
	mov	ecx, 209				; 000000d1H
	call	EmitErr
$LN119@ParseProc:
	mov	edx, DWORD PTR i$[rbp-32]
$LN9@ParseProc:

; 1257 :             }
; 1258 :         }
; 1259 :     }
; 1260 : 
; 1261 :     /* the parameters must follow */
; 1262 :     if ( tokenarray[i].token == T_STYPE || tokenarray[i].token == T_RES_ID || tokenarray[i].token == T_DIRECTIVE ) {

	movsxd	r8, edx
	shl	r8, 5
	movzx	ecx, BYTE PTR [r8+rsi]
	lea	eax, DWORD PTR [rcx-6]
	cmp	al, 1
	jbe	$LN73@ParseProc
	cmp	cl, 3
	je	$LN73@ParseProc

; 1264 :     }
; 1265 : 
; 1266 :     /* skip optional comma */
; 1267 :     if ( tokenarray[i].token == T_COMMA )

	cmp	cl, 44					; 0000002cH
	jne	SHORT $LN74@ParseProc

; 1268 :         i++;

	inc	edx
	mov	DWORD PTR i$[rbp-32], edx
$LN74@ParseProc:

; 1269 : 
; 1270 :     DebugMsg1(("ParseProc(%s): i=%u, Token_Count=%u, CurrWordSize=%u\n", proc->sym.name, i, Token_Count, CurrWordSize ));
; 1271 : 
; 1272 :     if( i >= Token_Count ) {

	cmp	edx, DWORD PTR ModuleInfo+496
	jl	SHORT $LN75@ParseProc

; 1273 :         /* procedure has no parameters at all */
; 1274 :         if ( proc->e.procinfo->paralist != NULL )

	mov	rax, QWORD PTR [rbx+96]
	cmp	QWORD PTR [rax+8], 0
	je	SHORT $LN81@ParseProc

; 1275 :             EmitErr( CONFLICTING_PARAMETER_DEFINITION, "" );

	lea	rdx, OFFSET FLAT:$SG11757
	mov	ecx, 137				; 00000089H
	call	EmitErr

; 1287 :             /* do proceed if the parameter scan returns an error */
; 1288 :             ;//return( ERROR );
; 1289 :     }
; 1290 : 
; 1291 :     /* v2.11: isdefined and isproc now set here */
; 1292 :     proc->sym.isdefined = TRUE;

	or	BYTE PTR [rbx+40], 2

; 1293 :     proc->sym.isproc = TRUE;

	or	BYTE PTR [rbx+41], 8

; 1294 :     //proc->e.procinfo->init_done = TRUE;
; 1295 :     DebugMsg1(("ParseProc(%s): memtype=%Xh parasize=%u\n", proc->sym.name, proc->sym.mem_type, proc->e.procinfo->parasize));
; 1296 : 
; 1297 :     return( NOT_ERROR );

	xor	eax, eax
	jmp	SHORT $LN1@ParseProc
$LN75@ParseProc:

; 1276 :     } else if( proc->sym.langtype == LANG_NONE ) {

	cmp	DWORD PTR [rbx+76], 0
	jne	SHORT $LN78@ParseProc

; 1277 :         EmitError( LANG_MUST_BE_SPECIFIED );

	mov	ecx, 91					; 0000005bH
	call	EmitError

; 1287 :             /* do proceed if the parameter scan returns an error */
; 1288 :             ;//return( ERROR );
; 1289 :     }
; 1290 : 
; 1291 :     /* v2.11: isdefined and isproc now set here */
; 1292 :     proc->sym.isdefined = TRUE;

	or	BYTE PTR [rbx+40], 2

; 1293 :     proc->sym.isproc = TRUE;

	or	BYTE PTR [rbx+41], 8

; 1294 :     //proc->e.procinfo->init_done = TRUE;
; 1295 :     DebugMsg1(("ParseProc(%s): memtype=%Xh parasize=%u\n", proc->sym.name, proc->sym.mem_type, proc->e.procinfo->parasize));
; 1296 : 
; 1297 :     return( NOT_ERROR );

	xor	eax, eax
	jmp	SHORT $LN1@ParseProc
$LN78@ParseProc:

; 1278 :     } else {
; 1279 :         /* v2.05: set PROC's vararg flag BEFORE params are scanned! */
; 1280 :         if ( tokenarray[Token_Count - 1].token == T_RES_ID &&

	movsxd	rax, DWORD PTR ModuleInfo+496
	shl	rax, 5
	cmp	BYTE PTR [rax+rsi-32], 7
	jne	SHORT $LN80@ParseProc
	cmp	DWORD PTR [rax+rsi-16], 262		; 00000106H
	jne	SHORT $LN80@ParseProc

; 1281 :             tokenarray[Token_Count - 1].tokval == T_VARARG )
; 1282 :             proc->e.procinfo->has_vararg = TRUE;

	mov	rax, QWORD PTR [rbx+96]
	or	BYTE PTR [rax+84], 1
	mov	edx, DWORD PTR i$[rbp-32]
$LN80@ParseProc:

; 1283 :         /* v2.04: removed, comma is checked above already */
; 1284 :         //if( tokenarray[i].token == T_COMMA )
; 1285 :         //    i++;
; 1286 :         if ( ERROR == ParseParams( proc, i, tokenarray, IsPROC ) )

	movzx	r9d, r15b
	mov	r8, rsi
	mov	rcx, rbx
	call	ParseParams
$LN81@ParseProc:

; 1287 :             /* do proceed if the parameter scan returns an error */
; 1288 :             ;//return( ERROR );
; 1289 :     }
; 1290 : 
; 1291 :     /* v2.11: isdefined and isproc now set here */
; 1292 :     proc->sym.isdefined = TRUE;

	or	BYTE PTR [rbx+40], 2

; 1293 :     proc->sym.isproc = TRUE;

	or	BYTE PTR [rbx+41], 8

; 1294 :     //proc->e.procinfo->init_done = TRUE;
; 1295 :     DebugMsg1(("ParseProc(%s): memtype=%Xh parasize=%u\n", proc->sym.name, proc->sym.mem_type, proc->e.procinfo->parasize));
; 1296 : 
; 1297 :     return( NOT_ERROR );

	xor	eax, eax
	jmp	SHORT $LN1@ParseProc
$LN73@ParseProc:

; 1263 :         return( EmitErr( SYNTAX_ERROR_EX, tokenarray[i].string_ptr ) );

	mov	rdx, QWORD PTR [r8+rsi+8]
$LN122@ParseProc:
	mov	ecx, 209				; 000000d1H
$LN120@ParseProc:
	call	EmitErr
$LN1@ParseProc:
	mov	r14, QWORD PTR [rsp+112]

; 1298 : }

	add	rsp, 32					; 00000020H
	pop	r15
	pop	r13
	pop	r12
	pop	rdi
	pop	rsi
	pop	rbx
	pop	rbp
	ret	0
ParseProc ENDP
_TEXT	ENDS
; Function compile flags: /Ogtpy
; File c:\program files (x86)\windows kits\10\include\10.0.10150.0\ucrt\stdio.h
;	COMDAT sprintf
_TEXT	SEGMENT
_Buffer$ = 80
_Format$ = 88
sprintf	PROC						; COMDAT

; 1776 : {

$LN8:
	mov	QWORD PTR [rsp+16], rdx
	mov	QWORD PTR [rsp+24], r8
	mov	QWORD PTR [rsp+32], r9
	push	rbx
	push	rsi
	push	rdi
	sub	rsp, 48					; 00000030H
	mov	rbx, rdx

; 1777 :     int _Result;
; 1778 :     va_list _ArgList;
; 1779 :     __crt_va_start(_ArgList, _Format);

	lea	rsi, QWORD PTR _Format$[rsp+8]
	mov	rdi, rcx

; 1780 : 
; 1781 :     #pragma warning(push)
; 1782 :     #pragma warning(disable: 4996) // Deprecation
; 1783 :     _Result = _vsprintf_l(_Buffer, _Format, NULL, _ArgList);

	call	__local_stdio_printf_options
	mov	r9, rbx
	mov	QWORD PTR [rsp+40], rsi
	or	rbx, -1
	mov	QWORD PTR [rsp+32], 0
	mov	r8, rbx
	mov	rdx, rdi
	mov	rcx, QWORD PTR [rax]
	or	rcx, 1
	call	__stdio_common_vsprintf
	test	eax, eax
	cmovs	eax, ebx

; 1784 :     #pragma warning(pop)
; 1785 : 
; 1786 :     __crt_va_end(_ArgList);
; 1787 :     return _Result;
; 1788 : }

	add	rsp, 48					; 00000030H
	pop	rdi
	pop	rsi
	pop	rbx
	ret	0
sprintf	ENDP
_TEXT	ENDS
; Function compile flags: /Ogtpy
; File c:\program files (x86)\windows kits\10\include\10.0.10150.0\ucrt\stdio.h
;	COMDAT _vsprintf_l
_TEXT	SEGMENT
_Buffer$ = 64
_Format$ = 72
_Locale$ = 80
_ArgList$ = 88
_vsprintf_l PROC					; COMDAT

; 1455 : {

$LN6:
	mov	QWORD PTR [rsp+8], rbx
	mov	QWORD PTR [rsp+16], rbp
	mov	QWORD PTR [rsp+24], rsi
	push	rdi
	sub	rsp, 48					; 00000030H
	mov	rbx, r9
	mov	rdi, r8
	mov	rsi, rdx
	mov	rbp, rcx

; 1456 :     #pragma warning(push)
; 1457 :     #pragma warning(disable: 4996) // Deprecation
; 1458 :     return _vsnprintf_l(_Buffer, (size_t)-1, _Format, _Locale, _ArgList);

	call	__local_stdio_printf_options
	mov	QWORD PTR [rsp+40], rbx
	mov	r9, rsi
	or	rbx, -1
	mov	QWORD PTR [rsp+32], rdi
	mov	r8, rbx
	mov	rdx, rbp
	mov	rcx, QWORD PTR [rax]
	or	rcx, 1
	call	__stdio_common_vsprintf

; 1459 :     #pragma warning(pop)
; 1460 : }

	mov	rbp, QWORD PTR [rsp+72]
	test	eax, eax
	mov	rsi, QWORD PTR [rsp+80]
	cmovs	eax, ebx
	mov	rbx, QWORD PTR [rsp+64]
	add	rsp, 48					; 00000030H
	pop	rdi
	ret	0
_vsprintf_l ENDP
_TEXT	ENDS
; Function compile flags: /Ogtpy
; File c:\program files (x86)\windows kits\10\include\10.0.10150.0\ucrt\stdio.h
;	COMDAT _vsnprintf_l
_TEXT	SEGMENT
_Buffer$ = 64
_BufferCount$ = 72
_Format$ = 80
_Locale$ = 88
_ArgList$ = 96
_vsnprintf_l PROC					; COMDAT

; 1385 : {

$LN4:
	mov	QWORD PTR [rsp+8], rbx
	mov	QWORD PTR [rsp+16], rbp
	mov	QWORD PTR [rsp+24], rsi
	push	rdi
	sub	rsp, 48					; 00000030H
	mov	rbx, r9
	mov	rdi, r8
	mov	rsi, rdx
	mov	rbp, rcx

; 1386 :     int const _Result = __stdio_common_vsprintf(

	call	__local_stdio_printf_options
	mov	r9, rdi
	mov	r8, rsi
	mov	rdx, rbp
	mov	rcx, QWORD PTR [rax]
	mov	rax, QWORD PTR _ArgList$[rsp]
	or	rcx, 1
	mov	QWORD PTR [rsp+40], rax
	mov	QWORD PTR [rsp+32], rbx
	call	__stdio_common_vsprintf

; 1387 :         _CRT_INTERNAL_LOCAL_PRINTF_OPTIONS | _CRT_INTERNAL_PRINTF_LEGACY_VSPRINTF_NULL_TERMINATION,
; 1388 :         _Buffer, _BufferCount, _Format, _Locale, _ArgList);
; 1389 : 
; 1390 :     return _Result < 0 ? -1 : _Result;
; 1391 : }

	mov	rbx, QWORD PTR [rsp+64]
	or	ecx, -1
	mov	rbp, QWORD PTR [rsp+72]
	test	eax, eax
	mov	rsi, QWORD PTR [rsp+80]
	cmovs	eax, ecx
	add	rsp, 48					; 00000030H
	pop	rdi
	ret	0
_vsnprintf_l ENDP
_TEXT	ENDS
; Function compile flags: /Ogtpy
; File c:\program files (x86)\windows kits\10\include\10.0.10150.0\ucrt\stdio.h
;	COMDAT printf
_TEXT	SEGMENT
_Format$ = 80
printf	PROC						; COMDAT

; 950  : {

$LN6:
	mov	QWORD PTR [rsp+8], rcx
	mov	QWORD PTR [rsp+16], rdx
	mov	QWORD PTR [rsp+24], r8
	mov	QWORD PTR [rsp+32], r9
	push	rbx
	push	rsi
	push	rdi
	sub	rsp, 48					; 00000030H
	mov	rdi, rcx

; 951  :     int _Result;
; 952  :     va_list _ArgList;
; 953  :     __crt_va_start(_ArgList, _Format);

	lea	rsi, QWORD PTR _Format$[rsp+8]

; 954  :     _Result = _vfprintf_l(stdout, _Format, NULL, _ArgList);

	mov	ecx, 1
	call	__acrt_iob_func
	mov	rbx, rax
	call	__local_stdio_printf_options
	xor	r9d, r9d
	mov	QWORD PTR [rsp+32], rsi
	mov	r8, rdi
	mov	rdx, rbx
	mov	rcx, QWORD PTR [rax]
	call	__stdio_common_vfprintf

; 955  :     __crt_va_end(_ArgList);
; 956  :     return _Result;
; 957  : }

	add	rsp, 48					; 00000030H
	pop	rdi
	pop	rsi
	pop	rbx
	ret	0
printf	ENDP
_TEXT	ENDS
; Function compile flags: /Ogtpy
; File c:\program files (x86)\windows kits\10\include\10.0.10150.0\ucrt\stdio.h
;	COMDAT _vfprintf_l
_TEXT	SEGMENT
_Stream$ = 64
_Format$ = 72
_Locale$ = 80
_ArgList$ = 88
_vfprintf_l PROC					; COMDAT

; 638  : {

$LN4:
	mov	QWORD PTR [rsp+8], rbx
	mov	QWORD PTR [rsp+16], rbp
	mov	QWORD PTR [rsp+24], rsi
	push	rdi
	sub	rsp, 48					; 00000030H
	mov	rbx, r9
	mov	rdi, r8
	mov	rsi, rdx
	mov	rbp, rcx

; 639  :     return __stdio_common_vfprintf(_CRT_INTERNAL_LOCAL_PRINTF_OPTIONS, _Stream, _Format, _Locale, _ArgList);

	call	__local_stdio_printf_options
	mov	r9, rdi
	mov	QWORD PTR [rsp+32], rbx
	mov	r8, rsi
	mov	rdx, rbp
	mov	rcx, QWORD PTR [rax]
	call	__stdio_common_vfprintf

; 640  : }

	mov	rbx, QWORD PTR [rsp+64]
	mov	rbp, QWORD PTR [rsp+72]
	mov	rsi, QWORD PTR [rsp+80]
	add	rsp, 48					; 00000030H
	pop	rdi
	ret	0
_vfprintf_l ENDP
_TEXT	ENDS
; Function compile flags: /Ogtpy
; File c:\program files (x86)\windows kits\10\include\10.0.10150.0\ucrt\corecrt_stdio_config.h
;	COMDAT __local_stdio_printf_options
_TEXT	SEGMENT
__local_stdio_printf_options PROC			; COMDAT

; 74   :     static unsigned __int64 _OptionsStorage;
; 75   :     return &_OptionsStorage;

	lea	rax, OFFSET FLAT:?_OptionsStorage@?1??__local_stdio_printf_options@@9@9 ; `__local_stdio_printf_options'::`2'::_OptionsStorage

; 76   : }

	ret	0
__local_stdio_printf_options ENDP
_TEXT	ENDS
END
