; Listing generated by Microsoft (R) Optimizing Compiler Version 19.00.23026.0 

include listing.inc

INCLUDELIB LIBCMT
INCLUDELIB OLDNAMES

PUBLIC	opnd_clstab
PUBLIC	ResWordTable
PUBLIC	vex_flags
PUBLIC	InstrTable
PUBLIC	SpecialTable
PUBLIC	optable_idx
_DATA	SEGMENT
COMM	decoflags:BYTE
COMM	broadflags:BYTE
_DATA	ENDS
_DATA	SEGMENT
ResWordTable DW	00H
	DB	00H
	DB	00H
	ORG $+4
	DQ	0000000000000000H
	DW	00H
	DB	02H
	DB	00H
	ORG $+4
	DQ	0000000000000000H
	DW	00H
	DB	02H
	DB	00H
	ORG $+4
	DQ	0000000000000000H
	DW	00H
	DB	02H
	DB	00H
	ORG $+4
	DQ	0000000000000000H
	DW	00H
	DB	02H
	DB	00H
	ORG $+4
	DQ	0000000000000000H
	DW	00H
	DB	02H
	DB	00H
	ORG $+4
	DQ	0000000000000000H
	DW	00H
	DB	02H
	DB	00H
	ORG $+4
	DQ	0000000000000000H
	DW	00H
	DB	02H
	DB	00H
	ORG $+4
	DQ	0000000000000000H
	DW	00H
	DB	02H
	DB	00H
	ORG $+4
	DQ	0000000000000000H
	DW	00H
	DB	02H
	DB	00H
	ORG $+4
	DQ	0000000000000000H
	DW	00H
	DB	02H
	DB	00H
	ORG $+4
	DQ	0000000000000000H
	DW	00H
	DB	02H
	DB	00H
	ORG $+4
	DQ	0000000000000000H
	DW	00H
	DB	02H
	DB	00H
	ORG $+4
	DQ	0000000000000000H
	DW	00H
	DB	02H
	DB	00H
	ORG $+4
	DQ	0000000000000000H
	DW	00H
	DB	02H
	DB	00H
	ORG $+4
	DQ	0000000000000000H
	DW	00H
	DB	02H
	DB	00H
	ORG $+4
	DQ	0000000000000000H
	DW	00H
	DB	02H
	DB	00H
	ORG $+4
	DQ	0000000000000000H
	DW	00H
	DB	03H
	DB	00H
	ORG $+4
	DQ	0000000000000000H
	DW	00H
	DB	03H
	DB	00H
	ORG $+4
	DQ	0000000000000000H
	DW	00H
	DB	03H
	DB	00H
	ORG $+4
	DQ	0000000000000000H
	DW	00H
	DB	03H
	DB	00H
	ORG $+4
	DQ	0000000000000000H
	DW	00H
	DB	03H
	DB	00H
	ORG $+4
	DQ	0000000000000000H
	DW	00H
	DB	03H
	DB	00H
	ORG $+4
	DQ	0000000000000000H
	DW	00H
	DB	03H
	DB	00H
	ORG $+4
	DQ	0000000000000000H
	DW	00H
	DB	03H
	DB	00H
	ORG $+4
	DQ	0000000000000000H
	DW	00H
	DB	02H
	DB	00H
	ORG $+4
	DQ	0000000000000000H
	DW	00H
	DB	02H
	DB	00H
	ORG $+4
	DQ	0000000000000000H
	DW	00H
	DB	02H
	DB	00H
	ORG $+4
	DQ	0000000000000000H
	DW	00H
	DB	02H
	DB	00H
	ORG $+4
	DQ	0000000000000000H
	DW	00H
	DB	02H
	DB	00H
	ORG $+4
	DQ	0000000000000000H
	DW	00H
	DB	02H
	DB	00H
	ORG $+4
	DQ	0000000000000000H
	DW	00H
	DB	02H
	DB	00H
	ORG $+4
	DQ	0000000000000000H
	DW	00H
	DB	03H
	DB	00H
	ORG $+4
	DQ	0000000000000000H
	DW	00H
	DB	03H
	DB	00H
	ORG $+4
	DQ	0000000000000000H
	DW	00H
	DB	03H
	DB	00H
	ORG $+4
	DQ	0000000000000000H
	DW	00H
	DB	03H
	DB	00H
	ORG $+4
	DQ	0000000000000000H
	DW	00H
	DB	03H
	DB	00H
	ORG $+4
	DQ	0000000000000000H
	DW	00H
	DB	03H
	DB	00H
	ORG $+4
	DQ	0000000000000000H
	DW	00H
	DB	03H
	DB	00H
	ORG $+4
	DQ	0000000000000000H
	DW	00H
	DB	03H
	DB	00H
	ORG $+4
	DQ	0000000000000000H
	DW	00H
	DB	04H
	DB	00H
	ORG $+4
	DQ	0000000000000000H
	DW	00H
	DB	04H
	DB	00H
	ORG $+4
	DQ	0000000000000000H
	DW	00H
	DB	04H
	DB	00H
	ORG $+4
	DQ	0000000000000000H
	DW	00H
	DB	04H
	DB	00H
	ORG $+4
	DQ	0000000000000000H
	DW	00H
	DB	04H
	DB	00H
	ORG $+4
	DQ	0000000000000000H
	DW	00H
	DB	04H
	DB	00H
	ORG $+4
	DQ	0000000000000000H
	DW	00H
	DB	04H
	DB	00H
	ORG $+4
	DQ	0000000000000000H
	DW	00H
	DB	04H
	DB	00H
	ORG $+4
	DQ	0000000000000000H
	DW	00H
	DB	02H
	DB	00H
	ORG $+4
	DQ	0000000000000000H
	DW	00H
	DB	02H
	DB	00H
	ORG $+4
	DQ	0000000000000000H
	DW	00H
	DB	02H
	DB	00H
	ORG $+4
	DQ	0000000000000000H
	DW	00H
	DB	02H
	DB	00H
	ORG $+4
	DQ	0000000000000000H
	DW	00H
	DB	02H
	DB	00H
	ORG $+4
	DQ	0000000000000000H
	DW	00H
	DB	02H
	DB	00H
	ORG $+4
	DQ	0000000000000000H
	DW	00H
	DB	02H
	DB	00H
	ORG $+4
	DQ	0000000000000000H
	DW	00H
	DB	02H
	DB	00H
	ORG $+4
	DQ	0000000000000000H
	DW	00H
	DB	04H
	DB	00H
	ORG $+4
	DQ	0000000000000000H
	DW	00H
	DB	04H
	DB	00H
	ORG $+4
	DQ	0000000000000000H
	DW	00H
	DB	04H
	DB	00H
	ORG $+4
	DQ	0000000000000000H
	DW	00H
	DB	04H
	DB	00H
	ORG $+4
	DQ	0000000000000000H
	DW	00H
	DB	04H
	DB	00H
	ORG $+4
	DQ	0000000000000000H
	DW	00H
	DB	04H
	DB	00H
	ORG $+4
	DQ	0000000000000000H
	DW	00H
	DB	04H
	DB	00H
	ORG $+4
	DQ	0000000000000000H
	DW	00H
	DB	04H
	DB	00H
	ORG $+4
	DQ	0000000000000000H
	DW	00H
	DB	04H
	DB	00H
	ORG $+4
	DQ	0000000000000000H
	DW	00H
	DB	04H
	DB	00H
	ORG $+4
	DQ	0000000000000000H
	DW	00H
	DB	04H
	DB	00H
	ORG $+4
	DQ	0000000000000000H
	DW	00H
	DB	04H
	DB	00H
	ORG $+4
	DQ	0000000000000000H
	DW	00H
	DB	04H
	DB	00H
	ORG $+4
	DQ	0000000000000000H
	DW	00H
	DB	04H
	DB	00H
	ORG $+4
	DQ	0000000000000000H
	DW	00H
	DB	04H
	DB	00H
	ORG $+4
	DQ	0000000000000000H
	DW	00H
	DB	04H
	DB	00H
	ORG $+4
	DQ	0000000000000000H
	DW	00H
	DB	03H
	DB	00H
	ORG $+4
	DQ	0000000000000000H
	DW	00H
	DB	03H
	DB	00H
	ORG $+4
	DQ	0000000000000000H
	DW	00H
	DB	03H
	DB	00H
	ORG $+4
	DQ	0000000000000000H
	DW	00H
	DB	03H
	DB	00H
	ORG $+4
	DQ	0000000000000000H
	DW	00H
	DB	03H
	DB	00H
	ORG $+4
	DQ	0000000000000000H
	DW	00H
	DB	03H
	DB	00H
	ORG $+4
	DQ	0000000000000000H
	DW	00H
	DB	03H
	DB	00H
	ORG $+4
	DQ	0000000000000000H
	DW	00H
	DB	03H
	DB	00H
	ORG $+4
	DQ	0000000000000000H
	DW	00H
	DB	03H
	DB	00H
	ORG $+4
	DQ	0000000000000000H
	DW	00H
	DB	03H
	DB	00H
	ORG $+4
	DQ	0000000000000000H
	DW	00H
	DB	03H
	DB	02H
	ORG $+4
	DQ	0000000000000000H
	DW	00H
	DB	03H
	DB	02H
	ORG $+4
	DQ	0000000000000000H
	DW	00H
	DB	03H
	DB	02H
	ORG $+4
	DQ	0000000000000000H
	DW	00H
	DB	03H
	DB	02H
	ORG $+4
	DQ	0000000000000000H
	DW	00H
	DB	03H
	DB	02H
	ORG $+4
	DQ	0000000000000000H
	DW	00H
	DB	03H
	DB	04H
	ORG $+4
	DQ	0000000000000000H
	DW	00H
	DB	03H
	DB	04H
	ORG $+4
	DQ	0000000000000000H
	DW	00H
	DB	03H
	DB	04H
	ORG $+4
	DQ	0000000000000000H
	DW	00H
	DB	03H
	DB	04H
	ORG $+4
	DQ	0000000000000000H
	DW	00H
	DB	03H
	DB	04H
	ORG $+4
	DQ	0000000000000000H
	DW	00H
	DB	03H
	DB	04H
	ORG $+4
	DQ	0000000000000000H
	DW	00H
	DB	04H
	DB	04H
	ORG $+4
	DQ	0000000000000000H
	DW	00H
	DB	04H
	DB	04H
	ORG $+4
	DQ	0000000000000000H
	DW	00H
	DB	04H
	DB	04H
	ORG $+4
	DQ	0000000000000000H
	DW	00H
	DB	04H
	DB	04H
	ORG $+4
	DQ	0000000000000000H
	DW	00H
	DB	04H
	DB	04H
	ORG $+4
	DQ	0000000000000000H
	DW	00H
	DB	04H
	DB	04H
	ORG $+4
	DQ	0000000000000000H
	DW	00H
	DB	03H
	DB	04H
	ORG $+4
	DQ	0000000000000000H
	DW	00H
	DB	03H
	DB	04H
	ORG $+4
	DQ	0000000000000000H
	DW	00H
	DB	04H
	DB	04H
	ORG $+4
	DQ	0000000000000000H
	DW	00H
	DB	04H
	DB	04H
	ORG $+4
	DQ	0000000000000000H
	DW	00H
	DB	04H
	DB	04H
	ORG $+4
	DQ	0000000000000000H
	DW	00H
	DB	04H
	DB	04H
	ORG $+4
	DQ	0000000000000000H
	DW	00H
	DB	04H
	DB	04H
	ORG $+4
	DQ	0000000000000000H
	DW	00H
	DB	04H
	DB	04H
	ORG $+4
	DQ	0000000000000000H
	DW	00H
	DB	03H
	DB	04H
	ORG $+4
	DQ	0000000000000000H
	DW	00H
	DB	03H
	DB	04H
	ORG $+4
	DQ	0000000000000000H
	DW	00H
	DB	04H
	DB	04H
	ORG $+4
	DQ	0000000000000000H
	DW	00H
	DB	04H
	DB	04H
	ORG $+4
	DQ	0000000000000000H
	DW	00H
	DB	04H
	DB	04H
	ORG $+4
	DQ	0000000000000000H
	DW	00H
	DB	04H
	DB	04H
	ORG $+4
	DQ	0000000000000000H
	DW	00H
	DB	04H
	DB	04H
	ORG $+4
	DQ	0000000000000000H
	DW	00H
	DB	04H
	DB	04H
	ORG $+4
	DQ	0000000000000000H
	DW	00H
	DB	03H
	DB	04H
	ORG $+4
	DQ	0000000000000000H
	DW	00H
	DB	03H
	DB	04H
	ORG $+4
	DQ	0000000000000000H
	DW	00H
	DB	03H
	DB	04H
	ORG $+4
	DQ	0000000000000000H
	DW	00H
	DB	03H
	DB	04H
	ORG $+4
	DQ	0000000000000000H
	DW	00H
	DB	03H
	DB	04H
	ORG $+4
	DQ	0000000000000000H
	DW	00H
	DB	03H
	DB	04H
	ORG $+4
	DQ	0000000000000000H
	DW	00H
	DB	03H
	DB	04H
	ORG $+4
	DQ	0000000000000000H
	DW	00H
	DB	03H
	DB	04H
	ORG $+4
	DQ	0000000000000000H
	DW	00H
	DB	02H
	DB	04H
	ORG $+4
	DQ	0000000000000000H
	DW	00H
	DB	02H
	DB	04H
	ORG $+4
	DQ	0000000000000000H
	DW	00H
	DB	03H
	DB	04H
	ORG $+4
	DQ	0000000000000000H
	DW	00H
	DB	03H
	DB	04H
	ORG $+4
	DQ	0000000000000000H
	DW	00H
	DB	03H
	DB	04H
	ORG $+4
	DQ	0000000000000000H
	DW	00H
	DB	03H
	DB	04H
	ORG $+4
	DQ	0000000000000000H
	DW	00H
	DB	03H
	DB	04H
	ORG $+4
	DQ	0000000000000000H
	DW	00H
	DB	03H
	DB	04H
	ORG $+4
	DQ	0000000000000000H
	DW	00H
	DB	03H
	DB	04H
	ORG $+4
	DQ	0000000000000000H
	DW	00H
	DB	04H
	DB	04H
	ORG $+4
	DQ	0000000000000000H
	DW	00H
	DB	04H
	DB	04H
	ORG $+4
	DQ	0000000000000000H
	DW	00H
	DB	05H
	DB	04H
	ORG $+4
	DQ	0000000000000000H
	DW	00H
	DB	05H
	DB	04H
	ORG $+4
	DQ	0000000000000000H
	DW	00H
	DB	05H
	DB	04H
	ORG $+4
	DQ	0000000000000000H
	DW	00H
	DB	05H
	DB	04H
	ORG $+4
	DQ	0000000000000000H
	DW	00H
	DB	05H
	DB	04H
	ORG $+4
	DQ	0000000000000000H
	DW	00H
	DB	05H
	DB	04H
	ORG $+4
	DQ	0000000000000000H
	DW	00H
	DB	05H
	DB	04H
	ORG $+4
	DQ	0000000000000000H
	DW	00H
	DB	05H
	DB	04H
	ORG $+4
	DQ	0000000000000000H
	DW	00H
	DB	05H
	DB	04H
	ORG $+4
	DQ	0000000000000000H
	DW	00H
	DB	05H
	DB	04H
	ORG $+4
	DQ	0000000000000000H
	DW	00H
	DB	05H
	DB	04H
	ORG $+4
	DQ	0000000000000000H
	DW	00H
	DB	05H
	DB	04H
	ORG $+4
	DQ	0000000000000000H
	DW	00H
	DB	05H
	DB	04H
	ORG $+4
	DQ	0000000000000000H
	DW	00H
	DB	05H
	DB	04H
	ORG $+4
	DQ	0000000000000000H
	DW	00H
	DB	05H
	DB	04H
	ORG $+4
	DQ	0000000000000000H
	DW	00H
	DB	05H
	DB	04H
	ORG $+4
	DQ	0000000000000000H
	DW	00H
	DB	05H
	DB	04H
	ORG $+4
	DQ	0000000000000000H
	DW	00H
	DB	05H
	DB	04H
	ORG $+4
	DQ	0000000000000000H
	DW	00H
	DB	05H
	DB	04H
	ORG $+4
	DQ	0000000000000000H
	DW	00H
	DB	05H
	DB	04H
	ORG $+4
	DQ	0000000000000000H
	DW	00H
	DB	05H
	DB	04H
	ORG $+4
	DQ	0000000000000000H
	DW	00H
	DB	05H
	DB	04H
	ORG $+4
	DQ	0000000000000000H
	DW	00H
	DB	04H
	DB	04H
	ORG $+4
	DQ	0000000000000000H
	DW	00H
	DB	04H
	DB	04H
	ORG $+4
	DQ	0000000000000000H
	DW	00H
	DB	05H
	DB	04H
	ORG $+4
	DQ	0000000000000000H
	DW	00H
	DB	05H
	DB	04H
	ORG $+4
	DQ	0000000000000000H
	DW	00H
	DB	05H
	DB	04H
	ORG $+4
	DQ	0000000000000000H
	DW	00H
	DB	05H
	DB	04H
	ORG $+4
	DQ	0000000000000000H
	DW	00H
	DB	05H
	DB	04H
	ORG $+4
	DQ	0000000000000000H
	DW	00H
	DB	05H
	DB	04H
	ORG $+4
	DQ	0000000000000000H
	DW	00H
	DB	05H
	DB	04H
	ORG $+4
	DQ	0000000000000000H
	DW	00H
	DB	05H
	DB	04H
	ORG $+4
	DQ	0000000000000000H
	DW	00H
	DB	05H
	DB	04H
	ORG $+4
	DQ	0000000000000000H
	DW	00H
	DB	05H
	DB	04H
	ORG $+4
	DQ	0000000000000000H
	DW	00H
	DB	05H
	DB	04H
	ORG $+4
	DQ	0000000000000000H
	DW	00H
	DB	05H
	DB	04H
	ORG $+4
	DQ	0000000000000000H
	DW	00H
	DB	05H
	DB	04H
	ORG $+4
	DQ	0000000000000000H
	DW	00H
	DB	05H
	DB	04H
	ORG $+4
	DQ	0000000000000000H
	DW	00H
	DB	05H
	DB	04H
	ORG $+4
	DQ	0000000000000000H
	DW	00H
	DB	05H
	DB	04H
	ORG $+4
	DQ	0000000000000000H
	DW	00H
	DB	05H
	DB	04H
	ORG $+4
	DQ	0000000000000000H
	DW	00H
	DB	05H
	DB	04H
	ORG $+4
	DQ	0000000000000000H
	DW	00H
	DB	05H
	DB	04H
	ORG $+4
	DQ	0000000000000000H
	DW	00H
	DB	05H
	DB	04H
	ORG $+4
	DQ	0000000000000000H
	DW	00H
	DB	05H
	DB	04H
	ORG $+4
	DQ	0000000000000000H
	DW	00H
	DB	05H
	DB	04H
	ORG $+4
	DQ	0000000000000000H
	DW	00H
	DB	04H
	DB	04H
	ORG $+4
	DQ	0000000000000000H
	DW	00H
	DB	04H
	DB	04H
	ORG $+4
	DQ	0000000000000000H
	DW	00H
	DB	05H
	DB	04H
	ORG $+4
	DQ	0000000000000000H
	DW	00H
	DB	05H
	DB	04H
	ORG $+4
	DQ	0000000000000000H
	DW	00H
	DB	05H
	DB	04H
	ORG $+4
	DQ	0000000000000000H
	DW	00H
	DB	05H
	DB	04H
	ORG $+4
	DQ	0000000000000000H
	DW	00H
	DB	05H
	DB	04H
	ORG $+4
	DQ	0000000000000000H
	DW	00H
	DB	05H
	DB	04H
	ORG $+4
	DQ	0000000000000000H
	DW	00H
	DB	05H
	DB	04H
	ORG $+4
	DQ	0000000000000000H
	DW	00H
	DB	05H
	DB	04H
	ORG $+4
	DQ	0000000000000000H
	DW	00H
	DB	05H
	DB	04H
	ORG $+4
	DQ	0000000000000000H
	DW	00H
	DB	05H
	DB	04H
	ORG $+4
	DQ	0000000000000000H
	DW	00H
	DB	05H
	DB	04H
	ORG $+4
	DQ	0000000000000000H
	DW	00H
	DB	05H
	DB	04H
	ORG $+4
	DQ	0000000000000000H
	DW	00H
	DB	05H
	DB	04H
	ORG $+4
	DQ	0000000000000000H
	DW	00H
	DB	05H
	DB	04H
	ORG $+4
	DQ	0000000000000000H
	DW	00H
	DB	05H
	DB	04H
	ORG $+4
	DQ	0000000000000000H
	DW	00H
	DB	05H
	DB	04H
	ORG $+4
	DQ	0000000000000000H
	DW	00H
	DB	05H
	DB	04H
	ORG $+4
	DQ	0000000000000000H
	DW	00H
	DB	05H
	DB	04H
	ORG $+4
	DQ	0000000000000000H
	DW	00H
	DB	05H
	DB	04H
	ORG $+4
	DQ	0000000000000000H
	DW	00H
	DB	05H
	DB	04H
	ORG $+4
	DQ	0000000000000000H
	DW	00H
	DB	05H
	DB	04H
	ORG $+4
	DQ	0000000000000000H
	DW	00H
	DB	05H
	DB	04H
	ORG $+4
	DQ	0000000000000000H
	DW	00H
	DB	03H
	DB	04H
	ORG $+4
	DQ	0000000000000000H
	DW	00H
	DB	04H
	DB	00H
	ORG $+4
	DQ	0000000000000000H
	DW	00H
	DB	05H
	DB	00H
	ORG $+4
	DQ	0000000000000000H
	DW	00H
	DB	04H
	DB	00H
	ORG $+4
	DQ	0000000000000000H
	DW	00H
	DB	05H
	DB	00H
	ORG $+4
	DQ	0000000000000000H
	DW	00H
	DB	05H
	DB	00H
	ORG $+4
	DQ	0000000000000000H
	DW	00H
	DB	06H
	DB	00H
	ORG $+4
	DQ	0000000000000000H
	DW	00H
	DB	05H
	DB	00H
	ORG $+4
	DQ	0000000000000000H
	DW	00H
	DB	05H
	DB	00H
	ORG $+4
	DQ	0000000000000000H
	DW	00H
	DB	05H
	DB	00H
	ORG $+4
	DQ	0000000000000000H
	DW	00H
	DB	06H
	DB	00H
	ORG $+4
	DQ	0000000000000000H
	DW	00H
	DB	05H
	DB	00H
	ORG $+4
	DQ	0000000000000000H
	DW	00H
	DB	05H
	DB	00H
	ORG $+4
	DQ	0000000000000000H
	DW	00H
	DB	06H
	DB	00H
	ORG $+4
	DQ	0000000000000000H
	DW	00H
	DB	05H
	DB	00H
	ORG $+4
	DQ	0000000000000000H
	DW	00H
	DB	07H
	DB	00H
	ORG $+4
	DQ	0000000000000000H
	DW	00H
	DB	07H
	DB	00H
	ORG $+4
	DQ	0000000000000000H
	DW	00H
	DB	04H
	DB	00H
	ORG $+4
	DQ	0000000000000000H
	DW	00H
	DB	03H
	DB	00H
	ORG $+4
	DQ	0000000000000000H
	DW	00H
	DB	06H
	DB	00H
	ORG $+4
	DQ	0000000000000000H
	DW	00H
	DB	06H
	DB	00H
	ORG $+4
	DQ	0000000000000000H
	DW	00H
	DB	05H
	DB	00H
	ORG $+4
	DQ	0000000000000000H
	DW	00H
	DB	05H
	DB	00H
	ORG $+4
	DQ	0000000000000000H
	DW	00H
	DB	06H
	DB	00H
	ORG $+4
	DQ	0000000000000000H
	DW	00H
	DB	07H
	DB	00H
	ORG $+4
	DQ	0000000000000000H
	DW	00H
	DB	05H
	DB	00H
	ORG $+4
	DQ	0000000000000000H
	DW	00H
	DB	04H
	DB	00H
	ORG $+4
	DQ	0000000000000000H
	DW	00H
	DB	06H
	DB	00H
	ORG $+4
	DQ	0000000000000000H
	DW	00H
	DB	08H
	DB	00H
	ORG $+4
	DQ	0000000000000000H
	DW	00H
	DB	08H
	DB	00H
	ORG $+4
	DQ	0000000000000000H
	DW	00H
	DB	06H
	DB	00H
	ORG $+4
	DQ	0000000000000000H
	DW	00H
	DB	08H
	DB	00H
	ORG $+4
	DQ	0000000000000000H
	DW	00H
	DB	03H
	DB	00H
	ORG $+4
	DQ	0000000000000000H
	DW	00H
	DB	05H
	DB	00H
	ORG $+4
	DQ	0000000000000000H
	DW	00H
	DB	07H
	DB	00H
	ORG $+4
	DQ	0000000000000000H
	DW	00H
	DB	08H
	DB	00H
	ORG $+4
	DQ	0000000000000000H
	DW	00H
	DB	04H
	DB	00H
	ORG $+4
	DQ	0000000000000000H
	DW	00H
	DB	06H
	DB	00H
	ORG $+4
	DQ	0000000000000000H
	DW	00H
	DB	06H
	DB	00H
	ORG $+4
	DQ	0000000000000000H
	DW	00H
	DB	0aH
	DB	00H
	ORG $+4
	DQ	0000000000000000H
	DW	00H
	DB	03H
	DB	00H
	ORG $+4
	DQ	0000000000000000H
	DW	00H
	DB	05H
	DB	00H
	ORG $+4
	DQ	0000000000000000H
	DW	00H
	DB	04H
	DB	00H
	ORG $+4
	DQ	0000000000000000H
	DW	00H
	DB	06H
	DB	00H
	ORG $+4
	DQ	0000000000000000H
	DW	00H
	DB	04H
	DB	00H
	ORG $+4
	DQ	0000000000000000H
	DW	00H
	DB	04H
	DB	00H
	ORG $+4
	DQ	0000000000000000H
	DW	00H
	DB	05H
	DB	00H
	ORG $+4
	DQ	0000000000000000H
	DW	00H
	DB	02H
	DB	00H
	ORG $+4
	DQ	0000000000000000H
	DW	00H
	DB	02H
	DB	00H
	ORG $+4
	DQ	0000000000000000H
	DW	00H
	DB	02H
	DB	00H
	ORG $+4
	DQ	0000000000000000H
	DW	00H
	DB	02H
	DB	00H
	ORG $+4
	DQ	0000000000000000H
	DW	00H
	DB	02H
	DB	00H
	ORG $+4
	DQ	0000000000000000H
	DW	00H
	DB	02H
	DB	00H
	ORG $+4
	DQ	0000000000000000H
	DW	00H
	DB	03H
	DB	00H
	ORG $+4
	DQ	0000000000000000H
	DW	00H
	DB	03H
	DB	00H
	ORG $+4
	DQ	0000000000000000H
	DW	00H
	DB	03H
	DB	00H
	ORG $+4
	DQ	0000000000000000H
	DW	00H
	DB	04H
	DB	00H
	ORG $+4
	DQ	0000000000000000H
	DW	00H
	DB	04H
	DB	00H
	ORG $+4
	DQ	0000000000000000H
	DW	00H
	DB	06H
	DB	00H
	ORG $+4
	DQ	0000000000000000H
	DW	00H
	DB	05H
	DB	04H
	ORG $+4
	DQ	0000000000000000H
	DW	00H
	DB	01H
	DB	00H
	ORG $+4
	DQ	0000000000000000H
	DW	00H
	DB	07H
	DB	00H
	ORG $+4
	DQ	0000000000000000H
	DW	00H
	DB	07H
	DB	00H
	ORG $+4
	DQ	0000000000000000H
	DW	00H
	DB	06H
	DB	00H
	ORG $+4
	DQ	0000000000000000H
	DW	00H
	DB	07H
	DB	00H
	ORG $+4
	DQ	0000000000000000H
	DW	00H
	DB	05H
	DB	00H
	ORG $+4
	DQ	0000000000000000H
	DW	00H
	DB	08H
	DB	00H
	ORG $+4
	DQ	0000000000000000H
	DW	00H
	DB	05H
	DB	00H
	ORG $+4
	DQ	0000000000000000H
	DW	00H
	DB	04H
	DB	00H
	ORG $+4
	DQ	0000000000000000H
	DW	00H
	DB	04H
	DB	00H
	ORG $+4
	DQ	0000000000000000H
	DW	00H
	DB	05H
	DB	00H
	ORG $+4
	DQ	0000000000000000H
	DW	00H
	DB	05H
	DB	00H
	ORG $+4
	DQ	0000000000000000H
	DW	00H
	DB	04H
	DB	00H
	ORG $+4
	DQ	0000000000000000H
	DW	00H
	DB	05H
	DB	00H
	ORG $+4
	DQ	0000000000000000H
	DW	00H
	DB	05H
	DB	00H
	ORG $+4
	DQ	0000000000000000H
	DW	00H
	DB	04H
	DB	00H
	ORG $+4
	DQ	0000000000000000H
	DW	00H
	DB	05H
	DB	00H
	ORG $+4
	DQ	0000000000000000H
	DW	00H
	DB	04H
	DB	00H
	ORG $+4
	DQ	0000000000000000H
	DW	00H
	DB	05H
	DB	00H
	ORG $+4
	DQ	0000000000000000H
	DW	00H
	DB	04H
	DB	00H
	ORG $+4
	DQ	0000000000000000H
	DW	00H
	DB	05H
	DB	00H
	ORG $+4
	DQ	0000000000000000H
	DW	00H
	DB	04H
	DB	00H
	ORG $+4
	DQ	0000000000000000H
	DW	00H
	DB	04H
	DB	00H
	ORG $+4
	DQ	0000000000000000H
	DW	00H
	DB	04H
	DB	00H
	ORG $+4
	DQ	0000000000000000H
	DW	00H
	DB	04H
	DB	00H
	ORG $+4
	DQ	0000000000000000H
	DW	00H
	DB	05H
	DB	00H
	ORG $+4
	DQ	0000000000000000H
	DW	00H
	DB	05H
	DB	00H
	ORG $+4
	DQ	0000000000000000H
	DW	00H
	DB	04H
	DB	00H
	ORG $+4
	DQ	0000000000000000H
	DW	00H
	DB	04H
	DB	00H
	ORG $+4
	DQ	0000000000000000H
	DW	00H
	DB	05H
	DB	00H
	ORG $+4
	DQ	0000000000000000H
	DW	00H
	DB	05H
	DB	00H
	ORG $+4
	DQ	0000000000000000H
	DW	00H
	DB	07H
	DB	00H
	ORG $+4
	DQ	0000000000000000H
	DW	00H
	DB	05H
	DB	00H
	ORG $+4
	DQ	0000000000000000H
	DW	00H
	DB	08H
	DB	00H
	ORG $+4
	DQ	0000000000000000H
	DW	00H
	DB	07H
	DB	00H
	ORG $+4
	DQ	0000000000000000H
	DW	00H
	DB	07H
	DB	00H
	ORG $+4
	DQ	0000000000000000H
	DW	00H
	DB	07H
	DB	00H
	ORG $+4
	DQ	0000000000000000H
	DW	00H
	DB	09H
	DB	00H
	ORG $+4
	DQ	0000000000000000H
	DW	00H
	DB	07H
	DB	00H
	ORG $+4
	DQ	0000000000000000H
	DW	00H
	DB	07H
	DB	00H
	ORG $+4
	DQ	0000000000000000H
	DW	00H
	DB	06H
	DB	00H
	ORG $+4
	DQ	0000000000000000H
	DW	00H
	DB	06H
	DB	00H
	ORG $+4
	DQ	0000000000000000H
	DW	00H
	DB	04H
	DB	00H
	ORG $+4
	DQ	0000000000000000H
	DW	00H
	DB	08H
	DB	00H
	ORG $+4
	DQ	0000000000000000H
	DW	00H
	DB	06H
	DB	00H
	ORG $+4
	DQ	0000000000000000H
	DW	00H
	DB	05H
	DB	00H
	ORG $+4
	DQ	0000000000000000H
	DW	00H
	DB	0aH
	DB	00H
	ORG $+4
	DQ	0000000000000000H
	DW	00H
	DB	0dH
	DB	00H
	ORG $+4
	DQ	0000000000000000H
	DW	00H
	DB	0cH
	DB	00H
	ORG $+4
	DQ	0000000000000000H
	DW	00H
	DB	05H
	DB	00H
	ORG $+4
	DQ	0000000000000000H
	DW	00H
	DB	05H
	DB	00H
	ORG $+4
	DQ	0000000000000000H
	DW	00H
	DB	05H
	DB	00H
	ORG $+4
	DQ	0000000000000000H
	DW	00H
	DB	06H
	DB	00H
	ORG $+4
	DQ	0000000000000000H
	DW	00H
	DB	07H
	DB	00H
	ORG $+4
	DQ	0000000000000000H
	DW	00H
	DB	04H
	DB	00H
	ORG $+4
	DQ	0000000000000000H
	DW	00H
	DB	06H
	DB	00H
	ORG $+4
	DQ	0000000000000000H
	DW	00H
	DB	05H
	DB	00H
	ORG $+4
	DQ	0000000000000000H
	DW	00H
	DB	06H
	DB	00H
	ORG $+4
	DQ	0000000000000000H
	DW	00H
	DB	05H
	DB	00H
	ORG $+4
	DQ	0000000000000000H
	DW	00H
	DB	06H
	DB	00H
	ORG $+4
	DQ	0000000000000000H
	DW	00H
	DB	08H
	DB	00H
	ORG $+4
	DQ	0000000000000000H
	DW	00H
	DB	09H
	DB	00H
	ORG $+4
	DQ	0000000000000000H
	DW	00H
	DB	06H
	DB	00H
	ORG $+4
	DQ	0000000000000000H
	DW	00H
	DB	03H
	DB	00H
	ORG $+4
	DQ	0000000000000000H
	DW	00H
	DB	07H
	DB	00H
	ORG $+4
	DQ	0000000000000000H
	DW	00H
	DB	06H
	DB	00H
	ORG $+4
	DQ	0000000000000000H
	DW	00H
	DB	04H
	DB	00H
	ORG $+4
	DQ	0000000000000000H
	DW	00H
	DB	06H
	DB	00H
	ORG $+4
	DQ	0000000000000000H
	DW	00H
	DB	09H
	DB	00H
	ORG $+4
	DQ	0000000000000000H
	DW	00H
	DB	05H
	DB	00H
	ORG $+4
	DQ	0000000000000000H
	DW	00H
	DB	07H
	DB	00H
	ORG $+4
	DQ	0000000000000000H
	DW	00H
	DB	06H
	DB	00H
	ORG $+4
	DQ	0000000000000000H
	DW	00H
	DB	05H
	DB	00H
	ORG $+4
	DQ	0000000000000000H
	DW	00H
	DB	06H
	DB	00H
	ORG $+4
	DQ	0000000000000000H
	DW	00H
	DB	09H
	DB	00H
	ORG $+4
	DQ	0000000000000000H
	DW	00H
	DB	07H
	DB	00H
	ORG $+4
	DQ	0000000000000000H
	DW	00H
	DB	05H
	DB	00H
	ORG $+4
	DQ	0000000000000000H
	DW	00H
	DB	08H
	DB	00H
	ORG $+4
	DQ	0000000000000000H
	DW	00H
	DB	06H
	DB	00H
	ORG $+4
	DQ	0000000000000000H
	DW	00H
	DB	06H
	DB	00H
	ORG $+4
	DQ	0000000000000000H
	DW	00H
	DB	08H
	DB	02H
	ORG $+4
	DQ	0000000000000000H
	DW	00H
	DB	04H
	DB	00H
	ORG $+4
	DQ	0000000000000000H
	DW	00H
	DB	05H
	DB	00H
	ORG $+4
	DQ	0000000000000000H
	DW	00H
	DB	05H
	DB	00H
	ORG $+4
	DQ	0000000000000000H
	DW	00H
	DB	05H
	DB	00H
	ORG $+4
	DQ	0000000000000000H
	DW	00H
	DB	06H
	DB	00H
	ORG $+4
	DQ	0000000000000000H
	DW	00H
	DB	07H
	DB	00H
	ORG $+4
	DQ	0000000000000000H
	DW	00H
	DB	08H
	DB	00H
	ORG $+4
	DQ	0000000000000000H
	DW	00H
	DB	07H
	DB	00H
	ORG $+4
	DQ	0000000000000000H
	DW	00H
	DB	08H
	DB	00H
	ORG $+4
	DQ	0000000000000000H
	DW	00H
	DB	05H
	DB	00H
	ORG $+4
	DQ	0000000000000000H
	DW	00H
	DB	06H
	DB	00H
	ORG $+4
	DQ	0000000000000000H
	DW	00H
	DB	07H
	DB	00H
	ORG $+4
	DQ	0000000000000000H
	DW	00H
	DB	08H
	DB	00H
	ORG $+4
	DQ	0000000000000000H
	DW	00H
	DB	07H
	DB	00H
	ORG $+4
	DQ	0000000000000000H
	DW	00H
	DB	02H
	DB	00H
	ORG $+4
	DQ	0000000000000000H
	DW	00H
	DB	03H
	DB	00H
	ORG $+4
	DQ	0000000000000000H
	DW	00H
	DB	03H
	DB	00H
	ORG $+4
	DQ	0000000000000000H
	DW	00H
	DB	03H
	DB	00H
	ORG $+4
	DQ	0000000000000000H
	DW	00H
	DB	05H
	DB	00H
	ORG $+4
	DQ	0000000000000000H
	DW	00H
	DB	06H
	DB	00H
	ORG $+4
	DQ	0000000000000000H
	DW	00H
	DB	05H
	DB	00H
	ORG $+4
	DQ	0000000000000000H
	DW	00H
	DB	06H
	DB	00H
	ORG $+4
	DQ	0000000000000000H
	DW	00H
	DB	03H
	DB	00H
	ORG $+4
	DQ	0000000000000000H
	DW	00H
	DB	04H
	DB	00H
	ORG $+4
	DQ	0000000000000000H
	DW	00H
	DB	05H
	DB	00H
	ORG $+4
	DQ	0000000000000000H
	DW	00H
	DB	06H
	DB	00H
	ORG $+4
	DQ	0000000000000000H
	DW	00H
	DB	04H
	DB	00H
	ORG $+4
	DQ	0000000000000000H
	DW	00H
	DB	06H
	DB	00H
	ORG $+4
	DQ	0000000000000000H
	DW	00H
	DB	07H
	DB	00H
	ORG $+4
	DQ	0000000000000000H
	DW	00H
	DB	07H
	DB	00H
	ORG $+4
	DQ	0000000000000000H
	DW	00H
	DB	07H
	DB	00H
	ORG $+4
	DQ	0000000000000000H
	DW	00H
	DB	09H
	DB	00H
	ORG $+4
	DQ	0000000000000000H
	DW	00H
	DB	0aH
	DB	00H
	ORG $+4
	DQ	0000000000000000H
	DW	00H
	DB	09H
	DB	00H
	ORG $+4
	DQ	0000000000000000H
	DW	00H
	DB	0aH
	DB	00H
	ORG $+4
	DQ	0000000000000000H
	DW	00H
	DB	07H
	DB	00H
	ORG $+4
	DQ	0000000000000000H
	DW	00H
	DB	08H
	DB	00H
	ORG $+4
	DQ	0000000000000000H
	DW	00H
	DB	09H
	DB	00H
	ORG $+4
	DQ	0000000000000000H
	DW	00H
	DB	0aH
	DB	00H
	ORG $+4
	DQ	0000000000000000H
	DW	00H
	DB	05H
	DB	00H
	ORG $+4
	DQ	0000000000000000H
	DW	00H
	DB	03H
	DB	00H
	ORG $+4
	DQ	0000000000000000H
	DW	00H
	DB	04H
	DB	00H
	ORG $+4
	DQ	0000000000000000H
	DW	00H
	DB	03H
	DB	00H
	ORG $+4
	DQ	0000000000000000H
	DW	00H
	DB	04H
	DB	00H
	ORG $+4
	DQ	0000000000000000H
	DW	00H
	DB	06H
	DB	00H
	ORG $+4
	DQ	0000000000000000H
	DW	00H
	DB	04H
	DB	00H
	ORG $+4
	DQ	0000000000000000H
	DW	00H
	DB	05H
	DB	00H
	ORG $+4
	DQ	0000000000000000H
	DW	00H
	DB	05H
	DB	00H
	ORG $+4
	DQ	0000000000000000H
	DW	00H
	DB	05H
	DB	00H
	ORG $+4
	DQ	0000000000000000H
	DW	00H
	DB	04H
	DB	00H
	ORG $+4
	DQ	0000000000000000H
	DW	00H
	DB	04H
	DB	00H
	ORG $+4
	DQ	0000000000000000H
	DW	00H
	DB	05H
	DB	00H
	ORG $+4
	DQ	0000000000000000H
	DW	00H
	DB	07H
	DB	00H
	ORG $+4
	DQ	0000000000000000H
	DW	00H
	DB	07H
	DB	00H
	ORG $+4
	DQ	0000000000000000H
	DW	00H
	DB	06H
	DB	00H
	ORG $+4
	DQ	0000000000000000H
	DW	00H
	DB	06H
	DB	00H
	ORG $+4
	DQ	0000000000000000H
	DW	00H
	DB	05H
	DB	00H
	ORG $+4
	DQ	0000000000000000H
	DW	00H
	DB	07H
	DB	00H
	ORG $+4
	DQ	0000000000000000H
	DW	00H
	DB	02H
	DB	00H
	ORG $+4
	DQ	0000000000000000H
	DW	00H
	DB	02H
	DB	00H
	ORG $+4
	DQ	0000000000000000H
	DW	00H
	DB	02H
	DB	00H
	ORG $+4
	DQ	0000000000000000H
	DW	00H
	DB	02H
	DB	00H
	ORG $+4
	DQ	0000000000000000H
	DW	00H
	DB	02H
	DB	00H
	ORG $+4
	DQ	0000000000000000H
	DW	00H
	DB	02H
	DB	00H
	ORG $+4
	DQ	0000000000000000H
	DW	00H
	DB	0bH
	DB	04H
	ORG $+4
	DQ	0000000000000000H
	DW	00H
	DB	0aH
	DB	04H
	ORG $+4
	DQ	0000000000000000H
	DW	00H
	DB	0aH
	DB	04H
	ORG $+4
	DQ	0000000000000000H
	DW	00H
	DB	08H
	DB	04H
	ORG $+4
	DQ	0000000000000000H
	DW	00H
	DB	08H
	DB	04H
	ORG $+4
	DQ	0000000000000000H
	DW	00H
	DB	0bH
	DB	04H
	ORG $+4
	DQ	0000000000000000H
	DW	00H
	DB	0bH
	DB	04H
	ORG $+4
	DQ	0000000000000000H
	DW	00H
	DB	09H
	DB	04H
	ORG $+4
	DQ	0000000000000000H
	DW	00H
	DB	05H
	DB	00H
	ORG $+4
	DQ	0000000000000000H
	DW	00H
	DB	06H
	DB	00H
	ORG $+4
	DQ	0000000000000000H
	DW	00H
	DB	05H
	DB	00H
	ORG $+4
	DQ	0000000000000000H
	DW	00H
	DB	07H
	DB	00H
	ORG $+4
	DQ	0000000000000000H
	DW	00H
	DB	06H
	DB	00H
	ORG $+4
	DQ	0000000000000000H
	DW	00H
	DB	04H
	DB	00H
	ORG $+4
	DQ	0000000000000000H
	DW	00H
	DB	06H
	DB	00H
	ORG $+4
	DQ	0000000000000000H
	DW	00H
	DB	05H
	DB	00H
	ORG $+4
	DQ	0000000000000000H
	DW	00H
	DB	09H
	DB	00H
	ORG $+4
	DQ	0000000000000000H
	DW	00H
	DB	06H
	DB	00H
	ORG $+4
	DQ	0000000000000000H
	DW	00H
	DB	05H
	DB	00H
	ORG $+4
	DQ	0000000000000000H
	DW	00H
	DB	04H
	DB	00H
	ORG $+4
	DQ	0000000000000000H
	DW	00H
	DB	04H
	DB	00H
	ORG $+4
	DQ	0000000000000000H
	DW	00H
	DB	05H
	DB	00H
	ORG $+4
	DQ	0000000000000000H
	DW	00H
	DB	05H
	DB	00H
	ORG $+4
	DQ	0000000000000000H
	DW	00H
	DB	06H
	DB	00H
	ORG $+4
	DQ	0000000000000000H
	DW	00H
	DB	03H
	DB	00H
	ORG $+4
	DQ	0000000000000000H
	DW	00H
	DB	05H
	DB	00H
	ORG $+4
	DQ	0000000000000000H
	DW	00H
	DB	04H
	DB	00H
	ORG $+4
	DQ	0000000000000000H
	DW	00H
	DB	07H
	DB	00H
	ORG $+4
	DQ	0000000000000000H
	DW	00H
	DB	04H
	DB	00H
	ORG $+4
	DQ	0000000000000000H
	DW	00H
	DB	05H
	DB	00H
	ORG $+4
	DQ	0000000000000000H
	DW	00H
	DB	06H
	DB	00H
	ORG $+4
	DQ	0000000000000000H
	DW	00H
	DB	05H
	DB	00H
	ORG $+4
	DQ	0000000000000000H
	DW	00H
	DB	04H
	DB	00H
	ORG $+4
	DQ	0000000000000000H
	DW	00H
	DB	03H
	DB	00H
	ORG $+4
	DQ	0000000000000000H
	DW	00H
	DB	03H
	DB	00H
	ORG $+4
	DQ	0000000000000000H
	DW	00H
	DB	06H
	DB	00H
	ORG $+4
	DQ	0000000000000000H
	DW	00H
	DB	0aH
	DB	00H
	ORG $+4
	DQ	0000000000000000H
	DW	00H
	DB	04H
	DB	00H
	ORG $+4
	DQ	0000000000000000H
	DW	00H
	DB	06H
	DB	00H
	ORG $+4
	DQ	0000000000000000H
	DW	00H
	DB	0aH
	DB	00H
	ORG $+4
	DQ	0000000000000000H
	DW	00H
	DB	0bH
	DB	00H
	ORG $+4
	DQ	0000000000000000H
	DW	00H
	DB	04H
	DB	00H
	ORG $+4
	DQ	0000000000000000H
	DW	00H
	DB	03H
	DB	00H
	ORG $+4
	DQ	0000000000000000H
	DW	00H
	DB	02H
	DB	00H
	ORG $+4
	DQ	0000000000000000H
	DW	00H
	DB	03H
	DB	00H
	ORG $+4
	DQ	0000000000000000H
	DW	00H
	DB	02H
	DB	00H
	ORG $+4
	DQ	0000000000000000H
	DW	00H
	DB	03H
	DB	00H
	ORG $+4
	DQ	0000000000000000H
	DW	00H
	DB	02H
	DB	00H
	ORG $+4
	DQ	0000000000000000H
	DW	00H
	DB	02H
	DB	00H
	ORG $+4
	DQ	0000000000000000H
	DW	00H
	DB	02H
	DB	00H
	ORG $+4
	DQ	0000000000000000H
	DW	00H
	DB	03H
	DB	00H
	ORG $+4
	DQ	0000000000000000H
	DW	00H
	DB	02H
	DB	00H
	ORG $+4
	DQ	0000000000000000H
	DW	00H
	DB	03H
	DB	00H
	ORG $+4
	DQ	0000000000000000H
	DW	00H
	DB	03H
	DB	00H
	ORG $+4
	DQ	0000000000000000H
	DW	00H
	DB	04H
	DB	00H
	ORG $+4
	DQ	0000000000000000H
	DW	00H
	DB	03H
	DB	00H
	ORG $+4
	DQ	0000000000000000H
	DW	00H
	DB	04H
	DB	00H
	ORG $+4
	DQ	0000000000000000H
	DW	00H
	DB	03H
	DB	00H
	ORG $+4
	DQ	0000000000000000H
	DW	00H
	DB	03H
	DB	00H
	ORG $+4
	DQ	0000000000000000H
	DW	00H
	DB	03H
	DB	00H
	ORG $+4
	DQ	0000000000000000H
	DW	00H
	DB	04H
	DB	00H
	ORG $+4
	DQ	0000000000000000H
	DW	00H
	DB	03H
	DB	00H
	ORG $+4
	DQ	0000000000000000H
	DW	00H
	DB	04H
	DB	00H
	ORG $+4
	DQ	0000000000000000H
	DW	00H
	DB	03H
	DB	00H
	ORG $+4
	DQ	0000000000000000H
	DW	00H
	DB	03H
	DB	00H
	ORG $+4
	DQ	0000000000000000H
	DW	00H
	DB	03H
	DB	00H
	ORG $+4
	DQ	0000000000000000H
	DW	00H
	DB	03H
	DB	00H
	ORG $+4
	DQ	0000000000000000H
	DW	00H
	DB	02H
	DB	00H
	ORG $+4
	DQ	0000000000000000H
	DW	00H
	DB	02H
	DB	00H
	ORG $+4
	DQ	0000000000000000H
	DW	00H
	DB	03H
	DB	00H
	ORG $+4
	DQ	0000000000000000H
	DW	00H
	DB	03H
	DB	00H
	ORG $+4
	DQ	0000000000000000H
	DW	00H
	DB	02H
	DB	00H
	ORG $+4
	DQ	0000000000000000H
	DW	00H
	DB	02H
	DB	00H
	ORG $+4
	DQ	0000000000000000H
	DW	00H
	DB	04H
	DB	02H
	ORG $+4
	DQ	0000000000000000H
	DW	00H
	DB	05H
	DB	00H
	ORG $+4
	DQ	0000000000000000H
	DW	00H
	DB	05H
	DB	04H
	ORG $+4
	DQ	0000000000000000H
	DW	00H
	DB	04H
	DB	00H
	ORG $+4
	DQ	0000000000000000H
	DW	00H
	DB	05H
	DB	00H
	ORG $+4
	DQ	0000000000000000H
	DW	00H
	DB	05H
	DB	00H
	ORG $+4
	DQ	0000000000000000H
	DW	00H
	DB	06H
	DB	00H
	ORG $+4
	DQ	0000000000000000H
	DW	00H
	DB	06H
	DB	00H
	ORG $+4
	DQ	0000000000000000H
	DW	00H
	DB	05H
	DB	00H
	ORG $+4
	DQ	0000000000000000H
	DW	00H
	DB	06H
	DB	00H
	ORG $+4
	DQ	0000000000000000H
	DW	00H
	DB	06H
	DB	00H
	ORG $+4
	DQ	0000000000000000H
	DW	00H
	DB	07H
	DB	00H
	ORG $+4
	DQ	0000000000000000H
	DW	00H
	DB	07H
	DB	00H
	ORG $+4
	DQ	0000000000000000H
	DW	00H
	DB	05H
	DB	02H
	ORG $+4
	DQ	0000000000000000H
	DW	00H
	DB	06H
	DB	02H
	ORG $+4
	DQ	0000000000000000H
	DW	00H
	DB	06H
	DB	02H
	ORG $+4
	DQ	0000000000000000H
	DW	00H
	DB	07H
	DB	02H
	ORG $+4
	DQ	0000000000000000H
	DW	00H
	DB	07H
	DB	02H
	ORG $+4
	DQ	0000000000000000H
	DW	00H
	DB	03H
	DB	00H
	ORG $+4
	DQ	0000000000000000H
	DW	00H
	DB	02H
	DB	00H
	ORG $+4
	DQ	0000000000000000H
	DW	00H
	DB	03H
	DB	00H
	ORG $+4
	DQ	0000000000000000H
	DW	00H
	DB	03H
	DB	00H
	ORG $+4
	DQ	0000000000000000H
	DW	00H
	DB	03H
	DB	00H
	ORG $+4
	DQ	0000000000000000H
	DW	00H
	DB	03H
	DB	00H
	ORG $+4
	DQ	0000000000000000H
	DW	00H
	DB	03H
	DB	00H
	ORG $+4
	DQ	0000000000000000H
	DW	00H
	DB	03H
	DB	00H
	ORG $+4
	DQ	0000000000000000H
	DW	00H
	DB	03H
	DB	00H
	ORG $+4
	DQ	0000000000000000H
	DW	00H
	DB	03H
	DB	00H
	ORG $+4
	DQ	0000000000000000H
	DW	00H
	DB	03H
	DB	00H
	ORG $+4
	DQ	0000000000000000H
	DW	00H
	DB	03H
	DB	00H
	ORG $+4
	DQ	0000000000000000H
	DW	00H
	DB	03H
	DB	00H
	ORG $+4
	DQ	0000000000000000H
	DW	00H
	DB	03H
	DB	00H
	ORG $+4
	DQ	0000000000000000H
	DW	00H
	DB	03H
	DB	00H
	ORG $+4
	DQ	0000000000000000H
	DW	00H
	DB	03H
	DB	00H
	ORG $+4
	DQ	0000000000000000H
	DW	00H
	DB	04H
	DB	00H
	ORG $+4
	DQ	0000000000000000H
	DW	00H
	DB	05H
	DB	00H
	ORG $+4
	DQ	0000000000000000H
	DW	00H
	DB	05H
	DB	00H
	ORG $+4
	DQ	0000000000000000H
	DW	00H
	DB	05H
	DB	00H
	ORG $+4
	DQ	0000000000000000H
	DW	00H
	DB	03H
	DB	00H
	ORG $+4
	DQ	0000000000000000H
	DW	00H
	DB	04H
	DB	00H
	ORG $+4
	DQ	0000000000000000H
	DW	00H
	DB	04H
	DB	00H
	ORG $+4
	DQ	0000000000000000H
	DW	00H
	DB	04H
	DB	00H
	ORG $+4
	DQ	0000000000000000H
	DW	00H
	DB	04H
	DB	00H
	ORG $+4
	DQ	0000000000000000H
	DW	00H
	DB	05H
	DB	00H
	ORG $+4
	DQ	0000000000000000H
	DW	00H
	DB	05H
	DB	00H
	ORG $+4
	DQ	0000000000000000H
	DW	00H
	DB	05H
	DB	00H
	ORG $+4
	DQ	0000000000000000H
	DW	00H
	DB	04H
	DB	00H
	ORG $+4
	DQ	0000000000000000H
	DW	00H
	DB	05H
	DB	00H
	ORG $+4
	DQ	0000000000000000H
	DW	00H
	DB	05H
	DB	00H
	ORG $+4
	DQ	0000000000000000H
	DW	00H
	DB	05H
	DB	00H
	ORG $+4
	DQ	0000000000000000H
	DW	00H
	DB	04H
	DB	00H
	ORG $+4
	DQ	0000000000000000H
	DW	00H
	DB	05H
	DB	00H
	ORG $+4
	DQ	0000000000000000H
	DW	00H
	DB	05H
	DB	00H
	ORG $+4
	DQ	0000000000000000H
	DW	00H
	DB	05H
	DB	00H
	ORG $+4
	DQ	0000000000000000H
	DW	00H
	DB	04H
	DB	00H
	ORG $+4
	DQ	0000000000000000H
	DW	00H
	DB	05H
	DB	00H
	ORG $+4
	DQ	0000000000000000H
	DW	00H
	DB	05H
	DB	00H
	ORG $+4
	DQ	0000000000000000H
	DW	00H
	DB	05H
	DB	00H
	ORG $+4
	DQ	0000000000000000H
	DW	00H
	DB	04H
	DB	00H
	ORG $+4
	DQ	0000000000000000H
	DW	00H
	DB	05H
	DB	00H
	ORG $+4
	DQ	0000000000000000H
	DW	00H
	DB	05H
	DB	00H
	ORG $+4
	DQ	0000000000000000H
	DW	00H
	DB	05H
	DB	00H
	ORG $+4
	DQ	0000000000000000H
	DW	00H
	DB	03H
	DB	02H
	ORG $+4
	DQ	0000000000000000H
	DW	00H
	DB	03H
	DB	02H
	ORG $+4
	DQ	0000000000000000H
	DW	00H
	DB	03H
	DB	02H
	ORG $+4
	DQ	0000000000000000H
	DW	00H
	DB	03H
	DB	02H
	ORG $+4
	DQ	0000000000000000H
	DW	00H
	DB	03H
	DB	02H
	ORG $+4
	DQ	0000000000000000H
	DW	00H
	DB	03H
	DB	02H
	ORG $+4
	DQ	0000000000000000H
	DW	00H
	DB	03H
	DB	02H
	ORG $+4
	DQ	0000000000000000H
	DW	00H
	DB	03H
	DB	02H
	ORG $+4
	DQ	0000000000000000H
	DW	00H
	DB	04H
	DB	02H
	ORG $+4
	DQ	0000000000000000H
	DW	00H
	DB	05H
	DB	02H
	ORG $+4
	DQ	0000000000000000H
	DW	00H
	DB	05H
	DB	02H
	ORG $+4
	DQ	0000000000000000H
	DW	00H
	DB	05H
	DB	02H
	ORG $+4
	DQ	0000000000000000H
	DW	00H
	DB	05H
	DB	02H
	ORG $+4
	DQ	0000000000000000H
	DW	00H
	DB	06H
	DB	02H
	ORG $+4
	DQ	0000000000000000H
	DW	00H
	DB	06H
	DB	02H
	ORG $+4
	DQ	0000000000000000H
	DW	00H
	DB	06H
	DB	02H
	ORG $+4
	DQ	0000000000000000H
	DW	00H
	DB	05H
	DB	02H
	ORG $+4
	DQ	0000000000000000H
	DW	00H
	DB	04H
	DB	02H
	ORG $+4
	DQ	0000000000000000H
	DW	00H
	DB	04H
	DB	02H
	ORG $+4
	DQ	0000000000000000H
	DW	00H
	DB	04H
	DB	00H
	ORG $+4
	DQ	0000000000000000H
	DW	00H
	DB	04H
	DB	00H
	ORG $+4
	DQ	0000000000000000H
	DW	00H
	DB	04H
	DB	00H
	ORG $+4
	DQ	0000000000000000H
	DW	00H
	DB	03H
	DB	00H
	ORG $+4
	DQ	0000000000000000H
	DW	00H
	DB	04H
	DB	00H
	ORG $+4
	DQ	0000000000000000H
	DW	00H
	DB	04H
	DB	00H
	ORG $+4
	DQ	0000000000000000H
	DW	00H
	DB	03H
	DB	00H
	ORG $+4
	DQ	0000000000000000H
	DW	00H
	DB	04H
	DB	00H
	ORG $+4
	DQ	0000000000000000H
	DW	00H
	DB	04H
	DB	00H
	ORG $+4
	DQ	0000000000000000H
	DW	00H
	DB	03H
	DB	00H
	ORG $+4
	DQ	0000000000000000H
	DW	00H
	DB	04H
	DB	00H
	ORG $+4
	DQ	0000000000000000H
	DW	00H
	DB	03H
	DB	00H
	ORG $+4
	DQ	0000000000000000H
	DW	00H
	DB	03H
	DB	00H
	ORG $+4
	DQ	0000000000000000H
	DW	00H
	DB	03H
	DB	00H
	ORG $+4
	DQ	0000000000000000H
	DW	00H
	DB	04H
	DB	00H
	ORG $+4
	DQ	0000000000000000H
	DW	00H
	DB	03H
	DB	00H
	ORG $+4
	DQ	0000000000000000H
	DW	00H
	DB	04H
	DB	00H
	ORG $+4
	DQ	0000000000000000H
	DW	00H
	DB	05H
	DB	00H
	ORG $+4
	DQ	0000000000000000H
	DW	00H
	DB	05H
	DB	00H
	ORG $+4
	DQ	0000000000000000H
	DW	00H
	DB	04H
	DB	00H
	ORG $+4
	DQ	0000000000000000H
	DW	00H
	DB	02H
	DB	00H
	ORG $+4
	DQ	0000000000000000H
	DW	00H
	DB	03H
	DB	00H
	ORG $+4
	DQ	0000000000000000H
	DW	00H
	DB	03H
	DB	00H
	ORG $+4
	DQ	0000000000000000H
	DW	00H
	DB	03H
	DB	00H
	ORG $+4
	DQ	0000000000000000H
	DW	00H
	DB	03H
	DB	00H
	ORG $+4
	DQ	0000000000000000H
	DW	00H
	DB	03H
	DB	00H
	ORG $+4
	DQ	0000000000000000H
	DW	00H
	DB	03H
	DB	00H
	ORG $+4
	DQ	0000000000000000H
	DW	00H
	DB	03H
	DB	00H
	ORG $+4
	DQ	0000000000000000H
	DW	00H
	DB	03H
	DB	00H
	ORG $+4
	DQ	0000000000000000H
	DW	00H
	DB	03H
	DB	00H
	ORG $+4
	DQ	0000000000000000H
	DW	00H
	DB	03H
	DB	00H
	ORG $+4
	DQ	0000000000000000H
	DW	00H
	DB	03H
	DB	00H
	ORG $+4
	DQ	0000000000000000H
	DW	00H
	DB	03H
	DB	00H
	ORG $+4
	DQ	0000000000000000H
	DW	00H
	DB	04H
	DB	00H
	ORG $+4
	DQ	0000000000000000H
	DW	00H
	DB	03H
	DB	00H
	ORG $+4
	DQ	0000000000000000H
	DW	00H
	DB	05H
	DB	00H
	ORG $+4
	DQ	0000000000000000H
	DW	00H
	DB	05H
	DB	00H
	ORG $+4
	DQ	0000000000000000H
	DW	00H
	DB	04H
	DB	00H
	ORG $+4
	DQ	0000000000000000H
	DW	00H
	DB	03H
	DB	00H
	ORG $+4
	DQ	0000000000000000H
	DW	00H
	DB	05H
	DB	00H
	ORG $+4
	DQ	0000000000000000H
	DW	00H
	DB	03H
	DB	00H
	ORG $+4
	DQ	0000000000000000H
	DW	00H
	DB	03H
	DB	00H
	ORG $+4
	DQ	0000000000000000H
	DW	00H
	DB	05H
	DB	00H
	ORG $+4
	DQ	0000000000000000H
	DW	00H
	DB	03H
	DB	00H
	ORG $+4
	DQ	0000000000000000H
	DW	00H
	DB	03H
	DB	00H
	ORG $+4
	DQ	0000000000000000H
	DW	00H
	DB	03H
	DB	00H
	ORG $+4
	DQ	0000000000000000H
	DW	00H
	DB	04H
	DB	00H
	ORG $+4
	DQ	0000000000000000H
	DW	00H
	DB	04H
	DB	00H
	ORG $+4
	DQ	0000000000000000H
	DW	00H
	DB	07H
	DB	00H
	ORG $+4
	DQ	0000000000000000H
	DW	00H
	DB	09H
	DB	00H
	ORG $+4
	DQ	0000000000000000H
	DW	00H
	DB	05H
	DB	00H
	ORG $+4
	DQ	0000000000000000H
	DW	00H
	DB	05H
	DB	00H
	ORG $+4
	DQ	0000000000000000H
	DW	00H
	DB	03H
	DB	00H
	ORG $+4
	DQ	0000000000000000H
	DW	00H
	DB	04H
	DB	00H
	ORG $+4
	DQ	0000000000000000H
	DW	00H
	DB	02H
	DB	00H
	ORG $+4
	DQ	0000000000000000H
	DW	00H
	DB	03H
	DB	00H
	ORG $+4
	DQ	0000000000000000H
	DW	00H
	DB	04H
	DB	00H
	ORG $+4
	DQ	0000000000000000H
	DW	00H
	DB	04H
	DB	00H
	ORG $+4
	DQ	0000000000000000H
	DW	00H
	DB	06H
	DB	00H
	ORG $+4
	DQ	0000000000000000H
	DW	00H
	DB	04H
	DB	00H
	ORG $+4
	DQ	0000000000000000H
	DW	00H
	DB	05H
	DB	00H
	ORG $+4
	DQ	0000000000000000H
	DW	00H
	DB	05H
	DB	00H
	ORG $+4
	DQ	0000000000000000H
	DW	00H
	DB	06H
	DB	00H
	ORG $+4
	DQ	0000000000000000H
	DW	00H
	DB	04H
	DB	00H
	ORG $+4
	DQ	0000000000000000H
	DW	00H
	DB	03H
	DB	00H
	ORG $+4
	DQ	0000000000000000H
	DW	00H
	DB	03H
	DB	00H
	ORG $+4
	DQ	0000000000000000H
	DW	00H
	DB	03H
	DB	00H
	ORG $+4
	DQ	0000000000000000H
	DW	00H
	DB	05H
	DB	00H
	ORG $+4
	DQ	0000000000000000H
	DW	00H
	DB	03H
	DB	00H
	ORG $+4
	DQ	0000000000000000H
	DW	00H
	DB	03H
	DB	00H
	ORG $+4
	DQ	0000000000000000H
	DW	00H
	DB	03H
	DB	00H
	ORG $+4
	DQ	0000000000000000H
	DW	00H
	DB	04H
	DB	00H
	ORG $+4
	DQ	0000000000000000H
	DW	00H
	DB	04H
	DB	00H
	ORG $+4
	DQ	0000000000000000H
	DW	00H
	DB	05H
	DB	00H
	ORG $+4
	DQ	0000000000000000H
	DW	00H
	DB	05H
	DB	00H
	ORG $+4
	DQ	0000000000000000H
	DW	00H
	DB	03H
	DB	00H
	ORG $+4
	DQ	0000000000000000H
	DW	00H
	DB	03H
	DB	00H
	ORG $+4
	DQ	0000000000000000H
	DW	00H
	DB	05H
	DB	00H
	ORG $+4
	DQ	0000000000000000H
	DW	00H
	DB	05H
	DB	00H
	ORG $+4
	DQ	0000000000000000H
	DW	00H
	DB	05H
	DB	00H
	ORG $+4
	DQ	0000000000000000H
	DW	00H
	DB	06H
	DB	00H
	ORG $+4
	DQ	0000000000000000H
	DW	00H
	DB	03H
	DB	00H
	ORG $+4
	DQ	0000000000000000H
	DW	00H
	DB	04H
	DB	00H
	ORG $+4
	DQ	0000000000000000H
	DW	00H
	DB	04H
	DB	00H
	ORG $+4
	DQ	0000000000000000H
	DW	00H
	DB	03H
	DB	00H
	ORG $+4
	DQ	0000000000000000H
	DW	00H
	DB	04H
	DB	00H
	ORG $+4
	DQ	0000000000000000H
	DW	00H
	DB	04H
	DB	00H
	ORG $+4
	DQ	0000000000000000H
	DW	00H
	DB	04H
	DB	00H
	ORG $+4
	DQ	0000000000000000H
	DW	00H
	DB	04H
	DB	00H
	ORG $+4
	DQ	0000000000000000H
	DW	00H
	DB	04H
	DB	00H
	ORG $+4
	DQ	0000000000000000H
	DW	00H
	DB	08H
	DB	00H
	ORG $+4
	DQ	0000000000000000H
	DW	00H
	DB	07H
	DB	00H
	ORG $+4
	DQ	0000000000000000H
	DW	00H
	DB	04H
	DB	00H
	ORG $+4
	DQ	0000000000000000H
	DW	00H
	DB	03H
	DB	00H
	ORG $+4
	DQ	0000000000000000H
	DW	00H
	DB	04H
	DB	00H
	ORG $+4
	DQ	0000000000000000H
	DW	00H
	DB	06H
	DB	00H
	ORG $+4
	DQ	0000000000000000H
	DW	00H
	DB	05H
	DB	00H
	ORG $+4
	DQ	0000000000000000H
	DW	00H
	DB	04H
	DB	00H
	ORG $+4
	DQ	0000000000000000H
	DW	00H
	DB	04H
	DB	00H
	ORG $+4
	DQ	0000000000000000H
	DW	00H
	DB	04H
	DB	00H
	ORG $+4
	DQ	0000000000000000H
	DW	00H
	DB	05H
	DB	00H
	ORG $+4
	DQ	0000000000000000H
	DW	00H
	DB	04H
	DB	00H
	ORG $+4
	DQ	0000000000000000H
	DW	00H
	DB	05H
	DB	00H
	ORG $+4
	DQ	0000000000000000H
	DW	00H
	DB	04H
	DB	00H
	ORG $+4
	DQ	0000000000000000H
	DW	00H
	DB	05H
	DB	00H
	ORG $+4
	DQ	0000000000000000H
	DW	00H
	DB	04H
	DB	00H
	ORG $+4
	DQ	0000000000000000H
	DW	00H
	DB	04H
	DB	00H
	ORG $+4
	DQ	0000000000000000H
	DW	00H
	DB	04H
	DB	00H
	ORG $+4
	DQ	0000000000000000H
	DW	00H
	DB	05H
	DB	00H
	ORG $+4
	DQ	0000000000000000H
	DW	00H
	DB	04H
	DB	00H
	ORG $+4
	DQ	0000000000000000H
	DW	00H
	DB	05H
	DB	00H
	ORG $+4
	DQ	0000000000000000H
	DW	00H
	DB	05H
	DB	00H
	ORG $+4
	DQ	0000000000000000H
	DW	00H
	DB	06H
	DB	00H
	ORG $+4
	DQ	0000000000000000H
	DW	00H
	DB	05H
	DB	00H
	ORG $+4
	DQ	0000000000000000H
	DW	00H
	DB	06H
	DB	00H
	ORG $+4
	DQ	0000000000000000H
	DW	00H
	DB	05H
	DB	00H
	ORG $+4
	DQ	0000000000000000H
	DW	00H
	DB	05H
	DB	00H
	ORG $+4
	DQ	0000000000000000H
	DW	00H
	DB	05H
	DB	00H
	ORG $+4
	DQ	0000000000000000H
	DW	00H
	DB	06H
	DB	00H
	ORG $+4
	DQ	0000000000000000H
	DW	00H
	DB	05H
	DB	00H
	ORG $+4
	DQ	0000000000000000H
	DW	00H
	DB	06H
	DB	00H
	ORG $+4
	DQ	0000000000000000H
	DW	00H
	DB	05H
	DB	00H
	ORG $+4
	DQ	0000000000000000H
	DW	00H
	DB	05H
	DB	00H
	ORG $+4
	DQ	0000000000000000H
	DW	00H
	DB	05H
	DB	00H
	ORG $+4
	DQ	0000000000000000H
	DW	00H
	DB	05H
	DB	00H
	ORG $+4
	DQ	0000000000000000H
	DW	00H
	DB	04H
	DB	00H
	ORG $+4
	DQ	0000000000000000H
	DW	00H
	DB	04H
	DB	00H
	ORG $+4
	DQ	0000000000000000H
	DW	00H
	DB	05H
	DB	00H
	ORG $+4
	DQ	0000000000000000H
	DW	00H
	DB	05H
	DB	00H
	ORG $+4
	DQ	0000000000000000H
	DW	00H
	DB	04H
	DB	00H
	ORG $+4
	DQ	0000000000000000H
	DW	00H
	DB	04H
	DB	00H
	ORG $+4
	DQ	0000000000000000H
	DW	00H
	DB	05H
	DB	00H
	ORG $+4
	DQ	0000000000000000H
	DW	00H
	DB	06H
	DB	00H
	ORG $+4
	DQ	0000000000000000H
	DW	00H
	DB	05H
	DB	00H
	ORG $+4
	DQ	0000000000000000H
	DW	00H
	DB	06H
	DB	00H
	ORG $+4
	DQ	0000000000000000H
	DW	00H
	DB	05H
	DB	00H
	ORG $+4
	DQ	0000000000000000H
	DW	00H
	DB	05H
	DB	00H
	ORG $+4
	DQ	0000000000000000H
	DW	00H
	DB	05H
	DB	00H
	ORG $+4
	DQ	0000000000000000H
	DW	00H
	DB	06H
	DB	00H
	ORG $+4
	DQ	0000000000000000H
	DW	00H
	DB	05H
	DB	00H
	ORG $+4
	DQ	0000000000000000H
	DW	00H
	DB	06H
	DB	00H
	ORG $+4
	DQ	0000000000000000H
	DW	00H
	DB	06H
	DB	00H
	ORG $+4
	DQ	0000000000000000H
	DW	00H
	DB	07H
	DB	00H
	ORG $+4
	DQ	0000000000000000H
	DW	00H
	DB	06H
	DB	00H
	ORG $+4
	DQ	0000000000000000H
	DW	00H
	DB	07H
	DB	00H
	ORG $+4
	DQ	0000000000000000H
	DW	00H
	DB	06H
	DB	00H
	ORG $+4
	DQ	0000000000000000H
	DW	00H
	DB	06H
	DB	00H
	ORG $+4
	DQ	0000000000000000H
	DW	00H
	DB	06H
	DB	00H
	ORG $+4
	DQ	0000000000000000H
	DW	00H
	DB	07H
	DB	00H
	ORG $+4
	DQ	0000000000000000H
	DW	00H
	DB	06H
	DB	00H
	ORG $+4
	DQ	0000000000000000H
	DW	00H
	DB	07H
	DB	00H
	ORG $+4
	DQ	0000000000000000H
	DW	00H
	DB	06H
	DB	00H
	ORG $+4
	DQ	0000000000000000H
	DW	00H
	DB	06H
	DB	00H
	ORG $+4
	DQ	0000000000000000H
	DW	00H
	DB	06H
	DB	00H
	ORG $+4
	DQ	0000000000000000H
	DW	00H
	DB	06H
	DB	00H
	ORG $+4
	DQ	0000000000000000H
	DW	00H
	DB	05H
	DB	00H
	ORG $+4
	DQ	0000000000000000H
	DW	00H
	DB	05H
	DB	00H
	ORG $+4
	DQ	0000000000000000H
	DW	00H
	DB	06H
	DB	00H
	ORG $+4
	DQ	0000000000000000H
	DW	00H
	DB	06H
	DB	00H
	ORG $+4
	DQ	0000000000000000H
	DW	00H
	DB	05H
	DB	00H
	ORG $+4
	DQ	0000000000000000H
	DW	00H
	DB	05H
	DB	00H
	ORG $+4
	DQ	0000000000000000H
	DW	00H
	DB	06H
	DB	00H
	ORG $+4
	DQ	0000000000000000H
	DW	00H
	DB	07H
	DB	00H
	ORG $+4
	DQ	0000000000000000H
	DW	00H
	DB	06H
	DB	00H
	ORG $+4
	DQ	0000000000000000H
	DW	00H
	DB	07H
	DB	00H
	ORG $+4
	DQ	0000000000000000H
	DW	00H
	DB	08H
	DB	00H
	ORG $+4
	DQ	0000000000000000H
	DW	00H
	DB	07H
	DB	00H
	ORG $+4
	DQ	0000000000000000H
	DW	00H
	DB	07H
	DB	00H
	ORG $+4
	DQ	0000000000000000H
	DW	00H
	DB	06H
	DB	00H
	ORG $+4
	DQ	0000000000000000H
	DW	00H
	DB	04H
	DB	00H
	ORG $+4
	DQ	0000000000000000H
	DW	00H
	DB	05H
	DB	00H
	ORG $+4
	DQ	0000000000000000H
	DW	00H
	DB	06H
	DB	00H
	ORG $+4
	DQ	0000000000000000H
	DW	00H
	DB	05H
	DB	00H
	ORG $+4
	DQ	0000000000000000H
	DW	00H
	DB	06H
	DB	00H
	ORG $+4
	DQ	0000000000000000H
	DW	00H
	DB	07H
	DB	00H
	ORG $+4
	DQ	0000000000000000H
	DW	00H
	DB	05H
	DB	00H
	ORG $+4
	DQ	0000000000000000H
	DW	00H
	DB	06H
	DB	00H
	ORG $+4
	DQ	0000000000000000H
	DW	00H
	DB	06H
	DB	00H
	ORG $+4
	DQ	0000000000000000H
	DW	00H
	DB	07H
	DB	00H
	ORG $+4
	DQ	0000000000000000H
	DW	00H
	DB	04H
	DB	00H
	ORG $+4
	DQ	0000000000000000H
	DW	00H
	DB	05H
	DB	00H
	ORG $+4
	DQ	0000000000000000H
	DW	00H
	DB	04H
	DB	00H
	ORG $+4
	DQ	0000000000000000H
	DW	00H
	DB	05H
	DB	00H
	ORG $+4
	DQ	0000000000000000H
	DW	00H
	DB	04H
	DB	00H
	ORG $+4
	DQ	0000000000000000H
	DW	00H
	DB	05H
	DB	00H
	ORG $+4
	DQ	0000000000000000H
	DW	00H
	DB	05H
	DB	00H
	ORG $+4
	DQ	0000000000000000H
	DW	00H
	DB	06H
	DB	00H
	ORG $+4
	DQ	0000000000000000H
	DW	00H
	DB	04H
	DB	00H
	ORG $+4
	DQ	0000000000000000H
	DW	00H
	DB	05H
	DB	00H
	ORG $+4
	DQ	0000000000000000H
	DW	00H
	DB	05H
	DB	00H
	ORG $+4
	DQ	0000000000000000H
	DW	00H
	DB	06H
	DB	00H
	ORG $+4
	DQ	0000000000000000H
	DW	00H
	DB	05H
	DB	00H
	ORG $+4
	DQ	0000000000000000H
	DW	00H
	DB	05H
	DB	00H
	ORG $+4
	DQ	0000000000000000H
	DW	00H
	DB	06H
	DB	00H
	ORG $+4
	DQ	0000000000000000H
	DW	00H
	DB	05H
	DB	00H
	ORG $+4
	DQ	0000000000000000H
	DW	00H
	DB	06H
	DB	00H
	ORG $+4
	DQ	0000000000000000H
	DW	00H
	DB	05H
	DB	00H
	ORG $+4
	DQ	0000000000000000H
	DW	00H
	DB	05H
	DB	00H
	ORG $+4
	DQ	0000000000000000H
	DW	00H
	DB	06H
	DB	00H
	ORG $+4
	DQ	0000000000000000H
	DW	00H
	DB	04H
	DB	00H
	ORG $+4
	DQ	0000000000000000H
	DW	00H
	DB	05H
	DB	00H
	ORG $+4
	DQ	0000000000000000H
	DW	00H
	DB	04H
	DB	00H
	ORG $+4
	DQ	0000000000000000H
	DW	00H
	DB	03H
	DB	00H
	ORG $+4
	DQ	0000000000000000H
	DW	00H
	DB	04H
	DB	00H
	ORG $+4
	DQ	0000000000000000H
	DW	00H
	DB	03H
	DB	00H
	ORG $+4
	DQ	0000000000000000H
	DW	00H
	DB	06H
	DB	00H
	ORG $+4
	DQ	0000000000000000H
	DW	00H
	DB	07H
	DB	00H
	ORG $+4
	DQ	0000000000000000H
	DW	00H
	DB	07H
	DB	00H
	ORG $+4
	DQ	0000000000000000H
	DW	00H
	DB	06H
	DB	00H
	ORG $+4
	DQ	0000000000000000H
	DW	00H
	DB	07H
	DB	00H
	ORG $+4
	DQ	0000000000000000H
	DW	00H
	DB	07H
	DB	00H
	ORG $+4
	DQ	0000000000000000H
	DW	00H
	DB	07H
	DB	00H
	ORG $+4
	DQ	0000000000000000H
	DW	00H
	DB	08H
	DB	00H
	ORG $+4
	DQ	0000000000000000H
	DW	00H
	DB	08H
	DB	00H
	ORG $+4
	DQ	0000000000000000H
	DW	00H
	DB	06H
	DB	00H
	ORG $+4
	DQ	0000000000000000H
	DW	00H
	DB	07H
	DB	00H
	ORG $+4
	DQ	0000000000000000H
	DW	00H
	DB	07H
	DB	00H
	ORG $+4
	DQ	0000000000000000H
	DW	00H
	DB	05H
	DB	00H
	ORG $+4
	DQ	0000000000000000H
	DW	00H
	DB	06H
	DB	00H
	ORG $+4
	DQ	0000000000000000H
	DW	00H
	DB	06H
	DB	00H
	ORG $+4
	DQ	0000000000000000H
	DW	00H
	DB	06H
	DB	00H
	ORG $+4
	DQ	0000000000000000H
	DW	00H
	DB	07H
	DB	00H
	ORG $+4
	DQ	0000000000000000H
	DW	00H
	DB	07H
	DB	00H
	ORG $+4
	DQ	0000000000000000H
	DW	00H
	DB	05H
	DB	00H
	ORG $+4
	DQ	0000000000000000H
	DW	00H
	DB	06H
	DB	00H
	ORG $+4
	DQ	0000000000000000H
	DW	00H
	DB	06H
	DB	00H
	ORG $+4
	DQ	0000000000000000H
	DW	00H
	DB	05H
	DB	00H
	ORG $+4
	DQ	0000000000000000H
	DW	00H
	DB	05H
	DB	00H
	ORG $+4
	DQ	0000000000000000H
	DW	00H
	DB	04H
	DB	00H
	ORG $+4
	DQ	0000000000000000H
	DW	00H
	DB	06H
	DB	00H
	ORG $+4
	DQ	0000000000000000H
	DW	00H
	DB	05H
	DB	00H
	ORG $+4
	DQ	0000000000000000H
	DW	00H
	DB	04H
	DB	00H
	ORG $+4
	DQ	0000000000000000H
	DW	00H
	DB	07H
	DB	00H
	ORG $+4
	DQ	0000000000000000H
	DW	00H
	DB	05H
	DB	00H
	ORG $+4
	DQ	0000000000000000H
	DW	00H
	DB	06H
	DB	00H
	ORG $+4
	DQ	0000000000000000H
	DW	00H
	DB	05H
	DB	00H
	ORG $+4
	DQ	0000000000000000H
	DW	00H
	DB	06H
	DB	00H
	ORG $+4
	DQ	0000000000000000H
	DW	00H
	DB	04H
	DB	00H
	ORG $+4
	DQ	0000000000000000H
	DW	00H
	DB	05H
	DB	00H
	ORG $+4
	DQ	0000000000000000H
	DW	00H
	DB	05H
	DB	00H
	ORG $+4
	DQ	0000000000000000H
	DW	00H
	DB	06H
	DB	00H
	ORG $+4
	DQ	0000000000000000H
	DW	00H
	DB	05H
	DB	00H
	ORG $+4
	DQ	0000000000000000H
	DW	00H
	DB	04H
	DB	00H
	ORG $+4
	DQ	0000000000000000H
	DW	00H
	DB	04H
	DB	00H
	ORG $+4
	DQ	0000000000000000H
	DW	00H
	DB	05H
	DB	00H
	ORG $+4
	DQ	0000000000000000H
	DW	00H
	DB	04H
	DB	00H
	ORG $+4
	DQ	0000000000000000H
	DW	00H
	DB	04H
	DB	00H
	ORG $+4
	DQ	0000000000000000H
	DW	00H
	DB	06H
	DB	00H
	ORG $+4
	DQ	0000000000000000H
	DW	00H
	DB	06H
	DB	00H
	ORG $+4
	DQ	0000000000000000H
	DW	00H
	DB	06H
	DB	00H
	ORG $+4
	DQ	0000000000000000H
	DW	00H
	DB	06H
	DB	00H
	ORG $+4
	DQ	0000000000000000H
	DW	00H
	DB	05H
	DB	00H
	ORG $+4
	DQ	0000000000000000H
	DW	00H
	DB	04H
	DB	00H
	ORG $+4
	DQ	0000000000000000H
	DW	00H
	DB	07H
	DB	00H
	ORG $+4
	DQ	0000000000000000H
	DW	00H
	DB	07H
	DB	00H
	ORG $+4
	DQ	0000000000000000H
	DW	00H
	DB	05H
	DB	00H
	ORG $+4
	DQ	0000000000000000H
	DW	00H
	DB	06H
	DB	00H
	ORG $+4
	DQ	0000000000000000H
	DW	00H
	DB	04H
	DB	00H
	ORG $+4
	DQ	0000000000000000H
	DW	00H
	DB	05H
	DB	00H
	ORG $+4
	DQ	0000000000000000H
	DW	00H
	DB	06H
	DB	00H
	ORG $+4
	DQ	0000000000000000H
	DW	00H
	DB	07H
	DB	00H
	ORG $+4
	DQ	0000000000000000H
	DW	00H
	DB	06H
	DB	00H
	ORG $+4
	DQ	0000000000000000H
	DW	00H
	DB	06H
	DB	00H
	ORG $+4
	DQ	0000000000000000H
	DW	00H
	DB	05H
	DB	00H
	ORG $+4
	DQ	0000000000000000H
	DW	00H
	DB	04H
	DB	00H
	ORG $+4
	DQ	0000000000000000H
	DW	00H
	DB	05H
	DB	00H
	ORG $+4
	DQ	0000000000000000H
	DW	00H
	DB	04H
	DB	00H
	ORG $+4
	DQ	0000000000000000H
	DW	00H
	DB	04H
	DB	00H
	ORG $+4
	DQ	0000000000000000H
	DW	00H
	DB	07H
	DB	00H
	ORG $+4
	DQ	0000000000000000H
	DW	00H
	DB	06H
	DB	00H
	ORG $+4
	DQ	0000000000000000H
	DW	00H
	DB	07H
	DB	00H
	ORG $+4
	DQ	0000000000000000H
	DW	00H
	DB	05H
	DB	00H
	ORG $+4
	DQ	0000000000000000H
	DW	00H
	DB	07H
	DB	00H
	ORG $+4
	DQ	0000000000000000H
	DW	00H
	DB	04H
	DB	00H
	ORG $+4
	DQ	0000000000000000H
	DW	00H
	DB	07H
	DB	00H
	ORG $+4
	DQ	0000000000000000H
	DW	00H
	DB	07H
	DB	00H
	ORG $+4
	DQ	0000000000000000H
	DW	00H
	DB	07H
	DB	00H
	ORG $+4
	DQ	0000000000000000H
	DW	00H
	DB	06H
	DB	00H
	ORG $+4
	DQ	0000000000000000H
	DW	00H
	DB	06H
	DB	00H
	ORG $+4
	DQ	0000000000000000H
	DW	00H
	DB	06H
	DB	00H
	ORG $+4
	DQ	0000000000000000H
	DW	00H
	DB	0bH
	DB	00H
	ORG $+4
	DQ	0000000000000000H
	DW	00H
	DB	0aH
	DB	00H
	ORG $+4
	DQ	0000000000000000H
	DW	00H
	DB	0aH
	DB	00H
	ORG $+4
	DQ	0000000000000000H
	DW	00H
	DB	0aH
	DB	00H
	ORG $+4
	DQ	0000000000000000H
	DW	00H
	DB	05H
	DB	00H
	ORG $+4
	DQ	0000000000000000H
	DW	00H
	DB	05H
	DB	00H
	ORG $+4
	DQ	0000000000000000H
	DW	00H
	DB	05H
	DB	00H
	ORG $+4
	DQ	0000000000000000H
	DW	00H
	DB	05H
	DB	00H
	ORG $+4
	DQ	0000000000000000H
	DW	00H
	DB	05H
	DB	00H
	ORG $+4
	DQ	0000000000000000H
	DW	00H
	DB	05H
	DB	00H
	ORG $+4
	DQ	0000000000000000H
	DW	00H
	DB	05H
	DB	00H
	ORG $+4
	DQ	0000000000000000H
	DW	00H
	DB	05H
	DB	00H
	ORG $+4
	DQ	0000000000000000H
	DW	00H
	DB	05H
	DB	00H
	ORG $+4
	DQ	0000000000000000H
	DW	00H
	DB	05H
	DB	00H
	ORG $+4
	DQ	0000000000000000H
	DW	00H
	DB	05H
	DB	00H
	ORG $+4
	DQ	0000000000000000H
	DW	00H
	DB	05H
	DB	00H
	ORG $+4
	DQ	0000000000000000H
	DW	00H
	DB	05H
	DB	00H
	ORG $+4
	DQ	0000000000000000H
	DW	00H
	DB	05H
	DB	00H
	ORG $+4
	DQ	0000000000000000H
	DW	00H
	DB	05H
	DB	00H
	ORG $+4
	DQ	0000000000000000H
	DW	00H
	DB	05H
	DB	00H
	ORG $+4
	DQ	0000000000000000H
	DW	00H
	DB	05H
	DB	00H
	ORG $+4
	DQ	0000000000000000H
	DW	00H
	DB	05H
	DB	00H
	ORG $+4
	DQ	0000000000000000H
	DW	00H
	DB	05H
	DB	00H
	ORG $+4
	DQ	0000000000000000H
	DW	00H
	DB	05H
	DB	00H
	ORG $+4
	DQ	0000000000000000H
	DW	00H
	DB	05H
	DB	00H
	ORG $+4
	DQ	0000000000000000H
	DW	00H
	DB	06H
	DB	00H
	ORG $+4
	DQ	0000000000000000H
	DW	00H
	DB	06H
	DB	00H
	ORG $+4
	DQ	0000000000000000H
	DW	00H
	DB	06H
	DB	00H
	ORG $+4
	DQ	0000000000000000H
	DW	00H
	DB	06H
	DB	00H
	ORG $+4
	DQ	0000000000000000H
	DW	00H
	DB	05H
	DB	00H
	ORG $+4
	DQ	0000000000000000H
	DW	00H
	DB	05H
	DB	00H
	ORG $+4
	DQ	0000000000000000H
	DW	00H
	DB	05H
	DB	00H
	ORG $+4
	DQ	0000000000000000H
	DW	00H
	DB	05H
	DB	00H
	ORG $+4
	DQ	0000000000000000H
	DW	00H
	DB	05H
	DB	00H
	ORG $+4
	DQ	0000000000000000H
	DW	00H
	DB	05H
	DB	00H
	ORG $+4
	DQ	0000000000000000H
	DW	00H
	DB	05H
	DB	00H
	ORG $+4
	DQ	0000000000000000H
	DW	00H
	DB	07H
	DB	00H
	ORG $+4
	DQ	0000000000000000H
	DW	00H
	DB	07H
	DB	00H
	ORG $+4
	DQ	0000000000000000H
	DW	00H
	DB	07H
	DB	00H
	ORG $+4
	DQ	0000000000000000H
	DW	00H
	DB	0aH
	DB	00H
	ORG $+4
	DQ	0000000000000000H
	DW	00H
	DB	08H
	DB	00H
	ORG $+4
	DQ	0000000000000000H
	DW	00H
	DB	08H
	DB	00H
	ORG $+4
	DQ	0000000000000000H
	DW	00H
	DB	08H
	DB	00H
	ORG $+4
	DQ	0000000000000000H
	DW	00H
	DB	08H
	DB	00H
	ORG $+4
	DQ	0000000000000000H
	DW	00H
	DB	0aH
	DB	00H
	ORG $+4
	DQ	0000000000000000H
	DW	00H
	DB	08H
	DB	00H
	ORG $+4
	DQ	0000000000000000H
	DW	00H
	DB	08H
	DB	00H
	ORG $+4
	DQ	0000000000000000H
	DW	00H
	DB	0aH
	DB	00H
	ORG $+4
	DQ	0000000000000000H
	DW	00H
	DB	0bH
	DB	00H
	ORG $+4
	DQ	0000000000000000H
	DW	00H
	DB	07H
	DB	00H
	ORG $+4
	DQ	0000000000000000H
	DW	00H
	DB	07H
	DB	00H
	ORG $+4
	DQ	0000000000000000H
	DW	00H
	DB	09H
	DB	00H
	ORG $+4
	DQ	0000000000000000H
	DW	00H
	DB	0aH
	DB	00H
	ORG $+4
	DQ	0000000000000000H
	DW	00H
	DB	0aH
	DB	00H
	ORG $+4
	DQ	0000000000000000H
	DW	00H
	DB	0aH
	DB	00H
	ORG $+4
	DQ	0000000000000000H
	DW	00H
	DB	0cH
	DB	00H
	ORG $+4
	DQ	0000000000000000H
	DW	00H
	DB	0bH
	DB	00H
	ORG $+4
	DQ	0000000000000000H
	DW	00H
	DB	0bH
	DB	00H
	ORG $+4
	DQ	0000000000000000H
	DW	00H
	DB	0bH
	DB	00H
	ORG $+4
	DQ	0000000000000000H
	DW	00H
	DB	0aH
	DB	00H
	ORG $+4
	DQ	0000000000000000H
	DW	00H
	DB	0aH
	DB	00H
	ORG $+4
	DQ	0000000000000000H
	DW	00H
	DB	0bH
	DB	00H
	ORG $+4
	DQ	0000000000000000H
	DW	00H
	DB	0bH
	DB	00H
	ORG $+4
	DQ	0000000000000000H
	DW	00H
	DB	0dH
	DB	00H
	ORG $+4
	DQ	0000000000000000H
	DW	00H
	DB	0bH
	DB	00H
	ORG $+4
	DQ	0000000000000000H
	DW	00H
	DB	0aH
	DB	00H
	ORG $+4
	DQ	0000000000000000H
	DW	00H
	DB	0aH
	DB	00H
	ORG $+4
	DQ	0000000000000000H
	DW	00H
	DB	0cH
	DB	00H
	ORG $+4
	DQ	0000000000000000H
	DW	00H
	DB	07H
	DB	00H
	ORG $+4
	DQ	0000000000000000H
	DW	00H
	DB	07H
	DB	00H
	ORG $+4
	DQ	0000000000000000H
	DW	00H
	DB	07H
	DB	00H
	ORG $+4
	DQ	0000000000000000H
	DW	00H
	DB	0aH
	DB	00H
	ORG $+4
	DQ	0000000000000000H
	DW	00H
	DB	08H
	DB	00H
	ORG $+4
	DQ	0000000000000000H
	DW	00H
	DB	08H
	DB	00H
	ORG $+4
	DQ	0000000000000000H
	DW	00H
	DB	08H
	DB	00H
	ORG $+4
	DQ	0000000000000000H
	DW	00H
	DB	08H
	DB	00H
	ORG $+4
	DQ	0000000000000000H
	DW	00H
	DB	0aH
	DB	00H
	ORG $+4
	DQ	0000000000000000H
	DW	00H
	DB	08H
	DB	00H
	ORG $+4
	DQ	0000000000000000H
	DW	00H
	DB	08H
	DB	00H
	ORG $+4
	DQ	0000000000000000H
	DW	00H
	DB	0aH
	DB	00H
	ORG $+4
	DQ	0000000000000000H
	DW	00H
	DB	0bH
	DB	00H
	ORG $+4
	DQ	0000000000000000H
	DW	00H
	DB	07H
	DB	00H
	ORG $+4
	DQ	0000000000000000H
	DW	00H
	DB	07H
	DB	00H
	ORG $+4
	DQ	0000000000000000H
	DW	00H
	DB	09H
	DB	00H
	ORG $+4
	DQ	0000000000000000H
	DW	00H
	DB	0aH
	DB	00H
	ORG $+4
	DQ	0000000000000000H
	DW	00H
	DB	0aH
	DB	00H
	ORG $+4
	DQ	0000000000000000H
	DW	00H
	DB	0aH
	DB	00H
	ORG $+4
	DQ	0000000000000000H
	DW	00H
	DB	0cH
	DB	00H
	ORG $+4
	DQ	0000000000000000H
	DW	00H
	DB	0bH
	DB	00H
	ORG $+4
	DQ	0000000000000000H
	DW	00H
	DB	0bH
	DB	00H
	ORG $+4
	DQ	0000000000000000H
	DW	00H
	DB	0bH
	DB	00H
	ORG $+4
	DQ	0000000000000000H
	DW	00H
	DB	0aH
	DB	00H
	ORG $+4
	DQ	0000000000000000H
	DW	00H
	DB	0aH
	DB	00H
	ORG $+4
	DQ	0000000000000000H
	DW	00H
	DB	0bH
	DB	00H
	ORG $+4
	DQ	0000000000000000H
	DW	00H
	DB	0bH
	DB	00H
	ORG $+4
	DQ	0000000000000000H
	DW	00H
	DB	0dH
	DB	00H
	ORG $+4
	DQ	0000000000000000H
	DW	00H
	DB	0bH
	DB	00H
	ORG $+4
	DQ	0000000000000000H
	DW	00H
	DB	0aH
	DB	00H
	ORG $+4
	DQ	0000000000000000H
	DW	00H
	DB	0aH
	DB	00H
	ORG $+4
	DQ	0000000000000000H
	DW	00H
	DB	0cH
	DB	00H
	ORG $+4
	DQ	0000000000000000H
	DW	00H
	DB	07H
	DB	00H
	ORG $+4
	DQ	0000000000000000H
	DW	00H
	DB	07H
	DB	00H
	ORG $+4
	DQ	0000000000000000H
	DW	00H
	DB	07H
	DB	00H
	ORG $+4
	DQ	0000000000000000H
	DW	00H
	DB	0aH
	DB	00H
	ORG $+4
	DQ	0000000000000000H
	DW	00H
	DB	08H
	DB	00H
	ORG $+4
	DQ	0000000000000000H
	DW	00H
	DB	08H
	DB	00H
	ORG $+4
	DQ	0000000000000000H
	DW	00H
	DB	08H
	DB	00H
	ORG $+4
	DQ	0000000000000000H
	DW	00H
	DB	08H
	DB	00H
	ORG $+4
	DQ	0000000000000000H
	DW	00H
	DB	0aH
	DB	00H
	ORG $+4
	DQ	0000000000000000H
	DW	00H
	DB	08H
	DB	00H
	ORG $+4
	DQ	0000000000000000H
	DW	00H
	DB	08H
	DB	00H
	ORG $+4
	DQ	0000000000000000H
	DW	00H
	DB	0aH
	DB	00H
	ORG $+4
	DQ	0000000000000000H
	DW	00H
	DB	0bH
	DB	00H
	ORG $+4
	DQ	0000000000000000H
	DW	00H
	DB	07H
	DB	00H
	ORG $+4
	DQ	0000000000000000H
	DW	00H
	DB	07H
	DB	00H
	ORG $+4
	DQ	0000000000000000H
	DW	00H
	DB	09H
	DB	00H
	ORG $+4
	DQ	0000000000000000H
	DW	00H
	DB	0aH
	DB	00H
	ORG $+4
	DQ	0000000000000000H
	DW	00H
	DB	0aH
	DB	00H
	ORG $+4
	DQ	0000000000000000H
	DW	00H
	DB	0aH
	DB	00H
	ORG $+4
	DQ	0000000000000000H
	DW	00H
	DB	0cH
	DB	00H
	ORG $+4
	DQ	0000000000000000H
	DW	00H
	DB	0bH
	DB	00H
	ORG $+4
	DQ	0000000000000000H
	DW	00H
	DB	0bH
	DB	00H
	ORG $+4
	DQ	0000000000000000H
	DW	00H
	DB	0bH
	DB	00H
	ORG $+4
	DQ	0000000000000000H
	DW	00H
	DB	0aH
	DB	00H
	ORG $+4
	DQ	0000000000000000H
	DW	00H
	DB	0aH
	DB	00H
	ORG $+4
	DQ	0000000000000000H
	DW	00H
	DB	0bH
	DB	00H
	ORG $+4
	DQ	0000000000000000H
	DW	00H
	DB	0bH
	DB	00H
	ORG $+4
	DQ	0000000000000000H
	DW	00H
	DB	0dH
	DB	00H
	ORG $+4
	DQ	0000000000000000H
	DW	00H
	DB	0bH
	DB	00H
	ORG $+4
	DQ	0000000000000000H
	DW	00H
	DB	0aH
	DB	00H
	ORG $+4
	DQ	0000000000000000H
	DW	00H
	DB	0aH
	DB	00H
	ORG $+4
	DQ	0000000000000000H
	DW	00H
	DB	0cH
	DB	00H
	ORG $+4
	DQ	0000000000000000H
	DW	00H
	DB	07H
	DB	00H
	ORG $+4
	DQ	0000000000000000H
	DW	00H
	DB	07H
	DB	00H
	ORG $+4
	DQ	0000000000000000H
	DW	00H
	DB	07H
	DB	00H
	ORG $+4
	DQ	0000000000000000H
	DW	00H
	DB	0aH
	DB	00H
	ORG $+4
	DQ	0000000000000000H
	DW	00H
	DB	08H
	DB	00H
	ORG $+4
	DQ	0000000000000000H
	DW	00H
	DB	08H
	DB	00H
	ORG $+4
	DQ	0000000000000000H
	DW	00H
	DB	08H
	DB	00H
	ORG $+4
	DQ	0000000000000000H
	DW	00H
	DB	08H
	DB	00H
	ORG $+4
	DQ	0000000000000000H
	DW	00H
	DB	0aH
	DB	00H
	ORG $+4
	DQ	0000000000000000H
	DW	00H
	DB	08H
	DB	00H
	ORG $+4
	DQ	0000000000000000H
	DW	00H
	DB	08H
	DB	00H
	ORG $+4
	DQ	0000000000000000H
	DW	00H
	DB	0aH
	DB	00H
	ORG $+4
	DQ	0000000000000000H
	DW	00H
	DB	0bH
	DB	00H
	ORG $+4
	DQ	0000000000000000H
	DW	00H
	DB	07H
	DB	00H
	ORG $+4
	DQ	0000000000000000H
	DW	00H
	DB	07H
	DB	00H
	ORG $+4
	DQ	0000000000000000H
	DW	00H
	DB	09H
	DB	00H
	ORG $+4
	DQ	0000000000000000H
	DW	00H
	DB	0aH
	DB	00H
	ORG $+4
	DQ	0000000000000000H
	DW	00H
	DB	0aH
	DB	00H
	ORG $+4
	DQ	0000000000000000H
	DW	00H
	DB	0aH
	DB	00H
	ORG $+4
	DQ	0000000000000000H
	DW	00H
	DB	0cH
	DB	00H
	ORG $+4
	DQ	0000000000000000H
	DW	00H
	DB	0bH
	DB	00H
	ORG $+4
	DQ	0000000000000000H
	DW	00H
	DB	0bH
	DB	00H
	ORG $+4
	DQ	0000000000000000H
	DW	00H
	DB	0bH
	DB	00H
	ORG $+4
	DQ	0000000000000000H
	DW	00H
	DB	0aH
	DB	00H
	ORG $+4
	DQ	0000000000000000H
	DW	00H
	DB	0aH
	DB	00H
	ORG $+4
	DQ	0000000000000000H
	DW	00H
	DB	0bH
	DB	00H
	ORG $+4
	DQ	0000000000000000H
	DW	00H
	DB	0bH
	DB	00H
	ORG $+4
	DQ	0000000000000000H
	DW	00H
	DB	0dH
	DB	00H
	ORG $+4
	DQ	0000000000000000H
	DW	00H
	DB	0bH
	DB	00H
	ORG $+4
	DQ	0000000000000000H
	DW	00H
	DB	0aH
	DB	00H
	ORG $+4
	DQ	0000000000000000H
	DW	00H
	DB	0aH
	DB	00H
	ORG $+4
	DQ	0000000000000000H
	DW	00H
	DB	0cH
	DB	00H
	ORG $+4
	DQ	0000000000000000H
	DW	00H
	DB	06H
	DB	00H
	ORG $+4
	DQ	0000000000000000H
	DW	00H
	DB	06H
	DB	00H
	ORG $+4
	DQ	0000000000000000H
	DW	00H
	DB	05H
	DB	00H
	ORG $+4
	DQ	0000000000000000H
	DW	00H
	DB	05H
	DB	00H
	ORG $+4
	DQ	0000000000000000H
	DW	00H
	DB	04H
	DB	00H
	ORG $+4
	DQ	0000000000000000H
	DW	00H
	DB	04H
	DB	00H
	ORG $+4
	DQ	0000000000000000H
	DW	00H
	DB	06H
	DB	00H
	ORG $+4
	DQ	0000000000000000H
	DW	00H
	DB	06H
	DB	00H
	ORG $+4
	DQ	0000000000000000H
	DW	00H
	DB	05H
	DB	00H
	ORG $+4
	DQ	0000000000000000H
	DW	00H
	DB	05H
	DB	00H
	ORG $+4
	DQ	0000000000000000H
	DW	00H
	DB	08H
	DB	00H
	ORG $+4
	DQ	0000000000000000H
	DW	00H
	DB	08H
	DB	00H
	ORG $+4
	DQ	0000000000000000H
	DW	00H
	DB	08H
	DB	00H
	ORG $+4
	DQ	0000000000000000H
	DW	00H
	DB	08H
	DB	00H
	ORG $+4
	DQ	0000000000000000H
	DW	00H
	DB	08H
	DB	00H
	ORG $+4
	DQ	0000000000000000H
	DW	00H
	DB	08H
	DB	00H
	ORG $+4
	DQ	0000000000000000H
	DW	00H
	DB	08H
	DB	00H
	ORG $+4
	DQ	0000000000000000H
	DW	00H
	DB	08H
	DB	00H
	ORG $+4
	DQ	0000000000000000H
	DW	00H
	DB	09H
	DB	00H
	ORG $+4
	DQ	0000000000000000H
	DW	00H
	DB	09H
	DB	00H
	ORG $+4
	DQ	0000000000000000H
	DW	00H
	DB	09H
	DB	00H
	ORG $+4
	DQ	0000000000000000H
	DW	00H
	DB	09H
	DB	00H
	ORG $+4
	DQ	0000000000000000H
	DW	00H
	DB	08H
	DB	00H
	ORG $+4
	DQ	0000000000000000H
	DW	00H
	DB	08H
	DB	00H
	ORG $+4
	DQ	0000000000000000H
	DW	00H
	DB	09H
	DB	00H
	ORG $+4
	DQ	0000000000000000H
	DW	00H
	DB	08H
	DB	00H
	ORG $+4
	DQ	0000000000000000H
	DW	00H
	DB	08H
	DB	00H
	ORG $+4
	DQ	0000000000000000H
	DW	00H
	DB	09H
	DB	00H
	ORG $+4
	DQ	0000000000000000H
	DW	00H
	DB	08H
	DB	00H
	ORG $+4
	DQ	0000000000000000H
	DW	00H
	DB	08H
	DB	00H
	ORG $+4
	DQ	0000000000000000H
	DW	00H
	DB	08H
	DB	00H
	ORG $+4
	DQ	0000000000000000H
	DW	00H
	DB	08H
	DB	00H
	ORG $+4
	DQ	0000000000000000H
	DW	00H
	DB	0aH
	DB	00H
	ORG $+4
	DQ	0000000000000000H
	DW	00H
	DB	08H
	DB	00H
	ORG $+4
	DQ	0000000000000000H
	DW	00H
	DB	04H
	DB	00H
	ORG $+4
	DQ	0000000000000000H
	DW	00H
	DB	04H
	DB	00H
	ORG $+4
	DQ	0000000000000000H
	DW	00H
	DB	06H
	DB	00H
	ORG $+4
	DQ	0000000000000000H
	DW	00H
	DB	06H
	DB	00H
	ORG $+4
	DQ	0000000000000000H
	DW	00H
	DB	06H
	DB	00H
	ORG $+4
	DQ	0000000000000000H
	DW	00H
	DB	06H
	DB	00H
	ORG $+4
	DQ	0000000000000000H
	DW	00H
	DB	06H
	DB	00H
	ORG $+4
	DQ	0000000000000000H
	DW	00H
	DB	06H
	DB	00H
	ORG $+4
	DQ	0000000000000000H
	DW	00H
	DB	06H
	DB	00H
	ORG $+4
	DQ	0000000000000000H
	DW	00H
	DB	06H
	DB	00H
	ORG $+4
	DQ	0000000000000000H
	DW	00H
	DB	06H
	DB	00H
	ORG $+4
	DQ	0000000000000000H
	DW	00H
	DB	06H
	DB	00H
	ORG $+4
	DQ	0000000000000000H
	DW	00H
	DB	07H
	DB	00H
	ORG $+4
	DQ	0000000000000000H
	DW	00H
	DB	07H
	DB	00H
	ORG $+4
	DQ	0000000000000000H
	DW	00H
	DB	07H
	DB	00H
	ORG $+4
	DQ	0000000000000000H
	DW	00H
	DB	07H
	DB	00H
	ORG $+4
	DQ	0000000000000000H
	DW	00H
	DB	08H
	DB	00H
	ORG $+4
	DQ	0000000000000000H
	DW	00H
	DB	08H
	DB	00H
	ORG $+4
	DQ	0000000000000000H
	DW	00H
	DB	07H
	DB	00H
	ORG $+4
	DQ	0000000000000000H
	DW	00H
	DB	06H
	DB	00H
	ORG $+4
	DQ	0000000000000000H
	DW	00H
	DB	07H
	DB	00H
	ORG $+4
	DQ	0000000000000000H
	DW	00H
	DB	07H
	DB	00H
	ORG $+4
	DQ	0000000000000000H
	DW	00H
	DB	06H
	DB	00H
	ORG $+4
	DQ	0000000000000000H
	DW	00H
	DB	05H
	DB	00H
	ORG $+4
	DQ	0000000000000000H
	DW	00H
	DB	08H
	DB	00H
	ORG $+4
	DQ	0000000000000000H
	DW	00H
	DB	08H
	DB	00H
	ORG $+4
	DQ	0000000000000000H
	DW	00H
	DB	08H
	DB	00H
	ORG $+4
	DQ	0000000000000000H
	DW	00H
	DB	05H
	DB	00H
	ORG $+4
	DQ	0000000000000000H
	DW	00H
	DB	05H
	DB	00H
	ORG $+4
	DQ	0000000000000000H
	DW	00H
	DB	05H
	DB	00H
	ORG $+4
	DQ	0000000000000000H
	DW	00H
	DB	05H
	DB	00H
	ORG $+4
	DQ	0000000000000000H
	DW	00H
	DB	06H
	DB	00H
	ORG $+4
	DQ	0000000000000000H
	DW	00H
	DB	06H
	DB	00H
	ORG $+4
	DQ	0000000000000000H
	DW	00H
	DB	07H
	DB	00H
	ORG $+4
	DQ	0000000000000000H
	DW	00H
	DB	07H
	DB	00H
	ORG $+4
	DQ	0000000000000000H
	DW	00H
	DB	04H
	DB	00H
	ORG $+4
	DQ	0000000000000000H
	DW	00H
	DB	05H
	DB	00H
	ORG $+4
	DQ	0000000000000000H
	DW	00H
	DB	05H
	DB	00H
	ORG $+4
	DQ	0000000000000000H
	DW	00H
	DB	05H
	DB	00H
	ORG $+4
	DQ	0000000000000000H
	DW	00H
	DB	07H
	DB	00H
	ORG $+4
	DQ	0000000000000000H
	DW	00H
	DB	07H
	DB	00H
	ORG $+4
	DQ	0000000000000000H
	DW	00H
	DB	07H
	DB	00H
	ORG $+4
	DQ	0000000000000000H
	DW	00H
	DB	07H
	DB	00H
	ORG $+4
	DQ	0000000000000000H
	DW	00H
	DB	07H
	DB	00H
	ORG $+4
	DQ	0000000000000000H
	DW	00H
	DB	07H
	DB	00H
	ORG $+4
	DQ	0000000000000000H
	DW	00H
	DB	06H
	DB	00H
	ORG $+4
	DQ	0000000000000000H
	DW	00H
	DB	06H
	DB	00H
	ORG $+4
	DQ	0000000000000000H
	DW	00H
	DB	07H
	DB	00H
	ORG $+4
	DQ	0000000000000000H
	DW	00H
	DB	06H
	DB	00H
	ORG $+4
	DQ	0000000000000000H
	DW	00H
	DB	06H
	DB	00H
	ORG $+4
	DQ	0000000000000000H
	DW	00H
	DB	06H
	DB	00H
	ORG $+4
	DQ	0000000000000000H
	DW	00H
	DB	06H
	DB	00H
	ORG $+4
	DQ	0000000000000000H
	DW	00H
	DB	08H
	DB	00H
	ORG $+4
	DQ	0000000000000000H
	DW	00H
	DB	07H
	DB	00H
	ORG $+4
	DQ	0000000000000000H
	DW	00H
	DB	06H
	DB	00H
	ORG $+4
	DQ	0000000000000000H
	DW	00H
	DB	06H
	DB	00H
	ORG $+4
	DQ	0000000000000000H
	DW	00H
	DB	07H
	DB	00H
	ORG $+4
	DQ	0000000000000000H
	DW	00H
	DB	03H
	DB	00H
	ORG $+4
	DQ	0000000000000000H
	DW	00H
	DB	06H
	DB	00H
	ORG $+4
	DQ	0000000000000000H
	DW	00H
	DB	06H
	DB	00H
	ORG $+4
	DQ	0000000000000000H
	DW	00H
	DB	06H
	DB	00H
	ORG $+4
	DQ	0000000000000000H
	DW	00H
	DB	07H
	DB	00H
	ORG $+4
	DQ	0000000000000000H
	DW	00H
	DB	07H
	DB	00H
	ORG $+4
	DQ	0000000000000000H
	DW	00H
	DB	05H
	DB	00H
	ORG $+4
	DQ	0000000000000000H
	DW	00H
	DB	05H
	DB	00H
	ORG $+4
	DQ	0000000000000000H
	DW	00H
	DB	05H
	DB	00H
	ORG $+4
	DQ	0000000000000000H
	DW	00H
	DB	05H
	DB	00H
	ORG $+4
	DQ	0000000000000000H
	DW	00H
	DB	05H
	DB	00H
	ORG $+4
	DQ	0000000000000000H
	DW	00H
	DB	05H
	DB	00H
	ORG $+4
	DQ	0000000000000000H
	DW	00H
	DB	05H
	DB	00H
	ORG $+4
	DQ	0000000000000000H
	DW	00H
	DB	05H
	DB	00H
	ORG $+4
	DQ	0000000000000000H
	DW	00H
	DB	06H
	DB	00H
	ORG $+4
	DQ	0000000000000000H
	DW	00H
	DB	06H
	DB	00H
	ORG $+4
	DQ	0000000000000000H
	DW	00H
	DB	05H
	DB	00H
	ORG $+4
	DQ	0000000000000000H
	DW	00H
	DB	05H
	DB	00H
	ORG $+4
	DQ	0000000000000000H
	DW	00H
	DB	05H
	DB	00H
	ORG $+4
	DQ	0000000000000000H
	DW	00H
	DB	05H
	DB	00H
	ORG $+4
	DQ	0000000000000000H
	DW	00H
	DB	06H
	DB	00H
	ORG $+4
	DQ	0000000000000000H
	DW	00H
	DB	06H
	DB	00H
	ORG $+4
	DQ	0000000000000000H
	DW	00H
	DB	07H
	DB	00H
	ORG $+4
	DQ	0000000000000000H
	DW	00H
	DB	07H
	DB	00H
	ORG $+4
	DQ	0000000000000000H
	DW	00H
	DB	04H
	DB	00H
	ORG $+4
	DQ	0000000000000000H
	DW	00H
	DB	09H
	DB	00H
	ORG $+4
	DQ	0000000000000000H
	DW	00H
	DB	09H
	DB	00H
	ORG $+4
	DQ	0000000000000000H
	DW	00H
	DB	09H
	DB	00H
	ORG $+4
	DQ	0000000000000000H
	DW	00H
	DB	09H
	DB	00H
	ORG $+4
	DQ	0000000000000000H
	DW	00H
	DB	09H
	DB	00H
	ORG $+4
	DQ	0000000000000000H
	DW	00H
	DB	09H
	DB	00H
	ORG $+4
	DQ	0000000000000000H
	DW	00H
	DB	0aH
	DB	00H
	ORG $+4
	DQ	0000000000000000H
	DW	00H
	DB	0aH
	DB	00H
	ORG $+4
	DQ	0000000000000000H
	DW	00H
	DB	05H
	DB	00H
	ORG $+4
	DQ	0000000000000000H
	DW	00H
	DB	05H
	DB	00H
	ORG $+4
	DQ	0000000000000000H
	DW	00H
	DB	07H
	DB	00H
	ORG $+4
	DQ	0000000000000000H
	DW	00H
	DB	07H
	DB	00H
	ORG $+4
	DQ	0000000000000000H
	DW	00H
	DB	06H
	DB	00H
	ORG $+4
	DQ	0000000000000000H
	DW	00H
	DB	06H
	DB	00H
	ORG $+4
	DQ	0000000000000000H
	DW	00H
	DB	07H
	DB	00H
	ORG $+4
	DQ	0000000000000000H
	DW	00H
	DB	07H
	DB	00H
	ORG $+4
	DQ	0000000000000000H
	DW	00H
	DB	08H
	DB	00H
	ORG $+4
	DQ	0000000000000000H
	DW	00H
	DB	08H
	DB	00H
	ORG $+4
	DQ	0000000000000000H
	DW	00H
	DB	08H
	DB	00H
	ORG $+4
	DQ	0000000000000000H
	DW	00H
	DB	08H
	DB	00H
	ORG $+4
	DQ	0000000000000000H
	DW	00H
	DB	05H
	DB	00H
	ORG $+4
	DQ	0000000000000000H
	DW	00H
	DB	08H
	DB	00H
	ORG $+4
	DQ	0000000000000000H
	DW	00H
	DB	09H
	DB	00H
	ORG $+4
	DQ	0000000000000000H
	DW	00H
	DB	07H
	DB	00H
	ORG $+4
	DQ	0000000000000000H
	DW	00H
	DB	05H
	DB	00H
	ORG $+4
	DQ	0000000000000000H
	DW	00H
	DB	05H
	DB	00H
	ORG $+4
	DQ	0000000000000000H
	DW	00H
	DB	05H
	DB	00H
	ORG $+4
	DQ	0000000000000000H
	DW	00H
	DB	05H
	DB	00H
	ORG $+4
	DQ	0000000000000000H
	DW	00H
	DB	07H
	DB	00H
	ORG $+4
	DQ	0000000000000000H
	DW	00H
	DB	07H
	DB	00H
	ORG $+4
	DQ	0000000000000000H
	DW	00H
	DB	07H
	DB	00H
	ORG $+4
	DQ	0000000000000000H
	DW	00H
	DB	05H
	DB	00H
	ORG $+4
	DQ	0000000000000000H
	DW	00H
	DB	05H
	DB	00H
	ORG $+4
	DQ	0000000000000000H
	DW	00H
	DB	05H
	DB	00H
	ORG $+4
	DQ	0000000000000000H
	DW	00H
	DB	06H
	DB	00H
	ORG $+4
	DQ	0000000000000000H
	DW	00H
	DB	07H
	DB	00H
	ORG $+4
	DQ	0000000000000000H
	DW	00H
	DB	05H
	DB	00H
	ORG $+4
	DQ	0000000000000000H
	DW	00H
	DB	08H
	DB	00H
	ORG $+4
	DQ	0000000000000000H
	DW	00H
	DB	08H
	DB	00H
	ORG $+4
	DQ	0000000000000000H
	DW	00H
	DB	08H
	DB	00H
	ORG $+4
	DQ	0000000000000000H
	DW	00H
	DB	07H
	DB	00H
	ORG $+4
	DQ	0000000000000000H
	DW	00H
	DB	05H
	DB	00H
	ORG $+4
	DQ	0000000000000000H
	DW	00H
	DB	06H
	DB	00H
	ORG $+4
	DQ	0000000000000000H
	DW	00H
	DB	05H
	DB	00H
	ORG $+4
	DQ	0000000000000000H
	DW	00H
	DB	05H
	DB	00H
	ORG $+4
	DQ	0000000000000000H
	DW	00H
	DB	07H
	DB	00H
	ORG $+4
	DQ	0000000000000000H
	DW	00H
	DB	06H
	DB	00H
	ORG $+4
	DQ	0000000000000000H
	DW	00H
	DB	08H
	DB	00H
	ORG $+4
	DQ	0000000000000000H
	DW	00H
	DB	08H
	DB	00H
	ORG $+4
	DQ	0000000000000000H
	DW	00H
	DB	06H
	DB	00H
	ORG $+4
	DQ	0000000000000000H
	DW	00H
	DB	06H
	DB	00H
	ORG $+4
	DQ	0000000000000000H
	DW	00H
	DB	06H
	DB	00H
	ORG $+4
	DQ	0000000000000000H
	DW	00H
	DB	06H
	DB	00H
	ORG $+4
	DQ	0000000000000000H
	DW	00H
	DB	06H
	DB	00H
	ORG $+4
	DQ	0000000000000000H
	DW	00H
	DB	05H
	DB	00H
	ORG $+4
	DQ	0000000000000000H
	DW	00H
	DB	07H
	DB	00H
	ORG $+4
	DQ	0000000000000000H
	DW	00H
	DB	07H
	DB	00H
	ORG $+4
	DQ	0000000000000000H
	DW	00H
	DB	08H
	DB	00H
	ORG $+4
	DQ	0000000000000000H
	DW	00H
	DB	08H
	DB	00H
	ORG $+4
	DQ	0000000000000000H
	DW	00H
	DB	05H
	DB	00H
	ORG $+4
	DQ	0000000000000000H
	DW	00H
	DB	05H
	DB	00H
	ORG $+4
	DQ	0000000000000000H
	DW	00H
	DB	05H
	DB	00H
	ORG $+4
	DQ	0000000000000000H
	DW	00H
	DB	05H
	DB	00H
	ORG $+4
	DQ	0000000000000000H
	DW	00H
	DB	07H
	DB	00H
	ORG $+4
	DQ	0000000000000000H
	DW	00H
	DB	06H
	DB	00H
	ORG $+4
	DQ	0000000000000000H
	DW	00H
	DB	07H
	DB	00H
	ORG $+4
	DQ	0000000000000000H
	DW	00H
	DB	06H
	DB	00H
	ORG $+4
	DQ	0000000000000000H
	DW	00H
	DB	06H
	DB	00H
	ORG $+4
	DQ	0000000000000000H
	DW	00H
	DB	07H
	DB	00H
	ORG $+4
	DQ	0000000000000000H
	DW	00H
	DB	06H
	DB	00H
	ORG $+4
	DQ	0000000000000000H
	DW	00H
	DB	09H
	DB	00H
	ORG $+4
	DQ	0000000000000000H
	DW	00H
	DB	08H
	DB	00H
	ORG $+4
	DQ	0000000000000000H
	DW	00H
	DB	06H
	DB	00H
	ORG $+4
	DQ	0000000000000000H
	DW	00H
	DB	06H
	DB	00H
	ORG $+4
	DQ	0000000000000000H
	DW	00H
	DB	06H
	DB	00H
	ORG $+4
	DQ	0000000000000000H
	DW	00H
	DB	06H
	DB	00H
	ORG $+4
	DQ	0000000000000000H
	DW	00H
	DB	04H
	DB	04H
	ORG $+4
	DQ	0000000000000000H
	DW	00H
	DB	03H
	DB	04H
	ORG $+4
	DQ	0000000000000000H
	DW	00H
	DB	06H
	DB	04H
	ORG $+4
	DQ	0000000000000000H
	DW	00H
	DB	05H
	DB	04H
	ORG $+4
	DQ	0000000000000000H
	DW	00H
	DB	05H
	DB	04H
	ORG $+4
	DQ	0000000000000000H
	DW	00H
	DB	0aH
	DB	04H
	ORG $+4
	DQ	0000000000000000H
	DW	00H
	DB	06H
	DB	04H
	ORG $+4
	DQ	0000000000000000H
	DW	00H
	DB	05H
	DB	04H
	ORG $+4
	DQ	0000000000000000H
	DW	00H
	DB	05H
	DB	04H
	ORG $+4
	DQ	0000000000000000H
	DW	00H
	DB	05H
	DB	04H
	ORG $+4
	DQ	0000000000000000H
	DW	00H
	DB	05H
	DB	04H
	ORG $+4
	DQ	0000000000000000H
	DW	00H
	DB	05H
	DB	04H
	ORG $+4
	DQ	0000000000000000H
	DW	00H
	DB	06H
	DB	04H
	ORG $+4
	DQ	0000000000000000H
	DW	00H
	DB	06H
	DB	04H
	ORG $+4
	DQ	0000000000000000H
	DW	00H
	DB	06H
	DB	04H
	ORG $+4
	DQ	0000000000000000H
	DW	00H
	DB	07H
	DB	04H
	ORG $+4
	DQ	0000000000000000H
	DW	00H
	DB	06H
	DB	04H
	ORG $+4
	DQ	0000000000000000H
	DW	00H
	DB	07H
	DB	00H
	ORG $+4
	DQ	0000000000000000H
	DW	00H
	DB	07H
	DB	00H
	ORG $+4
	DQ	0000000000000000H
	DW	00H
	DB	08H
	DB	00H
	ORG $+4
	DQ	0000000000000000H
	DW	00H
	DB	08H
	DB	00H
	ORG $+4
	DQ	0000000000000000H
	DW	00H
	DB	04H
	DB	00H
	ORG $+4
	DQ	0000000000000000H
	DW	00H
	DB	04H
	DB	00H
	ORG $+4
	DQ	0000000000000000H
	DW	00H
	DB	09H
	DB	00H
	ORG $+4
	DQ	0000000000000000H
	DW	00H
	DB	08H
	DB	00H
	ORG $+4
	DQ	0000000000000000H
	DW	00H
	DB	08H
	DB	00H
	ORG $+4
	DQ	0000000000000000H
	DW	00H
	DB	07H
	DB	00H
	ORG $+4
	DQ	0000000000000000H
	DW	00H
	DB	08H
	DB	00H
	ORG $+4
	DQ	0000000000000000H
	DW	00H
	DB	08H
	DB	00H
	ORG $+4
	DQ	0000000000000000H
	DW	00H
	DB	07H
	DB	00H
	ORG $+4
	DQ	0000000000000000H
	DW	00H
	DB	07H
	DB	00H
	ORG $+4
	DQ	0000000000000000H
	DW	00H
	DB	06H
	DB	00H
	ORG $+4
	DQ	0000000000000000H
	DW	00H
	DB	06H
	DB	00H
	ORG $+4
	DQ	0000000000000000H
	DW	00H
	DB	0aH
	DB	00H
	ORG $+4
	DQ	0000000000000000H
	DW	00H
	DB	06H
	DB	00H
	ORG $+4
	DQ	0000000000000000H
	DW	00H
	DB	06H
	DB	00H
	ORG $+4
	DQ	0000000000000000H
	DW	00H
	DB	06H
	DB	00H
	ORG $+4
	DQ	0000000000000000H
	DW	00H
	DB	06H
	DB	00H
	ORG $+4
	DQ	0000000000000000H
	DW	00H
	DB	06H
	DB	00H
	ORG $+4
	DQ	0000000000000000H
	DW	00H
	DB	06H
	DB	00H
	ORG $+4
	DQ	0000000000000000H
	DW	00H
	DB	06H
	DB	00H
	ORG $+4
	DQ	0000000000000000H
	DW	00H
	DB	06H
	DB	00H
	ORG $+4
	DQ	0000000000000000H
	DW	00H
	DB	06H
	DB	00H
	ORG $+4
	DQ	0000000000000000H
	DW	00H
	DB	06H
	DB	00H
	ORG $+4
	DQ	0000000000000000H
	DW	00H
	DB	08H
	DB	00H
	ORG $+4
	DQ	0000000000000000H
	DW	00H
	DB	08H
	DB	00H
	ORG $+4
	DQ	0000000000000000H
	DW	00H
	DB	08H
	DB	00H
	ORG $+4
	DQ	0000000000000000H
	DW	00H
	DB	08H
	DB	00H
	ORG $+4
	DQ	0000000000000000H
	DW	00H
	DB	08H
	DB	00H
	ORG $+4
	DQ	0000000000000000H
	DW	00H
	DB	08H
	DB	00H
	ORG $+4
	DQ	0000000000000000H
	DW	00H
	DB	08H
	DB	00H
	ORG $+4
	DQ	0000000000000000H
	DW	00H
	DB	08H
	DB	00H
	ORG $+4
	DQ	0000000000000000H
	DW	00H
	DB	08H
	DB	00H
	ORG $+4
	DQ	0000000000000000H
	DW	00H
	DB	08H
	DB	00H
	ORG $+4
	DQ	0000000000000000H
	DW	00H
	DB	08H
	DB	00H
	ORG $+4
	DQ	0000000000000000H
	DW	00H
	DB	08H
	DB	00H
	ORG $+4
	DQ	0000000000000000H
	DW	00H
	DB	06H
	DB	00H
	ORG $+4
	DQ	0000000000000000H
	DW	00H
	DB	06H
	DB	00H
	ORG $+4
	DQ	0000000000000000H
	DW	00H
	DB	05H
	DB	00H
	ORG $+4
	DQ	0000000000000000H
	DW	00H
	DB	07H
	DB	00H
	ORG $+4
	DQ	0000000000000000H
	DW	00H
	DB	07H
	DB	00H
	ORG $+4
	DQ	0000000000000000H
	DW	00H
	DB	07H
	DB	00H
	ORG $+4
	DQ	0000000000000000H
	DW	00H
	DB	07H
	DB	00H
	ORG $+4
	DQ	0000000000000000H
	DW	00H
	DB	05H
	DB	00H
	ORG $+4
	DQ	0000000000000000H
	DW	00H
	DB	09H
	DB	00H
	ORG $+4
	DQ	0000000000000000H
	DW	00H
	DB	09H
	DB	00H
	ORG $+4
	DQ	0000000000000000H
	DW	00H
	DB	09H
	DB	00H
	ORG $+4
	DQ	0000000000000000H
	DW	00H
	DB	09H
	DB	00H
	ORG $+4
	DQ	0000000000000000H
	DW	00H
	DB	07H
	DB	00H
	ORG $+4
	DQ	0000000000000000H
	DW	00H
	DB	06H
	DB	00H
	ORG $+4
	DQ	0000000000000000H
	DW	00H
	DB	06H
	DB	00H
	ORG $+4
	DQ	0000000000000000H
	DW	00H
	DB	06H
	DB	00H
	ORG $+4
	DQ	0000000000000000H
	DW	00H
	DB	05H
	DB	00H
	ORG $+4
	DQ	0000000000000000H
	DW	00H
	DB	05H
	DB	00H
	ORG $+4
	DQ	0000000000000000H
	DW	00H
	DB	07H
	DB	00H
	ORG $+4
	DQ	0000000000000000H
	DW	00H
	DB	06H
	DB	00H
	ORG $+4
	DQ	0000000000000000H
	DW	00H
	DB	05H
	DB	00H
	ORG $+4
	DQ	0000000000000000H
	DW	00H
	DB	08H
	DB	00H
	ORG $+4
	DQ	0000000000000000H
	DW	00H
	DB	06H
	DB	00H
	ORG $+4
	DQ	0000000000000000H
	DW	00H
	DB	06H
	DB	00H
	ORG $+4
	DQ	0000000000000000H
	DW	00H
	DB	06H
	DB	00H
	ORG $+4
	DQ	0000000000000000H
	DW	00H
	DB	08H
	DB	00H
	ORG $+4
	DQ	0000000000000000H
	DW	00H
	DB	08H
	DB	00H
	ORG $+4
	DQ	0000000000000000H
	DW	00H
	DB	06H
	DB	00H
	ORG $+4
	DQ	0000000000000000H
	DW	00H
	DB	07H
	DB	00H
	ORG $+4
	DQ	0000000000000000H
	DW	00H
	DB	07H
	DB	00H
	ORG $+4
	DQ	0000000000000000H
	DW	00H
	DB	07H
	DB	00H
	ORG $+4
	DQ	0000000000000000H
	DW	00H
	DB	05H
	DB	00H
	ORG $+4
	DQ	0000000000000000H
	DW	00H
	DB	06H
	DB	00H
	ORG $+4
	DQ	0000000000000000H
	DW	00H
	DB	07H
	DB	00H
	ORG $+4
	DQ	0000000000000000H
	DW	00H
	DB	06H
	DB	00H
	ORG $+4
	DQ	0000000000000000H
	DW	00H
	DB	07H
	DB	00H
	ORG $+4
	DQ	0000000000000000H
	DW	00H
	DB	0cH
	DB	08H
	ORG $+4
	DQ	0000000000000000H
	DW	00H
	DB	0cH
	DB	08H
	ORG $+4
	DQ	0000000000000000H
	DW	00H
	DB	0eH
	DB	08H
	ORG $+4
	DQ	0000000000000000H
	DW	00H
	DB	0cH
	DB	018H
	ORG $+4
	DQ	0000000000000000H
	DW	00H
	DB	0cH
	DB	018H
	ORG $+4
	DQ	0000000000000000H
	DW	00H
	DB	0cH
	DB	018H
	ORG $+4
	DQ	0000000000000000H
	DW	00H
	DB	0cH
	DB	018H
	ORG $+4
	DQ	0000000000000000H
	DW	00H
	DB	0fH
	DB	018H
	ORG $+4
	DQ	0000000000000000H
	DW	00H
	DB	0fH
	DB	018H
	ORG $+4
	DQ	0000000000000000H
	DW	00H
	DB	0fH
	DB	018H
	ORG $+4
	DQ	0000000000000000H
	DW	00H
	DB	0fH
	DB	018H
	ORG $+4
	DQ	0000000000000000H
	DW	00H
	DB	0fH
	DB	018H
	ORG $+4
	DQ	0000000000000000H
	DW	00H
	DB	0fH
	DB	018H
	ORG $+4
	DQ	0000000000000000H
	DW	00H
	DB	0fH
	DB	018H
	ORG $+4
	DQ	0000000000000000H
	DW	00H
	DB	0fH
	DB	018H
	ORG $+4
	DQ	0000000000000000H
	DW	00H
	DB	0fH
	DB	018H
	ORG $+4
	DQ	0000000000000000H
	DW	00H
	DB	0fH
	DB	018H
	ORG $+4
	DQ	0000000000000000H
	DW	00H
	DB	0fH
	DB	018H
	ORG $+4
	DQ	0000000000000000H
	DW	00H
	DB	09H
	DB	08H
	ORG $+4
	DQ	0000000000000000H
	DW	00H
	DB	09H
	DB	08H
	ORG $+4
	DQ	0000000000000000H
	DW	00H
	DB	0cH
	DB	08H
	ORG $+4
	DQ	0000000000000000H
	DW	00H
	DB	0dH
	DB	018H
	ORG $+4
	DQ	0000000000000000H
	DW	00H
	DB	0dH
	DB	018H
	ORG $+4
	DQ	0000000000000000H
	DW	00H
	DB	0dH
	DB	018H
	ORG $+4
	DQ	0000000000000000H
	DW	00H
	DB	0dH
	DB	018H
	ORG $+4
	DQ	0000000000000000H
	DW	00H
	DB	0cH
	DB	018H
	ORG $+4
	DQ	0000000000000000H
	DW	00H
	DB	0dH
	DB	018H
	ORG $+4
	DQ	0000000000000000H
	DW	00H
	DB	0dH
	DB	018H
	ORG $+4
	DQ	0000000000000000H
	DW	00H
	DB	0dH
	DB	018H
	ORG $+4
	DQ	0000000000000000H
	DW	00H
	DB	0dH
	DB	018H
	ORG $+4
	DQ	0000000000000000H
	DW	00H
	DB	0aH
	DB	08H
	ORG $+4
	DQ	0000000000000000H
	DW	00H
	DB	0aH
	DB	08H
	ORG $+4
	DQ	0000000000000000H
	DW	00H
	DB	09H
	DB	08H
	ORG $+4
	DQ	0000000000000000H
	DW	00H
	DB	09H
	DB	08H
	ORG $+4
	DQ	0000000000000000H
	DW	00H
	DB	09H
	DB	08H
	ORG $+4
	DQ	0000000000000000H
	DW	00H
	DB	07H
	DB	08H
	ORG $+4
	DQ	0000000000000000H
	DW	00H
	DB	07H
	DB	08H
	ORG $+4
	DQ	0000000000000000H
	DW	00H
	DB	06H
	DB	08H
	ORG $+4
	DQ	0000000000000000H
	DW	00H
	DB	0aH
	DB	08H
	ORG $+4
	DQ	0000000000000000H
	DW	00H
	DB	07H
	DB	08H
	ORG $+4
	DQ	0000000000000000H
	DW	00H
	DB	07H
	DB	08H
	ORG $+4
	DQ	0000000000000000H
	DW	00H
	DB	08H
	DB	08H
	ORG $+4
	DQ	0000000000000000H
	DW	00H
	DB	0aH
	DB	08H
	ORG $+4
	DQ	0000000000000000H
	DW	00H
	DB	09H
	DB	08H
	ORG $+4
	DQ	0000000000000000H
	DW	00H
	DB	0aH
	DB	08H
	ORG $+4
	DQ	0000000000000000H
	DW	00H
	DB	0aH
	DB	08H
	ORG $+4
	DQ	0000000000000000H
	DW	00H
	DB	0aH
	DB	08H
	ORG $+4
	DQ	0000000000000000H
	DW	00H
	DB	09H
	DB	08H
	ORG $+4
	DQ	0000000000000000H
	DW	00H
	DB	08H
	DB	08H
	ORG $+4
	DQ	0000000000000000H
	DW	00H
	DB	0aH
	DB	018H
	ORG $+4
	DQ	0000000000000000H
	DW	00H
	DB	0aH
	DB	018H
	ORG $+4
	DQ	0000000000000000H
	DW	00H
	DB	0aH
	DB	018H
	ORG $+4
	DQ	0000000000000000H
	DW	00H
	DB	0aH
	DB	018H
	ORG $+4
	DQ	0000000000000000H
	DW	00H
	DB	0aH
	DB	018H
	ORG $+4
	DQ	0000000000000000H
	DW	00H
	DB	0aH
	DB	018H
	ORG $+4
	DQ	0000000000000000H
	DW	00H
	DB	0aH
	DB	018H
	ORG $+4
	DQ	0000000000000000H
	DW	00H
	DB	0aH
	DB	018H
	ORG $+4
	DQ	0000000000000000H
	DW	00H
	DB	0bH
	DB	018H
	ORG $+4
	DQ	0000000000000000H
	DW	00H
	DB	0bH
	DB	018H
	ORG $+4
	DQ	0000000000000000H
	DW	00H
	DB	0bH
	DB	018H
	ORG $+4
	DQ	0000000000000000H
	DW	00H
	DB	0bH
	DB	018H
	ORG $+4
	DQ	0000000000000000H
	DW	00H
	DB	0bH
	DB	018H
	ORG $+4
	DQ	0000000000000000H
	DW	00H
	DB	0bH
	DB	018H
	ORG $+4
	DQ	0000000000000000H
	DW	00H
	DB	0bH
	DB	018H
	ORG $+4
	DQ	0000000000000000H
	DW	00H
	DB	0bH
	DB	018H
	ORG $+4
	DQ	0000000000000000H
	DW	00H
	DB	06H
	DB	08H
	ORG $+4
	DQ	0000000000000000H
	DW	00H
	DB	06H
	DB	08H
	ORG $+4
	DQ	0000000000000000H
	DW	00H
	DB	06H
	DB	08H
	ORG $+4
	DQ	0000000000000000H
	DW	00H
	DB	07H
	DB	08H
	ORG $+4
	DQ	0000000000000000H
	DW	00H
	DB	07H
	DB	08H
	ORG $+4
	DQ	0000000000000000H
	DW	00H
	DB	09H
	DB	08H
	ORG $+4
	DQ	0000000000000000H
	DW	00H
	DB	09H
	DB	08H
	ORG $+4
	DQ	0000000000000000H
	DW	00H
	DB	0bH
	DB	08H
	ORG $+4
	DQ	0000000000000000H
	DW	00H
	DB	0bH
	DB	08H
	ORG $+4
	DQ	0000000000000000H
	DW	00H
	DB	0bH
	DB	08H
	ORG $+4
	DQ	0000000000000000H
	DW	00H
	DB	0bH
	DB	08H
	ORG $+4
	DQ	0000000000000000H
	DW	00H
	DB	0bH
	DB	08H
	ORG $+4
	DQ	0000000000000000H
	DW	00H
	DB	0bH
	DB	08H
	ORG $+4
	DQ	0000000000000000H
	DW	00H
	DB	0bH
	DB	08H
	ORG $+4
	DQ	0000000000000000H
	DW	00H
	DB	0bH
	DB	08H
	ORG $+4
	DQ	0000000000000000H
	DW	00H
	DB	0bH
	DB	08H
	ORG $+4
	DQ	0000000000000000H
	DW	00H
	DB	0bH
	DB	08H
	ORG $+4
	DQ	0000000000000000H
	DW	00H
	DB	0bH
	DB	08H
	ORG $+4
	DQ	0000000000000000H
	DW	00H
	DB	0bH
	DB	08H
	ORG $+4
	DQ	0000000000000000H
	DW	00H
	DB	0eH
	DB	08H
	ORG $+4
	DQ	0000000000000000H
	DW	00H
	DB	0eH
	DB	08H
	ORG $+4
	DQ	0000000000000000H
	DW	00H
	DB	0eH
	DB	08H
	ORG $+4
	DQ	0000000000000000H
	DW	00H
	DB	0eH
	DB	08H
	ORG $+4
	DQ	0000000000000000H
	DW	00H
	DB	0eH
	DB	08H
	ORG $+4
	DQ	0000000000000000H
	DW	00H
	DB	0eH
	DB	08H
	ORG $+4
	DQ	0000000000000000H
	DW	00H
	DB	0bH
	DB	08H
	ORG $+4
	DQ	0000000000000000H
	DW	00H
	DB	0bH
	DB	08H
	ORG $+4
	DQ	0000000000000000H
	DW	00H
	DB	0bH
	DB	08H
	ORG $+4
	DQ	0000000000000000H
	DW	00H
	DB	0bH
	DB	08H
	ORG $+4
	DQ	0000000000000000H
	DW	00H
	DB	0bH
	DB	08H
	ORG $+4
	DQ	0000000000000000H
	DW	00H
	DB	0bH
	DB	08H
	ORG $+4
	DQ	0000000000000000H
	DW	00H
	DB	0bH
	DB	08H
	ORG $+4
	DQ	0000000000000000H
	DW	00H
	DB	0bH
	DB	08H
	ORG $+4
	DQ	0000000000000000H
	DW	00H
	DB	0bH
	DB	08H
	ORG $+4
	DQ	0000000000000000H
	DW	00H
	DB	0bH
	DB	08H
	ORG $+4
	DQ	0000000000000000H
	DW	00H
	DB	0bH
	DB	08H
	ORG $+4
	DQ	0000000000000000H
	DW	00H
	DB	0bH
	DB	08H
	ORG $+4
	DQ	0000000000000000H
	DW	00H
	DB	0eH
	DB	08H
	ORG $+4
	DQ	0000000000000000H
	DW	00H
	DB	0eH
	DB	08H
	ORG $+4
	DQ	0000000000000000H
	DW	00H
	DB	0eH
	DB	08H
	ORG $+4
	DQ	0000000000000000H
	DW	00H
	DB	0eH
	DB	08H
	ORG $+4
	DQ	0000000000000000H
	DW	00H
	DB	0eH
	DB	08H
	ORG $+4
	DQ	0000000000000000H
	DW	00H
	DB	0eH
	DB	08H
	ORG $+4
	DQ	0000000000000000H
	DW	00H
	DB	0cH
	DB	08H
	ORG $+4
	DQ	0000000000000000H
	DW	00H
	DB	0cH
	DB	08H
	ORG $+4
	DQ	0000000000000000H
	DW	00H
	DB	0cH
	DB	08H
	ORG $+4
	DQ	0000000000000000H
	DW	00H
	DB	0cH
	DB	08H
	ORG $+4
	DQ	0000000000000000H
	DW	00H
	DB	0cH
	DB	08H
	ORG $+4
	DQ	0000000000000000H
	DW	00H
	DB	0cH
	DB	08H
	ORG $+4
	DQ	0000000000000000H
	DW	00H
	DB	0cH
	DB	08H
	ORG $+4
	DQ	0000000000000000H
	DW	00H
	DB	0cH
	DB	08H
	ORG $+4
	DQ	0000000000000000H
	DW	00H
	DB	0cH
	DB	08H
	ORG $+4
	DQ	0000000000000000H
	DW	00H
	DB	0cH
	DB	08H
	ORG $+4
	DQ	0000000000000000H
	DW	00H
	DB	0cH
	DB	08H
	ORG $+4
	DQ	0000000000000000H
	DW	00H
	DB	0cH
	DB	08H
	ORG $+4
	DQ	0000000000000000H
	DW	00H
	DB	0cH
	DB	08H
	ORG $+4
	DQ	0000000000000000H
	DW	00H
	DB	0cH
	DB	08H
	ORG $+4
	DQ	0000000000000000H
	DW	00H
	DB	0cH
	DB	08H
	ORG $+4
	DQ	0000000000000000H
	DW	00H
	DB	0cH
	DB	08H
	ORG $+4
	DQ	0000000000000000H
	DW	00H
	DB	0cH
	DB	08H
	ORG $+4
	DQ	0000000000000000H
	DW	00H
	DB	0cH
	DB	08H
	ORG $+4
	DQ	0000000000000000H
	DW	00H
	DB	0cH
	DB	08H
	ORG $+4
	DQ	0000000000000000H
	DW	00H
	DB	0cH
	DB	08H
	ORG $+4
	DQ	0000000000000000H
	DW	00H
	DB	0cH
	DB	08H
	ORG $+4
	DQ	0000000000000000H
	DW	00H
	DB	0cH
	DB	08H
	ORG $+4
	DQ	0000000000000000H
	DW	00H
	DB	0cH
	DB	08H
	ORG $+4
	DQ	0000000000000000H
	DW	00H
	DB	0cH
	DB	08H
	ORG $+4
	DQ	0000000000000000H
	DW	00H
	DB	09H
	DB	08H
	ORG $+4
	DQ	0000000000000000H
	DW	00H
	DB	09H
	DB	08H
	ORG $+4
	DQ	0000000000000000H
	DW	00H
	DB	09H
	DB	08H
	ORG $+4
	DQ	0000000000000000H
	DW	00H
	DB	09H
	DB	08H
	ORG $+4
	DQ	0000000000000000H
	DW	00H
	DB	09H
	DB	08H
	ORG $+4
	DQ	0000000000000000H
	DW	00H
	DB	09H
	DB	08H
	ORG $+4
	DQ	0000000000000000H
	DW	00H
	DB	0aH
	DB	018H
	ORG $+4
	DQ	0000000000000000H
	DW	00H
	DB	0aH
	DB	018H
	ORG $+4
	DQ	0000000000000000H
	DW	00H
	DB	0aH
	DB	018H
	ORG $+4
	DQ	0000000000000000H
	DW	00H
	DB	0aH
	DB	018H
	ORG $+4
	DQ	0000000000000000H
	DW	00H
	DB	07H
	DB	018H
	ORG $+4
	DQ	0000000000000000H
	DW	00H
	DB	07H
	DB	018H
	ORG $+4
	DQ	0000000000000000H
	DW	00H
	DB	09H
	DB	018H
	ORG $+4
	DQ	0000000000000000H
	DW	00H
	DB	09H
	DB	018H
	ORG $+4
	DQ	0000000000000000H
	DW	00H
	DB	0bH
	DB	018H
	ORG $+4
	DQ	0000000000000000H
	DW	00H
	DB	0bH
	DB	018H
	ORG $+4
	DQ	0000000000000000H
	DW	00H
	DB	0bH
	DB	018H
	ORG $+4
	DQ	0000000000000000H
	DW	00H
	DB	0bH
	DB	018H
	ORG $+4
	DQ	0000000000000000H
	DW	00H
	DB	09H
	DB	08H
	ORG $+4
	DQ	0000000000000000H
	DW	00H
	DB	0aH
	DB	018H
	ORG $+4
	DQ	0000000000000000H
	DW	00H
	DB	0aH
	DB	018H
	ORG $+4
	DQ	0000000000000000H
	DW	00H
	DB	09H
	DB	018H
	ORG $+4
	DQ	0000000000000000H
	DW	00H
	DB	09H
	DB	018H
	ORG $+4
	DQ	0000000000000000H
	DW	00H
	DB	06H
	DB	018H
	ORG $+4
	DQ	0000000000000000H
	DW	00H
	DB	07H
	DB	018H
	ORG $+4
	DQ	0000000000000000H
	DW	00H
	DB	06H
	DB	018H
	ORG $+4
	DQ	0000000000000000H
	DW	00H
	DB	07H
	DB	018H
	ORG $+4
	DQ	0000000000000000H
	DW	00H
	DB	06H
	DB	018H
	ORG $+4
	DQ	0000000000000000H
	DW	00H
	DB	07H
	DB	018H
	ORG $+4
	DQ	0000000000000000H
	DW	00H
	DB	06H
	DB	018H
	ORG $+4
	DQ	0000000000000000H
	DW	00H
	DB	07H
	DB	018H
	ORG $+4
	DQ	0000000000000000H
	DW	00H
	DB	08H
	DB	08H
	ORG $+4
	DQ	0000000000000000H
	DW	00H
	DB	08H
	DB	08H
	ORG $+4
	DQ	0000000000000000H
	DW	00H
	DB	08H
	DB	08H
	ORG $+4
	DQ	0000000000000000H
	DW	00H
	DB	0bH
	DB	08H
	ORG $+4
	DQ	0000000000000000H
	DW	00H
	DB	09H
	DB	08H
	ORG $+4
	DQ	0000000000000000H
	DW	00H
	DB	09H
	DB	08H
	ORG $+4
	DQ	0000000000000000H
	DW	00H
	DB	09H
	DB	08H
	ORG $+4
	DQ	0000000000000000H
	DW	00H
	DB	0aH
	DB	08H
	ORG $+4
	DQ	0000000000000000H
	DW	00H
	DB	09H
	DB	08H
	ORG $+4
	DQ	0000000000000000H
	DW	00H
	DB	09H
	DB	08H
	ORG $+4
	DQ	0000000000000000H
	DW	00H
	DB	09H
	DB	08H
	ORG $+4
	DQ	0000000000000000H
	DW	00H
	DB	0cH
	DB	08H
	ORG $+4
	DQ	0000000000000000H
	DW	00H
	DB	0aH
	DB	08H
	ORG $+4
	DQ	0000000000000000H
	DW	00H
	DB	0aH
	DB	08H
	ORG $+4
	DQ	0000000000000000H
	DW	00H
	DB	0aH
	DB	08H
	ORG $+4
	DQ	0000000000000000H
	DW	00H
	DB	0bH
	DB	08H
	ORG $+4
	DQ	0000000000000000H
	DW	00H
	DB	08H
	DB	08H
	ORG $+4
	DQ	0000000000000000H
	DW	00H
	DB	08H
	DB	08H
	ORG $+4
	DQ	0000000000000000H
	DW	00H
	DB	08H
	DB	08H
	ORG $+4
	DQ	0000000000000000H
	DW	00H
	DB	0bH
	DB	08H
	ORG $+4
	DQ	0000000000000000H
	DW	00H
	DB	09H
	DB	08H
	ORG $+4
	DQ	0000000000000000H
	DW	00H
	DB	09H
	DB	08H
	ORG $+4
	DQ	0000000000000000H
	DW	00H
	DB	09H
	DB	08H
	ORG $+4
	DQ	0000000000000000H
	DW	00H
	DB	0aH
	DB	08H
	ORG $+4
	DQ	0000000000000000H
	DW	00H
	DB	09H
	DB	08H
	ORG $+4
	DQ	0000000000000000H
	DW	00H
	DB	09H
	DB	08H
	ORG $+4
	DQ	0000000000000000H
	DW	00H
	DB	09H
	DB	08H
	ORG $+4
	DQ	0000000000000000H
	DW	00H
	DB	0cH
	DB	08H
	ORG $+4
	DQ	0000000000000000H
	DW	00H
	DB	0aH
	DB	08H
	ORG $+4
	DQ	0000000000000000H
	DW	00H
	DB	0aH
	DB	08H
	ORG $+4
	DQ	0000000000000000H
	DW	00H
	DB	0aH
	DB	08H
	ORG $+4
	DQ	0000000000000000H
	DW	00H
	DB	0bH
	DB	08H
	ORG $+4
	DQ	0000000000000000H
	DW	00H
	DB	08H
	DB	08H
	ORG $+4
	DQ	0000000000000000H
	DW	00H
	DB	08H
	DB	08H
	ORG $+4
	DQ	0000000000000000H
	DW	00H
	DB	08H
	DB	08H
	ORG $+4
	DQ	0000000000000000H
	DW	00H
	DB	0bH
	DB	08H
	ORG $+4
	DQ	0000000000000000H
	DW	00H
	DB	09H
	DB	08H
	ORG $+4
	DQ	0000000000000000H
	DW	00H
	DB	09H
	DB	08H
	ORG $+4
	DQ	0000000000000000H
	DW	00H
	DB	09H
	DB	08H
	ORG $+4
	DQ	0000000000000000H
	DW	00H
	DB	0aH
	DB	08H
	ORG $+4
	DQ	0000000000000000H
	DW	00H
	DB	09H
	DB	08H
	ORG $+4
	DQ	0000000000000000H
	DW	00H
	DB	09H
	DB	08H
	ORG $+4
	DQ	0000000000000000H
	DW	00H
	DB	09H
	DB	08H
	ORG $+4
	DQ	0000000000000000H
	DW	00H
	DB	0cH
	DB	08H
	ORG $+4
	DQ	0000000000000000H
	DW	00H
	DB	0aH
	DB	08H
	ORG $+4
	DQ	0000000000000000H
	DW	00H
	DB	0aH
	DB	08H
	ORG $+4
	DQ	0000000000000000H
	DW	00H
	DB	0aH
	DB	08H
	ORG $+4
	DQ	0000000000000000H
	DW	00H
	DB	0bH
	DB	08H
	ORG $+4
	DQ	0000000000000000H
	DW	00H
	DB	08H
	DB	08H
	ORG $+4
	DQ	0000000000000000H
	DW	00H
	DB	08H
	DB	08H
	ORG $+4
	DQ	0000000000000000H
	DW	00H
	DB	08H
	DB	08H
	ORG $+4
	DQ	0000000000000000H
	DW	00H
	DB	0bH
	DB	08H
	ORG $+4
	DQ	0000000000000000H
	DW	00H
	DB	09H
	DB	08H
	ORG $+4
	DQ	0000000000000000H
	DW	00H
	DB	09H
	DB	08H
	ORG $+4
	DQ	0000000000000000H
	DW	00H
	DB	09H
	DB	08H
	ORG $+4
	DQ	0000000000000000H
	DW	00H
	DB	0aH
	DB	08H
	ORG $+4
	DQ	0000000000000000H
	DW	00H
	DB	09H
	DB	08H
	ORG $+4
	DQ	0000000000000000H
	DW	00H
	DB	09H
	DB	08H
	ORG $+4
	DQ	0000000000000000H
	DW	00H
	DB	09H
	DB	08H
	ORG $+4
	DQ	0000000000000000H
	DW	00H
	DB	0cH
	DB	08H
	ORG $+4
	DQ	0000000000000000H
	DW	00H
	DB	0aH
	DB	08H
	ORG $+4
	DQ	0000000000000000H
	DW	00H
	DB	0aH
	DB	08H
	ORG $+4
	DQ	0000000000000000H
	DW	00H
	DB	0aH
	DB	08H
	ORG $+4
	DQ	0000000000000000H
	DW	00H
	DB	0bH
	DB	08H
	ORG $+4
	DQ	0000000000000000H
	DW	00H
	DB	06H
	DB	08H
	ORG $+4
	DQ	0000000000000000H
	DW	00H
	DB	06H
	DB	018H
	ORG $+4
	DQ	0000000000000000H
	DW	00H
	DB	06H
	DB	018H
	ORG $+4
	DQ	0000000000000000H
	DW	00H
	DB	09H
	DB	018H
	ORG $+4
	DQ	0000000000000000H
	DW	00H
	DB	09H
	DB	018H
	ORG $+4
	DQ	0000000000000000H
	DW	00H
	DB	07H
	DB	018H
	ORG $+4
	DQ	0000000000000000H
	DW	00H
	DB	07H
	DB	018H
	ORG $+4
	DQ	0000000000000000H
	DW	00H
	DB	07H
	DB	018H
	ORG $+4
	DQ	0000000000000000H
	DW	00H
	DB	07H
	DB	018H
	ORG $+4
	DQ	0000000000000000H
	DW	00H
	DB	05H
	DB	018H
	ORG $+4
	DQ	0000000000000000H
	DW	00H
	DB	05H
	DB	018H
	ORG $+4
	DQ	0000000000000000H
	DW	00H
	DB	07H
	DB	018H
	ORG $+4
	DQ	0000000000000000H
	DW	00H
	DB	07H
	DB	018H
	ORG $+4
	DQ	0000000000000000H
	DW	00H
	DB	07H
	DB	018H
	ORG $+4
	DQ	0000000000000000H
	DW	00H
	DB	06H
	DB	018H
	ORG $+4
	DQ	0000000000000000H
	DW	00H
	DB	07H
	DB	018H
	ORG $+4
	DQ	0000000000000000H
	DW	00H
	DB	06H
	DB	018H
	ORG $+4
	DQ	0000000000000000H
	DW	00H
	DB	07H
	DB	018H
	ORG $+4
	DQ	0000000000000000H
	DW	00H
	DB	06H
	DB	018H
	ORG $+4
	DQ	0000000000000000H
	DW	00H
	DB	07H
	DB	018H
	ORG $+4
	DQ	0000000000000000H
	DW	00H
	DB	06H
	DB	018H
	ORG $+4
	DQ	0000000000000000H
	DW	00H
	DB	07H
	DB	018H
	ORG $+4
	DQ	0000000000000000H
	DW	00H
	DB	06H
	DB	018H
	ORG $+4
	DQ	0000000000000000H
	DW	00H
	DB	07H
	DB	018H
	ORG $+4
	DQ	0000000000000000H
	DW	00H
	DB	07H
	DB	018H
	ORG $+4
	DQ	0000000000000000H
	DW	00H
	DB	07H
	DB	018H
	ORG $+4
	DQ	0000000000000000H
	DW	00H
	DB	07H
	DB	018H
	ORG $+4
	DQ	0000000000000000H
	DW	00H
	DB	07H
	DB	018H
	ORG $+4
	DQ	0000000000000000H
	DW	00H
	DB	07H
	DB	018H
	ORG $+4
	DQ	0000000000000000H
	DW	00H
	DB	08H
	DB	018H
	ORG $+4
	DQ	0000000000000000H
	DW	00H
	DB	08H
	DB	018H
	ORG $+4
	DQ	0000000000000000H
	DW	00H
	DB	08H
	DB	018H
	ORG $+4
	DQ	0000000000000000H
	DW	00H
	DB	08H
	DB	018H
	ORG $+4
	DQ	0000000000000000H
	DW	00H
	DB	09H
	DB	018H
	ORG $+4
	DQ	0000000000000000H
	DW	00H
	DB	09H
	DB	018H
	ORG $+4
	DQ	0000000000000000H
	DW	00H
	DB	09H
	DB	018H
	ORG $+4
	DQ	0000000000000000H
	DW	00H
	DB	09H
	DB	018H
	ORG $+4
	DQ	0000000000000000H
	DW	00H
	DB	09H
	DB	018H
	ORG $+4
	DQ	0000000000000000H
	DW	00H
	DB	09H
	DB	018H
	ORG $+4
	DQ	0000000000000000H
	DW	00H
	DB	09H
	DB	018H
	ORG $+4
	DQ	0000000000000000H
	DW	00H
	DB	09H
	DB	018H
	ORG $+4
	DQ	0000000000000000H
	DW	00H
	DB	06H
	DB	018H
	ORG $+4
	DQ	0000000000000000H
	DW	00H
	DB	06H
	DB	018H
	ORG $+4
	DQ	0000000000000000H
	DW	00H
	DB	08H
	DB	018H
	ORG $+4
	DQ	0000000000000000H
	DW	00H
	DB	08H
	DB	018H
	ORG $+4
	DQ	0000000000000000H
	DW	00H
	DB	08H
	DB	018H
	ORG $+4
	DQ	0000000000000000H
	DW	00H
	DB	08H
	DB	018H
	ORG $+4
	DQ	0000000000000000H
	DW	00H
	DB	0aH
	DB	018H
	ORG $+4
	DQ	0000000000000000H
	DW	00H
	DB	0aH
	DB	018H
	ORG $+4
	DQ	0000000000000000H
	DW	00H
	DB	0aH
	DB	018H
	ORG $+4
	DQ	0000000000000000H
	DW	00H
	DB	0aH
	DB	018H
	ORG $+4
	DQ	0000000000000000H
	DW	00H
	DB	0aH
	DB	018H
	ORG $+4
	DQ	0000000000000000H
	DW	00H
	DB	0aH
	DB	018H
	ORG $+4
	DQ	0000000000000000H
	DW	00H
	DB	07H
	DB	018H
	ORG $+4
	DQ	0000000000000000H
	DW	00H
	DB	08H
	DB	018H
	ORG $+4
	DQ	0000000000000000H
	DW	00H
	DB	09H
	DB	018H
	ORG $+4
	DQ	0000000000000000H
	DW	00H
	DB	07H
	DB	018H
	ORG $+4
	DQ	0000000000000000H
	DW	00H
	DB	08H
	DB	018H
	ORG $+4
	DQ	0000000000000000H
	DW	00H
	DB	09H
	DB	018H
	ORG $+4
	DQ	0000000000000000H
	DW	00H
	DB	07H
	DB	018H
	ORG $+4
	DQ	0000000000000000H
	DW	00H
	DB	08H
	DB	018H
	ORG $+4
	DQ	0000000000000000H
	DW	00H
	DB	09H
	DB	018H
	ORG $+4
	DQ	0000000000000000H
	DW	00H
	DB	07H
	DB	018H
	ORG $+4
	DQ	0000000000000000H
	DW	00H
	DB	08H
	DB	018H
	ORG $+4
	DQ	0000000000000000H
	DW	00H
	DB	09H
	DB	018H
	ORG $+4
	DQ	0000000000000000H
	DW	00H
	DB	07H
	DB	018H
	ORG $+4
	DQ	0000000000000000H
	DW	00H
	DB	08H
	DB	018H
	ORG $+4
	DQ	0000000000000000H
	DW	00H
	DB	09H
	DB	018H
	ORG $+4
	DQ	0000000000000000H
	DW	00H
	DB	07H
	DB	018H
	ORG $+4
	DQ	0000000000000000H
	DW	00H
	DB	08H
	DB	018H
	ORG $+4
	DQ	0000000000000000H
	DW	00H
	DB	09H
	DB	018H
	ORG $+4
	DQ	0000000000000000H
	DW	00H
	DB	0aH
	DB	018H
	ORG $+4
	DQ	0000000000000000H
	DW	00H
	DB	0aH
	DB	018H
	ORG $+4
	DQ	0000000000000000H
	DW	00H
	DB	0aH
	DB	018H
	ORG $+4
	DQ	0000000000000000H
	DW	00H
	DB	0aH
	DB	018H
	ORG $+4
	DQ	0000000000000000H
	DW	00H
	DB	08H
	DB	018H
	ORG $+4
	DQ	0000000000000000H
	DW	00H
	DB	08H
	DB	018H
	ORG $+4
	DQ	0000000000000000H
	DW	00H
	DB	08H
	DB	018H
	ORG $+4
	DQ	0000000000000000H
	DW	00H
	DB	09H
	DB	018H
	ORG $+4
	DQ	0000000000000000H
	DW	00H
	DB	09H
	DB	018H
	ORG $+4
	DQ	0000000000000000H
	DW	00H
	DB	0aH
	DB	018H
	ORG $+4
	DQ	0000000000000000H
	DW	00H
	DB	0aH
	DB	018H
	ORG $+4
	DQ	0000000000000000H
	DW	00H
	DB	0aH
	DB	018H
	ORG $+4
	DQ	0000000000000000H
	DW	00H
	DB	0aH
	DB	018H
	ORG $+4
	DQ	0000000000000000H
	DW	00H
	DB	09H
	DB	018H
	ORG $+4
	DQ	0000000000000000H
	DW	00H
	DB	09H
	DB	018H
	ORG $+4
	DQ	0000000000000000H
	DW	00H
	DB	09H
	DB	018H
	ORG $+4
	DQ	0000000000000000H
	DW	00H
	DB	09H
	DB	018H
	ORG $+4
	DQ	0000000000000000H
	DW	00H
	DB	0bH
	DB	018H
	ORG $+4
	DQ	0000000000000000H
	DW	00H
	DB	0bH
	DB	018H
	ORG $+4
	DQ	0000000000000000H
	DW	00H
	DB	0bH
	DB	018H
	ORG $+4
	DQ	0000000000000000H
	DW	00H
	DB	0bH
	DB	018H
	ORG $+4
	DQ	0000000000000000H
	DW	00H
	DB	0bH
	DB	018H
	ORG $+4
	DQ	0000000000000000H
	DW	00H
	DB	0bH
	DB	018H
	ORG $+4
	DQ	0000000000000000H
	DW	00H
	DB	0bH
	DB	018H
	ORG $+4
	DQ	0000000000000000H
	DW	00H
	DB	0bH
	DB	018H
	ORG $+4
	DQ	0000000000000000H
	DW	00H
	DB	0bH
	DB	018H
	ORG $+4
	DQ	0000000000000000H
	DW	00H
	DB	0bH
	DB	018H
	ORG $+4
	DQ	0000000000000000H
	DW	00H
	DB	0bH
	DB	018H
	ORG $+4
	DQ	0000000000000000H
	DW	00H
	DB	0bH
	DB	018H
	ORG $+4
	DQ	0000000000000000H
	DW	00H
	DB	0bH
	DB	018H
	ORG $+4
	DQ	0000000000000000H
	DW	00H
	DB	0bH
	DB	018H
	ORG $+4
	DQ	0000000000000000H
	DW	00H
	DB	08H
	DB	018H
	ORG $+4
	DQ	0000000000000000H
	DW	00H
	DB	08H
	DB	018H
	ORG $+4
	DQ	0000000000000000H
	DW	00H
	DB	08H
	DB	018H
	ORG $+4
	DQ	0000000000000000H
	DW	00H
	DB	08H
	DB	018H
	ORG $+4
	DQ	0000000000000000H
	DW	00H
	DB	09H
	DB	018H
	ORG $+4
	DQ	0000000000000000H
	DW	00H
	DB	09H
	DB	018H
	ORG $+4
	DQ	0000000000000000H
	DW	00H
	DB	0bH
	DB	08H
	ORG $+4
	DQ	0000000000000000H
	DW	00H
	DB	0cH
	DB	018H
	ORG $+4
	DQ	0000000000000000H
	DW	00H
	DB	0cH
	DB	018H
	ORG $+4
	DQ	0000000000000000H
	DW	00H
	DB	0cH
	DB	018H
	ORG $+4
	DQ	0000000000000000H
	DW	00H
	DB	0cH
	DB	018H
	ORG $+4
	DQ	0000000000000000H
	DW	00H
	DB	0bH
	DB	08H
	ORG $+4
	DQ	0000000000000000H
	DW	00H
	DB	0cH
	DB	018H
	ORG $+4
	DQ	0000000000000000H
	DW	00H
	DB	0cH
	DB	018H
	ORG $+4
	DQ	0000000000000000H
	DW	00H
	DB	0cH
	DB	018H
	ORG $+4
	DQ	0000000000000000H
	DW	00H
	DB	0cH
	DB	018H
	ORG $+4
	DQ	0000000000000000H
	DW	00H
	DB	08H
	DB	018H
	ORG $+4
	DQ	0000000000000000H
	DW	00H
	DB	09H
	DB	018H
	ORG $+4
	DQ	0000000000000000H
	DW	00H
	DB	09H
	DB	018H
	ORG $+4
	DQ	0000000000000000H
	DW	00H
	DB	09H
	DB	018H
	ORG $+4
	DQ	0000000000000000H
	DW	00H
	DB	09H
	DB	018H
	ORG $+4
	DQ	0000000000000000H
	DW	00H
	DB	09H
	DB	018H
	ORG $+4
	DQ	0000000000000000H
	DW	00H
	DB	09H
	DB	018H
	ORG $+4
	DQ	0000000000000000H
	DW	00H
	DB	0aH
	DB	018H
	ORG $+4
	DQ	0000000000000000H
	DW	00H
	DB	0aH
	DB	018H
	ORG $+4
	DQ	0000000000000000H
	DW	00H
	DB	0aH
	DB	018H
	ORG $+4
	DQ	0000000000000000H
	DW	00H
	DB	0aH
	DB	018H
	ORG $+4
	DQ	0000000000000000H
	DW	00H
	DB	0bH
	DB	018H
	ORG $+4
	DQ	0000000000000000H
	DW	00H
	DB	0bH
	DB	018H
	ORG $+4
	DQ	0000000000000000H
	DW	00H
	DB	08H
	DB	018H
	ORG $+4
	DQ	0000000000000000H
	DW	00H
	DB	08H
	DB	018H
	ORG $+4
	DQ	0000000000000000H
	DW	00H
	DB	0bH
	DB	018H
	ORG $+4
	DQ	0000000000000000H
	DW	00H
	DB	0bH
	DB	018H
	ORG $+4
	DQ	0000000000000000H
	DW	00H
	DB	08H
	DB	018H
	ORG $+4
	DQ	0000000000000000H
	DW	00H
	DB	08H
	DB	018H
	ORG $+4
	DQ	0000000000000000H
	DW	00H
	DB	08H
	DB	018H
	ORG $+4
	DQ	0000000000000000H
	DW	00H
	DB	08H
	DB	018H
	ORG $+4
	DQ	0000000000000000H
	DW	00H
	DB	08H
	DB	018H
	ORG $+4
	DQ	0000000000000000H
	DW	00H
	DB	08H
	DB	018H
	ORG $+4
	DQ	0000000000000000H
	DW	00H
	DB	08H
	DB	018H
	ORG $+4
	DQ	0000000000000000H
	DW	00H
	DB	08H
	DB	018H
	ORG $+4
	DQ	0000000000000000H
	DW	00H
	DB	07H
	DB	018H
	ORG $+4
	DQ	0000000000000000H
	DW	00H
	DB	08H
	DB	018H
	ORG $+4
	DQ	0000000000000000H
	DW	00H
	DB	08H
	DB	018H
	ORG $+4
	DQ	0000000000000000H
	DW	00H
	DB	08H
	DB	018H
	ORG $+4
	DQ	0000000000000000H
	DW	00H
	DB	08H
	DB	018H
	ORG $+4
	DQ	0000000000000000H
	DW	00H
	DB	08H
	DB	08H
	ORG $+4
	DQ	0000000000000000H
	DW	00H
	DB	0aH
	DB	08H
	ORG $+4
	DQ	0000000000000000H
	DW	00H
	DB	0aH
	DB	08H
	ORG $+4
	DQ	0000000000000000H
	DW	00H
	DB	04H
	DB	08H
	ORG $+4
	DQ	0000000000000000H
	DW	00H
	DB	04H
	DB	08H
	ORG $+4
	DQ	0000000000000000H
	DW	00H
	DB	05H
	DB	08H
	ORG $+4
	DQ	0000000000000000H
	DW	00H
	DB	04H
	DB	08H
	ORG $+4
	DQ	0000000000000000H
	DW	00H
	DB	04H
	DB	08H
	ORG $+4
	DQ	0000000000000000H
	DW	00H
	DB	04H
	DB	08H
	ORG $+4
	DQ	0000000000000000H
	DW	00H
	DB	04H
	DB	08H
	ORG $+4
	DQ	0000000000000000H
	DW	00H
	DB	06H
	DB	08H
	ORG $+4
	DQ	0000000000000000H
	DW	00H
	DB	04H
	DB	08H
	ORG $+4
	DQ	0000000000000000H
	DW	00H
	DB	04H
	DB	08H
	ORG $+4
	DQ	0000000000000000H
	DW	00H
	DB	04H
	DB	08H
	ORG $+4
	DQ	0000000000000000H
	DW	00H
	DB	04H
	DB	08H
	ORG $+4
	DQ	0000000000000000H
	DW	00H
	DB	04H
	DB	08H
	ORG $+4
	DQ	0000000000000000H
	DW	00H
	DB	05H
	DB	08H
	ORG $+4
	DQ	0000000000000000H
	DW	00H
	DB	05H
	DB	08H
	ORG $+4
	DQ	0000000000000000H
	DW	00H
	DB	05H
	DB	08H
	ORG $+4
	DQ	0000000000000000H
	DW	00H
	DB	05H
	DB	08H
	ORG $+4
	DQ	0000000000000000H
	DW	00H
	DB	06H
	DB	08H
	ORG $+4
	DQ	0000000000000000H
	DW	00H
	DB	06H
	DB	08H
	ORG $+4
	DQ	0000000000000000H
	DW	00H
	DB	04H
	DB	08H
	ORG $+4
	DQ	0000000000000000H
	DW	00H
	DB	04H
	DB	08H
	ORG $+4
	DQ	0000000000000000H
	DW	00H
	DB	05H
	DB	08H
	ORG $+4
	DQ	0000000000000000H
	DW	00H
	DB	05H
	DB	08H
	ORG $+4
	DQ	0000000000000000H
	DW	00H
	DB	06H
	DB	08H
	ORG $+4
	DQ	0000000000000000H
	DW	00H
	DB	06H
	DB	08H
	ORG $+4
	DQ	0000000000000000H
	DW	00H
	DB	08H
	DB	08H
	ORG $+4
	DQ	0000000000000000H
	DW	00H
	DB	08H
	DB	08H
	ORG $+4
	DQ	0000000000000000H
	DW	00H
	DB	05H
	DB	08H
	ORG $+4
	DQ	0000000000000000H
	DW	00H
	DB	05H
	DB	08H
	ORG $+4
	DQ	0000000000000000H
	DW	00H
	DB	05H
	DB	08H
	ORG $+4
	DQ	0000000000000000H
	DW	00H
	DB	05H
	DB	08H
	ORG $+4
	DQ	0000000000000000H
	DW	00H
	DB	06H
	DB	08H
	ORG $+4
	DQ	0000000000000000H
	DW	00H
	DB	06H
	DB	08H
	ORG $+4
	DQ	0000000000000000H
	DW	00H
	DB	04H
	DB	08H
	ORG $+4
	DQ	0000000000000000H
	DW	00H
	DB	04H
	DB	08H
	ORG $+4
	DQ	0000000000000000H
	DW	00H
	DB	05H
	DB	08H
	ORG $+4
	DQ	0000000000000000H
	DW	00H
	DB	05H
	DB	08H
	ORG $+4
	DQ	0000000000000000H
	DW	00H
	DB	06H
	DB	08H
	ORG $+4
	DQ	0000000000000000H
	DW	00H
	DB	06H
	DB	08H
	ORG $+4
	DQ	0000000000000000H
	DW	00H
	DB	08H
	DB	08H
	ORG $+4
	DQ	0000000000000000H
	DW	00H
	DB	05H
	DB	08H
	ORG $+4
	DQ	0000000000000000H
	DW	00H
	DB	05H
	DB	08H
	ORG $+4
	DQ	0000000000000000H
	DW	00H
	DB	05H
	DB	08H
	ORG $+4
	DQ	0000000000000000H
	DW	00H
	DB	05H
	DB	08H
	ORG $+4
	DQ	0000000000000000H
	DW	00H
	DB	08H
	DB	08H
	ORG $+4
	DQ	0000000000000000H
	DW	00H
	DB	08H
	DB	08H
	ORG $+4
	DQ	0000000000000000H
	DW	00H
	DB	08H
	DB	08H
	ORG $+4
	DQ	0000000000000000H
	DW	00H
	DB	08H
	DB	08H
	ORG $+4
	DQ	0000000000000000H
	DW	00H
	DB	08H
	DB	08H
	ORG $+4
	DQ	0000000000000000H
	DW	00H
	DB	08H
	DB	08H
	ORG $+4
	DQ	0000000000000000H
	DW	00H
	DB	08H
	DB	08H
	ORG $+4
	DQ	0000000000000000H
	DW	00H
	DB	08H
	DB	08H
	ORG $+4
	DQ	0000000000000000H
	DW	00H
	DB	08H
	DB	08H
	ORG $+4
	DQ	0000000000000000H
	DW	00H
	DB	08H
	DB	08H
	ORG $+4
	DQ	0000000000000000H
	DW	00H
	DB	08H
	DB	08H
	ORG $+4
	DQ	0000000000000000H
	DW	00H
	DB	08H
	DB	08H
	ORG $+4
	DQ	0000000000000000H
	DW	00H
	DB	05H
	DB	08H
	ORG $+4
	DQ	0000000000000000H
	DW	00H
	DB	05H
	DB	08H
	ORG $+4
	DQ	0000000000000000H
	DW	00H
	DB	05H
	DB	08H
	ORG $+4
	DQ	0000000000000000H
	DW	00H
	DB	05H
	DB	08H
	ORG $+4
	DQ	0000000000000000H
	DW	00H
	DB	06H
	DB	08H
	ORG $+4
	DQ	0000000000000000H
	DW	00H
	DB	06H
	DB	08H
	ORG $+4
	DQ	0000000000000000H
	DW	00H
	DB	06H
	DB	08H
	ORG $+4
	DQ	0000000000000000H
	DW	00H
	DB	06H
	DB	08H
	ORG $+4
	DQ	0000000000000000H
	DW	00H
	DB	06H
	DB	08H
	ORG $+4
	DQ	0000000000000000H
	DW	00H
	DB	06H
	DB	08H
	ORG $+4
	DQ	0000000000000000H
	DW	00H
	DB	06H
	DB	08H
	ORG $+4
	DQ	0000000000000000H
	DW	00H
	DB	06H
	DB	08H
	ORG $+4
	DQ	0000000000000000H
	DW	00H
	DB	06H
	DB	08H
	ORG $+4
	DQ	0000000000000000H
	DW	00H
	DB	06H
	DB	08H
	ORG $+4
	DQ	0000000000000000H
	DW	00H
	DB	07H
	DB	08H
	ORG $+4
	DQ	0000000000000000H
	DW	00H
	DB	07H
	DB	08H
	ORG $+4
	DQ	0000000000000000H
	DW	00H
	DB	06H
	DB	08H
	ORG $+4
	DQ	0000000000000000H
	DW	00H
	DB	06H
	DB	08H
	ORG $+4
	DQ	0000000000000000H
	DW	00H
	DB	06H
	DB	08H
	ORG $+4
	DQ	0000000000000000H
	DW	00H
	DB	06H
	DB	08H
	ORG $+4
	DQ	0000000000000000H
	DW	00H
	DB	06H
	DB	08H
	ORG $+4
	DQ	0000000000000000H
	DW	00H
	DB	06H
	DB	08H
	ORG $+4
	DQ	0000000000000000H
	DW	00H
	DB	06H
	DB	08H
	ORG $+4
	DQ	0000000000000000H
	DW	00H
	DB	06H
	DB	08H
	ORG $+4
	DQ	0000000000000000H
	DW	00H
	DB	06H
	DB	08H
	ORG $+4
	DQ	0000000000000000H
	DW	00H
	DB	06H
	DB	08H
	ORG $+4
	DQ	0000000000000000H
	DW	00H
	DB	06H
	DB	08H
	ORG $+4
	DQ	0000000000000000H
	DW	00H
	DB	06H
	DB	08H
	ORG $+4
	DQ	0000000000000000H
	DW	00H
	DB	07H
	DB	08H
	ORG $+4
	DQ	0000000000000000H
	DW	00H
	DB	07H
	DB	08H
	ORG $+4
	DQ	0000000000000000H
	DW	00H
	DB	06H
	DB	08H
	ORG $+4
	DQ	0000000000000000H
	DW	00H
	DB	06H
	DB	08H
	ORG $+4
	DQ	0000000000000000H
	DW	00H
	DB	06H
	DB	08H
	ORG $+4
	DQ	0000000000000000H
	DW	00H
	DB	06H
	DB	08H
	ORG $+4
	DQ	0000000000000000H
	DW	00H
	DB	06H
	DB	08H
	ORG $+4
	DQ	0000000000000000H
	DW	00H
	DB	06H
	DB	08H
	ORG $+4
	DQ	0000000000000000H
	DW	00H
	DB	08H
	DB	08H
	ORG $+4
	DQ	0000000000000000H
	DW	00H
	DB	08H
	DB	08H
	ORG $+4
	DQ	0000000000000000H
	DW	00H
	DB	08H
	DB	08H
	ORG $+4
	DQ	0000000000000000H
	DW	00H
	DB	0bH
	DB	08H
	ORG $+4
	DQ	0000000000000000H
	DW	00H
	DB	09H
	DB	08H
	ORG $+4
	DQ	0000000000000000H
	DW	00H
	DB	09H
	DB	08H
	ORG $+4
	DQ	0000000000000000H
	DW	00H
	DB	09H
	DB	08H
	ORG $+4
	DQ	0000000000000000H
	DW	00H
	DB	09H
	DB	08H
	ORG $+4
	DQ	0000000000000000H
	DW	00H
	DB	0bH
	DB	08H
	ORG $+4
	DQ	0000000000000000H
	DW	00H
	DB	09H
	DB	08H
	ORG $+4
	DQ	0000000000000000H
	DW	00H
	DB	09H
	DB	08H
	ORG $+4
	DQ	0000000000000000H
	DW	00H
	DB	0bH
	DB	08H
	ORG $+4
	DQ	0000000000000000H
	DW	00H
	DB	0cH
	DB	08H
	ORG $+4
	DQ	0000000000000000H
	DW	00H
	DB	08H
	DB	08H
	ORG $+4
	DQ	0000000000000000H
	DW	00H
	DB	08H
	DB	08H
	ORG $+4
	DQ	0000000000000000H
	DW	00H
	DB	0aH
	DB	08H
	ORG $+4
	DQ	0000000000000000H
	DW	00H
	DB	0bH
	DB	08H
	ORG $+4
	DQ	0000000000000000H
	DW	00H
	DB	0bH
	DB	08H
	ORG $+4
	DQ	0000000000000000H
	DW	00H
	DB	0bH
	DB	08H
	ORG $+4
	DQ	0000000000000000H
	DW	00H
	DB	0dH
	DB	08H
	ORG $+4
	DQ	0000000000000000H
	DW	00H
	DB	0cH
	DB	08H
	ORG $+4
	DQ	0000000000000000H
	DW	00H
	DB	0cH
	DB	08H
	ORG $+4
	DQ	0000000000000000H
	DW	00H
	DB	0cH
	DB	08H
	ORG $+4
	DQ	0000000000000000H
	DW	00H
	DB	0bH
	DB	08H
	ORG $+4
	DQ	0000000000000000H
	DW	00H
	DB	0bH
	DB	08H
	ORG $+4
	DQ	0000000000000000H
	DW	00H
	DB	0cH
	DB	08H
	ORG $+4
	DQ	0000000000000000H
	DW	00H
	DB	0cH
	DB	08H
	ORG $+4
	DQ	0000000000000000H
	DW	00H
	DB	0eH
	DB	08H
	ORG $+4
	DQ	0000000000000000H
	DW	00H
	DB	0cH
	DB	08H
	ORG $+4
	DQ	0000000000000000H
	DW	00H
	DB	0bH
	DB	08H
	ORG $+4
	DQ	0000000000000000H
	DW	00H
	DB	0bH
	DB	08H
	ORG $+4
	DQ	0000000000000000H
	DW	00H
	DB	0dH
	DB	08H
	ORG $+4
	DQ	0000000000000000H
	DW	00H
	DB	08H
	DB	08H
	ORG $+4
	DQ	0000000000000000H
	DW	00H
	DB	08H
	DB	08H
	ORG $+4
	DQ	0000000000000000H
	DW	00H
	DB	08H
	DB	08H
	ORG $+4
	DQ	0000000000000000H
	DW	00H
	DB	0bH
	DB	08H
	ORG $+4
	DQ	0000000000000000H
	DW	00H
	DB	09H
	DB	08H
	ORG $+4
	DQ	0000000000000000H
	DW	00H
	DB	09H
	DB	08H
	ORG $+4
	DQ	0000000000000000H
	DW	00H
	DB	09H
	DB	08H
	ORG $+4
	DQ	0000000000000000H
	DW	00H
	DB	09H
	DB	08H
	ORG $+4
	DQ	0000000000000000H
	DW	00H
	DB	0bH
	DB	08H
	ORG $+4
	DQ	0000000000000000H
	DW	00H
	DB	09H
	DB	08H
	ORG $+4
	DQ	0000000000000000H
	DW	00H
	DB	09H
	DB	08H
	ORG $+4
	DQ	0000000000000000H
	DW	00H
	DB	0bH
	DB	08H
	ORG $+4
	DQ	0000000000000000H
	DW	00H
	DB	0cH
	DB	08H
	ORG $+4
	DQ	0000000000000000H
	DW	00H
	DB	08H
	DB	08H
	ORG $+4
	DQ	0000000000000000H
	DW	00H
	DB	08H
	DB	08H
	ORG $+4
	DQ	0000000000000000H
	DW	00H
	DB	0aH
	DB	08H
	ORG $+4
	DQ	0000000000000000H
	DW	00H
	DB	0bH
	DB	08H
	ORG $+4
	DQ	0000000000000000H
	DW	00H
	DB	0bH
	DB	08H
	ORG $+4
	DQ	0000000000000000H
	DW	00H
	DB	0bH
	DB	08H
	ORG $+4
	DQ	0000000000000000H
	DW	00H
	DB	0dH
	DB	08H
	ORG $+4
	DQ	0000000000000000H
	DW	00H
	DB	0cH
	DB	08H
	ORG $+4
	DQ	0000000000000000H
	DW	00H
	DB	0cH
	DB	08H
	ORG $+4
	DQ	0000000000000000H
	DW	00H
	DB	0cH
	DB	08H
	ORG $+4
	DQ	0000000000000000H
	DW	00H
	DB	0bH
	DB	08H
	ORG $+4
	DQ	0000000000000000H
	DW	00H
	DB	0bH
	DB	08H
	ORG $+4
	DQ	0000000000000000H
	DW	00H
	DB	0cH
	DB	08H
	ORG $+4
	DQ	0000000000000000H
	DW	00H
	DB	0cH
	DB	08H
	ORG $+4
	DQ	0000000000000000H
	DW	00H
	DB	0eH
	DB	08H
	ORG $+4
	DQ	0000000000000000H
	DW	00H
	DB	0cH
	DB	08H
	ORG $+4
	DQ	0000000000000000H
	DW	00H
	DB	0bH
	DB	08H
	ORG $+4
	DQ	0000000000000000H
	DW	00H
	DB	0bH
	DB	08H
	ORG $+4
	DQ	0000000000000000H
	DW	00H
	DB	0dH
	DB	08H
	ORG $+4
	DQ	0000000000000000H
	DW	00H
	DB	08H
	DB	08H
	ORG $+4
	DQ	0000000000000000H
	DW	00H
	DB	08H
	DB	08H
	ORG $+4
	DQ	0000000000000000H
	DW	00H
	DB	08H
	DB	08H
	ORG $+4
	DQ	0000000000000000H
	DW	00H
	DB	0bH
	DB	08H
	ORG $+4
	DQ	0000000000000000H
	DW	00H
	DB	09H
	DB	08H
	ORG $+4
	DQ	0000000000000000H
	DW	00H
	DB	09H
	DB	08H
	ORG $+4
	DQ	0000000000000000H
	DW	00H
	DB	09H
	DB	08H
	ORG $+4
	DQ	0000000000000000H
	DW	00H
	DB	09H
	DB	08H
	ORG $+4
	DQ	0000000000000000H
	DW	00H
	DB	0bH
	DB	08H
	ORG $+4
	DQ	0000000000000000H
	DW	00H
	DB	09H
	DB	08H
	ORG $+4
	DQ	0000000000000000H
	DW	00H
	DB	09H
	DB	08H
	ORG $+4
	DQ	0000000000000000H
	DW	00H
	DB	0bH
	DB	08H
	ORG $+4
	DQ	0000000000000000H
	DW	00H
	DB	0cH
	DB	08H
	ORG $+4
	DQ	0000000000000000H
	DW	00H
	DB	08H
	DB	08H
	ORG $+4
	DQ	0000000000000000H
	DW	00H
	DB	08H
	DB	08H
	ORG $+4
	DQ	0000000000000000H
	DW	00H
	DB	0aH
	DB	08H
	ORG $+4
	DQ	0000000000000000H
	DW	00H
	DB	0bH
	DB	08H
	ORG $+4
	DQ	0000000000000000H
	DW	00H
	DB	0bH
	DB	08H
	ORG $+4
	DQ	0000000000000000H
	DW	00H
	DB	0bH
	DB	08H
	ORG $+4
	DQ	0000000000000000H
	DW	00H
	DB	0dH
	DB	08H
	ORG $+4
	DQ	0000000000000000H
	DW	00H
	DB	0cH
	DB	08H
	ORG $+4
	DQ	0000000000000000H
	DW	00H
	DB	0cH
	DB	08H
	ORG $+4
	DQ	0000000000000000H
	DW	00H
	DB	0cH
	DB	08H
	ORG $+4
	DQ	0000000000000000H
	DW	00H
	DB	0bH
	DB	08H
	ORG $+4
	DQ	0000000000000000H
	DW	00H
	DB	0bH
	DB	08H
	ORG $+4
	DQ	0000000000000000H
	DW	00H
	DB	0cH
	DB	08H
	ORG $+4
	DQ	0000000000000000H
	DW	00H
	DB	0cH
	DB	08H
	ORG $+4
	DQ	0000000000000000H
	DW	00H
	DB	0eH
	DB	08H
	ORG $+4
	DQ	0000000000000000H
	DW	00H
	DB	0cH
	DB	08H
	ORG $+4
	DQ	0000000000000000H
	DW	00H
	DB	0bH
	DB	08H
	ORG $+4
	DQ	0000000000000000H
	DW	00H
	DB	0bH
	DB	08H
	ORG $+4
	DQ	0000000000000000H
	DW	00H
	DB	0dH
	DB	08H
	ORG $+4
	DQ	0000000000000000H
	DW	00H
	DB	08H
	DB	08H
	ORG $+4
	DQ	0000000000000000H
	DW	00H
	DB	08H
	DB	08H
	ORG $+4
	DQ	0000000000000000H
	DW	00H
	DB	08H
	DB	08H
	ORG $+4
	DQ	0000000000000000H
	DW	00H
	DB	0bH
	DB	08H
	ORG $+4
	DQ	0000000000000000H
	DW	00H
	DB	09H
	DB	08H
	ORG $+4
	DQ	0000000000000000H
	DW	00H
	DB	09H
	DB	08H
	ORG $+4
	DQ	0000000000000000H
	DW	00H
	DB	09H
	DB	08H
	ORG $+4
	DQ	0000000000000000H
	DW	00H
	DB	09H
	DB	08H
	ORG $+4
	DQ	0000000000000000H
	DW	00H
	DB	0bH
	DB	08H
	ORG $+4
	DQ	0000000000000000H
	DW	00H
	DB	09H
	DB	08H
	ORG $+4
	DQ	0000000000000000H
	DW	00H
	DB	09H
	DB	08H
	ORG $+4
	DQ	0000000000000000H
	DW	00H
	DB	0bH
	DB	08H
	ORG $+4
	DQ	0000000000000000H
	DW	00H
	DB	0cH
	DB	08H
	ORG $+4
	DQ	0000000000000000H
	DW	00H
	DB	08H
	DB	08H
	ORG $+4
	DQ	0000000000000000H
	DW	00H
	DB	08H
	DB	08H
	ORG $+4
	DQ	0000000000000000H
	DW	00H
	DB	0aH
	DB	08H
	ORG $+4
	DQ	0000000000000000H
	DW	00H
	DB	0bH
	DB	08H
	ORG $+4
	DQ	0000000000000000H
	DW	00H
	DB	0bH
	DB	08H
	ORG $+4
	DQ	0000000000000000H
	DW	00H
	DB	0bH
	DB	08H
	ORG $+4
	DQ	0000000000000000H
	DW	00H
	DB	0dH
	DB	08H
	ORG $+4
	DQ	0000000000000000H
	DW	00H
	DB	0cH
	DB	08H
	ORG $+4
	DQ	0000000000000000H
	DW	00H
	DB	0cH
	DB	08H
	ORG $+4
	DQ	0000000000000000H
	DW	00H
	DB	0cH
	DB	08H
	ORG $+4
	DQ	0000000000000000H
	DW	00H
	DB	0bH
	DB	08H
	ORG $+4
	DQ	0000000000000000H
	DW	00H
	DB	0bH
	DB	08H
	ORG $+4
	DQ	0000000000000000H
	DW	00H
	DB	0cH
	DB	08H
	ORG $+4
	DQ	0000000000000000H
	DW	00H
	DB	0cH
	DB	08H
	ORG $+4
	DQ	0000000000000000H
	DW	00H
	DB	0eH
	DB	08H
	ORG $+4
	DQ	0000000000000000H
	DW	00H
	DB	0cH
	DB	08H
	ORG $+4
	DQ	0000000000000000H
	DW	00H
	DB	0bH
	DB	08H
	ORG $+4
	DQ	0000000000000000H
	DW	00H
	DB	0bH
	DB	08H
	ORG $+4
	DQ	0000000000000000H
	DW	00H
	DB	0dH
	DB	08H
	ORG $+4
	DQ	0000000000000000H
	DW	00H
	DB	06H
	DB	08H
	ORG $+4
	DQ	0000000000000000H
	DW	00H
	DB	07H
	DB	08H
	ORG $+4
	DQ	0000000000000000H
	DW	00H
	DB	05H
	DB	08H
	ORG $+4
	DQ	0000000000000000H
	DW	00H
	DB	07H
	DB	08H
	ORG $+4
	DQ	0000000000000000H
	DW	00H
	DB	06H
	DB	08H
	ORG $+4
	DQ	0000000000000000H
	DW	00H
	DB	06H
	DB	08H
	ORG $+4
	DQ	0000000000000000H
	DW	00H
	DB	07H
	DB	08H
	ORG $+4
	DQ	0000000000000000H
	DW	00H
	DB	05H
	DB	08H
	ORG $+4
	DQ	0000000000000000H
	DW	00H
	DB	07H
	DB	08H
	ORG $+4
	DQ	0000000000000000H
	DW	00H
	DB	06H
	DB	08H
	ORG $+4
	DQ	0000000000000000H
	DW	00H
	DB	09H
	DB	08H
	ORG $+4
	DQ	0000000000000000H
	DW	00H
	DB	09H
	DB	08H
	ORG $+4
	DQ	0000000000000000H
	DW	00H
	DB	09H
	DB	08H
	ORG $+4
	DQ	0000000000000000H
	DW	00H
	DB	0aH
	DB	08H
	ORG $+4
	DQ	0000000000000000H
	DW	00H
	DB	09H
	DB	08H
	ORG $+4
	DQ	0000000000000000H
	DW	00H
	DB	09H
	DB	08H
	ORG $+4
	DQ	0000000000000000H
	DW	00H
	DB	0aH
	DB	08H
	ORG $+4
	DQ	0000000000000000H
	DW	00H
	DB	09H
	DB	08H
	ORG $+4
	DQ	0000000000000000H
	DW	00H
	DB	09H
	DB	08H
	ORG $+4
	DQ	0000000000000000H
	DW	00H
	DB	09H
	DB	08H
	ORG $+4
	DQ	0000000000000000H
	DW	00H
	DB	09H
	DB	08H
	ORG $+4
	DQ	0000000000000000H
	DW	00H
	DB	0aH
	DB	08H
	ORG $+4
	DQ	0000000000000000H
	DW	00H
	DB	09H
	DB	08H
	ORG $+4
	DQ	0000000000000000H
	DW	00H
	DB	09H
	DB	08H
	ORG $+4
	DQ	0000000000000000H
	DW	00H
	DB	08H
	DB	08H
	ORG $+4
	DQ	0000000000000000H
	DW	00H
	DB	08H
	DB	08H
	ORG $+4
	DQ	0000000000000000H
	DW	00H
	DB	05H
	DB	08H
	ORG $+4
	DQ	0000000000000000H
	DW	00H
	DB	05H
	DB	08H
	ORG $+4
	DQ	0000000000000000H
	DW	00H
	DB	0aH
	DB	08H
	ORG $+4
	DQ	0000000000000000H
	DW	00H
	DB	07H
	DB	08H
	ORG $+4
	DQ	0000000000000000H
	DW	00H
	DB	07H
	DB	08H
	ORG $+4
	DQ	0000000000000000H
	DW	00H
	DB	07H
	DB	08H
	ORG $+4
	DQ	0000000000000000H
	DW	00H
	DB	07H
	DB	08H
	ORG $+4
	DQ	0000000000000000H
	DW	00H
	DB	09H
	DB	08H
	ORG $+4
	DQ	0000000000000000H
	DW	00H
	DB	06H
	DB	08H
	ORG $+4
	DQ	0000000000000000H
	DW	00H
	DB	08H
	DB	08H
	ORG $+4
	DQ	0000000000000000H
	DW	00H
	DB	08H
	DB	08H
	ORG $+4
	DQ	0000000000000000H
	DW	00H
	DB	0bH
	DB	08H
	ORG $+4
	DQ	0000000000000000H
	DW	00H
	DB	07H
	DB	08H
	ORG $+4
	DQ	0000000000000000H
	DW	00H
	DB	07H
	DB	08H
	ORG $+4
	DQ	0000000000000000H
	DW	00H
	DB	05H
	DB	08H
	ORG $+4
	DQ	0000000000000000H
	DW	00H
	DB	05H
	DB	08H
	ORG $+4
	DQ	0000000000000000H
	DW	00H
	DB	07H
	DB	08H
	ORG $+4
	DQ	0000000000000000H
	DW	00H
	DB	07H
	DB	08H
	ORG $+4
	DQ	0000000000000000H
	DW	00H
	DB	08H
	DB	08H
	ORG $+4
	DQ	0000000000000000H
	DW	00H
	DB	08H
	DB	08H
	ORG $+4
	DQ	0000000000000000H
	DW	00H
	DB	07H
	DB	08H
	ORG $+4
	DQ	0000000000000000H
	DW	00H
	DB	07H
	DB	08H
	ORG $+4
	DQ	0000000000000000H
	DW	00H
	DB	07H
	DB	08H
	ORG $+4
	DQ	0000000000000000H
	DW	00H
	DB	07H
	DB	08H
	ORG $+4
	DQ	0000000000000000H
	DW	00H
	DB	06H
	DB	08H
	ORG $+4
	DQ	0000000000000000H
	DW	00H
	DB	06H
	DB	08H
	ORG $+4
	DQ	0000000000000000H
	DW	00H
	DB	09H
	DB	08H
	ORG $+4
	DQ	0000000000000000H
	DW	00H
	DB	09H
	DB	08H
	ORG $+4
	DQ	0000000000000000H
	DW	00H
	DB	08H
	DB	08H
	ORG $+4
	DQ	0000000000000000H
	DW	00H
	DB	09H
	DB	08H
	ORG $+4
	DQ	0000000000000000H
	DW	00H
	DB	08H
	DB	08H
	ORG $+4
	DQ	0000000000000000H
	DW	00H
	DB	08H
	DB	08H
	ORG $+4
	DQ	0000000000000000H
	DW	00H
	DB	09H
	DB	08H
	ORG $+4
	DQ	0000000000000000H
	DW	00H
	DB	09H
	DB	08H
	ORG $+4
	DQ	0000000000000000H
	DW	00H
	DB	07H
	DB	08H
	ORG $+4
	DQ	0000000000000000H
	DW	00H
	DB	07H
	DB	08H
	ORG $+4
	DQ	0000000000000000H
	DW	00H
	DB	08H
	DB	08H
	ORG $+4
	DQ	0000000000000000H
	DW	00H
	DB	06H
	DB	08H
	ORG $+4
	DQ	0000000000000000H
	DW	00H
	DB	06H
	DB	08H
	ORG $+4
	DQ	0000000000000000H
	DW	00H
	DB	06H
	DB	08H
	ORG $+4
	DQ	0000000000000000H
	DW	00H
	DB	09H
	DB	08H
	ORG $+4
	DQ	0000000000000000H
	DW	00H
	DB	09H
	DB	08H
	ORG $+4
	DQ	0000000000000000H
	DW	00H
	DB	09H
	DB	08H
	ORG $+4
	DQ	0000000000000000H
	DW	00H
	DB	09H
	DB	08H
	ORG $+4
	DQ	0000000000000000H
	DW	00H
	DB	06H
	DB	08H
	ORG $+4
	DQ	0000000000000000H
	DW	00H
	DB	06H
	DB	08H
	ORG $+4
	DQ	0000000000000000H
	DW	00H
	DB	06H
	DB	08H
	ORG $+4
	DQ	0000000000000000H
	DW	00H
	DB	06H
	DB	08H
	ORG $+4
	DQ	0000000000000000H
	DW	00H
	DB	07H
	DB	08H
	ORG $+4
	DQ	0000000000000000H
	DW	00H
	DB	07H
	DB	08H
	ORG $+4
	DQ	0000000000000000H
	DW	00H
	DB	08H
	DB	08H
	ORG $+4
	DQ	0000000000000000H
	DW	00H
	DB	08H
	DB	08H
	ORG $+4
	DQ	0000000000000000H
	DW	00H
	DB	08H
	DB	08H
	ORG $+4
	DQ	0000000000000000H
	DW	00H
	DB	05H
	DB	08H
	ORG $+4
	DQ	0000000000000000H
	DW	00H
	DB	06H
	DB	08H
	ORG $+4
	DQ	0000000000000000H
	DW	00H
	DB	06H
	DB	08H
	ORG $+4
	DQ	0000000000000000H
	DW	00H
	DB	06H
	DB	08H
	ORG $+4
	DQ	0000000000000000H
	DW	00H
	DB	08H
	DB	08H
	ORG $+4
	DQ	0000000000000000H
	DW	00H
	DB	0aH
	DB	08H
	ORG $+4
	DQ	0000000000000000H
	DW	00H
	DB	0aH
	DB	08H
	ORG $+4
	DQ	0000000000000000H
	DW	00H
	DB	0aH
	DB	08H
	ORG $+4
	DQ	0000000000000000H
	DW	00H
	DB	0aH
	DB	08H
	ORG $+4
	DQ	0000000000000000H
	DW	00H
	DB	08H
	DB	08H
	ORG $+4
	DQ	0000000000000000H
	DW	00H
	DB	08H
	DB	08H
	ORG $+4
	DQ	0000000000000000H
	DW	00H
	DB	07H
	DB	08H
	ORG $+4
	DQ	0000000000000000H
	DW	00H
	DB	07H
	DB	08H
	ORG $+4
	DQ	0000000000000000H
	DW	00H
	DB	07H
	DB	08H
	ORG $+4
	DQ	0000000000000000H
	DW	00H
	DB	07H
	DB	08H
	ORG $+4
	DQ	0000000000000000H
	DW	00H
	DB	07H
	DB	08H
	ORG $+4
	DQ	0000000000000000H
	DW	00H
	DB	07H
	DB	08H
	ORG $+4
	DQ	0000000000000000H
	DW	00H
	DB	07H
	DB	08H
	ORG $+4
	DQ	0000000000000000H
	DW	00H
	DB	07H
	DB	08H
	ORG $+4
	DQ	0000000000000000H
	DW	00H
	DB	07H
	DB	08H
	ORG $+4
	DQ	0000000000000000H
	DW	00H
	DB	07H
	DB	08H
	ORG $+4
	DQ	0000000000000000H
	DW	00H
	DB	08H
	DB	08H
	ORG $+4
	DQ	0000000000000000H
	DW	00H
	DB	0bH
	DB	08H
	ORG $+4
	DQ	0000000000000000H
	DW	00H
	DB	07H
	DB	08H
	ORG $+4
	DQ	0000000000000000H
	DW	00H
	DB	07H
	DB	08H
	ORG $+4
	DQ	0000000000000000H
	DW	00H
	DB	08H
	DB	08H
	ORG $+4
	DQ	0000000000000000H
	DW	00H
	DB	08H
	DB	08H
	ORG $+4
	DQ	0000000000000000H
	DW	00H
	DB	0aH
	DB	08H
	ORG $+4
	DQ	0000000000000000H
	DW	00H
	DB	07H
	DB	08H
	ORG $+4
	DQ	0000000000000000H
	DW	00H
	DB	07H
	DB	08H
	ORG $+4
	DQ	0000000000000000H
	DW	00H
	DB	07H
	DB	08H
	ORG $+4
	DQ	0000000000000000H
	DW	00H
	DB	07H
	DB	08H
	ORG $+4
	DQ	0000000000000000H
	DW	00H
	DB	07H
	DB	08H
	ORG $+4
	DQ	0000000000000000H
	DW	00H
	DB	07H
	DB	08H
	ORG $+4
	DQ	0000000000000000H
	DW	00H
	DB	07H
	DB	08H
	ORG $+4
	DQ	0000000000000000H
	DW	00H
	DB	07H
	DB	08H
	ORG $+4
	DQ	0000000000000000H
	DW	00H
	DB	07H
	DB	08H
	ORG $+4
	DQ	0000000000000000H
	DW	00H
	DB	07H
	DB	08H
	ORG $+4
	DQ	0000000000000000H
	DW	00H
	DB	07H
	DB	08H
	ORG $+4
	DQ	0000000000000000H
	DW	00H
	DB	07H
	DB	08H
	ORG $+4
	DQ	0000000000000000H
	DW	00H
	DB	09H
	DB	08H
	ORG $+4
	DQ	0000000000000000H
	DW	00H
	DB	09H
	DB	08H
	ORG $+4
	DQ	0000000000000000H
	DW	00H
	DB	09H
	DB	08H
	ORG $+4
	DQ	0000000000000000H
	DW	00H
	DB	09H
	DB	08H
	ORG $+4
	DQ	0000000000000000H
	DW	00H
	DB	09H
	DB	08H
	ORG $+4
	DQ	0000000000000000H
	DW	00H
	DB	09H
	DB	08H
	ORG $+4
	DQ	0000000000000000H
	DW	00H
	DB	09H
	DB	08H
	ORG $+4
	DQ	0000000000000000H
	DW	00H
	DB	09H
	DB	08H
	ORG $+4
	DQ	0000000000000000H
	DW	00H
	DB	09H
	DB	08H
	ORG $+4
	DQ	0000000000000000H
	DW	00H
	DB	09H
	DB	08H
	ORG $+4
	DQ	0000000000000000H
	DW	00H
	DB	09H
	DB	08H
	ORG $+4
	DQ	0000000000000000H
	DW	00H
	DB	09H
	DB	08H
	ORG $+4
	DQ	0000000000000000H
	DW	00H
	DB	09H
	DB	08H
	ORG $+4
	DQ	0000000000000000H
	DW	00H
	DB	08H
	DB	08H
	ORG $+4
	DQ	0000000000000000H
	DW	00H
	DB	09H
	DB	08H
	ORG $+4
	DQ	0000000000000000H
	DW	00H
	DB	07H
	DB	08H
	ORG $+4
	DQ	0000000000000000H
	DW	00H
	DB	07H
	DB	08H
	ORG $+4
	DQ	0000000000000000H
	DW	00H
	DB	07H
	DB	08H
	ORG $+4
	DQ	0000000000000000H
	DW	00H
	DB	08H
	DB	08H
	ORG $+4
	DQ	0000000000000000H
	DW	00H
	DB	07H
	DB	08H
	ORG $+4
	DQ	0000000000000000H
	DW	00H
	DB	04H
	DB	08H
	ORG $+4
	DQ	0000000000000000H
	DW	00H
	DB	07H
	DB	08H
	ORG $+4
	DQ	0000000000000000H
	DW	00H
	DB	07H
	DB	08H
	ORG $+4
	DQ	0000000000000000H
	DW	00H
	DB	07H
	DB	08H
	ORG $+4
	DQ	0000000000000000H
	DW	00H
	DB	08H
	DB	08H
	ORG $+4
	DQ	0000000000000000H
	DW	00H
	DB	08H
	DB	08H
	ORG $+4
	DQ	0000000000000000H
	DW	00H
	DB	07H
	DB	08H
	ORG $+4
	DQ	0000000000000000H
	DW	00H
	DB	07H
	DB	08H
	ORG $+4
	DQ	0000000000000000H
	DW	00H
	DB	07H
	DB	08H
	ORG $+4
	DQ	0000000000000000H
	DW	00H
	DB	07H
	DB	08H
	ORG $+4
	DQ	0000000000000000H
	DW	00H
	DB	07H
	DB	08H
	ORG $+4
	DQ	0000000000000000H
	DW	00H
	DB	06H
	DB	08H
	ORG $+4
	DQ	0000000000000000H
	DW	00H
	DB	06H
	DB	08H
	ORG $+4
	DQ	0000000000000000H
	DW	00H
	DB	06H
	DB	08H
	ORG $+4
	DQ	0000000000000000H
	DW	00H
	DB	06H
	DB	08H
	ORG $+4
	DQ	0000000000000000H
	DW	00H
	DB	06H
	DB	08H
	ORG $+4
	DQ	0000000000000000H
	DW	00H
	DB	06H
	DB	08H
	ORG $+4
	DQ	0000000000000000H
	DW	00H
	DB	06H
	DB	08H
	ORG $+4
	DQ	0000000000000000H
	DW	00H
	DB	06H
	DB	08H
	ORG $+4
	DQ	0000000000000000H
	DW	00H
	DB	06H
	DB	08H
	ORG $+4
	DQ	0000000000000000H
	DW	00H
	DB	06H
	DB	08H
	ORG $+4
	DQ	0000000000000000H
	DW	00H
	DB	06H
	DB	08H
	ORG $+4
	DQ	0000000000000000H
	DW	00H
	DB	06H
	DB	08H
	ORG $+4
	DQ	0000000000000000H
	DW	00H
	DB	06H
	DB	08H
	ORG $+4
	DQ	0000000000000000H
	DW	00H
	DB	07H
	DB	08H
	ORG $+4
	DQ	0000000000000000H
	DW	00H
	DB	07H
	DB	08H
	ORG $+4
	DQ	0000000000000000H
	DW	00H
	DB	08H
	DB	08H
	ORG $+4
	DQ	0000000000000000H
	DW	00H
	DB	08H
	DB	08H
	ORG $+4
	DQ	0000000000000000H
	DW	00H
	DB	0aH
	DB	08H
	ORG $+4
	DQ	0000000000000000H
	DW	00H
	DB	0aH
	DB	08H
	ORG $+4
	DQ	0000000000000000H
	DW	00H
	DB	0aH
	DB	08H
	ORG $+4
	DQ	0000000000000000H
	DW	00H
	DB	0bH
	DB	08H
	ORG $+4
	DQ	0000000000000000H
	DW	00H
	DB	0aH
	DB	08H
	ORG $+4
	DQ	0000000000000000H
	DW	00H
	DB	0aH
	DB	08H
	ORG $+4
	DQ	0000000000000000H
	DW	00H
	DB	0aH
	DB	08H
	ORG $+4
	DQ	0000000000000000H
	DW	00H
	DB	0bH
	DB	08H
	ORG $+4
	DQ	0000000000000000H
	DW	00H
	DB	05H
	DB	08H
	ORG $+4
	DQ	0000000000000000H
	DW	00H
	DB	06H
	DB	08H
	ORG $+4
	DQ	0000000000000000H
	DW	00H
	DB	06H
	DB	08H
	ORG $+4
	DQ	0000000000000000H
	DW	00H
	DB	08H
	DB	08H
	ORG $+4
	DQ	0000000000000000H
	DW	00H
	DB	08H
	DB	08H
	ORG $+4
	DQ	0000000000000000H
	DW	00H
	DB	08H
	DB	08H
	ORG $+4
	DQ	0000000000000000H
	DW	00H
	DB	08H
	DB	08H
	ORG $+4
	DQ	0000000000000000H
	DW	00H
	DB	08H
	DB	08H
	ORG $+4
	DQ	0000000000000000H
	DW	00H
	DB	08H
	DB	08H
	ORG $+4
	DQ	0000000000000000H
	DW	00H
	DB	07H
	DB	08H
	ORG $+4
	DQ	0000000000000000H
	DW	00H
	DB	07H
	DB	08H
	ORG $+4
	DQ	0000000000000000H
	DW	00H
	DB	08H
	DB	08H
	ORG $+4
	DQ	0000000000000000H
	DW	00H
	DB	08H
	DB	08H
	ORG $+4
	DQ	0000000000000000H
	DW	00H
	DB	09H
	DB	08H
	ORG $+4
	DQ	0000000000000000H
	DW	00H
	DB	09H
	DB	08H
	ORG $+4
	DQ	0000000000000000H
	DW	00H
	DB	09H
	DB	08H
	ORG $+4
	DQ	0000000000000000H
	DW	00H
	DB	09H
	DB	08H
	ORG $+4
	DQ	0000000000000000H
optable_idx DW	00H
	DW	09H
	DW	013H
	DW	015H
	DW	017H
	DW	019H
	DW	01bH
	DW	01dH
	DW	01fH
	DW	021H
	DW	023H
	DW	025H
	DW	027H
	DW	029H
	DW	02bH
	DW	02dH
	DW	02fH
	DW	031H
	DW	033H
	DW	035H
	DW	037H
	DW	039H
	DW	03bH
	DW	03dH
	DW	03fH
	DW	041H
	DW	043H
	DW	045H
	DW	047H
	DW	049H
	DW	04bH
	DW	04dH
	DW	04fH
	DW	050H
	DW	051H
	DW	052H
	DW	053H
	DW	054H
	DW	055H
	DW	056H
	DW	057H
	DW	058H
	DW	059H
	DW	05aH
	DW	05bH
	DW	05cH
	DW	05dH
	DW	05eH
	DW	05fH
	DW	060H
	DW	061H
	DW	068H
	DW	06fH
	DW	076H
	DW	07dH
	DW	084H
	DW	08bH
	DW	092H
	DW	099H
	DW	09cH
	DW	09fH
	DW	0a2H
	DW	0a5H
	DW	0a8H
	DW	0abH
	DW	0aeH
	DW	0b1H
	DW	0b2H
	DW	0b4H
	DW	0b6H
	DW	0b9H
	DW	0baH
	DW	0bcH
	DW	0beH
	DW	0c0H
	DW	0c1H
	DW	0c3H
	DW	0c5H
	DW	0c7H
	DW	0c8H
	DW	0caH
	DW	0ccH
	DW	0d0H
	DW	0d1H
	DW	0d3H
	DW	0d5H
	DW	0d7H
	DW	0d8H
	DW	0daH
	DW	0dcH
	DW	0deH
	DW	0dfH
	DW	0e1H
	DW	0e3H
	DW	0e5H
	DW	0e6H
	DW	0e7H
	DW	0e8H
	DW	0e9H
	DW	0eaH
	DW	0ebH
	DW	0ecH
	DW	0edH
	DW	0eeH
	DW	0efH
	DW	0f0H
	DW	0f1H
	DW	0f2H
	DW	0f3H
	DW	0f4H
	DW	0f5H
	DW	0fbH
	DW	0fdH
	DW	0ffH
	DW	0100H
	DW	0101H
	DW	0102H
	DW	0103H
	DW	0104H
	DW	0105H
	DW	0106H
	DW	0107H
	DW	0108H
	DW	010bH
	DW	010eH
	DW	0111H
	DW	0114H
	DW	0117H
	DW	0118H
	DW	0119H
	DW	011aH
	DW	011bH
	DW	011cH
	DW	011dH
	DW	0121H
	DW	0125H
	DW	0129H
	DW	012dH
	DW	012eH
	DW	012fH
	DW	0130H
	DW	0131H
	DW	0132H
	DW	0133H
	DW	0134H
	DW	0138H
	DW	013cH
	DW	0142H
	DW	0146H
	DW	0148H
	DW	0149H
	DW	014aH
	DW	0159H
	DW	015aH
	DW	015bH
	DW	015cH
	DW	015dH
	DW	015eH
	DW	015fH
	DW	0160H
	DW	0161H
	DW	0162H
	DW	0164H
	DW	0165H
	DW	0166H
	DW	0167H
	DW	0168H
	DW	0170H
	DW	0172H
	DW	0174H
	DW	0175H
	DW	0176H
	DW	0177H
	DW	0178H
	DW	0179H
	DW	017aH
	DW	017bH
	DW	017cH
	DW	017dH
	DW	017eH
	DW	017fH
	DW	0180H
	DW	0181H
	DW	0182H
	DW	0183H
	DW	0184H
	DW	0185H
	DW	0186H
	DW	0187H
	DW	0188H
	DW	018aH
	DW	018bH
	DW	018cH
	DW	018dH
	DW	018eH
	DW	0190H
	DW	0192H
	DW	0194H
	DW	0195H
	DW	0196H
	DW	0197H
	DW	0198H
	DW	019aH
	DW	019cH
	DW	019dH
	DW	019eH
	DW	01a2H
	DW	01a3H
	DW	01a4H
	DW	01a5H
	DW	01a6H
	DW	01a8H
	DW	01adH
	DW	01afH
	DW	01b1H
	DW	01b2H
	DW	01b3H
	DW	01b4H
	DW	01b5H
	DW	01b6H
	DW	01b7H
	DW	01b8H
	DW	01b9H
	DW	01baH
	DW	01bbH
	DW	01bcH
	DW	01bdH
	DW	01beH
	DW	01bfH
	DW	01c0H
	DW	01c1H
	DW	01c2H
	DW	01c3H
	DW	01c4H
	DW	01c5H
	DW	01c6H
	DW	01c7H
	DW	01c8H
	DW	01c9H
	DW	01caH
	DW	01cbH
	DW	01ccH
	DW	01cdH
	DW	01ceH
	DW	01cfH
	DW	01d0H
	DW	01d1H
	DW	01d2H
	DW	01d3H
	DW	01d4H
	DW	01d5H
	DW	01d6H
	DW	01d7H
	DW	01d8H
	DW	01d9H
	DW	01daH
	DW	01dbH
	DW	01dcH
	DW	01ddH
	DW	01deH
	DW	01dfH
	DW	01e0H
	DW	01e1H
	DW	01e2H
	DW	01e3H
	DW	01e4H
	DW	01e5H
	DW	01e6H
	DW	01e7H
	DW	01e8H
	DW	01e9H
	DW	01eaH
	DW	01ebH
	DW	01ecH
	DW	01edH
	DW	01eeH
	DW	01efH
	DW	01f0H
	DW	01f1H
	DW	01f2H
	DW	01f3H
	DW	01f4H
	DW	01f5H
	DW	01f9H
	DW	01fdH
	DW	01feH
	DW	0200H
	DW	0202H
	DW	0203H
	DW	0204H
	DW	0205H
	DW	0206H
	DW	0207H
	DW	020cH
	DW	020eH
	DW	0213H
	DW	0215H
	DW	021aH
	DW	021cH
	DW	0221H
	DW	0223H
	DW	0228H
	DW	022aH
	DW	022fH
	DW	0231H
	DW	0233H
	DW	0235H
	DW	0237H
	DW	0239H
	DW	023bH
	DW	023dH
	DW	023fH
	DW	0241H
	DW	0244H
	DW	0247H
	DW	0249H
	DW	024dH
	DW	0251H
	DW	0254H
	DW	0255H
	DW	0256H
	DW	0257H
	DW	0258H
	DW	0259H
	DW	025aH
	DW	025bH
	DW	025cH
	DW	025dH
	DW	025eH
	DW	025fH
	DW	0260H
	DW	0261H
	DW	0262H
	DW	0263H
	DW	0264H
	DW	0265H
	DW	0266H
	DW	0267H
	DW	0268H
	DW	026aH
	DW	026bH
	DW	026dH
	DW	026eH
	DW	026fH
	DW	0270H
	DW	0271H
	DW	0272H
	DW	0273H
	DW	0274H
	DW	0275H
	DW	0276H
	DW	0277H
	DW	0278H
	DW	0279H
	DW	027aH
	DW	027bH
	DW	027cH
	DW	027dH
	DW	027eH
	DW	027fH
	DW	0280H
	DW	0281H
	DW	0282H
	DW	0283H
	DW	0284H
	DW	0285H
	DW	0286H
	DW	0287H
	DW	0288H
	DW	0289H
	DW	028aH
	DW	028bH
	DW	028cH
	DW	028dH
	DW	028eH
	DW	028fH
	DW	0290H
	DW	0291H
	DW	0292H
	DW	0293H
	DW	0294H
	DW	0296H
	DW	0297H
	DW	0298H
	DW	0299H
	DW	029aH
	DW	029bH
	DW	029cH
	DW	029dH
	DW	029eH
	DW	029fH
	DW	02a0H
	DW	02a1H
	DW	02a2H
	DW	02a3H
	DW	02a4H
	DW	02a5H
	DW	02a6H
	DW	02a7H
	DW	02a8H
	DW	02a9H
	DW	02aaH
	DW	02abH
	DW	02acH
	DW	02adH
	DW	02aeH
	DW	02afH
	DW	02b0H
	DW	02b1H
	DW	02b2H
	DW	02b3H
	DW	02b4H
	DW	02b5H
	DW	02b6H
	DW	02b7H
	DW	02b8H
	DW	02b9H
	DW	02baH
	DW	02bbH
	DW	02bcH
	DW	02bdH
	DW	02beH
	DW	02bfH
	DW	02c0H
	DW	02c1H
	DW	02c2H
	DW	02c3H
	DW	02c4H
	DW	02c5H
	DW	02c6H
	DW	02c7H
	DW	02c8H
	DW	02c9H
	DW	02caH
	DW	02cbH
	DW	02ccH
	DW	02cdH
	DW	02ceH
	DW	02cfH
	DW	02d0H
	DW	02d1H
	DW	02d2H
	DW	02d3H
	DW	02d4H
	DW	02d5H
	DW	02d6H
	DW	02d7H
	DW	02d8H
	DW	02d9H
	DW	02daH
	DW	02dbH
	DW	02dcH
	DW	02ddH
	DW	02deH
	DW	02dfH
	DW	02e0H
	DW	02e1H
	DW	02e2H
	DW	02e3H
	DW	02e4H
	DW	02e5H
	DW	02e6H
	DW	02e7H
	DW	02e8H
	DW	02e9H
	DW	02eaH
	DW	02ebH
	DW	02ecH
	DW	02edH
	DW	02eeH
	DW	02efH
	DW	02f0H
	DW	02f1H
	DW	02f2H
	DW	02f3H
	DW	02f4H
	DW	02f5H
	DW	02f6H
	DW	02f7H
	DW	02f8H
	DW	02f9H
	DW	02faH
	DW	02fbH
	DW	02fcH
	DW	02fdH
	DW	02feH
	DW	02ffH
	DW	0300H
	DW	0301H
	DW	0302H
	DW	0303H
	DW	0304H
	DW	0305H
	DW	0306H
	DW	0307H
	DW	0308H
	DW	0309H
	DW	030aH
	DW	030bH
	DW	030cH
	DW	030dH
	DW	030eH
	DW	030fH
	DW	0310H
	DW	0311H
	DW	0312H
	DW	0313H
	DW	0314H
	DW	0315H
	DW	0316H
	DW	0317H
	DW	0318H
	DW	0319H
	DW	031aH
	DW	031bH
	DW	031cH
	DW	031dH
	DW	031eH
	DW	031fH
	DW	0320H
	DW	0321H
	DW	0322H
	DW	0323H
	DW	0324H
	DW	0325H
	DW	0326H
	DW	0327H
	DW	0328H
	DW	0329H
	DW	032aH
	DW	032bH
	DW	032cH
	DW	032dH
	DW	032eH
	DW	032fH
	DW	0330H
	DW	0331H
	DW	0332H
	DW	0333H
	DW	0334H
	DW	0335H
	DW	0336H
	DW	0337H
	DW	0338H
	DW	0339H
	DW	033aH
	DW	033bH
	DW	033cH
	DW	033dH
	DW	033eH
	DW	033fH
	DW	0340H
	DW	0341H
	DW	0342H
	DW	0343H
	DW	0344H
	DW	0345H
	DW	0346H
	DW	0347H
	DW	0348H
	DW	0349H
	DW	034aH
	DW	034bH
	DW	034cH
	DW	034dH
	DW	034eH
	DW	034fH
	DW	0350H
	DW	0351H
	DW	0352H
	DW	0353H
	DW	0354H
	DW	0355H
	DW	0356H
	DW	0357H
	DW	0358H
	DW	0359H
	DW	035aH
	DW	035bH
	DW	035cH
	DW	035dH
	DW	035eH
	DW	035fH
	DW	0360H
	DW	0361H
	DW	0362H
	DW	0363H
	DW	0364H
	DW	0365H
	DW	0366H
	DW	0367H
	DW	0368H
	DW	036cH
	DW	0373H
	DW	0375H
	DW	0377H
	DW	0379H
	DW	037bH
	DW	037dH
	DW	037fH
	DW	0381H
	DW	0383H
	DW	0385H
	DW	0387H
	DW	0388H
	DW	0389H
	DW	038aH
	DW	038bH
	DW	038cH
	DW	038dH
	DW	038eH
	DW	038fH
	DW	0390H
	DW	0391H
	DW	0392H
	DW	0394H
	DW	0396H
	DW	0398H
	DW	039aH
	DW	039cH
	DW	039eH
	DW	03a0H
	DW	03a2H
	DW	03a4H
	DW	03a6H
	DW	03a8H
	DW	03aaH
	DW	03acH
	DW	03aeH
	DW	03b0H
	DW	03b2H
	DW	03b4H
	DW	03b6H
	DW	03b8H
	DW	03baH
	DW	03bcH
	DW	03beH
	DW	03c1H
	DW	03c3H
	DW	03c5H
	DW	03c7H
	DW	03c9H
	DW	03cbH
	DW	03cdH
	DW	03d0H
	DW	03d2H
	DW	03d4H
	DW	03d6H
	DW	03d9H
	DW	03dbH
	DW	03ddH
	DW	03deH
	DW	03dfH
	DW	03e0H
	DW	03e1H
	DW	03e5H
	DW	03e9H
	DW	03edH
	DW	03f1H
	DW	03f5H
	DW	03f9H
	DW	03fdH
	DW	0401H
	DW	0402H
	DW	0403H
	DW	0405H
	DW	0407H
	DW	0409H
	DW	040bH
	DW	040dH
	DW	040fH
	DW	0411H
	DW	0413H
	DW	0415H
	DW	0417H
	DW	0419H
	DW	041bH
	DW	041dH
	DW	041fH
	DW	0421H
	DW	0422H
	DW	0423H
	DW	0424H
	DW	0425H
	DW	0426H
	DW	0427H
	DW	0428H
	DW	0429H
	DW	042aH
	DW	042bH
	DW	042cH
	DW	042dH
	DW	042eH
	DW	042fH
	DW	0430H
	DW	0431H
	DW	0432H
	DW	0433H
	DW	0434H
	DW	0435H
	DW	0436H
	DW	0437H
	DW	0438H
	DW	0439H
	DW	043aH
	DW	043bH
	DW	043cH
	DW	043dH
	DW	043eH
	DW	043fH
	DW	0440H
	DW	0441H
	DW	0442H
	DW	0443H
	DW	0444H
	DW	0445H
	DW	0446H
	DW	0447H
	DW	0448H
	DW	0449H
	DW	044aH
	DW	044bH
	DW	044cH
	DW	044fH
	DW	0450H
	DW	0451H
	DW	0452H
	DW	0453H
	DW	0454H
	DW	0455H
	DW	0456H
	DW	0457H
	DW	0458H
	DW	0459H
	DW	045bH
	DW	045dH
	DW	045fH
	DW	0461H
	DW	0463H
	DW	0465H
	DW	0467H
	DW	0469H
	DW	046bH
	DW	046dH
	DW	046fH
	DW	0471H
	DW	0473H
	DW	0475H
	DW	0477H
	DW	0479H
	DW	047aH
	DW	047bH
	DW	047cH
	DW	047dH
	DW	047eH
	DW	047fH
	DW	0480H
	DW	0482H
	DW	0484H
	DW	0486H
	DW	0488H
	DW	048aH
	DW	048bH
	DW	048cH
	DW	048dH
	DW	048eH
	DW	048fH
	DW	0490H
	DW	0491H
	DW	0492H
	DW	0493H
	DW	0494H
	DW	0495H
	DW	0497H
	DW	0498H
	DW	0499H
	DW	049aH
	DW	049bH
	DW	049cH
	DW	049dH
	DW	049eH
	DW	049fH
	DW	04a0H
	DW	04a1H
	DW	04a2H
	DW	04a3H
	DW	04a4H
	DW	04a5H
	DW	04a6H
	DW	04a7H
	DW	04a8H
	DW	04a9H
	DW	04aaH
	DW	04abH
	DW	04adH
	DW	04afH
	DW	04b1H
	DW	04b3H
	DW	04b5H
	DW	04b7H
	DW	04b9H
	DW	04bbH
	DW	04bdH
	DW	04bfH
	DW	04c1H
	DW	04c3H
	DW	04c4H
	DW	04c5H
	DW	04c6H
	DW	04c7H
	DW	04c8H
	DW	04c9H
	DW	04caH
	DW	04ccH
	DW	04cdH
	DW	04ceH
	DW	04cfH
	DW	04d0H
	DW	04d1H
	DW	04d2H
	DW	04d3H
	DW	04d4H
	DW	04d5H
	DW	04d6H
	DW	04d7H
	DW	04d8H
	DW	04d9H
	DW	04daH
	DW	04dbH
	DW	04dcH
	DW	04ddH
	DW	04deH
	DW	04dfH
	DW	04e0H
	DW	04e1H
	DW	04e2H
	DW	04e3H
	DW	04e4H
	DW	04e5H
	DW	04e6H
	DW	04e7H
	DW	04e8H
	DW	04ebH
	DW	04edH
	DW	04eeH
	DW	04f0H
	DW	04f2H
	DW	04f4H
	DW	04f6H
	DW	04f9H
	DW	04fbH
	DW	04fdH
	DW	04feH
	DW	04ffH
	DW	0501H
	DW	0503H
	DW	0504H
	DW	0505H
	DW	0506H
	DW	0507H
	DW	0508H
	DW	0509H
	DW	050aH
	DW	050eH
	DW	0512H
	DW	0514H
	DW	0516H
	DW	0518H
	DW	051cH
	DW	0520H
	DW	0522H
	DW	0524H
	DW	0526H
	DW	0528H
	DW	0529H
	DW	052bH
	DW	052dH
	DW	052fH
	DW	0530H
	DW	0532H
	DW	0533H
	DW	0534H
	DW	0535H
	DW	0536H
	DW	0537H
	DW	0538H
	DW	0539H
	DW	053aH
	DW	053bH
	DW	053cH
	DW	053dH
	DW	053eH
	DW	053fH
	DW	0540H
	DW	0541H
	DW	0542H
	DW	0543H
	DW	0544H
	DW	0545H
	DW	0546H
	DW	0547H
	DW	0548H
	DW	0549H
	DW	054aH
	DW	054bH
	DW	054cH
	DW	054dH
	DW	054eH
	DW	054fH
	DW	0550H
	DW	0551H
	DW	0552H
	DW	0553H
	DW	0554H
	DW	0555H
	DW	0556H
	DW	0557H
	DW	0558H
	DW	0559H
	DW	055aH
	DW	055bH
	DW	055cH
	DW	055dH
	DW	055eH
	DW	055fH
	DW	0560H
	DW	0561H
	DW	0562H
	DW	0563H
	DW	0564H
	DW	0565H
	DW	0566H
	DW	0567H
	DW	0568H
	DW	0569H
	DW	056aH
	DW	056bH
	DW	056cH
	DW	056dH
	DW	056eH
	DW	056fH
	DW	0570H
	DW	0571H
	DW	0572H
	DW	0573H
	DW	0574H
	DW	0575H
	DW	0576H
	DW	0577H
	DW	0578H
	DW	0579H
	DW	057aH
	DW	057bH
	DW	057cH
	DW	057dH
	DW	057eH
	DW	057fH
	DW	0580H
	DW	0581H
	DW	0582H
	DW	0583H
	DW	0584H
	DW	0585H
	DW	0586H
	DW	0587H
	DW	0588H
	DW	0589H
	DW	058aH
	DW	058bH
	DW	058cH
	DW	058dH
	DW	058eH
	DW	058fH
	DW	0590H
	DW	0591H
	DW	0592H
	DW	0593H
	DW	0594H
	DW	0595H
	DW	0596H
	DW	0597H
	DW	0598H
	DW	0599H
	DW	059aH
	DW	059bH
	DW	059cH
	DW	059dH
	DW	059eH
	DW	059fH
	DW	05a0H
	DW	05a1H
	DW	05a2H
	DW	05a4H
	DW	05a5H
	DW	05a6H
	DW	05a7H
	DW	05a8H
	DW	05a9H
	DW	05aaH
	DW	05abH
	DW	05acH
	DW	05adH
	DW	05aeH
	DW	05afH
	DW	05b0H
	DW	05b1H
	DW	05b2H
	DW	05b3H
	DW	05b4H
	DW	05b5H
	DW	05b6H
	DW	05b7H
	DW	05b8H
	DW	05b9H
	DW	05baH
	DW	05bbH
	DW	05bcH
	DW	05bdH
	DW	05beH
	DW	05bfH
	DW	05c0H
	DW	05c1H
	DW	05c2H
	DW	05c3H
	DW	05c4H
	DW	05c5H
	DW	05c6H
	DW	05c7H
	DW	05c8H
	DW	05c9H
	DW	05caH
	DW	05cbH
	DW	05ccH
	DW	05cdH
	DW	05ceH
	DW	05cfH
	DW	05d0H
	DW	05d1H
	DW	05d2H
	DW	05d3H
	DW	05d4H
	DW	05d5H
	DW	05d6H
	DW	05d7H
	DW	05d8H
	DW	05d9H
	DW	05daH
	DW	05dbH
	DW	05dcH
	DW	05ddH
	DW	05deH
	DW	05dfH
	DW	05e0H
	DW	05e1H
	DW	05e2H
	DW	05e3H
	DW	05e4H
	DW	05e5H
	DW	05e6H
	DW	05e7H
	DW	05e8H
	DW	05e9H
	DW	05eaH
	DW	05ebH
	DW	05ecH
	DW	05edH
	DW	05eeH
	DW	05efH
	DW	05f0H
	DW	05f1H
	DW	05f2H
	DW	05f3H
	DW	05f4H
	DW	05f5H
	DW	05f6H
	DW	05f7H
	DW	05f8H
	DW	05f9H
	DW	05faH
	DW	05fbH
	DW	05fcH
	DW	05fdH
	DW	05feH
	DW	05ffH
	DW	0600H
	DW	0601H
	DW	0602H
	DW	0603H
	DW	0604H
	DW	0605H
	DW	0606H
	DW	0608H
	DW	0609H
	DW	060aH
	DW	060bH
	DW	060cH
	DW	060dH
	DW	060eH
	DW	060fH
	DW	0610H
	DW	0611H
	DW	0612H
	DW	0613H
	DW	0614H
	DW	0615H
	DW	0616H
	DW	0617H
	DW	0618H
	DW	0619H
	DW	061aH
	DW	061bH
	DW	061cH
	DW	061dH
	DW	061eH
	DW	061fH
	DW	0620H
	DW	0621H
	DW	0622H
	DW	0623H
	DW	0624H
	DW	0625H
	DW	0626H
	DW	0627H
	DW	0628H
	DW	0629H
	DW	062aH
	DW	062bH
	DW	062cH
	DW	062dH
	DW	062eH
	DW	062fH
	DW	0630H
	DW	0631H
	DW	0632H
	DW	0633H
	DW	0634H
	DW	0635H
	DW	0636H
	DW	0637H
	DW	0638H
	DW	0639H
	DW	063aH
	DW	063bH
	DW	063cH
	DW	063dH
	DW	063eH
	DW	063fH
	DW	0640H
	DW	0641H
	DW	0643H
	DW	0645H
	DW	0647H
	DW	0649H
	DW	064aH
	DW	064bH
	DW	064cH
	DW	064dH
	DW	064eH
	DW	064fH
	DW	0650H
	DW	0651H
	DW	0652H
	DW	0653H
	DW	0654H
	DW	0655H
	DW	0656H
	DW	0657H
	DW	0658H
	DW	0659H
	DW	065bH
	DW	065dH
	DW	065eH
	DW	065fH
	DW	0660H
	DW	0661H
	DW	0662H
	DW	0663H
	DW	0664H
	DW	0665H
	DW	0666H
	DW	0667H
	DW	0668H
	DW	0669H
	DW	066aH
	DW	066bH
	DW	066cH
	DW	066dH
	DW	066fH
	DW	0671H
	DW	0673H
	DW	0675H
	DW	0677H
	DW	0679H
	DW	067aH
	DW	067bH
	DW	067cH
	DW	067dH
	DW	067eH
	DW	067fH
	DW	0680H
	DW	0681H
	DW	0682H
	DW	0683H
	DW	0684H
	DW	0685H
	DW	0686H
	DW	0687H
	DW	0688H
	DW	0689H
	DW	068aH
	DW	068bH
	DW	068cH
	DW	068dH
	DW	068eH
	DW	068fH
	DW	0690H
	DW	0691H
	DW	0692H
	DW	0694H
	DW	0696H
	DW	0697H
	DW	0698H
	DW	0699H
	DW	069aH
	DW	069bH
	DW	069cH
	DW	069dH
	DW	069eH
	DW	069fH
	DW	06a0H
	DW	06a1H
	DW	06a2H
	DW	06a3H
	DW	06a4H
	DW	06a5H
	DW	06a6H
	DW	06a7H
	DW	06a8H
	DW	06a9H
	DW	06aaH
	DW	06abH
	DW	06acH
	DW	06adH
	DW	06aeH
	DW	06afH
	DW	06b0H
	DW	06b1H
	DW	06b2H
	DW	06b3H
	DW	06b4H
	DW	06b5H
	DW	06b6H
	DW	06b7H
	DW	06b8H
	DW	06b9H
	DW	06baH
	DW	06bbH
	DW	06bcH
	DW	06bdH
	DW	06beH
	DW	06bfH
	DW	06c0H
	DW	06c1H
	DW	06c2H
	DW	06c3H
	DW	06c4H
	DW	06c5H
	DW	06c6H
	DW	06c7H
	DW	06c8H
	DW	06c9H
	DW	06caH
	DW	06cbH
	DW	06ccH
	DW	06cdH
	DW	06ceH
	DW	06d3H
	DW	06d8H
	DW	06ddH
	DW	02a7H
	DW	02a9H
	DW	02abH
	DW	02adH
	DW	02afH
	DW	02b1H
	DW	02b3H
	DW	02b5H
	DW	02b7H
	DW	02b9H
	DW	02bbH
	DW	02bdH
	DW	02bfH
	DW	02c1H
	DW	02a8H
	DW	02aaH
	DW	02acH
	DW	02aeH
	DW	02b0H
	DW	02b2H
	DW	02b4H
	DW	02b6H
	DW	02b8H
	DW	02baH
	DW	02bcH
	DW	02beH
	DW	02c0H
	DW	02c2H
	DW	02c3H
	DW	0b6H
	DW	02c4H
	DW	02c5H
	DW	02c6H
	DW	02c7H
	DW	02c8H
	DW	02c9H
	DW	02caH
	DW	02cbH
	DW	02ccH
	DW	02cdH
	DW	02ceH
	DW	02cfH
	DW	02d0H
	DW	02d1H
	DW	02d2H
	DW	02d3H
	DW	02d4H
	DW	02d5H
	DW	02d6H
	DW	02d7H
	DW	02d8H
	DW	02d9H
	DW	02daH
	DW	02dbH
	DW	02dcH
	DW	02ddH
	DW	02deH
	DW	02dfH
	DW	02e0H
	DW	02e1H
	DW	02e2H
	DW	02e3H
	DW	02e4H
	DW	02e5H
	DW	02e6H
	DW	02e7H
	DW	02e8H
	DW	02e9H
	DW	02eaH
	DW	02ebH
	DW	02ecH
	DW	02edH
	DW	02eeH
	DW	02efH
	DW	02f0H
	DW	02f1H
	DW	02f2H
	DW	02f3H
	DW	02f4H
	DW	02f5H
	DW	02f6H
	DW	02f7H
	DW	02f8H
	DW	02f9H
	DW	02faH
	DW	02fbH
	DW	02fcH
	DW	02fdH
	DW	02feH
	DW	02ffH
	DW	0300H
	DW	0301H
	DW	0302H
	DW	0303H
	DW	0304H
	DW	0305H
	DW	0306H
	DW	0307H
	DW	0308H
	DW	0309H
	DW	030aH
	DW	030bH
	DW	030cH
	DW	030dH
	DW	030eH
	DW	030fH
	DW	0310H
	DW	0311H
	DW	0312H
	DW	0313H
	DW	0314H
	DW	0315H
	DW	0316H
	DW	0317H
	DW	0318H
	DW	0319H
	DW	031aH
	DW	031bH
	DW	031cH
	DW	031dH
	DW	031eH
	DW	031fH
	DW	0320H
	DW	0321H
	DW	0322H
	DW	0323H
	DW	0324H
	DW	0325H
	DW	0326H
	DW	0327H
	DW	0328H
	DW	0329H
	DW	032aH
	DW	032bH
	DW	032cH
	DW	032dH
	DW	032eH
	DW	032fH
	DW	0330H
	DW	0331H
	DW	0332H
	DW	0333H
	DW	0334H
	DW	0335H
	DW	0336H
	DW	0337H
	DW	0338H
	DW	0339H
	DW	033aH
	DW	033bH
	DW	033cH
	DW	033dH
	DW	033eH
	DW	033fH
	DW	0340H
	DW	0341H
	DW	0342H
	DW	0343H
	DW	0344H
	DW	0345H
	DW	0348H
	DW	0346H
	DW	034aH
	DW	034cH
	DW	034eH
	DW	0349H
	DW	0347H
	DW	034bH
	DW	034dH
	DW	034fH
	DW	0360H
	DW	035cH
	DW	035dH
	DW	035eH
	DW	0363H
	DW	0352H
	DW	035aH
	DW	0364H
	DW	0357H
	DW	0365H
	DW	0353H
	DW	035bH
	DW	044aH
	DW	044bH
	DW	048fH
	DW	0490H
	DW	0493H
	DW	0494H
	DW	0495H
	DW	044fH
	DW	0450H
	DW	0451H
	DW	0452H
	DW	0497H
	DW	0453H
	DW	029dH
	DW	029eH
	DW	0366H
	DW	0373H
	DW	0375H
	DW	0368H
	DW	036cH
	DW	0377H
	DW	0379H
	DW	0387H
	DW	0388H
	DW	037fH
	DW	0381H
	DW	0383H
	DW	0385H
	DW	0ccH
	DW	0392H
	DW	038bH
	DW	038cH
	DW	038dH
	DW	0498H
	DW	038fH
	DW	0390H
	DW	0456H
	DW	0457H
	DW	037bH
	DW	037dH
	DW	0499H
	DW	0459H
	DW	045dH
	DW	045bH
	DW	0396H
	DW	0394H
	DW	0398H
	DW	049aH
	DW	039aH
	DW	039cH
	DW	039eH
	DW	03a0H
	DW	03a2H
	DW	03a4H
	DW	03a6H
	DW	03a8H
	DW	045fH
	DW	03aaH
	DW	03acH
	DW	03aeH
	DW	03b0H
	DW	049cH
	DW	04cdH
	DW	04ccH
	DW	04cfH
	DW	04ceH
	DW	03bcH
	DW	04d0H
	DW	049eH
	DW	03beH
	DW	049fH
	DW	04a1H
	DW	03c1H
	DW	04a2H
	DW	048aH
	DW	048bH
	DW	0465H
	DW	0461H
	DW	0463H
	DW	04a0H
	DW	046bH
	DW	0467H
	DW	0469H
	DW	03c3H
	DW	046dH
	DW	04a3H
	DW	03c5H
	DW	04a4H
	DW	03c7H
	DW	04a5H
	DW	04a6H
	DW	04a7H
	DW	03c9H
	DW	04a8H
	DW	03cbH
	DW	04a9H
	DW	04aaH
	DW	03cdH
	DW	04abH
	DW	04adH
	DW	04afH
	DW	04b1H
	DW	04b3H
	DW	04b5H
	DW	04b7H
	DW	04b9H
	DW	04bbH
	DW	04bdH
	DW	04bfH
	DW	04c1H
	DW	03d0H
	DW	046fH
	DW	03d2H
	DW	03d4H
	DW	04c4H
	DW	03d6H
	DW	04c3H
	DW	03d9H
	DW	03dbH
	DW	0471H
	DW	03ddH
	DW	03dfH
	DW	03e0H
	DW	0473H
	DW	0477H
	DW	0475H
	DW	0401H
	DW	0402H
	DW	03e1H
	DW	03e5H
	DW	03e9H
	DW	03edH
	DW	03f1H
	DW	03f5H
	DW	03f9H
	DW	03fdH
	DW	04c5H
	DW	0403H
	DW	0405H
	DW	0407H
	DW	0409H
	DW	040bH
	DW	040dH
	DW	040fH
	DW	0411H
	DW	0415H
	DW	0417H
	DW	0419H
	DW	0421H
	DW	041bH
	DW	041dH
	DW	041fH
	DW	0422H
	DW	0413H
	DW	0423H
	DW	0424H
	DW	0425H
	DW	0426H
	DW	04c7H
	DW	04c6H
	DW	04c9H
	DW	04c8H
	DW	0427H
	DW	0428H
	DW	0429H
	DW	042aH
	DW	042bH
	DW	042cH
	DW	042dH
	DW	042eH
_DATA	ENDS
CONST	SEGMENT
opnd_clstab DD	00H
	DD	00H
	DB	00H
	ORG $+3
	DD	0202H
	DD	00H
	DB	00H
	ORG $+3
	DD	0e0000H
	DD	00H
	DB	00H
	ORG $+3
	DD	040000H
	DD	00H
	DB	00H
	ORG $+3
	DD	080000H
	DD	00H
	DB	00H
	ORG $+3
	DD	0200000H
	DD	00H
	DB	00H
	ORG $+3
	DD	020000H
	DD	00H
	DB	00H
	ORG $+3
	DD	04e0000H
	DD	00H
	DB	00H
	ORG $+3
	DD	0420001H
	DD	00H
	DB	00H
	ORG $+3
	DD	0800000H
	DD	00H
	DB	00H
	ORG $+3
	DD	01000000H
	DD	00H
	DB	00H
	ORG $+3
	DD	03000000H
	DD	00H
	DB	00H
	ORG $+3
	DD	05000000H
	DD	00H
	DB	00H
	ORG $+3
	DD	02000000H
	DD	00H
	DB	00H
	ORG $+3
	DD	040000000H
	DD	00H
	DB	00H
	ORG $+3
	DD	04000000H
	DD	00H
	DB	00H
	ORG $+3
	DD	080000000H
	DD	00H
	DB	00H
	ORG $+3
	DD	08000000H
	DD	00H
	DB	00H
	ORG $+3
	DD	07000000H
	DD	00H
	DB	00H
	ORG $+3
	DD	07800000H
	DD	00H
	DB	00H
	ORG $+3
	DD	0ff800000H
	DD	00H
	DB	00H
	ORG $+3
	DD	0fH
	DD	00H
	DB	00H
	ORG $+3
	DD	01000002H
	DD	00H
	DB	00H
	ORG $+3
	DD	06H
	DD	00H
	DB	00H
	ORG $+3
	DD	04H
	DD	00H
	DB	00H
	ORG $+3
	DD	08H
	DD	00H
	DB	00H
	ORG $+3
	DD	04000008H
	DD	00H
	DB	00H
	ORG $+3
	DD	0aH
	DD	00H
	DB	00H
	ORG $+3
	DD	0800001H
	DD	00H
	DB	00H
	ORG $+3
	DD	0cH
	DD	00H
	DB	00H
	ORG $+3
	DD	0eH
	DD	00H
	DB	00H
	ORG $+3
	DD	06000H
	DD	00H
	DB	00H
	ORG $+3
	DD	02000H
	DD	00H
	DB	00H
	ORG $+3
	DD	04000H
	DD	00H
	DB	00H
	ORG $+3
	DD	018000H
	DD	00H
	DB	00H
	ORG $+3
	DD	0200H
	DD	0800H
	DB	00H
	ORG $+3
	DD	0200H
	DD	0e0000H
	DB	00H
	ORG $+3
	DD	0200H
	DD	04e0000H
	DB	00H
	ORG $+3
	DD	0200H
	DD	07800000H
	DB	00H
	ORG $+3
	DD	0200H
	DD	0eH
	DB	00H
	ORG $+3
	DD	0800H
	DD	0200H
	DB	00H
	ORG $+3
	DD	0800H
	DD	0800000H
	DB	00H
	ORG $+3
	DD	0800H
	DD	01000000H
	DB	00H
	ORG $+3
	DD	0800H
	DD	02000000H
	DB	00H
	ORG $+3
	DD	0800H
	DD	07800000H
	DB	00H
	ORG $+3
	DD	040000H
	DD	04e0000H
	DB	00H
	ORG $+3
	DD	04e0000H
	DD	0200H
	DB	00H
	ORG $+3
	DD	0800000H
	DD	0800H
	DB	00H
	ORG $+3
	DD	0800000H
	DD	0800000H
	DB	00H
	ORG $+3
	DD	01000000H
	DD	0800H
	DB	00H
	ORG $+3
	DD	01000000H
	DD	01000000H
	DB	00H
	ORG $+3
	DD	02000000H
	DD	0800H
	DB	00H
	ORG $+3
	DD	02000000H
	DD	02000000H
	DB	00H
	ORG $+3
	DD	02000000H
	DD	020H
	DB	00H
	ORG $+3
	DD	04000000H
	DD	04000000H
	DB	00H
	ORG $+3
	DD	04000000H
	DD	010H
	DB	00H
	ORG $+3
	DD	04000000H
	DD	020H
	DB	00H
	ORG $+3
	DD	08000000H
	DD	020H
	DB	00H
	ORG $+3
	DD	010000000H
	DD	080H
	DB	00H
	ORG $+3
	DD	06000000H
	DD	0cH
	DB	00H
	ORG $+3
	DD	07000000H
	DD	020000H
	DB	00H
	ORG $+3
	DD	07000000H
	DD	04e0000H
	DB	00H
	ORG $+3
	DD	07000000H
	DD	0eH
	DB	00H
	ORG $+3
	DD	010H
	DD	04e0000H
	DB	00H
	ORG $+3
	DD	010H
	DD	010H
	DB	00H
	ORG $+3
	DD	010H
	DD	04000010H
	DB	00H
	ORG $+3
	DD	010H
	DD	04800010H
	DB	00H
	ORG $+3
	DD	010H
	DD	05000010H
	DB	00H
	ORG $+3
	DD	010H
	DD	06000010H
	DB	00H
	ORG $+3
	DD	010H
	DD	0600000cH
	DB	00H
	ORG $+3
	DD	010H
	DD	020H
	DB	00H
	ORG $+3
	DD	010H
	DD	04000020H
	DB	00H
	ORG $+3
	DD	010H
	DD	08000020H
	DB	00H
	ORG $+3
	DD	07800000H
	DD	0200H
	DB	00H
	ORG $+3
	DD	07800000H
	DD	0800H
	DB	00H
	ORG $+3
	DD	07800000H
	DD	0e0000H
	DB	00H
	ORG $+3
	DD	07800000H
	DD	07800000H
	DB	00H
	ORG $+3
	DD	07800000H
	DD	0fH
	DB	00H
	ORG $+3
	DD	07800000H
	DD	06000H
	DB	00H
	ORG $+3
	DD	0fH
	DD	0e0000H
	DB	00H
	ORG $+3
	DD	0fH
	DD	07800000H
	DB	00H
	ORG $+3
	DD	0fH
	DD	0fH
	DB	00H
	ORG $+3
	DD	0fH
	DD	0780000fH
	DB	00H
	ORG $+3
	DD	01000002H
	DD	02H
	DB	00H
	ORG $+3
	DD	06H
	DD	0e0000H
	DB	00H
	ORG $+3
	DD	08H
	DD	0e0000H
	DB	00H
	ORG $+3
	DD	08H
	DD	0100000H
	DB	00H
	ORG $+3
	DD	08H
	DD	02000004H
	DB	00H
	ORG $+3
	DD	01H
	DD	0e0000H
	DB	00H
	ORG $+3
	DD	0cH
	DD	010H
	DB	00H
	ORG $+3
	DD	0cH
	DD	0800001H
	DB	00H
	ORG $+3
	DD	0cH
	DD	0780000eH
	DB	00H
	ORG $+3
	DD	0cH
	DD	01000H
	DB	00H
	ORG $+3
	DD	0cH
	DD	020H
	DB	00H
	ORG $+3
	DD	0cH
	DD	080H
	DB	00H
	ORG $+3
	DD	0cH
	DD	02000020H
	DB	00H
	ORG $+3
	DD	0cH
	DD	04000020H
	DB	00H
	ORG $+3
	DD	04H
	DD	02000004H
	DB	00H
	ORG $+3
	DD	02000004H
	DD	04H
	DB	00H
	ORG $+3
	DD	0cH
	DD	08000000H
	DB	00H
	ORG $+3
	DD	08H
	DD	04000008H
	DB	00H
	ORG $+3
	DD	04000008H
	DD	08H
	DB	00H
	ORG $+3
	DD	0eH
	DD	0200H
	DB	00H
	ORG $+3
	DD	0eH
	DD	0e0000H
	DB	00H
	ORG $+3
	DD	0eH
	DD	020000H
	DB	00H
	ORG $+3
	DD	0eH
	DD	04e0000H
	DB	00H
	ORG $+3
	DD	0eH
	DD	0c2000000H
	DB	00H
	ORG $+3
	DD	0eH
	DD	07800000H
	DB	00H
	ORG $+3
	DD	0eH
	DD	0eH
	DB	00H
	ORG $+3
	DD	0eH
	DD	0780000eH
	DB	00H
	ORG $+3
	DD	0eH
	DD	0780000fH
	DB	00H
	ORG $+3
	DD	0eH
	DD	06000H
	DB	00H
	ORG $+3
	DD	0600000cH
	DD	010H
	DB	00H
	ORG $+3
	DD	0600000cH
	DD	020H
	DB	00H
	ORG $+3
	DD	01000H
	DD	0cH
	DB	00H
	ORG $+3
	DD	0780000fH
	DD	0400H
	DB	00H
	ORG $+3
	DD	0780000fH
	DD	0e0000H
	DB	00H
	ORG $+3
	DD	0780000fH
	DD	04e0000H
	DB	00H
	ORG $+3
	DD	0780000fH
	DD	0420000H
	DB	00H
	ORG $+3
	DD	06000H
	DD	07800000H
	DB	00H
	ORG $+3
	DD	06000H
	DD	0eH
	DB	00H
	ORG $+3
	DD	08000H
	DD	018000H
	DB	00H
	ORG $+3
	DD	018000H
	DD	08000H
	DB	00H
	ORG $+3
	DD	020H
	DD	04e0000H
	DB	00H
	ORG $+3
	DD	020H
	DD	04000000H
	DB	00H
	ORG $+3
	DD	020H
	DD	08000000H
	DB	00H
	ORG $+3
	DD	020H
	DD	010H
	DB	00H
	ORG $+3
	DD	020H
	DD	04000010H
	DB	00H
	ORG $+3
	DD	020H
	DD	0600000cH
	DB	00H
	ORG $+3
	DD	020H
	DD	020H
	DB	00H
	ORG $+3
	DD	020H
	DD	01000020H
	DB	00H
	ORG $+3
	DD	020H
	DD	02000020H
	DB	00H
	ORG $+3
	DD	020H
	DD	04000020H
	DB	00H
	ORG $+3
	DD	020H
	DD	08000020H
	DB	00H
	ORG $+3
	DD	020H
	DD	08800020H
	DB	00H
	ORG $+3
	DD	020H
	DD	09000020H
	DB	00H
	ORG $+3
	DD	020H
	DD	0a000020H
	DB	00H
	ORG $+3
	DD	020H
	DD	0c000020H
	DB	00H
	ORG $+3
	DD	020H
	DD	010000080H
	DB	00H
	ORG $+3
	DD	080H
	DD	02000020H
	DB	00H
	ORG $+3
	DD	080H
	DD	08000000H
	DB	00H
	ORG $+3
	DD	080H
	DD	08000020H
	DB	00H
	ORG $+3
	DD	080H
	DD	04000020H
	DB	00H
	ORG $+3
	DD	08000020H
	DD	04e0000H
	DB	00H
	ORG $+3
	DD	080H
	DD	010000080H
	DB	00H
	ORG $+3
	DD	01000000H
	DD	020H
	DB	02H
	ORG $+3
	DD	02000000H
	DD	020H
	DB	02H
	ORG $+3
	DD	010H
	DD	04000010H
	DB	02H
	ORG $+3
	DD	010H
	DD	01000004H
	DB	02H
	ORG $+3
	DD	02000004H
	DD	020H
	DB	02H
	ORG $+3
	DD	04000008H
	DD	020H
	DB	02H
	ORG $+3
	DD	0cH
	DD	010H
	DB	02H
	ORG $+3
	DD	0cH
	DD	020H
	DB	02H
	ORG $+3
	DD	080000cH
	DD	020H
	DB	02H
	ORG $+3
	DD	0eH
	DD	0780000fH
	DB	04H
	ORG $+3
	DD	0eH
	DD	0780000fH
	DB	02H
	ORG $+3
	DD	0700000eH
	DD	0eH
	DB	01H
	ORG $+3
	DD	0700000eH
	DD	0eH
	DB	02H
	ORG $+3
	DD	020H
	DD	04e0000H
	DB	02H
	ORG $+3
	DD	020H
	DD	01000004H
	DB	02H
	ORG $+3
	DD	020H
	DD	0800004H
	DB	02H
	ORG $+3
	DD	020H
	DD	02000004H
	DB	02H
	ORG $+3
	DD	020H
	DD	04000008H
	DB	02H
	ORG $+3
	DD	020H
	DD	020H
	DB	02H
	ORG $+3
	DD	020H
	DD	02000020H
	DB	05H
	ORG $+3
	DD	020H
	DD	04000020H
	DB	05H
	ORG $+3
	DD	020H
	DD	08000020H
	DB	05H
	ORG $+3
	DD	020H
	DD	02000020H
	DB	02H
	ORG $+3
	DD	020H
	DD	04000020H
	DB	02H
	ORG $+3
	DD	020H
	DD	08000020H
	DB	02H
	ORG $+3
	DD	020H
	DD	08000020H
	DB	03H
	ORG $+3
	DD	08000000H
	DD	080H
	DB	02H
	ORG $+3
	DD	020H
	DD	08000020H
	DB	03H
	ORG $+3
	DD	020H
	DD	080H
	DB	02H
	ORG $+3
	DD	080H
	DD	010000080H
	DB	02H
	ORG $+3
	DD	08000020H
	DD	020H
	DB	00H
	ORG $+3
	DD	020H
	DD	0a000020H
	DB	00H
	ORG $+3
	DD	020H
	DD	0c000020H
	DB	00H
	ORG $+3
	DD	020H
	DD	020H
	DB	00H
	ORG $+3
	DD	020H
	DD	02000004H
	DB	00H
	ORG $+3
	DD	02000004H
	DD	020H
	DB	00H
	ORG $+3
	DD	04000008H
	DD	020H
	DB	00H
	ORG $+3
	DD	0ff800020H
	DD	020H
	DB	00H
	ORG $+3
	DD	08H
	DD	04000020H
	DB	00H
	ORG $+3
	DD	04H
	DD	04000020H
	DB	00H
	ORG $+3
	DD	040H
	DD	040H
	DB	03H
	ORG $+3
	DD	040H
	DD	040H
	DB	00H
	ORG $+3
	DD	040H
	DD	040H
	DB	02H
	ORG $+3
	DD	0800000H
	DD	040H
	DB	00H
	ORG $+3
	DD	01000000H
	DD	040H
	DB	00H
	ORG $+3
	DD	02000000H
	DD	040H
	DB	00H
	ORG $+3
	DD	04000000H
	DD	040H
	DB	00H
	ORG $+3
	DD	04H
	DD	040H
	DB	00H
	ORG $+3
	DD	08H
	DD	040H
	DB	00H
	ORG $+3
	DD	040H
	DD	0800000H
	DB	00H
	ORG $+3
	DD	040H
	DD	01000000H
	DB	00H
	ORG $+3
	DD	040H
	DD	02000000H
	DB	00H
	ORG $+3
	DD	040H
	DD	04000000H
	DB	00H
	ORG $+3
	DD	040H
	DD	04H
	DB	00H
	ORG $+3
	DD	040H
	DD	08H
	DB	00H
	ORG $+3
	DD	0100H
	DD	02000020H
	DB	00H
	ORG $+3
	DD	0100H
	DD	04000020H
	DB	00H
	ORG $+3
	DD	020H
	DD	01H
	DB	00H
	ORG $+3
	DD	020H
	DD	0800020H
	DB	00H
	ORG $+3
	DD	020H
	DD	02H
	DB	00H
	ORG $+3
	DD	020H
	DD	04H
	DB	00H
	ORG $+3
	DD	020H
	DD	08H
	DB	00H
	ORG $+3
	DD	0100H
	DD	08000000H
	DB	00H
	ORG $+3
	DD	0100H
	DD	010000000H
	DB	00H
	ORG $+3
	DD	080H
	DD	0100H
	DB	02H
	ORG $+3
	DD	010000000H
	DD	0100H
	DB	02H
	ORG $+3
	DD	02000020H
	DD	020H
	DB	00H
	ORG $+3
	DD	04H
	DD	02000020H
	DB	00H
	ORG $+3
	DD	08H
	DD	02000020H
	DB	00H
	ORG $+3
	DD	020H
	DD	04000008H
	DB	00H
	ORG $+3
	DD	08000020H
	DD	080H
	DB	02H
	ORG $+3
	DD	020H
	DD	0100H
	DB	02H
	ORG $+3
	DD	08000000H
	DD	0100H
	DB	02H
	ORG $+3
	DD	0fH
	DD	0780000fH
	DB	02H
	ORG $+3
	DD	0fH
	DD	0fH
	DB	03H
	ORG $+3
	DD	0fH
	DD	0780000fH
	DB	03H
	ORG $+3
	ORG $+4
resw_strings DB	'alcldlblahchdhbhaxcxdxbxspbpsidieaxecxedxebxespebpesiedi'
	DB	'escsssdsfsgsstmm0mm1mm2mm3mm4mm5mm6mm7xmm0xmm1xmm2xmm3xmm4xmm'
	DB	'5xmm6xmm7k0k1k2k3k4k5k6k7ymm0ymm1ymm2ymm3ymm4ymm5ymm6ymm7zmm0'
	DB	'zmm1zmm2zmm3zmm4zmm5zmm6zmm7cr0cr2cr3cr4dr0dr1dr2dr3dr6dr7tr3'
	DB	'tr4tr5tr6tr7splbplsildilr8br9br10br11br12br13br14br15br8wr9wr'
	DB	'10wr11wr12wr13wr14wr15wr8dr9dr10dr11dr12dr13dr14dr15draxrcxrd'
	DB	'xrbxrsprbprsirdir8r9r10r11r12r13r14r15ripxmm8xmm9xmm10xmm11xm'
	DB	'm12xmm13xmm14xmm15xmm16xmm17xmm18xmm19xmm20xmm21xmm22xmm23xmm'
	DB	'24xmm25xmm26xmm27xmm28xmm29xmm30xmm31ymm8ymm9ymm10ymm11ymm12y'
	DB	'mm13ymm14ymm15ymm16ymm17ymm18ymm19ymm20ymm21ymm22ymm23ymm24ym'
	DB	'm25ymm26ymm27ymm28ymm29ymm30ymm31zmm8zmm9zmm10zmm11zmm12zmm13'
	DB	'zmm14zmm15zmm16zmm17zmm18zmm19zmm20zmm21zmm22zmm23zmm24zmm25z'
	DB	'mm26zmm27zmm28zmm29zmm30zmm31cr8bytesbytewordsworddwordsdword'
	DB	'real4fwordqwordsqwordreal8tbytereal10owordymmwordzmmwordnearf'
	DB	'arnear16near32far16far32mmwordxmmword.typehighhigh32highwordi'
	DB	'magerellengthlengthoflowlow32lowwordlroffsetmaskoffsetopattrs'
	DB	'ectionrelsegshortsizesizeofthistypewidtheqnegegtleltmodptrdup'
	DB	'addrflatvarargframecsyscallstdcallpascalfortranbasicfastcall.'
	DB	'8086.186.286.286c.286p.386.386c.386p.486.486p.586.586p.686.68'
	DB	'6p.k3d.mmx.xmm.x64.x64p.8087.287.387.no87.cref.lfcond.list.li'
	DB	'stall.listif.nocref.nolist.nolistif.sfcond.tfcond.xcref.xlist'
	DB	'pagesubtitlesubttltitle.listmacro.listmacroall.nolistmacro.xa'
	DB	'll.lall.sall.alpha.dosseg.seqdosseg.code.stack.data.data?.far'
	DB	'data.fardata?.const.if.repeat.while.for.break.continue.else.e'
	DB	'lseif.endif.endw.until.untilcxz.endfor.exit.startup.model.rad'
	DB	'ix.safeseh.err.err1.err2.erre.errnz.errdif.errdifi.erridn.err'
	DB	'idni.errb.errnb.errdef.errndefcommentififeif1if2ifdififdifiif'
	DB	'idnifidniifbifnbifdefifndefelseelseifelseifeelseif1elseif2els'
	DB	'eifdifelseifdifielseifidnelseifidnielseifbelseifnbelseifdefel'
	DB	'seifndefendifforforcirpirpcrepeatreptwhilemacroexitmendmgotop'
	DB	'urgeincludetextequcatstrsubstrinstrsizestrdbdwdddfdqdt.allocs'
	DB	'tack.endprolog.pushframe.pushreg.savereg.savexmm128.saveymm25'
	DB	'6.setframestrucstructuniontypedefrecordcommexternextrnexternd'
	DB	'efpublicprotoprocendplocallabelinvokeorgalignevensegmentendsg'
	DB	'roupassumealiasechoendequincbinincludelibnameoptionpopcontext'
	DB	'pushcontextcalljmpjajaejbjbejcjejgjgejljlejnajnaejnbjnbejncjn'
	DB	'ejngjngejnljnlejnojnpjnsjnzjojpjpejpojsjzjcxzjecxzjrcxzlooplo'
	DB	'opeloopzloopneloopnzloopdloopedloopzdloopnedloopnzdloopwloope'
	DB	'wloopzwloopnewloopnzwaddoradcsbbandsubxorcmprclrcrrolrorsalsa'
	DB	'rshlshrcmpscmpsbcmpswcmpsdinsinsbinswinsdlodslodsblodswlodsdm'
	DB	'ovsmovsbmovswmovsdoutsoutsboutswoutsdscasscasbscaswscasdstoss'
	DB	'tosbstoswstosdaaaaadaamaasdaadasldslespopapopadpopawpopfdpush'
	DB	'apushadpushawpushfdpushdretdretwarpllldtlmswltrsldtsmswstrver'
	DB	'rverwdividivmulnegnotlockrepreperepnerepnzrepzbtbtcbtrbtscmcc'
	DB	'lcstcclisticldstdincdecpushpoppushwpushfpopfmovboundbsfbsrbsw'
	DB	'apcbwcdqcwdcwdecltscmpxchgcmpxchg8bcpuidenterhltimulinintinto'
	DB	'invdinvlpgiretiretdiretfiretdflahflarlsllealeavelfslgslsslgdt'
	DB	'lidtmovsxmovzxnopoutrdmsrrdpmcrdtscrdtscpretretnretfrsmsahfsg'
	DB	'dtsidtshldshrdsysentersysexittestud2waitwbinvdwrmsrxaddxchgxl'
	DB	'atxlatbsetasetaesetbsetbesetcsetesetgsetgesetlsetlesetnasetna'
	DB	'esetnbsetnbesetncsetnesetngsetngesetnlsetnlesetnosetnpsetnsse'
	DB	'tnzsetosetpsetpesetposetssetzcmovacmovaecmovbcmovbecmovccmove'
	DB	'cmovgcmovgecmovlcmovlecmovnacmovnaecmovnbcmovnbecmovnccmovnec'
	DB	'movngcmovngecmovnlcmovnlecmovnocmovnpcmovnscmovnzcmovocmovpcm'
	DB	'ovpecmovpocmovscmovzfcmovbfcmovbefcmovefcmovnbfcmovnbefcmovne'
	DB	'fcmovnufcmovufcomfcompfcomppfucomfucompfucomppfcomifcomipfuco'
	DB	'mifucomipfaddfaddpfmulfmulpfdivfdivpfdivrfdivrpfsubfsubpfsubr'
	DB	'fsubrpfiaddficomficompfidivfidivrfimulfisubfisubrfildfistpfis'
	DB	'tfldfstpfstfldenvfldenvdfldenvwfnsavefnsavedfnsavewfnstenvfns'
	DB	'tenvdfnstenvwfrstorfrstordfrstorwfsavefsavedfsavewfstenvfsten'
	DB	'vdfstenvwfldcwfnstcwfnstswfstcwfstswfcosfpatanfptanfsinfsinco'
	DB	'sfinitfninitfdisifndisifenifnenifclexfnclexf2xm1fabsfbldfbstp'
	DB	'fchsfld1fldl2efldl2tfldlg2fldln2fldpifldzfdecstpfincstpffreef'
	DB	'freepfnopfpremfprem1frndintfscalefsetpmfsqrtftstfwaitfxamfxch'
	DB	'fxrstorfxsavefxtractfyl2xfyl2xp1emmsclflushldmxcsrstmxcsrlfen'
	DB	'cemfencesfenceprefetchntaprefetcht0prefetcht1prefetcht2pausea'
	DB	'ddpdaddpsaddsdaddssdivpddivpsdivsddivssmaxpdmaxpsmaxsdmaxssmi'
	DB	'npdminpsminsdminssmulpdmulpsmulsdmulsssqrtpdsqrtpssqrtsdsqrts'
	DB	'ssubpdsubpssubsdsubsscmppdcmppscmpsscmpeqpdcmpltpdcmplepdcmpu'
	DB	'nordpdcmpneqpdcmpnltpdcmpnlepdcmpordpdcmpeq_uqpdcmpngepdcmpng'
	DB	'tpdcmpfalsepdcmpneq_oqpdcmpgepdcmpgtpdcmptruepdcmpeq_ospdcmpl'
	DB	't_oqpdcmple_oqpdcmpunord_spdcmpneq_uspdcmpnlt_uqpdcmpnle_uqpd'
	DB	'cmpord_spdcmpeq_uspdcmpnge_uqpdcmpngt_uqpdcmpfalse_ospdcmpneq'
	DB	'_ospdcmpge_oqpdcmpgt_oqpdcmptrue_uspdcmpeqpscmpltpscmplepscmp'
	DB	'unordpscmpneqpscmpnltpscmpnlepscmpordpscmpeq_uqpscmpngepscmpn'
	DB	'gtpscmpfalsepscmpneq_oqpscmpgepscmpgtpscmptruepscmpeq_ospscmp'
	DB	'lt_oqpscmple_oqpscmpunord_spscmpneq_uspscmpnlt_uqpscmpnle_uqp'
	DB	'scmpord_spscmpeq_uspscmpnge_uqpscmpngt_uqpscmpfalse_ospscmpne'
	DB	'q_ospscmpge_oqpscmpgt_oqpscmptrue_uspscmpeqsdcmpltsdcmplesdcm'
	DB	'punordsdcmpneqsdcmpnltsdcmpnlesdcmpordsdcmpeq_uqsdcmpngesdcmp'
	DB	'ngtsdcmpfalsesdcmpneq_oqsdcmpgesdcmpgtsdcmptruesdcmpeq_ossdcm'
	DB	'plt_oqsdcmple_oqsdcmpunord_ssdcmpneq_ussdcmpnlt_uqsdcmpnle_uq'
	DB	'sdcmpord_ssdcmpeq_ussdcmpnge_uqsdcmpngt_uqsdcmpfalse_ossdcmpn'
	DB	'eq_ossdcmpge_oqsdcmpgt_oqsdcmptrue_ussdcmpeqsscmpltsscmplessc'
	DB	'mpunordsscmpneqsscmpnltsscmpnlesscmpordsscmpeq_uqsscmpngesscm'
	DB	'pngtsscmpfalsesscmpneq_oqsscmpgesscmpgtsscmptruesscmpeq_osssc'
	DB	'mplt_oqsscmple_oqsscmpunord_ssscmpneq_ussscmpnlt_uqsscmpnle_u'
	DB	'qsscmpord_ssscmpeq_ussscmpnge_uqsscmpngt_uqsscmpfalse_ossscmp'
	DB	'neq_ossscmpge_oqsscmpgt_oqsscmptrue_usssandnpdandnpsandpdandp'
	DB	'sorpdorpscomisdcomissxorpdxorpscvtpd2picvtps2picvtsd2sicvtss2'
	DB	'sicvtpi2pdcvtpi2pscvtsi2sdcvtsi2sscvttpd2picvttps2picvttsd2si'
	DB	'cvttss2sicvtdq2pscvtps2dqcvttps2dqcvtpd2dqcvtdq2pdcvttpd2dqcv'
	DB	'tpd2pscvtps2pdcvtsd2sscvtss2sdmaskmovdqumaskmovqmovdmovqmovap'
	DB	'dmovapsmovdqamovdqumovupdmovupsmovhpdmovhpsmovlpdmovlpsmovhlp'
	DB	'smovlhpsmovdq2qmovq2dqmovmskpdmovmskpsmovntdqmovntimovntpdmov'
	DB	'ntpsmovntqmovsspackssdwpacksswbpackuswbpaddbpaddwpadddpaddqpa'
	DB	'ddsbpaddswpaddusbpadduswpandpandnpavgbpavgwpcmpeqbpcmpeqwpcmp'
	DB	'eqdpcmpgtbpcmpgtwpcmpgtdpextrwpinsrwpmaddwdpmaxswpmaxubpminsw'
	DB	'pminubpmovmskbpmulhuwpmulhwpmullwpmuludqporpsadbwpshufdpshufw'
	DB	'pshufhwpshuflwpsllwpslldpsllqpsrawpsradpsrlwpsrldpsrlqpslldqp'
	DB	'srldqpsubbpsubwpsubdpsubqpsubsbpsubswpsubusbpsubuswpxorpunpck'
	DB	'hbwpunpckhwdpunpckhdqpunpcklbwpunpcklwdpunpckldqpunpckhqdqpun'
	DB	'pcklqdqrcppsrcpssrsqrtpsrsqrtssshufpdshufpsucomisducomissunpc'
	DB	'khpdunpckhpsunpcklpdunpcklpsfemmsprefetchprefetchwpavgusbpf2i'
	DB	'dpf2iwpfaccpfaddpfcmpeqpfcmpgepfcmpgtpfmaxpfminpfmulpfnaccpfp'
	DB	'naccpfrcppfrcpit1pfrcpit2pfrsqit1pfrsqrtpfsubpfsubrpi2fdpi2fw'
	DB	'pmulhrwpswapdaddsubpdaddsubpsfisttphaddpdhaddpshsubpdhsubpsld'
	DB	'dqumonitormovddupmovshdupmovsldupmwaitpabsbpabsdpabswpalignrp'
	DB	'hadddphaddswphaddwphsubdphsubswphsubwpmaddubswpmulhrswpshufbp'
	DB	'signbpsigndpsignwcdqecqopushfqpopfqiretqcmpxchg16bmovsxdcmpsq'
	DB	'lodsqmovsqscasqstosqpextrqpinsrqswapgssyscallsysretblendpdble'
	DB	'ndpsblendvpdblendvpsdppddppsextractpsinsertpsmovntdqampsadbwp'
	DB	'ackusdwpblendvbpblendwpcmpeqqpextrbpextrdphminposuwpinsrbpins'
	DB	'rdpmaxsbpmaxsdpmaxuwpmaxudpminsbpminsdpminuwpminudpmovsxbwpmo'
	DB	'vsxbdpmovsxbqpmovsxwdpmovsxwqpmovsxdqpmovzxbwpmovzxbdpmovzxbq'
	DB	'pmovzxwdpmovzxwqpmovzxdqpmuldqpmulldptestroundpsroundpdrounds'
	DB	'sroundsdcrc32pcmpestrmpcmpestripcmpistrmpcmpistripcmpgtqpopcn'
	DB	'trdrandrdseedlzcnttzcntinvpcidxrstorxsavexsaveoptxgetbvxsetbv'
	DB	'vmcallvmlaunchvmresumevmxoffvmptrldvmptrstvmclearvmxonvmreadv'
	DB	'mwriteinveptinvvpidvbroadcastssvbroadcastsdvbroadcastf128vpbr'
	DB	'oadcastbvpbroadcastwvpbroadcastdvpbroadcastqvbroadcasti32x2vb'
	DB	'roadcasti32x4vbroadcasti64x2vbroadcasti32x8vbroadcasti64x4vbr'
	DB	'oadcastf32x4vbroadcastf64x2vbroadcastf32x8vbroadcastf64x4vpbr'
	DB	'oadcastmb2qvpbroadcastmw2dvblendvpdvblendvpsvextractf128vextr'
	DB	'actf32x4vextractf64x2vextractf32x8vextractf64x4vextracti128ve'
	DB	'xtracti32x4vextracti64x2vextracti32x8vextracti64x4vmaskmovpsv'
	DB	'maskmovpdvpblendvbvpermilpdvpermilpsvpermpdvpermpsvpermqvperm'
	DB	'2f128vtestpsvtestpdvzeroallvzerouppervcvtpd2dqvcvtpd2udqvcvtp'
	DB	's2udqvcvttpd2dqvcvtpd2psvmovddupvpgatherddvpgatherqdvpgatherd'
	DB	'qvpgatherqqvgatherdpdvgatherqpdvgatherdpsvgatherqpsvpscatterd'
	DB	'dvpscatterdqvpscatterqdvpscatterqqvscatterdpsvscatterdpdvscat'
	DB	'terqpsvscatterqpdvpabsqvpanddvpandqvpandndvpandnqvpblendmdvpb'
	DB	'lendmqvfmadd132pdvfmadd213pdvfmadd231pdvfmadd132psvfmadd213ps'
	DB	'vfmadd231psvfmadd132sdvfmadd213sdvfmadd231sdvfmadd132ssvfmadd'
	DB	'213ssvfmadd231ssvfmaddsub132pdvfmaddsub213pdvfmaddsub231pdvfm'
	DB	'addsub132psvfmaddsub213psvfmaddsub231psvfmsub132pdvfmsub213pd'
	DB	'vfmsub231pdvfmsub132psvfmsub213psvfmsub231psvfmsub132sdvfmsub'
	DB	'213sdvfmsub231sdvfmsub132ssvfmsub213ssvfmsub231ssvfmsubadd132'
	DB	'pdvfmsubadd213pdvfmsubadd231pdvfmsubadd132psvfmsubadd213psvfm'
	DB	'subadd231psvfnmadd132pdvfnmadd213pdvfnmadd231pdvfnmadd132psvf'
	DB	'nmadd213psvfnmadd231psvfnmadd132sdvfnmadd213sdvfnmadd231sdvfn'
	DB	'madd132ssvfnmadd213ssvfnmadd231ssvfnmsub132pdvfnmsub213pdvfnm'
	DB	'sub231pdvfnmsub132psvfnmsub213psvfnmsub231psvfnmsub132sdvfnms'
	DB	'ub213sdvfnmsub231sdvfnmsub132ssvfnmsub213ssvfnmsub231ssvgetex'
	DB	'ppdvgetexppsvgetexpsdvgetexpssvcvtph2psvcvtps2phvgetmantpdvge'
	DB	'tmantpsvgetmantsdvgetmantssvaligndvalignqvblendmpdvblendmpsvc'
	DB	'ompresspdvcompresspsvpcompressdvpcompressqvcvtsi2sdvcvtudq2pd'
	DB	'vcvtudq2psvexpandpdvexpandpsvpcmpdvpcmpudvpcmpqvpcmpuqvpcmpwv'
	DB	'pcmpuwvpcmpbvpcmpubvpcmpeqdvpcmpltdvpcmpledvpcmpfalsedvpcmpne'
	DB	'qdvpcmpnltdvpcmpnledvpcmptruedvpcmpequdvpcmpltudvpcmpleudvpcm'
	DB	'pfalseudvpcmpnequdvpcmpnltudvpcmpnleudvpcmptrueudvpcmpeqqvpcm'
	DB	'pltqvpcmpleqvpcmpfalseqvpcmpneqqvpcmpnltqvpcmpnleqvpcmptrueqv'
	DB	'pcmpequqvpcmpltuqvpcmpleuqvpcmpfalseuqvpcmpnequqvpcmpnltuqvpc'
	DB	'mpnleuqvpcmptrueuqvpcmpeqwvpcmpltwvpcmplewvpcmpfalsewvpcmpneq'
	DB	'wvpcmpnltwvpcmpnlewvpcmptruewvpcmpequwvpcmpltuwvpcmpleuwvpcmp'
	DB	'falseuwvpcmpnequwvpcmpnltuwvpcmpnleuwvpcmptrueuwvpcmpeqbvpcmp'
	DB	'ltbvpcmplebvpcmpfalsebvpcmpneqbvpcmpnltbvpcmpnlebvpcmptruebvp'
	DB	'cmpequbvpcmpltubvpcmpleubvpcmpfalseubvpcmpnequbvpcmpnltubvpcm'
	DB	'pnleubvpcmptrueubvpermdvpermwvpermbvpexpanddvpexpandqvpmaxsqv'
	DB	'pmaxuqvpminsqvpminuqvpordvporqvpsllvdvpsllvqvpsllvwvproldvpro'
	DB	'lvdvprolqvprolvqvprordvprorvdvprorqvprorvqvpsraqvpsravdvpsrav'
	DB	'qvpsravwvpsrlvdvpsrlvqvpsrlvwvptestmbvptestmwvptestmdvptestmq'
	DB	'vptestnmbvptestnmwvptestnmdvptestnmqvreducepdvreducesdvreduce'
	DB	'psvreducessvpxordvpxorqvrcp14pdvrcp14sdvrcp14psvrcp14ssvrsqrt'
	DB	'14pdvrsqrt14sdvrsqrt14psvrsqrt14ssvpternlogdvpternlogqvpmovqb'
	DB	'vpmovsqbvpmovusqbvpmovqwvpmovsqwvpmovusqwvpmovqdvpmovsqdvpmov'
	DB	'usqdvpmovdbvpmovsdbvpmovusdbvpmovdwvpmovsdwvpmovusdwvpmovwbvp'
	DB	'movswbvpmovuswbvshuff32x4vshuff64x2vshufi32x4vshufi64x2vpermt'
	DB	'2wvpermt2dvpermt2qvpermt2psvpermt2pdvcvtsd2usivcvtss2usivcvtu'
	DB	'si2sdvcvtusi2ssvscalefpdvscalefpsvscalefsdvscalefssvfixupimmp'
	DB	'dvfixupimmpsvfixupimmsdvfixupimmssvrndscalepdvrndscalepsvrnds'
	DB	'calesdvrndscalessvcvttpd2udqvcvttpd2uqqvcvttps2udqvcvttps2uqq'
	DB	'vcvttsd2usivcvttss2usivpermi2bvpermi2wvpermi2dvpermi2qvpermi2'
	DB	'psvpermi2pdvinsertf128vinsertf32x4vinsertf64x2vinsertf32x8vin'
	DB	'sertf64x4vinserti128vinserti32x4vinserti64x2vinserti32x8vinse'
	DB	'rti64x4vmovdqu8vmovdqu16vmovdqa32vmovdqu32vmovdqa64vmovdqu64v'
	DB	'dbpsadbwvfpclasspdvfpclasspsvfpclasssdvfpclassssvpconflictdvp'
	DB	'conflictqvplzcntdvplzcntqvpmadd52luqvpmadd52huqvpmovm2bvpmovm'
	DB	'2wvpmovm2dvpmovm2qvpmovb2mvpmovw2mvpmovd2mvpmovq2mvpmullqvran'
	DB	'gepdvrangepsvrangesdvrangessvpblenddvpmaskmovdvpmaskmovqandnm'
	DB	'ulxbextrsarxshlxshrxblsiblsmskblsrbzhipdeppextrorxkaddbkaddwk'
	DB	'andbkandwkandnbkandnwkorbkorwkxorbkxorwkxnorbkxnorwkunpckbwku'
	DB	'npckwdkadddkaddqkanddkandqkandndkandnqkordkorqkxordkxorqkxnor'
	DB	'dkxnorqkunpckdqknotbknotwknotdknotqkortestbkortestwkortestdko'
	DB	'rtestqkshiftlbkshiftlwkshiftldkshiftlqkshiftrbkshiftrwkshiftr'
	DB	'dkshiftrqkmovbkmovdkmovqkmovwvaddpdvaddsdvdivpdvdivsdvmaxpdvm'
	DB	'axsdvminpdvminsdvmulpdvmulsdvsqrtpdvsqrtsdvsubpdvsubsdvaddpsv'
	DB	'addssvdivpsvdivssvmaxpsvmaxssvminpsvminssvmulpsvmulssvsqrtpsv'
	DB	'sqrtssvsubpsvsubssvcmppdvcmpsdvcmppsvcmpssvcmpeqpdvcmpltpdvcm'
	DB	'plepdvcmpunordpdvcmpneqpdvcmpnltpdvcmpnlepdvcmpordpdvcmpeq_uq'
	DB	'pdvcmpngepdvcmpngtpdvcmpfalsepdvcmpneq_oqpdvcmpgepdvcmpgtpdvc'
	DB	'mptruepdvcmpeq_ospdvcmplt_oqpdvcmple_oqpdvcmpunord_spdvcmpneq'
	DB	'_uspdvcmpnlt_uqpdvcmpnle_uqpdvcmpord_spdvcmpeq_uspdvcmpnge_uq'
	DB	'pdvcmpngt_uqpdvcmpfalse_ospdvcmpneq_ospdvcmpge_oqpdvcmpgt_oqp'
	DB	'dvcmptrue_uspdvcmpeqpsvcmpltpsvcmplepsvcmpunordpsvcmpneqpsvcm'
	DB	'pnltpsvcmpnlepsvcmpordpsvcmpeq_uqpsvcmpngepsvcmpngtpsvcmpfals'
	DB	'epsvcmpneq_oqpsvcmpgepsvcmpgtpsvcmptruepsvcmpeq_ospsvcmplt_oq'
	DB	'psvcmple_oqpsvcmpunord_spsvcmpneq_uspsvcmpnlt_uqpsvcmpnle_uqp'
	DB	'svcmpord_spsvcmpeq_uspsvcmpnge_uqpsvcmpngt_uqpsvcmpfalse_osps'
	DB	'vcmpneq_ospsvcmpge_oqpsvcmpgt_oqpsvcmptrue_uspsvcmpeqsdvcmplt'
	DB	'sdvcmplesdvcmpunordsdvcmpneqsdvcmpnltsdvcmpnlesdvcmpordsdvcmp'
	DB	'eq_uqsdvcmpngesdvcmpngtsdvcmpfalsesdvcmpneq_oqsdvcmpgesdvcmpg'
	DB	'tsdvcmptruesdvcmpeq_ossdvcmplt_oqsdvcmple_oqsdvcmpunord_ssdvc'
	DB	'mpneq_ussdvcmpnlt_uqsdvcmpnle_uqsdvcmpord_ssdvcmpeq_ussdvcmpn'
	DB	'ge_uqsdvcmpngt_uqsdvcmpfalse_ossdvcmpneq_ossdvcmpge_oqsdvcmpg'
	DB	't_oqsdvcmptrue_ussdvcmpeqssvcmpltssvcmplessvcmpunordssvcmpneq'
	DB	'ssvcmpnltssvcmpnlessvcmpordssvcmpeq_uqssvcmpngessvcmpngtssvcm'
	DB	'pfalsessvcmpneq_oqssvcmpgessvcmpgtssvcmptruessvcmpeq_osssvcmp'
	DB	'lt_oqssvcmple_oqssvcmpunord_sssvcmpneq_usssvcmpnlt_uqssvcmpnl'
	DB	'e_uqssvcmpord_sssvcmpeq_usssvcmpnge_uqssvcmpngt_uqssvcmpfalse'
	DB	'_osssvcmpneq_osssvcmpge_oqssvcmpgt_oqssvcmptrue_usssvandpdvan'
	DB	'dnpdvorpdvcomisdvxorpdvandpsvandnpsvorpsvcomissvxorpsvcvtdq2p'
	DB	'dvcvtdq2psvcvtps2dqvcvttps2dqvcvtps2pdvcvtsd2sivcvttsd2sivcvt'
	DB	'sd2ssvcvtsi2ssvcvtss2sdvcvtss2sivcvttss2sivaddsubpdvaddsubpsv'
	DB	'blendpdvblendpsvdppdvdppsvextractpsvhaddpdvhaddpsvhsubpdvhsub'
	DB	'psvinsertpsvlddquvldmxcsrvstmxcsrvmaskmovdquvmovapdvmovapsvmo'
	DB	'vdvmovqvmovdqavmovdquvmovhlpsvmovlhpsvmovhpdvmovhpsvmovlpdvmo'
	DB	'vlpsvmovsdvmovssvmovmskpdvmovmskpsvmovntdqvmovntdqavmovntpdvm'
	DB	'ovntpsvmovshdupvmovsldupvmovupdvmovupsvmpsadbwvpabsbvpabswvpa'
	DB	'bsdvpacksswbvpackssdwvpackuswbvpackusdwvpaddbvpaddwvpadddvpad'
	DB	'dqvpaddsbvpaddswvpaddusbvpadduswvpalignrvpandvpandnvpavgbvpav'
	DB	'gwvpblendwvpcmpestrivpcmpestrmvpcmpistrivpcmpistrmvpcmpgtdvpc'
	DB	'mpgtqvpextrbvpextrwvpextrdvpinsrbvpinsrwvpinsrdvpextrqvpinsrq'
	DB	'vphaddwvphadddvphaddswvphminposuwvphsubwvphsubdvphsubswvpmadd'
	DB	'wdvpmaddubswvpmaxsbvpmaxswvpmaxsdvpmaxubvpmaxuwvpmaxudvpminsb'
	DB	'vpminswvpminsdvpminubvpminuwvpminudvpmovmskbvpmovsxbwvpmovsxb'
	DB	'dvpmovsxbqvpmovsxwdvpmovsxwqvpmovsxdqvpmovzxbwvpmovzxbdvpmovz'
	DB	'xbqvpmovzxwdvpmovzxwqvpmovzxdqvpmulhuwvpmulhrswvpmulhwvpmullw'
	DB	'vpmulldvpmuludqvpmuldqvporvpsadbwvpshufbvpshufdvpshufhwvpshuf'
	DB	'lwvpsignbvpsignwvpsigndvpslldqvpsrldqvpsllwvpslldvpsllqvpsraw'
	DB	'vpsradvpsrlwvpsrldvpsrlqvptestvpsubbvpsubwvpsubdvpsubqvpsubsb'
	DB	'vpsubswvpsubusbvpsubuswvpunpckhbwvpunpckhwdvpunpckhdqvpunpckh'
	DB	'qdqvpunpcklbwvpunpcklwdvpunpckldqvpunpcklqdqvpxorvrcppsvrcpss'
	DB	'vrsqrtpsvrsqrtssvroundpdvroundpsvroundsdvroundssvshufpdvshufp'
	DB	'svucomisdvucomissvunpckhpdvunpckhpsvunpcklpdvunpcklpssyscall_'
	DB	00H
	ORG $+5
vex_flags DB	042H
	DB	042H
	DB	02H
	DB	061H
	DB	061H
	DB	061H
	DB	061H
	DB	061H
	DB	061H
	DB	061H
	DB	061H
	DB	061H
	DB	061H
	DB	061H
	DB	061H
	DB	061H
	DB	061H
	DB	061H
	DB	041H
	DB	041H
	DB	042H
	DB	043H
	DB	043H
	DB	043H
	DB	043H
	DB	042H
	DB	043H
	DB	043H
	DB	043H
	DB	043H
	DB	041H
	DB	041H
	DB	040H
	DB	049H
	DB	049H
	DB	049H
	DB	041H
	DB	049H
	DB	040H
	DB	043H
	DB	043H
	DB	041H
	DB	040H
	DB	042H
	DB	042H
	DB	042H
	DB	042H
	DB	042H
	DB	042H
	DB	043H
	DB	043H
	DB	043H
	DB	043H
	DB	043H
	DB	043H
	DB	043H
	DB	043H
	DB	041H
	DB	041H
	DB	041H
	DB	041H
	DB	041H
	DB	041H
	DB	041H
	DB	041H
	DB	043H
	DB	041H
	DB	041H
	DB	041H
	DB	041H
	DB	041H
	DB	041H
	DB	041H
	DB	041H
	DB	041H
	DB	041H
	DB	041H
	DB	041H
	DB	041H
	DB	041H
	DB	041H
	DB	061H
	DB	061H
	DB	061H
	DB	041H
	DB	041H
	DB	041H
	DB	041H
	DB	041H
	DB	041H
	DB	041H
	DB	041H
	DB	041H
	DB	041H
	DB	041H
	DB	041H
	DB	041H
	DB	041H
	DB	041H
	DB	061H
	DB	061H
	DB	061H
	DB	041H
	DB	041H
	DB	041H
	DB	041H
	DB	041H
	DB	041H
	DB	041H
	DB	041H
	DB	041H
	DB	041H
	DB	041H
	DB	041H
	DB	041H
	DB	041H
	DB	041H
	DB	061H
	DB	061H
	DB	061H
	DB	041H
	DB	041H
	DB	041H
	DB	041H
	DB	041H
	DB	041H
	DB	041H
	DB	041H
	DB	041H
	DB	061H
	DB	061H
	DB	061H
	DB	041H
	DB	041H
	DB	041H
	DB	061H
	DB	042H
	DB	043H
	DB	043H
	DB	043H
	DB	041H
	DB	041H
	DB	041H
	DB	041H
	DB	041H
	DB	041H
	DB	061H
	DB	061H
	DB	041H
	DB	041H
	DB	040H
	DB	061H
	DB	041H
	DB	041H
	DB	041H
	DB	040H
	DB	040H
	DB	040H
	DB	040H
	DB	060H
	DB	060H
	DB	040H
	DB	040H
	DB	040H
	DB	040H
	DB	040H
	DB	040H
	DB	040H
	DB	040H
	DB	040H
	DB	040H
	DB	040H
	DB	040H
	DB	040H
	DB	040H
	DB	040H
	DB	040H
	DB	040H
	DB	040H
	DB	040H
	DB	040H
	DB	040H
	DB	040H
	DB	040H
	DB	040H
	DB	040H
	DB	040H
	DB	040H
	DB	040H
	DB	040H
	DB	040H
	DB	040H
	DB	040H
	DB	040H
	DB	040H
	DB	060H
	DB	060H
	DB	060H
	DB	060H
	DB	060H
	DB	060H
	DB	060H
	DB	060H
	DB	060H
	DB	060H
	DB	060H
	DB	060H
	DB	060H
	DB	060H
	DB	060H
	DB	060H
	DB	040H
	DB	040H
	DB	040H
	DB	040H
	DB	040H
	DB	040H
	DB	040H
	DB	040H
	DB	040H
	DB	040H
	DB	040H
	DB	040H
	DB	040H
	DB	040H
	DB	040H
	DB	040H
	DB	041H
	DB	041H
	DB	041H
	DB	043H
	DB	043H
	DB	041H
	DB	041H
	DB	041H
	DB	041H
	DB	041H
	DB	041H
	DB	041H
	DB	041H
	DB	041H
	DB	041H
	DB	041H
	DB	041H
	DB	041H
	DB	041H
	DB	041H
	DB	041H
	DB	041H
	DB	061H
	DB	041H
	DB	041H
	DB	041H
	DB	041H
	DB	041H
	DB	041H
	DB	043H
	DB	043H
	DB	041H
	DB	041H
	DB	043H
	DB	043H
	DB	041H
	DB	041H
	DB	043H
	DB	041H
	DB	043H
	DB	041H
	DB	041H
	DB	041H
	DB	041H
	DB	041H
	DB	041H
	DB	041H
	DB	041H
	DB	041H
	DB	041H
	DB	041H
	DB	041H
	DB	041H
	DB	043H
	DB	043H
	DB	043H
	DB	043H
	DB	043H
	DB	043H
	DB	043H
	DB	043H
	DB	043H
	DB	043H
	DB	043H
	DB	043H
	DB	043H
	DB	043H
	DB	043H
	DB	043H
	DB	043H
	DB	043H
	DB	041H
	DB	041H
	DB	041H
	DB	041H
	DB	041H
	DB	041H
	DB	041H
	DB	041H
	DB	041H
	DB	040H
	DB	040H
	DB	040H
	DB	040H
	DB	041H
	DB	041H
	DB	041H
	DB	041H
	DB	041H
	DB	041H
	DB	041H
	DB	041H
	DB	043H
	DB	043H
	DB	041H
	DB	041H
	DB	041H
	DB	041H
	DB	041H
	DB	041H
	DB	041H
	DB	041H
	DB	041H
	DB	041H
	DB	041H
	DB	041H
	DB	041H
	DB	041H
	DB	040H
	DB	040H
	DB	040H
	DB	040H
	DB	040H
	DB	040H
	DB	040H
	DB	040H
	DB	040H
	DB	040H
	DB	043H
	DB	043H
	DB	043H
	DB	043H
	DB	043H
	DB	043H
	DB	040H
	DB	042H
	DB	042H
	DB	042H
	DB	042H
	DB	041H
	DB	041H
	DB	041H
	DB	041H
	DB	041H
	DB	041H
	DB	041H
	DB	041H
	DB	041H
	DB	041H
	DB	061H
	DB	061H
	DB	061H
	DB	061H
	DB	041H
	DB	041H
	DB	041H
	DB	061H
	DB	061H
	DB	01H
	DB	01H
	DB	01H
	DB	02H
	DB	02H
	DB	02H
	DB	02H
	DB	02H
	DB	02H
	DB	02H
	DB	02H
	DB	02H
	DB	02H
	DB	02H
	DB	02H
	DB	02H
	DB	03H
	DB	03H
	DB	03H
	DB	03H
	DB	03H
	DB	03H
	DB	03H
	DB	03H
	DB	03H
	DB	03H
	DB	03H
	DB	03H
	DB	03H
	DB	03H
	DB	03H
	DB	03H
	DB	03H
	DB	03H
	DB	03H
	DB	03H
	DB	03H
	DB	03H
	DB	03H
	DB	03H
	DB	03H
	DB	03H
	DB	03H
	DB	02H
	DB	02H
	DB	02H
	DB	02H
	DB	02H
	DB	02H
	DB	02H
	DB	02H
	DB	02H
	DB	02H
	DB	02H
	DB	02H
	DB	02H
	DB	02H
	DB	02H
	DB	02H
	DB	00H
	DB	00H
	DB	00H
	DB	00H
	DB	041H
	DB	040H
	DB	041H
	DB	040H
	DB	041H
	DB	040H
	DB	041H
	DB	040H
	DB	041H
	DB	040H
	DB	043H
	DB	040H
	DB	041H
	DB	040H
	DB	041H
	DB	040H
	DB	041H
	DB	040H
	DB	041H
	DB	040H
	DB	041H
	DB	040H
	DB	041H
	DB	040H
	DB	043H
	DB	040H
	DB	041H
	DB	040H
	DB	041H
	DB	040H
	DB	041H
	DB	040H
	DB	041H
	DB	041H
	DB	041H
	DB	041H
	DB	041H
	DB	041H
	DB	041H
	DB	041H
	DB	041H
	DB	041H
	DB	041H
	DB	041H
	DB	041H
	DB	041H
	DB	041H
	DB	041H
	DB	041H
	DB	041H
	DB	041H
	DB	041H
	DB	041H
	DB	041H
	DB	041H
	DB	041H
	DB	041H
	DB	041H
	DB	041H
	DB	041H
	DB	041H
	DB	041H
	DB	041H
	DB	041H
	DB	041H
	DB	041H
	DB	041H
	DB	041H
	DB	041H
	DB	041H
	DB	041H
	DB	041H
	DB	041H
	DB	041H
	DB	041H
	DB	041H
	DB	041H
	DB	041H
	DB	041H
	DB	041H
	DB	041H
	DB	041H
	DB	041H
	DB	041H
	DB	041H
	DB	041H
	DB	041H
	DB	041H
	DB	041H
	DB	041H
	DB	041H
	DB	041H
	DB	041H
	DB	041H
	DB	041H
	DB	041H
	DB	040H
	DB	040H
	DB	040H
	DB	040H
	DB	040H
	DB	040H
	DB	040H
	DB	040H
	DB	040H
	DB	040H
	DB	040H
	DB	040H
	DB	040H
	DB	040H
	DB	040H
	DB	040H
	DB	040H
	DB	040H
	DB	040H
	DB	040H
	DB	040H
	DB	040H
	DB	040H
	DB	040H
	DB	040H
	DB	040H
	DB	040H
	DB	040H
	DB	040H
	DB	040H
	DB	040H
	DB	040H
	DB	040H
	DB	040H
	DB	040H
	DB	040H
	DB	040H
	DB	040H
	DB	040H
	DB	040H
	DB	040H
	DB	040H
	DB	040H
	DB	040H
	DB	040H
	DB	040H
	DB	040H
	DB	040H
	DB	040H
	DB	040H
	DB	040H
	DB	040H
	DB	040H
	DB	040H
	DB	040H
	DB	040H
	DB	040H
	DB	040H
	DB	040H
	DB	040H
	DB	040H
	DB	040H
	DB	040H
	DB	040H
	DB	041H
	DB	041H
	DB	041H
	DB	042H
	DB	041H
	DB	041H
	DB	041H
	DB	041H
	DB	042H
	DB	041H
	DB	063H
	DB	043H
	DB	043H
	DB	043H
	DB	063H
	DB	042H
	DB	042H
	DB	040H
	DB	040H
	DB	040H
	DB	042H
	DB	042H
	DB	01H
	DB	01H
	DB	01H
	DB	01H
	DB	00H
	DB	01H
	DB	042H
	DB	01H
	DB	01H
	DB	01H
	DB	01H
	DB	040H
	DB	03H
	DB	00H
	DB	00H
	DB	02H
	DB	043H
	DB	043H
	DB	042H
	DB	042H
	DB	043H
	DB	043H
	DB	040H
	DB	040H
	DB	050H
	DB	050H
	DB	050H
	DB	050H
	DB	050H
	DB	050H
	DB	03H
	DB	03H
	DB	043H
	DB	043H
	DB	043H
	DB	043H
	DB	043H
	DB	043H
	DB	043H
	DB	043H
	DB	01H
	DB	043H
	DB	043H
	DB	043H
	DB	01H
	DB	01H
	DB	01H
	DB	01H
	DB	041H
	DB	041H
	DB	041H
	DB	041H
	DB	01H
	DB	01H
	DB	01H
	DB	01H
	DB	01H
	DB	041H
	DB	041H
	DB	01H
	DB	01H
	DB	01H
	DB	02H
	DB	02H
	DB	02H
	DB	02H
	DB	041H
	DB	041H
	DB	042H
	DB	042H
	DB	042H
	DB	01H
	DB	01H
	DB	01H
	DB	042H
	DB	01H
	DB	01H
	DB	01H
	DB	01H
	DB	02H
	DB	01H
	DB	01H
	DB	01H
	DB	01H
	DB	01H
	DB	041H
	DB	041H
	DB	041H
	DB	041H
	DB	041H
	DB	041H
	DB	041H
	DB	041H
	DB	041H
	DB	041H
	DB	041H
	DB	041H
	DB	042H
	DB	042H
	DB	042H
	DB	042H
	DB	042H
	DB	042H
	DB	042H
	DB	042H
	DB	042H
	DB	042H
	DB	042H
	DB	042H
	DB	042H
	DB	01H
	DB	01H
	DB	01H
	DB	01H
	DB	041H
	DB	041H
	DB	041H
	DB	01H
	DB	01H
	DB	041H
	DB	042H
	DB	042H
	DB	042H
	DB	01H
	DB	01H
	DB	01H
	DB	061H
	DB	061H
	DB	061H
	DB	061H
	DB	061H
	DB	061H
	DB	061H
	DB	061H
	DB	061H
	DB	061H
	DB	043H
	DB	041H
	DB	041H
	DB	041H
	DB	041H
	DB	041H
	DB	041H
	DB	041H
	DB	041H
	DB	041H
	DB	041H
	DB	041H
	DB	041H
	DB	041H
	DB	041H
	DB	041H
	DB	041H
	DB	041H
	DB	03H
	DB	00H
	DB	03H
	DB	00H
	DB	03H
	DB	03H
	DB	00H
	DB	00H
	DB	041H
	DB	041H
	DB	042H
	DB	042H
	DB	041H
	DB	041H
	DB	041H
	DB	041H
	ORG $+10
patchtabr DW	0b8H
	ORG $+2
	DD	0183H
	DD	06edH
	DW	0b9H
	ORG $+2
	DD	0184H
	DD	06eeH
	DW	00H
	ORG $+2
	DD	00H
	DD	06e2H
	DW	01H
	ORG $+2
	DD	09H
	DD	06e7H
	DW	093H
	ORG $+2
	DD	0142H
	DD	06f5H
	DW	092H
	ORG $+2
	DD	013cH
	DD	06f8H
	DW	075H
	ORG $+2
	DD	0103H
	DD	06efH
	DW	076H
	ORG $+2
	DD	0104H
	DD	06f1H
	DW	077H
	ORG $+2
	DD	0105H
	DD	06f3H
	DW	0345H
	ORG $+2
	DD	04e4H
	DD	06fdH
	DW	0346H
	ORG $+2
	DD	04e5H
	DD	06feH
	ORG $+12
InstrTable DB	03H
	DB	00H
	DB	018H
	ORG $+1
	DW	00H
	DW	00H
	DB	0e8H
	DB	00H
	DB	04H
	DB	00H
	DB	010H
	ORG $+1
	DW	00H
	DW	030H
	DB	0e8H
	DB	00H
	DB	01eH
	DB	00H
	DB	020H
	ORG $+1
	DW	00H
	DW	00H
	DB	0ffH
	DB	010H
	DB	0dH
	DB	02H
	DB	020H
	ORG $+1
	DW	00H
	DW	030H
	DB	0ffH
	DB	010H
	DB	0aH
	DB	01H
	DB	020H
	ORG $+1
	DW	00H
	DW	00H
	DB	0ffH
	DB	010H
	DB	04H
	DB	01H
	DB	018H
	ORG $+1
	DW	00H
	DW	00H
	DB	09aH
	DB	00H
	DB	05H
	DB	02H
	DB	010H
	ORG $+1
	DW	00H
	DW	030H
	DB	09aH
	DB	00H
	DB	0dH
	DB	01H
	DB	020H
	ORG $+1
	DW	00H
	DW	00H
	DB	0ffH
	DB	018H
	DB	0eH
	DB	02H
	DB	020H
	ORG $+1
	DW	00H
	DW	030H
	DB	0ffH
	DB	018H
	DB	06H
	DB	00H
	DB	018H
	ORG $+1
	DW	00H
	DW	00H
	DB	0ebH
	DB	00H
	DB	03H
	DB	00H
	DB	010H
	ORG $+1
	DW	00H
	DW	00H
	DB	0e9H
	DB	00H
	DB	04H
	DB	00H
	DB	010H
	ORG $+1
	DW	00H
	DW	030H
	DB	0e9H
	DB	00H
	DB	01eH
	DB	00H
	DB	020H
	ORG $+1
	DW	00H
	DW	00H
	DB	0ffH
	DB	020H
	DB	0dH
	DB	02H
	DB	020H
	ORG $+1
	DW	00H
	DW	030H
	DB	0ffH
	DB	020H
	DB	0aH
	DB	01H
	DB	020H
	ORG $+1
	DW	00H
	DW	00H
	DB	0ffH
	DB	020H
	DB	04H
	DB	01H
	DB	018H
	ORG $+1
	DW	00H
	DW	00H
	DB	0eaH
	DB	00H
	DB	05H
	DB	02H
	DB	010H
	ORG $+1
	DW	00H
	DW	030H
	DB	0eaH
	DB	00H
	DB	0dH
	DB	01H
	DB	020H
	ORG $+1
	DW	00H
	DW	00H
	DB	0ffH
	DB	028H
	DB	0eH
	DB	02H
	DB	020H
	ORG $+1
	DW	00H
	DW	030H
	DB	0ffH
	DB	028H
	DB	06H
	DB	00H
	DB	018H
	ORG $+1
	DW	00H
	DW	00H
	DB	077H
	DB	00H
	DB	02H
	DB	010H
	DB	010H
	ORG $+1
	DW	00H
	DW	030H
	DB	087H
	DB	00H
	DB	06H
	DB	00H
	DB	018H
	ORG $+1
	DW	00H
	DW	00H
	DB	073H
	DB	00H
	DB	02H
	DB	010H
	DB	010H
	ORG $+1
	DW	00H
	DW	030H
	DB	083H
	DB	00H
	DB	06H
	DB	00H
	DB	018H
	ORG $+1
	DW	00H
	DW	00H
	DB	072H
	DB	00H
	DB	02H
	DB	010H
	DB	010H
	ORG $+1
	DW	00H
	DW	030H
	DB	082H
	DB	00H
	DB	06H
	DB	00H
	DB	018H
	ORG $+1
	DW	00H
	DW	00H
	DB	076H
	DB	00H
	DB	02H
	DB	010H
	DB	010H
	ORG $+1
	DW	00H
	DW	030H
	DB	086H
	DB	00H
	DB	06H
	DB	00H
	DB	018H
	ORG $+1
	DW	00H
	DW	00H
	DB	072H
	DB	00H
	DB	02H
	DB	010H
	DB	010H
	ORG $+1
	DW	00H
	DW	030H
	DB	082H
	DB	00H
	DB	06H
	DB	00H
	DB	018H
	ORG $+1
	DW	00H
	DW	00H
	DB	074H
	DB	00H
	DB	02H
	DB	010H
	DB	010H
	ORG $+1
	DW	00H
	DW	030H
	DB	084H
	DB	00H
	DB	06H
	DB	00H
	DB	018H
	ORG $+1
	DW	00H
	DW	00H
	DB	07fH
	DB	00H
	DB	02H
	DB	010H
	DB	010H
	ORG $+1
	DW	00H
	DW	030H
	DB	08fH
	DB	00H
	DB	06H
	DB	00H
	DB	018H
	ORG $+1
	DW	00H
	DW	00H
	DB	07dH
	DB	00H
	DB	02H
	DB	010H
	DB	010H
	ORG $+1
	DW	00H
	DW	030H
	DB	08dH
	DB	00H
	DB	06H
	DB	00H
	DB	018H
	ORG $+1
	DW	00H
	DW	00H
	DB	07cH
	DB	00H
	DB	02H
	DB	010H
	DB	010H
	ORG $+1
	DW	00H
	DW	030H
	DB	08cH
	DB	00H
	DB	06H
	DB	00H
	DB	018H
	ORG $+1
	DW	00H
	DW	00H
	DB	07eH
	DB	00H
	DB	02H
	DB	010H
	DB	010H
	ORG $+1
	DW	00H
	DW	030H
	DB	08eH
	DB	00H
	DB	06H
	DB	00H
	DB	018H
	ORG $+1
	DW	00H
	DW	00H
	DB	076H
	DB	00H
	DB	02H
	DB	010H
	DB	010H
	ORG $+1
	DW	00H
	DW	030H
	DB	086H
	DB	00H
	DB	06H
	DB	00H
	DB	018H
	ORG $+1
	DW	00H
	DW	00H
	DB	072H
	DB	00H
	DB	02H
	DB	010H
	DB	010H
	ORG $+1
	DW	00H
	DW	030H
	DB	082H
	DB	00H
	DB	06H
	DB	00H
	DB	018H
	ORG $+1
	DW	00H
	DW	00H
	DB	073H
	DB	00H
	DB	02H
	DB	010H
	DB	010H
	ORG $+1
	DW	00H
	DW	030H
	DB	083H
	DB	00H
	DB	06H
	DB	00H
	DB	018H
	ORG $+1
	DW	00H
	DW	00H
	DB	077H
	DB	00H
	DB	02H
	DB	010H
	DB	010H
	ORG $+1
	DW	00H
	DW	030H
	DB	087H
	DB	00H
	DB	06H
	DB	00H
	DB	018H
	ORG $+1
	DW	00H
	DW	00H
	DB	073H
	DB	00H
	DB	02H
	DB	010H
	DB	010H
	ORG $+1
	DW	00H
	DW	030H
	DB	083H
	DB	00H
	DB	06H
	DB	00H
	DB	018H
	ORG $+1
	DW	00H
	DW	00H
	DB	075H
	DB	00H
	DB	02H
	DB	010H
	DB	010H
	ORG $+1
	DW	00H
	DW	030H
	DB	085H
	DB	00H
	DB	06H
	DB	00H
	DB	018H
	ORG $+1
	DW	00H
	DW	00H
	DB	07eH
	DB	00H
	DB	02H
	DB	010H
	DB	010H
	ORG $+1
	DW	00H
	DW	030H
	DB	08eH
	DB	00H
	DB	06H
	DB	00H
	DB	018H
	ORG $+1
	DW	00H
	DW	00H
	DB	07cH
	DB	00H
	DB	02H
	DB	010H
	DB	010H
	ORG $+1
	DW	00H
	DW	030H
	DB	08cH
	DB	00H
	DB	06H
	DB	00H
	DB	018H
	ORG $+1
	DW	00H
	DW	00H
	DB	07dH
	DB	00H
	DB	02H
	DB	010H
	DB	010H
	ORG $+1
	DW	00H
	DW	030H
	DB	08dH
	DB	00H
	DB	06H
	DB	00H
	DB	018H
	ORG $+1
	DW	00H
	DW	00H
	DB	07fH
	DB	00H
	DB	02H
	DB	010H
	DB	010H
	ORG $+1
	DW	00H
	DW	030H
	DB	08fH
	DB	00H
	DB	06H
	DB	00H
	DB	018H
	ORG $+1
	DW	00H
	DW	00H
	DB	071H
	DB	00H
	DB	02H
	DB	010H
	DB	010H
	ORG $+1
	DW	00H
	DW	030H
	DB	081H
	DB	00H
	DB	06H
	DB	00H
	DB	018H
	ORG $+1
	DW	00H
	DW	00H
	DB	07bH
	DB	00H
	DB	02H
	DB	010H
	DB	010H
	ORG $+1
	DW	00H
	DW	030H
	DB	08bH
	DB	00H
	DB	06H
	DB	00H
	DB	018H
	ORG $+1
	DW	00H
	DW	00H
	DB	079H
	DB	00H
	DB	02H
	DB	010H
	DB	010H
	ORG $+1
	DW	00H
	DW	030H
	DB	089H
	DB	00H
	DB	06H
	DB	00H
	DB	018H
	ORG $+1
	DW	00H
	DW	00H
	DB	075H
	DB	00H
	DB	02H
	DB	010H
	DB	010H
	ORG $+1
	DW	00H
	DW	030H
	DB	085H
	DB	00H
	DB	06H
	DB	00H
	DB	018H
	ORG $+1
	DW	00H
	DW	00H
	DB	070H
	DB	00H
	DB	02H
	DB	010H
	DB	010H
	ORG $+1
	DW	00H
	DW	030H
	DB	080H
	DB	00H
	DB	06H
	DB	00H
	DB	018H
	ORG $+1
	DW	00H
	DW	00H
	DB	07aH
	DB	00H
	DB	02H
	DB	010H
	DB	010H
	ORG $+1
	DW	00H
	DW	030H
	DB	08aH
	DB	00H
	DB	06H
	DB	00H
	DB	018H
	ORG $+1
	DW	00H
	DW	00H
	DB	07aH
	DB	00H
	DB	02H
	DB	010H
	DB	010H
	ORG $+1
	DW	00H
	DW	030H
	DB	08aH
	DB	00H
	DB	06H
	DB	00H
	DB	018H
	ORG $+1
	DW	00H
	DW	00H
	DB	07bH
	DB	00H
	DB	02H
	DB	010H
	DB	010H
	ORG $+1
	DW	00H
	DW	030H
	DB	08bH
	DB	00H
	DB	06H
	DB	00H
	DB	018H
	ORG $+1
	DW	00H
	DW	00H
	DB	078H
	DB	00H
	DB	02H
	DB	010H
	DB	010H
	ORG $+1
	DW	00H
	DW	030H
	DB	088H
	DB	00H
	DB	06H
	DB	00H
	DB	018H
	ORG $+1
	DW	00H
	DW	00H
	DB	074H
	DB	00H
	DB	02H
	DB	010H
	DB	010H
	ORG $+1
	DW	00H
	DW	030H
	DB	084H
	DB	00H
	DB	06H
	DB	03H
	DB	018H
	ORG $+1
	DW	00H
	DW	00H
	DB	0e3H
	DB	00H
	DB	06H
	DB	04H
	DB	018H
	ORG $+1
	DW	00H
	DW	030H
	DB	0e3H
	DB	00H
	DB	06H
	DB	00H
	DB	018H
	ORG $+1
	DW	00H
	DW	070H
	DB	0e3H
	DB	00H
	DB	06H
	DB	00H
	DB	018H
	ORG $+1
	DW	00H
	DW	00H
	DB	0e2H
	DB	00H
	DB	06H
	DB	00H
	DB	018H
	ORG $+1
	DW	00H
	DW	00H
	DB	0e1H
	DB	00H
	DB	06H
	DB	00H
	DB	018H
	ORG $+1
	DW	00H
	DW	00H
	DB	0e1H
	DB	00H
	DB	06H
	DB	00H
	DB	018H
	ORG $+1
	DW	00H
	DW	00H
	DB	0e0H
	DB	00H
	DB	06H
	DB	00H
	DB	018H
	ORG $+1
	DW	00H
	DW	00H
	DB	0e0H
	DB	00H
	DB	06H
	DB	04H
	DB	018H
	ORG $+1
	DW	00H
	DW	030H
	DB	0e2H
	DB	00H
	DB	06H
	DB	04H
	DB	018H
	ORG $+1
	DW	00H
	DW	030H
	DB	0e1H
	DB	00H
	DB	06H
	DB	04H
	DB	018H
	ORG $+1
	DW	00H
	DW	030H
	DB	0e1H
	DB	00H
	DB	06H
	DB	04H
	DB	018H
	ORG $+1
	DW	00H
	DW	030H
	DB	0e0H
	DB	00H
	DB	06H
	DB	04H
	DB	018H
	ORG $+1
	DW	00H
	DW	030H
	DB	0e0H
	DB	00H
	DB	06H
	DB	03H
	DB	018H
	ORG $+1
	DW	00H
	DW	00H
	DB	0e2H
	DB	00H
	DB	06H
	DB	03H
	DB	018H
	ORG $+1
	DW	00H
	DW	00H
	DB	0e1H
	DB	00H
	DB	06H
	DB	03H
	DB	018H
	ORG $+1
	DW	00H
	DW	00H
	DB	0e1H
	DB	00H
	DB	06H
	DB	03H
	DB	018H
	ORG $+1
	DW	00H
	DW	00H
	DB	0e0H
	DB	00H
	DB	06H
	DB	03H
	DB	018H
	ORG $+1
	DW	00H
	DW	00H
	DB	0e0H
	DB	00H
	DB	068H
	DB	00H
	DB	028H
	ORG $+1
	DW	00H
	DW	00H
	DB	083H
	DB	00H
	DB	052H
	DB	00H
	DB	080H
	ORG $+1
	DW	00H
	DW	00H
	DB	02H
	DB	00H
	DB	024H
	DB	00H
	DB	010H
	ORG $+1
	DW	00H
	DW	00H
	DB	04H
	DB	00H
	DB	04fH
	DB	00H
	DB	00H
	ORG $+1
	DW	00H
	DW	00H
	DB	080H
	DB	00H
	DB	03cH
	DB	00H
	DB	021H
	ORG $+1
	DW	01H
	DW	00H
	DB	083H
	DB	00H
	DB	04dH
	DB	00H
	DB	01H
	ORG $+1
	DW	01H
	DW	00H
	DB	00H
	DB	00H
	DB	04bH
	DB	00H
	DB	01H
	ORG $+1
	DW	01H
	DW	00H
	DB	080H
	DB	00H
	DB	068H
	DB	00H
	DB	028H
	ORG $+1
	DW	00H
	DW	00H
	DB	083H
	DB	08H
	DB	052H
	DB	00H
	DB	080H
	ORG $+1
	DW	00H
	DW	00H
	DB	0aH
	DB	00H
	DB	024H
	DB	00H
	DB	010H
	ORG $+1
	DW	00H
	DW	00H
	DB	0cH
	DB	00H
	DB	04fH
	DB	00H
	DB	00H
	ORG $+1
	DW	00H
	DW	00H
	DB	080H
	DB	08H
	DB	03cH
	DB	00H
	DB	021H
	ORG $+1
	DW	01H
	DW	00H
	DB	083H
	DB	08H
	DB	04dH
	DB	00H
	DB	01H
	ORG $+1
	DW	01H
	DW	00H
	DB	08H
	DB	00H
	DB	04bH
	DB	00H
	DB	01H
	ORG $+1
	DW	01H
	DW	00H
	DB	080H
	DB	08H
	DB	068H
	DB	00H
	DB	028H
	ORG $+1
	DW	00H
	DW	00H
	DB	083H
	DB	010H
	DB	052H
	DB	00H
	DB	080H
	ORG $+1
	DW	00H
	DW	00H
	DB	012H
	DB	00H
	DB	024H
	DB	00H
	DB	010H
	ORG $+1
	DW	00H
	DW	00H
	DB	014H
	DB	00H
	DB	04fH
	DB	00H
	DB	00H
	ORG $+1
	DW	00H
	DW	00H
	DB	080H
	DB	010H
	DB	03cH
	DB	00H
	DB	021H
	ORG $+1
	DW	01H
	DW	00H
	DB	083H
	DB	010H
	DB	04dH
	DB	00H
	DB	01H
	ORG $+1
	DW	01H
	DW	00H
	DB	010H
	DB	00H
	DB	04bH
	DB	00H
	DB	01H
	ORG $+1
	DW	01H
	DW	00H
	DB	080H
	DB	010H
	DB	068H
	DB	00H
	DB	028H
	ORG $+1
	DW	00H
	DW	00H
	DB	083H
	DB	018H
	DB	052H
	DB	00H
	DB	080H
	ORG $+1
	DW	00H
	DW	00H
	DB	01aH
	DB	00H
	DB	024H
	DB	00H
	DB	010H
	ORG $+1
	DW	00H
	DW	00H
	DB	01cH
	DB	00H
	DB	04fH
	DB	00H
	DB	00H
	ORG $+1
	DW	00H
	DW	00H
	DB	080H
	DB	018H
	DB	03cH
	DB	00H
	DB	021H
	ORG $+1
	DW	01H
	DW	00H
	DB	083H
	DB	018H
	DB	04dH
	DB	00H
	DB	01H
	ORG $+1
	DW	01H
	DW	00H
	DB	018H
	DB	00H
	DB	04bH
	DB	00H
	DB	01H
	ORG $+1
	DW	01H
	DW	00H
	DB	080H
	DB	018H
	DB	068H
	DB	00H
	DB	028H
	ORG $+1
	DW	00H
	DW	00H
	DB	083H
	DB	020H
	DB	052H
	DB	00H
	DB	080H
	ORG $+1
	DW	00H
	DW	00H
	DB	022H
	DB	00H
	DB	024H
	DB	00H
	DB	010H
	ORG $+1
	DW	00H
	DW	00H
	DB	024H
	DB	00H
	DB	04fH
	DB	00H
	DB	00H
	ORG $+1
	DW	00H
	DW	00H
	DB	080H
	DB	020H
	DB	03cH
	DB	00H
	DB	021H
	ORG $+1
	DW	01H
	DW	00H
	DB	083H
	DB	020H
	DB	04dH
	DB	00H
	DB	01H
	ORG $+1
	DW	01H
	DW	00H
	DB	020H
	DB	00H
	DB	04bH
	DB	00H
	DB	01H
	ORG $+1
	DW	01H
	DW	00H
	DB	080H
	DB	020H
	DB	068H
	DB	00H
	DB	028H
	ORG $+1
	DW	00H
	DW	00H
	DB	083H
	DB	028H
	DB	052H
	DB	00H
	DB	080H
	ORG $+1
	DW	00H
	DW	00H
	DB	02aH
	DB	00H
	DB	024H
	DB	00H
	DB	010H
	ORG $+1
	DW	00H
	DW	00H
	DB	02cH
	DB	00H
	DB	04fH
	DB	00H
	DB	00H
	ORG $+1
	DW	00H
	DW	00H
	DB	080H
	DB	028H
	DB	03cH
	DB	00H
	DB	021H
	ORG $+1
	DW	01H
	DW	00H
	DB	083H
	DB	028H
	DB	04dH
	DB	00H
	DB	01H
	ORG $+1
	DW	01H
	DW	00H
	DB	028H
	DB	00H
	DB	04bH
	DB	00H
	DB	01H
	ORG $+1
	DW	01H
	DW	00H
	DB	080H
	DB	028H
	DB	068H
	DB	00H
	DB	028H
	ORG $+1
	DW	00H
	DW	00H
	DB	083H
	DB	030H
	DB	052H
	DB	00H
	DB	080H
	ORG $+1
	DW	00H
	DW	00H
	DB	032H
	DB	00H
	DB	024H
	DB	00H
	DB	010H
	ORG $+1
	DW	00H
	DW	00H
	DB	034H
	DB	00H
	DB	04fH
	DB	00H
	DB	00H
	ORG $+1
	DW	00H
	DW	00H
	DB	080H
	DB	030H
	DB	03cH
	DB	00H
	DB	021H
	ORG $+1
	DW	01H
	DW	00H
	DB	083H
	DB	030H
	DB	04dH
	DB	00H
	DB	01H
	ORG $+1
	DW	01H
	DW	00H
	DB	030H
	DB	00H
	DB	04bH
	DB	00H
	DB	01H
	ORG $+1
	DW	01H
	DW	00H
	DB	080H
	DB	030H
	DB	068H
	DB	00H
	DB	028H
	ORG $+1
	DW	00H
	DW	00H
	DB	083H
	DB	038H
	DB	052H
	DB	00H
	DB	080H
	ORG $+1
	DW	00H
	DW	00H
	DB	03aH
	DB	00H
	DB	024H
	DB	00H
	DB	010H
	ORG $+1
	DW	00H
	DW	00H
	DB	03cH
	DB	00H
	DB	04fH
	DB	00H
	DB	00H
	ORG $+1
	DW	00H
	DW	00H
	DB	080H
	DB	038H
	DB	03cH
	DB	00H
	DB	020H
	ORG $+1
	DW	00H
	DW	00H
	DB	083H
	DB	038H
	DB	04dH
	DB	00H
	DB	00H
	ORG $+1
	DW	00H
	DW	00H
	DB	038H
	DB	00H
	DB	04bH
	DB	00H
	DB	00H
	ORG $+1
	DW	00H
	DW	00H
	DB	080H
	DB	038H
	DB	073H
	DB	00H
	DB	08H
	ORG $+1
	DW	00H
	DW	00H
	DB	0d2H
	DB	010H
	DB	076H
	DB	00H
	DB	00H
	ORG $+1
	DW	00H
	DW	00H
	DB	0d0H
	DB	010H
	DB	075H
	DB	00H
	DB	00H
	ORG $+1
	DW	00H
	DW	010H
	DB	0c0H
	DB	010H
	DB	073H
	DB	00H
	DB	08H
	ORG $+1
	DW	00H
	DW	00H
	DB	0d2H
	DB	018H
	DB	076H
	DB	00H
	DB	00H
	ORG $+1
	DW	00H
	DW	00H
	DB	0d0H
	DB	018H
	DB	075H
	DB	00H
	DB	00H
	ORG $+1
	DW	00H
	DW	010H
	DB	0c0H
	DB	018H
	DB	073H
	DB	00H
	DB	08H
	ORG $+1
	DW	00H
	DW	00H
	DB	0d2H
	DB	00H
	DB	076H
	DB	00H
	DB	00H
	ORG $+1
	DW	00H
	DW	00H
	DB	0d0H
	DB	00H
	DB	075H
	DB	00H
	DB	00H
	ORG $+1
	DW	00H
	DW	010H
	DB	0c0H
	DB	00H
	DB	073H
	DB	00H
	DB	08H
	ORG $+1
	DW	00H
	DW	00H
	DB	0d2H
	DB	08H
	DB	076H
	DB	00H
	DB	00H
	ORG $+1
	DW	00H
	DW	00H
	DB	0d0H
	DB	08H
	DB	075H
	DB	00H
	DB	00H
	ORG $+1
	DW	00H
	DW	010H
	DB	0c0H
	DB	08H
	DB	073H
	DB	00H
	DB	08H
	ORG $+1
	DW	00H
	DW	00H
	DB	0d2H
	DB	020H
	DB	076H
	DB	00H
	DB	00H
	ORG $+1
	DW	00H
	DW	00H
	DB	0d0H
	DB	020H
	DB	075H
	DB	00H
	DB	00H
	ORG $+1
	DW	00H
	DW	010H
	DB	0c0H
	DB	020H
	DB	073H
	DB	00H
	DB	08H
	ORG $+1
	DW	00H
	DW	00H
	DB	0d2H
	DB	038H
	DB	076H
	DB	00H
	DB	00H
	ORG $+1
	DW	00H
	DW	00H
	DB	0d0H
	DB	038H
	DB	075H
	DB	00H
	DB	00H
	ORG $+1
	DW	00H
	DW	010H
	DB	0c0H
	DB	038H
	DB	073H
	DB	00H
	DB	08H
	ORG $+1
	DW	00H
	DW	00H
	DB	0d2H
	DB	020H
	DB	076H
	DB	00H
	DB	00H
	ORG $+1
	DW	00H
	DW	00H
	DB	0d0H
	DB	020H
	DB	075H
	DB	00H
	DB	00H
	ORG $+1
	DW	00H
	DW	010H
	DB	0c0H
	DB	020H
	DB	073H
	DB	00H
	DB	08H
	ORG $+1
	DW	00H
	DW	00H
	DB	0d2H
	DB	028H
	DB	076H
	DB	00H
	DB	00H
	ORG $+1
	DW	00H
	DW	00H
	DB	0d0H
	DB	028H
	DB	075H
	DB	00H
	DB	00H
	ORG $+1
	DW	00H
	DW	010H
	DB	0c0H
	DB	028H
	DB	04cH
	DB	00H
	DB	01bH
	ORG $+1
	DW	03H
	DW	00H
	DB	0a6H
	DB	00H
	DB	00H
	DB	00H
	DB	01bH
	ORG $+1
	DW	03H
	DW	00H
	DB	0a6H
	DB	00H
	DB	030H
	DB	00H
	DB	013H
	ORG $+1
	DW	03H
	DW	00H
	DB	0a6H
	DB	00H
	DB	00H
	DB	01H
	DB	01bH
	ORG $+1
	DW	03H
	DW	00H
	DB	0a7H
	DB	00H
	DB	032H
	DB	01H
	DB	013H
	ORG $+1
	DW	03H
	DW	00H
	DB	0a7H
	DB	00H
	DB	00H
	DB	02H
	DB	01bH
	ORG $+1
	DW	03H
	DW	030H
	DB	0a7H
	DB	00H
	DB	034H
	DB	02H
	DB	013H
	ORG $+1
	DW	03H
	DW	030H
	DB	0a7H
	DB	00H
	DB	0a8H
	DB	013H
	DB	0a6H
	ORG $+1
	DW	08066H
	DW	0860H
	DB	0c2H
	DB	00H
	DB	04aH
	DB	00H
	DB	01aH
	ORG $+1
	DW	02H
	DW	010H
	DB	06cH
	DB	00H
	DB	00H
	DB	00H
	DB	01aH
	ORG $+1
	DW	02H
	DW	010H
	DB	06cH
	DB	00H
	DB	02fH
	DB	00H
	DB	012H
	ORG $+1
	DW	02H
	DW	010H
	DB	06cH
	DB	00H
	DB	00H
	DB	01H
	DB	01aH
	ORG $+1
	DW	02H
	DW	010H
	DB	06dH
	DB	00H
	DB	031H
	DB	01H
	DB	012H
	ORG $+1
	DW	02H
	DW	010H
	DB	06dH
	DB	00H
	DB	00H
	DB	02H
	DB	01aH
	ORG $+1
	DW	02H
	DW	030H
	DB	06dH
	DB	00H
	DB	033H
	DB	02H
	DB	012H
	ORG $+1
	DW	02H
	DW	030H
	DB	06dH
	DB	00H
	DB	013H
	DB	00H
	DB	01aH
	ORG $+1
	DW	02H
	DW	00H
	DB	0acH
	DB	00H
	DB	00H
	DB	00H
	DB	01aH
	ORG $+1
	DW	02H
	DW	00H
	DB	0acH
	DB	00H
	DB	09H
	DB	00H
	DB	012H
	ORG $+1
	DW	02H
	DW	00H
	DB	0acH
	DB	00H
	DB	00H
	DB	01H
	DB	01aH
	ORG $+1
	DW	02H
	DW	00H
	DB	0adH
	DB	00H
	DB	0aH
	DB	01H
	DB	012H
	ORG $+1
	DW	02H
	DW	00H
	DB	0adH
	DB	00H
	DB	00H
	DB	02H
	DB	01aH
	ORG $+1
	DW	02H
	DW	030H
	DB	0adH
	DB	00H
	DB	0dH
	DB	02H
	DB	012H
	ORG $+1
	DW	02H
	DW	030H
	DB	0adH
	DB	00H
	DB	04cH
	DB	00H
	DB	01aH
	ORG $+1
	DW	02H
	DW	00H
	DB	0a4H
	DB	00H
	DB	00H
	DB	00H
	DB	01aH
	ORG $+1
	DW	02H
	DW	00H
	DB	0a4H
	DB	00H
	DB	030H
	DB	00H
	DB	012H
	ORG $+1
	DW	02H
	DW	00H
	DB	0a4H
	DB	00H
	DB	00H
	DB	01H
	DB	01aH
	ORG $+1
	DW	02H
	DW	00H
	DB	0a5H
	DB	00H
	DB	032H
	DB	01H
	DB	012H
	ORG $+1
	DW	02H
	DW	00H
	DB	0a5H
	DB	00H
	DB	00H
	DB	02H
	DB	01aH
	ORG $+1
	DW	02H
	DW	030H
	DB	0a5H
	DB	00H
	DB	034H
	DB	02H
	DB	012H
	ORG $+1
	DW	02H
	DW	030H
	DB	0a5H
	DB	00H
	DB	084H
	DB	013H
	DB	0a6H
	ORG $+1
	DW	08066H
	DW	0860H
	DB	010H
	DB	00H
	DB	038H
	DB	013H
	DB	026H
	ORG $+1
	DW	08066H
	DW	0860H
	DB	011H
	DB	00H
	DB	02cH
	DB	00H
	DB	01aH
	ORG $+1
	DW	02H
	DW	010H
	DB	06eH
	DB	00H
	DB	00H
	DB	00H
	DB	01aH
	ORG $+1
	DW	02H
	DW	010H
	DB	06eH
	DB	00H
	DB	029H
	DB	00H
	DB	012H
	ORG $+1
	DW	02H
	DW	010H
	DB	06eH
	DB	00H
	DB	00H
	DB	01H
	DB	01aH
	ORG $+1
	DW	02H
	DW	010H
	DB	06fH
	DB	00H
	DB	02aH
	DB	01H
	DB	012H
	ORG $+1
	DW	02H
	DW	010H
	DB	06fH
	DB	00H
	DB	00H
	DB	02H
	DB	01aH
	ORG $+1
	DW	02H
	DW	030H
	DB	06fH
	DB	00H
	DB	02bH
	DB	02H
	DB	012H
	ORG $+1
	DW	02H
	DW	030H
	DB	06fH
	DB	00H
	DB	013H
	DB	00H
	DB	01bH
	ORG $+1
	DW	03H
	DW	00H
	DB	0aeH
	DB	00H
	DB	00H
	DB	00H
	DB	01bH
	ORG $+1
	DW	03H
	DW	00H
	DB	0aeH
	DB	00H
	DB	09H
	DB	00H
	DB	013H
	ORG $+1
	DW	03H
	DW	00H
	DB	0aeH
	DB	00H
	DB	00H
	DB	01H
	DB	01bH
	ORG $+1
	DW	03H
	DW	00H
	DB	0afH
	DB	00H
	DB	0aH
	DB	01H
	DB	013H
	ORG $+1
	DW	03H
	DW	00H
	DB	0afH
	DB	00H
	DB	00H
	DB	02H
	DB	01bH
	ORG $+1
	DW	03H
	DW	030H
	DB	0afH
	DB	00H
	DB	0dH
	DB	02H
	DB	013H
	ORG $+1
	DW	03H
	DW	030H
	DB	0afH
	DB	00H
	DB	013H
	DB	00H
	DB	01aH
	ORG $+1
	DW	02H
	DW	00H
	DB	0aaH
	DB	00H
	DB	00H
	DB	00H
	DB	01aH
	ORG $+1
	DW	02H
	DW	00H
	DB	0aaH
	DB	00H
	DB	09H
	DB	00H
	DB	012H
	ORG $+1
	DW	02H
	DW	00H
	DB	0aaH
	DB	00H
	DB	00H
	DB	01H
	DB	01aH
	ORG $+1
	DW	02H
	DW	00H
	DB	0abH
	DB	00H
	DB	0aH
	DB	01H
	DB	012H
	ORG $+1
	DW	02H
	DW	00H
	DB	0abH
	DB	00H
	DB	00H
	DB	02H
	DB	01aH
	ORG $+1
	DW	02H
	DW	030H
	DB	0abH
	DB	00H
	DB	0dH
	DB	02H
	DB	012H
	ORG $+1
	DW	02H
	DW	030H
	DB	0abH
	DB	00H
	DB	00H
	DB	00H
	DB	018H
	ORG $+1
	DW	00H
	DW	00H
	DB	037H
	DB	00H
	DB	00H
	DB	00H
	DB	08H
	ORG $+1
	DW	00H
	DW	00H
	DB	0d5H
	DB	0aH
	DB	00H
	DB	00H
	DB	08H
	ORG $+1
	DW	00H
	DW	00H
	DB	0d4H
	DB	0aH
	DB	00H
	DB	00H
	DB	018H
	ORG $+1
	DW	00H
	DW	00H
	DB	03fH
	DB	00H
	DB	00H
	DB	00H
	DB	018H
	ORG $+1
	DW	00H
	DW	00H
	DB	027H
	DB	00H
	DB	00H
	DB	00H
	DB	018H
	ORG $+1
	DW	00H
	DW	00H
	DB	02fH
	DB	00H
	DB	06aH
	DB	00H
	DB	0a8H
	ORG $+1
	DW	00H
	DW	00H
	DB	0c5H
	DB	00H
	DB	06aH
	DB	00H
	DB	0a8H
	ORG $+1
	DW	00H
	DW	00H
	DB	0c4H
	DB	00H
	DB	00H
	DB	00H
	DB	018H
	ORG $+1
	DW	00H
	DW	010H
	DB	061H
	DB	00H
	DB	00H
	DB	02H
	DB	018H
	ORG $+1
	DW	00H
	DW	030H
	DB	061H
	DB	00H
	DB	00H
	DB	01H
	DB	018H
	ORG $+1
	DW	00H
	DW	010H
	DB	061H
	DB	00H
	DB	00H
	DB	02H
	DB	018H
	ORG $+1
	DW	00H
	DW	030H
	DB	09dH
	DB	00H
	DB	00H
	DB	00H
	DB	018H
	ORG $+1
	DW	00H
	DW	010H
	DB	060H
	DB	00H
	DB	00H
	DB	02H
	DB	018H
	ORG $+1
	DW	00H
	DW	030H
	DB	060H
	DB	00H
	DB	00H
	DB	01H
	DB	018H
	ORG $+1
	DW	00H
	DW	010H
	DB	060H
	DB	00H
	DB	00H
	DB	02H
	DB	018H
	ORG $+1
	DW	00H
	DW	030H
	DB	09cH
	DB	00H
	DB	06H
	DB	02H
	DB	018H
	ORG $+1
	DW	00H
	DW	030H
	DB	06aH
	DB	00H
	DB	04H
	DB	02H
	DB	010H
	ORG $+1
	DW	00H
	DW	030H
	DB	068H
	DB	00H
	DB	018H
	DB	00H
	DB	030H
	ORG $+1
	DW	00H
	DW	030H
	DB	050H
	DB	00H
	DB	020H
	DB	00H
	DB	0b0H
	ORG $+1
	DW	00H
	DW	00H
	DB	06H
	DB	00H
	DB	01fH
	DB	010H
	DB	0b0H
	ORG $+1
	DW	00H
	DW	030H
	DB	080H
	DB	00H
	DB	0dH
	DB	00H
	DB	00H
	ORG $+1
	DW	00H
	DW	030H
	DB	0ffH
	DB	030H
	DB	03H
	DB	02H
	DB	018H
	ORG $+1
	DW	00H
	DW	030H
	DB	0caH
	DB	00H
	DB	00H
	DB	02H
	DB	010H
	ORG $+1
	DW	00H
	DW	030H
	DB	0cbH
	DB	00H
	DB	03H
	DB	01H
	DB	018H
	ORG $+1
	DW	00H
	DW	00H
	DB	0caH
	DB	00H
	DB	00H
	DB	01H
	DB	010H
	ORG $+1
	DW	00H
	DW	00H
	DB	0cbH
	DB	00H
	DB	053H
	DB	00H
	DB	028H
	ORG $+1
	DW	00H
	DW	020H
	DB	063H
	DB	00H
	DB	016H
	DB	015H
	DB	028H
	ORG $+1
	DW	00H
	DW	028H
	DB	00H
	DB	010H
	DB	016H
	DB	015H
	DB	028H
	ORG $+1
	DW	00H
	DW	028H
	DB	01H
	DB	030H
	DB	016H
	DB	015H
	DB	028H
	ORG $+1
	DW	00H
	DW	028H
	DB	00H
	DB	018H
	DB	016H
	DB	015H
	DB	028H
	ORG $+1
	DW	00H
	DW	020H
	DB	00H
	DB	00H
	DB	016H
	DB	015H
	DB	028H
	ORG $+1
	DW	00H
	DW	020H
	DB	01H
	DB	020H
	DB	016H
	DB	015H
	DB	028H
	ORG $+1
	DW	00H
	DW	020H
	DB	00H
	DB	08H
	DB	016H
	DB	015H
	DB	028H
	ORG $+1
	DW	00H
	DW	020H
	DB	00H
	DB	020H
	DB	016H
	DB	015H
	DB	028H
	ORG $+1
	DW	00H
	DW	020H
	DB	00H
	DB	028H
	DB	015H
	DB	00H
	DB	08H
	ORG $+1
	DW	00H
	DW	00H
	DB	0f6H
	DB	030H
	DB	09H
	DB	00H
	DB	00H
	ORG $+1
	DW	00H
	DW	00H
	DB	0f6H
	DB	030H
	DB	012H
	DB	00H
	DB	00H
	ORG $+1
	DW	00H
	DW	00H
	DB	0f7H
	DB	030H
	DB	015H
	DB	00H
	DB	08H
	ORG $+1
	DW	00H
	DW	00H
	DB	0f6H
	DB	038H
	DB	09H
	DB	00H
	DB	00H
	ORG $+1
	DW	00H
	DW	00H
	DB	0f6H
	DB	038H
	DB	012H
	DB	00H
	DB	00H
	ORG $+1
	DW	00H
	DW	00H
	DB	0f7H
	DB	038H
	DB	015H
	DB	00H
	DB	08H
	ORG $+1
	DW	00H
	DW	00H
	DB	0f6H
	DB	020H
	DB	09H
	DB	00H
	DB	00H
	ORG $+1
	DW	00H
	DW	00H
	DB	0f6H
	DB	020H
	DB	012H
	DB	00H
	DB	00H
	ORG $+1
	DW	00H
	DW	00H
	DB	0f7H
	DB	020H
	DB	015H
	DB	00H
	DB	08H
	ORG $+1
	DW	00H
	DW	00H
	DB	0f6H
	DB	018H
	DB	09H
	DB	00H
	DB	01H
	ORG $+1
	DW	01H
	DW	00H
	DB	0f6H
	DB	018H
	DB	012H
	DB	00H
	DB	01H
	ORG $+1
	DW	01H
	DW	00H
	DB	0f7H
	DB	018H
	DB	015H
	DB	00H
	DB	08H
	ORG $+1
	DW	00H
	DW	00H
	DB	0f6H
	DB	010H
	DB	09H
	DB	00H
	DB	01H
	ORG $+1
	DW	01H
	DW	00H
	DB	0f6H
	DB	010H
	DB	012H
	DB	00H
	DB	01H
	ORG $+1
	DW	01H
	DW	00H
	DB	0f7H
	DB	010H
	DB	00H
	DB	00H
	DB	019H
	ORG $+1
	DW	01H
	DW	00H
	DB	0f0H
	DB	00H
	DB	00H
	DB	00H
	DB	01aH
	ORG $+1
	DW	02H
	DW	00H
	DB	0f3H
	DB	00H
	DB	00H
	DB	00H
	DB	01bH
	ORG $+1
	DW	03H
	DW	00H
	DB	0f3H
	DB	00H
	DB	00H
	DB	00H
	DB	01bH
	ORG $+1
	DW	03H
	DW	00H
	DB	0f2H
	DB	00H
	DB	00H
	DB	00H
	DB	01bH
	ORG $+1
	DW	03H
	DW	00H
	DB	0f2H
	DB	00H
	DB	00H
	DB	00H
	DB	01bH
	ORG $+1
	DW	03H
	DW	00H
	DB	0f3H
	DB	00H
	DB	06cH
	DB	010H
	DB	028H
	ORG $+1
	DW	00H
	DW	030H
	DB	0a3H
	DB	00H
	DB	069H
	DB	010H
	DB	020H
	ORG $+1
	DW	00H
	DW	030H
	DB	0baH
	DB	020H
	DB	03eH
	DB	010H
	DB	020H
	ORG $+1
	DW	00H
	DW	030H
	DB	0a3H
	DB	00H
	DB	03dH
	DB	010H
	DB	020H
	ORG $+1
	DW	00H
	DW	030H
	DB	0baH
	DB	020H
	DB	06cH
	DB	010H
	DB	028H
	ORG $+1
	DW	00H
	DW	030H
	DB	0bbH
	DB	00H
	DB	069H
	DB	010H
	DB	020H
	ORG $+1
	DW	00H
	DW	030H
	DB	0baH
	DB	038H
	DB	03eH
	DB	010H
	DB	021H
	ORG $+1
	DW	01H
	DW	030H
	DB	0bbH
	DB	00H
	DB	03dH
	DB	010H
	DB	021H
	ORG $+1
	DW	01H
	DW	030H
	DB	0baH
	DB	038H
	DB	06cH
	DB	010H
	DB	028H
	ORG $+1
	DW	00H
	DW	030H
	DB	0b3H
	DB	00H
	DB	069H
	DB	010H
	DB	020H
	ORG $+1
	DW	00H
	DW	030H
	DB	0baH
	DB	030H
	DB	03eH
	DB	010H
	DB	021H
	ORG $+1
	DW	01H
	DW	030H
	DB	0b3H
	DB	00H
	DB	03dH
	DB	010H
	DB	021H
	ORG $+1
	DW	01H
	DW	030H
	DB	0baH
	DB	030H
	DB	06cH
	DB	010H
	DB	028H
	ORG $+1
	DW	00H
	DW	030H
	DB	0abH
	DB	00H
	DB	069H
	DB	010H
	DB	020H
	ORG $+1
	DW	00H
	DW	030H
	DB	0baH
	DB	028H
	DB	03eH
	DB	010H
	DB	021H
	ORG $+1
	DW	01H
	DW	030H
	DB	0abH
	DB	00H
	DB	03dH
	DB	010H
	DB	021H
	ORG $+1
	DW	01H
	DW	030H
	DB	0baH
	DB	028H
	DB	00H
	DB	00H
	DB	018H
	ORG $+1
	DW	00H
	DW	00H
	DB	0f5H
	DB	00H
	DB	00H
	DB	00H
	DB	018H
	ORG $+1
	DW	00H
	DW	00H
	DB	0f8H
	DB	00H
	DB	00H
	DB	00H
	DB	018H
	ORG $+1
	DW	00H
	DW	00H
	DB	0f9H
	DB	00H
	DB	00H
	DB	00H
	DB	018H
	ORG $+1
	DW	00H
	DW	00H
	DB	0faH
	DB	00H
	DB	00H
	DB	00H
	DB	018H
	ORG $+1
	DW	00H
	DW	00H
	DB	0fbH
	DB	00H
	DB	00H
	DB	00H
	DB	018H
	ORG $+1
	DW	00H
	DW	00H
	DB	0fcH
	DB	00H
	DB	00H
	DB	00H
	DB	018H
	ORG $+1
	DW	00H
	DW	00H
	DB	0fdH
	DB	00H
	DB	01eH
	DB	00H
	DB	038H
	ORG $+1
	DW	00H
	DW	00H
	DB	040H
	DB	00H
	DB	015H
	DB	00H
	DB	00H
	ORG $+1
	DW	00H
	DW	00H
	DB	0feH
	DB	00H
	DB	09H
	DB	00H
	DB	01H
	ORG $+1
	DW	01H
	DW	00H
	DB	0feH
	DB	00H
	DB	012H
	DB	00H
	DB	01H
	ORG $+1
	DW	01H
	DW	00H
	DB	0ffH
	DB	00H
	DB	01eH
	DB	00H
	DB	038H
	ORG $+1
	DW	00H
	DW	00H
	DB	048H
	DB	00H
	DB	015H
	DB	00H
	DB	00H
	ORG $+1
	DW	00H
	DW	00H
	DB	0feH
	DB	08H
	DB	09H
	DB	00H
	DB	01H
	ORG $+1
	DW	01H
	DW	00H
	DB	0feH
	DB	08H
	DB	012H
	DB	00H
	DB	01H
	ORG $+1
	DW	01H
	DW	00H
	DB	0ffH
	DB	08H
	DB	017H
	DB	00H
	DB	038H
	ORG $+1
	DW	00H
	DW	00H
	DB	050H
	DB	00H
	DB	06H
	DB	00H
	DB	010H
	ORG $+1
	DW	00H
	DW	010H
	DB	06aH
	DB	00H
	DB	02H
	DB	00H
	DB	010H
	ORG $+1
	DW	00H
	DW	010H
	DB	068H
	DB	00H
	DB	020H
	DB	00H
	DB	0b0H
	ORG $+1
	DW	00H
	DW	00H
	DB	06H
	DB	00H
	DB	01fH
	DB	010H
	DB	0b0H
	ORG $+1
	DW	00H
	DW	030H
	DB	080H
	DB	00H
	DB	0bH
	DB	00H
	DB	00H
	ORG $+1
	DW	00H
	DW	00H
	DB	0ffH
	DB	030H
	DB	017H
	DB	00H
	DB	038H
	ORG $+1
	DW	00H
	DW	00H
	DB	058H
	DB	00H
	DB	020H
	DB	00H
	DB	0b0H
	ORG $+1
	DW	00H
	DW	00H
	DB	07H
	DB	00H
	DB	01fH
	DB	010H
	DB	0b0H
	ORG $+1
	DW	00H
	DW	030H
	DB	081H
	DB	00H
	DB	0bH
	DB	00H
	DB	00H
	ORG $+1
	DW	00H
	DW	00H
	DB	08fH
	DB	00H
	DB	06H
	DB	01H
	DB	018H
	ORG $+1
	DW	00H
	DW	010H
	DB	06aH
	DB	00H
	DB	03H
	DB	01H
	DB	010H
	ORG $+1
	DW	00H
	DW	010H
	DB	068H
	DB	00H
	DB	00H
	DB	01H
	DB	018H
	ORG $+1
	DW	00H
	DW	00H
	DB	09cH
	DB	00H
	DB	00H
	DB	01H
	DB	018H
	ORG $+1
	DW	00H
	DW	00H
	DB	09dH
	DB	00H
	DB	026H
	DB	00H
	DB	098H
	ORG $+1
	DW	00H
	DW	00H
	DB	0a0H
	DB	00H
	DB	052H
	DB	00H
	DB	080H
	ORG $+1
	DW	00H
	DW	00H
	DB	08aH
	DB	00H
	DB	058H
	DB	00H
	DB	030H
	ORG $+1
	DW	00H
	DW	00H
	DB	0b0H
	DB	00H
	DB	054H
	DB	00H
	DB	030H
	ORG $+1
	DW	00H
	DW	00H
	DB	0b8H
	DB	00H
	DB	055H
	DB	00H
	DB	00H
	ORG $+1
	DW	00H
	DW	070H
	DB	0c6H
	DB	00H
	DB	056H
	DB	00H
	DB	030H
	ORG $+1
	DW	00H
	DW	070H
	DB	0b8H
	DB	00H
	DB	06fH
	DB	00H
	DB	020H
	ORG $+1
	DW	00H
	DW	00H
	DB	08cH
	DB	0c0H
	DB	078H
	DB	00H
	DB	0a0H
	ORG $+1
	DW	00H
	DW	00H
	DB	08eH
	DB	0c0H
	DB	077H
	DB	00H
	DB	0a0H
	ORG $+1
	DW	00H
	DW	00H
	DB	08eH
	DB	00H
	DB	049H
	DB	00H
	DB	010H
	ORG $+1
	DW	00H
	DW	00H
	DB	0a2H
	DB	00H
	DB	04dH
	DB	00H
	DB	00H
	ORG $+1
	DW	00H
	DW	00H
	DB	088H
	DB	00H
	DB	04bH
	DB	00H
	DB	00H
	ORG $+1
	DW	00H
	DW	00H
	DB	0c6H
	DB	00H
	DB	04eH
	DB	00H
	DB	020H
	ORG $+1
	DW	00H
	DW	00H
	DB	08cH
	DB	00H
	DB	05cH
	DB	015H
	DB	020H
	ORG $+1
	DW	00H
	DW	030H
	DB	020H
	DB	0c0H
	DB	072H
	DB	015H
	DB	0a0H
	ORG $+1
	DW	00H
	DW	030H
	DB	022H
	DB	0c0H
	DB	06bH
	DB	00H
	DB	0a8H
	ORG $+1
	DW	00H
	DW	010H
	DB	062H
	DB	00H
	DB	06dH
	DB	010H
	DB	0a8H
	ORG $+1
	DW	00H
	DW	030H
	DB	0bcH
	DB	00H
	DB	06dH
	DB	010H
	DB	0a8H
	ORG $+1
	DW	00H
	DW	030H
	DB	0bdH
	DB	00H
	DB	01dH
	DB	010H
	DB	038H
	ORG $+1
	DW	00H
	DW	040H
	DB	0c8H
	DB	00H
	DB	00H
	DB	01H
	DB	018H
	ORG $+1
	DW	00H
	DW	00H
	DB	098H
	DB	00H
	DB	00H
	DB	02H
	DB	018H
	ORG $+1
	DW	00H
	DW	030H
	DB	099H
	DB	00H
	DB	00H
	DB	01H
	DB	018H
	ORG $+1
	DW	00H
	DW	00H
	DB	099H
	DB	00H
	DB	00H
	DB	02H
	DB	018H
	ORG $+1
	DW	00H
	DW	030H
	DB	098H
	DB	00H
	DB	00H
	DB	00H
	DB	08H
	ORG $+1
	DW	00H
	DW	028H
	DB	0fH
	DB	06H
	DB	051H
	DB	010H
	DB	08H
	ORG $+1
	DW	00H
	DW	040H
	DB	0b0H
	DB	00H
	DB	04dH
	DB	010H
	DB	01H
	ORG $+1
	DW	01H
	DW	040H
	DB	0b0H
	DB	00H
	DB	0fH
	DB	010H
	DB	09H
	ORG $+1
	DW	01H
	DW	050H
	DB	0c7H
	DB	08H
	DB	00H
	DB	00H
	DB	08H
	ORG $+1
	DW	00H
	DW	050H
	DB	0fH
	DB	0a2H
	DB	02dH
	DB	00H
	DB	018H
	ORG $+1
	DW	00H
	DW	010H
	DB	0c8H
	DB	00H
	DB	00H
	DB	00H
	DB	018H
	ORG $+1
	DW	00H
	DW	00H
	DB	0f4H
	DB	00H
	DB	015H
	DB	00H
	DB	08H
	ORG $+1
	DW	00H
	DW	00H
	DB	0f6H
	DB	028H
	DB	09H
	DB	00H
	DB	00H
	ORG $+1
	DW	00H
	DW	00H
	DB	0f6H
	DB	028H
	DB	012H
	DB	00H
	DB	00H
	ORG $+1
	DW	00H
	DW	00H
	DB	0f7H
	DB	028H
	DB	06eH
	DB	010H
	DB	0a0H
	ORG $+1
	DW	00H
	DW	030H
	DB	0afH
	DB	00H
	DB	068H
	DB	00H
	DB	0a0H
	ORG $+1
	DW	00H
	DW	010H
	DB	06bH
	DB	00H
	DB	067H
	DB	00H
	DB	0a0H
	ORG $+1
	DW	00H
	DW	010H
	DB	069H
	DB	00H
	DB	09bH
	DB	00H
	DB	0a0H
	ORG $+1
	DW	00H
	DW	010H
	DB	06bH
	DB	00H
	DB	09aH
	DB	00H
	DB	0a0H
	ORG $+1
	DW	00H
	DW	010H
	DB	069H
	DB	00H
	DB	023H
	DB	00H
	DB	018H
	ORG $+1
	DW	00H
	DW	00H
	DB	0ecH
	DB	00H
	DB	025H
	DB	00H
	DB	010H
	ORG $+1
	DW	00H
	DW	00H
	DB	0e4H
	DB	00H
	DB	08H
	DB	00H
	DB	018H
	ORG $+1
	DW	00H
	DW	00H
	DB	0ccH
	DB	00H
	DB	07H
	DB	00H
	DB	010H
	ORG $+1
	DW	00H
	DW	00H
	DB	0cdH
	DB	00H
	DB	00H
	DB	00H
	DB	018H
	ORG $+1
	DW	00H
	DW	00H
	DB	0ceH
	DB	00H
	DB	00H
	DB	010H
	DB	018H
	ORG $+1
	DW	00H
	DW	040H
	DB	08H
	DB	00H
	DB	014H
	DB	010H
	DB	028H
	ORG $+1
	DW	00H
	DW	040H
	DB	01H
	DB	038H
	DB	00H
	DB	01H
	DB	018H
	ORG $+1
	DW	00H
	DW	00H
	DB	0cfH
	DB	00H
	DB	00H
	DB	02H
	DB	018H
	ORG $+1
	DW	00H
	DW	030H
	DB	0cfH
	DB	00H
	DB	00H
	DB	01H
	DB	018H
	ORG $+1
	DW	00H
	DW	00H
	DB	0cfH
	DB	00H
	DB	00H
	DB	02H
	DB	018H
	ORG $+1
	DW	00H
	DW	030H
	DB	0cfH
	DB	00H
	DB	00H
	DB	00H
	DB	018H
	ORG $+1
	DW	00H
	DW	00H
	DB	09fH
	DB	00H
	DB	06dH
	DB	010H
	DB	0a8H
	ORG $+1
	DW	00H
	DW	020H
	DB	02H
	DB	00H
	DB	06dH
	DB	010H
	DB	0a8H
	ORG $+1
	DW	00H
	DW	020H
	DB	03H
	DB	00H
	DB	06bH
	DB	00H
	DB	0a8H
	ORG $+1
	DW	00H
	DW	00H
	DB	08dH
	DB	00H
	DB	00H
	DB	00H
	DB	018H
	ORG $+1
	DW	00H
	DW	010H
	DB	0c9H
	DB	00H
	DB	06aH
	DB	010H
	DB	0a8H
	ORG $+1
	DW	00H
	DW	030H
	DB	0b4H
	DB	00H
	DB	06aH
	DB	010H
	DB	0a8H
	ORG $+1
	DW	00H
	DW	030H
	DB	0b5H
	DB	00H
	DB	06aH
	DB	010H
	DB	0a8H
	ORG $+1
	DW	00H
	DW	030H
	DB	0b2H
	DB	00H
	DB	0eH
	DB	010H
	DB	028H
	ORG $+1
	DW	00H
	DW	028H
	DB	01H
	DB	010H
	DB	0eH
	DB	010H
	DB	028H
	ORG $+1
	DW	00H
	DW	028H
	DB	01H
	DB	018H
	DB	06eH
	DB	010H
	DB	088H
	ORG $+1
	DW	00H
	DW	030H
	DB	0beH
	DB	00H
	DB	06eH
	DB	010H
	DB	088H
	ORG $+1
	DW	00H
	DW	030H
	DB	0b6H
	DB	00H
	DB	00H
	DB	00H
	DB	018H
	ORG $+1
	DW	00H
	DW	00H
	DB	090H
	DB	00H
	DB	028H
	DB	00H
	DB	018H
	ORG $+1
	DW	00H
	DW	00H
	DB	0eeH
	DB	00H
	DB	02eH
	DB	00H
	DB	010H
	ORG $+1
	DW	00H
	DW	00H
	DB	0e6H
	DB	00H
	DB	00H
	DB	010H
	DB	018H
	ORG $+1
	DW	00H
	DW	050H
	DB	032H
	DB	00H
	DB	00H
	DB	010H
	DB	018H
	ORG $+1
	DW	00H
	DW	050H
	DB	033H
	DB	00H
	DB	00H
	DB	010H
	DB	018H
	ORG $+1
	DW	00H
	DW	050H
	DB	031H
	DB	00H
	DB	00H
	DB	010H
	DB	028H
	ORG $+1
	DW	00H
	DW	060H
	DB	01H
	DB	0f9H
	DB	03H
	DB	00H
	DB	018H
	ORG $+1
	DW	00H
	DW	00H
	DB	0c2H
	DB	00H
	DB	00H
	DB	00H
	DB	010H
	ORG $+1
	DW	00H
	DW	00H
	DB	0c3H
	DB	00H
	DB	03H
	DB	00H
	DB	018H
	ORG $+1
	DW	00H
	DW	00H
	DB	0c2H
	DB	00H
	DB	00H
	DB	00H
	DB	010H
	ORG $+1
	DW	00H
	DW	00H
	DB	0c3H
	DB	00H
	DB	03H
	DB	00H
	DB	018H
	ORG $+1
	DW	00H
	DW	00H
	DB	0caH
	DB	00H
	DB	00H
	DB	00H
	DB	010H
	ORG $+1
	DW	00H
	DW	00H
	DB	0cbH
	DB	00H
	DB	00H
	DB	010H
	DB	018H
	ORG $+1
	DW	00H
	DW	050H
	DB	0aaH
	DB	00H
	DB	00H
	DB	00H
	DB	018H
	ORG $+1
	DW	00H
	DW	00H
	DB	09eH
	DB	00H
	DB	014H
	DB	010H
	DB	028H
	ORG $+1
	DW	00H
	DW	020H
	DB	01H
	DB	00H
	DB	014H
	DB	010H
	DB	028H
	ORG $+1
	DW	00H
	DW	020H
	DB	01H
	DB	08H
	DB	09cH
	DB	010H
	DB	028H
	ORG $+1
	DW	00H
	DW	030H
	DB	0a5H
	DB	00H
	DB	09dH
	DB	010H
	DB	020H
	ORG $+1
	DW	00H
	DW	030H
	DB	0a4H
	DB	00H
	DB	09cH
	DB	010H
	DB	028H
	ORG $+1
	DW	00H
	DW	030H
	DB	0adH
	DB	00H
	DB	09dH
	DB	010H
	DB	020H
	ORG $+1
	DW	00H
	DW	030H
	DB	0acH
	DB	00H
	DB	00H
	DB	010H
	DB	018H
	ORG $+1
	DW	00H
	DW	060H
	DB	034H
	DB	00H
	DB	00H
	DB	010H
	DB	018H
	ORG $+1
	DW	00H
	DW	068H
	DB	035H
	DB	00H
	DB	024H
	DB	00H
	DB	018H
	ORG $+1
	DW	00H
	DW	00H
	DB	0a8H
	DB	00H
	DB	052H
	DB	00H
	DB	080H
	ORG $+1
	DW	00H
	DW	00H
	DB	084H
	DB	00H
	DB	074H
	DB	00H
	DB	00H
	ORG $+1
	DW	00H
	DW	00H
	DB	0f6H
	DB	00H
	DB	04dH
	DB	00H
	DB	00H
	ORG $+1
	DW	00H
	DW	00H
	DB	084H
	DB	00H
	DB	00H
	DB	010H
	DB	018H
	ORG $+1
	DW	00H
	DW	060H
	DB	0bH
	DB	00H
	DB	00H
	DB	00H
	DB	018H
	ORG $+1
	DW	00H
	DW	00H
	DB	09bH
	DB	00H
	DB	00H
	DB	010H
	DB	018H
	ORG $+1
	DW	00H
	DW	040H
	DB	09H
	DB	00H
	DB	00H
	DB	010H
	DB	018H
	ORG $+1
	DW	00H
	DW	050H
	DB	030H
	DB	00H
	DB	051H
	DB	010H
	DB	08H
	ORG $+1
	DW	00H
	DW	040H
	DB	0c0H
	DB	00H
	DB	04dH
	DB	010H
	DB	01H
	ORG $+1
	DW	01H
	DW	040H
	DB	0c0H
	DB	00H
	DB	027H
	DB	00H
	DB	038H
	ORG $+1
	DW	00H
	DW	00H
	DB	090H
	DB	00H
	DB	066H
	DB	00H
	DB	030H
	ORG $+1
	DW	00H
	DW	00H
	DB	090H
	DB	00H
	DB	051H
	DB	00H
	DB	080H
	ORG $+1
	DW	00H
	DW	00H
	DB	086H
	DB	00H
	DB	050H
	DB	00H
	DB	081H
	ORG $+1
	DW	01H
	DW	00H
	DB	086H
	DB	00H
	DB	04dH
	DB	00H
	DB	01H
	ORG $+1
	DW	01H
	DW	00H
	DB	086H
	DB	00H
	DB	00H
	DB	00H
	DB	018H
	ORG $+1
	DW	00H
	DW	00H
	DB	0d7H
	DB	00H
	DB	09H
	DB	00H
	DB	010H
	ORG $+1
	DW	00H
	DW	00H
	DB	0d7H
	DB	00H
	DB	00H
	DB	00H
	DB	018H
	ORG $+1
	DW	00H
	DW	00H
	DB	0d7H
	DB	00H
	DB	09H
	DB	00H
	DB	010H
	ORG $+1
	DW	00H
	DW	00H
	DB	0d7H
	DB	00H
	DB	01cH
	DB	010H
	DB	028H
	ORG $+1
	DW	00H
	DW	030H
	DB	097H
	DB	00H
	DB	01cH
	DB	010H
	DB	028H
	ORG $+1
	DW	00H
	DW	030H
	DB	093H
	DB	00H
	DB	01cH
	DB	010H
	DB	028H
	ORG $+1
	DW	00H
	DW	030H
	DB	092H
	DB	00H
	DB	01cH
	DB	010H
	DB	028H
	ORG $+1
	DW	00H
	DW	030H
	DB	096H
	DB	00H
	DB	01cH
	DB	010H
	DB	028H
	ORG $+1
	DW	00H
	DW	030H
	DB	092H
	DB	00H
	DB	01cH
	DB	010H
	DB	028H
	ORG $+1
	DW	00H
	DW	030H
	DB	094H
	DB	00H
	DB	01cH
	DB	010H
	DB	028H
	ORG $+1
	DW	00H
	DW	030H
	DB	09fH
	DB	00H
	DB	01cH
	DB	010H
	DB	028H
	ORG $+1
	DW	00H
	DW	030H
	DB	09dH
	DB	00H
	DB	01cH
	DB	010H
	DB	028H
	ORG $+1
	DW	00H
	DW	030H
	DB	09cH
	DB	00H
	DB	01cH
	DB	010H
	DB	028H
	ORG $+1
	DW	00H
	DW	030H
	DB	09eH
	DB	00H
	DB	01cH
	DB	010H
	DB	028H
	ORG $+1
	DW	00H
	DW	030H
	DB	096H
	DB	00H
	DB	01cH
	DB	010H
	DB	028H
	ORG $+1
	DW	00H
	DW	030H
	DB	092H
	DB	00H
	DB	01cH
	DB	010H
	DB	028H
	ORG $+1
	DW	00H
	DW	030H
	DB	093H
	DB	00H
	DB	01cH
	DB	010H
	DB	028H
	ORG $+1
	DW	00H
	DW	030H
	DB	097H
	DB	00H
	DB	01cH
	DB	010H
	DB	028H
	ORG $+1
	DW	00H
	DW	030H
	DB	093H
	DB	00H
	DB	01cH
	DB	010H
	DB	028H
	ORG $+1
	DW	00H
	DW	030H
	DB	095H
	DB	00H
	DB	01cH
	DB	010H
	DB	028H
	ORG $+1
	DW	00H
	DW	030H
	DB	09eH
	DB	00H
	DB	01cH
	DB	010H
	DB	028H
	ORG $+1
	DW	00H
	DW	030H
	DB	09cH
	DB	00H
	DB	01cH
	DB	010H
	DB	028H
	ORG $+1
	DW	00H
	DW	030H
	DB	09dH
	DB	00H
	DB	01cH
	DB	010H
	DB	028H
	ORG $+1
	DW	00H
	DW	030H
	DB	09fH
	DB	00H
	DB	01cH
	DB	010H
	DB	028H
	ORG $+1
	DW	00H
	DW	030H
	DB	091H
	DB	00H
	DB	01cH
	DB	010H
	DB	028H
	ORG $+1
	DW	00H
	DW	030H
	DB	09bH
	DB	00H
	DB	01cH
	DB	010H
	DB	028H
	ORG $+1
	DW	00H
	DW	030H
	DB	099H
	DB	00H
	DB	01cH
	DB	010H
	DB	028H
	ORG $+1
	DW	00H
	DW	030H
	DB	095H
	DB	00H
	DB	01cH
	DB	010H
	DB	028H
	ORG $+1
	DW	00H
	DW	030H
	DB	090H
	DB	00H
	DB	01cH
	DB	010H
	DB	028H
	ORG $+1
	DW	00H
	DW	030H
	DB	09aH
	DB	00H
	DB	01cH
	DB	010H
	DB	028H
	ORG $+1
	DW	00H
	DW	030H
	DB	09aH
	DB	00H
	DB	01cH
	DB	010H
	DB	028H
	ORG $+1
	DW	00H
	DW	030H
	DB	09bH
	DB	00H
	DB	01cH
	DB	010H
	DB	028H
	ORG $+1
	DW	00H
	DW	030H
	DB	098H
	DB	00H
	DB	01cH
	DB	010H
	DB	028H
	ORG $+1
	DW	00H
	DW	030H
	DB	094H
	DB	00H
	DB	06eH
	DB	010H
	DB	0a8H
	ORG $+1
	DW	00H
	DW	060H
	DB	047H
	DB	00H
	DB	06eH
	DB	010H
	DB	0a8H
	ORG $+1
	DW	00H
	DW	060H
	DB	043H
	DB	00H
	DB	06eH
	DB	010H
	DB	0a8H
	ORG $+1
	DW	00H
	DW	060H
	DB	042H
	DB	00H
	DB	06eH
	DB	010H
	DB	0a8H
	ORG $+1
	DW	00H
	DW	060H
	DB	046H
	DB	00H
	DB	06eH
	DB	010H
	DB	0a8H
	ORG $+1
	DW	00H
	DW	060H
	DB	042H
	DB	00H
	DB	06eH
	DB	010H
	DB	0a8H
	ORG $+1
	DW	00H
	DW	060H
	DB	044H
	DB	00H
	DB	06eH
	DB	010H
	DB	0a8H
	ORG $+1
	DW	00H
	DW	060H
	DB	04fH
	DB	00H
	DB	06eH
	DB	010H
	DB	0a8H
	ORG $+1
	DW	00H
	DW	060H
	DB	04dH
	DB	00H
	DB	06eH
	DB	010H
	DB	0a8H
	ORG $+1
	DW	00H
	DW	060H
	DB	04cH
	DB	00H
	DB	06eH
	DB	010H
	DB	0a8H
	ORG $+1
	DW	00H
	DW	060H
	DB	04eH
	DB	00H
	DB	06eH
	DB	010H
	DB	0a8H
	ORG $+1
	DW	00H
	DW	060H
	DB	046H
	DB	00H
	DB	06eH
	DB	010H
	DB	0a8H
	ORG $+1
	DW	00H
	DW	060H
	DB	042H
	DB	00H
	DB	06eH
	DB	010H
	DB	0a8H
	ORG $+1
	DW	00H
	DW	060H
	DB	043H
	DB	00H
	DB	06eH
	DB	010H
	DB	0a8H
	ORG $+1
	DW	00H
	DW	060H
	DB	047H
	DB	00H
	DB	06eH
	DB	010H
	DB	0a8H
	ORG $+1
	DW	00H
	DW	060H
	DB	043H
	DB	00H
	DB	06eH
	DB	010H
	DB	0a8H
	ORG $+1
	DW	00H
	DW	060H
	DB	045H
	DB	00H
	DB	06eH
	DB	010H
	DB	0a8H
	ORG $+1
	DW	00H
	DW	060H
	DB	04eH
	DB	00H
	DB	06eH
	DB	010H
	DB	0a8H
	ORG $+1
	DW	00H
	DW	060H
	DB	04cH
	DB	00H
	DB	06eH
	DB	010H
	DB	0a8H
	ORG $+1
	DW	00H
	DW	060H
	DB	04dH
	DB	00H
	DB	06eH
	DB	010H
	DB	0a8H
	ORG $+1
	DW	00H
	DW	060H
	DB	04fH
	DB	00H
	DB	06eH
	DB	010H
	DB	0a8H
	ORG $+1
	DW	00H
	DW	060H
	DB	041H
	DB	00H
	DB	06eH
	DB	010H
	DB	0a8H
	ORG $+1
	DW	00H
	DW	060H
	DB	04bH
	DB	00H
	DB	06eH
	DB	010H
	DB	0a8H
	ORG $+1
	DW	00H
	DW	060H
	DB	049H
	DB	00H
	DB	06eH
	DB	010H
	DB	0a8H
	ORG $+1
	DW	00H
	DW	060H
	DB	045H
	DB	00H
	DB	06eH
	DB	010H
	DB	0a8H
	ORG $+1
	DW	00H
	DW	060H
	DB	040H
	DB	00H
	DB	06eH
	DB	010H
	DB	0a8H
	ORG $+1
	DW	00H
	DW	060H
	DB	04aH
	DB	00H
	DB	06eH
	DB	010H
	DB	0a8H
	ORG $+1
	DW	00H
	DW	060H
	DB	04aH
	DB	00H
	DB	06eH
	DB	010H
	DB	0a8H
	ORG $+1
	DW	00H
	DW	060H
	DB	04bH
	DB	00H
	DB	06eH
	DB	010H
	DB	0a8H
	ORG $+1
	DW	00H
	DW	060H
	DB	048H
	DB	00H
	DB	06eH
	DB	010H
	DB	0a8H
	ORG $+1
	DW	00H
	DW	060H
	DB	044H
	DB	00H
	DB	079H
	DB	00H
	DB	08H
	ORG $+1
	DW	00H
	DW	060H
	DB	0daH
	DB	0c0H
	DB	079H
	DB	00H
	DB	08H
	ORG $+1
	DW	00H
	DW	060H
	DB	0daH
	DB	0d0H
	DB	079H
	DB	00H
	DB	08H
	ORG $+1
	DW	00H
	DW	060H
	DB	0daH
	DB	0c8H
	DB	079H
	DB	00H
	DB	08H
	ORG $+1
	DW	00H
	DW	060H
	DB	0dbH
	DB	0c0H
	DB	079H
	DB	00H
	DB	08H
	ORG $+1
	DW	00H
	DW	060H
	DB	0dbH
	DB	0d0H
	DB	079H
	DB	00H
	DB	08H
	ORG $+1
	DW	00H
	DW	060H
	DB	0dbH
	DB	0c8H
	DB	079H
	DB	00H
	DB	08H
	ORG $+1
	DW	00H
	DW	060H
	DB	0dbH
	DB	0d8H
	DB	079H
	DB	00H
	DB	08H
	ORG $+1
	DW	00H
	DW	060H
	DB	0daH
	DB	0d8H
	DB	022H
	DB	00H
	DB	08H
	ORG $+1
	DW	00H
	DW	02H
	DB	0d8H
	DB	0d0H
	DB	0dH
	DB	00H
	DB	00H
	ORG $+1
	DW	00H
	DW	02H
	DB	0d8H
	DB	010H
	DB	0fH
	DB	00H
	DB	00H
	ORG $+1
	DW	00H
	DW	02H
	DB	0dcH
	DB	010H
	DB	00H
	DB	00H
	DB	00H
	ORG $+1
	DW	00H
	DW	02H
	DB	0d8H
	DB	0d1H
	DB	022H
	DB	00H
	DB	08H
	ORG $+1
	DW	00H
	DW	02H
	DB	0d8H
	DB	0d8H
	DB	0dH
	DB	00H
	DB	00H
	ORG $+1
	DW	00H
	DW	02H
	DB	0d8H
	DB	018H
	DB	0fH
	DB	00H
	DB	00H
	ORG $+1
	DW	00H
	DW	02H
	DB	0dcH
	DB	018H
	DB	00H
	DB	00H
	DB	00H
	ORG $+1
	DW	00H
	DW	02H
	DB	0d8H
	DB	0d9H
	DB	00H
	DB	00H
	DB	08H
	ORG $+1
	DW	00H
	DW	02H
	DB	0deH
	DB	0d9H
	DB	022H
	DB	00H
	DB	08H
	ORG $+1
	DW	00H
	DW	04H
	DB	0ddH
	DB	0e0H
	DB	00H
	DB	00H
	DB	00H
	ORG $+1
	DW	00H
	DW	04H
	DB	0ddH
	DB	0e1H
	DB	022H
	DB	00H
	DB	08H
	ORG $+1
	DW	00H
	DW	04H
	DB	0ddH
	DB	0e8H
	DB	00H
	DB	00H
	DB	00H
	ORG $+1
	DW	00H
	DW	04H
	DB	0ddH
	DB	0e9H
	DB	00H
	DB	00H
	DB	08H
	ORG $+1
	DW	00H
	DW	04H
	DB	0daH
	DB	0e9H
	DB	079H
	DB	00H
	DB	08H
	ORG $+1
	DW	00H
	DW	060H
	DB	0dbH
	DB	0f0H
	DB	079H
	DB	00H
	DB	08H
	ORG $+1
	DW	00H
	DW	060H
	DB	0dfH
	DB	0f0H
	DB	079H
	DB	00H
	DB	08H
	ORG $+1
	DW	00H
	DW	060H
	DB	0dbH
	DB	0e8H
	DB	079H
	DB	00H
	DB	08H
	ORG $+1
	DW	00H
	DW	060H
	DB	0dfH
	DB	0e8H
	DB	079H
	DB	00H
	DB	08H
	ORG $+1
	DW	00H
	DW	02H
	DB	0d8H
	DB	0c0H
	DB	07aH
	DB	00H
	DB	00H
	ORG $+1
	DW	00H
	DW	02H
	DB	0dcH
	DB	0c0H
	DB	0dH
	DB	00H
	DB	00H
	ORG $+1
	DW	00H
	DW	02H
	DB	0d8H
	DB	00H
	DB	0fH
	DB	00H
	DB	00H
	ORG $+1
	DW	00H
	DW	02H
	DB	0dcH
	DB	00H
	DB	00H
	DB	00H
	DB	00H
	ORG $+1
	DW	00H
	DW	02H
	DB	0deH
	DB	0c1H
	DB	07aH
	DB	00H
	DB	08H
	ORG $+1
	DW	00H
	DW	02H
	DB	0deH
	DB	0c0H
	DB	00H
	DB	00H
	DB	00H
	ORG $+1
	DW	00H
	DW	02H
	DB	0deH
	DB	0c1H
	DB	079H
	DB	00H
	DB	08H
	ORG $+1
	DW	00H
	DW	02H
	DB	0d8H
	DB	0c8H
	DB	07aH
	DB	00H
	DB	00H
	ORG $+1
	DW	00H
	DW	02H
	DB	0dcH
	DB	0c8H
	DB	0dH
	DB	00H
	DB	00H
	ORG $+1
	DW	00H
	DW	02H
	DB	0d8H
	DB	08H
	DB	0fH
	DB	00H
	DB	00H
	ORG $+1
	DW	00H
	DW	02H
	DB	0dcH
	DB	08H
	DB	00H
	DB	00H
	DB	00H
	ORG $+1
	DW	00H
	DW	02H
	DB	0deH
	DB	0c9H
	DB	07aH
	DB	00H
	DB	08H
	ORG $+1
	DW	00H
	DW	02H
	DB	0deH
	DB	0c8H
	DB	00H
	DB	00H
	DB	00H
	ORG $+1
	DW	00H
	DW	02H
	DB	0deH
	DB	0c9H
	DB	079H
	DB	00H
	DB	08H
	ORG $+1
	DW	00H
	DW	02H
	DB	0d8H
	DB	0f0H
	DB	07aH
	DB	00H
	DB	00H
	ORG $+1
	DW	00H
	DW	02H
	DB	0dcH
	DB	0f8H
	DB	0dH
	DB	00H
	DB	00H
	ORG $+1
	DW	00H
	DW	02H
	DB	0d8H
	DB	030H
	DB	0fH
	DB	00H
	DB	00H
	ORG $+1
	DW	00H
	DW	02H
	DB	0dcH
	DB	030H
	DB	00H
	DB	00H
	DB	00H
	ORG $+1
	DW	00H
	DW	02H
	DB	0deH
	DB	0f9H
	DB	07aH
	DB	00H
	DB	08H
	ORG $+1
	DW	00H
	DW	02H
	DB	0deH
	DB	0f8H
	DB	00H
	DB	00H
	DB	00H
	ORG $+1
	DW	00H
	DW	02H
	DB	0deH
	DB	0f9H
	DB	079H
	DB	00H
	DB	08H
	ORG $+1
	DW	00H
	DW	02H
	DB	0d8H
	DB	0f8H
	DB	07aH
	DB	00H
	DB	00H
	ORG $+1
	DW	00H
	DW	02H
	DB	0dcH
	DB	0f0H
	DB	0dH
	DB	00H
	DB	00H
	ORG $+1
	DW	00H
	DW	02H
	DB	0d8H
	DB	038H
	DB	0fH
	DB	00H
	DB	00H
	ORG $+1
	DW	00H
	DW	02H
	DB	0dcH
	DB	038H
	DB	00H
	DB	00H
	DB	00H
	ORG $+1
	DW	00H
	DW	02H
	DB	0deH
	DB	0f1H
	DB	07aH
	DB	00H
	DB	08H
	ORG $+1
	DW	00H
	DW	02H
	DB	0deH
	DB	0f0H
	DB	00H
	DB	00H
	DB	00H
	ORG $+1
	DW	00H
	DW	02H
	DB	0deH
	DB	0f1H
	DB	079H
	DB	00H
	DB	08H
	ORG $+1
	DW	00H
	DW	02H
	DB	0d8H
	DB	0e0H
	DB	07aH
	DB	00H
	DB	00H
	ORG $+1
	DW	00H
	DW	02H
	DB	0dcH
	DB	0e8H
	DB	0dH
	DB	00H
	DB	00H
	ORG $+1
	DW	00H
	DW	02H
	DB	0d8H
	DB	020H
	DB	0fH
	DB	00H
	DB	00H
	ORG $+1
	DW	00H
	DW	02H
	DB	0dcH
	DB	020H
	DB	00H
	DB	00H
	DB	00H
	ORG $+1
	DW	00H
	DW	02H
	DB	0deH
	DB	0e9H
	DB	07aH
	DB	00H
	DB	08H
	ORG $+1
	DW	00H
	DW	02H
	DB	0deH
	DB	0e8H
	DB	00H
	DB	00H
	DB	00H
	ORG $+1
	DW	00H
	DW	02H
	DB	0deH
	DB	0e9H
	DB	079H
	DB	00H
	DB	08H
	ORG $+1
	DW	00H
	DW	02H
	DB	0d8H
	DB	0e8H
	DB	07aH
	DB	00H
	DB	00H
	ORG $+1
	DW	00H
	DW	02H
	DB	0dcH
	DB	0e0H
	DB	0dH
	DB	00H
	DB	00H
	ORG $+1
	DW	00H
	DW	02H
	DB	0d8H
	DB	028H
	DB	0fH
	DB	00H
	DB	00H
	ORG $+1
	DW	00H
	DW	02H
	DB	0dcH
	DB	028H
	DB	00H
	DB	00H
	DB	00H
	ORG $+1
	DW	00H
	DW	02H
	DB	0deH
	DB	0e1H
	DB	07aH
	DB	00H
	DB	08H
	ORG $+1
	DW	00H
	DW	02H
	DB	0deH
	DB	0e0H
	DB	00H
	DB	00H
	DB	00H
	ORG $+1
	DW	00H
	DW	02H
	DB	0deH
	DB	0e1H
	DB	0dH
	DB	00H
	DB	08H
	ORG $+1
	DW	00H
	DW	02H
	DB	0daH
	DB	00H
	DB	0aH
	DB	00H
	DB	00H
	ORG $+1
	DW	00H
	DW	02H
	DB	0deH
	DB	00H
	DB	0dH
	DB	00H
	DB	08H
	ORG $+1
	DW	00H
	DW	02H
	DB	0daH
	DB	010H
	DB	0aH
	DB	00H
	DB	00H
	ORG $+1
	DW	00H
	DW	02H
	DB	0deH
	DB	010H
	DB	0dH
	DB	00H
	DB	08H
	ORG $+1
	DW	00H
	DW	02H
	DB	0daH
	DB	018H
	DB	0aH
	DB	00H
	DB	00H
	ORG $+1
	DW	00H
	DW	02H
	DB	0deH
	DB	018H
	DB	0dH
	DB	00H
	DB	08H
	ORG $+1
	DW	00H
	DW	02H
	DB	0daH
	DB	030H
	DB	0aH
	DB	00H
	DB	00H
	ORG $+1
	DW	00H
	DW	02H
	DB	0deH
	DB	030H
	DB	0dH
	DB	00H
	DB	08H
	ORG $+1
	DW	00H
	DW	02H
	DB	0daH
	DB	038H
	DB	0aH
	DB	00H
	DB	00H
	ORG $+1
	DW	00H
	DW	02H
	DB	0deH
	DB	038H
	DB	0dH
	DB	00H
	DB	08H
	ORG $+1
	DW	00H
	DW	02H
	DB	0daH
	DB	08H
	DB	0aH
	DB	00H
	DB	00H
	ORG $+1
	DW	00H
	DW	02H
	DB	0deH
	DB	08H
	DB	0dH
	DB	00H
	DB	08H
	ORG $+1
	DW	00H
	DW	02H
	DB	0daH
	DB	020H
	DB	0aH
	DB	00H
	DB	00H
	ORG $+1
	DW	00H
	DW	02H
	DB	0deH
	DB	020H
	DB	0dH
	DB	00H
	DB	08H
	ORG $+1
	DW	00H
	DW	02H
	DB	0daH
	DB	028H
	DB	0aH
	DB	00H
	DB	00H
	ORG $+1
	DW	00H
	DW	02H
	DB	0deH
	DB	028H
	DB	0dH
	DB	00H
	DB	08H
	ORG $+1
	DW	00H
	DW	02H
	DB	0dbH
	DB	00H
	DB	0fH
	DB	00H
	DB	00H
	ORG $+1
	DW	00H
	DW	02H
	DB	0dfH
	DB	028H
	DB	0aH
	DB	00H
	DB	00H
	ORG $+1
	DW	00H
	DW	02H
	DB	0dfH
	DB	00H
	DB	0dH
	DB	00H
	DB	08H
	ORG $+1
	DW	00H
	DW	02H
	DB	0dbH
	DB	018H
	DB	0fH
	DB	00H
	DB	00H
	ORG $+1
	DW	00H
	DW	02H
	DB	0dfH
	DB	038H
	DB	0aH
	DB	00H
	DB	00H
	ORG $+1
	DW	00H
	DW	02H
	DB	0dfH
	DB	018H
	DB	0dH
	DB	00H
	DB	08H
	ORG $+1
	DW	00H
	DW	02H
	DB	0dbH
	DB	010H
	DB	0aH
	DB	00H
	DB	00H
	ORG $+1
	DW	00H
	DW	02H
	DB	0dfH
	DB	010H
	DB	022H
	DB	00H
	DB	08H
	ORG $+1
	DW	00H
	DW	02H
	DB	0d9H
	DB	0c0H
	DB	0dH
	DB	00H
	DB	00H
	ORG $+1
	DW	00H
	DW	02H
	DB	0d9H
	DB	00H
	DB	0fH
	DB	00H
	DB	00H
	ORG $+1
	DW	00H
	DW	02H
	DB	0ddH
	DB	00H
	DB	010H
	DB	00H
	DB	00H
	ORG $+1
	DW	00H
	DW	02H
	DB	0dbH
	DB	028H
	DB	022H
	DB	00H
	DB	08H
	ORG $+1
	DW	00H
	DW	02H
	DB	0ddH
	DB	0d8H
	DB	0dH
	DB	00H
	DB	00H
	ORG $+1
	DW	00H
	DW	02H
	DB	0d9H
	DB	018H
	DB	0fH
	DB	00H
	DB	00H
	ORG $+1
	DW	00H
	DW	02H
	DB	0ddH
	DB	018H
	DB	010H
	DB	00H
	DB	00H
	ORG $+1
	DW	00H
	DW	02H
	DB	0dbH
	DB	038H
	DB	022H
	DB	00H
	DB	08H
	ORG $+1
	DW	00H
	DW	02H
	DB	0ddH
	DB	0d0H
	DB	0dH
	DB	00H
	DB	00H
	ORG $+1
	DW	00H
	DW	02H
	DB	0d9H
	DB	010H
	DB	0fH
	DB	00H
	DB	00H
	ORG $+1
	DW	00H
	DW	02H
	DB	0ddH
	DB	010H
	DB	014H
	DB	00H
	DB	08H
	ORG $+1
	DW	00H
	DW	02H
	DB	0d9H
	DB	020H
	DB	014H
	DB	02H
	DB	08H
	ORG $+1
	DW	00H
	DW	04H
	DB	0d9H
	DB	020H
	DB	014H
	DB	01H
	DB	08H
	ORG $+1
	DW	00H
	DW	02H
	DB	0d9H
	DB	020H
	DB	014H
	DB	00H
	DB	0dH
	ORG $+1
	DW	05H
	DW	02H
	DB	0ddH
	DB	030H
	DB	014H
	DB	02H
	DB	0dH
	ORG $+1
	DW	05H
	DW	04H
	DB	0ddH
	DB	030H
	DB	014H
	DB	01H
	DB	0dH
	ORG $+1
	DW	05H
	DW	02H
	DB	0ddH
	DB	030H
	DB	014H
	DB	00H
	DB	0dH
	ORG $+1
	DW	05H
	DW	02H
	DB	0d9H
	DB	030H
	DB	014H
	DB	02H
	DB	0dH
	ORG $+1
	DW	05H
	DW	04H
	DB	0d9H
	DB	030H
	DB	014H
	DB	01H
	DB	0dH
	ORG $+1
	DW	05H
	DW	02H
	DB	0d9H
	DB	030H
	DB	014H
	DB	00H
	DB	08H
	ORG $+1
	DW	00H
	DW	02H
	DB	0ddH
	DB	020H
	DB	014H
	DB	02H
	DB	08H
	ORG $+1
	DW	00H
	DW	04H
	DB	0ddH
	DB	020H
	DB	014H
	DB	01H
	DB	08H
	ORG $+1
	DW	00H
	DW	02H
	DB	0ddH
	DB	020H
	DB	014H
	DB	00H
	DB	0cH
	ORG $+1
	DW	04H
	DW	02H
	DB	0ddH
	DB	030H
	DB	014H
	DB	02H
	DB	0cH
	ORG $+1
	DW	04H
	DW	04H
	DB	0ddH
	DB	030H
	DB	014H
	DB	01H
	DB	0cH
	ORG $+1
	DW	04H
	DW	02H
	DB	0ddH
	DB	030H
	DB	014H
	DB	00H
	DB	0cH
	ORG $+1
	DW	04H
	DW	02H
	DB	0d9H
	DB	030H
	DB	014H
	DB	02H
	DB	0cH
	ORG $+1
	DW	04H
	DW	04H
	DB	0d9H
	DB	030H
	DB	014H
	DB	01H
	DB	0cH
	ORG $+1
	DW	04H
	DW	02H
	DB	0d9H
	DB	030H
	DB	0aH
	DB	00H
	DB	08H
	ORG $+1
	DW	00H
	DW	02H
	DB	0d9H
	DB	028H
	DB	0aH
	DB	00H
	DB	0dH
	ORG $+1
	DW	05H
	DW	02H
	DB	0d9H
	DB	038H
	DB	01H
	DB	00H
	DB	02dH
	ORG $+1
	DW	05H
	DW	03H
	DB	0dfH
	DB	0e0H
	DB	0aH
	DB	00H
	DB	05H
	ORG $+1
	DW	05H
	DW	02H
	DB	0ddH
	DB	038H
	DB	0aH
	DB	00H
	DB	0cH
	ORG $+1
	DW	04H
	DW	02H
	DB	0d9H
	DB	038H
	DB	01H
	DB	00H
	DB	02cH
	ORG $+1
	DW	04H
	DW	03H
	DB	0dfH
	DB	0e0H
	DB	0aH
	DB	00H
	DB	04H
	ORG $+1
	DW	04H
	DW	02H
	DB	0ddH
	DB	038H
	DB	00H
	DB	00H
	DB	08H
	ORG $+1
	DW	00H
	DW	04H
	DB	0d9H
	DB	0ffH
	DB	00H
	DB	00H
	DB	08H
	ORG $+1
	DW	00H
	DW	02H
	DB	0d9H
	DB	0f3H
	DB	00H
	DB	00H
	DB	08H
	ORG $+1
	DW	00H
	DW	02H
	DB	0d9H
	DB	0f2H
	DB	00H
	DB	00H
	DB	08H
	ORG $+1
	DW	00H
	DW	04H
	DB	0d9H
	DB	0feH
	DB	00H
	DB	00H
	DB	08H
	ORG $+1
	DW	00H
	DW	04H
	DB	0d9H
	DB	0fbH
	DB	00H
	DB	00H
	DB	0cH
	ORG $+1
	DW	04H
	DW	02H
	DB	0dbH
	DB	0e3H
	DB	00H
	DB	00H
	DB	0dH
	ORG $+1
	DW	05H
	DW	02H
	DB	0dbH
	DB	0e3H
	DB	00H
	DB	00H
	DB	0cH
	ORG $+1
	DW	04H
	DW	02H
	DB	0dbH
	DB	0e1H
	DB	00H
	DB	00H
	DB	0dH
	ORG $+1
	DW	05H
	DW	02H
	DB	0dbH
	DB	0e1H
	DB	00H
	DB	00H
	DB	0cH
	ORG $+1
	DW	04H
	DW	02H
	DB	0dbH
	DB	0e0H
	DB	00H
	DB	00H
	DB	0dH
	ORG $+1
	DW	05H
	DW	02H
	DB	0dbH
	DB	0e0H
	DB	00H
	DB	00H
	DB	0cH
	ORG $+1
	DW	04H
	DW	02H
	DB	0dbH
	DB	0e2H
	DB	00H
	DB	00H
	DB	0dH
	ORG $+1
	DW	05H
	DW	02H
	DB	0dbH
	DB	0e2H
	DB	00H
	DB	00H
	DB	08H
	ORG $+1
	DW	00H
	DW	02H
	DB	0d9H
	DB	0f0H
	DB	00H
	DB	00H
	DB	08H
	ORG $+1
	DW	00H
	DW	02H
	DB	0d9H
	DB	0e1H
	DB	010H
	DB	00H
	DB	08H
	ORG $+1
	DW	00H
	DW	02H
	DB	0dfH
	DB	020H
	DB	010H
	DB	00H
	DB	08H
	ORG $+1
	DW	00H
	DW	02H
	DB	0dfH
	DB	030H
	DB	00H
	DB	00H
	DB	08H
	ORG $+1
	DW	00H
	DW	02H
	DB	0d9H
	DB	0e0H
	DB	00H
	DB	00H
	DB	08H
	ORG $+1
	DW	00H
	DW	02H
	DB	0d9H
	DB	0e8H
	DB	00H
	DB	00H
	DB	08H
	ORG $+1
	DW	00H
	DW	02H
	DB	0d9H
	DB	0eaH
	DB	00H
	DB	00H
	DB	08H
	ORG $+1
	DW	00H
	DW	02H
	DB	0d9H
	DB	0e9H
	DB	00H
	DB	00H
	DB	08H
	ORG $+1
	DW	00H
	DW	02H
	DB	0d9H
	DB	0ecH
	DB	00H
	DB	00H
	DB	08H
	ORG $+1
	DW	00H
	DW	02H
	DB	0d9H
	DB	0edH
	DB	00H
	DB	00H
	DB	08H
	ORG $+1
	DW	00H
	DW	02H
	DB	0d9H
	DB	0ebH
	DB	00H
	DB	00H
	DB	08H
	ORG $+1
	DW	00H
	DW	02H
	DB	0d9H
	DB	0eeH
	DB	00H
	DB	00H
	DB	08H
	ORG $+1
	DW	00H
	DW	02H
	DB	0d9H
	DB	0f6H
	DB	00H
	DB	00H
	DB	08H
	ORG $+1
	DW	00H
	DW	02H
	DB	0d9H
	DB	0f7H
	DB	022H
	DB	00H
	DB	08H
	ORG $+1
	DW	00H
	DW	02H
	DB	0ddH
	DB	0c0H
	DB	022H
	DB	00H
	DB	08H
	ORG $+1
	DW	00H
	DW	02H
	DB	0dfH
	DB	0c0H
	DB	00H
	DB	00H
	DB	08H
	ORG $+1
	DW	00H
	DW	02H
	DB	0d9H
	DB	0d0H
	DB	00H
	DB	00H
	DB	08H
	ORG $+1
	DW	00H
	DW	02H
	DB	0d9H
	DB	0f8H
	DB	00H
	DB	00H
	DB	08H
	ORG $+1
	DW	00H
	DW	04H
	DB	0d9H
	DB	0f5H
	DB	00H
	DB	00H
	DB	08H
	ORG $+1
	DW	00H
	DW	02H
	DB	0d9H
	DB	0fcH
	DB	00H
	DB	00H
	DB	08H
	ORG $+1
	DW	00H
	DW	02H
	DB	0d9H
	DB	0fdH
	DB	00H
	DB	00H
	DB	08H
	ORG $+1
	DW	00H
	DW	03H
	DB	0dbH
	DB	0e4H
	DB	00H
	DB	00H
	DB	08H
	ORG $+1
	DW	00H
	DW	02H
	DB	0d9H
	DB	0faH
	DB	00H
	DB	00H
	DB	08H
	ORG $+1
	DW	00H
	DW	02H
	DB	0d9H
	DB	0e4H
	DB	00H
	DB	00H
	DB	018H
	ORG $+1
	DW	00H
	DW	02H
	DB	09bH
	DB	00H
	DB	00H
	DB	00H
	DB	08H
	ORG $+1
	DW	00H
	DW	02H
	DB	0d9H
	DB	0e5H
	DB	022H
	DB	00H
	DB	08H
	ORG $+1
	DW	00H
	DW	02H
	DB	0d9H
	DB	0c8H
	DB	00H
	DB	00H
	DB	00H
	ORG $+1
	DW	00H
	DW	02H
	DB	0d9H
	DB	0c9H
	DB	014H
	DB	010H
	DB	028H
	ORG $+1
	DW	00H
	DW	0460H
	DB	0aeH
	DB	08H
	DB	014H
	DB	010H
	DB	028H
	ORG $+1
	DW	00H
	DW	0460H
	DB	0aeH
	DB	00H
	DB	00H
	DB	00H
	DB	08H
	ORG $+1
	DW	00H
	DW	02H
	DB	0d9H
	DB	0f4H
	DB	00H
	DB	00H
	DB	08H
	ORG $+1
	DW	00H
	DW	02H
	DB	0d9H
	DB	0f1H
	DB	00H
	DB	00H
	DB	08H
	ORG $+1
	DW	00H
	DW	02H
	DB	0d9H
	DB	0f9H
	DB	00H
	DB	010H
	DB	018H
	ORG $+1
	DW	00H
	DW	0150H
	DB	077H
	DB	00H
	DB	014H
	DB	010H
	DB	028H
	ORG $+1
	DW	00H
	DW	0860H
	DB	0aeH
	DB	038H
	DB	0dH
	DB	010H
	DB	028H
	ORG $+1
	DW	00H
	DW	0460H
	DB	0aeH
	DB	010H
	DB	0dH
	DB	010H
	DB	028H
	ORG $+1
	DW	00H
	DW	0460H
	DB	0aeH
	DB	018H
	DB	00H
	DB	010H
	DB	028H
	ORG $+1
	DW	00H
	DW	0860H
	DB	0aeH
	DB	0e8H
	DB	00H
	DB	010H
	DB	028H
	ORG $+1
	DW	00H
	DW	0860H
	DB	0aeH
	DB	0f0H
	DB	00H
	DB	010H
	DB	028H
	ORG $+1
	DW	00H
	DW	0460H
	DB	0aeH
	DB	0f8H
	DB	014H
	DB	010H
	DB	028H
	ORG $+1
	DW	00H
	DW	0460H
	DB	018H
	DB	00H
	DB	014H
	DB	010H
	DB	028H
	ORG $+1
	DW	00H
	DW	0460H
	DB	018H
	DB	08H
	DB	014H
	DB	010H
	DB	028H
	ORG $+1
	DW	00H
	DW	0460H
	DB	018H
	DB	010H
	DB	014H
	DB	010H
	DB	028H
	ORG $+1
	DW	00H
	DW	0460H
	DB	018H
	DB	018H
	DB	00H
	DB	05H
	DB	018H
	ORG $+1
	DW	00H
	DW	0860H
	DB	090H
	DB	00H
	DB	085H
	DB	012H
	DB	0a9H
	ORG $+1
	DW	08061H
	DW	0860H
	DB	058H
	DB	00H
	DB	085H
	DB	010H
	DB	089H
	ORG $+1
	DW	041H
	DW	0460H
	DB	058H
	DB	00H
	DB	084H
	DB	013H
	DB	0aeH
	ORG $+1
	DW	08066H
	DW	0860H
	DB	058H
	DB	00H
	DB	083H
	DB	014H
	DB	08eH
	ORG $+1
	DW	046H
	DW	0460H
	DB	058H
	DB	00H
	DB	085H
	DB	012H
	DB	0a9H
	ORG $+1
	DW	08061H
	DW	0860H
	DB	05eH
	DB	00H
	DB	085H
	DB	010H
	DB	089H
	ORG $+1
	DW	041H
	DW	0460H
	DB	05eH
	DB	00H
	DB	084H
	DB	013H
	DB	0aeH
	ORG $+1
	DW	08066H
	DW	0860H
	DB	05eH
	DB	00H
	DB	083H
	DB	014H
	DB	08eH
	ORG $+1
	DW	046H
	DW	0460H
	DB	05eH
	DB	00H
	DB	085H
	DB	012H
	DB	0a9H
	ORG $+1
	DW	08061H
	DW	0860H
	DB	05fH
	DB	00H
	DB	085H
	DB	010H
	DB	089H
	ORG $+1
	DW	041H
	DW	0460H
	DB	05fH
	DB	00H
	DB	084H
	DB	013H
	DB	0aeH
	ORG $+1
	DW	08066H
	DW	0860H
	DB	05fH
	DB	00H
	DB	083H
	DB	014H
	DB	08eH
	ORG $+1
	DW	046H
	DW	0460H
	DB	05fH
	DB	00H
	DB	085H
	DB	012H
	DB	0a9H
	ORG $+1
	DW	08061H
	DW	0860H
	DB	05dH
	DB	00H
	DB	085H
	DB	010H
	DB	089H
	ORG $+1
	DW	041H
	DW	0460H
	DB	05dH
	DB	00H
	DB	084H
	DB	013H
	DB	0aeH
	ORG $+1
	DW	08066H
	DW	0860H
	DB	05dH
	DB	00H
	DB	083H
	DB	014H
	DB	08eH
	ORG $+1
	DW	046H
	DW	0460H
	DB	05dH
	DB	00H
	DB	085H
	DB	012H
	DB	0a9H
	ORG $+1
	DW	08061H
	DW	0860H
	DB	059H
	DB	00H
	DB	085H
	DB	010H
	DB	089H
	ORG $+1
	DW	041H
	DW	0460H
	DB	059H
	DB	00H
	DB	084H
	DB	013H
	DB	0aeH
	ORG $+1
	DW	08066H
	DW	0860H
	DB	059H
	DB	00H
	DB	083H
	DB	014H
	DB	08eH
	ORG $+1
	DW	046H
	DW	0460H
	DB	059H
	DB	00H
	DB	085H
	DB	012H
	DB	0a9H
	ORG $+1
	DW	08061H
	DW	0860H
	DB	051H
	DB	00H
	DB	085H
	DB	010H
	DB	089H
	ORG $+1
	DW	041H
	DW	0460H
	DB	051H
	DB	00H
	DB	084H
	DB	013H
	DB	0aeH
	ORG $+1
	DW	08066H
	DW	0860H
	DB	051H
	DB	00H
	DB	083H
	DB	014H
	DB	08eH
	ORG $+1
	DW	046H
	DW	0460H
	DB	051H
	DB	00H
	DB	085H
	DB	012H
	DB	0a9H
	ORG $+1
	DW	08061H
	DW	0860H
	DB	05cH
	DB	00H
	DB	085H
	DB	010H
	DB	089H
	ORG $+1
	DW	041H
	DW	0460H
	DB	05cH
	DB	00H
	DB	084H
	DB	013H
	DB	0aeH
	ORG $+1
	DW	08066H
	DW	0860H
	DB	05cH
	DB	00H
	DB	083H
	DB	014H
	DB	08eH
	ORG $+1
	DW	046H
	DW	0460H
	DB	05cH
	DB	00H
	DB	0a9H
	DB	012H
	DB	0a9H
	ORG $+1
	DW	08061H
	DW	0860H
	DB	0c2H
	DB	00H
	DB	0a9H
	DB	010H
	DB	089H
	ORG $+1
	DW	041H
	DW	0460H
	DB	0c2H
	DB	00H
	DB	0a7H
	DB	014H
	DB	08eH
	ORG $+1
	DW	046H
	DW	0460H
	DB	0c2H
	DB	00H
	DB	0a6H
	DB	012H
	DB	0a9H
	ORG $+1
	DW	08061H
	DW	0860H
	DB	0c2H
	DB	00H
	DB	0a6H
	DB	012H
	DB	0a9H
	ORG $+1
	DW	08061H
	DW	0860H
	DB	0c2H
	DB	00H
	DB	0a6H
	DB	012H
	DB	0a9H
	ORG $+1
	DW	08061H
	DW	0860H
	DB	0c2H
	DB	00H
	DB	0a6H
	DB	012H
	DB	0a9H
	ORG $+1
	DW	08061H
	DW	0860H
	DB	0c2H
	DB	00H
	DB	0a6H
	DB	012H
	DB	0a9H
	ORG $+1
	DW	08061H
	DW	0860H
	DB	0c2H
	DB	00H
	DB	0a6H
	DB	012H
	DB	0a9H
	ORG $+1
	DW	08061H
	DW	0860H
	DB	0c2H
	DB	00H
	DB	0a6H
	DB	012H
	DB	0a9H
	ORG $+1
	DW	08061H
	DW	0860H
	DB	0c2H
	DB	00H
	DB	0a6H
	DB	012H
	DB	0a9H
	ORG $+1
	DW	08061H
	DW	0860H
	DB	0c2H
	DB	00H
	DB	0a6H
	DB	012H
	DB	0a9H
	ORG $+1
	DW	08061H
	DW	0860H
	DB	0c2H
	DB	00H
	DB	0a6H
	DB	012H
	DB	0a9H
	ORG $+1
	DW	08061H
	DW	0860H
	DB	0c2H
	DB	00H
	DB	0a6H
	DB	012H
	DB	0a9H
	ORG $+1
	DW	08061H
	DW	0860H
	DB	0c2H
	DB	00H
	DB	0a6H
	DB	012H
	DB	0a9H
	ORG $+1
	DW	08061H
	DW	0860H
	DB	0c2H
	DB	00H
	DB	0a6H
	DB	012H
	DB	0a9H
	ORG $+1
	DW	08061H
	DW	0860H
	DB	0c2H
	DB	00H
	DB	0a6H
	DB	012H
	DB	0a9H
	ORG $+1
	DW	08061H
	DW	0860H
	DB	0c2H
	DB	00H
	DB	0a6H
	DB	012H
	DB	0a9H
	ORG $+1
	DW	08061H
	DW	0860H
	DB	0c2H
	DB	00H
	DB	0a6H
	DB	012H
	DB	0a9H
	ORG $+1
	DW	08061H
	DW	0860H
	DB	0c2H
	DB	00H
	DB	0a6H
	DB	012H
	DB	0a9H
	ORG $+1
	DW	08061H
	DW	0860H
	DB	0c2H
	DB	00H
	DB	0a6H
	DB	012H
	DB	0a9H
	ORG $+1
	DW	08061H
	DW	0860H
	DB	0c2H
	DB	00H
	DB	0a6H
	DB	012H
	DB	0a9H
	ORG $+1
	DW	08061H
	DW	0860H
	DB	0c2H
	DB	00H
	DB	0a6H
	DB	012H
	DB	0a9H
	ORG $+1
	DW	08061H
	DW	0860H
	DB	0c2H
	DB	00H
	DB	0a6H
	DB	012H
	DB	0a9H
	ORG $+1
	DW	08061H
	DW	0860H
	DB	0c2H
	DB	00H
	DB	0a6H
	DB	012H
	DB	0a9H
	ORG $+1
	DW	08061H
	DW	0860H
	DB	0c2H
	DB	00H
	DB	0a6H
	DB	012H
	DB	0a9H
	ORG $+1
	DW	08061H
	DW	0860H
	DB	0c2H
	DB	00H
	DB	0a6H
	DB	012H
	DB	0a9H
	ORG $+1
	DW	08061H
	DW	0860H
	DB	0c2H
	DB	00H
	DB	0a6H
	DB	012H
	DB	0a9H
	ORG $+1
	DW	08061H
	DW	0860H
	DB	0c2H
	DB	00H
	DB	0a6H
	DB	012H
	DB	0a9H
	ORG $+1
	DW	08061H
	DW	0860H
	DB	0c2H
	DB	00H
	DB	0a6H
	DB	012H
	DB	0a9H
	ORG $+1
	DW	08061H
	DW	0860H
	DB	0c2H
	DB	00H
	DB	0a6H
	DB	012H
	DB	0a9H
	ORG $+1
	DW	08061H
	DW	0860H
	DB	0c2H
	DB	00H
	DB	0a6H
	DB	012H
	DB	0a9H
	ORG $+1
	DW	08061H
	DW	0860H
	DB	0c2H
	DB	00H
	DB	0a6H
	DB	012H
	DB	0a9H
	ORG $+1
	DW	08061H
	DW	0860H
	DB	0c2H
	DB	00H
	DB	0a6H
	DB	012H
	DB	0a9H
	ORG $+1
	DW	08061H
	DW	0860H
	DB	0c2H
	DB	00H
	DB	0a6H
	DB	012H
	DB	0a9H
	ORG $+1
	DW	08061H
	DW	0860H
	DB	0c2H
	DB	00H
	DB	0a6H
	DB	010H
	DB	0a9H
	ORG $+1
	DW	041H
	DW	0460H
	DB	0c2H
	DB	00H
	DB	0a6H
	DB	010H
	DB	0a9H
	ORG $+1
	DW	041H
	DW	0460H
	DB	0c2H
	DB	00H
	DB	0a6H
	DB	010H
	DB	0a9H
	ORG $+1
	DW	041H
	DW	0460H
	DB	0c2H
	DB	00H
	DB	0a6H
	DB	010H
	DB	0a9H
	ORG $+1
	DW	041H
	DW	0460H
	DB	0c2H
	DB	00H
	DB	0a6H
	DB	010H
	DB	0a9H
	ORG $+1
	DW	041H
	DW	0460H
	DB	0c2H
	DB	00H
	DB	0a6H
	DB	010H
	DB	0a9H
	ORG $+1
	DW	041H
	DW	0460H
	DB	0c2H
	DB	00H
	DB	0a6H
	DB	010H
	DB	0a9H
	ORG $+1
	DW	041H
	DW	0460H
	DB	0c2H
	DB	00H
	DB	0a6H
	DB	010H
	DB	0a9H
	ORG $+1
	DW	041H
	DW	0460H
	DB	0c2H
	DB	00H
	DB	0a6H
	DB	010H
	DB	0a9H
	ORG $+1
	DW	041H
	DW	0460H
	DB	0c2H
	DB	00H
	DB	0a6H
	DB	010H
	DB	0a9H
	ORG $+1
	DW	041H
	DW	0460H
	DB	0c2H
	DB	00H
	DB	0a6H
	DB	010H
	DB	0a9H
	ORG $+1
	DW	041H
	DW	0460H
	DB	0c2H
	DB	00H
	DB	0a6H
	DB	010H
	DB	0a9H
	ORG $+1
	DW	041H
	DW	0460H
	DB	0c2H
	DB	00H
	DB	0a6H
	DB	010H
	DB	0a9H
	ORG $+1
	DW	041H
	DW	0460H
	DB	0c2H
	DB	00H
	DB	0a6H
	DB	010H
	DB	0a9H
	ORG $+1
	DW	041H
	DW	0460H
	DB	0c2H
	DB	00H
	DB	0a6H
	DB	010H
	DB	0a9H
	ORG $+1
	DW	041H
	DW	0460H
	DB	0c2H
	DB	00H
	DB	0a6H
	DB	010H
	DB	0a9H
	ORG $+1
	DW	041H
	DW	0460H
	DB	0c2H
	DB	00H
	DB	0a6H
	DB	010H
	DB	0a9H
	ORG $+1
	DW	041H
	DW	0460H
	DB	0c2H
	DB	00H
	DB	0a6H
	DB	010H
	DB	0a9H
	ORG $+1
	DW	041H
	DW	0460H
	DB	0c2H
	DB	00H
	DB	0a6H
	DB	010H
	DB	0a9H
	ORG $+1
	DW	041H
	DW	0460H
	DB	0c2H
	DB	00H
	DB	0a6H
	DB	010H
	DB	0a9H
	ORG $+1
	DW	041H
	DW	0460H
	DB	0c2H
	DB	00H
	DB	0a6H
	DB	010H
	DB	0a9H
	ORG $+1
	DW	041H
	DW	0460H
	DB	0c2H
	DB	00H
	DB	0a6H
	DB	010H
	DB	0a9H
	ORG $+1
	DW	041H
	DW	0460H
	DB	0c2H
	DB	00H
	DB	0a6H
	DB	010H
	DB	0a9H
	ORG $+1
	DW	041H
	DW	0460H
	DB	0c2H
	DB	00H
	DB	0a6H
	DB	010H
	DB	0a9H
	ORG $+1
	DW	041H
	DW	0460H
	DB	0c2H
	DB	00H
	DB	0a6H
	DB	010H
	DB	0a9H
	ORG $+1
	DW	041H
	DW	0460H
	DB	0c2H
	DB	00H
	DB	0a6H
	DB	010H
	DB	0a9H
	ORG $+1
	DW	041H
	DW	0460H
	DB	0c2H
	DB	00H
	DB	0a6H
	DB	010H
	DB	0a9H
	ORG $+1
	DW	041H
	DW	0460H
	DB	0c2H
	DB	00H
	DB	0a6H
	DB	010H
	DB	0a9H
	ORG $+1
	DW	041H
	DW	0460H
	DB	0c2H
	DB	00H
	DB	0a6H
	DB	010H
	DB	0a9H
	ORG $+1
	DW	041H
	DW	0460H
	DB	0c2H
	DB	00H
	DB	0a6H
	DB	010H
	DB	0a9H
	ORG $+1
	DW	041H
	DW	0460H
	DB	0c2H
	DB	00H
	DB	0a6H
	DB	010H
	DB	0a9H
	ORG $+1
	DW	041H
	DW	0460H
	DB	0c2H
	DB	00H
	DB	0a6H
	DB	010H
	DB	0a9H
	ORG $+1
	DW	041H
	DW	0460H
	DB	0c2H
	DB	00H
	DB	0a5H
	DB	013H
	DB	0aeH
	ORG $+1
	DW	08066H
	DW	0860H
	DB	0c2H
	DB	00H
	DB	0a5H
	DB	013H
	DB	0aeH
	ORG $+1
	DW	08066H
	DW	0860H
	DB	0c2H
	DB	00H
	DB	0a5H
	DB	013H
	DB	0aeH
	ORG $+1
	DW	08066H
	DW	0860H
	DB	0c2H
	DB	00H
	DB	0a5H
	DB	013H
	DB	0aeH
	ORG $+1
	DW	08066H
	DW	0860H
	DB	0c2H
	DB	00H
	DB	0a5H
	DB	013H
	DB	0aeH
	ORG $+1
	DW	08066H
	DW	0860H
	DB	0c2H
	DB	00H
	DB	0a5H
	DB	013H
	DB	0aeH
	ORG $+1
	DW	08066H
	DW	0860H
	DB	0c2H
	DB	00H
	DB	0a5H
	DB	013H
	DB	0aeH
	ORG $+1
	DW	08066H
	DW	0860H
	DB	0c2H
	DB	00H
	DB	0a5H
	DB	013H
	DB	0aeH
	ORG $+1
	DW	08066H
	DW	0860H
	DB	0c2H
	DB	00H
	DB	0a5H
	DB	013H
	DB	0aeH
	ORG $+1
	DW	08066H
	DW	0860H
	DB	0c2H
	DB	00H
	DB	0a5H
	DB	013H
	DB	0aeH
	ORG $+1
	DW	08066H
	DW	0860H
	DB	0c2H
	DB	00H
	DB	0a5H
	DB	013H
	DB	0aeH
	ORG $+1
	DW	08066H
	DW	0860H
	DB	0c2H
	DB	00H
	DB	0a5H
	DB	013H
	DB	0aeH
	ORG $+1
	DW	08066H
	DW	0860H
	DB	0c2H
	DB	00H
	DB	0a5H
	DB	013H
	DB	0aeH
	ORG $+1
	DW	08066H
	DW	0860H
	DB	0c2H
	DB	00H
	DB	0a5H
	DB	013H
	DB	0aeH
	ORG $+1
	DW	08066H
	DW	0860H
	DB	0c2H
	DB	00H
	DB	0a5H
	DB	013H
	DB	0aeH
	ORG $+1
	DW	08066H
	DW	0860H
	DB	0c2H
	DB	00H
	DB	0a5H
	DB	013H
	DB	0aeH
	ORG $+1
	DW	08066H
	DW	0860H
	DB	0c2H
	DB	00H
	DB	0a5H
	DB	013H
	DB	0aeH
	ORG $+1
	DW	08066H
	DW	0860H
	DB	0c2H
	DB	00H
	DB	0a5H
	DB	013H
	DB	0aeH
	ORG $+1
	DW	08066H
	DW	0860H
	DB	0c2H
	DB	00H
	DB	0a5H
	DB	013H
	DB	0aeH
	ORG $+1
	DW	08066H
	DW	0860H
	DB	0c2H
	DB	00H
	DB	0a5H
	DB	013H
	DB	0aeH
	ORG $+1
	DW	08066H
	DW	0860H
	DB	0c2H
	DB	00H
	DB	0a5H
	DB	013H
	DB	0aeH
	ORG $+1
	DW	08066H
	DW	0860H
	DB	0c2H
	DB	00H
	DB	0a5H
	DB	013H
	DB	0aeH
	ORG $+1
	DW	08066H
	DW	0860H
	DB	0c2H
	DB	00H
	DB	0a5H
	DB	013H
	DB	0aeH
	ORG $+1
	DW	08066H
	DW	0860H
	DB	0c2H
	DB	00H
	DB	0a5H
	DB	013H
	DB	0aeH
	ORG $+1
	DW	08066H
	DW	0860H
	DB	0c2H
	DB	00H
	DB	0a5H
	DB	013H
	DB	0aeH
	ORG $+1
	DW	08066H
	DW	0860H
	DB	0c2H
	DB	00H
	DB	0a5H
	DB	013H
	DB	0aeH
	ORG $+1
	DW	08066H
	DW	0860H
	DB	0c2H
	DB	00H
	DB	0a5H
	DB	013H
	DB	0aeH
	ORG $+1
	DW	08066H
	DW	0860H
	DB	0c2H
	DB	00H
	DB	0a5H
	DB	013H
	DB	0aeH
	ORG $+1
	DW	08066H
	DW	0860H
	DB	0c2H
	DB	00H
	DB	0a5H
	DB	013H
	DB	0aeH
	ORG $+1
	DW	08066H
	DW	0860H
	DB	0c2H
	DB	00H
	DB	0a5H
	DB	013H
	DB	0aeH
	ORG $+1
	DW	08066H
	DW	0860H
	DB	0c2H
	DB	00H
	DB	0a5H
	DB	013H
	DB	0aeH
	ORG $+1
	DW	08066H
	DW	0860H
	DB	0c2H
	DB	00H
	DB	0a5H
	DB	013H
	DB	0aeH
	ORG $+1
	DW	08066H
	DW	0860H
	DB	0c2H
	DB	00H
	DB	0a4H
	DB	014H
	DB	0aeH
	ORG $+1
	DW	046H
	DW	0460H
	DB	0c2H
	DB	00H
	DB	0a4H
	DB	014H
	DB	0aeH
	ORG $+1
	DW	046H
	DW	0460H
	DB	0c2H
	DB	00H
	DB	0a4H
	DB	014H
	DB	0aeH
	ORG $+1
	DW	046H
	DW	0460H
	DB	0c2H
	DB	00H
	DB	0a4H
	DB	014H
	DB	0aeH
	ORG $+1
	DW	046H
	DW	0460H
	DB	0c2H
	DB	00H
	DB	0a4H
	DB	014H
	DB	0aeH
	ORG $+1
	DW	046H
	DW	0460H
	DB	0c2H
	DB	00H
	DB	0a4H
	DB	014H
	DB	0aeH
	ORG $+1
	DW	046H
	DW	0460H
	DB	0c2H
	DB	00H
	DB	0a4H
	DB	014H
	DB	0aeH
	ORG $+1
	DW	046H
	DW	0460H
	DB	0c2H
	DB	00H
	DB	0a4H
	DB	014H
	DB	0aeH
	ORG $+1
	DW	046H
	DW	0460H
	DB	0c2H
	DB	00H
	DB	0a4H
	DB	014H
	DB	0aeH
	ORG $+1
	DW	046H
	DW	0460H
	DB	0c2H
	DB	00H
	DB	0a4H
	DB	014H
	DB	0aeH
	ORG $+1
	DW	046H
	DW	0460H
	DB	0c2H
	DB	00H
	DB	0a4H
	DB	014H
	DB	0aeH
	ORG $+1
	DW	046H
	DW	0460H
	DB	0c2H
	DB	00H
	DB	0a4H
	DB	014H
	DB	0aeH
	ORG $+1
	DW	046H
	DW	0460H
	DB	0c2H
	DB	00H
	DB	0a4H
	DB	014H
	DB	0aeH
	ORG $+1
	DW	046H
	DW	0460H
	DB	0c2H
	DB	00H
	DB	0a4H
	DB	014H
	DB	0aeH
	ORG $+1
	DW	046H
	DW	0460H
	DB	0c2H
	DB	00H
	DB	0a4H
	DB	014H
	DB	0aeH
	ORG $+1
	DW	046H
	DW	0460H
	DB	0c2H
	DB	00H
	DB	0a4H
	DB	014H
	DB	0aeH
	ORG $+1
	DW	046H
	DW	0460H
	DB	0c2H
	DB	00H
	DB	0a4H
	DB	014H
	DB	0aeH
	ORG $+1
	DW	046H
	DW	0460H
	DB	0c2H
	DB	00H
	DB	0a4H
	DB	014H
	DB	0aeH
	ORG $+1
	DW	046H
	DW	0460H
	DB	0c2H
	DB	00H
	DB	0a4H
	DB	014H
	DB	0aeH
	ORG $+1
	DW	046H
	DW	0460H
	DB	0c2H
	DB	00H
	DB	0a4H
	DB	014H
	DB	0aeH
	ORG $+1
	DW	046H
	DW	0460H
	DB	0c2H
	DB	00H
	DB	0a4H
	DB	014H
	DB	0aeH
	ORG $+1
	DW	046H
	DW	0460H
	DB	0c2H
	DB	00H
	DB	0a4H
	DB	014H
	DB	0aeH
	ORG $+1
	DW	046H
	DW	0460H
	DB	0c2H
	DB	00H
	DB	0a4H
	DB	014H
	DB	0aeH
	ORG $+1
	DW	046H
	DW	0460H
	DB	0c2H
	DB	00H
	DB	0a4H
	DB	014H
	DB	0aeH
	ORG $+1
	DW	046H
	DW	0460H
	DB	0c2H
	DB	00H
	DB	0a4H
	DB	014H
	DB	0aeH
	ORG $+1
	DW	046H
	DW	0460H
	DB	0c2H
	DB	00H
	DB	0a4H
	DB	014H
	DB	0aeH
	ORG $+1
	DW	046H
	DW	0460H
	DB	0c2H
	DB	00H
	DB	0a4H
	DB	014H
	DB	0aeH
	ORG $+1
	DW	046H
	DW	0460H
	DB	0c2H
	DB	00H
	DB	0a4H
	DB	014H
	DB	0aeH
	ORG $+1
	DW	046H
	DW	0460H
	DB	0c2H
	DB	00H
	DB	0a4H
	DB	014H
	DB	0aeH
	ORG $+1
	DW	046H
	DW	0460H
	DB	0c2H
	DB	00H
	DB	0a4H
	DB	014H
	DB	0aeH
	ORG $+1
	DW	046H
	DW	0460H
	DB	0c2H
	DB	00H
	DB	0a4H
	DB	014H
	DB	0aeH
	ORG $+1
	DW	046H
	DW	0460H
	DB	0c2H
	DB	00H
	DB	0a4H
	DB	014H
	DB	0aeH
	ORG $+1
	DW	046H
	DW	0460H
	DB	0c2H
	DB	00H
	DB	085H
	DB	012H
	DB	0a9H
	ORG $+1
	DW	08061H
	DW	0860H
	DB	055H
	DB	00H
	DB	085H
	DB	010H
	DB	0a9H
	ORG $+1
	DW	041H
	DW	0460H
	DB	055H
	DB	00H
	DB	085H
	DB	012H
	DB	0a9H
	ORG $+1
	DW	08061H
	DW	0860H
	DB	054H
	DB	00H
	DB	085H
	DB	010H
	DB	0a9H
	ORG $+1
	DW	041H
	DW	0460H
	DB	054H
	DB	00H
	DB	085H
	DB	012H
	DB	0a9H
	ORG $+1
	DW	08061H
	DW	0860H
	DB	056H
	DB	00H
	DB	085H
	DB	010H
	DB	0a9H
	ORG $+1
	DW	041H
	DW	0460H
	DB	056H
	DB	00H
	DB	084H
	DB	012H
	DB	0aeH
	ORG $+1
	DW	08066H
	DW	0860H
	DB	02fH
	DB	00H
	DB	083H
	DB	010H
	DB	0aeH
	ORG $+1
	DW	046H
	DW	0460H
	DB	02fH
	DB	00H
	DB	085H
	DB	012H
	DB	0a9H
	ORG $+1
	DW	08061H
	DW	0860H
	DB	057H
	DB	00H
	DB	085H
	DB	010H
	DB	0a9H
	ORG $+1
	DW	041H
	DW	0460H
	DB	057H
	DB	00H
	DB	048H
	DB	012H
	DB	0a8H
	ORG $+1
	DW	060H
	DW	0860H
	DB	02dH
	DB	00H
	DB	047H
	DB	010H
	DB	0a8H
	ORG $+1
	DW	040H
	DW	0460H
	DB	02dH
	DB	00H
	DB	060H
	DB	013H
	DB	0aeH
	ORG $+1
	DW	066H
	DW	0860H
	DB	02dH
	DB	00H
	DB	05fH
	DB	014H
	DB	0aeH
	ORG $+1
	DW	046H
	DW	0460H
	DB	02dH
	DB	00H
	DB	07fH
	DB	012H
	DB	0a8H
	ORG $+1
	DW	060H
	DW	0860H
	DB	02aH
	DB	00H
	DB	07fH
	DB	010H
	DB	0a8H
	ORG $+1
	DW	040H
	DW	0460H
	DB	02aH
	DB	00H
	DB	080H
	DB	013H
	DB	0aeH
	ORG $+1
	DW	08066H
	DW	0860H
	DB	02aH
	DB	00H
	DB	080H
	DB	014H
	DB	0a8H
	ORG $+1
	DW	040H
	DW	0460H
	DB	02aH
	DB	00H
	DB	048H
	DB	012H
	DB	0a8H
	ORG $+1
	DW	060H
	DW	0860H
	DB	02cH
	DB	00H
	DB	047H
	DB	010H
	DB	0a8H
	ORG $+1
	DW	040H
	DW	0460H
	DB	02cH
	DB	00H
	DB	060H
	DB	013H
	DB	0aeH
	ORG $+1
	DW	08066H
	DW	0860H
	DB	02cH
	DB	00H
	DB	05fH
	DB	014H
	DB	0aeH
	ORG $+1
	DW	046H
	DW	0460H
	DB	02cH
	DB	00H
	DB	085H
	DB	010H
	DB	0a9H
	ORG $+1
	DW	041H
	DW	0860H
	DB	05bH
	DB	00H
	DB	085H
	DB	012H
	DB	0a9H
	ORG $+1
	DW	041H
	DW	0860H
	DB	05bH
	DB	00H
	DB	085H
	DB	014H
	DB	0a9H
	ORG $+1
	DW	08061H
	DW	0860H
	DB	05bH
	DB	00H
	DB	085H
	DB	013H
	DB	0a9H
	ORG $+1
	DW	08061H
	DW	0860H
	DB	0e6H
	DB	00H
	DB	084H
	DB	014H
	DB	0aaH
	ORG $+1
	DW	062H
	DW	0860H
	DB	0e6H
	DB	00H
	DB	085H
	DB	012H
	DB	0a9H
	ORG $+1
	DW	08061H
	DW	0860H
	DB	0e6H
	DB	00H
	DB	085H
	DB	012H
	DB	0a9H
	ORG $+1
	DW	08061H
	DW	0860H
	DB	05aH
	DB	00H
	DB	084H
	DB	010H
	DB	0aaH
	ORG $+1
	DW	042H
	DW	0860H
	DB	05aH
	DB	00H
	DB	084H
	DB	013H
	DB	0aeH
	ORG $+1
	DW	08066H
	DW	0860H
	DB	05aH
	DB	00H
	DB	083H
	DB	014H
	DB	0aeH
	ORG $+1
	DW	08066H
	DW	0860H
	DB	05aH
	DB	00H
	DB	081H
	DB	012H
	DB	0a8H
	ORG $+1
	DW	060H
	DW	0860H
	DB	0f7H
	DB	00H
	DB	040H
	DB	010H
	DB	0a8H
	ORG $+1
	DW	040H
	DW	0460H
	DB	0f7H
	DB	00H
	DB	045H
	DB	010H
	DB	0a8H
	ORG $+1
	DW	060H
	DW	0150H
	DB	06eH
	DB	00H
	DB	080H
	DB	012H
	DB	0a6H
	ORG $+1
	DW	08066H
	DW	0860H
	DB	06eH
	DB	00H
	DB	071H
	DB	012H
	DB	026H
	ORG $+1
	DW	08066H
	DW	0860H
	DB	07eH
	DB	00H
	DB	070H
	DB	010H
	DB	020H
	ORG $+1
	DW	060H
	DW	0150H
	DB	07eH
	DB	00H
	DB	041H
	DB	010H
	DB	0a8H
	ORG $+1
	DW	060H
	DW	0150H
	DB	06fH
	DB	00H
	DB	084H
	DB	014H
	DB	0a6H
	ORG $+1
	DW	08066H
	DW	0860H
	DB	07eH
	DB	00H
	DB	038H
	DB	012H
	DB	026H
	ORG $+1
	DW	08066H
	DW	0860H
	DB	0d6H
	DB	00H
	DB	071H
	DB	012H
	DB	026H
	ORG $+1
	DW	08066H
	DW	0860H
	DB	07eH
	DB	00H
	DB	080H
	DB	012H
	DB	0a6H
	ORG $+1
	DW	08066H
	DW	0860H
	DB	06eH
	DB	00H
	DB	070H
	DB	010H
	DB	020H
	ORG $+1
	DW	060H
	DW	0150H
	DB	07eH
	DB	00H
	DB	037H
	DB	010H
	DB	020H
	ORG $+1
	DW	060H
	DW	0150H
	DB	07fH
	DB	00H
	DB	085H
	DB	012H
	DB	0abH
	ORG $+1
	DW	08063H
	DW	0860H
	DB	028H
	DB	00H
	DB	039H
	DB	012H
	DB	023H
	ORG $+1
	DW	08063H
	DW	0860H
	DB	029H
	DB	00H
	DB	085H
	DB	010H
	DB	0abH
	ORG $+1
	DW	043H
	DW	0460H
	DB	028H
	DB	00H
	DB	039H
	DB	010H
	DB	023H
	ORG $+1
	DW	043H
	DW	0460H
	DB	029H
	DB	00H
	DB	085H
	DB	012H
	DB	0a8H
	ORG $+1
	DW	060H
	DW	0860H
	DB	06fH
	DB	00H
	DB	039H
	DB	012H
	DB	020H
	ORG $+1
	DW	060H
	DW	0860H
	DB	07fH
	DB	00H
	DB	085H
	DB	014H
	DB	0a8H
	ORG $+1
	DW	060H
	DW	0860H
	DB	06fH
	DB	00H
	DB	039H
	DB	014H
	DB	020H
	ORG $+1
	DW	060H
	DW	0860H
	DB	07fH
	DB	00H
	DB	085H
	DB	012H
	DB	0abH
	ORG $+1
	DW	08063H
	DW	0860H
	DB	010H
	DB	00H
	DB	039H
	DB	012H
	DB	023H
	ORG $+1
	DW	08063H
	DW	0860H
	DB	011H
	DB	00H
	DB	085H
	DB	010H
	DB	0abH
	ORG $+1
	DW	043H
	DW	0460H
	DB	010H
	DB	00H
	DB	039H
	DB	010H
	DB	023H
	ORG $+1
	DW	043H
	DW	0460H
	DB	011H
	DB	00H
	DB	07cH
	DB	012H
	DB	0aeH
	ORG $+1
	DW	08066H
	DW	0860H
	DB	016H
	DB	00H
	DB	038H
	DB	012H
	DB	026H
	ORG $+1
	DW	08066H
	DW	0860H
	DB	017H
	DB	00H
	DB	07cH
	DB	010H
	DB	0abH
	ORG $+1
	DW	04bH
	DW	0460H
	DB	016H
	DB	00H
	DB	038H
	DB	010H
	DB	023H
	ORG $+1
	DW	04bH
	DW	0460H
	DB	017H
	DB	00H
	DB	07cH
	DB	012H
	DB	0aeH
	ORG $+1
	DW	08066H
	DW	0860H
	DB	012H
	DB	00H
	DB	038H
	DB	012H
	DB	026H
	ORG $+1
	DW	08066H
	DW	0860H
	DB	013H
	DB	00H
	DB	07cH
	DB	010H
	DB	0abH
	ORG $+1
	DW	04bH
	DW	0460H
	DB	012H
	DB	00H
	DB	038H
	DB	010H
	DB	023H
	ORG $+1
	DW	04bH
	DW	0460H
	DB	013H
	DB	00H
	DB	081H
	DB	010H
	DB	0a8H
	ORG $+1
	DW	040H
	DW	0460H
	DB	012H
	DB	00H
	DB	081H
	DB	010H
	DB	0a8H
	ORG $+1
	DW	040H
	DW	0460H
	DB	016H
	DB	00H
	DB	046H
	DB	013H
	DB	0a8H
	ORG $+1
	DW	08060H
	DW	0860H
	DB	0d6H
	DB	00H
	DB	07eH
	DB	014H
	DB	0a8H
	ORG $+1
	DW	08060H
	DW	0860H
	DB	0d6H
	DB	00H
	DB	05dH
	DB	012H
	DB	0a8H
	ORG $+1
	DW	00H
	DW	0860H
	DB	050H
	DB	00H
	DB	05dH
	DB	010H
	DB	0a8H
	ORG $+1
	DW	00H
	DW	0460H
	DB	050H
	DB	00H
	DB	039H
	DB	012H
	DB	02bH
	ORG $+1
	DW	043H
	DW	0860H
	DB	0e7H
	DB	00H
	DB	03bH
	DB	010H
	DB	02bH
	ORG $+1
	DW	08063H
	DW	0860H
	DB	0c3H
	DB	00H
	DB	039H
	DB	012H
	DB	02bH
	ORG $+1
	DW	08063H
	DW	0860H
	DB	02bH
	DB	00H
	DB	039H
	DB	010H
	DB	02bH
	ORG $+1
	DW	043H
	DW	0460H
	DB	02bH
	DB	00H
	DB	037H
	DB	010H
	DB	02bH
	ORG $+1
	DW	043H
	DW	0460H
	DB	0e7H
	DB	00H
	DB	083H
	DB	014H
	DB	0aeH
	ORG $+1
	DW	046H
	DW	0460H
	DB	010H
	DB	00H
	DB	035H
	DB	014H
	DB	026H
	ORG $+1
	DW	046H
	DW	0460H
	DB	011H
	DB	00H
	DB	041H
	DB	010H
	DB	0a8H
	ORG $+1
	DW	060H
	DW	0150H
	DB	06bH
	DB	00H
	DB	085H
	DB	012H
	DB	0a1H
	ORG $+1
	DW	08061H
	DW	0860H
	DB	06bH
	DB	00H
	DB	041H
	DB	010H
	DB	0a8H
	ORG $+1
	DW	060H
	DW	0150H
	DB	063H
	DB	00H
	DB	085H
	DB	012H
	DB	0a3H
	ORG $+1
	DW	08063H
	DW	0860H
	DB	063H
	DB	00H
	DB	041H
	DB	010H
	DB	0a8H
	ORG $+1
	DW	060H
	DW	0150H
	DB	067H
	DB	00H
	DB	085H
	DB	012H
	DB	0a3H
	ORG $+1
	DW	08063H
	DW	0860H
	DB	067H
	DB	00H
	DB	042H
	DB	010H
	DB	0a8H
	ORG $+1
	DW	060H
	DW	0150H
	DB	0fcH
	DB	00H
	DB	086H
	DB	012H
	DB	0a3H
	ORG $+1
	DW	03H
	DW	0860H
	DB	0fcH
	DB	00H
	DB	043H
	DB	010H
	DB	0a8H
	ORG $+1
	DW	060H
	DW	0150H
	DB	0fdH
	DB	00H
	DB	087H
	DB	012H
	DB	0a3H
	ORG $+1
	DW	023H
	DW	0860H
	DB	0fdH
	DB	00H
	DB	044H
	DB	010H
	DB	0a8H
	ORG $+1
	DW	040H
	DW	0150H
	DB	0feH
	DB	00H
	DB	088H
	DB	012H
	DB	0a1H
	ORG $+1
	DW	041H
	DW	0860H
	DB	0feH
	DB	00H
	DB	041H
	DB	010H
	DB	0a9H
	ORG $+1
	DW	08061H
	DW	0860H
	DB	0d4H
	DB	00H
	DB	089H
	DB	012H
	DB	0a1H
	ORG $+1
	DW	08061H
	DW	0860H
	DB	0d4H
	DB	00H
	DB	042H
	DB	010H
	DB	0a8H
	ORG $+1
	DW	060H
	DW	0150H
	DB	0ecH
	DB	00H
	DB	086H
	DB	012H
	DB	0a3H
	ORG $+1
	DW	08063H
	DW	0860H
	DB	0ecH
	DB	00H
	DB	043H
	DB	010H
	DB	0a8H
	ORG $+1
	DW	060H
	DW	0150H
	DB	0edH
	DB	00H
	DB	087H
	DB	012H
	DB	0a3H
	ORG $+1
	DW	08063H
	DW	0860H
	DB	0edH
	DB	00H
	DB	042H
	DB	010H
	DB	0a8H
	ORG $+1
	DW	060H
	DW	0150H
	DB	0dcH
	DB	00H
	DB	086H
	DB	012H
	DB	0a3H
	ORG $+1
	DW	08063H
	DW	0860H
	DB	0dcH
	DB	00H
	DB	043H
	DB	010H
	DB	0a8H
	ORG $+1
	DW	060H
	DW	0150H
	DB	0ddH
	DB	00H
	DB	087H
	DB	012H
	DB	0a3H
	ORG $+1
	DW	08063H
	DW	0860H
	DB	0ddH
	DB	00H
	DB	041H
	DB	010H
	DB	0a8H
	ORG $+1
	DW	060H
	DW	0150H
	DB	0dbH
	DB	00H
	DB	085H
	DB	012H
	DB	0a1H
	ORG $+1
	DW	08061H
	DW	0860H
	DB	0dbH
	DB	00H
	DB	041H
	DB	010H
	DB	0a8H
	ORG $+1
	DW	060H
	DW	0150H
	DB	0dfH
	DB	00H
	DB	085H
	DB	012H
	DB	0a1H
	ORG $+1
	DW	08061H
	DW	0860H
	DB	0dfH
	DB	00H
	DB	041H
	DB	010H
	DB	0abH
	ORG $+1
	DW	043H
	DW	0460H
	DB	0e0H
	DB	00H
	DB	085H
	DB	012H
	DB	0a3H
	ORG $+1
	DW	08063H
	DW	0860H
	DB	0e0H
	DB	00H
	DB	041H
	DB	010H
	DB	0abH
	ORG $+1
	DW	043H
	DW	0460H
	DB	0e3H
	DB	00H
	DB	085H
	DB	012H
	DB	0a3H
	ORG $+1
	DW	08063H
	DW	0860H
	DB	0e3H
	DB	00H
	DB	041H
	DB	010H
	DB	0a8H
	ORG $+1
	DW	060H
	DW	0150H
	DB	074H
	DB	00H
	DB	085H
	DB	012H
	DB	0a3H
	ORG $+1
	DW	03H
	DW	0860H
	DB	074H
	DB	00H
	DB	041H
	DB	010H
	DB	0a8H
	ORG $+1
	DW	060H
	DW	0150H
	DB	075H
	DB	00H
	DB	085H
	DB	012H
	DB	0a3H
	ORG $+1
	DW	023H
	DW	0860H
	DB	075H
	DB	00H
	DB	041H
	DB	010H
	DB	0a8H
	ORG $+1
	DW	060H
	DW	0150H
	DB	076H
	DB	00H
	DB	085H
	DB	012H
	DB	0a1H
	ORG $+1
	DW	041H
	DW	0860H
	DB	076H
	DB	00H
	DB	041H
	DB	010H
	DB	0a8H
	ORG $+1
	DW	060H
	DW	0150H
	DB	064H
	DB	00H
	DB	085H
	DB	012H
	DB	0a3H
	ORG $+1
	DW	03H
	DW	0860H
	DB	064H
	DB	00H
	DB	041H
	DB	010H
	DB	0a8H
	ORG $+1
	DW	060H
	DW	0150H
	DB	065H
	DB	00H
	DB	085H
	DB	012H
	DB	0a3H
	ORG $+1
	DW	023H
	DW	0860H
	DB	065H
	DB	00H
	DB	041H
	DB	010H
	DB	0a9H
	ORG $+1
	DW	08061H
	DW	0150H
	DB	066H
	DB	00H
	DB	085H
	DB	012H
	DB	0a1H
	ORG $+1
	DW	041H
	DW	0860H
	DB	066H
	DB	00H
	DB	097H
	DB	010H
	DB	0aeH
	ORG $+1
	DW	046H
	DW	0460H
	DB	0c5H
	DB	00H
	DB	098H
	DB	012H
	DB	0a6H
	ORG $+1
	DW	046H
	DW	0460H
	DB	0c5H
	DB	00H
	DB	091H
	DB	01aH
	DB	020H
	ORG $+1
	DW	00H
	DW	04060H
	DB	015H
	DB	00H
	DB	094H
	DB	010H
	DB	0a8H
	ORG $+1
	DW	060H
	DW	0460H
	DB	0c4H
	DB	00H
	DB	09fH
	DB	012H
	DB	0a6H
	ORG $+1
	DW	026H
	DW	0460H
	DB	0c4H
	DB	00H
	DB	041H
	DB	010H
	DB	0a8H
	ORG $+1
	DW	060H
	DW	0150H
	DB	0f5H
	DB	00H
	DB	085H
	DB	012H
	DB	0a3H
	ORG $+1
	DW	023H
	DW	0860H
	DB	0f5H
	DB	00H
	DB	041H
	DB	010H
	DB	0abH
	ORG $+1
	DW	023H
	DW	0460H
	DB	0eeH
	DB	00H
	DB	085H
	DB	012H
	DB	0a3H
	ORG $+1
	DW	023H
	DW	0860H
	DB	0eeH
	DB	00H
	DB	041H
	DB	010H
	DB	0abH
	ORG $+1
	DW	03H
	DW	0460H
	DB	0deH
	DB	00H
	DB	085H
	DB	012H
	DB	0a3H
	ORG $+1
	DW	03H
	DW	0860H
	DB	0deH
	DB	00H
	DB	041H
	DB	010H
	DB	0abH
	ORG $+1
	DW	023H
	DW	0460H
	DB	0eaH
	DB	00H
	DB	085H
	DB	012H
	DB	0a3H
	ORG $+1
	DW	023H
	DW	0860H
	DB	0eaH
	DB	00H
	DB	041H
	DB	010H
	DB	0abH
	ORG $+1
	DW	03H
	DW	0460H
	DB	0daH
	DB	00H
	DB	085H
	DB	012H
	DB	0a3H
	ORG $+1
	DW	03H
	DW	0860H
	DB	0daH
	DB	00H
	DB	059H
	DB	010H
	DB	0a8H
	ORG $+1
	DW	00H
	DW	0460H
	DB	0d7H
	DB	00H
	DB	05dH
	DB	012H
	DB	0a0H
	ORG $+1
	DW	00H
	DW	0860H
	DB	0d7H
	DB	00H
	DB	05eH
	DB	012H
	DB	0a0H
	ORG $+1
	DW	00H
	DW	0860H
	DB	0d7H
	DB	00H
	DB	041H
	DB	010H
	DB	0abH
	ORG $+1
	DW	023H
	DW	0450H
	DB	0e4H
	DB	00H
	DB	085H
	DB	012H
	DB	0a3H
	ORG $+1
	DW	023H
	DW	0860H
	DB	0e4H
	DB	00H
	DB	041H
	DB	010H
	DB	0a8H
	ORG $+1
	DW	020H
	DW	0150H
	DB	0e5H
	DB	00H
	DB	085H
	DB	012H
	DB	0a3H
	ORG $+1
	DW	023H
	DW	0860H
	DB	0e5H
	DB	00H
	DB	041H
	DB	010H
	DB	0a8H
	ORG $+1
	DW	020H
	DW	0150H
	DB	0d5H
	DB	00H
	DB	085H
	DB	012H
	DB	0a3H
	ORG $+1
	DW	023H
	DW	0860H
	DB	0d5H
	DB	00H
	DB	047H
	DB	010H
	DB	0a9H
	ORG $+1
	DW	061H
	DW	0860H
	DB	0f4H
	DB	00H
	DB	084H
	DB	012H
	DB	0a1H
	ORG $+1
	DW	08061H
	DW	0860H
	DB	0f4H
	DB	00H
	DB	085H
	DB	012H
	DB	0a1H
	ORG $+1
	DW	081H
	DW	0860H
	DB	0f4H
	DB	00H
	DB	041H
	DB	010H
	DB	0a8H
	ORG $+1
	DW	060H
	DW	0150H
	DB	0ebH
	DB	00H
	DB	085H
	DB	012H
	DB	0a0H
	ORG $+1
	DW	080H
	DW	0860H
	DB	0ebH
	DB	00H
	DB	041H
	DB	010H
	DB	0abH
	ORG $+1
	DW	023H
	DW	0460H
	DB	0f6H
	DB	00H
	DB	085H
	DB	012H
	DB	0a3H
	ORG $+1
	DW	023H
	DW	0860H
	DB	0f6H
	DB	00H
	DB	0a9H
	DB	012H
	DB	0a9H
	ORG $+1
	DW	041H
	DW	0860H
	DB	070H
	DB	00H
	DB	093H
	DB	010H
	DB	0a8H
	ORG $+1
	DW	020H
	DW	0460H
	DB	070H
	DB	00H
	DB	0a9H
	DB	014H
	DB	0abH
	ORG $+1
	DW	023H
	DW	0860H
	DB	070H
	DB	00H
	DB	0a9H
	DB	013H
	DB	0abH
	ORG $+1
	DW	023H
	DW	0860H
	DB	070H
	DB	00H
	DB	041H
	DB	010H
	DB	0abH
	ORG $+1
	DW	023H
	DW	0150H
	DB	0f1H
	DB	00H
	DB	03fH
	DB	010H
	DB	023H
	ORG $+1
	DW	023H
	DW	0150H
	DB	071H
	DB	030H
	DB	07bH
	DB	012H
	DB	023H
	ORG $+1
	DW	023H
	DW	0860H
	DB	071H
	DB	030H
	DB	085H
	DB	012H
	DB	0a1H
	ORG $+1
	DW	031H
	DW	0860H
	DB	0f1H
	DB	00H
	DB	041H
	DB	010H
	DB	0a8H
	ORG $+1
	DW	060H
	DW	0150H
	DB	0f2H
	DB	00H
	DB	03fH
	DB	010H
	DB	020H
	ORG $+1
	DW	060H
	DW	0150H
	DB	072H
	DB	030H
	DB	07bH
	DB	012H
	DB	021H
	ORG $+1
	DW	041H
	DW	0860H
	DB	072H
	DB	030H
	DB	085H
	DB	012H
	DB	0a1H
	ORG $+1
	DW	051H
	DW	0860H
	DB	0f2H
	DB	00H
	DB	041H
	DB	010H
	DB	0a8H
	ORG $+1
	DW	060H
	DW	0150H
	DB	0f3H
	DB	00H
	DB	03fH
	DB	010H
	DB	020H
	ORG $+1
	DW	060H
	DW	0150H
	DB	073H
	DB	030H
	DB	07bH
	DB	012H
	DB	021H
	ORG $+1
	DW	08061H
	DW	0860H
	DB	073H
	DB	030H
	DB	085H
	DB	012H
	DB	0a1H
	ORG $+1
	DW	08071H
	DW	0860H
	DB	0f3H
	DB	00H
	DB	041H
	DB	010H
	DB	0a8H
	ORG $+1
	DW	060H
	DW	0150H
	DB	0e1H
	DB	00H
	DB	03fH
	DB	010H
	DB	020H
	ORG $+1
	DW	060H
	DW	0150H
	DB	071H
	DB	020H
	DB	07bH
	DB	012H
	DB	023H
	ORG $+1
	DW	023H
	DW	0860H
	DB	071H
	DB	020H
	DB	085H
	DB	012H
	DB	0a1H
	ORG $+1
	DW	031H
	DW	0850H
	DB	0e1H
	DB	00H
	DB	041H
	DB	010H
	DB	0a8H
	ORG $+1
	DW	060H
	DW	0150H
	DB	0e2H
	DB	00H
	DB	03fH
	DB	010H
	DB	020H
	ORG $+1
	DW	060H
	DW	0150H
	DB	072H
	DB	020H
	DB	07bH
	DB	012H
	DB	021H
	ORG $+1
	DW	041H
	DW	0860H
	DB	072H
	DB	020H
	DB	085H
	DB	012H
	DB	0a1H
	ORG $+1
	DW	051H
	DW	0860H
	DB	0e2H
	DB	00H
	DB	041H
	DB	010H
	DB	0a8H
	ORG $+1
	DW	060H
	DW	0150H
	DB	0d1H
	DB	00H
	DB	03fH
	DB	010H
	DB	020H
	ORG $+1
	DW	060H
	DW	0150H
	DB	071H
	DB	010H
	DB	07bH
	DB	012H
	DB	023H
	ORG $+1
	DW	023H
	DW	0860H
	DB	071H
	DB	010H
	DB	085H
	DB	012H
	DB	0a1H
	ORG $+1
	DW	031H
	DW	0860H
	DB	0d1H
	DB	00H
	DB	041H
	DB	010H
	DB	0a8H
	ORG $+1
	DW	060H
	DW	0150H
	DB	0d2H
	DB	00H
	DB	03fH
	DB	010H
	DB	020H
	ORG $+1
	DW	060H
	DW	0150H
	DB	072H
	DB	010H
	DB	07bH
	DB	012H
	DB	021H
	ORG $+1
	DW	041H
	DW	0860H
	DB	072H
	DB	010H
	DB	085H
	DB	012H
	DB	0a1H
	ORG $+1
	DW	051H
	DW	0860H
	DB	0d2H
	DB	00H
	DB	041H
	DB	010H
	DB	0a8H
	ORG $+1
	DW	060H
	DW	0150H
	DB	0d3H
	DB	00H
	DB	03fH
	DB	010H
	DB	020H
	ORG $+1
	DW	060H
	DW	0150H
	DB	073H
	DB	010H
	DB	07bH
	DB	012H
	DB	021H
	ORG $+1
	DW	08061H
	DW	0860H
	DB	073H
	DB	010H
	DB	085H
	DB	012H
	DB	0a1H
	ORG $+1
	DW	08071H
	DW	0860H
	DB	0d3H
	DB	00H
	DB	07bH
	DB	012H
	DB	029H
	ORG $+1
	DW	08061H
	DW	0860H
	DB	073H
	DB	038H
	DB	07bH
	DB	012H
	DB	029H
	ORG $+1
	DW	08061H
	DW	0860H
	DB	073H
	DB	018H
	DB	041H
	DB	010H
	DB	0a8H
	ORG $+1
	DW	060H
	DW	0150H
	DB	0f8H
	DB	00H
	DB	085H
	DB	012H
	DB	0a3H
	ORG $+1
	DW	03H
	DW	0860H
	DB	0f8H
	DB	00H
	DB	041H
	DB	010H
	DB	0a8H
	ORG $+1
	DW	060H
	DW	0150H
	DB	0f9H
	DB	00H
	DB	085H
	DB	012H
	DB	0a3H
	ORG $+1
	DW	023H
	DW	0860H
	DB	0f9H
	DB	00H
	DB	041H
	DB	010H
	DB	0a8H
	ORG $+1
	DW	060H
	DW	0150H
	DB	0faH
	DB	00H
	DB	085H
	DB	012H
	DB	0a1H
	ORG $+1
	DW	041H
	DW	0860H
	DB	0faH
	DB	00H
	DB	041H
	DB	010H
	DB	0a8H
	ORG $+1
	DW	060H
	DW	0860H
	DB	0fbH
	DB	00H
	DB	085H
	DB	012H
	DB	0a1H
	ORG $+1
	DW	08061H
	DW	0860H
	DB	0fbH
	DB	00H
	DB	041H
	DB	010H
	DB	0a8H
	ORG $+1
	DW	060H
	DW	0150H
	DB	0e8H
	DB	00H
	DB	085H
	DB	012H
	DB	0a3H
	ORG $+1
	DW	03H
	DW	0860H
	DB	0e8H
	DB	00H
	DB	041H
	DB	010H
	DB	0a8H
	ORG $+1
	DW	060H
	DW	0150H
	DB	0e9H
	DB	00H
	DB	085H
	DB	012H
	DB	0a3H
	ORG $+1
	DW	023H
	DW	0860H
	DB	0e9H
	DB	00H
	DB	041H
	DB	010H
	DB	0a8H
	ORG $+1
	DW	060H
	DW	0150H
	DB	0d8H
	DB	00H
	DB	085H
	DB	012H
	DB	0a3H
	ORG $+1
	DW	08063H
	DW	0860H
	DB	0d8H
	DB	00H
	DB	041H
	DB	010H
	DB	0a8H
	ORG $+1
	DW	060H
	DW	0150H
	DB	0d9H
	DB	00H
	DB	085H
	DB	012H
	DB	0a3H
	ORG $+1
	DW	08063H
	DW	0860H
	DB	0d9H
	DB	00H
	DB	041H
	DB	010H
	DB	0a8H
	ORG $+1
	DW	060H
	DW	0150H
	DB	0efH
	DB	00H
	DB	085H
	DB	012H
	DB	0a0H
	ORG $+1
	DW	080H
	DW	0860H
	DB	0efH
	DB	00H
	DB	041H
	DB	010H
	DB	0a8H
	ORG $+1
	DW	060H
	DW	0150H
	DB	068H
	DB	00H
	DB	085H
	DB	012H
	DB	0a3H
	ORG $+1
	DW	03H
	DW	0860H
	DB	068H
	DB	00H
	DB	041H
	DB	010H
	DB	0a8H
	ORG $+1
	DW	060H
	DW	0150H
	DB	069H
	DB	00H
	DB	085H
	DB	012H
	DB	0a3H
	ORG $+1
	DW	023H
	DW	0860H
	DB	069H
	DB	00H
	DB	041H
	DB	010H
	DB	0a8H
	ORG $+1
	DW	060H
	DW	0150H
	DB	06aH
	DB	00H
	DB	085H
	DB	012H
	DB	0a1H
	ORG $+1
	DW	041H
	DW	0860H
	DB	06aH
	DB	00H
	DB	041H
	DB	010H
	DB	0a8H
	ORG $+1
	DW	060H
	DW	0150H
	DB	060H
	DB	00H
	DB	085H
	DB	012H
	DB	0a3H
	ORG $+1
	DW	03H
	DW	0860H
	DB	060H
	DB	00H
	DB	041H
	DB	010H
	DB	0a8H
	ORG $+1
	DW	060H
	DW	0150H
	DB	061H
	DB	00H
	DB	085H
	DB	012H
	DB	0a3H
	ORG $+1
	DW	023H
	DW	0860H
	DB	061H
	DB	00H
	DB	041H
	DB	010H
	DB	0a8H
	ORG $+1
	DW	060H
	DW	0150H
	DB	062H
	DB	00H
	DB	085H
	DB	012H
	DB	0a1H
	ORG $+1
	DW	041H
	DW	0860H
	DB	062H
	DB	00H
	DB	085H
	DB	012H
	DB	0a9H
	ORG $+1
	DW	08061H
	DW	0860H
	DB	06dH
	DB	00H
	DB	085H
	DB	012H
	DB	0a9H
	ORG $+1
	DW	08061H
	DW	0860H
	DB	06cH
	DB	00H
	DB	085H
	DB	010H
	DB	0a8H
	ORG $+1
	DW	040H
	DW	0460H
	DB	053H
	DB	00H
	DB	083H
	DB	014H
	DB	0a8H
	ORG $+1
	DW	040H
	DW	0460H
	DB	053H
	DB	00H
	DB	085H
	DB	010H
	DB	0a8H
	ORG $+1
	DW	040H
	DW	0460H
	DB	052H
	DB	00H
	DB	083H
	DB	014H
	DB	0a8H
	ORG $+1
	DW	040H
	DW	0460H
	DB	052H
	DB	00H
	DB	0a9H
	DB	012H
	DB	0a9H
	ORG $+1
	DW	08061H
	DW	0860H
	DB	0c6H
	DB	00H
	DB	0a9H
	DB	010H
	DB	0a9H
	ORG $+1
	DW	041H
	DW	0460H
	DB	0c6H
	DB	00H
	DB	084H
	DB	012H
	DB	0aeH
	ORG $+1
	DW	08066H
	DW	0860H
	DB	02eH
	DB	00H
	DB	083H
	DB	010H
	DB	0aeH
	ORG $+1
	DW	046H
	DW	0460H
	DB	02eH
	DB	00H
	DB	085H
	DB	012H
	DB	0a9H
	ORG $+1
	DW	08061H
	DW	0860H
	DB	015H
	DB	00H
	DB	085H
	DB	010H
	DB	0a9H
	ORG $+1
	DW	041H
	DW	0460H
	DB	015H
	DB	00H
	DB	085H
	DB	012H
	DB	0a9H
	ORG $+1
	DW	08061H
	DW	0860H
	DB	014H
	DB	00H
	DB	085H
	DB	010H
	DB	0a9H
	ORG $+1
	DW	041H
	DW	0460H
	DB	014H
	DB	00H
	DB	00H
	DB	010H
	DB	018H
	ORG $+1
	DW	00H
	DW	0250H
	DB	0eH
	DB	00H
	DB	014H
	DB	010H
	DB	028H
	ORG $+1
	DW	00H
	DW	0250H
	DB	0dH
	DB	00H
	DB	014H
	DB	010H
	DB	028H
	ORG $+1
	DW	00H
	DW	0250H
	DB	0dH
	DB	08H
	DB	041H
	DB	011H
	DB	0a8H
	ORG $+1
	DW	00H
	DW	0250H
	DB	0bfH
	DB	00H
	DB	041H
	DB	011H
	DB	0a8H
	ORG $+1
	DW	00H
	DW	0250H
	DB	01dH
	DB	00H
	DB	041H
	DB	011H
	DB	0a8H
	ORG $+1
	DW	00H
	DW	0250H
	DB	01cH
	DB	00H
	DB	041H
	DB	011H
	DB	0a8H
	ORG $+1
	DW	00H
	DW	0250H
	DB	0aeH
	DB	00H
	DB	041H
	DB	011H
	DB	0a8H
	ORG $+1
	DW	00H
	DW	0250H
	DB	09eH
	DB	00H
	DB	041H
	DB	011H
	DB	0a8H
	ORG $+1
	DW	00H
	DW	0250H
	DB	0b0H
	DB	00H
	DB	041H
	DB	011H
	DB	0a8H
	ORG $+1
	DW	00H
	DW	0250H
	DB	090H
	DB	00H
	DB	041H
	DB	011H
	DB	0a8H
	ORG $+1
	DW	00H
	DW	0250H
	DB	0a0H
	DB	00H
	DB	041H
	DB	011H
	DB	0a8H
	ORG $+1
	DW	00H
	DW	0250H
	DB	0a4H
	DB	00H
	DB	041H
	DB	011H
	DB	0a8H
	ORG $+1
	DW	00H
	DW	0250H
	DB	094H
	DB	00H
	DB	041H
	DB	011H
	DB	0a8H
	ORG $+1
	DW	00H
	DW	0250H
	DB	0b4H
	DB	00H
	DB	041H
	DB	011H
	DB	0a8H
	ORG $+1
	DW	00H
	DW	0250H
	DB	08aH
	DB	00H
	DB	041H
	DB	011H
	DB	0a8H
	ORG $+1
	DW	00H
	DW	0250H
	DB	08eH
	DB	00H
	DB	041H
	DB	011H
	DB	0a8H
	ORG $+1
	DW	00H
	DW	0250H
	DB	096H
	DB	00H
	DB	041H
	DB	011H
	DB	0a8H
	ORG $+1
	DW	00H
	DW	0250H
	DB	0a6H
	DB	00H
	DB	041H
	DB	011H
	DB	0a8H
	ORG $+1
	DW	00H
	DW	0250H
	DB	0b6H
	DB	00H
	DB	041H
	DB	011H
	DB	0a8H
	ORG $+1
	DW	00H
	DW	0250H
	DB	0a7H
	DB	00H
	DB	041H
	DB	011H
	DB	0a8H
	ORG $+1
	DW	00H
	DW	0250H
	DB	097H
	DB	00H
	DB	041H
	DB	011H
	DB	0a8H
	ORG $+1
	DW	00H
	DW	0250H
	DB	09aH
	DB	00H
	DB	041H
	DB	011H
	DB	0a8H
	ORG $+1
	DW	00H
	DW	0250H
	DB	0aaH
	DB	00H
	DB	041H
	DB	011H
	DB	0a8H
	ORG $+1
	DW	00H
	DW	0250H
	DB	0dH
	DB	00H
	DB	041H
	DB	011H
	DB	0a8H
	ORG $+1
	DW	00H
	DW	0250H
	DB	0cH
	DB	00H
	DB	041H
	DB	011H
	DB	0a8H
	ORG $+1
	DW	00H
	DW	0250H
	DB	0b7H
	DB	00H
	DB	041H
	DB	011H
	DB	0a8H
	ORG $+1
	DW	00H
	DW	0250H
	DB	0bbH
	DB	00H
	DB	085H
	DB	012H
	DB	0a8H
	ORG $+1
	DW	00H
	DW	01060H
	DB	0d0H
	DB	00H
	DB	085H
	DB	013H
	DB	0a8H
	ORG $+1
	DW	00H
	DW	01060H
	DB	0d0H
	DB	00H
	DB	0dH
	DB	00H
	DB	028H
	ORG $+1
	DW	00H
	DW	01060H
	DB	0dbH
	DB	08H
	DB	0fH
	DB	00H
	DB	020H
	ORG $+1
	DW	00H
	DW	01060H
	DB	0ddH
	DB	08H
	DB	0aH
	DB	00H
	DB	020H
	ORG $+1
	DW	00H
	DW	01060H
	DB	0dfH
	DB	08H
	DB	085H
	DB	012H
	DB	0a8H
	ORG $+1
	DW	00H
	DW	01060H
	DB	07cH
	DB	00H
	DB	085H
	DB	013H
	DB	0a8H
	ORG $+1
	DW	00H
	DW	01060H
	DB	07cH
	DB	00H
	DB	085H
	DB	012H
	DB	0a8H
	ORG $+1
	DW	00H
	DW	01060H
	DB	07dH
	DB	00H
	DB	085H
	DB	013H
	DB	0a8H
	ORG $+1
	DW	00H
	DW	01060H
	DB	07dH
	DB	00H
	DB	07dH
	DB	013H
	DB	0a8H
	ORG $+1
	DW	00H
	DW	01060H
	DB	0f0H
	DB	00H
	DB	00H
	DB	010H
	DB	08H
	ORG $+1
	DW	00H
	DW	01060H
	DB	01H
	DB	0c8H
	DB	084H
	DB	013H
	DB	0acH
	ORG $+1
	DW	08074H
	DW	01060H
	DB	012H
	DB	00H
	DB	085H
	DB	014H
	DB	0abH
	ORG $+1
	DW	043H
	DW	01060H
	DB	016H
	DB	00H
	DB	085H
	DB	014H
	DB	0abH
	ORG $+1
	DW	043H
	DW	01060H
	DB	012H
	DB	00H
	DB	00H
	DB	010H
	DB	08H
	ORG $+1
	DW	00H
	DW	01060H
	DB	01H
	DB	0c9H
	DB	041H
	DB	017H
	DB	0a8H
	ORG $+1
	DW	00H
	DW	02060H
	DB	01cH
	DB	00H
	DB	085H
	DB	019H
	DB	0a3H
	ORG $+1
	DW	03H
	DW	02060H
	DB	01cH
	DB	00H
	DB	041H
	DB	017H
	DB	0a8H
	ORG $+1
	DW	00H
	DW	02060H
	DB	01eH
	DB	00H
	DB	085H
	DB	019H
	DB	0a1H
	ORG $+1
	DW	041H
	DW	02060H
	DB	01eH
	DB	00H
	DB	041H
	DB	017H
	DB	0a8H
	ORG $+1
	DW	00H
	DW	02060H
	DB	01dH
	DB	00H
	DB	085H
	DB	019H
	DB	0a3H
	ORG $+1
	DW	023H
	DW	02060H
	DB	01dH
	DB	00H
	DB	093H
	DB	018H
	DB	0a8H
	ORG $+1
	DW	00H
	DW	02060H
	DB	0fH
	DB	00H
	DB	0a9H
	DB	01aH
	DB	0a3H
	ORG $+1
	DW	083H
	DW	02060H
	DB	0fH
	DB	00H
	DB	041H
	DB	017H
	DB	0a8H
	ORG $+1
	DW	00H
	DW	02060H
	DB	02H
	DB	00H
	DB	085H
	DB	019H
	DB	0a0H
	ORG $+1
	DW	00H
	DW	02060H
	DB	02H
	DB	00H
	DB	041H
	DB	017H
	DB	0a8H
	ORG $+1
	DW	00H
	DW	02060H
	DB	03H
	DB	00H
	DB	085H
	DB	019H
	DB	0a0H
	ORG $+1
	DW	00H
	DW	02060H
	DB	03H
	DB	00H
	DB	041H
	DB	017H
	DB	0a8H
	ORG $+1
	DW	00H
	DW	02060H
	DB	01H
	DB	00H
	DB	085H
	DB	019H
	DB	0a0H
	ORG $+1
	DW	00H
	DW	02060H
	DB	01H
	DB	00H
	DB	041H
	DB	017H
	DB	0a8H
	ORG $+1
	DW	00H
	DW	02060H
	DB	06H
	DB	00H
	DB	085H
	DB	019H
	DB	0a0H
	ORG $+1
	DW	00H
	DW	02060H
	DB	06H
	DB	00H
	DB	041H
	DB	017H
	DB	0a8H
	ORG $+1
	DW	00H
	DW	02060H
	DB	07H
	DB	00H
	DB	085H
	DB	019H
	DB	0a0H
	ORG $+1
	DW	00H
	DW	02060H
	DB	07H
	DB	00H
	DB	041H
	DB	017H
	DB	0a8H
	ORG $+1
	DW	00H
	DW	02060H
	DB	05H
	DB	00H
	DB	085H
	DB	019H
	DB	0a0H
	ORG $+1
	DW	00H
	DW	02060H
	DB	05H
	DB	00H
	DB	041H
	DB	017H
	DB	0a8H
	ORG $+1
	DW	00H
	DW	02060H
	DB	04H
	DB	00H
	DB	085H
	DB	019H
	DB	0a3H
	ORG $+1
	DW	03H
	DW	02060H
	DB	04H
	DB	00H
	DB	041H
	DB	017H
	DB	0a8H
	ORG $+1
	DW	00H
	DW	02060H
	DB	0bH
	DB	00H
	DB	085H
	DB	019H
	DB	0a3H
	ORG $+1
	DW	023H
	DW	02060H
	DB	0bH
	DB	00H
	DB	041H
	DB	017H
	DB	0a8H
	ORG $+1
	DW	00H
	DW	02060H
	DB	00H
	DB	00H
	DB	085H
	DB	019H
	DB	0a3H
	ORG $+1
	DW	03H
	DW	02060H
	DB	00H
	DB	00H
	DB	041H
	DB	017H
	DB	0a8H
	ORG $+1
	DW	00H
	DW	02060H
	DB	08H
	DB	00H
	DB	085H
	DB	019H
	DB	0a0H
	ORG $+1
	DW	00H
	DW	02060H
	DB	08H
	DB	00H
	DB	041H
	DB	017H
	DB	0a8H
	ORG $+1
	DW	00H
	DW	02060H
	DB	0aH
	DB	00H
	DB	085H
	DB	019H
	DB	0a0H
	ORG $+1
	DW	00H
	DW	02060H
	DB	0aH
	DB	00H
	DB	041H
	DB	017H
	DB	0a8H
	ORG $+1
	DW	00H
	DW	02060H
	DB	09H
	DB	00H
	DB	085H
	DB	019H
	DB	0a0H
	ORG $+1
	DW	00H
	DW	02060H
	DB	09H
	DB	00H
	DB	00H
	DB	06H
	DB	018H
	ORG $+1
	DW	00H
	DW	070H
	DB	098H
	DB	00H
	DB	00H
	DB	06H
	DB	018H
	ORG $+1
	DW	00H
	DW	070H
	DB	099H
	DB	00H
	DB	00H
	DB	00H
	DB	018H
	ORG $+1
	DW	00H
	DW	070H
	DB	09cH
	DB	00H
	DB	00H
	DB	00H
	DB	018H
	ORG $+1
	DW	00H
	DW	070H
	DB	09dH
	DB	00H
	DB	00H
	DB	06H
	DB	018H
	ORG $+1
	DW	00H
	DW	070H
	DB	0cfH
	DB	00H
	DB	011H
	DB	016H
	DB	09H
	ORG $+1
	DW	01H
	DW	070H
	DB	0c7H
	DB	08H
	DB	057H
	DB	00H
	DB	088H
	ORG $+1
	DW	00H
	DW	070H
	DB	063H
	DB	00H
	DB	00H
	DB	06H
	DB	01bH
	ORG $+1
	DW	03H
	DW	070H
	DB	0a7H
	DB	00H
	DB	036H
	DB	06H
	DB	013H
	ORG $+1
	DW	03H
	DW	070H
	DB	0a7H
	DB	00H
	DB	00H
	DB	06H
	DB	01aH
	ORG $+1
	DW	02H
	DW	070H
	DB	0adH
	DB	00H
	DB	0fH
	DB	06H
	DB	012H
	ORG $+1
	DW	02H
	DW	070H
	DB	0adH
	DB	00H
	DB	00H
	DB	06H
	DB	01aH
	ORG $+1
	DW	02H
	DW	070H
	DB	0a5H
	DB	00H
	DB	036H
	DB	06H
	DB	012H
	ORG $+1
	DW	02H
	DW	070H
	DB	0a5H
	DB	00H
	DB	00H
	DB	06H
	DB	01bH
	ORG $+1
	DW	03H
	DW	070H
	DB	0afH
	DB	00H
	DB	0fH
	DB	06H
	DB	013H
	ORG $+1
	DW	03H
	DW	070H
	DB	0afH
	DB	00H
	DB	00H
	DB	06H
	DB	01aH
	ORG $+1
	DW	02H
	DW	070H
	DB	0abH
	DB	00H
	DB	0fH
	DB	06H
	DB	012H
	ORG $+1
	DW	02H
	DW	070H
	DB	0abH
	DB	00H
	DB	096H
	DB	01aH
	DB	028H
	ORG $+1
	DW	00H
	DW	04070H
	DB	016H
	DB	00H
	DB	0a2H
	DB	01aH
	DB	0a8H
	ORG $+1
	DW	00H
	DW	04070H
	DB	022H
	DB	00H
	DB	00H
	DB	010H
	DB	08H
	ORG $+1
	DW	00H
	DW	070H
	DB	01H
	DB	0f8H
	DB	00H
	DB	010H
	DB	018H
	ORG $+1
	DW	00H
	DW	070H
	DB	05H
	DB	00H
	DB	00H
	DB	010H
	DB	018H
	ORG $+1
	DW	00H
	DW	070H
	DB	07H
	DB	00H
	DB	0a9H
	DB	01aH
	DB	0a8H
	ORG $+1
	DW	00H
	DW	04060H
	DB	0dH
	DB	00H
	DB	0a9H
	DB	01aH
	DB	0a8H
	ORG $+1
	DW	00H
	DW	04060H
	DB	0cH
	DB	00H
	DB	0aaH
	DB	019H
	DB	0a8H
	ORG $+1
	DW	00H
	DW	04060H
	DB	015H
	DB	00H
	DB	0aaH
	DB	019H
	DB	0a8H
	ORG $+1
	DW	00H
	DW	04060H
	DB	014H
	DB	00H
	DB	0a9H
	DB	01aH
	DB	0a8H
	ORG $+1
	DW	00H
	DW	04060H
	DB	041H
	DB	00H
	DB	0a9H
	DB	01aH
	DB	0a8H
	ORG $+1
	DW	00H
	DW	04060H
	DB	040H
	DB	00H
	DB	098H
	DB	01aH
	DB	02eH
	ORG $+1
	DW	046H
	DW	04060H
	DB	017H
	DB	00H
	DB	092H
	DB	01aH
	DB	026H
	ORG $+1
	DW	046H
	DW	04060H
	DB	017H
	DB	00H
	DB	0a7H
	DB	01aH
	DB	0aeH
	ORG $+1
	DW	046H
	DW	04060H
	DB	021H
	DB	00H
	DB	07dH
	DB	019H
	DB	0abH
	ORG $+1
	DW	03H
	DW	04060H
	DB	02aH
	DB	00H
	DB	0a9H
	DB	01aH
	DB	0a8H
	ORG $+1
	DW	00H
	DW	04060H
	DB	042H
	DB	00H
	DB	085H
	DB	019H
	DB	0a9H
	ORG $+1
	DW	041H
	DW	04060H
	DB	02bH
	DB	00H
	DB	0aaH
	DB	019H
	DB	0a8H
	ORG $+1
	DW	00H
	DW	04060H
	DB	010H
	DB	00H
	DB	0a9H
	DB	01aH
	DB	0a8H
	ORG $+1
	DW	00H
	DW	04060H
	DB	0eH
	DB	00H
	DB	085H
	DB	019H
	DB	0a9H
	ORG $+1
	DW	08061H
	DW	04060H
	DB	029H
	DB	00H
	DB	099H
	DB	01aH
	DB	02eH
	ORG $+1
	DW	046H
	DW	04060H
	DB	014H
	DB	00H
	DB	095H
	DB	01aH
	DB	02eH
	ORG $+1
	DW	046H
	DW	04060H
	DB	016H
	DB	00H
	DB	085H
	DB	019H
	DB	0a8H
	ORG $+1
	DW	00H
	DW	04060H
	DB	041H
	DB	00H
	DB	0a0H
	DB	01aH
	DB	0aeH
	ORG $+1
	DW	06H
	DW	04060H
	DB	020H
	DB	00H
	DB	0a1H
	DB	01aH
	DB	0aeH
	ORG $+1
	DW	046H
	DW	04060H
	DB	022H
	DB	00H
	DB	085H
	DB	019H
	DB	0abH
	ORG $+1
	DW	03H
	DW	04060H
	DB	03cH
	DB	00H
	DB	085H
	DB	019H
	DB	0a9H
	ORG $+1
	DW	041H
	DW	04060H
	DB	03dH
	DB	00H
	DB	085H
	DB	019H
	DB	0abH
	ORG $+1
	DW	023H
	DW	04060H
	DB	03eH
	DB	00H
	DB	085H
	DB	019H
	DB	0a9H
	ORG $+1
	DW	041H
	DW	04060H
	DB	03fH
	DB	00H
	DB	085H
	DB	019H
	DB	0abH
	ORG $+1
	DW	03H
	DW	04060H
	DB	038H
	DB	00H
	DB	085H
	DB	019H
	DB	0a9H
	ORG $+1
	DW	041H
	DW	04060H
	DB	039H
	DB	00H
	DB	085H
	DB	019H
	DB	0abH
	ORG $+1
	DW	023H
	DW	04060H
	DB	03aH
	DB	00H
	DB	085H
	DB	019H
	DB	0a9H
	ORG $+1
	DW	041H
	DW	04060H
	DB	03bH
	DB	00H
	DB	084H
	DB	019H
	DB	0aeH
	ORG $+1
	DW	0eH
	DW	04060H
	DB	020H
	DB	00H
	DB	08dH
	DB	019H
	DB	0a6H
	ORG $+1
	DW	0eH
	DW	04060H
	DB	020H
	DB	00H
	DB	083H
	DB	019H
	DB	0afH
	ORG $+1
	DW	0fH
	DW	04060H
	DB	021H
	DB	00H
	DB	08eH
	DB	019H
	DB	0a7H
	ORG $+1
	DW	0fH
	DW	04060H
	DB	021H
	DB	00H
	DB	082H
	DB	019H
	DB	0a8H
	ORG $+1
	DW	010H
	DW	04060H
	DB	022H
	DB	00H
	DB	08bH
	DB	019H
	DB	0a0H
	ORG $+1
	DW	010H
	DW	04060H
	DB	022H
	DB	00H
	DB	084H
	DB	019H
	DB	0aeH
	ORG $+1
	DW	02eH
	DW	04060H
	DB	023H
	DB	00H
	DB	08dH
	DB	019H
	DB	0a6H
	ORG $+1
	DW	02eH
	DW	04060H
	DB	023H
	DB	00H
	DB	083H
	DB	019H
	DB	0afH
	ORG $+1
	DW	02fH
	DW	04060H
	DB	024H
	DB	00H
	DB	08eH
	DB	019H
	DB	0a7H
	ORG $+1
	DW	02fH
	DW	04060H
	DB	024H
	DB	00H
	DB	084H
	DB	019H
	DB	0aeH
	ORG $+1
	DW	04eH
	DW	04060H
	DB	025H
	DB	00H
	DB	08dH
	DB	019H
	DB	0a6H
	ORG $+1
	DW	04eH
	DW	04060H
	DB	025H
	DB	00H
	DB	084H
	DB	019H
	DB	0aeH
	ORG $+1
	DW	0eH
	DW	04060H
	DB	030H
	DB	00H
	DB	08dH
	DB	019H
	DB	0a6H
	ORG $+1
	DW	0eH
	DW	04060H
	DB	030H
	DB	00H
	DB	083H
	DB	019H
	DB	0afH
	ORG $+1
	DW	0fH
	DW	04060H
	DB	031H
	DB	00H
	DB	08eH
	DB	019H
	DB	0a7H
	ORG $+1
	DW	0fH
	DW	04060H
	DB	031H
	DB	00H
	DB	082H
	DB	019H
	DB	0a8H
	ORG $+1
	DW	010H
	DW	04060H
	DB	032H
	DB	00H
	DB	08bH
	DB	019H
	DB	0a0H
	ORG $+1
	DW	010H
	DW	04060H
	DB	032H
	DB	00H
	DB	084H
	DB	019H
	DB	0aeH
	ORG $+1
	DW	02eH
	DW	04060H
	DB	033H
	DB	00H
	DB	08dH
	DB	019H
	DB	0a6H
	ORG $+1
	DW	02eH
	DW	04060H
	DB	033H
	DB	00H
	DB	083H
	DB	019H
	DB	0afH
	ORG $+1
	DW	02fH
	DW	04060H
	DB	034H
	DB	00H
	DB	08eH
	DB	019H
	DB	0a7H
	ORG $+1
	DW	02fH
	DW	04060H
	DB	034H
	DB	00H
	DB	084H
	DB	019H
	DB	0aeH
	ORG $+1
	DW	04eH
	DW	04060H
	DB	035H
	DB	00H
	DB	08dH
	DB	019H
	DB	0a6H
	ORG $+1
	DW	04eH
	DW	04060H
	DB	035H
	DB	00H
	DB	085H
	DB	019H
	DB	0a9H
	ORG $+1
	DW	08061H
	DW	04060H
	DB	028H
	DB	00H
	DB	085H
	DB	019H
	DB	0a9H
	ORG $+1
	DW	041H
	DW	04060H
	DB	040H
	DB	00H
	DB	085H
	DB	019H
	DB	0a8H
	ORG $+1
	DW	00H
	DW	04060H
	DB	017H
	DB	00H
	DB	0a9H
	DB	01aH
	DB	0a8H
	ORG $+1
	DW	00H
	DW	04060H
	DB	08H
	DB	00H
	DB	0a9H
	DB	01aH
	DB	0a8H
	ORG $+1
	DW	00H
	DW	04060H
	DB	09H
	DB	00H
	DB	0a7H
	DB	01aH
	DB	0a8H
	ORG $+1
	DW	00H
	DW	04060H
	DB	0aH
	DB	00H
	DB	0a8H
	DB	01aH
	DB	0a8H
	ORG $+1
	DW	00H
	DW	04060H
	DB	0bH
	DB	00H
	DB	05aH
	DB	01bH
	DB	0a8H
	ORG $+1
	DW	00H
	DW	04060H
	DB	0f0H
	DB	00H
	DB	05bH
	DB	01bH
	DB	0a0H
	ORG $+1
	DW	00H
	DW	04060H
	DB	0f1H
	DB	00H
	DB	0a9H
	DB	01aH
	DB	0a8H
	ORG $+1
	DW	00H
	DW	04060H
	DB	060H
	DB	00H
	DB	0a9H
	DB	01aH
	DB	0a8H
	ORG $+1
	DW	00H
	DW	04060H
	DB	061H
	DB	00H
	DB	0a9H
	DB	01aH
	DB	0a8H
	ORG $+1
	DW	00H
	DW	04060H
	DB	062H
	DB	00H
	DB	0a9H
	DB	01aH
	DB	0a8H
	ORG $+1
	DW	00H
	DW	04060H
	DB	063H
	DB	00H
	DB	085H
	DB	019H
	DB	0a9H
	ORG $+1
	DW	08061H
	DW	04060H
	DB	037H
	DB	00H
	DB	06dH
	DB	014H
	DB	0a8H
	ORG $+1
	DW	00H
	DW	04060H
	DB	0b8H
	DB	00H
	DB	015H
	DB	010H
	DB	028H
	ORG $+1
	DW	00H
	DW	04060H
	DB	0c7H
	DB	030H
	DB	015H
	DB	010H
	DB	028H
	ORG $+1
	DW	00H
	DW	04060H
	DB	0c7H
	DB	038H
	DB	06dH
	DB	014H
	DB	0a8H
	ORG $+1
	DW	00H
	DW	04060H
	DB	0bdH
	DB	00H
	DB	06dH
	DB	014H
	DB	0a8H
	ORG $+1
	DW	00H
	DW	04060H
	DB	0bcH
	DB	00H
	DB	06bH
	DB	019H
	DB	0a8H
