; Listing generated by Microsoft (R) Optimizing Compiler Version 19.00.23026.0 

include listing.inc

INCLUDELIB LIBCMT
INCLUDELIB OLDNAMES

_BSS	SEGMENT
$SG11291 DB	01H DUP (?)
$SG11299 DB	01H DUP (?)
$SG11449 DB	01H DUP (?)
_BSS	ENDS
_DATA	SEGMENT
COMM	decoflags:BYTE
COMM	broadflags:BYTE
COMM	evex:BYTE
COMM	ZEROLOCALS:BYTE
COMM	CurrStruct:QWORD
_DATA	ENDS
_BSS	SEGMENT
$SG11132 DB	01H DUP (?)
$SG11201 DB	01H DUP (?)
$SG11210 DB	01H DUP (?)
_BSS	ENDS
CONST	SEGMENT
szStructure DB	'structure', 00H
	ORG $+2
szRecord DB	'record', 00H
	ORG $+5
szNonUnique DB	'NONUNIQUE', 00H
CONST	ENDS
PUBLIC	CreateTypeSymbol
PUBLIC	SearchNameInStruct
PUBLIC	GetQualifiedType
PUBLIC	CreateStructField
PUBLIC	UpdateStructSize
PUBLIC	SetStructCurrentOffset
PUBLIC	AlignInStruct
PUBLIC	TypesInit
PUBLIC	DeleteType
PUBLIC	StructDirective
PUBLIC	EndstructDirective
PUBLIC	TypedefDirective
PUBLIC	RecordDirective
EXTRN	_stricmp:PROC
EXTRN	EmitError:PROC
EXTRN	EmitErr:PROC
EXTRN	EmitWarn:PROC
EXTRN	myltoa:PROC
EXTRN	LclAlloc:PROC
EXTRN	SymAlloc:PROC
EXTRN	SymFree:PROC
EXTRN	SymCreate:PROC
EXTRN	SymAddGlobal:PROC
EXTRN	SymLookup:PROC
EXTRN	SymFind:PROC
EXTRN	SizeFromMemtype:PROC
EXTRN	sym_remove_table:PROC
EXTRN	ParseProc:PROC
EXTRN	CreateProc:PROC
EXTRN	EvalOperand:PROC
EXTRN	LstWrite:PROC
EXTRN	memcpy:PROC
EXTRN	memset:PROC
EXTRN	ModuleInfo:BYTE
EXTRN	Parse_Pass:DWORD
EXTRN	SymCmpFunc:QWORD
EXTRN	SymTables:BYTE
EXTRN	SpecialTable:BYTE
_BSS	SEGMENT
	ALIGN	8

redef_struct DQ	01H DUP (?)
_BSS	ENDS
pdata	SEGMENT
$pdata$CreateTypeSymbol DD imagerel $LN11
	DD	imagerel $LN11+106
	DD	imagerel $unwind$CreateTypeSymbol
$pdata$SearchNameInStruct DD imagerel $LN29
	DD	imagerel $LN29+252
	DD	imagerel $unwind$SearchNameInStruct
$pdata$GetQualifiedType DD imagerel $LN85
	DD	imagerel $LN85+307
	DD	imagerel $unwind$GetQualifiedType
$pdata$1$GetQualifiedType DD imagerel $LN85+307
	DD	imagerel $LN85+988
	DD	imagerel $chain$1$GetQualifiedType
$pdata$CreateStructField DD imagerel $LN59
	DD	imagerel $LN59+943
	DD	imagerel $unwind$CreateStructField
$pdata$StructDirective DD imagerel $LN89
	DD	imagerel $LN89+70
	DD	imagerel $unwind$StructDirective
$pdata$2$StructDirective DD imagerel $LN89+70
	DD	imagerel $LN89+142
	DD	imagerel $chain$2$StructDirective
$pdata$3$StructDirective DD imagerel $LN89+142
	DD	imagerel $LN89+172
	DD	imagerel $chain$3$StructDirective
$pdata$4$StructDirective DD imagerel $LN89+172
	DD	imagerel $LN89+1019
	DD	imagerel $chain$4$StructDirective
$pdata$EndstructDirective DD imagerel $LN60
	DD	imagerel $LN60+228
	DD	imagerel $unwind$EndstructDirective
$pdata$1$EndstructDirective DD imagerel $LN60+228
	DD	imagerel $LN60+461
	DD	imagerel $chain$1$EndstructDirective
$pdata$2$EndstructDirective DD imagerel $LN60+461
	DD	imagerel $LN60+547
	DD	imagerel $chain$2$EndstructDirective
$pdata$3$EndstructDirective DD imagerel $LN60+547
	DD	imagerel $LN60+732
	DD	imagerel $chain$3$EndstructDirective
pdata	ENDS
;	COMDAT pdata
pdata	SEGMENT
$pdata$CheckAnonymousStruct DD imagerel CheckAnonymousStruct
	DD	imagerel CheckAnonymousStruct+306
	DD	imagerel $unwind$CheckAnonymousStruct
pdata	ENDS
pdata	SEGMENT
$pdata$TypedefDirective DD imagerel $LN69
	DD	imagerel $LN69+462
	DD	imagerel $unwind$TypedefDirective
$pdata$5$TypedefDirective DD imagerel $LN69+462
	DD	imagerel $LN69+863
	DD	imagerel $chain$5$TypedefDirective
$pdata$6$TypedefDirective DD imagerel $LN69+863
	DD	imagerel $LN69+900
	DD	imagerel $chain$6$TypedefDirective
$pdata$RecordDirective DD imagerel $LN101
	DD	imagerel $LN101+362
	DD	imagerel $unwind$RecordDirective
$pdata$5$RecordDirective DD imagerel $LN101+362
	DD	imagerel $LN101+1274
	DD	imagerel $chain$5$RecordDirective
$pdata$6$RecordDirective DD imagerel $LN101+1274
	DD	imagerel $LN101+1390
	DD	imagerel $chain$6$RecordDirective
$pdata$7$RecordDirective DD imagerel $LN101+1390
	DD	imagerel $LN101+1474
	DD	imagerel $chain$7$RecordDirective
pdata	ENDS
;	COMDAT xdata
xdata	SEGMENT
$unwind$CheckAnonymousStruct DD 060c01H
	DD	0a340cH
	DD	07008320cH
	DD	050066007H
xdata	ENDS
xdata	SEGMENT
$unwind$CreateTypeSymbol DD 020601H
	DD	030023206H
$unwind$SearchNameInStruct DD 061101H
	DD	083411H
	DD	0700d3211H
	DD	0500b600cH
$unwind$GetQualifiedType DD 081201H
	DD	0c3412H
	DD	0f00e3212H
	DD	0d00ae00cH
	DD	06006c008H
$chain$1$GetQualifiedType DD 040a21H
	DD	0b740aH
	DD	0a5405H
	DD	imagerel $LN85
	DD	imagerel $LN85+307
	DD	imagerel $unwind$GetQualifiedType
$unwind$CreateStructField DD 0ad501H
	DD	01034d5H
	DD	0f0157219H
	DD	0d011e013H
	DD	0700dc00fH
	DD	0500b600cH
$unwind$StructDirective DD 040e01H
	DD	015010eH
	DD	07005e007H
$chain$2$StructDirective DD 062121H
	DD	0146421H
	DD	01b5415H
	DD	01a3408H
	DD	imagerel $LN89
	DD	imagerel $LN89+70
	DD	imagerel $unwind$StructDirective
$chain$3$StructDirective DD 021H
	DD	imagerel $LN89
	DD	imagerel $LN89+70
	DD	imagerel $unwind$StructDirective
$chain$4$StructDirective DD 060021H
	DD	0146400H
	DD	01b5400H
	DD	01a3400H
	DD	imagerel $LN89
	DD	imagerel $LN89+70
	DD	imagerel $unwind$StructDirective
$unwind$EndstructDirective DD 060f01H
	DD	0b540fH
	DD	0a340fH
	DD	0600b520fH
$chain$1$EndstructDirective DD 040a21H
	DD	09f40aH
	DD	08e405H
	DD	imagerel $LN60
	DD	imagerel $LN60+228
	DD	imagerel $unwind$EndstructDirective
$chain$2$EndstructDirective DD 020021H
	DD	09f400H
	DD	imagerel $LN60
	DD	imagerel $LN60+228
	DD	imagerel $unwind$EndstructDirective
$chain$3$EndstructDirective DD 021H
	DD	imagerel $LN60
	DD	imagerel $LN60+228
	DD	imagerel $unwind$EndstructDirective
$unwind$TypedefDirective DD 0c5401H
	DD	0be454H
	DD	0cd448H
	DD	0d7443H
	DD	0125439H
	DD	0113431H
	DD	06002d206H
$chain$5$TypedefDirective DD 020521H
	DD	0af405H
	DD	imagerel $LN69
	DD	imagerel $LN69+462
	DD	imagerel $unwind$TypedefDirective
$chain$6$TypedefDirective DD 021H
	DD	imagerel $LN69
	DD	imagerel $LN69+462
	DD	imagerel $unwind$TypedefDirective
$unwind$RecordDirective DD 085601H
	DD	0196456H
	DD	01f3447H
	DD	01b010eH
	DD	07005d007H
$chain$5$RecordDirective DD 082a21H
	DD	018c42aH
	DD	01a541bH
	DD	016f410H
	DD	017e408H
	DD	imagerel $LN101
	DD	imagerel $LN101+362
	DD	imagerel $unwind$RecordDirective
$chain$6$RecordDirective DD 020021H
	DD	016f400H
	DD	imagerel $LN101
	DD	imagerel $LN101+362
	DD	imagerel $unwind$RecordDirective
$chain$7$RecordDirective DD 021H
	DD	imagerel $LN101
	DD	imagerel $LN101+362
	DD	imagerel $unwind$RecordDirective
xdata	ENDS
; Function compile flags: /Ogtpy
; File d:\hjwasm\hjwasm2.13.1s\hjwasm2.13.1s\types.c
_TEXT	SEGMENT
oldr$1$ = 48
opndx$ = 64
redef_err$ = 240
i$ = 240
tokenarray$ = 248
redef_err$1$ = 256
init_loc$ = 264
RecordDirective PROC

; 1111 : {

$LN101:
	mov	DWORD PTR [rsp+8], ecx
	push	rdi
	push	r13
	sub	rsp, 216				; 000000d8H

; 1112 :     char *name;
; 1113 :     struct asym *sym;
; 1114 :     struct dsym *newr;
; 1115 :     struct dsym *oldr = NULL;

	xor	r13d, r13d
	mov	rdi, rdx
	mov	QWORD PTR oldr$1$[rsp], r13

; 1116 :     struct sfield *f;
; 1117 :     int cntBits;
; 1118 :     int define;
; 1119 :     int len;
; 1120 :     int redef_err;
; 1121 :     int count;
; 1122 :     //int value;
; 1123 :     int name_loc;
; 1124 :     int init_loc;
; 1125 :     struct expr opndx;
; 1126 : 
; 1127 :     DebugMsg1(("RecordDirective(%d) enter\n", i));
; 1128 :     if ( i != 1 ) {

	cmp	ecx, 1
	je	SHORT $LN11@RecordDire

; 1129 :         return( EmitErr( SYNTAX_ERROR_EX, tokenarray[i].string_ptr ) );

	movsxd	rdx, ecx
	mov	ecx, 209				; 000000d1H
	shl	rdx, 5
	mov	rdx, QWORD PTR [rdx+rdi+8]
	call	EmitErr

; 1309 : }

	add	rsp, 216				; 000000d8H
	pop	r13
	pop	rdi
	ret	0
$LN11@RecordDire:
	mov	QWORD PTR [rsp+248], rbx

; 1130 :     }
; 1131 : 
; 1132 :     name = tokenarray[0].string_ptr;

	mov	rbx, QWORD PTR [rdx+8]

; 1133 :     sym = SymSearch( name );

	mov	rcx, rbx
	mov	QWORD PTR [rsp+200], rsi
	call	SymFind
	mov	rsi, rax

; 1134 :     if ( sym == NULL || sym->state == SYM_UNDEFINED ) {

	test	rax, rax
	je	$LN14@RecordDire
	mov	eax, DWORD PTR [rax+32]
	test	eax, eax
	je	SHORT $LN14@RecordDire

; 1136 :     } else if ( sym->state == SYM_TYPE &&

	cmp	eax, 7
	jne	SHORT $LN15@RecordDire
	movzx	eax, BYTE PTR [rsi+66]
	test	al, 251					; 000000fbH
	jne	SHORT $LN15@RecordDire

; 1137 :                ( sym->typekind == TYPE_RECORD ||
; 1138 :                sym->typekind == TYPE_NONE ) ) {
; 1139 :         /* v2.04: allow redefinition of record and forward references.
; 1140 :          * the record redefinition may have different initial values,
; 1141 :          * but those new values are IGNORED! ( Masm bug? )
; 1142 :          */
; 1143 :         if ( Parse_Pass == PASS_1 && sym->typekind == TYPE_RECORD ) {

	cmp	DWORD PTR Parse_Pass, r13d
	jne	$LN57@RecordDire
	cmp	al, 4
	jne	$LN57@RecordDire

; 1144 :             oldr = (struct dsym *)sym;
; 1145 :             sym = CreateTypeSymbol( NULL, name, FALSE );

	mov	rcx, rbx
	mov	QWORD PTR oldr$1$[rsp], rsi
	mov	r13, rsi
	call	SymAlloc
	mov	rsi, rax
	test	rax, rax
	je	SHORT $LN64@RecordDire
	mov	ecx, 24
	mov	DWORD PTR [rax+32], 7
	mov	BYTE PTR [rax+66], 0
	call	LclAlloc
	mov	QWORD PTR [rsi+96], rax
	mov	QWORD PTR [rax], 0
	mov	QWORD PTR [rax+8], 0
	mov	WORD PTR [rax+16], 0
$LN64@RecordDire:

; 1146 :             redef_err = 0;

	xor	eax, eax

; 1147 :         }
; 1148 :     } else {

	jmp	SHORT $LN96@RecordDire
$LN15@RecordDire:

; 1149 :         return( EmitErr( SYMBOL_REDEFINITION, name ) );

	mov	rdx, rbx
	mov	ecx, 143				; 0000008fH
	call	EmitErr
	jmp	$LN95@RecordDire
$LN14@RecordDire:

; 1135 :         sym = CreateTypeSymbol( sym, name, TRUE );

	test	rsi, rsi
	je	SHORT $LN55@RecordDire
	mov	rdx, rsi
	lea	rcx, OFFSET FLAT:SymTables
	call	sym_remove_table
	jmp	SHORT $LN60@RecordDire
$LN55@RecordDire:
	mov	rcx, rbx
	call	SymCreate
	mov	rsi, rax
$LN60@RecordDire:
	test	rsi, rsi
	je	SHORT $LN57@RecordDire
	mov	ecx, 24
	mov	DWORD PTR [rsi+32], 7
	mov	BYTE PTR [rsi+66], r13b
	call	LclAlloc
	mov	QWORD PTR [rsi+96], rax
	mov	QWORD PTR [rax], r13
	mov	QWORD PTR [rax+8], r13
	mov	WORD PTR [rax+16], r13w
$LN57@RecordDire:
	mov	eax, DWORD PTR redef_err$[rsp]
$LN96@RecordDire:

; 1150 :     }
; 1151 :     sym->isdefined = TRUE;

	or	BYTE PTR [rsi+40], 2

; 1152 : 
; 1153 :     if ( Parse_Pass > PASS_1 )

	cmp	DWORD PTR Parse_Pass, 0
	mov	DWORD PTR redef_err$1$[rsp], eax
	ja	$LN50@RecordDire

; 1154 :         return( NOT_ERROR );
; 1155 : 
; 1156 :     newr = (struct dsym *)sym;
; 1157 :     newr->sym.typekind = TYPE_RECORD;

	mov	BYTE PTR [rsi+66], 4

; 1158 : 
; 1159 :     i++; /* go past RECORD */

	mov	ecx, DWORD PTR i$[rsp]

; 1160 : 
; 1161 :     cntBits = 0; /* counter for total of bits in record */

	mov	r8d, DWORD PTR ModuleInfo+496
	inc	ecx
	mov	QWORD PTR [rsp+184], r14
	mov	QWORD PTR [rsp+176], r15
	xor	r15d, r15d
	mov	QWORD PTR [rsp+208], rbp
	mov	DWORD PTR i$[rsp], ecx
	mov	QWORD PTR [rsp+192], r12
$LN97@RecordDire:

; 1162 :     /* parse bitfields */
; 1163 :     do {
; 1164 :         if ( tokenarray[i].token != T_ID ) {

	movsxd	rax, ecx
	mov	r14d, 64				; 00000040H
	shl	rax, 5
	cmp	BYTE PTR [rax+rdi], 8
	jne	$LN71@RecordDire

; 1166 :             break;
; 1167 :         }
; 1168 :         len = strlen( tokenarray[i].string_ptr );

	mov	rax, QWORD PTR [rax+rdi+8]
	or	rbx, -1
$LL91@RecordDire:
	inc	rbx
	cmp	BYTE PTR [rax+rbx], 0
	jne	SHORT $LL91@RecordDire

; 1169 :         if( len > MAX_ID_LEN ) {

	cmp	ebx, 247				; 000000f7H
	jg	$LN72@RecordDire

; 1172 :         }
; 1173 :         name_loc = i;

	movsxd	rbp, ecx

; 1174 :         i++;

	inc	ecx

; 1175 :         if ( tokenarray[i].token != T_COLON ) {

	movsxd	rax, ecx
	shl	rax, 5
	mov	DWORD PTR i$[rsp], ecx
	cmp	BYTE PTR [rax+rdi], 58			; 0000003aH
	jne	$LN73@RecordDire

; 1178 :         }
; 1179 :         i++;

	inc	ecx

; 1180 :         /* get width */
; 1181 :         if ( EvalOperand( &i, tokenarray, Token_Count, &opndx, 0 ) == ERROR )

	mov	BYTE PTR [rsp+32], 0
	mov	DWORD PTR i$[rsp], ecx
	lea	r9, QWORD PTR opndx$[rsp]
	lea	rcx, QWORD PTR i$[rsp]
	mov	rdx, rdi
	call	EvalOperand
	cmp	eax, -1
	je	$LN3@RecordDire

; 1182 :             break;
; 1183 :         if ( opndx.kind != EXPR_CONST ) {

	cmp	DWORD PTR opndx$[rsp+60], 0
	je	SHORT $LN24@RecordDire

; 1184 :             EmitError( CONSTANT_EXPECTED );

	mov	ecx, 65					; 00000041H
	call	EmitError

; 1185 :             opndx.value = 1;

	mov	eax, 1
	mov	DWORD PTR opndx$[rsp], eax

; 1186 :         }
; 1187 :         if ( opndx.value == 0 ) {

	jmp	SHORT $LN88@RecordDire
$LN24@RecordDire:
	mov	eax, DWORD PTR opndx$[rsp]
	test	eax, eax
	je	$LN75@RecordDire
$LN88@RecordDire:

; 1190 :         } else if ( ( opndx.value + cntBits ) > MAXRECBITS ) {

	cmp	BYTE PTR ModuleInfo+404, 2
	mov	ecx, 32					; 00000020H
	cmove	ecx, r14d
	add	eax, r15d
	cmp	eax, ecx
	jg	$LN76@RecordDire

; 1193 :         }
; 1194 :         count = 0;
; 1195 :         /* is there an initializer? ('=') */
; 1196 :         if ( tokenarray[i].token == T_DIRECTIVE &&

	movsxd	rcx, DWORD PTR i$[rsp]
	xor	r12d, r12d
	mov	rax, rcx
	shl	rax, 5
	cmp	BYTE PTR [rax+rdi], 3
	jne	SHORT $LN30@RecordDire
	cmp	BYTE PTR [rax+rdi+1], 48		; 00000030H
	jne	SHORT $LN30@RecordDire

; 1197 :             tokenarray[i].dirtype == DRT_EQUALSGN ) {
; 1198 :             i++;

	inc	ecx

; 1199 :             for( init_loc = i; tokenarray[i].token != T_FINAL && tokenarray[i].token != T_COMMA; i++ );

	movsxd	rdx, ecx
	mov	r8d, ecx
	mov	rax, rdx
	mov	DWORD PTR i$[rsp], ecx
	shl	rax, 5
	mov	DWORD PTR init_loc$[rsp], ecx
	movzx	eax, BYTE PTR [rax+rdi]
	test	al, al
	je	$LN77@RecordDire
	npad	3
$LL7@RecordDire:
	cmp	al, 44					; 0000002cH
	je	SHORT $LN6@RecordDire
	inc	ecx
	movsxd	rax, ecx
	shl	rax, 5
	mov	DWORD PTR i$[rsp], ecx
	movzx	eax, BYTE PTR [rax+rdi]
	test	al, al
	jne	SHORT $LL7@RecordDire
$LN6@RecordDire:

; 1200 :             /* no value? */
; 1201 :             if ( init_loc == i ) {

	cmp	r8d, ecx
	je	$LN77@RecordDire

; 1204 :             }
; 1205 :             /* v2.09: initial values of record redefinitions are ignored! */
; 1206 :             if ( oldr == NULL )

	test	r13, r13
	jne	SHORT $LN30@RecordDire

; 1207 :                 count = tokenarray[i].tokpos - tokenarray[init_loc].tokpos;

	movsxd	rax, ecx
	shl	rax, 5
	shl	rdx, 5
	mov	r12d, DWORD PTR [rax+rdi+24]
	sub	r12d, DWORD PTR [rdx+rdi+24]
$LN30@RecordDire:

; 1208 :         }
; 1209 :         /* record field names are global! (Masm design flaw) */
; 1210 :         sym = SymSearch( tokenarray[name_loc].string_ptr );

	mov	r14, rbp
	shl	r14, 5
	mov	rcx, QWORD PTR [r14+rdi+8]
	call	SymFind

; 1211 :         define = TRUE;
; 1212 :         if ( oldr ) {

	mov	ecx, DWORD PTR opndx$[rsp]
	test	r13, r13
	je	SHORT $LN31@RecordDire

; 1213 :             if ( sym == NULL ||
; 1214 :                 sym->state != SYM_STRUCT_FIELD ||
; 1215 :                 sym->mem_type != MT_BITS ||

	test	rax, rax
	je	SHORT $LN34@RecordDire
	cmp	DWORD PTR [rax+32], 6
	jne	SHORT $LN34@RecordDire
	cmp	DWORD PTR [rax+36], 193			; 000000c1H
	jne	SHORT $LN34@RecordDire
	cmp	DWORD PTR [rax+56], ecx
	je	SHORT $LN89@RecordDire
$LN34@RecordDire:

; 1216 :                 sym->total_size != opndx.value ) {
; 1217 :                 EmitErr( NON_BENIGN_XXX_REDEFINITION, szRecord, tokenarray[name_loc].string_ptr );

	mov	r8, QWORD PTR [r14+rdi+8]
	lea	rdx, OFFSET FLAT:szRecord
	mov	ecx, 139				; 0000008bH
	call	EmitErr

; 1218 :                 redef_err++;

	inc	DWORD PTR redef_err$1$[rsp]

; 1219 :                 define = FALSE; /* v2.06: added */
; 1220 :             }
; 1221 :         } else {

	jmp	$LN40@RecordDire
$LN31@RecordDire:

; 1222 :             if ( sym ) {

	test	rax, rax
	jne	$LN78@RecordDire
$LN89@RecordDire:

; 1225 :             }
; 1226 :         }
; 1227 : 
; 1228 :         if ( define ) { /* v2.06: don't add field if there was an error */
; 1229 :             cntBits += opndx.value;

	add	r15d, ecx

; 1230 :             f = LclAlloc( sizeof( struct sfield ) + count );

	movsxd	r13, r12d
	lea	rcx, QWORD PTR [r13+112]
	call	LclAlloc

; 1231 :             memset( f, 0, sizeof( struct sfield ) );

	xor	edx, edx
	mov	rcx, rax
	mov	rbp, rax
	lea	r8d, QWORD PTR [rdx+112]
	call	memset

; 1232 :             f->sym.name_size = len;
; 1233 :             f->sym.name = LclAlloc( len + 1 );

	lea	ecx, DWORD PTR [rbx+1]
	mov	BYTE PTR [rbp+72], bl
	movsxd	rbx, ecx
	mov	rcx, rbx
	call	LclAlloc
	mov	QWORD PTR [rbp+8], rax

; 1234 :             memcpy( f->sym.name, tokenarray[name_loc].string_ptr, len + 1 );

	mov	r8, rbx
	mov	rdx, QWORD PTR [r14+rdi+8]
	mov	rcx, rax
	call	memcpy

; 1235 :             f->sym.list = ModuleInfo.cref;

	mov	eax, DWORD PTR ModuleInfo+408
	shr	eax, 12
	xor	al, BYTE PTR [rbp+41]
	and	al, 1

; 1236 :             f->sym.state = SYM_STRUCT_FIELD;

	mov	DWORD PTR [rbp+32], 6
	xor	BYTE PTR [rbp+41], al

; 1237 :             f->sym.mem_type = MT_BITS;
; 1238 :             f->sym.total_size = opndx.value;
; 1239 :             if ( !oldr ) {

	cmp	QWORD PTR oldr$1$[rsp], 0
	mov	DWORD PTR [rbp+36], 193			; 000000c1H
	mov	eax, DWORD PTR opndx$[rsp]
	mov	DWORD PTR [rbp+56], eax
	jne	SHORT $LN37@RecordDire

; 1240 :                 SymAddGlobal( &f->sym );

	mov	rcx, rbp
	call	SymAddGlobal
$LN37@RecordDire:

; 1241 :             }
; 1242 :             f->next = NULL;

	mov	QWORD PTR [rbp+96], 0

; 1243 :             //f->sym = sym;
; 1244 :             f->ivalue[0] = NULLC;

	lea	rcx, QWORD PTR [rbp+104]
	mov	BYTE PTR [rcx], 0

; 1245 :             //f->init_dir = NULL;
; 1246 :             if( newr->e.structinfo->head == NULL ) {

	mov	rax, QWORD PTR [rsi+96]
	cmp	QWORD PTR [rax], 0
	jne	SHORT $LN38@RecordDire

; 1247 :                 newr->e.structinfo->head = newr->e.structinfo->tail = f;

	mov	QWORD PTR [rax+8], rbp
	mov	rax, QWORD PTR [rsi+96]
	mov	QWORD PTR [rax], rbp

; 1248 :             } else {

	jmp	SHORT $LN39@RecordDire
$LN38@RecordDire:

; 1249 :                 newr->e.structinfo->tail->next = f;

	mov	rax, QWORD PTR [rax+8]
	mov	QWORD PTR [rax+96], rbp

; 1250 :                 newr->e.structinfo->tail = f;

	mov	rax, QWORD PTR [rsi+96]
	mov	QWORD PTR [rax+8], rbp
$LN39@RecordDire:

; 1251 :             }
; 1252 :             if ( count ) {

	test	r12d, r12d
	je	SHORT $LN93@RecordDire

; 1253 :                 //f->value = LclAlloc( count + 1 );
; 1254 :                 memcpy( f->ivalue, tokenarray[init_loc].tokpos, count );

	movsxd	rdx, DWORD PTR init_loc$[rsp]
	mov	r8, r13
	shl	rdx, 5
	mov	rdx, QWORD PTR [rdx+rdi+24]
	call	memcpy

; 1255 :                 f->ivalue[count] = NULLC;

	mov	BYTE PTR [rbp+r13+104], 0
$LN93@RecordDire:
	mov	r13, QWORD PTR oldr$1$[rsp]
$LN40@RecordDire:

; 1256 :             }
; 1257 :         }
; 1258 : 
; 1259 :         if ( i < Token_Count ) {

	movsxd	rcx, DWORD PTR i$[rsp]
	mov	r8d, DWORD PTR ModuleInfo+496
	cmp	ecx, r8d
	jge	$LN3@RecordDire

; 1260 :             if ( tokenarray[i].token != T_COMMA || tokenarray[i+1].token == T_FINAL ) {

	mov	rax, rcx
	shl	rax, 5
	cmp	BYTE PTR [rax+rdi], 44			; 0000002cH
	jne	SHORT $LN79@RecordDire
	lea	rax, QWORD PTR [rcx+1]
	shl	rax, 5
	cmp	BYTE PTR [rax+rdi], 0
	je	SHORT $LN79@RecordDire

; 1262 :                 break;
; 1263 :             }
; 1264 :             i++;

	inc	ecx
	mov	DWORD PTR i$[rsp], ecx

; 1265 :         }
; 1266 : 
; 1267 :     } while ( i < Token_Count );

	cmp	ecx, r8d
	jge	$LN3@RecordDire
	jmp	$LN97@RecordDire
$LN77@RecordDire:

; 1202 :                 EmitErr( SYNTAX_ERROR_EX, tokenarray[name_loc].tokpos );

	mov	rdx, rbp
	shl	rdx, 5
	mov	rdx, QWORD PTR [rdx+rdi+24]

; 1203 :                 break;

	jmp	SHORT $LN98@RecordDire
$LN79@RecordDire:

; 1261 :                 EmitErr( SYNTAX_ERROR_EX, tokenarray[i].tokpos );

	mov	rdx, rcx
	shl	rdx, 5
	mov	rdx, QWORD PTR [rdx+rdi+24]
	jmp	SHORT $LN98@RecordDire
$LN78@RecordDire:

; 1223 :                 EmitErr( SYMBOL_REDEFINITION, sym->name );

	mov	rdx, QWORD PTR [rax+8]
	mov	ecx, 143				; 0000008fH

; 1224 :                 break;

	jmp	SHORT $LN99@RecordDire
$LN76@RecordDire:

; 1191 :             EmitErr( TOO_MANY_BITS_IN_RECORD, tokenarray[name_loc].string_ptr );

	mov	rdx, rbp
	mov	ecx, 140				; 0000008cH
	shl	rdx, 5
	mov	rdx, QWORD PTR [rdx+rdi+8]

; 1192 :             break;

	jmp	SHORT $LN99@RecordDire
$LN75@RecordDire:

; 1188 :             EmitErr( TOO_FEW_BITS_IN_RECORD, tokenarray[name_loc].string_ptr );

	mov	rdx, rbp
	mov	ecx, 35					; 00000023H
	shl	rdx, 5
	mov	rdx, QWORD PTR [rdx+rdi+8]

; 1189 :             break;

	jmp	SHORT $LN99@RecordDire
$LN73@RecordDire:

; 1176 :             EmitError( COLON_EXPECTED );

	mov	ecx, 84					; 00000054H
	call	EmitError

; 1177 :             break;

	jmp	SHORT $LN3@RecordDire
$LN72@RecordDire:

; 1170 :             EmitError( IDENTIFIER_TOO_LONG );

	mov	ecx, 70					; 00000046H
	call	EmitError

; 1171 :             break;

	jmp	SHORT $LN3@RecordDire
$LN71@RecordDire:

; 1165 :             EmitErr( SYNTAX_ERROR_EX, tokenarray[i].string_ptr );

	movsxd	rdx, ecx
	shl	rdx, 5
	mov	rdx, QWORD PTR [rdx+rdi+8]
$LN98@RecordDire:
	mov	ecx, 209				; 000000d1H
$LN99@RecordDire:
	call	EmitErr
$LN3@RecordDire:
	mov	r14, QWORD PTR [rsp+184]
	mov	r12, QWORD PTR [rsp+192]
	mov	rbp, QWORD PTR [rsp+208]

; 1268 : 
; 1269 :     /* now calc size in bytes and set the bit positions */
; 1270 : 
; 1271 :     if ( cntBits > 16 ) {

	cmp	r15d, 16
	jle	SHORT $LN44@RecordDire

; 1272 : #if AMD64_SUPPORT
; 1273 :         if ( cntBits > 32 ) {

	cmp	r15d, 32				; 00000020H
	jle	SHORT $LN46@RecordDire

; 1274 :             newr->sym.total_size = sizeof( uint_64 );

	mov	DWORD PTR [rsi+56], 8

; 1275 :             newr->sym.mem_type = MT_QWORD;

	mov	DWORD PTR [rsi+36], 7

; 1276 :         } else {

	jmp	SHORT $LN49@RecordDire
$LN46@RecordDire:

; 1277 : #endif
; 1278 :             newr->sym.total_size = sizeof( uint_32 );

	mov	DWORD PTR [rsi+56], 4

; 1279 :             newr->sym.mem_type = MT_DWORD;

	mov	DWORD PTR [rsi+36], 3

; 1280 : #if AMD64_SUPPORT
; 1281 :         }

	jmp	SHORT $LN49@RecordDire
$LN44@RecordDire:

; 1282 : #endif
; 1283 :     } else if ( cntBits > 8 ) {

	cmp	r15d, 8
	jle	SHORT $LN48@RecordDire

; 1284 :         newr->sym.total_size = sizeof( uint_16 );

	mov	DWORD PTR [rsi+56], 2

; 1285 :         newr->sym.mem_type = MT_WORD;

	mov	DWORD PTR [rsi+36], 1

; 1286 :     } else {

	jmp	SHORT $LN49@RecordDire
$LN48@RecordDire:

; 1287 :         newr->sym.total_size = sizeof( uint_8 );

	mov	DWORD PTR [rsi+56], 1

; 1288 :         newr->sym.mem_type = MT_BYTE;

	mov	DWORD PTR [rsi+36], 0
$LN49@RecordDire:

; 1289 :     }
; 1290 :     /* if the BYTE/WORD/DWORD isn't used fully, shift bits to the right! */
; 1291 :     // cntBits = dir->sym.total_size * 8;
; 1292 : 
; 1293 :     /* set the bit position */
; 1294 :     for ( f = newr->e.structinfo->head; f; f = f->next ) {

	mov	rax, QWORD PTR [rsi+96]
	mov	rcx, QWORD PTR [rax]
	test	rcx, rcx
	je	SHORT $LN9@RecordDire
$LL10@RecordDire:

; 1295 :         cntBits = cntBits - f->sym.total_size;

	sub	r15d, DWORD PTR [rcx+56]

; 1296 :         f->sym.offset = cntBits;

	mov	DWORD PTR [rcx+16], r15d
	mov	rcx, QWORD PTR [rcx+96]
	test	rcx, rcx
	jne	SHORT $LL10@RecordDire
$LN9@RecordDire:
	mov	r15, QWORD PTR [rsp+176]

; 1297 :     }
; 1298 :     if ( oldr ) {

	test	r13, r13
	je	SHORT $LN50@RecordDire

; 1299 :         if ( redef_err > 0 ||

	mov	eax, DWORD PTR redef_err$1$[rsp]
	test	eax, eax
	jg	SHORT $LN52@RecordDire
	mov	rdx, r13
	mov	rcx, rsi
	call	AreStructsEqual
	test	al, al
	jne	SHORT $LN51@RecordDire
$LN52@RecordDire:

; 1300 :             AreStructsEqual( newr, oldr ) == FALSE )
; 1301 :             EmitErr( NON_BENIGN_XXX_REDEFINITION, szRecord, newr->sym.name );

	mov	r8, QWORD PTR [rsi+8]
	lea	rdx, OFFSET FLAT:szRecord
	mov	ecx, 139				; 0000008bH
	call	EmitErr
$LN51@RecordDire:

; 1302 :         /* record can be freed, because the record's fields are global items.
; 1303 :          * And initial values of the new definition are ignored!
; 1304 :          */
; 1305 :         SymFree( (struct asym *)newr );

	mov	rcx, rsi
	call	SymFree
$LN50@RecordDire:

; 1306 :     }
; 1307 :     DebugMsg(("RecordDirective(%s) exit, no error\n", name ));
; 1308 :     return( NOT_ERROR );

	xor	eax, eax
$LN95@RecordDire:
	mov	rbx, QWORD PTR [rsp+248]
	mov	rsi, QWORD PTR [rsp+200]

; 1309 : }

	add	rsp, 216				; 000000d8H
	pop	r13
	pop	rdi
	ret	0
RecordDirective ENDP
_TEXT	ENDS
; Function compile flags: /Ogtpy
; File d:\hjwasm\hjwasm2.13.1s\hjwasm2.13.1s\types.c
_TEXT	SEGMENT
ti$ = 48
i$ = 128
tokenarray$ = 136
TypedefDirective PROC

; 964  : {

$LN69:
	push	rsi
	sub	rsp, 112				; 00000070H
	mov	rsi, rdx

; 965  :     struct asym         *sym;
; 966  :     char                *name;
; 967  :     struct qualified_type ti;
; 968  : 
; 969  :     DebugMsg1(("TypedefDirective(%d) enter\n", i));
; 970  : 
; 971  :     if( i != 1 ) {

	cmp	ecx, 1
	je	SHORT $LN8@TypedefDir

; 972  :         return( EmitErr( SYNTAX_ERROR_EX, tokenarray[i].string_ptr ) );

	movsxd	rdx, ecx
	mov	ecx, 209				; 000000d1H
	shl	rdx, 5
	mov	rdx, QWORD PTR [rdx+rsi+8]

; 1101 : }

	add	rsp, 112				; 00000070H
	pop	rsi

; 972  :         return( EmitErr( SYNTAX_ERROR_EX, tokenarray[i].string_ptr ) );

	jmp	EmitErr
$LN8@TypedefDir:
	mov	QWORD PTR [rsp+136], rbx
	mov	QWORD PTR [rsp+144], rbp

; 973  :     }
; 974  :     name = tokenarray[0].string_ptr;
; 975  : 
; 976  :     i++; /* go past TYPEDEF */

	mov	ebp, 2
	mov	QWORD PTR [rsp+104], rdi
	mov	QWORD PTR [rsp+96], r13
	mov	r13, QWORD PTR [rdx+8]

; 977  : 
; 978  :     sym = SymSearch( name );

	mov	rcx, r13
	mov	QWORD PTR [rsp+88], r14
	mov	DWORD PTR i$[rsp], ebp
	call	SymFind

; 979  :     if ( sym == NULL || sym->state == SYM_UNDEFINED ) {

	xor	r14d, r14d
	mov	rbx, rax
	test	rax, rax
	je	SHORT $LN11@TypedefDir
	mov	eax, DWORD PTR [rax+32]
	test	eax, eax
	je	SHORT $LN11@TypedefDir

; 982  :             return( ERROR );
; 983  : #if TYPEOPT
; 984  :         /* release the structinfo data extension */
; 985  :         LclFree( ((struct dsym *)sym)->e.structinfo );
; 986  :         ((struct dsym *)sym)->e.structinfo = NULL;
; 987  : #endif
; 988  :     } else {
; 989  :         /* MASM allows to have the TYPEDEF included multiple times */
; 990  :         /* but the types must be identical! */
; 991  :         if ( ( sym->state != SYM_TYPE ) ||

	cmp	eax, 7
	jne	SHORT $LN14@TypedefDir
	movzx	eax, BYTE PTR [rbx+66]
	cmp	al, 3
	je	SHORT $LN12@TypedefDir
	test	al, al
	je	SHORT $LN12@TypedefDir
$LN14@TypedefDir:

; 992  :             ( sym->typekind != TYPE_TYPEDEF &&
; 993  :              sym->typekind != TYPE_NONE ) ) {
; 994  :             return( EmitErr( SYMBOL_REDEFINITION, sym->name ) );

	mov	rdx, QWORD PTR [rbx+8]
	mov	ecx, 143				; 0000008fH
	call	EmitErr
	jmp	$LN64@TypedefDir
$LN11@TypedefDir:

; 980  :         sym = CreateTypeSymbol( sym, name, TRUE );

	mov	rdi, rbx
	test	rbx, rbx
	je	SHORT $LN43@TypedefDir
	mov	rdx, rbx
	lea	rcx, OFFSET FLAT:SymTables
	call	sym_remove_table
	jmp	SHORT $LN48@TypedefDir
$LN43@TypedefDir:
	mov	rcx, r13
	call	SymCreate
	mov	rdi, rax
$LN48@TypedefDir:
	test	rdi, rdi
	je	SHORT $LN45@TypedefDir
	mov	ecx, 24
	mov	DWORD PTR [rdi+32], 7
	mov	BYTE PTR [rdi+66], r14b
	call	LclAlloc
	mov	QWORD PTR [rdi+96], rax
	mov	QWORD PTR [rax], r14
	mov	QWORD PTR [rax+8], r14
	mov	WORD PTR [rax+16], r14w
$LN45@TypedefDir:
	mov	rbx, rdi

; 981  :         if ( sym == NULL )

	test	rdi, rdi
	je	$LN67@TypedefDir
$LN12@TypedefDir:

; 995  :         }
; 996  :     }
; 997  : 
; 998  :     sym->isdefined = TRUE;

	or	BYTE PTR [rbx+40], bpl

; 999  :     if ( Parse_Pass > PASS_1 )

	cmp	DWORD PTR Parse_Pass, r14d
	ja	$LN66@TypedefDir

; 1000 :         return( NOT_ERROR );
; 1001 :     sym->typekind = TYPE_TYPEDEF;

	mov	BYTE PTR [rbx+66], 3

; 1002 : 
; 1003 :     /* PROTO is special */
; 1004 :     if ( tokenarray[i].token == T_DIRECTIVE && tokenarray[i].tokval == T_PROTO ) {

	movzx	eax, BYTE PTR [rsi+64]
	cmp	al, 3
	jne	$LN16@TypedefDir
	cmp	DWORD PTR [rsi+80], 431			; 000001afH
	jne	$LN16@TypedefDir

; 1005 :         struct dsym *proto;  /* create a PROTOtype item without name */
; 1006 :         /* v2.04: added check if prototype is set already */
; 1007 :         if ( sym->target_type == NULL && sym->mem_type == MT_EMPTY ) {

	mov	rdi, QWORD PTR [rbx+48]
	test	rdi, rdi
	jne	SHORT $LN17@TypedefDir
	cmp	DWORD PTR [rbx+36], 192			; 000000c0H
	jne	SHORT $LN17@TypedefDir

; 1008 :             proto = (struct dsym *)CreateProc( NULL, "", SYM_TYPE );

	lea	r8d, QWORD PTR [rdi+7]
	xor	ecx, ecx
	lea	rdx, OFFSET FLAT:$SG11449
	call	CreateProc
	mov	rdi, rax
	jmp	SHORT $LN20@TypedefDir
$LN17@TypedefDir:

; 1009 :             DebugMsg1(("TypedefDirective PROTO, created new unnamed prototype %p\n", proto ));
; 1010 :         } else if ( sym->mem_type == MT_PROC ) {

	cmp	DWORD PTR [rbx+36], 128			; 00000080H
	jne	SHORT $LN19@TypedefDir
$LN20@TypedefDir:

; 1014 :         }
; 1015 :         i++;
; 1016 :         DebugMsg1(("TypedefDirective PROTO, call ParseProc(sym=%p i=%d, 0)\n", proto, i));
; 1017 :         if( ParseProc( proto, i, tokenarray, FALSE, ModuleInfo.langtype ) == ERROR )

	mov	eax, DWORD PTR ModuleInfo+364
	xor	r9d, r9d
	mov	r8, rsi
	mov	DWORD PTR [rsp+32], eax
	mov	rcx, rdi
	lea	edx, QWORD PTR [r9+3]
	call	ParseProc
	cmp	eax, -1
	jne	SHORT $LN21@TypedefDir
$LN67@TypedefDir:

; 1018 :             return ( ERROR );

	or	eax, -1
	jmp	$LN64@TypedefDir
$LN21@TypedefDir:

; 1019 :         DebugMsg1(("TypedefDirective PROTO, ParseProc() returned status ok\n"));
; 1020 :         sym->mem_type = MT_PROC;

	mov	DWORD PTR [rbx+36], 128			; 00000080H

; 1021 :         /* v2.11: member isproc was set inside ParseProc() */
; 1022 :         //proto->sym.isproc = TRUE; /* v2.05: added */
; 1023 :         sym->Ofssize = proto->sym.seg_ofssize;

	movzx	ecx, BYTE PTR [rdi+47]
	and	cl, 3

; 1024 :         /* v2.03: set value of field total_size (previously was 0) */
; 1025 :         sym->total_size = ( 2 << sym->Ofssize );

	shl	ebp, cl
	mov	DWORD PTR [rbx+56], ebp
	mov	BYTE PTR [rbx+44], cl

; 1026 :         if( proto->sym.mem_type != MT_NEAR ) {

	cmp	DWORD PTR [rdi+36], 129			; 00000081H
	je	SHORT $LN22@TypedefDir

; 1027 :             sym->isfar = TRUE; /* v2.04: added */

	or	BYTE PTR [rbx+47], 16

; 1028 :             sym->total_size += 2;

	add	DWORD PTR [rbx+56], 2
$LN22@TypedefDir:

; 1029 :         }
; 1030 :         sym->target_type = (struct asym *)proto;

	mov	QWORD PTR [rbx+48], rdi
$LN66@TypedefDir:

; 1031 :         DebugMsg1(("TypedefDirective(%s) ok, mem_type=%Xh, ofssize=%u\n", sym->name, sym->mem_type, sym->Ofssize ));
; 1032 :         return( NOT_ERROR );

	xor	eax, eax
	jmp	$LN64@TypedefDir
$LN19@TypedefDir:

; 1011 :             proto = (struct dsym *)sym->target_type;
; 1012 :         } else {
; 1013 :             return( EmitErr( SYMBOL_TYPE_CONFLICT, sym->name ) );

	mov	rdx, QWORD PTR [rbx+8]
	mov	ecx, 136				; 00000088H
	call	EmitErr
	jmp	$LN64@TypedefDir
$LN16@TypedefDir:

; 1033 :     }
; 1034 :     ti.size = 0;
; 1035 :     ti.is_ptr = 0;
; 1036 :     ti.is_far = FALSE;
; 1037 :     ti.mem_type = MT_EMPTY;
; 1038 :     ti.ptr_memtype = MT_EMPTY;
; 1039 :     ti.symtype = NULL;
; 1040 :     ti.Ofssize = ModuleInfo.Ofssize;

	movzx	edi, BYTE PTR ModuleInfo+404
	mov	r10d, 192				; 000000c0H
	xor	r8b, r8b
	mov	QWORD PTR [rsp+80], r15
	mov	DWORD PTR ti$[rsp], r14d
	mov	r9, r14
	mov	WORD PTR ti$[rsp+20], r14w
	movzx	r15d, dil
	mov	DWORD PTR ti$[rsp+16], r10d
	mov	DWORD PTR ti$[rsp+24], r10d
	mov	QWORD PTR ti$[rsp+8], r14
	mov	BYTE PTR ti$[rsp+22], dil

; 1041 : 
; 1042 :     /* "empty" type is ok for TYPEDEF */
; 1043 :     if ( tokenarray[i].token == T_FINAL || tokenarray[i].token == T_COMMA )

	test	al, al
	je	SHORT $LN25@TypedefDir
	cmp	al, 44					; 0000002cH
	je	SHORT $LN25@TypedefDir

; 1044 :         ;
; 1045 :     else if ( GetQualifiedType( &i, tokenarray, &ti ) == ERROR )

	lea	r8, QWORD PTR ti$[rsp]
	mov	rdx, rsi
	lea	rcx, QWORD PTR i$[rsp]
	call	GetQualifiedType
	cmp	eax, -1
	jne	SHORT $LN57@TypedefDir

; 1046 :         return( ERROR );

	or	eax, eax
	jmp	$LN65@TypedefDir
$LN57@TypedefDir:
	mov	ebp, DWORD PTR i$[rsp]
	movzx	r15d, BYTE PTR ti$[rsp+22]
	movzx	r8d, BYTE PTR ti$[rsp+21]
	mov	r10d, DWORD PTR ti$[rsp+16]
	mov	r9, QWORD PTR ti$[rsp+8]
	mov	r14d, DWORD PTR ti$[rsp]
	movzx	edi, BYTE PTR ModuleInfo+404
$LN25@TypedefDir:

; 1047 : 
; 1048 :     /* if type did exist already, check for type conflicts
; 1049 :      * v2.05: this code has been rewritten */
; 1050 :     if ( sym->mem_type != MT_EMPTY ) {

	cmp	DWORD PTR [rbx+36], 192			; 000000c0H
	je	SHORT $LN28@TypedefDir

; 1051 :         struct asym *to;
; 1052 :         struct asym *tn;
; 1053 :         char oo;
; 1054 :         char on;
; 1055 :         for( tn = ti.symtype; tn && tn->type; tn = tn->type );

	mov	rdx, r9
	test	r9, r9
	je	SHORT $LN58@TypedefDir
	npad	4
$LL4@TypedefDir:
	mov	rax, QWORD PTR [rdx+80]
	test	rax, rax
	je	SHORT $LN58@TypedefDir
	mov	rdx, rax
	jmp	SHORT $LL4@TypedefDir
$LN58@TypedefDir:

; 1056 :         to = ( sym->mem_type == MT_TYPE ) ? sym->type : sym->target_type;

	cmp	DWORD PTR [rbx+36], 196			; 000000c4H
	jne	SHORT $LN36@TypedefDir
	mov	rcx, QWORD PTR [rbx+80]
	jmp	SHORT $LN37@TypedefDir
$LN36@TypedefDir:
	mov	rcx, QWORD PTR [rbx+48]
$LN37@TypedefDir:

; 1057 :         for( ; to && to->type; to = to->type );

	test	rcx, rcx
	je	SHORT $LN59@TypedefDir
$LL7@TypedefDir:
	mov	rax, QWORD PTR [rcx+80]
	test	rax, rax
	je	SHORT $LN59@TypedefDir
	mov	rcx, rax
	jmp	SHORT $LL7@TypedefDir
$LN59@TypedefDir:

; 1058 :         oo = ( sym->Ofssize != USE_EMPTY ) ? sym->Ofssize : ModuleInfo.Ofssize;

	movzx	eax, BYTE PTR [rbx+44]
	cmp	al, 254					; 000000feH
	movzx	r11d, dil
	cmovne	r11d, eax

; 1059 :         on = ( ti.Ofssize != USE_EMPTY ) ? ti.Ofssize : ModuleInfo.Ofssize;

	cmp	r15b, 254				; 000000feH
	movzx	eax, r15b
	cmovne	edi, eax

; 1060 :         if ( ti.mem_type != sym->mem_type ||
; 1061 :             ( ti.mem_type == MT_TYPE && tn != to ) ||

	cmp	r10d, DWORD PTR [rbx+36]
	jne	SHORT $LN31@TypedefDir
	cmp	r10d, 196				; 000000c4H
	jne	SHORT $LN30@TypedefDir
	cmp	rdx, rcx
	jne	SHORT $LN31@TypedefDir
$LN28@TypedefDir:

; 1077 :         }
; 1078 :     }
; 1079 : 
; 1080 :     sym->mem_type = ti.mem_type;
; 1081 :     sym->Ofssize = ti.Ofssize;
; 1082 :     sym->total_size = ti.size;
; 1083 :     sym->is_ptr = ti.is_ptr;
; 1084 :     sym->isfar = ti.is_far;

	and	BYTE PTR [rbx+47], 239			; 000000efH
	and	r8b, 1
	movzx	eax, BYTE PTR ti$[rsp+20]
	shl	r8b, 4
	or	BYTE PTR [rbx+47], r8b
	mov	DWORD PTR [rbx+36], r10d
	mov	BYTE PTR [rbx+44], r15b
	mov	DWORD PTR [rbx+56], r14d
	mov	BYTE PTR [rbx+45], al

; 1085 :     if ( ti.mem_type == MT_TYPE )

	cmp	r10d, 196				; 000000c4H
	jne	SHORT $LN32@TypedefDir

; 1086 :         sym->type = ti.symtype;

	mov	QWORD PTR [rbx+80], r9
	jmp	SHORT $LN33@TypedefDir
$LN30@TypedefDir:

; 1060 :         if ( ti.mem_type != sym->mem_type ||
; 1061 :             ( ti.mem_type == MT_TYPE && tn != to ) ||

	cmp	r10d, 195				; 000000c3H
	jne	SHORT $LN28@TypedefDir
	movzx	eax, BYTE PTR [rbx+47]
	shr	al, 4
	and	al, 1
	cmp	r8b, al
	jne	SHORT $LN31@TypedefDir
	cmp	dil, r11b
	jne	SHORT $LN31@TypedefDir
	movzx	eax, BYTE PTR [rbx+46]
	cmp	DWORD PTR ti$[rsp+24], eax
	jne	SHORT $LN31@TypedefDir
	cmp	rdx, rcx
	je	SHORT $LN28@TypedefDir
$LN31@TypedefDir:

; 1062 :             ( ti.mem_type == MT_PTR &&
; 1063 :              ( ti.is_far != sym->isfar ||
; 1064 :               on != oo ||
; 1065 :               ti.ptr_memtype != sym->ptr_memtype ||
; 1066 :               tn != to ))) {
; 1067 :             DebugMsg(("TypedefDirective: old-new memtype=%X-%X type=%X(%s)-%X(%s) far=%u-%u ind=%u-%u ofss=%d-%d pmt=%X-%X\n",
; 1068 :                       sym->mem_type, ti.mem_type,
; 1069 :                       (sym->mem_type == MT_TYPE) ? sym->type : sym->target_type,
; 1070 :                       (sym->mem_type == MT_TYPE) ? sym->type->name : sym->target_type ? sym->target_type->name : "",
; 1071 :                       ti.symtype, ti.symtype ? ti.symtype->name : "",
; 1072 :                       sym->isfar, ti.is_far,
; 1073 :                       sym->is_ptr, ti.is_ptr,
; 1074 :                       sym->Ofssize, ti.Ofssize,
; 1075 :                       sym->ptr_memtype, ti.ptr_memtype ));
; 1076 :             return( EmitErr( SYMBOL_TYPE_CONFLICT, name ) );

	mov	rdx, r13
	mov	ecx, 136				; 00000088H
	call	EmitErr
	jmp	SHORT $LN65@TypedefDir
$LN32@TypedefDir:

; 1087 :     else
; 1088 :         sym->target_type = ti.symtype;

	mov	QWORD PTR [rbx+48], r9
$LN33@TypedefDir:

; 1089 :     sym->ptr_memtype = ti.ptr_memtype;

	movzx	eax, BYTE PTR ti$[rsp+24]
	mov	BYTE PTR [rbx+46], al

; 1090 :     DebugMsg1(("TypedefDirective(%s) ok, mem_type=MT_TYPE, size=%" I32_SPEC "u, type=%p type.memtype=%X\n",
; 1091 :                sym->name, sym->total_size, sym->type, ti.symtype ? ti.symtype->mem_type : 0 ));
; 1092 : 
; 1093 :     DebugMsg1(("TypedefDirective(%s) ok, mem_type=%Xh, size=%u, indirection=%u target=%p\n", sym->name, sym->mem_type, ti.size, ti.is_ptr, ti.symtype ));
; 1094 : 
; 1095 :     if ( tokenarray[i].token != T_FINAL ) {

	movsxd	rax, ebp
	shl	rax, 5
	cmp	BYTE PTR [rax+rsi], 0
	je	SHORT $LN34@TypedefDir

; 1096 :         DebugMsg(("TypedefDirective: unexpected token %u, idx=%u\n", tokenarray[i].token, i));
; 1097 :         return( EmitErr( SYNTAX_ERROR_EX, tokenarray[i].string_ptr ) );

	mov	rdx, QWORD PTR [rax+rsi+8]
	mov	ecx, 209				; 000000d1H
	call	EmitErr
	jmp	SHORT $LN65@TypedefDir
$LN34@TypedefDir:

; 1098 :     }
; 1099 : 
; 1100 :     return( NOT_ERROR );

	xor	eax, eax
$LN65@TypedefDir:
	mov	r15, QWORD PTR [rsp+80]
$LN64@TypedefDir:
	mov	r13, QWORD PTR [rsp+96]
	mov	rdi, QWORD PTR [rsp+104]
	mov	rbp, QWORD PTR [rsp+144]
	mov	rbx, QWORD PTR [rsp+136]
	mov	r14, QWORD PTR [rsp+88]

; 1101 : }

	add	rsp, 112				; 00000070H
	pop	rsi
	ret	0
TypedefDirective ENDP
_TEXT	ENDS
; Function compile flags: /Ogtpy
; File d:\hjwasm\hjwasm2.13.1s\hjwasm2.13.1s\types.c
;	COMDAT CheckAnonymousStruct
_TEXT	SEGMENT
disp$ = 64
type$ = 64
f$1$ = 72
CheckAnonymousStruct PROC				; COMDAT

; 513  : {

	mov	QWORD PTR [rsp+24], rbx
	push	rbp
	push	rsi
	push	rdi
	sub	rsp, 32					; 00000020H

; 514  :     uint_32 disp;
; 515  :     struct asym  *sym;
; 516  :     struct sfield *f;
; 517  : 
; 518  :     for ( f = type->e.structinfo->head; f; f = f->next ) {

	mov	rax, QWORD PTR [rcx+96]
	mov	rdx, QWORD PTR [rax]
	mov	QWORD PTR f$1$[rsp], rdx
	test	rdx, rdx
	je	$LN43@CheckAnony
$LL4@CheckAnony:

; 519  :         if ( *f->sym.name ) {

	mov	rsi, QWORD PTR [rdx+8]
	cmp	BYTE PTR [rsi], 0
	je	$LN5@CheckAnony

; 520  :             sym = SearchNameInStruct((struct asym *)CurrStruct, f->sym.name, &disp, 0 );

	or	rdi, -1
$LL44@CheckAnony:
	inc	rdi
	cmp	BYTE PTR [rsi+rdi], 0
	jne	SHORT $LL44@CheckAnony
	mov	rax, QWORD PTR CurrStruct
	xor	ebp, ebp
	mov	rbx, QWORD PTR [rax+96]
	mov	rbx, QWORD PTR [rbx]
	test	rbx, rbx
	je	$LN2@CheckAnony
$LL16@CheckAnony:
	mov	rdx, QWORD PTR [rbx+8]
	cmp	BYTE PTR [rdx], 0
	jne	SHORT $LN18@CheckAnony
	cmp	DWORD PTR [rbx+32], 7
	jne	SHORT $LN20@CheckAnony
	mov	rcx, rbx
	jmp	SHORT $LN47@CheckAnony
$LN20@CheckAnony:
	cmp	DWORD PTR [rbx+36], 196			; 000000c4H
	jne	SHORT $LN14@CheckAnony
	mov	rcx, QWORD PTR [rbx+80]
$LN47@CheckAnony:
	mov	rdx, rsi
	lea	r8, QWORD PTR disp$[rsp]
	mov	r9d, 1
	call	SearchNameInStruct
	mov	rbp, rax
	test	rax, rax
	je	SHORT $LN14@CheckAnony
	mov	eax, DWORD PTR [rbx+16]
	add	DWORD PTR disp$[rsp], eax
	jmp	SHORT $LN42@CheckAnony
$LN18@CheckAnony:
	movzx	eax, BYTE PTR [rbx+72]
	cmp	edi, eax
	jne	SHORT $LN14@CheckAnony
	movsxd	r8, edi
	mov	rcx, rsi
	call	QWORD PTR SymCmpFunc
	test	eax, eax
	je	SHORT $LN31@CheckAnony
$LN14@CheckAnony:
	mov	rbx, QWORD PTR [rbx+96]
	test	rbx, rbx
	jne	SHORT $LL16@CheckAnony
	jmp	SHORT $LN42@CheckAnony
$LN31@CheckAnony:
	mov	rbp, rbx
$LN42@CheckAnony:

; 521  :             if ( sym ) {

	test	rbp, rbp
	je	SHORT $LN45@CheckAnony

; 522  :                 return( EmitErr( SYMBOL_REDEFINITION, sym->name ) );

	mov	rdx, QWORD PTR [rbp+8]
	mov	ecx, 143				; 0000008fH
	call	EmitErr

; 534  : }

	mov	rbx, QWORD PTR [rsp+80]
	add	rsp, 32					; 00000020H
	pop	rdi
	pop	rsi
	pop	rbp
	ret	0
$LN5@CheckAnony:

; 523  :             }
; 524  :         } else if ( f->sym.type ) {

	mov	rcx, QWORD PTR [rdx+80]
	test	rcx, rcx
	je	SHORT $LN2@CheckAnony
	movzx	eax, BYTE PTR [rcx+66]
	dec	al
	cmp	al, 1
	ja	SHORT $LN2@CheckAnony

; 525  :             struct dsym *stype = (struct dsym *)f->sym.type;
; 526  :             if ( stype->sym.typekind == TYPE_STRUCT ||
; 527  :                 stype->sym.typekind == TYPE_UNION ) {
; 528  :             if ( CheckAnonymousStruct( stype ) == ERROR )

	call	CheckAnonymousStruct
	cmp	eax, -1
	je	SHORT $LN33@CheckAnony
$LN45@CheckAnony:
	mov	rdx, QWORD PTR f$1$[rsp]
$LN2@CheckAnony:

; 514  :     uint_32 disp;
; 515  :     struct asym  *sym;
; 516  :     struct sfield *f;
; 517  : 
; 518  :     for ( f = type->e.structinfo->head; f; f = f->next ) {

	mov	rdx, QWORD PTR [rdx+96]
	mov	QWORD PTR f$1$[rsp], rdx
	test	rdx, rdx
	jne	$LL4@CheckAnony
$LN43@CheckAnony:

; 530  :             }
; 531  :         }
; 532  :     }
; 533  :     return( NOT_ERROR );

	xor	eax, eax

; 534  : }

	mov	rbx, QWORD PTR [rsp+80]
	add	rsp, 32					; 00000020H
	pop	rdi
	pop	rsi
	pop	rbp
	ret	0
$LN33@CheckAnony:

; 529  :                 return( ERROR );

	or	eax, -1

; 534  : }

	mov	rbx, QWORD PTR [rsp+80]
	add	rsp, 32					; 00000020H
	pop	rdi
	pop	rsi
	pop	rbp
	ret	0
CheckAnonymousStruct ENDP
_TEXT	ENDS
; Function compile flags: /Ogtpy
; File d:\hjwasm\hjwasm2.13.1s\hjwasm2.13.1s\types.c
_TEXT	SEGMENT
i$ = 64
tokenarray$ = 72
EndstructDirective PROC

; 369  : {

$LN60:
	mov	QWORD PTR [rsp+24], rbx
	mov	QWORD PTR [rsp+32], rbp
	push	rsi
	sub	rsp, 48					; 00000030H

; 370  :     //char *name;
; 371  :     //unsigned int offset;
; 372  :     unsigned int size;
; 373  :     //struct asym *sym;
; 374  :     //memtype mem_type;
; 375  :     struct dsym *dir;
; 376  : 
; 377  :     dir = CurrStruct; /* cannot be NULL */
; 378  : 
; 379  :     DebugMsg1(("EndstructDirective(%s), ofs=%" I32_SPEC "u, struct size=%" I32_SPEC "u, max_mbr=%" I32_SPEC "u, alignment=%u\n",
; 380  :               dir->sym.name,
; 381  :               dir->sym.offset,
; 382  :               dir->sym.total_size,
; 383  :               dir->sym.max_mbr_size,
; 384  :               dir->e.structinfo->alignment));
; 385  : 
; 386  :     /* if pass is > 1 just do minimal work */
; 387  :     if ( Parse_Pass > PASS_1 ) {

	cmp	DWORD PTR Parse_Pass, 0
	mov	rbp, rdx
	mov	rbx, QWORD PTR CurrStruct
	mov	esi, ecx
	jbe	SHORT $LN7@EndstructD

; 388  :         CurrStruct->sym.offset = 0;

	mov	DWORD PTR [rbx+16], 0

; 389  :         size = CurrStruct->sym.total_size;

	mov	rax, QWORD PTR CurrStruct

; 390  :         CurrStruct = CurrStruct->next;

	mov	rcx, QWORD PTR [rax+104]
	mov	edx, DWORD PTR [rax+56]
	mov	QWORD PTR CurrStruct, rcx

; 391  :         if ( CurrStruct )

	test	rcx, rcx
	je	SHORT $LN44@EndstructD

; 392  :             UpdateStructSize( (struct asym *)dir );

	cmp	BYTE PTR [rcx+66], 2
	mov	eax, DWORD PTR [rbx+56]
	jne	SHORT $LN41@EndstructD
	cmp	eax, DWORD PTR [rcx+56]
	jbe	SHORT $LN44@EndstructD
	mov	DWORD PTR [rcx+56], eax
	jmp	SHORT $LN44@EndstructD
$LN41@EndstructD:
	add	DWORD PTR [rcx+16], eax
	mov	rax, QWORD PTR CurrStruct
	mov	ecx, DWORD PTR [rax+16]
	cmp	ecx, DWORD PTR [rax+56]
	jle	SHORT $LN44@EndstructD
	mov	DWORD PTR [rax+56], ecx
$LN44@EndstructD:

; 393  :         if ( CurrFile[LST] )

	cmp	QWORD PTR ModuleInfo+112, 0
	je	SHORT $LN9@EndstructD

; 394  :             LstWrite( LSTTYPE_STRUCT, size, dir );

	mov	r8, rbx
	mov	ecx, 6
	call	LstWrite
$LN9@EndstructD:

; 395  :         return( NOT_ERROR );

	xor	eax, eax

; 505  :     }
; 506  :     return( NOT_ERROR );
; 507  : }

	mov	rbx, QWORD PTR [rsp+80]
	mov	rbp, QWORD PTR [rsp+88]
	add	rsp, 48					; 00000030H
	pop	rsi
	ret	0
$LN7@EndstructD:

; 396  :     }
; 397  : 
; 398  :     /* syntax is either "<name> ENDS" (i=1) or "ENDS" (i=0).
; 399  :      * first case must be top level (next=NULL), latter case must NOT be top level (next!=NULL)
; 400  :      */
; 401  :     if ( ( i == 1 && dir->next == NULL ) ||

	cmp	ecx, 1
	jne	SHORT $LN13@EndstructD
	cmp	QWORD PTR [rbx+104], 0
	je	SHORT $LN56@EndstructD

; 402  :         ( i == 0 && dir->next != NULL ) ) {
; 403  :         ;
; 404  :     } else {
; 405  :         /* v2.04: error msg improved */
; 406  :         //EmitErr( SYNTAX_ERROR_EX, tokenarray[i].string_ptr );
; 407  :         return( EmitErr( UNMATCHED_BLOCK_NESTING, i == 1 ? tokenarray[0].string_ptr : "" ) );

	mov	rdx, QWORD PTR [rdx+8]
	jmp	$LN37@EndstructD
$LN56@EndstructD:

; 408  :     }
; 409  : 
; 410  :     if ( i == 1 ) { /* an global struct ends with <name ENDS> */
; 411  :         if ( SymCmpFunc( tokenarray[0].string_ptr, dir->sym.name, dir->sym.name_size ) != 0 ) {

	movzx	r8d, BYTE PTR [rbx+72]
	mov	rdx, QWORD PTR [rbx+8]
	mov	rcx, QWORD PTR [rbp+8]
	call	QWORD PTR SymCmpFunc
	test	eax, eax
	je	SHORT $LN15@EndstructD

; 412  :             /* names don't match */
; 413  :             DebugMsg(("EndstructDirective: names don't match, i=%u, name=%s - %s\n", i, tokenarray[0].string_ptr, dir->sym.name));
; 414  :             return( EmitErr( UNMATCHED_BLOCK_NESTING, tokenarray[0].string_ptr ) );

	mov	rdx, QWORD PTR [rbp+8]
	jmp	$LN37@EndstructD
$LN13@EndstructD:

; 396  :     }
; 397  : 
; 398  :     /* syntax is either "<name> ENDS" (i=1) or "ENDS" (i=0).
; 399  :      * first case must be top level (next=NULL), latter case must NOT be top level (next!=NULL)
; 400  :      */
; 401  :     if ( ( i == 1 && dir->next == NULL ) ||

	test	ecx, ecx
	jne	$LN36@EndstructD
	cmp	QWORD PTR [rbx+104], 0
	je	$LN36@EndstructD
$LN15@EndstructD:

; 415  :         }
; 416  :     }
; 417  : 
; 418  :     i++; /* go past ENDS */
; 419  : 
; 420  :     /* v2.07: if ORG was used inside the struct, the struct's size
; 421  :      * has to be calculated now - there may exist negative offsets.
; 422  :      */
; 423  :     if ( dir->e.structinfo->OrgInside ) {

	mov	r8, QWORD PTR [rbx+96]
	inc	esi
	mov	QWORD PTR [rsp+64], r14
	mov	QWORD PTR [rsp+72], r15
	test	BYTE PTR [r8+17], 4
	je	SHORT $LN16@EndstructD

; 424  :         struct sfield *f;
; 425  :         int_32 min = 0;
; 426  :         for ( f = dir->e.structinfo->head; f; f = f->next )

	mov	rdx, QWORD PTR [r8]
	xor	ecx, ecx
	test	rdx, rdx
	je	SHORT $LN3@EndstructD
	npad	1
$LL4@EndstructD:

; 427  :             if ( f->sym.offset < min )

	mov	eax, DWORD PTR [rdx+16]
	cmp	eax, ecx
	mov	rdx, QWORD PTR [rdx+96]
	cmovl	ecx, eax
	test	rdx, rdx
	jne	SHORT $LL4@EndstructD
$LN3@EndstructD:

; 428  :                 min = f->sym.offset;
; 429  :         dir->sym.total_size = dir->sym.total_size - min;

	sub	DWORD PTR [rbx+56], ecx
$LN16@EndstructD:

; 430  :     }
; 431  : 
; 432  :     /* Pad bytes at the end of the structure. */
; 433  : #if 1
; 434  :     /* v2.02: this is to be done in any case, whether -Zg is set or not */
; 435  :     //if ( dir->e.structinfo->alignment > 1 && Options.masm_compat_gencode == FALSE ) {
; 436  :     if ( dir->e.structinfo->alignment > 1 ) {

	movzx	eax, BYTE PTR [r8+16]
	mov	r15d, 1
	cmp	al, r15b
	jbe	SHORT $LN18@EndstructD

; 437  :         size = dir->sym.max_mbr_size;

	mov	edx, DWORD PTR [rbx+48]

; 438  :         if ( size == 0 )

	test	edx, edx

; 439  :             size++;
; 440  :         if ( size > dir->e.structinfo->alignment )
; 441  :             size = dir->e.structinfo->alignment;
; 442  :         dir->sym.total_size = (dir->sym.total_size + size - 1) & (-size);

	mov	ecx, DWORD PTR [rbx+56]
	cmove	edx, r15d
	movzx	eax, al
	cmp	edx, eax
	cmova	edx, eax
	dec	ecx
	add	ecx, edx
	neg	edx
	and	ecx, edx
	mov	DWORD PTR [rbx+56], ecx
$LN18@EndstructD:

; 443  :         DebugMsg1(("EndstructDirective:, struct size after final alignment=%" I32_SPEC "u\n", dir->sym.total_size));
; 444  :     }
; 445  : #endif
; 446  :     dir->e.structinfo->isOpen = FALSE;

	and	BYTE PTR [r8+17], 253			; 000000fdH

; 447  :     dir->sym.isdefined = TRUE;

	or	BYTE PTR [rbx+40], 2

; 448  : 
; 449  :     /* if there's a negative offset, size will be wrong! */
; 450  :     size = dir->sym.total_size;
; 451  : 
; 452  :     /* reset offset, it's just used during the definition */
; 453  :     dir->sym.offset = 0;
; 454  : 
; 455  :     CurrStruct = dir->next;

	mov	rax, QWORD PTR [rbx+104]
	mov	r14d, DWORD PTR [rbx+56]
	mov	DWORD PTR [rbx+16], 0
	mov	QWORD PTR CurrStruct, rax

; 456  :     /* v2.0: add the embedded struct AFTER it has been parsed! */
; 457  :     if ( i == 1 ) {

	cmp	esi, r15d
	jne	SHORT $LN21@EndstructD

; 458  :         struct asym *sym;
; 459  :         /* v2.06: the struct name is needed for checks */
; 460  :         sym = CreateStructField( -1, NULL, *dir->sym.name ? dir->sym.name : NULL, MT_TYPE, &dir->sym, dir->sym.total_size );

	mov	rax, QWORD PTR [rbx+8]
	xor	r8d, r8d
	mov	r9d, 196				; 000000c4H
	cmp	BYTE PTR [rax], r8b
	cmovne	r8, rax
	mov	eax, DWORD PTR [rbx+56]
	mov	DWORD PTR [rsp+40], eax
	xor	edx, edx
	or	ecx, -1
	mov	QWORD PTR [rsp+32], rbx
	call	CreateStructField

; 461  :         /* the member name was stored in the type name */
; 462  :         //sym->name = dir->sym.name;
; 463  :         //sym->name_size = strlen( dir->sym.name );
; 464  :         sym->total_size = dir->sym.total_size;

	mov	ecx, DWORD PTR [rbx+56]
	mov	DWORD PTR [rax+56], ecx

; 465  :         dir->sym.name = ""; /* the type becomes anonymous */

	lea	rax, OFFSET FLAT:$SG11210
	mov	QWORD PTR [rbx+8], rax

; 466  :         dir->sym.name_size = 0;

	mov	BYTE PTR [rbx+72], 0
$LN21@EndstructD:

; 467  :     }
; 468  : 
; 469  :     if ( CurrFile[LST] ) {

	cmp	QWORD PTR ModuleInfo+112, 0
	je	SHORT $LN22@EndstructD

; 470  :         LstWrite( LSTTYPE_STRUCT, size, dir );

	mov	r8, rbx
	mov	edx, r14d
	mov	ecx, 6
	call	LstWrite
$LN22@EndstructD:

; 471  :     }
; 472  : #if 1
; 473  :     /* to allow direct structure access */
; 474  :     switch ( dir->sym.total_size ) {

	mov	ecx, DWORD PTR [rbx+56]
	mov	r14, QWORD PTR [rsp+64]
	sub	ecx, r15d
	je	SHORT $LN23@EndstructD
	sub	ecx, r15d
	je	SHORT $LN24@EndstructD
	sub	ecx, 2
	je	SHORT $LN25@EndstructD
	sub	ecx, 2
	je	SHORT $LN26@EndstructD
	cmp	ecx, 2
	je	SHORT $LN27@EndstructD

; 480  :     //case 16:  dir->sym.mem_type = MT_OWORD;  break;
; 481  :     default: dir->sym.mem_type = MT_EMPTY;

	mov	DWORD PTR [rbx+36], 192			; 000000c0H
	jmp	SHORT $LN5@EndstructD
$LN27@EndstructD:

; 479  :     case 8:  dir->sym.mem_type = MT_QWORD;  break;

	mov	DWORD PTR [rbx+36], 7
	jmp	SHORT $LN5@EndstructD
$LN26@EndstructD:

; 478  :     case 6:  dir->sym.mem_type = MT_FWORD;  break;

	mov	DWORD PTR [rbx+36], 5
	jmp	SHORT $LN5@EndstructD
$LN25@EndstructD:

; 477  :     case 4:  dir->sym.mem_type = MT_DWORD;  break;

	mov	DWORD PTR [rbx+36], 3
	jmp	SHORT $LN5@EndstructD
$LN24@EndstructD:

; 476  :     case 2:  dir->sym.mem_type = MT_WORD;   break;

	mov	DWORD PTR [rbx+36], r15d
	jmp	SHORT $LN5@EndstructD
$LN23@EndstructD:

; 475  :     case 1:  dir->sym.mem_type = MT_BYTE;   break;

	mov	DWORD PTR [rbx+36], 0
$LN5@EndstructD:

; 482  :     }
; 483  : #endif
; 484  :     /* reset redefine */
; 485  :     if ( CurrStruct == NULL ) {

	mov	rcx, QWORD PTR CurrStruct
	mov	r15, QWORD PTR [rsp+72]
	test	rcx, rcx
	jne	SHORT $LN29@EndstructD

; 486  :         if ( redef_struct ) {

	mov	rdx, QWORD PTR redef_struct
	test	rdx, rdx
	je	SHORT $LN50@EndstructD

; 487  :             if ( AreStructsEqual( dir, redef_struct) == FALSE ) {

	mov	rcx, rbx
	call	AreStructsEqual
	test	al, al
	jne	SHORT $LN32@EndstructD

; 488  :                 EmitErr( NON_BENIGN_XXX_REDEFINITION, szStructure, dir->sym.name );

	mov	r8, QWORD PTR [rbx+8]
	lea	rdx, OFFSET FLAT:szStructure
	mov	ecx, 139				; 0000008bH
	call	EmitErr
$LN32@EndstructD:

; 489  :             }
; 490  :             DebugMsg(("EndstructDirective: delete the redefinition of %s\n", dir->sym.name ));
; 491  :             SymFree( (struct asym *)dir );

	mov	rcx, rbx
	call	SymFree

; 492  :             redef_struct = NULL;

	mov	QWORD PTR redef_struct, 0

; 493  :         }
; 494  :     } else {

	jmp	SHORT $LN50@EndstructD
$LN29@EndstructD:

; 495  : 
; 496  :         if ( dir->sym.max_mbr_size > CurrStruct->sym.max_mbr_size )

	mov	eax, DWORD PTR [rbx+48]
	cmp	eax, DWORD PTR [rcx+48]
	jbe	SHORT $LN33@EndstructD

; 497  :             CurrStruct->sym.max_mbr_size = dir->sym.max_mbr_size;

	mov	DWORD PTR [rcx+48], eax
	mov	rcx, QWORD PTR CurrStruct
$LN33@EndstructD:

; 498  : 
; 499  :         UpdateStructSize( (struct asym *)dir );

	cmp	BYTE PTR [rcx+66], 2
	mov	eax, DWORD PTR [rbx+56]
	jne	SHORT $LN47@EndstructD
	cmp	eax, DWORD PTR [rcx+56]
	jbe	SHORT $LN50@EndstructD
	mov	DWORD PTR [rcx+56], eax
	jmp	SHORT $LN50@EndstructD
$LN47@EndstructD:
	add	DWORD PTR [rcx+16], eax
	mov	rax, QWORD PTR CurrStruct
	mov	ecx, DWORD PTR [rax+16]
	cmp	ecx, DWORD PTR [rax+56]
	jle	SHORT $LN50@EndstructD
	mov	DWORD PTR [rax+56], ecx
$LN50@EndstructD:

; 500  :         DebugMsg1(("EndstructDirective: new size of restored structure=%u\n", CurrStruct->sym.total_size));
; 501  :     }
; 502  :     //dir->sym.max_mbr_size = 0;
; 503  :     if ( tokenarray[i].token != T_FINAL ) {

	movsxd	rax, esi
	shl	rax, 5
	cmp	BYTE PTR [rax+rbp], 0
	je	$LN9@EndstructD

; 504  :         return( EmitErr( SYNTAX_ERROR_EX, tokenarray[i].string_ptr ) );

	mov	rdx, QWORD PTR [rax+rbp+8]
	mov	ecx, 209				; 000000d1H
	jmp	SHORT $LN58@EndstructD
$LN36@EndstructD:

; 402  :         ( i == 0 && dir->next != NULL ) ) {
; 403  :         ;
; 404  :     } else {
; 405  :         /* v2.04: error msg improved */
; 406  :         //EmitErr( SYNTAX_ERROR_EX, tokenarray[i].string_ptr );
; 407  :         return( EmitErr( UNMATCHED_BLOCK_NESTING, i == 1 ? tokenarray[0].string_ptr : "" ) );

	lea	rdx, OFFSET FLAT:$SG11201
$LN37@EndstructD:
	mov	ecx, 142				; 0000008eH
$LN58@EndstructD:

; 505  :     }
; 506  :     return( NOT_ERROR );
; 507  : }

	mov	rbx, QWORD PTR [rsp+80]
	mov	rbp, QWORD PTR [rsp+88]
	add	rsp, 48					; 00000030H
	pop	rsi

; 402  :         ( i == 0 && dir->next != NULL ) ) {
; 403  :         ;
; 404  :     } else {
; 405  :         /* v2.04: error msg improved */
; 406  :         //EmitErr( SYNTAX_ERROR_EX, tokenarray[i].string_ptr );
; 407  :         return( EmitErr( UNMATCHED_BLOCK_NESTING, i == 1 ? tokenarray[0].string_ptr : "" ) );

	jmp	EmitErr
EndstructDirective ENDP
_TEXT	ENDS
; Function compile flags: /Ogtpy
; File d:\hjwasm\hjwasm2.13.1s\hjwasm2.13.1s\types.c
_TEXT	SEGMENT
opndx$1 = 48
i$ = 192
offset$ = 200
tokenarray$ = 200
StructDirective PROC

; 169  : {

$LN89:
	mov	DWORD PTR [rsp+8], ecx
	push	rdi
	push	r14
	sub	rsp, 168				; 000000a8H

; 170  :     char *name;
; 171  :     unsigned alignment;
; 172  :     uint_32 offset;
; 173  :     uint_8 typekind = ( tokenarray[i].tokval == T_UNION ? TYPE_UNION : TYPE_STRUCT );
; 174  :     //unsigned int size;
; 175  :     struct asym *sym;
; 176  :     struct dsym *dir;
; 177  : 
; 178  :     DebugMsg1(("StructDirective(%s) enter, i=%u, CurrStruct=%s\n", tokenarray[i].string_ptr, i, CurrStruct ? CurrStruct->sym.name : "NULL" ));
; 179  : 
; 180  :     /* top level structs/unions must have an identifier at pos 0.
; 181  :      * for embedded structs, the directive must be at pos 0,
; 182  :      * an identifier is optional then.
; 183  :      */
; 184  :     if (( CurrStruct == NULL && i != 1 ) ||

	mov	r10, QWORD PTR CurrStruct
	mov	rdi, rdx
	movsxd	r8, ecx
	mov	rdx, r8
	shl	rdx, 5
	cmp	DWORD PTR [rdx+rdi+16], 423		; 000001a7H
	sete	r14b
	inc	r14b
	test	r10, r10
	jne	SHORT $LN76@StructDire
	cmp	r8d, 1
	jne	SHORT $LN8@StructDire
$LN7@StructDire:

; 188  :     }
; 189  : 
; 190  :     alignment = ( 1 << ModuleInfo.fieldalign );

	movzx	ecx, BYTE PTR ModuleInfo+397

; 191  : 
; 192  :     i++; /* go past STRUCT/UNION */

	inc	r8d
	mov	QWORD PTR [rsp+208], rbx
	mov	ebx, 1
	mov	QWORD PTR [rsp+216], rbp
	mov	ebp, ebx
	shl	ebp, cl
	mov	QWORD PTR [rsp+160], rsi
	mov	DWORD PTR i$[rsp], r8d

; 193  : 
; 194  :     if ( i == 1 ) { /* embedded struct? */

	cmp	r8d, ebx
	jne	SHORT $LN10@StructDire

; 195  :         /* scan for the optional name */
; 196  : #if ANYNAME
; 197  :         /* the name might be a reserved word!
; 198  :          * Masm won't allow those.
; 199  :          */
; 200  :         //if ( tokenarray[i].token != T_FINAL && is_valid_id_first_char(*(tokenarray[i].string_ptr) ) ) {
; 201  : #else
; 202  :         if ( tokenarray[i].token == T_ID ) {

	cmp	BYTE PTR [rdi+32], 8
	jne	SHORT $LN12@StructDire

; 203  : #endif
; 204  :             name = tokenarray[i].string_ptr;

	mov	rsi, QWORD PTR [rdi+40]

; 205  :             i++;

	mov	r8d, 2
	mov	DWORD PTR i$[rsp], r8d

; 206  :         } else {

	jmp	SHORT $LN11@StructDire
$LN76@StructDire:

; 170  :     char *name;
; 171  :     unsigned alignment;
; 172  :     uint_32 offset;
; 173  :     uint_8 typekind = ( tokenarray[i].tokval == T_UNION ? TYPE_UNION : TYPE_STRUCT );
; 174  :     //unsigned int size;
; 175  :     struct asym *sym;
; 176  :     struct dsym *dir;
; 177  : 
; 178  :     DebugMsg1(("StructDirective(%s) enter, i=%u, CurrStruct=%s\n", tokenarray[i].string_ptr, i, CurrStruct ? CurrStruct->sym.name : "NULL" ));
; 179  : 
; 180  :     /* top level structs/unions must have an identifier at pos 0.
; 181  :      * for embedded structs, the directive must be at pos 0,
; 182  :      * an identifier is optional then.
; 183  :      */
; 184  :     if (( CurrStruct == NULL && i != 1 ) ||

	test	ecx, ecx
	je	SHORT $LN7@StructDire
$LN8@StructDire:

; 185  :         ( CurrStruct != NULL && i != 0 ) ) {
; 186  :         DebugMsg(("StructDirective(%s): error: either currstruct or i must be 0\n", tokenarray[i].string_ptr ));
; 187  :         return( EmitErr( SYNTAX_ERROR_EX, tokenarray[i].string_ptr ) );

	mov	rdx, QWORD PTR [rdx+rdi+8]
	mov	ecx, 209				; 000000d1H
	call	EmitErr

; 363  : }

	add	rsp, 168				; 000000a8H
	pop	r14
	pop	rdi
	ret	0
$LN12@StructDire:

; 207  :             name = "";

	lea	rsi, OFFSET FLAT:$SG11132

; 208  :         }
; 209  :     } else {

	jmp	SHORT $LN11@StructDire
$LN10@StructDire:

; 210  :         name = tokenarray[0].string_ptr;

	mov	rsi, QWORD PTR [rdi+8]
$LN11@StructDire:

; 211  :     }
; 212  : 
; 213  :     /* get an optional alignment argument: 1,2,4,8,16 or 32 */
; 214  :     if ( CurrStruct == NULL && tokenarray[i].token != T_FINAL ) {

	test	r10, r10
	jne	$LN27@StructDire
	movsxd	rax, r8d
	shl	rax, 5
	cmp	BYTE PTR [rax+rdi], r10b
	je	$LN27@StructDire

; 215  :         int power;
; 216  :         struct expr opndx;
; 217  :         /* get the optional alignment parameter.
; 218  :          * forward references aren't accepted, but EXPF_NOUNDEF isn't used here!
; 219  :          */
; 220  :         if ( EvalOperand( &i, tokenarray, Token_Count, &opndx, 0 ) != ERROR ) {

	mov	r8d, DWORD PTR ModuleInfo+496
	lea	r9, QWORD PTR opndx$1[rsp]
	mov	rdx, rdi
	mov	BYTE PTR [rsp+32], r10b
	lea	rcx, QWORD PTR i$[rsp]
	call	EvalOperand
	cmp	eax, -1
	je	SHORT $LN25@StructDire

; 221  :             /* an empty expression is accepted */
; 222  :             if ( opndx.kind == EXPR_EMPTY ) {

	mov	eax, DWORD PTR opndx$1[rsp+60]
	cmp	eax, -2
	je	SHORT $LN25@StructDire

; 223  :                 ;
; 224  :             } else if ( opndx.kind != EXPR_CONST ) {

	test	eax, eax
	je	SHORT $LN18@StructDire

; 225  :                 /* v2.09: better error msg */
; 226  :                 if ( opndx.sym && opndx.sym->state == SYM_UNDEFINED )

	mov	rdx, QWORD PTR opndx$1[rsp+80]
	test	rdx, rdx
	je	SHORT $LN20@StructDire
	cmp	DWORD PTR [rdx+32], 0
	jne	SHORT $LN20@StructDire

; 227  :                     EmitErr( SYMBOL_NOT_DEFINED, opndx.sym->name );

	mov	rdx, QWORD PTR [rdx+8]
	mov	ecx, 102				; 00000066H
	call	EmitErr
	jmp	SHORT $LN25@StructDire
$LN20@StructDire:

; 228  :                 else
; 229  :                     EmitError( CONSTANT_EXPECTED );

	mov	ecx, 65					; 00000041H
	call	EmitError

; 230  :             } else if( opndx.value > MAX_STRUCT_ALIGN ) {

	jmp	SHORT $LN25@StructDire
$LN18@StructDire:
	mov	eax, DWORD PTR opndx$1[rsp]
	cmp	eax, 32					; 00000020H
	jle	SHORT $LN22@StructDire

; 231  :                 EmitError( STRUCT_ALIGN_TOO_HIGH );

	mov	ecx, 214				; 000000d6H
	call	EmitError

; 232  :             } else {

	jmp	SHORT $LN25@StructDire
$LN22@StructDire:

; 233  :                 for( power = 1; power < opndx.value; power <<= 1 );

	cmp	ebx, eax
	jge	SHORT $LN83@StructDire
	npad	2
$LL4@StructDire:
	add	ebx, ebx
	cmp	ebx, eax
	jl	SHORT $LL4@StructDire
$LN83@StructDire:

; 234  :                 if( power != opndx.value ) {

	je	SHORT $LN24@StructDire

; 235  :                     EmitErr( POWER_OF_2, opndx.value );

	mov	edx, eax
	mov	ecx, 129				; 00000081H
	call	EmitErr

; 236  :                 } else

	jmp	SHORT $LN25@StructDire
$LN24@StructDire:

; 237  :                     alignment = opndx.value;

	mov	ebp, eax
$LN25@StructDire:

; 238  :             }
; 239  :             DebugMsg1(("StructDirective(%s) alignment=%u\n", name, alignment));
; 240  :         }
; 241  :         /* there might also be the NONUNIQUE parameter */
; 242  :         if ( tokenarray[i].token == T_COMMA ) {

	movsxd	r8, DWORD PTR i$[rsp]
	mov	rax, r8
	shl	rax, 5
	cmp	BYTE PTR [rax+rdi], 44			; 0000002cH
	jne	SHORT $LN79@StructDire

; 243  :             i++;

	inc	r8d

; 244  :             if ( tokenarray[i].token == T_ID &&

	movsxd	rax, r8d
	shl	rax, 5
	mov	DWORD PTR i$[rsp], r8d
	cmp	BYTE PTR [rax+rdi], 8
	jne	SHORT $LN79@StructDire
	mov	rcx, QWORD PTR [rax+rdi+8]
	lea	rdx, OFFSET FLAT:szNonUnique
	call	_stricmp
	test	eax, eax
	jne	SHORT $LN78@StructDire

; 245  :                 (_stricmp( tokenarray[i].string_ptr, szNonUnique ) == 0 ) ) {
; 246  :                 /* currently NONUNIQUE is ignored */
; 247  :                 EmitWarn( 2, TOKEN_IGNORED, szNonUnique );

	lea	r8, OFFSET FLAT:szNonUnique
	mov	edx, 250				; 000000faH
	lea	ecx, QWORD PTR [rax+2]
	call	EmitWarn

; 248  :                 i++;

	mov	r8d, DWORD PTR i$[rsp]
	inc	r8d
	mov	DWORD PTR i$[rsp], r8d
	jmp	SHORT $LN79@StructDire
$LN78@StructDire:
	mov	r8d, DWORD PTR i$[rsp]
$LN79@StructDire:
	mov	r10, QWORD PTR CurrStruct
$LN27@StructDire:

; 249  :             }
; 250  :         }
; 251  :     }
; 252  :     if ( tokenarray[i].token != T_FINAL ) {

	movsxd	rax, r8d
	shl	rax, 5
	cmp	BYTE PTR [rax+rdi], 0
	je	SHORT $LN28@StructDire

; 253  :         DebugMsg(("StructDirective(%s): error: unexpected token %u >%s<\n", tokenarray[i].token, tokenarray[i].tokpos ));
; 254  :         return( EmitErr( SYNTAX_ERROR_EX, tokenarray[i].tokpos ) );

	mov	rdx, QWORD PTR [rax+rdi+24]
	mov	ecx, 209				; 000000d1H
	jmp	$LN84@StructDire
$LN28@StructDire:

; 255  :     }
; 256  : 
; 257  :     /* does struct have a name? */
; 258  :     if ( *name ) {

	xor	edi, edi
	cmp	BYTE PTR [rsi], dil
	je	SHORT $LN29@StructDire

; 259  :         if ( CurrStruct == NULL ) {

	test	r10, r10
	jne	SHORT $LN31@StructDire

; 260  :             /* the "top-level" struct is part of the global namespace */
; 261  :             sym = SymSearch( name );

	mov	rcx, rsi
	call	SymFind

; 262  :             DebugMsg1(("StructDirective: SymSearch (%s)=%X (curr struct=%X)\n", name, sym, CurrStruct ));
; 263  :         } else {

	mov	r10, QWORD PTR CurrStruct
	mov	rbx, rax
	jmp	SHORT $LN30@StructDire
$LN31@StructDire:

; 264  :             sym = SearchNameInStruct( (struct asym *)CurrStruct, name, &offset, 0 );

	xor	r9d, r9d
	lea	r8, QWORD PTR offset$[rsp]
	mov	rdx, rsi
	mov	rcx, r10
	call	SearchNameInStruct

; 265  :             DebugMsg1(("StructDirective(%s): SearchNameInStruc()=%X\n", name, sym));
; 266  :         }
; 267  :     } else {

	mov	r10, QWORD PTR CurrStruct
	mov	rbx, rax
	jmp	SHORT $LN30@StructDire
$LN29@StructDire:

; 268  :         sym = NULL;   /* anonymous struct */

	mov	rbx, rdi
$LN30@StructDire:

; 269  :     }
; 270  : 
; 271  :     if ( ModuleInfo.list ) {

	test	DWORD PTR ModuleInfo+408, 2048		; 00000800H
	je	SHORT $LN35@StructDire

; 272  :         if ( CurrStruct )
; 273  :             LstWrite( LSTTYPE_STRUCT, CurrStruct->sym.total_size, NULL );

	xor	r8d, r8d
	lea	ecx, QWORD PTR [r8+6]
	test	r10, r10
	je	SHORT $LN34@StructDire
	mov	edx, DWORD PTR [r10+56]
	jmp	SHORT $LN85@StructDire
$LN34@StructDire:

; 274  :         else
; 275  :             LstWrite( LSTTYPE_STRUCT, 0, NULL );

	xor	edx, edx
$LN85@StructDire:
	call	LstWrite
	mov	r10, QWORD PTR CurrStruct
$LN35@StructDire:

; 276  :     }
; 277  : 
; 278  :     /* if pass is > 1, update struct stack + CurrStruct.offset and exit */
; 279  :     if ( Parse_Pass > PASS_1 ) {

	cmp	DWORD PTR Parse_Pass, edi
	jbe	SHORT $LN36@StructDire

; 280  :         /* v2.04 changed. the previous implementation was insecure.
; 281  :          * See also change in data.c, behind CreateStructField().
; 282  :          */
; 283  :         if ( CurrStruct ) {

	test	r10, r10
	je	SHORT $LN37@StructDire

; 284  :             sym = CurrStruct->e.structinfo->tail->sym.type;

	mov	rcx, QWORD PTR [r10+96]
	mov	rax, QWORD PTR [rcx+8]
	mov	rbx, QWORD PTR [rax+80]

; 285  :             /**/myassert( sym );
; 286  :             CurrStruct->e.structinfo->tail = CurrStruct->e.structinfo->tail->next;

	mov	rax, QWORD PTR [rax+96]
	mov	QWORD PTR [rcx+8], rax
$LN37@StructDire:

; 287  :         }
; 288  :         /**/myassert( sym );
; 289  :         dir = (struct dsym *)sym;
; 290  :         dir->e.structinfo->tail = dir->e.structinfo->head;

	mov	rcx, QWORD PTR [rbx+96]
	mov	rax, QWORD PTR [rcx]
	mov	QWORD PTR [rcx+8], rax

; 291  :         sym->offset = 0;
; 292  :         sym->isdefined = TRUE;

	or	BYTE PTR [rbx+40], 2
	mov	DWORD PTR [rbx+16], edi

; 293  :         ((struct dsym *)sym)->next = CurrStruct;

	mov	rax, QWORD PTR CurrStruct
	mov	QWORD PTR [rbx+104], rax

; 294  :         CurrStruct = (struct dsym *)sym;
; 295  :         return( NOT_ERROR );

	xor	eax, eax
	mov	QWORD PTR CurrStruct, rbx
	jmp	$LN82@StructDire
$LN36@StructDire:

; 296  :     }
; 297  : 
; 298  :     if( sym == NULL ) {

	test	rbx, rbx
	jne	SHORT $LN38@StructDire

; 299  : 
; 300  :         /* embedded or global STRUCT? */
; 301  :         if ( CurrStruct == NULL )
; 302  :             sym = CreateTypeSymbol( NULL, name, TRUE );

	mov	rcx, rsi
	test	r10, r10
	jne	SHORT $LN40@StructDire
	call	SymCreate
	jmp	$LN87@StructDire
$LN40@StructDire:

; 303  :         else {
; 304  :             /* an embedded struct is split in an anonymous STRUCT type
; 305  :              * and a struct field with/without name
; 306  :              */
; 307  :             sym = CreateTypeSymbol( NULL, name, FALSE );

	call	SymAlloc
	mov	rbx, rax
	test	rax, rax
	je	SHORT $LN61@StructDire
	mov	ecx, 24
	mov	DWORD PTR [rax+32], 7
	mov	BYTE PTR [rax+66], dil
	call	LclAlloc
	mov	QWORD PTR [rbx+96], rax
	mov	QWORD PTR [rax], rdi
	mov	QWORD PTR [rax+8], rdi
	mov	WORD PTR [rax+16], di
$LN61@StructDire:

; 308  :             /* v2: don't create the struct field here. First the
; 309  :              * structure must be read in ( because of alignment issues
; 310  :              */
; 311  :             // sym = CreateStructField( name_loc, -1, MT_TYPE, dir, 0 );
; 312  : 
; 313  :             alignment = CurrStruct->e.structinfo->alignment;

	mov	rax, QWORD PTR CurrStruct
	mov	rcx, QWORD PTR [rax+96]
	movzx	ebp, BYTE PTR [rcx+16]

; 314  :         }

	jmp	SHORT $LN47@StructDire
$LN38@StructDire:

; 315  : 
; 316  :     } else if( sym->state == SYM_UNDEFINED ) {

	mov	eax, DWORD PTR [rbx+32]
	test	eax, eax
	jne	SHORT $LN42@StructDire

; 317  : 
; 318  :         /* forward reference */
; 319  :         CreateTypeSymbol( sym, NULL, CurrStruct == NULL );

	test	r10, r10
	mov	rcx, rbx
	sete	r8b
	xor	edx, edx
	call	CreateTypeSymbol
	jmp	SHORT $LN47@StructDire
$LN42@StructDire:

; 320  : 
; 321  :     } else if( sym->state == SYM_TYPE && CurrStruct == NULL ) {

	cmp	eax, 7
	jne	$LN44@StructDire
	test	r10, r10
	jne	$LN44@StructDire

; 322  : 
; 323  :         switch ( sym->typekind ) {

	movzx	eax, BYTE PTR [rbx+66]
	test	al, al
	je	SHORT $LN47@StructDire
	dec	al
	cmp	al, 1
	ja	SHORT $LN44@StructDire

; 324  :         case TYPE_STRUCT:
; 325  :         case TYPE_UNION:
; 326  :             /* if a struct is redefined as a union ( or vice versa )
; 327  :              * do accept the directive and just check if the redefinition
; 328  :              * is compatible (usually it isn't) */
; 329  :             redef_struct = (struct dsym *)sym;
; 330  :             sym = CreateTypeSymbol( NULL, name, FALSE );

	mov	rcx, rsi
	mov	QWORD PTR redef_struct, rbx
	call	SymAlloc
$LN87@StructDire:
	mov	rbx, rax
	test	rax, rax
	je	SHORT $LN47@StructDire
	mov	DWORD PTR [rax+32], 7
	mov	ecx, 24
	mov	BYTE PTR [rax+66], dil
	call	LclAlloc
	mov	QWORD PTR [rbx+96], rax
	mov	WORD PTR [rax+16], di
	mov	QWORD PTR [rax+8], rdi
	mov	QWORD PTR [rax], rdi
$LN47@StructDire:

; 340  :     }
; 341  : 
; 342  :     sym->offset = 0;
; 343  :     sym->typekind = typekind;
; 344  :     dir = (struct dsym *)sym;
; 345  :     dir->e.structinfo->alignment = alignment;

	mov	rax, QWORD PTR [rbx+96]
	mov	DWORD PTR [rbx+16], edi
	mov	BYTE PTR [rbx+66], r14b
	mov	BYTE PTR [rax+16], bpl

; 346  :     dir->e.structinfo->isOpen = TRUE;

	mov	rax, QWORD PTR [rbx+96]
	or	BYTE PTR [rax+17], 2

; 347  :     if ( CurrStruct )

	mov	rax, QWORD PTR CurrStruct
	test	rax, rax
	je	SHORT $LN49@StructDire

; 348  :         dir->e.structinfo->isInline = TRUE;

	mov	rax, QWORD PTR [rbx+96]
	or	BYTE PTR [rax+17], 1
	mov	rax, QWORD PTR CurrStruct
$LN49@StructDire:

; 349  : 
; 350  :     dir->next = CurrStruct;

	mov	QWORD PTR [rbx+104], rax

; 351  :     CurrStruct = dir;
; 352  : 
; 353  : #if 0 //def DEBUG_OUT
; 354  :     {
; 355  :         struct dsym *struc;
; 356  :         for ( struc = CurrStruct; struc; struc = struc->next ) {
; 357  :             DebugMsg(("StructDirective stack: %X, name=>%s<\n", struc, struc->sym.name ));
; 358  :         }
; 359  :     }
; 360  : #endif
; 361  : 
; 362  :     return( NOT_ERROR );

	xor	eax, eax
	mov	QWORD PTR CurrStruct, rbx
	jmp	SHORT $LN82@StructDire
$LN44@StructDire:

; 331  :             break;
; 332  :         case TYPE_NONE:  /* TYPE_NONE is forward reference */
; 333  :             break;
; 334  :         default:
; 335  :             return( EmitErr( SYMBOL_REDEFINITION, sym->name ) );
; 336  :         }
; 337  : 
; 338  :     } else {
; 339  :         return( EmitErr( SYMBOL_REDEFINITION, sym->name ) );

	mov	rdx, QWORD PTR [rbx+8]
	mov	ecx, 143				; 0000008fH
$LN84@StructDire:
	call	EmitErr
$LN82@StructDire:
	mov	rbp, QWORD PTR [rsp+216]
	mov	rbx, QWORD PTR [rsp+208]
	mov	rsi, QWORD PTR [rsp+160]

; 363  : }

	add	rsp, 168				; 000000a8H
	pop	r14
	pop	rdi
	ret	0
StructDirective ENDP
_TEXT	ENDS
; Function compile flags: /Ogtpy
; File d:\hjwasm\hjwasm2.13.1s\hjwasm2.13.1s\types.c
;	COMDAT AreStructsEqual
_TEXT	SEGMENT
newstr$ = 8
oldstr$ = 16
AreStructsEqual PROC					; COMDAT

; 129  :     struct sfield *fold = oldstr->e.structinfo->head;

	mov	rax, QWORD PTR [rdx+96]
	mov	r9, QWORD PTR [rax]

; 130  :     struct sfield *fnew = newstr->e.structinfo->head;

	mov	rax, QWORD PTR [rcx+96]
	mov	r8, QWORD PTR [rax]

; 131  : 
; 132  :     DebugMsg(("AreStructsEqual(%s) enter\n", oldstr->sym.name ));
; 133  : 
; 134  :     /* kind of structs must be identical */
; 135  :     if ( oldstr->sym.typekind != newstr->sym.typekind )

	movzx	eax, BYTE PTR [rcx+66]
	cmp	BYTE PTR [rdx+66], al
	je	SHORT $LN5@AreStructs
$LN15@AreStructs:

; 136  :         return( FALSE );

	xor	al, al

; 160  :         return( FALSE );
; 161  :     return( TRUE );
; 162  : }

	ret	0
$LN5@AreStructs:

; 137  : 
; 138  :     for ( ; fold; fold = fold->next, fnew = fnew->next ) {

	test	r9, r9
	je	SHORT $LN3@AreStructs
	mov	r11d, DWORD PTR ModuleInfo+408
$LL4@AreStructs:

; 139  :         if ( !fnew ) {

	test	r8, r8
	je	SHORT $LN15@AreStructs

; 140  :             DebugMsg(("AreStructsEqual: fields don't match\n"));
; 141  :             return( FALSE );
; 142  :         }
; 143  :         /* for global member names, don't check the name if it's "" */
; 144  :         if ( ModuleInfo.oldstructs && *fnew->sym.name == NULLC )

	bt	r11d, 8
	jae	SHORT $LN7@AreStructs
	mov	rax, QWORD PTR [r8+8]
	cmp	BYTE PTR [rax], 0
	je	SHORT $LN9@AreStructs
$LN7@AreStructs:

; 145  :             ;
; 146  :         else if ( 0 != strcmp( fold->sym.name, fnew->sym.name ) ) {

	mov	rax, QWORD PTR [r9+8]
	mov	r10, QWORD PTR [r8+8]
	sub	r10, rax
	npad	10
$LL22@AreStructs:
	movzx	edx, BYTE PTR [rax]
	movzx	ecx, BYTE PTR [rax+r10]
	sub	edx, ecx
	jne	SHORT $LN23@AreStructs
	inc	rax
	test	ecx, ecx
	jne	SHORT $LL22@AreStructs
$LN23@AreStructs:
	test	edx, edx
	jne	SHORT $LN15@AreStructs
$LN9@AreStructs:

; 147  :             DebugMsg(("AreStructsEqual: type name of field changed\n"));
; 148  :             return( FALSE );
; 149  :         }
; 150  :         if ( fold->sym.offset != fnew->sym.offset ) {

	mov	eax, DWORD PTR [r8+16]
	cmp	DWORD PTR [r9+16], eax
	jne	SHORT $LN15@AreStructs

; 151  :             DebugMsg(("AreStructsEqual: offset of field %s changed: %u - %u\n", fold->sym.name, fold->sym.offset, fnew->sym.offset));
; 152  :             return( FALSE );
; 153  :         }
; 154  :         if ( fold->sym.total_size != fnew->sym.total_size ) {

	mov	eax, DWORD PTR [r8+56]
	cmp	DWORD PTR [r9+56], eax
	jne	SHORT $LN15@AreStructs

; 137  : 
; 138  :     for ( ; fold; fold = fold->next, fnew = fnew->next ) {

	mov	r9, QWORD PTR [r9+96]
	mov	r8, QWORD PTR [r8+96]
	test	r9, r9
	jne	SHORT $LL4@AreStructs
$LN3@AreStructs:

; 155  :             DebugMsg(("AreStructsEqual: total_size of field changed\n"));
; 156  :             return( FALSE );
; 157  :         }
; 158  :     }
; 159  :     if ( fnew )

	test	r8, r8
	sete	al

; 160  :         return( FALSE );
; 161  :     return( TRUE );
; 162  : }

	ret	0
AreStructsEqual ENDP
_TEXT	ENDS
; Function compile flags: /Ogtpy
; File d:\hjwasm\hjwasm2.13.1s\hjwasm2.13.1s\types.c
_TEXT	SEGMENT
dir$ = 8
DeleteType PROC

; 1314 :     struct sfield      *curr;
; 1315 :     struct sfield      *next;
; 1316 : 
; 1317 :     DebugMsg(("DeleteType(%s) enter, typekind=%u, memtype=%Xh\n", dir->sym.name, dir->sym.typekind, dir->sym.mem_type ));
; 1318 : #if FASTMEM==0
; 1319 :     /* release prototype in target_type if typedef is PROTO */
; 1320 :     if ( dir->sym.mem_type == MT_PROC ) {
; 1321 :         /* v2.11: change the prototype type to an external, because SymFree()
; 1322 :          * doesn't expect a prototype in a type.
; 1323 :          */
; 1324 :         dir->sym.target_type->state = SYM_EXTERNAL;
; 1325 :         SymFree( dir->sym.target_type );
; 1326 :     }
; 1327 : #endif
; 1328 : #if TYPEOPT
; 1329 :     if ( dir->sym.typekind == TYPE_TYPEDEF )
; 1330 :         return;
; 1331 : #endif
; 1332 :     /* bitfields field names are global, don't free them here! */
; 1333 :     if ( dir->sym.typekind != TYPE_RECORD )
; 1334 :         for( curr = dir->e.structinfo->head; curr != NULL; curr = next ) {
; 1335 :             next = curr->next;
; 1336 : #if FASTMEM==0
; 1337 :             if ( curr->sym.name_size ) LclFree( curr->sym.name );
; 1338 : #endif
; 1339 :             LclFree( curr );
; 1340 :         }
; 1341 :     LclFree( dir->e.structinfo );
; 1342 :     return;
; 1343 : }

	ret	0
DeleteType ENDP
_TEXT	ENDS
; Function compile flags: /Ogtpy
; File d:\hjwasm\hjwasm2.13.1s\hjwasm2.13.1s\types.c
_TEXT	SEGMENT
TypesInit PROC

; 49   :     CurrStruct   = NULL;

	xor	eax, eax
	mov	QWORD PTR CurrStruct, rax

; 50   :     redef_struct = NULL;

	mov	QWORD PTR redef_struct, rax

; 51   : }

	ret	0
TypesInit ENDP
_TEXT	ENDS
; Function compile flags: /Ogtpy
; File d:\hjwasm\hjwasm2.13.1s\hjwasm2.13.1s\types.c
_TEXT	SEGMENT
value$ = 8
AlignInStruct PROC

; 744  :     if ( CurrStruct->sym.typekind != TYPE_UNION ) {

	mov	r8, QWORD PTR CurrStruct
	cmp	BYTE PTR [r8+66], 2
	je	SHORT $LN6@AlignInStr

; 745  :         int offset;
; 746  :         offset = CurrStruct->sym.offset;
; 747  :         offset = (offset + (value - 1)) & (-value);

	mov	edx, DWORD PTR [r8+16]
	dec	edx
	add	edx, ecx
	neg	ecx
	and	edx, ecx

; 748  :         CurrStruct->sym.offset = offset;

	mov	DWORD PTR [r8+16], edx

; 749  :         if ( offset > CurrStruct->sym.total_size )

	mov	rax, QWORD PTR CurrStruct
	cmp	edx, DWORD PTR [rax+56]
	jbe	SHORT $LN6@AlignInStr

; 750  :             CurrStruct->sym.total_size = offset;

	mov	DWORD PTR [rax+56], edx
$LN6@AlignInStr:

; 751  :     }
; 752  :     return( NOT_ERROR );

	xor	eax, eax

; 753  : }

	ret	0
AlignInStruct ENDP
_TEXT	ENDS
; Function compile flags: /Ogtpy
; File d:\hjwasm\hjwasm2.13.1s\hjwasm2.13.1s\types.c
_TEXT	SEGMENT
offset$ = 8
SetStructCurrentOffset PROC

; 784  :     if ( CurrStruct->sym.typekind == TYPE_UNION ) {

	mov	rax, QWORD PTR CurrStruct
	mov	edx, ecx
	cmp	BYTE PTR [rax+66], 2
	jne	SHORT $LN2@SetStructC

; 785  :         return( EmitError( ORG_NOT_ALLOWED_IN_UNIONS ) );

	mov	ecx, 213				; 000000d5H
	jmp	EmitError
$LN2@SetStructC:

; 786  :     }
; 787  :     CurrStruct->sym.offset = offset;

	mov	DWORD PTR [rax+16], ecx

; 788  :     /* if an ORG is inside the struct, it cannot be instanced anymore */
; 789  :     CurrStruct->e.structinfo->OrgInside = TRUE;

	mov	rax, QWORD PTR CurrStruct
	mov	rcx, QWORD PTR [rax+96]
	or	BYTE PTR [rcx+17], 4

; 790  :     if ( offset > (int_32)CurrStruct->sym.total_size )

	mov	rax, QWORD PTR CurrStruct
	cmp	edx, DWORD PTR [rax+56]
	jle	SHORT $LN3@SetStructC

; 791  :         CurrStruct->sym.total_size = offset;

	mov	DWORD PTR [rax+56], edx
$LN3@SetStructC:

; 792  : 
; 793  :     return( NOT_ERROR );

	xor	eax, eax

; 794  : }

	ret	0
SetStructCurrentOffset ENDP
_TEXT	ENDS
; Function compile flags: /Ogtpy
; File d:\hjwasm\hjwasm2.13.1s\hjwasm2.13.1s\types.c
_TEXT	SEGMENT
sym$ = 8
UpdateStructSize PROC

; 760  :     if ( CurrStruct->sym.typekind == TYPE_UNION ) {

	mov	rdx, QWORD PTR CurrStruct

; 761  :         //if ( no_of_bytes > CurrStruct->sym.total_size )
; 762  :         //    CurrStruct->sym.total_size = no_of_bytes;
; 763  :         if ( sym->total_size > CurrStruct->sym.total_size )

	mov	eax, DWORD PTR [rcx+56]
	cmp	BYTE PTR [rdx+66], 2
	jne	SHORT $LN2@UpdateStru
	cmp	eax, DWORD PTR [rdx+56]
	jbe	SHORT $LN5@UpdateStru

; 764  :             CurrStruct->sym.total_size = sym->total_size;

	mov	DWORD PTR [rdx+56], eax

; 769  :     }
; 770  :     DebugMsg1(("UpdateStructSize(%s.%s): %s, curr mbr size=%u curr struc/union size=%u\n",
; 771  :                CurrStruct->sym.name,
; 772  :                sym->name,
; 773  :                CurrStruct->sym.typekind == TYPE_UNION ? "union" : "struct",
; 774  :                sym->total_size,
; 775  :                CurrStruct->sym.total_size));
; 776  :     return;
; 777  : }

	ret	0
$LN2@UpdateStru:

; 765  :     } else {
; 766  :         CurrStruct->sym.offset += sym->total_size;

	add	DWORD PTR [rdx+16], eax

; 767  :         if ( CurrStruct->sym.offset > (int_32)CurrStruct->sym.total_size )

	mov	rax, QWORD PTR CurrStruct
	mov	ecx, DWORD PTR [rax+16]
	cmp	ecx, DWORD PTR [rax+56]
	jle	SHORT $LN5@UpdateStru

; 768  :             CurrStruct->sym.total_size = CurrStruct->sym.offset;

	mov	DWORD PTR [rax+56], ecx
$LN5@UpdateStru:

; 769  :     }
; 770  :     DebugMsg1(("UpdateStructSize(%s.%s): %s, curr mbr size=%u curr struc/union size=%u\n",
; 771  :                CurrStruct->sym.name,
; 772  :                sym->name,
; 773  :                CurrStruct->sym.typekind == TYPE_UNION ? "union" : "struct",
; 774  :                sym->total_size,
; 775  :                CurrStruct->sym.total_size));
; 776  :     return;
; 777  : }

	ret	0
UpdateStructSize ENDP
_TEXT	ENDS
; Function compile flags: /Ogtpy
; File d:\hjwasm\hjwasm2.13.1s\hjwasm2.13.1s\types.c
_TEXT	SEGMENT
si$1$ = 48
loc$ = 128
tokenarray$ = 136
disp$ = 144
name$ = 144
mem_type$ = 152
vartype$ = 160
size$ = 168
CreateStructField PROC

; 546  : {

$LN59:
	mov	DWORD PTR [rsp+32], r9d
	mov	QWORD PTR [rsp+16], rdx
	push	rbp
	push	rsi
	push	rdi
	push	r12
	push	r13
	push	r14
	push	r15
	sub	rsp, 64					; 00000040H
	mov	edi, ecx

; 547  :     int_32 offset;
; 548  :     //int count;
; 549  :     int i;
; 550  :     int len;
; 551  :     uint_32 disp;
; 552  :     char *init;
; 553  :     struct struct_info *si;
; 554  :     struct sfield *f;
; 555  :     struct asym  *gsym;
; 556  : 
; 557  :     si = CurrStruct->e.structinfo;

	mov	rcx, QWORD PTR CurrStruct
	mov	r12d, r9d
	mov	r13, r8
	mov	rbp, rdx
	mov	r15, QWORD PTR [rcx+96]

; 558  :     offset = CurrStruct->sym.offset;

	mov	esi, DWORD PTR [rcx+16]
	mov	QWORD PTR si$1$[rsp], r15

; 559  : 
; 560  :     DebugMsg1(("CreateStructField(%s): name=%s, curr ofs=%" I32_SPEC "u, vartype=%s, size=%" I32_SPEC "u\n",
; 561  :                CurrStruct->sym.name, name ? name : "<anonymous>", offset,
; 562  :                vartype ? vartype->name : "NULL", size ));
; 563  : 
; 564  :     if ( name ) {

	test	r8, r8
	je	SHORT $LN8@CreateStru

; 565  :         struct asym  *sym;
; 566  :         len = strlen( name );

	or	r14, -1
$LL51@CreateStru:
	inc	r14
	cmp	BYTE PTR [r14+r8], 0
	jne	SHORT $LL51@CreateStru

; 567  :         if( len > MAX_ID_LEN ) {

	cmp	r14d, 247				; 000000f7H
	jle	SHORT $LN10@CreateStru

; 568  :             EmitError( IDENTIFIER_TOO_LONG );

	mov	ecx, 70					; 00000046H
	call	EmitError

; 569  :             return( NULL );

	xor	eax, eax

; 736  : }

	add	rsp, 64					; 00000040H
	pop	r15
	pop	r14
	pop	r13
	pop	r12
	pop	rdi
	pop	rsi
	pop	rbp
	ret	0
$LN10@CreateStru:

; 570  :         }
; 571  :         sym = SearchNameInStruct((struct asym *)CurrStruct, name, &disp, 0 );

	xor	r9d, r9d
	lea	r8, QWORD PTR disp$[rsp]
	mov	rdx, r13
	call	SearchNameInStruct

; 572  :         if ( sym ) {

	test	rax, rax
	je	SHORT $LN9@CreateStru

; 573  :             EmitErr( SYMBOL_ALREADY_DEFINED, sym->name );

	mov	rdx, QWORD PTR [rax+8]
	mov	ecx, 56					; 00000038H
	call	EmitErr

; 574  :             return( NULL );

	xor	eax, eax

; 736  : }

	add	rsp, 64					; 00000040H
	pop	r15
	pop	r14
	pop	r13
	pop	r12
	pop	rdi
	pop	rsi
	pop	rbp
	ret	0
$LN8@CreateStru:

; 575  :         }
; 576  :     } else {
; 577  :         /* v2.06: check fields of anonymous struct member */
; 578  :         if ( vartype &&

	mov	rcx, QWORD PTR vartype$[rsp]
	test	rcx, rcx
	je	SHORT $LN12@CreateStru
	movzx	eax, BYTE PTR [rcx+66]
	dec	al
	cmp	al, 1
	ja	SHORT $LN12@CreateStru

; 579  :             ( vartype->typekind == TYPE_STRUCT ||
; 580  :              vartype->typekind == TYPE_UNION ) ) {
; 581  :             CheckAnonymousStruct( (struct dsym *)vartype );

	call	CheckAnonymousStruct
$LN12@CreateStru:

; 582  :         }
; 583  :         name = "";

	lea	r13, OFFSET FLAT:$SG11291

; 584  :         len = 0;

	xor	r14d, r14d
$LN9@CreateStru:

; 585  :     }
; 586  : 
; 587  :     if ( loc != -1 ) {

	mov	QWORD PTR [rsp+128], rbx
	cmp	edi, -1
	je	$LN14@CreateStru

; 588  : 
; 589  :         //i = strlen( tokenarray[loc].string_ptr ) + 1;
; 590  :         //DebugMsg1(("CreateStructField(%s): type=>%s<\n", CurrStruct->sym.name, tokenarray[loc].string_ptr ));
; 591  :         //f->init_dir = LclAlloc( i );
; 592  :         //memcpy( f->init_dir, tokenarray[loc].string_ptr, i );
; 593  : 
; 594  :         /* now add the value to initialize the struct to */
; 595  : 
; 596  :         /* v2.03: the initializer value may contain assembly time
; 597  :          * variables ( $ inside structs is also one ). It's crucial that
; 598  :          * the variable's CURRENT value is used then.
; 599  :          * v2.08: modified. avoid usage of token->string_ptr,
; 600  :          * and prefer to use token->tokpos.
; 601  :          */
; 602  :         init = StringBufferEnd;

	mov	rbx, QWORD PTR ModuleInfo+488

; 603  :         for ( i = loc+1; tokenarray[i].token != T_FINAL; i++ ) {

	lea	eax, DWORD PTR [rdi+1]
	movsxd	r15, eax
	mov	rdi, r15
	shl	rdi, 5
	add	rdi, rbp
	cmp	BYTE PTR [rdi], 0
	je	$LN3@CreateStru
	lea	r12, QWORD PTR [rdi+56]
$LL4@CreateStru:

; 604  :             if ( tokenarray[i].token == T_ID ) {

	cmp	BYTE PTR [rdi], 8
	jne	SHORT $LN17@CreateStru

; 605  :                 struct asym *sym2 = SymSearch( tokenarray[i].string_ptr );

	mov	rcx, QWORD PTR [rdi+8]
	call	SymFind
	mov	rbp, rax

; 606  :                 if ( sym2 && sym2->variable ) {

	test	rax, rax
	je	SHORT $LN55@CreateStru
	movzx	eax, BYTE PTR [rax+40]
	test	al, 64					; 00000040H
	je	SHORT $LN55@CreateStru

; 607  :                     if ( sym2->predefined && sym2->sfunc_ptr )

	test	al, 32					; 00000020H
	je	SHORT $LN18@CreateStru
	mov	rax, QWORD PTR [rbp+64]
	test	rax, rax
	je	SHORT $LN18@CreateStru

; 608  :                         sym2->sfunc_ptr( sym2, NULL );

	xor	edx, edx
	mov	rcx, rbp
	call	rax
$LN18@CreateStru:

; 609  :                     myltoa( sym2->uvalue, init, ModuleInfo.radix, sym2->value3264 < 0, TRUE );

	cmp	DWORD PTR [rbp+56], 0
	mov	rdx, rbx
	movzx	r8d, BYTE PTR ModuleInfo+396
	mov	ecx, DWORD PTR [rbp+16]
	setl	r9b
	mov	BYTE PTR [rsp+32], 1
	call	myltoa

; 610  :                     init += strlen( init );

	or	rax, -1
	npad	8
$LL50@CreateStru:
	inc	rax
	cmp	BYTE PTR [rbx+rax], 0
	jne	SHORT $LL50@CreateStru

; 611  :                     *init++= ' ';
; 612  :                     continue;

	mov	rbp, QWORD PTR tokenarray$[rsp]
	add	rbx, rax
	mov	BYTE PTR [rbx], 32			; 00000020H
	inc	rbx
	jmp	SHORT $LN2@CreateStru
$LN55@CreateStru:
	mov	rbp, QWORD PTR tokenarray$[rsp]
$LN17@CreateStru:

; 613  :                 }
; 614  :             }
; 615  :             memcpy( init, tokenarray[i].tokpos, tokenarray[i+1].tokpos - tokenarray[i].tokpos );

	mov	rdx, QWORD PTR [rdi+24]
	mov	rcx, rbx
	mov	r8, QWORD PTR [r12]
	sub	r8, rdx
	call	memcpy

; 616  :             init += tokenarray[i+1].tokpos - tokenarray[i].tokpos;

	mov	rax, QWORD PTR [r12]
	sub	rax, QWORD PTR [rdi+24]
	add	rbx, rax
$LN2@CreateStru:

; 603  :         for ( i = loc+1; tokenarray[i].token != T_FINAL; i++ ) {

	inc	r15
	add	r12, 32					; 00000020H
	mov	rdi, r15
	shl	rdi, 5
	add	rdi, rbp
	cmp	BYTE PTR [rdi], 0
	jne	$LL4@CreateStru
	mov	r12d, DWORD PTR mem_type$[rsp]
$LN3@CreateStru:

; 617  :         }
; 618  :         *init = NULLC;

	mov	BYTE PTR [rbx], 0

; 619  :         f = LclAlloc( sizeof( struct sfield ) + ( init - StringBufferEnd ) );

	sub	rbx, QWORD PTR ModuleInfo+488
	lea	rcx, QWORD PTR [rbx+112]
	call	LclAlloc

; 620  :         //f->value = LclAlloc( init - StringBufferEnd + 1 );
; 621  :         memset( f, 0, sizeof( struct sfield ) );

	xor	edx, edx
	mov	rcx, rax
	mov	rdi, rax
	lea	r8d, QWORD PTR [rdx+112]
	call	memset

; 622  :         strcpy( f->ivalue, StringBufferEnd );

	mov	rax, QWORD PTR ModuleInfo+488
	lea	rdx, QWORD PTR [rdi+104]
	npad	13
$LL36@CreateStru:
	movzx	ecx, BYTE PTR [rax]
	lea	rax, QWORD PTR [rax+1]
	mov	BYTE PTR [rdx], cl
	lea	rdx, QWORD PTR [rdx+1]
	test	cl, cl
	jne	SHORT $LL36@CreateStru

; 623  :         DebugMsg1(("CreateStructField(%s): initializer=>%s<\n", CurrStruct->sym.name, f->ivalue ));
; 624  : 
; 625  :     } else {

	mov	r15, QWORD PTR si$1$[rsp]
	jmp	SHORT $LN15@CreateStru
$LN14@CreateStru:

; 626  :         f = LclAlloc( sizeof( struct sfield ) );

	mov	ecx, 112				; 00000070H
	call	LclAlloc

; 627  :         memset( f, 0, sizeof( struct sfield ) );

	xor	edx, edx
	mov	rcx, rax
	mov	rdi, rax
	lea	r8d, QWORD PTR [rdx+112]
	call	memset

; 628  :         DebugMsg1(("CreateStructField(%s): no initializer<\n", CurrStruct->sym.name ));
; 629  :         //f->init_dir = NULL;
; 630  :         f->ivalue[0] = NULLC;

	mov	BYTE PTR [rdi+104], 0
$LN15@CreateStru:

; 631  :     }
; 632  : 
; 633  :     /* create the struct field symbol */
; 634  : 
; 635  :     //sym = SymAlloc( name );
; 636  :     f->sym.name_size = len;

	mov	BYTE PTR [rdi+72], r14b

; 637  :     if ( len ) {

	test	r14d, r14d
	je	SHORT $LN19@CreateStru

; 638  :         f->sym.name = LclAlloc( len + 1 );

	lea	eax, DWORD PTR [r14+1]
	movsxd	rcx, eax
	call	LclAlloc

; 639  :         memcpy( f->sym.name, name, len );

	movsxd	rbx, r14d
	mov	rdx, r13
	mov	r8, rbx
	mov	QWORD PTR [rdi+8], rax
	mov	rcx, rax
	call	memcpy

; 640  :         f->sym.name[len] = NULLC;

	mov	rax, QWORD PTR [rdi+8]
	mov	BYTE PTR [rbx+rax], 0

; 641  :     } else

	jmp	SHORT $LN20@CreateStru
$LN19@CreateStru:

; 642  :         f->sym.name = "";

	lea	rax, OFFSET FLAT:$SG11299
	mov	QWORD PTR [rdi+8], rax
$LN20@CreateStru:

; 643  :     f->sym.state = SYM_STRUCT_FIELD;
; 644  :     f->sym.list = ModuleInfo.cref;
; 645  :     f->sym.isdefined = TRUE;
; 646  :     f->sym.mem_type = mem_type;
; 647  :     f->sym.type = vartype;

	mov	rbx, QWORD PTR vartype$[rsp]
	mov	DWORD PTR [rdi+32], 6
	mov	eax, DWORD PTR ModuleInfo+408
	or	BYTE PTR [rdi+40], 2
	shr	eax, 12
	xor	al, BYTE PTR [rdi+41]
	and	al, 1
	mov	DWORD PTR [rdi+36], r12d
	xor	BYTE PTR [rdi+41], al
	mov	QWORD PTR [rdi+80], rbx

; 648  :     /* fields total/first_size, total/first_length are set in data_item() */
; 649  :     // sym->total_size = SizeFromMemtype( mem_type, ModuleInfo.Ofssize );
; 650  : 
; 651  :     f->next = NULL;

	mov	QWORD PTR [rdi+96], 0

; 652  :     //f->sym = sym;
; 653  : 
; 654  :     if( si->head == NULL ) {

	cmp	QWORD PTR [r15], 0
	jne	SHORT $LN21@CreateStru

; 655  :         si->head = si->tail = f;

	mov	QWORD PTR [r15], rdi

; 656  :     } else {

	jmp	SHORT $LN56@CreateStru
$LN21@CreateStru:

; 657  :         si->tail->next = f;

	mov	rax, QWORD PTR [r15+8]
	mov	QWORD PTR [rax+96], rdi
$LN56@CreateStru:

; 658  :         si->tail = f;

	mov	QWORD PTR [r15+8], rdi

; 659  :     }
; 660  : 
; 661  : #if 1
; 662  :     /* v2.0: for STRUCTs, don't use the struct's size for alignment calculations,
; 663  :      * instead use the size of the "max" member!
; 664  :      */
; 665  :     if ( mem_type == MT_TYPE &&

	cmp	r12d, 196				; 000000c4H
	jne	SHORT $LN52@CreateStru
	movzx	eax, BYTE PTR [rbx+66]
	dec	al
	cmp	al, 1
	ja	SHORT $LN52@CreateStru

; 666  :         ( vartype->typekind == TYPE_STRUCT ||
; 667  :          vartype->typekind == TYPE_UNION ) ) {
; 668  :         size = vartype->max_mbr_size;

	mov	ecx, DWORD PTR [rbx+48]
	jmp	SHORT $LN23@CreateStru
$LN52@CreateStru:
	mov	ecx, DWORD PTR size$[rsp]
$LN23@CreateStru:

; 669  :     }
; 670  : #endif
; 671  :     /* align the field if an alignment argument was given */
; 672  :     if ( si->alignment > 1 ) {

	movzx	eax, BYTE PTR [r15+16]
	cmp	al, 1
	jbe	SHORT $LN53@CreateStru

; 673  :         //enum memtype mt;
; 674  :         //struct dsym *tdir;
; 675  :         DebugMsg1(("CreateStructField(%s): align=%u, size=%u, ofs=%u\n", CurrStruct->sym.name, si->alignment, size, offset ));
; 676  :         /* if it's the first field to add, use offset of the parent's current field */
; 677  : #if 0
; 678  :         /* v2: removed. An embedded struct is now added AFTER it has
; 679  :          * been parsed. */
; 680  :         if ( offset == 0 && CurrStruct->next ) {
; 681  :             struct dsym *parent = CurrStruct->next;
; 682  :             if ( si->alignment < size )
; 683  :                 parent->e.structinfo->tail->sym->offset =
; 684  :                     (parent->e.structinfo->tail->sym->offset + (si->alignment - 1)) & ( - si->alignment);
; 685  :             else if ( size )
; 686  :                 parent->e.structinfo->tail->sym->offset =
; 687  :                     (parent->e.structinfo->tail->sym->offset + (size - 1)) & (-size);
; 688  :         } else
; 689  : #endif
; 690  :         {
; 691  :             if ( si->alignment < size )

	movzx	eax, al
	cmp	eax, ecx
	jae	SHORT $LN26@CreateStru

; 692  :                 offset = (offset + (si->alignment - 1)) & ( - si->alignment);

	dec	esi
	add	esi, eax
	jmp	SHORT $LN57@CreateStru
$LN26@CreateStru:

; 693  :             else if ( size )

	test	ecx, ecx
	je	SHORT $LN28@CreateStru

; 694  :                 offset = (offset + (size - 1)) & (-size);

	dec	esi
	mov	eax, ecx
	add	esi, ecx
$LN57@CreateStru:
	neg	eax
	and	esi, eax
$LN28@CreateStru:

; 695  :         }
; 696  :         /* adjust the struct's current offset + size.
; 697  :          The field's size is added in UpdateStructSize()
; 698  :          */
; 699  :         if ( CurrStruct->sym.typekind != TYPE_UNION ) {

	mov	rax, QWORD PTR CurrStruct
	cmp	BYTE PTR [rax+66], 2
	je	SHORT $LN30@CreateStru

; 700  :             CurrStruct->sym.offset = offset;

	mov	DWORD PTR [rax+16], esi

; 701  :             if ( offset > CurrStruct->sym.total_size )

	mov	rax, QWORD PTR CurrStruct
	cmp	esi, DWORD PTR [rax+56]
	jbe	SHORT $LN30@CreateStru

; 702  :                 CurrStruct->sym.total_size = offset;

	mov	DWORD PTR [rax+56], esi
$LN53@CreateStru:
	mov	rax, QWORD PTR CurrStruct
$LN30@CreateStru:

; 703  :         }
; 704  :     }
; 705  :     /* v2.0: for padding, save the max member size */
; 706  :     if ( size > CurrStruct->sym.max_mbr_size ) {

	cmp	ecx, DWORD PTR [rax+48]
	jbe	SHORT $LN31@CreateStru

; 707  :         DebugMsg1(("CreateStructField(%s): max_mbr_size set to %u\n", CurrStruct->sym.name, size ));
; 708  :         CurrStruct->sym.max_mbr_size = size;

	mov	DWORD PTR [rax+48], ecx
$LN31@CreateStru:

; 709  :     }
; 710  :     f->sym.offset = offset;

	mov	DWORD PTR [rdi+16], esi

; 711  : 
; 712  :     /* if -Zm is on, create a global symbol */
; 713  :     if ( ModuleInfo.oldstructs == TRUE && *name != NULLC ) {

	test	DWORD PTR ModuleInfo+408, 256		; 00000100H
	je	SHORT $LN34@CreateStru
	cmp	BYTE PTR [r13], 0
	je	SHORT $LN34@CreateStru

; 714  :         DebugMsg(("CreateStructField(%s): Masm51 compat on, lookup %s in global symbol table\n", CurrStruct->sym.name, name ));
; 715  :         gsym  = SymLookup( name );

	mov	rcx, r13
	call	SymLookup
	mov	rdx, rax

; 716  :         /* v2.11: cannot fail */
; 717  :         //if ( gsym ) {
; 718  :             if ( gsym->state == SYM_UNDEFINED )

	cmp	DWORD PTR [rax+32], 0
	jne	SHORT $LN33@CreateStru

; 719  :                 gsym->state = SYM_STRUCT_FIELD;

	mov	DWORD PTR [rax+32], 6
$LN33@CreateStru:

; 720  :             if ( gsym->state == SYM_STRUCT_FIELD ) {

	cmp	DWORD PTR [rax+32], 6
	jne	SHORT $LN34@CreateStru

; 721  :                 struct dsym *dir;
; 722  :                 gsym->mem_type = mem_type;

	mov	DWORD PTR [rax+36], r12d

; 723  :                 gsym->type = vartype;

	mov	QWORD PTR [rax+80], rbx

; 724  :                 gsym->offset = offset; /* added v2.0 */

	mov	DWORD PTR [rax+16], esi

; 725  :                 /* v2.01: must be the full offset.
; 726  :                  * (there's still a problem if alignment is > 1!)
; 727  :                  */
; 728  :                 for ( dir = CurrStruct->next; dir; dir = dir->next )

	mov	rax, QWORD PTR CurrStruct
	mov	rcx, QWORD PTR [rax+104]
	test	rcx, rcx
	je	SHORT $LN6@CreateStru
$LL7@CreateStru:

; 729  :                     gsym->offset += dir->sym.offset;

	add	esi, DWORD PTR [rcx+16]
	mov	DWORD PTR [rdx+16], esi
	mov	rcx, QWORD PTR [rcx+104]
	test	rcx, rcx
	jne	SHORT $LL7@CreateStru
$LN6@CreateStru:

; 730  :                 gsym->isdefined = TRUE;

	or	BYTE PTR [rdx+40], 2
$LN34@CreateStru:

; 731  :             }
; 732  :         //}
; 733  :     }
; 734  : 
; 735  :     return( &f->sym );

	mov	rax, rdi
	mov	rbx, QWORD PTR [rsp+128]

; 736  : }

	add	rsp, 64					; 00000040H
	pop	r15
	pop	r14
	pop	r13
	pop	r12
	pop	rdi
	pop	rsi
	pop	rbp
	ret	0
CreateStructField ENDP
_TEXT	ENDS
; Function compile flags: /Ogtpy
; File d:\hjwasm\hjwasm2.13.1s\hjwasm2.13.1s\types.c
_TEXT	SEGMENT
pi$ = 80
tokenarray$ = 88
pti$ = 96
GetQualifiedType PROC

; 807  : {

$LN85:
	mov	QWORD PTR [rsp+24], rbx
	push	rsi
	push	r12
	push	r13
	push	r14
	push	r15
	sub	rsp, 32					; 00000020H

; 808  :     int             type;
; 809  :     int             tmp;
; 810  :     enum memtype    mem_type;
; 811  :     int             i = *pi;

	movsxd	rsi, DWORD PTR [rcx]

; 812  :     int             distance = FALSE;

	xor	r12d, r12d

; 813  :     struct asym     *sym;
; 814  : 
; 815  :     /* convert PROC token to a type qualifier */
; 816  :     for ( tmp = i; tokenarray[tmp].token != T_FINAL && tokenarray[tmp].token != T_COMMA; tmp++ )

	mov	rax, rsi
	mov	rbx, r8
	shl	rax, 5
	mov	r10, rdx
	mov	r13, rcx
	mov	r15d, r12d
	mov	r8, rsi
	cmp	BYTE PTR [rax+rdx], r12b
	lea	r9, QWORD PTR [rax+rdx]
	je	SHORT $LN80@GetQualifi
	mov	rdx, r9
	npad	5
$LL4@GetQualifi:
	movzx	eax, BYTE PTR [rdx]
	cmp	al, 44					; 0000002cH
	je	SHORT $LN80@GetQualifi

; 817  :         if ( tokenarray[tmp].token == T_DIRECTIVE && tokenarray[tmp].tokval == T_PROC ) {

	cmp	al, 3
	jne	SHORT $LN2@GetQualifi
	cmp	DWORD PTR [rdx+16], 432			; 000001b0H
	jne	SHORT $LN2@GetQualifi

; 818  :             tokenarray[tmp].token = T_STYPE;

	mov	BYTE PTR [rdx], 6

; 819  :             /* v2.06: avoid to use ST_PROC */
; 820  :             tokenarray[tmp].tokval = ( ( SIZE_CODEPTR & ( 1 << ModuleInfo.model ) ) ? T_FAR : T_NEAR );

	mov	eax, 1
	mov	ecx, DWORD PTR ModuleInfo+360
	shl	eax, cl
	test	al, 112					; 00000070H
	mov	eax, r12d
	setne	al
	add	eax, 221				; 000000ddH
	mov	DWORD PTR [rdx+16], eax
$LN2@GetQualifi:

; 813  :     struct asym     *sym;
; 814  : 
; 815  :     /* convert PROC token to a type qualifier */
; 816  :     for ( tmp = i; tokenarray[tmp].token != T_FINAL && tokenarray[tmp].token != T_COMMA; tmp++ )

	inc	r8
	mov	rax, r8
	shl	rax, 5
	cmp	BYTE PTR [rax+r10], r12b
	lea	rdx, QWORD PTR [rax+r10]
	jne	SHORT $LL4@GetQualifi
$LN80@GetQualifi:

; 821  :         }
; 822  :     /* with NEAR/FAR, there are several syntax variants allowed:
; 823  :      * 1. NEARxx | FARxx
; 824  :      * 2. PTR NEARxx | FARxx
; 825  :      * 3. NEARxx | FARxx PTR [<type>]
; 826  :      */
; 827  :     /* read qualified type */
; 828  :     for ( type = ERROR; tokenarray[i].token == T_STYPE || tokenarray[i].token == T_BINARY_OPERATOR; i++ ) {

	lea	rdx, QWORD PTR [r9+16]
	or	r14d, -1
	lea	r9, OFFSET FLAT:SpecialTable
$LL7@GetQualifi:
	movzx	eax, BYTE PTR [rdx-16]
	cmp	al, 6
	je	SHORT $LN77@GetQualifi
	cmp	al, 5
	jne	$LN71@GetQualifi

; 847  :                 break;
; 848  :             }
; 849  :         } else if ( tokenarray[i].tokval == T_PTR ) {

	cmp	DWORD PTR [rdx], 258			; 00000102H
	jne	$LN71@GetQualifi

; 850  :             /* v2.06: avoid to use ST_PTR */
; 851  :             //type = ST_PTR;
; 852  :             type = EMPTY;
; 853  :             pti->is_ptr++;

	inc	BYTE PTR [rbx+20]
	inc	esi
	add	rdx, 32					; 00000020H
	mov	r14d, -2
	jmp	SHORT $LL7@GetQualifi
$LN77@GetQualifi:

; 829  :         if ( tokenarray[i].token == T_STYPE ) {
; 830  :             tmp = tokenarray[i].tokval;

	movsxd	rax, DWORD PTR [rdx]

; 831  :             if ( type == ERROR )

	cmp	r14d, -1
	cmove	r14d, eax

; 832  :                 type = tmp;
; 833  :             mem_type = GetMemtypeSp( tmp );

	lea	rcx, QWORD PTR [rax+rax*2]
	movzx	r8d, BYTE PTR [r9+rcx*4+10]
	lea	eax, DWORD PTR [r8-129]
	cmp	eax, 1
	ja	SHORT $LN13@GetQualifi

; 834  :             if ( mem_type == MT_FAR || mem_type == MT_NEAR ) {
; 835  :                 if ( distance == FALSE ) {

	test	r15d, r15d
	jne	SHORT $LN16@GetQualifi

; 836  :                     uint_8 Ofssize = GetSflagsSp( tmp );

	movzx	ecx, BYTE PTR [r9+rcx*4+4]

; 837  :                     pti->is_far = ( mem_type == MT_FAR );

	cmp	r8d, 130				; 00000082H
	sete	al
	mov	BYTE PTR [rbx+21], al

; 838  :                     if ( Ofssize != USE_EMPTY )

	cmp	cl, 254					; 000000feH
	je	SHORT $LN18@GetQualifi

; 839  :                         pti->Ofssize = Ofssize;

	mov	BYTE PTR [rbx+22], cl
$LN18@GetQualifi:

; 821  :         }
; 822  :     /* with NEAR/FAR, there are several syntax variants allowed:
; 823  :      * 1. NEARxx | FARxx
; 824  :      * 2. PTR NEARxx | FARxx
; 825  :      * 3. NEARxx | FARxx PTR [<type>]
; 826  :      */
; 827  :     /* read qualified type */
; 828  :     for ( type = ERROR; tokenarray[i].token == T_STYPE || tokenarray[i].token == T_BINARY_OPERATOR; i++ ) {

	inc	esi

; 840  :                     distance = TRUE;

	mov	r15d, 1
	add	rdx, 32					; 00000020H
	jmp	SHORT $LL7@GetQualifi
$LN16@GetQualifi:

; 841  :                 } else if ( tokenarray[i-1].tokval != T_PTR )

	cmp	DWORD PTR [rdx-32], 258			; 00000102H
	jne	SHORT $LN71@GetQualifi

; 821  :         }
; 822  :     /* with NEAR/FAR, there are several syntax variants allowed:
; 823  :      * 1. NEARxx | FARxx
; 824  :      * 2. PTR NEARxx | FARxx
; 825  :      * 3. NEARxx | FARxx PTR [<type>]
; 826  :      */
; 827  :     /* read qualified type */
; 828  :     for ( type = ERROR; tokenarray[i].token == T_STYPE || tokenarray[i].token == T_BINARY_OPERATOR; i++ ) {

	inc	esi
	add	rdx, 32					; 00000020H
	jmp	$LL7@GetQualifi
$LN13@GetQualifi:

; 842  :                     break;
; 843  :             } else {
; 844  :                 if ( pti->is_ptr )

	cmp	BYTE PTR [rbx+20], r12b
	je	SHORT $LN20@GetQualifi

; 845  :                     pti->ptr_memtype = mem_type;

	mov	DWORD PTR [rbx+24], r8d
$LN20@GetQualifi:

; 846  :                 i++;

	inc	esi
$LN71@GetQualifi:
	mov	QWORD PTR [rsp+80], rbp
	mov	QWORD PTR [rsp+88], rdi

; 854  :         } else
; 855  :             break;
; 856  :     }
; 857  : 
; 858  :     /* v2.06: don't use ST_PTR anymore! */
; 859  :     //if ( type == ST_PTR ) {
; 860  :     if ( type == EMPTY ) {

	cmp	r14d, -2
	jne	$LN24@GetQualifi

; 861  :         if ( tokenarray[i].token == T_ID && tokenarray[i-1].tokval == T_PTR ) {

	movsxd	rbp, esi
	shl	rbp, 5
	add	rbp, r10
	cmp	BYTE PTR [rbp], 8
	jne	$LN40@GetQualifi
	cmp	DWORD PTR [rbp-16], 258			; 00000102H
	jne	$LN40@GetQualifi

; 862  :             pti->symtype = SymSearch( tokenarray[i].string_ptr );

	mov	rcx, QWORD PTR [rbp+8]
	call	SymFind
	mov	QWORD PTR [rbx+8], rax
	mov	rdi, rax

; 863  :             if ( pti->symtype == NULL || pti->symtype->state == SYM_UNDEFINED )

	test	rax, rax
	je	$LN27@GetQualifi
	mov	eax, DWORD PTR [rax+32]
	test	eax, eax
	je	$LN27@GetQualifi

; 865  :             else if ( pti->symtype->state != SYM_TYPE ) {

	cmp	eax, 7
	je	SHORT $LN28@GetQualifi

; 866  :                 return( EmitErr( INVALID_QUALIFIED_TYPE, tokenarray[i].string_ptr ) );

	mov	rdx, QWORD PTR [rbp+8]
	lea	ecx, QWORD PTR [r14+87]
	call	EmitErr
	jmp	$LN1@GetQualifi
$LN28@GetQualifi:

; 867  :             } else {
; 868  :                 sym = pti->symtype;
; 869  :                 /* if it's a typedef, simplify the info */
; 870  :                 if ( sym->typekind == TYPE_TYPEDEF ) {

	cmp	BYTE PTR [rdi+66], 3
	jne	$LN39@GetQualifi

; 871  :                     pti->is_ptr     += sym->is_ptr;

	movzx	eax, BYTE PTR [rdi+45]
	add	BYTE PTR [rbx+20], al

; 872  :                     if ( sym->is_ptr == 0 ) {

	cmp	BYTE PTR [rdi+45], r12b
	jne	SHORT $LN31@GetQualifi

; 873  :                         /* v2.06b: alias types have MT_TYPE, dont use for ptr_memtype! */
; 874  :                         //pti->ptr_memtype = sym->mem_type;
; 875  :                         pti->ptr_memtype = ( sym->mem_type != MT_TYPE ? sym->mem_type : MT_EMPTY );

	mov	eax, DWORD PTR [rdi+36]
	mov	ecx, 192				; 000000c0H
	cmp	eax, 196				; 000000c4H
	cmovne	ecx, eax
	mov	DWORD PTR [rbx+24], ecx

; 876  :                         if ( distance == FALSE && pti->is_ptr == 1 &&

	test	r15d, r15d
	jne	SHORT $LN33@GetQualifi
	cmp	BYTE PTR [rbx+20], 1
	jne	SHORT $LN33@GetQualifi
	mov	eax, DWORD PTR [rdi+36]
	add	eax, -128				; ffffffffffffff80H
	cmp	eax, 2
	ja	SHORT $LN33@GetQualifi

; 877  :                             ( sym->mem_type == MT_NEAR ||
; 878  :                              sym->mem_type == MT_PROC ||
; 879  :                              sym->mem_type == MT_FAR ) )
; 880  :                             pti->is_far = sym->isfar;
; 881  :                             if ( sym->Ofssize != USE_EMPTY )
; 882  :                                 pti->Ofssize = sym->Ofssize;
; 883  :                     } else {

	jmp	SHORT $LN82@GetQualifi
$LN31@GetQualifi:

; 884  :                         pti->ptr_memtype = sym->ptr_memtype;

	movzx	eax, BYTE PTR [rdi+46]
	mov	DWORD PTR [rbx+24], eax

; 885  :                         if ( distance == FALSE && pti->is_ptr == 1 ) {

	test	r15d, r15d
	jne	SHORT $LN37@GetQualifi
	cmp	BYTE PTR [rbx+20], 1
	jne	SHORT $LN37@GetQualifi
$LN82@GetQualifi:

; 886  :                             pti->is_far = sym->isfar;

	movzx	eax, BYTE PTR [rdi+47]
	shr	al, 4
	and	al, 1
	mov	BYTE PTR [rbx+21], al
$LN33@GetQualifi:

; 887  :                             if ( sym->Ofssize != USE_EMPTY )

	movzx	eax, BYTE PTR [rdi+44]
	cmp	al, 254					; 000000feH
	je	SHORT $LN37@GetQualifi

; 888  :                                 pti->Ofssize = sym->Ofssize;

	mov	BYTE PTR [rbx+22], al
$LN37@GetQualifi:

; 889  :                         }
; 890  :                     }
; 891  :                     if ( sym->mem_type == MT_TYPE )

	cmp	DWORD PTR [rdi+36], 196			; 000000c4H
	jne	SHORT $LN38@GetQualifi

; 892  :                         pti->symtype  = sym->type;

	mov	rax, QWORD PTR [rdi+80]
	mov	QWORD PTR [rbx+8], rax
	jmp	SHORT $LN39@GetQualifi
$LN38@GetQualifi:

; 893  :                     else {
; 894  :                         DebugMsg1(("GetQualifiedType: memtype=%X, symtype set by target_type\n", sym->mem_type ));
; 895  :                         pti->symtype  = sym->target_type;

	mov	rax, QWORD PTR [rdi+48]
	mov	QWORD PTR [rbx+8], rax
	jmp	SHORT $LN39@GetQualifi
$LN27@GetQualifi:

; 864  :                 pti->symtype = CreateTypeSymbol( pti->symtype, tokenarray[i].string_ptr, TRUE );

	test	rdi, rdi
	je	SHORT $LN63@GetQualifi
	mov	rdx, rdi
	lea	rcx, OFFSET FLAT:SymTables
	call	sym_remove_table
	jmp	SHORT $LN68@GetQualifi
$LN63@GetQualifi:
	mov	rcx, QWORD PTR [rbp+8]
	call	SymCreate
	mov	rdi, rax
$LN68@GetQualifi:
	test	rdi, rdi
	je	SHORT $LN65@GetQualifi
	mov	ecx, 24
	mov	DWORD PTR [rdi+32], 7
	mov	BYTE PTR [rdi+66], r12b
	call	LclAlloc
	mov	QWORD PTR [rdi+96], rax
	mov	QWORD PTR [rax], r12
	mov	QWORD PTR [rax+8], r12
	mov	WORD PTR [rax+16], r12w
$LN65@GetQualifi:
	mov	QWORD PTR [rbx+8], rdi
$LN39@GetQualifi:

; 896  :                     }
; 897  :                 }
; 898  :             }
; 899  :             i++;

	inc	esi

; 900  :         }
; 901  :     }
; 902  : 
; 903  :     if( type == ERROR ) {

	lea	r9, OFFSET FLAT:SpecialTable
$LN40@GetQualifi:

; 942  :         if ( pti->is_ptr )

	cmp	BYTE PTR [rbx+20], r12b
	je	$LN55@GetQualifi

; 943  :             pti->mem_type = MT_PTR;

	mov	DWORD PTR [rbx+16], 195			; 000000c3H
	jmp	$LN56@GetQualifi
$LN24@GetQualifi:

; 900  :         }
; 901  :     }
; 902  : 
; 903  :     if( type == ERROR ) {

	cmp	r14d, -1
	jne	SHORT $LN40@GetQualifi

; 904  :         if ( tokenarray[i].token != T_ID ) {

	movsxd	rax, esi
	shl	rax, 5
	lea	rdi, QWORD PTR [rax+r10]
	movzx	eax, BYTE PTR [rax+r10]
	cmp	al, 8
	je	SHORT $LN42@GetQualifi

; 905  :             if ( tokenarray[i].token == T_FINAL || tokenarray[i].token == T_COMMA )

	test	al, al
	je	SHORT $LN45@GetQualifi
	cmp	al, 44					; 0000002cH
	je	SHORT $LN45@GetQualifi

; 907  :             else {
; 908  :                 EmitErr( SYNTAX_ERROR_EX, tokenarray[i].string_ptr );

	mov	rdx, QWORD PTR [rdi+8]
	mov	ecx, 209				; 000000d1H
	call	EmitErr

; 909  :                 i++;
; 910  :             }
; 911  :             return( ERROR );

	or	eax, r14d
	jmp	$LN1@GetQualifi
$LN45@GetQualifi:

; 906  :                 EmitError( QUALIFIED_TYPE_EXPECTED );

	mov	ecx, 86					; 00000056H
	call	EmitError

; 909  :                 i++;
; 910  :             }
; 911  :             return( ERROR );

	or	eax, -1
	jmp	$LN1@GetQualifi
$LN42@GetQualifi:

; 912  :         }
; 913  :         pti->symtype = SymSearch( tokenarray[i].string_ptr );

	mov	rcx, QWORD PTR [rdi+8]
	call	SymFind
	mov	QWORD PTR [rbx+8], rax
	mov	rcx, rax

; 914  :         if( pti->symtype == NULL || pti->symtype->state != SYM_TYPE ) {

	test	rax, rax
	je	SHORT $LN50@GetQualifi
	mov	eax, DWORD PTR [rax+32]
	cmp	eax, 7
	jne	SHORT $LN47@GetQualifi

; 921  :         }
; 922  :         sym = pti->symtype;
; 923  :         if ( sym->typekind == TYPE_TYPEDEF ) {

	cmp	BYTE PTR [rcx+66], 3
	jne	SHORT $LN51@GetQualifi

; 924  :             pti->mem_type = sym->mem_type;

	mov	eax, DWORD PTR [rcx+36]
	mov	DWORD PTR [rbx+16], eax

; 925  :             pti->is_far   = sym->isfar;

	movzx	eax, BYTE PTR [rcx+47]
	shr	al, 4
	and	al, 1
	mov	BYTE PTR [rbx+21], al

; 926  :             pti->is_ptr   = sym->is_ptr;

	movzx	eax, BYTE PTR [rcx+45]
	mov	BYTE PTR [rbx+20], al

; 927  :             pti->Ofssize  = sym->Ofssize;

	movzx	eax, BYTE PTR [rcx+44]
	mov	BYTE PTR [rbx+22], al

; 928  :             pti->size     = sym->total_size;

	mov	eax, DWORD PTR [rcx+56]
	mov	DWORD PTR [rbx], eax

; 929  :             pti->ptr_memtype = sym->ptr_memtype;

	movzx	eax, BYTE PTR [rcx+46]
	mov	DWORD PTR [rbx+24], eax

; 930  :             if ( sym->mem_type == MT_TYPE )

	cmp	DWORD PTR [rcx+36], 196			; 000000c4H
	jne	SHORT $LN53@GetQualifi

; 931  :                 pti->symtype  = sym->type;

	mov	rax, QWORD PTR [rcx+80]

; 938  :             pti->size = sym->total_size;
; 939  :         }
; 940  :         i++;

	inc	esi
	mov	QWORD PTR [rbx+8], rax

; 941  :     } else {

	jmp	SHORT $LN58@GetQualifi
$LN53@GetQualifi:

; 932  :             else {
; 933  :                 DebugMsg1(("GetQualifiedType: memtype=%X, symtype set by target_type\n", sym->mem_type ));
; 934  :                 pti->symtype  = sym->target_type;

	mov	rax, QWORD PTR [rcx+48]

; 938  :             pti->size = sym->total_size;
; 939  :         }
; 940  :         i++;

	inc	esi
	mov	QWORD PTR [rbx+8], rax

; 941  :     } else {

	jmp	SHORT $LN58@GetQualifi
$LN51@GetQualifi:

; 935  :             }
; 936  :         } else {
; 937  :             pti->mem_type = MT_TYPE;

	mov	DWORD PTR [rbx+16], 196			; 000000c4H

; 938  :             pti->size = sym->total_size;
; 939  :         }
; 940  :         i++;

	inc	esi
	mov	eax, DWORD PTR [rcx+56]
	mov	DWORD PTR [rbx], eax

; 941  :     } else {

	jmp	SHORT $LN58@GetQualifi
$LN47@GetQualifi:

; 918  :             else
; 919  :                 EmitErr( INVALID_QUALIFIED_TYPE, tokenarray[i].string_ptr );

	mov	ecx, 85					; 00000055H
	test	eax, eax
	jne	SHORT $LN83@GetQualifi
$LN50@GetQualifi:

; 915  :             DebugMsg(("GetQualifiedType: invalid type : %s\n", tokenarray[i].string_ptr ));
; 916  :             if ( pti->symtype == NULL || pti->symtype ->state == SYM_UNDEFINED )
; 917  :                 EmitErr( SYMBOL_NOT_DEFINED, tokenarray[i].string_ptr );

	mov	ecx, 102				; 00000066H
$LN83@GetQualifi:
	mov	rdx, QWORD PTR [rdi+8]
	call	EmitErr

; 920  :             return( ERROR );

	or	eax, -1
	jmp	SHORT $LN1@GetQualifi
$LN55@GetQualifi:

; 944  :         else
; 945  :             pti->mem_type = GetMemtypeSp( type );

	movsxd	rax, r14d
	lea	rdx, QWORD PTR [rax+rax*2]
	movzx	eax, BYTE PTR [r9+rdx*4+10]
	mov	DWORD PTR [rbx+16], eax
$LN56@GetQualifi:

; 946  :         if ( pti->mem_type == MT_PTR )

	mov	ecx, DWORD PTR [rbx+16]

; 947  :             pti->size = SizeFromMemtype( pti->is_far ? MT_FAR : MT_NEAR, pti->Ofssize, NULL );

	movzx	edx, BYTE PTR [rbx+22]
	cmp	ecx, 195				; 000000c3H
	jne	SHORT $LN57@GetQualifi
	cmp	BYTE PTR [rbx+21], r12b
	setne	r12b
	lea	ecx, DWORD PTR [r12+129]
$LN57@GetQualifi:

; 948  :         else
; 949  :             pti->size = SizeFromMemtype( pti->mem_type, pti->Ofssize, NULL );

	xor	r8d, r8d
	call	SizeFromMemtype
	mov	DWORD PTR [rbx], eax
$LN58@GetQualifi:

; 950  :     }
; 951  :     *pi = i;

	mov	DWORD PTR [r13], esi

; 952  :     DebugMsg1(("GetQualifiedType: i=%u, memtype=%Xh, ptr=%u, far=%u, ofssize=%d, arbtype=%s:%X\n",
; 953  :                i, pti->mem_type, pti->is_ptr, pti->is_far, pti->Ofssize,
; 954  :                pti->symtype ? pti->symtype->name : "NULL",
; 955  :                pti->symtype ? pti->symtype->mem_type : 0 ));
; 956  :     return( NOT_ERROR );

	xor	eax, eax
$LN1@GetQualifi:

; 957  : }

	mov	rdi, QWORD PTR [rsp+88]
	mov	rbp, QWORD PTR [rsp+80]
	mov	rbx, QWORD PTR [rsp+96]
	add	rsp, 32					; 00000020H
	pop	r15
	pop	r14
	pop	r13
	pop	r12
	pop	rsi
	ret	0
GetQualifiedType ENDP
_TEXT	ENDS
; Function compile flags: /Ogtpy
; File d:\hjwasm\hjwasm2.13.1s\hjwasm2.13.1s\types.c
_TEXT	SEGMENT
tstruct$ = 64
name$ = 72
poffset$ = 80
level$ = 88
SearchNameInStruct PROC

; 85   : {

$LN29:
	mov	QWORD PTR [rsp+8], rbx
	mov	QWORD PTR [rsp+24], r8
	push	rbp
	push	rsi
	push	rdi
	sub	rsp, 32					; 00000020H
	mov	rax, r8
	mov	rbp, rdx

; 86   :     int len = strlen( name );

	or	rdi, -1
	npad	5
$LL23@SearchName:
	inc	rdi
	cmp	BYTE PTR [rdi+rdx], 0
	jne	SHORT $LL23@SearchName

; 87   :     struct sfield *fl = ((struct dsym *)tstruct)->e.structinfo->head;

	mov	rbx, QWORD PTR [rcx+96]

; 88   :     struct asym *sym = NULL;

	xor	esi, esi
	mov	rbx, QWORD PTR [rbx]

; 89   : 
; 90   :     //if (ModuleInfo.oldstructs == TRUE) {
; 91   :     //    return( SymSearch( name ) );
; 92   :     //}
; 93   :     if ( level >= MAX_STRUCT_NESTING ) {

	cmp	r9d, 32					; 00000020H
	jl	SHORT $LN5@SearchName

; 94   :         EmitError( NESTING_LEVEL_TOO_DEEP );

	lea	ecx, QWORD PTR [rsi+100]
	call	EmitError

; 95   :         return( NULL );

	xor	eax, eax

; 122  : }

	mov	rbx, QWORD PTR [rsp+64]
	add	rsp, 32					; 00000020H
	pop	rdi
	pop	rsi
	pop	rbp
	ret	0
$LN5@SearchName:

; 96   :     }
; 97   :     level++;

	inc	r9d
	mov	DWORD PTR level$[rsp], r9d

; 98   :     for ( ; fl; fl = fl->next ) {

	test	rbx, rbx
	je	$LN22@SearchName
$LL4@SearchName:

; 99   :         /* recursion: if member has no name, check if it is a structure
; 100  :          and scan this structure's fieldlist then */
; 101  :         if ( *( fl->sym.name ) == NULLC ) {

	mov	rdx, QWORD PTR [rbx+8]
	cmp	BYTE PTR [rdx], 0
	jne	SHORT $LN6@SearchName

; 102  :             /* there are 2 cases: an anonymous inline struct ... */
; 103  :             if ( fl->sym.state == SYM_TYPE ) {

	cmp	DWORD PTR [rbx+32], 7
	jne	SHORT $LN8@SearchName

; 104  :                 if ( sym = SearchNameInStruct( &fl->sym, name, poffset, level ) ) {

	mov	rcx, rbx
$LN27@SearchName:
	mov	rdx, rbp
	mov	r8, rax
	call	SearchNameInStruct
	mov	rsi, rax
	test	rax, rax
	je	SHORT $LN25@SearchName

; 105  :                     *poffset += fl->sym.offset;

	mov	eax, DWORD PTR [rbx+16]
	mov	rcx, QWORD PTR poffset$[rsp]
	add	DWORD PTR [rcx], eax

; 118  :             break;
; 119  :         }
; 120  :     }
; 121  :     return( sym );

	mov	rax, rsi

; 122  : }

	mov	rbx, QWORD PTR [rsp+64]
	add	rsp, 32					; 00000020H
	pop	rdi
	pop	rsi
	pop	rbp
	ret	0
$LN8@SearchName:

; 106  :                     break;
; 107  :                 }
; 108  :             /* or an anonymous structured field */
; 109  :             } else if ( fl->sym.mem_type == MT_TYPE ) {

	cmp	DWORD PTR [rbx+36], 196			; 000000c4H
	jne	SHORT $LN2@SearchName

; 110  :                 if ( sym = SearchNameInStruct( fl->sym.type, name, poffset, level ) ) {

	mov	rcx, QWORD PTR [rbx+80]

; 111  :                     *poffset += fl->sym.offset;
; 112  :                     break;
; 113  :                 }
; 114  :             }

	jmp	SHORT $LN27@SearchName
$LN6@SearchName:

; 115  :         } else if ( len == fl->sym.name_size && SymCmpFunc( name, fl->sym.name, len ) == 0 ) {

	movzx	eax, BYTE PTR [rbx+72]
	cmp	edi, eax
	jne	SHORT $LN24@SearchName
	movsxd	r8, edi
	mov	rcx, rbp
	call	QWORD PTR SymCmpFunc
	test	eax, eax
	je	SHORT $LN18@SearchName
$LN25@SearchName:
	mov	r9d, DWORD PTR level$[rsp]
$LN24@SearchName:
	mov	rax, QWORD PTR poffset$[rsp]
$LN2@SearchName:

; 98   :     for ( ; fl; fl = fl->next ) {

	mov	rbx, QWORD PTR [rbx+96]
	test	rbx, rbx
	jne	SHORT $LL4@SearchName

; 118  :             break;
; 119  :         }
; 120  :     }
; 121  :     return( sym );

	mov	rax, rsi

; 122  : }

	mov	rbx, QWORD PTR [rsp+64]
	add	rsp, 32					; 00000020H
	pop	rdi
	pop	rsi
	pop	rbp
	ret	0
$LN18@SearchName:

; 116  :             DebugMsg(("SearchNameInStruct: '%s' found in struct %s\n", name, tstruct->name ));
; 117  :             sym = &fl->sym;

	mov	rsi, rbx
$LN22@SearchName:

; 118  :             break;
; 119  :         }
; 120  :     }
; 121  :     return( sym );

	mov	rax, rsi

; 122  : }

	mov	rbx, QWORD PTR [rsp+64]
	add	rsp, 32					; 00000020H
	pop	rdi
	pop	rsi
	pop	rbp
	ret	0
SearchNameInStruct ENDP
_TEXT	ENDS
; Function compile flags: /Ogtpy
; File d:\hjwasm\hjwasm2.13.1s\hjwasm2.13.1s\types.c
_TEXT	SEGMENT
sym$ = 48
name$ = 56
global$ = 64
CreateTypeSymbol PROC

; 61   : {

$LN11:
	push	rbx
	sub	rsp, 32					; 00000020H
	mov	rbx, rcx

; 62   :     struct struct_info *si;
; 63   : 
; 64   :     if ( sym )

	test	rcx, rcx
	je	SHORT $LN2@CreateType

; 65   :         sym_remove_table( &SymTables[TAB_UNDEF], (struct dsym *)sym );

	mov	rdx, rcx
	lea	rcx, OFFSET FLAT:SymTables
	call	sym_remove_table
	jmp	SHORT $LN7@CreateType
$LN2@CreateType:

; 66   :     else
; 67   :         sym = ( global ? SymCreate( name ) : SymAlloc( name ) );

	mov	rcx, rdx
	test	r8b, r8b
	je	SHORT $LN6@CreateType
	call	SymCreate
	jmp	SHORT $LN9@CreateType
$LN6@CreateType:
	call	SymAlloc
$LN9@CreateType:
	mov	rbx, rax
$LN7@CreateType:

; 68   : 
; 69   :     if ( sym ) {

	test	rbx, rbx
	je	SHORT $LN8@CreateType

; 70   :         sym->state = SYM_TYPE;
; 71   :         sym->typekind = TYPE_NONE;
; 72   :         ((struct dsym *)sym)->e.structinfo = si = LclAlloc( sizeof( struct struct_info ) );

	mov	ecx, 24
	mov	DWORD PTR [rbx+32], 7
	mov	BYTE PTR [rbx+66], 0
	call	LclAlloc

; 73   :         si->head = NULL;

	xor	ecx, ecx
	mov	QWORD PTR [rbx+96], rax
	mov	QWORD PTR [rax], rcx

; 74   :         si->tail = NULL;

	mov	QWORD PTR [rax+8], rcx

; 75   :         si->alignment = 0;

	mov	WORD PTR [rax+16], cx
$LN8@CreateType:

; 76   :         si->flags = 0;
; 77   :     }
; 78   :     return( sym );

	mov	rax, rbx

; 79   : }

	add	rsp, 32					; 00000020H
	pop	rbx
	ret	0
CreateTypeSymbol ENDP
_TEXT	ENDS
END
