; Listing generated by Microsoft (R) Optimizing Compiler Version 19.00.23026.0 

include listing.inc

INCLUDELIB MSVCRTD
INCLUDELIB OLDNAMES

PUBLIC	szNull
_DATA	SEGMENT
COMM	decoflags:BYTE
COMM	broadflags:BYTE
COMM	evex:BYTE
_DATA	ENDS
CONST	SEGMENT
szNull	DB	'<NULL>', 00H
	ORG $+1
sr_prefix DB	026H
	DB	02eH
	DB	036H
	DB	03eH
	DB	064H
	DB	065H
CONST	ENDS
_DATA	SEGMENT
$SG11282 DB	'output_3rd_operand, expected I8, op3=%X', 0aH, 00H
	ORG $+7
$SG11287 DB	'output_3rd_operand, expected OP3_HID, op3=%X', 0aH, 00H
	ORG $+2
$SG11334 DB	'match_phase_3 enter, opnd1=%X, searching op2=%X', 0aH, 00H
	ORG $+7
$SG11349 DB	'match_phase_3: instr table op2=%X', 0aH, 00H
	ORG $+5
$SG11352 DB	'match_phase_3: matched OP_I', 0aH, 00H
	ORG $+3
$SG11368 DB	'match_phase_3: matched OP_I8_U', 0aH, 00H
$SG11383 DB	'match_phase_3: matched OP_I8', 0aH, 00H
	ORG $+2
$SG11387 DB	'match_phase_3: matched OP_I_1', 0aH, 00H
	ORG $+1
$SG11395 DB	'match_phase_3: matched opnd2', 0aH, 00H
	ORG $+2
$SG11401 DB	'match_phase_3: returns EMPTY', 0aH, 00H
	ORG $+2
$SG11420 DB	'NULL', 00H
	ORG $+3
$SG11421 DB	'NULL', 00H
	ORG $+3
$SG11422 DB	'check_operand_2: error: undef_sym=%u Fixup[0]=%X [%s]', 0aH
	DB	00H
	ORG $+1
$SG11476 DB	'codegen: no matching format found', 0aH, 00H
	ORG $+5
$SG11463 DB	'codegen(ofs=%X): %s opnd1=%X codeinfo: ofssize=%u wide=%'
	DB	'u rm=%Xh sib=%Xh rex=%Xh opsiz=%u', 0aH, 00H
	ORG $+5
$SG10638 DB	'output_opc enter, ins.opc/rm=%X/%X, byte1_info=%X CodeIn'
	DB	'fo->rm=%X opsiz=%u', 0aH, 00H
	ORG $+4
$SG10648 DB	'output_opc: wrong cpu setting: instr.cpu=%X, ModuleInfo.'
	DB	'cpu=%X', 0aH, 00H
$SG10687 DB	'output_opc: ERROR: FP emulation byte sequence destroyed '
	DB	'by 32-bit address prefix!', 0aH, 00H
	ORG $+5
$SG10690 DB	'output_opc: instruction form requires 386', 0aH, 00H
	ORG $+5
$SG11232 DB	'output_data: size=%u cont=%I64X', 0aH, 00H
	ORG $+7
$SG11199 DB	'output_data(idx=%u, op=%X [data=%X fixup=%p typ=%u] ) en'
	DB	'ter [rm=%X]', 0aH, 00H
	ORG $+3
$SG11235 DB	'output_data: size=%u cont=%X', 0aH, 00H
	ORG $+2
$SG11236 DB	'output_data: size=0', 0aH, 00H
	ORG $+3
$SG11200 DB	'output_data(idx=%u, op=%X [data=%X fixup=NULL] ) enter ['
	DB	'rm=%X]', 0aH, 00H
$SG11252 DB	'check_3rd_operand: tab=%X <-> codeinfo=%X', 0aH, 00H
_DATA	ENDS
PUBLIC	codegen
PUBLIC	GetByteDisp
PUBLIC	Check4CompDisp8
EXTRN	DoDebugMsg:PROC
EXTRN	DoDebugMsg1:PROC
EXTRN	EmitError:PROC
EXTRN	EmitErr:PROC
EXTRN	OutputByte:PROC
EXTRN	OutputBytes:PROC
EXTRN	AddLinnumDataRef:PROC
EXTRN	OperandSize:PROC
EXTRN	AddFloatingPointEmulationFixup:PROC
EXTRN	GetCurrOffset:PROC
EXTRN	GetLineNumber:PROC
EXTRN	get_curr_srcfile:PROC
EXTRN	LstWrite:PROC
EXTRN	GetResWName:PROC
EXTRN	_RTC_CheckStackVars:PROC
EXTRN	_RTC_InitBase:PROC
EXTRN	_RTC_Shutdown:PROC
EXTRN	__GSHandlerCheck:PROC
EXTRN	__security_check_cookie:PROC
EXTRN	Options:BYTE
EXTRN	ModuleInfo:BYTE
EXTRN	Parse_Pass:DWORD
EXTRN	write_to_file:BYTE
EXTRN	InstrTable:BYTE
EXTRN	optable_idx:BYTE
EXTRN	opnd_clstab:BYTE
EXTRN	ResWordTable:BYTE
EXTRN	vex_flags:BYTE
EXTRN	__ImageBase:BYTE
EXTRN	__security_cookie:QWORD
pdata	SEGMENT
$pdata$codegen DD imagerel $LN39
	DD	imagerel $LN39+1424
	DD	imagerel $unwind$codegen
$pdata$GetByteDisp DD imagerel $LN23
	DD	imagerel $LN23+944
	DD	imagerel $unwind$GetByteDisp
$pdata$Check4CompDisp8 DD imagerel $LN5
	DD	imagerel $LN5+177
	DD	imagerel $unwind$Check4CompDisp8
$pdata$output_opc DD imagerel output_opc
	DD	imagerel output_opc+19812
	DD	imagerel $unwind$output_opc
$pdata$output_data DD imagerel output_data
	DD	imagerel output_data+1804
	DD	imagerel $unwind$output_data
$pdata$check_3rd_operand DD imagerel check_3rd_operand
	DD	imagerel check_3rd_operand+575
	DD	imagerel $unwind$check_3rd_operand
$pdata$output_3rd_operand DD imagerel output_3rd_operand
	DD	imagerel output_3rd_operand+1288
	DD	imagerel $unwind$output_3rd_operand
$pdata$match_phase_3 DD imagerel match_phase_3
	DD	imagerel match_phase_3+2321
	DD	imagerel $unwind$match_phase_3
$pdata$check_operand_2 DD imagerel check_operand_2
	DD	imagerel check_operand_2+929
	DD	imagerel $unwind$check_operand_2
pdata	ENDS
;	COMDAT rtc$TMZ
rtc$TMZ	SEGMENT
_RTC_Shutdown.rtc$TMZ DQ FLAT:_RTC_Shutdown
rtc$TMZ	ENDS
;	COMDAT rtc$IMZ
rtc$IMZ	SEGMENT
_RTC_InitBase.rtc$IMZ DQ FLAT:_RTC_InitBase
rtc$IMZ	ENDS
CONST	SEGMENT
	ORG $+2
GetByteDisp$rtcName$0 DB 066H
	DB	076H
	DB	061H
	DB	072H
	DB	072H
	DB	00H
	ORG $+2
GetByteDisp$rtcName$1 DB 068H
	DB	076H
	DB	061H
	DB	072H
	DB	072H
	DB	00H
	ORG $+2
GetByteDisp$rtcName$2 DB 064H
	DB	075H
	DB	070H
	DB	061H
	DB	072H
	DB	072H
	DB	00H
	ORG $+1
GetByteDisp$rtcFrameData DD 03H
	DD	00H
	DQ	FLAT:GetByteDisp$rtcVarDesc
output_opc$rtcName$1 DB 064H
	DB	00H
	ORG $+6
GetByteDisp$rtcVarDesc DD 074H
	DD	03H
	DQ	FLAT:GetByteDisp$rtcName$2
	DD	054H
	DD	06H
	DQ	FLAT:GetByteDisp$rtcName$1
	DD	028H
	DD	0cH
	DQ	FLAT:GetByteDisp$rtcName$0
	ORG $+144
output_opc$rtcName$0 DB 063H
	DB	06fH
	DB	06dH
	DB	070H
	DB	072H
	DB	064H
	DB	073H
	DB	070H
	DB	00H
	ORG $+7
output_opc$rtcVarDesc DD 084H
	DD	04H
	DQ	FLAT:output_opc$rtcName$1
	DD	054H
	DD	01H
	DQ	FLAT:output_opc$rtcName$0
	ORG $+96
output_opc$rtcFrameData DD 02H
	DD	00H
	DQ	FLAT:output_opc$rtcVarDesc
CONST	ENDS
xdata	SEGMENT
$unwind$codegen DD 022801H
	DD	0700af211H
$unwind$GetByteDisp DD 033619H
	DD	018010dH
	DD	07006H
	DD	imagerel __GSHandlerCheck
	DD	0b0H
$unwind$Check4CompDisp8 DD 022d01H
	DD	070155219H
$unwind$output_opc DD 032401H
	DD	01c010dH
	DD	07006H
$unwind$output_data DD 022701H
	DD	0700fb213H
$unwind$check_3rd_operand DD 021e01H
	DD	07006520aH
$unwind$output_3rd_operand DD 021e01H
	DD	07006320aH
$unwind$match_phase_3 DD 022201H
	DD	0700a720eH
$unwind$check_operand_2 DD 022201H
	DD	0700a720eH
xdata	ENDS
; Function compile flags: /Odtp /RTCsu
; File d:\hjwasm\hjwasm2.13.1s\hjwasm2.13.1s\codegen.c
_TEXT	SEGMENT
next$1 = 32
tv168 = 40
tv170 = 48
CodeInfo$ = 80
opnd1$ = 88
check_operand_2 PROC

; 1811 : {

	mov	DWORD PTR [rsp+16], edx
	mov	QWORD PTR [rsp+8], rcx
	push	rdi
	sub	rsp, 64					; 00000040H
	mov	rdi, rsp
	mov	ecx, 16
	mov	eax, -858993460				; ccccccccH
	rep stosd
	mov	rcx, QWORD PTR [rsp+80]

; 1812 :     if( CodeInfo->opnd[OPND2].type == OP_NONE ) {

	mov	eax, 24
	imul	rax, rax, 1
	mov	rcx, QWORD PTR CodeInfo$[rsp]
	cmp	DWORD PTR [rcx+rax+32], 0
	jne	$LN2@check_oper

; 1813 :       if (opnd_clstab[CodeInfo->pinstr->opclsidx].opnd_type[OPND2] != OP_NONE){

	mov	rax, QWORD PTR CodeInfo$[rsp]
	mov	rax, QWORD PTR [rax+16]
	movzx	eax, BYTE PTR [rax]
	imul	rax, rax, 12
	lea	rcx, OFFSET FLAT:opnd_clstab
	add	rcx, rax
	mov	rax, rcx
	mov	ecx, 4
	imul	rcx, rcx, 1
	cmp	DWORD PTR [rax+rcx], 0
	je	SHORT $LN3@check_oper

; 1814 :         if (CodeInfo->token == T_VGETEXPPD || CodeInfo->token == T_VGETEXPPS)

	mov	rax, QWORD PTR CodeInfo$[rsp]
	cmp	DWORD PTR [rax+24], 1423		; 0000058fH
	je	SHORT $LN6@check_oper
	mov	rax, QWORD PTR CodeInfo$[rsp]
	cmp	DWORD PTR [rax+24], 1424		; 00000590H
	jne	SHORT $LN4@check_oper
$LN6@check_oper:

; 1815 :           ;

	jmp	SHORT $LN5@check_oper
$LN4@check_oper:

; 1816 :         else
; 1817 :         return(ERROR); /* doesn't match */

	mov	eax, -1
	jmp	$LN1@check_oper
$LN5@check_oper:
$LN3@check_oper:

; 1818 :       }
; 1819 :         /* 1 opnd instruction found */
; 1820 : 
; 1821 :         /* v2.06: added check for unspecified size of mem op */
; 1822 :         if ( opnd1 == OP_M ) {

	cmp	DWORD PTR opnd1$[rsp], -1887436800	; ffffffff8f800000H
	jne	$LN7@check_oper

; 1823 :             const struct instr_item *next = CodeInfo->pinstr+1;

	mov	rax, QWORD PTR CodeInfo$[rsp]
	mov	rax, QWORD PTR [rax+16]
	add	rax, 14
	mov	QWORD PTR next$1[rsp], rax

; 1824 :             if ( ( opnd_clstab[next->opclsidx].opnd_type[OPND1] & OP_M ) &&

	mov	rax, QWORD PTR next$1[rsp]
	movzx	eax, BYTE PTR [rax]
	imul	rax, rax, 12
	lea	rcx, OFFSET FLAT:opnd_clstab
	add	rcx, rax
	mov	rax, rcx
	mov	ecx, 4
	imul	rcx, rcx, 0
	mov	eax, DWORD PTR [rax+rcx]
	and	eax, -1887436800			; ffffffff8f800000H
	test	eax, eax
	je	$LN8@check_oper
	mov	rax, QWORD PTR next$1[rsp]
	movzx	eax, BYTE PTR [rax+4]
	test	eax, eax
	jne	$LN8@check_oper

; 1825 :                 next->first == FALSE )
; 1826 :                 /* skip error if mem op is a forward reference */
; 1827 :                 /* v2.06b: added "undefined" check */
; 1828 :                 if ( CodeInfo->undef_sym == FALSE &&

	mov	rax, QWORD PTR CodeInfo$[rsp]
	movzx	eax, BYTE PTR [rax+142]
	shr	al, 6
	and	al, 1
	movzx	eax, al
	test	eax, eax
	jne	$LN9@check_oper
	mov	eax, 24
	imul	rax, rax, 0
	mov	rcx, QWORD PTR CodeInfo$[rsp]
	cmp	QWORD PTR [rcx+rax+48], 0
	je	SHORT $LN10@check_oper
	mov	eax, 24
	imul	rax, rax, 0
	mov	rcx, QWORD PTR CodeInfo$[rsp]
	mov	rax, QWORD PTR [rcx+rax+48]
	cmp	QWORD PTR [rax+56], 0
	je	SHORT $LN10@check_oper
	mov	eax, 24
	imul	rax, rax, 0
	mov	rcx, QWORD PTR CodeInfo$[rsp]
	mov	rax, QWORD PTR [rcx+rax+48]
	mov	rax, QWORD PTR [rax+56]
	cmp	DWORD PTR [rax+32], 0
	je	$LN9@check_oper
$LN10@check_oper:

; 1829 :                     ( CodeInfo->opnd[OPND1].InsFixup == NULL ||
; 1830 :                      CodeInfo->opnd[OPND1].InsFixup->sym == NULL ||
; 1831 :                      CodeInfo->opnd[OPND1].InsFixup->sym->state != SYM_UNDEFINED ) ) {
; 1832 :                     DebugMsg(("check_operand_2: error: undef_sym=%u Fixup[0]=%X [%s]\n",

	mov	eax, 24
	imul	rax, rax, 0
	mov	rcx, QWORD PTR CodeInfo$[rsp]
	cmp	QWORD PTR [rcx+rax+48], 0
	je	SHORT $LN19@check_oper
	mov	eax, 24
	imul	rax, rax, 0
	mov	rcx, QWORD PTR CodeInfo$[rsp]
	mov	rax, QWORD PTR [rcx+rax+48]
	cmp	QWORD PTR [rax+56], 0
	je	SHORT $LN17@check_oper
	mov	eax, 24
	imul	rax, rax, 0
	mov	rcx, QWORD PTR CodeInfo$[rsp]
	mov	rax, QWORD PTR [rcx+rax+48]
	mov	rax, QWORD PTR [rax+56]
	mov	rax, QWORD PTR [rax+8]
	mov	QWORD PTR tv168[rsp], rax
	jmp	SHORT $LN18@check_oper
$LN17@check_oper:
	lea	rax, OFFSET FLAT:$SG11420
	mov	QWORD PTR tv168[rsp], rax
$LN18@check_oper:
	mov	rax, QWORD PTR tv168[rsp]
	mov	QWORD PTR tv170[rsp], rax
	jmp	SHORT $LN20@check_oper
$LN19@check_oper:
	lea	rax, OFFSET FLAT:$SG11421
	mov	QWORD PTR tv170[rsp], rax
$LN20@check_oper:
	mov	eax, 24
	imul	rax, rax, 0
	mov	rcx, QWORD PTR CodeInfo$[rsp]
	movzx	ecx, BYTE PTR [rcx+142]
	shr	cl, 6
	and	cl, 1
	movzx	ecx, cl
	mov	r9, QWORD PTR tv170[rsp]
	mov	rdx, QWORD PTR CodeInfo$[rsp]
	mov	r8, QWORD PTR [rdx+rax+48]
	mov	edx, ecx
	lea	rcx, OFFSET FLAT:$SG11422
	call	DoDebugMsg

; 1833 :                               CodeInfo->undef_sym, CodeInfo->opnd[OPND1].InsFixup,
; 1834 :                               CodeInfo->opnd[OPND1].InsFixup ? CodeInfo->opnd[OPND1].InsFixup->sym ? CodeInfo->opnd[OPND1].InsFixup->sym->name : "NULL" : "NULL" ));
; 1835 :                     EmitErr( INSTRUCTION_OPERAND_MUST_HAVE_SIZE );

	mov	ecx, 182				; 000000b6H
	call	EmitErr
$LN9@check_oper:
$LN8@check_oper:
$LN7@check_oper:

; 1836 :                 }
; 1837 :         }
; 1838 : 
; 1839 :         output_opc( CodeInfo );

	mov	rcx, QWORD PTR CodeInfo$[rsp]
	call	output_opc

; 1840 :         output_data( CodeInfo, opnd1, OPND1 );

	xor	r8d, r8d
	mov	edx, DWORD PTR opnd1$[rsp]
	mov	rcx, QWORD PTR CodeInfo$[rsp]
	call	output_data

; 1841 : #if AMD64_SUPPORT
; 1842 :         if ( CodeInfo->Ofssize == USE64 && CodeInfo->opnd[OPND1].InsFixup && CodeInfo->opnd[OPND1].InsFixup->type == FIX_RELOFF32 )

	mov	rax, QWORD PTR CodeInfo$[rsp]
	movzx	eax, BYTE PTR [rax+106]
	cmp	eax, 2
	jne	SHORT $LN11@check_oper
	mov	eax, 24
	imul	rax, rax, 0
	mov	rcx, QWORD PTR CodeInfo$[rsp]
	cmp	QWORD PTR [rcx+rax+48], 0
	je	SHORT $LN11@check_oper
	mov	eax, 24
	imul	rax, rax, 0
	mov	rcx, QWORD PTR CodeInfo$[rsp]
	mov	rax, QWORD PTR [rcx+rax+48]
	cmp	DWORD PTR [rax+24], 3
	jne	SHORT $LN11@check_oper

; 1843 :             CodeInfo->opnd[OPND1].InsFixup->addbytes = GetCurrOffset() - CodeInfo->opnd[OPND1].InsFixup->locofs;

	call	GetCurrOffset
	mov	ecx, 24
	imul	rcx, rcx, 0
	mov	rdx, QWORD PTR CodeInfo$[rsp]
	mov	rcx, QWORD PTR [rdx+rcx+48]
	sub	eax, DWORD PTR [rcx+20]
	mov	ecx, 24
	imul	rcx, rcx, 0
	mov	rdx, QWORD PTR CodeInfo$[rsp]
	mov	rcx, QWORD PTR [rdx+rcx+48]
	mov	BYTE PTR [rcx+32], al
$LN11@check_oper:

; 1844 : #endif
; 1845 :         return( NOT_ERROR );

	xor	eax, eax
	jmp	$LN1@check_oper
$LN2@check_oper:

; 1846 :     }
; 1847 : 
; 1848 :     /* check second operand */
; 1849 :     if ( match_phase_3( CodeInfo, opnd1 ) == NOT_ERROR ) {

	mov	edx, DWORD PTR opnd1$[rsp]
	mov	rcx, QWORD PTR CodeInfo$[rsp]
	call	match_phase_3
	test	eax, eax
	jne	$LN12@check_oper

; 1850 : #if AMD64_SUPPORT
; 1851 :         /* for rip-relative fixups, the instruction end is needed */
; 1852 :         if ( CodeInfo->Ofssize == USE64 ) {

	mov	rax, QWORD PTR CodeInfo$[rsp]
	movzx	eax, BYTE PTR [rax+106]
	cmp	eax, 2
	jne	$LN13@check_oper

; 1853 :             if ( CodeInfo->opnd[OPND1].InsFixup && CodeInfo->opnd[OPND1].InsFixup->type == FIX_RELOFF32 )

	mov	eax, 24
	imul	rax, rax, 0
	mov	rcx, QWORD PTR CodeInfo$[rsp]
	cmp	QWORD PTR [rcx+rax+48], 0
	je	SHORT $LN14@check_oper
	mov	eax, 24
	imul	rax, rax, 0
	mov	rcx, QWORD PTR CodeInfo$[rsp]
	mov	rax, QWORD PTR [rcx+rax+48]
	cmp	DWORD PTR [rax+24], 3
	jne	SHORT $LN14@check_oper

; 1854 :                 CodeInfo->opnd[OPND1].InsFixup->addbytes = GetCurrOffset() - CodeInfo->opnd[OPND1].InsFixup->locofs;

	call	GetCurrOffset
	mov	ecx, 24
	imul	rcx, rcx, 0
	mov	rdx, QWORD PTR CodeInfo$[rsp]
	mov	rcx, QWORD PTR [rdx+rcx+48]
	sub	eax, DWORD PTR [rcx+20]
	mov	ecx, 24
	imul	rcx, rcx, 0
	mov	rdx, QWORD PTR CodeInfo$[rsp]
	mov	rcx, QWORD PTR [rdx+rcx+48]
	mov	BYTE PTR [rcx+32], al
$LN14@check_oper:

; 1855 :             if ( CodeInfo->opnd[OPND2].InsFixup && CodeInfo->opnd[OPND2].InsFixup->type == FIX_RELOFF32 )

	mov	eax, 24
	imul	rax, rax, 1
	mov	rcx, QWORD PTR CodeInfo$[rsp]
	cmp	QWORD PTR [rcx+rax+48], 0
	je	SHORT $LN15@check_oper
	mov	eax, 24
	imul	rax, rax, 1
	mov	rcx, QWORD PTR CodeInfo$[rsp]
	mov	rax, QWORD PTR [rcx+rax+48]
	cmp	DWORD PTR [rax+24], 3
	jne	SHORT $LN15@check_oper

; 1856 :                 CodeInfo->opnd[OPND2].InsFixup->addbytes = GetCurrOffset() - CodeInfo->opnd[OPND2].InsFixup->locofs;

	call	GetCurrOffset
	mov	ecx, 24
	imul	rcx, rcx, 1
	mov	rdx, QWORD PTR CodeInfo$[rsp]
	mov	rcx, QWORD PTR [rdx+rcx+48]
	sub	eax, DWORD PTR [rcx+20]
	mov	ecx, 24
	imul	rcx, rcx, 1
	mov	rdx, QWORD PTR CodeInfo$[rsp]
	mov	rcx, QWORD PTR [rdx+rcx+48]
	mov	BYTE PTR [rcx+32], al
$LN15@check_oper:
$LN13@check_oper:

; 1857 :         }
; 1858 : #endif
; 1859 :         return( NOT_ERROR );

	xor	eax, eax
	jmp	SHORT $LN1@check_oper
$LN12@check_oper:

; 1860 :     }
; 1861 :     return( ERROR );

	mov	eax, -1
$LN1@check_oper:

; 1862 : }

	add	rsp, 64					; 00000040H
	pop	rdi
	ret	0
check_operand_2 ENDP
_TEXT	ENDS
; Function compile flags: /Odtp /RTCsu
; File d:\hjwasm\hjwasm2.13.1s\hjwasm2.13.1s\codegen.c
_TEXT	SEGMENT
determinant$ = 32
opnd2$ = 36
tbl_op2$ = 40
tv171 = 44
tv204 = 48
tv216 = 52
tv224 = 56
tv235 = 60
CodeInfo$ = 80
opnd1$ = 88
match_phase_3 PROC

; 1604 : {

	mov	DWORD PTR [rsp+16], edx
	mov	QWORD PTR [rsp+8], rcx
	push	rdi
	sub	rsp, 64					; 00000040H
	mov	rdi, rsp
	mov	ecx, 16
	mov	eax, -858993460				; ccccccccH
	rep stosd
	mov	rcx, QWORD PTR [rsp+80]

; 1605 :     enum operand_type    determinant = opnd_clstab[CodeInfo->pinstr->opclsidx].opnd_type[OPND1]; /* remember first op type */

	mov	rax, QWORD PTR CodeInfo$[rsp]
	mov	rax, QWORD PTR [rax+16]
	movzx	eax, BYTE PTR [rax]
	imul	rax, rax, 12
	lea	rcx, OFFSET FLAT:opnd_clstab
	add	rcx, rax
	mov	rax, rcx
	mov	ecx, 4
	imul	rcx, rcx, 0
	mov	eax, DWORD PTR [rax+rcx]
	mov	DWORD PTR determinant$[rsp], eax

; 1606 :     enum operand_type    opnd2 = CodeInfo->opnd[OPND2].type;

	mov	eax, 24
	imul	rax, rax, 1
	mov	rcx, QWORD PTR CodeInfo$[rsp]
	mov	eax, DWORD PTR [rcx+rax+32]
	mov	DWORD PTR opnd2$[rsp], eax

; 1607 :     enum operand_type    tbl_op2;
; 1608 : 
; 1609 :     DebugMsg1(("match_phase_3 enter, opnd1=%" I32_SPEC "X, searching op2=%" I32_SPEC "X\n", opnd1, opnd2 ));

	mov	r8d, DWORD PTR opnd2$[rsp]
	mov	edx, DWORD PTR opnd1$[rsp]
	lea	rcx, OFFSET FLAT:$SG11334
	call	DoDebugMsg1

; 1610 :     
; 1611 : #if AVXSUPP 
; 1612 :                                
; 1613 :     if ( CodeInfo->token >= VEX_START && ( vex_flags[ CodeInfo->token - VEX_START ] & VX_L ) ) {

	mov	rax, QWORD PTR CodeInfo$[rsp]
	cmp	DWORD PTR [rax+24], 1291		; 0000050bH
	jl	$LN9@match_phas
	mov	rax, QWORD PTR CodeInfo$[rsp]
	mov	eax, DWORD PTR [rax+24]
	sub	eax, 1291				; 0000050bH
	cdqe
	lea	rcx, OFFSET FLAT:vex_flags
	movzx	eax, BYTE PTR [rcx+rax]
	and	eax, 1
	test	eax, eax
	je	$LN9@match_phas

; 1614 :         if ( CodeInfo->opnd[OPND1].type & (OP_K | OP_YMM | OP_ZMM | OP_M256) ) {

	mov	eax, 24
	imul	rax, rax, 0
	mov	rcx, QWORD PTR CodeInfo$[rsp]
	mov	eax, DWORD PTR [rcx+rax+32]
	and	eax, 268435904				; 100001c0H
	test	eax, eax
	je	$LN10@match_phas

; 1615 :             if ( opnd2 & OP_ZMM || opnd2 & OP_YMM || opnd2 & OP_K)

	mov	eax, DWORD PTR opnd2$[rsp]
	and	eax, 256				; 00000100H
	test	eax, eax
	jne	SHORT $LN14@match_phas
	mov	eax, DWORD PTR opnd2$[rsp]
	and	eax, 128				; 00000080H
	test	eax, eax
	jne	SHORT $LN14@match_phas
	mov	eax, DWORD PTR opnd2$[rsp]
	and	eax, 64					; 00000040H
	test	eax, eax
	je	SHORT $LN12@match_phas
$LN14@match_phas:

; 1616 :                 opnd2 |= OP_XMM;

	mov	eax, DWORD PTR opnd2$[rsp]
	or	eax, 32					; 00000020H
	mov	DWORD PTR opnd2$[rsp], eax
	jmp	SHORT $LN13@match_phas
$LN12@match_phas:

; 1617 :             else if ( opnd2 & OP_M256 )

	mov	eax, DWORD PTR opnd2$[rsp]
	and	eax, 268435456				; 10000000H
	test	eax, eax
	je	SHORT $LN15@match_phas

; 1618 :                 opnd2 |= OP_M128;

	mov	eax, DWORD PTR opnd2$[rsp]
	bts	eax, 27
	mov	DWORD PTR opnd2$[rsp], eax
	jmp	SHORT $LN16@match_phas
$LN15@match_phas:

; 1619 :             else if ( opnd2 & OP_M128 )

	mov	eax, DWORD PTR opnd2$[rsp]
	and	eax, 134217728				; 08000000H
	test	eax, eax
	je	SHORT $LN17@match_phas

; 1620 :                 opnd2 |= OP_M64;               //should be: ins->prefix & VX_HALF)

	mov	eax, DWORD PTR opnd2$[rsp]
	bts	eax, 26
	mov	DWORD PTR opnd2$[rsp], eax
	jmp	SHORT $LN18@match_phas
$LN17@match_phas:

; 1621 :             else if ( ( opnd2 & OP_XMM ) && !( vex_flags[ CodeInfo->token - VEX_START ] & VX_HALF ) ) {

	mov	eax, DWORD PTR opnd2$[rsp]
	and	eax, 32					; 00000020H
	test	eax, eax
	je	SHORT $LN19@match_phas
	mov	rax, QWORD PTR CodeInfo$[rsp]
	mov	eax, DWORD PTR [rax+24]
	sub	eax, 1291				; 0000050bH
	cdqe
	lea	rcx, OFFSET FLAT:vex_flags
	movzx	eax, BYTE PTR [rcx+rax]
	and	eax, 32					; 00000020H
	test	eax, eax
	jne	SHORT $LN19@match_phas

; 1622 :                 EmitError( INSTRUCTION_OR_REGISTER_NOT_ACCEPTED_IN_CURRENT_CPU_MODE );

	mov	ecx, 30
	call	EmitError

; 1623 :                 return( ERROR );

	mov	eax, -1
	jmp	$LN1@match_phas
$LN19@match_phas:
$LN18@match_phas:
$LN16@match_phas:
$LN13@match_phas:

; 1624 :             }
; 1625 :         }

	jmp	SHORT $LN11@match_phas
$LN10@match_phas:

; 1626 : #if 1
; 1627 :         /* may be necessary to cover the cases where the first operand is a memory operand
; 1628 :          * "without size" and the second operand is a ymm register
; 1629 :          */
; 1630 :         else if ( CodeInfo->opnd[OPND1].type == OP_M ) {

	mov	eax, 24
	imul	rax, rax, 0
	mov	rcx, QWORD PTR CodeInfo$[rsp]
	cmp	DWORD PTR [rcx+rax+32], -1887436800	; ffffffff8f800000H
	jne	SHORT $LN20@match_phas

; 1631 :             if ( opnd2 & OP_YMM || opnd2 & OP_ZMM)

	mov	eax, DWORD PTR opnd2$[rsp]
	and	eax, 128				; 00000080H
	test	eax, eax
	jne	SHORT $LN22@match_phas
	mov	eax, DWORD PTR opnd2$[rsp]
	and	eax, 256				; 00000100H
	test	eax, eax
	je	SHORT $LN21@match_phas
$LN22@match_phas:

; 1632 :                 opnd2 |= OP_XMM;

	mov	eax, DWORD PTR opnd2$[rsp]
	or	eax, 32					; 00000020H
	mov	DWORD PTR opnd2$[rsp], eax
$LN21@match_phas:
$LN20@match_phas:
$LN11@match_phas:
$LN9@match_phas:
$LN4@match_phas:

; 1633 :         }
; 1634 : #endif
; 1635 :     }
; 1636 : #endif
; 1637 :     do  {
; 1638 :         tbl_op2 = opnd_clstab[CodeInfo->pinstr->opclsidx].opnd_type[OPND2];

	mov	rax, QWORD PTR CodeInfo$[rsp]
	mov	rax, QWORD PTR [rax+16]
	movzx	eax, BYTE PTR [rax]
	imul	rax, rax, 12
	lea	rcx, OFFSET FLAT:opnd_clstab
	add	rcx, rax
	mov	rax, rcx
	mov	ecx, 4
	imul	rcx, rcx, 1
	mov	eax, DWORD PTR [rax+rcx]
	mov	DWORD PTR tbl_op2$[rsp], eax

; 1639 :         DebugMsg1(("match_phase_3: instr table op2=%" I32_SPEC "X\n", tbl_op2 ));

	mov	edx, DWORD PTR tbl_op2$[rsp]
	lea	rcx, OFFSET FLAT:$SG11349
	call	DoDebugMsg1

; 1640 :         switch( tbl_op2 ) {

	mov	eax, DWORD PTR tbl_op2$[rsp]
	mov	DWORD PTR tv171[rsp], eax
	cmp	DWORD PTR tv171[rsp], 131072		; 00020000H
	je	$LN45@match_phas
	cmp	DWORD PTR tv171[rsp], 917504		; 000e0000H
	je	SHORT $LN23@match_phas
	cmp	DWORD PTR tv171[rsp], 4325376		; 00420000H
	je	$LN54@match_phas
	cmp	DWORD PTR tv171[rsp], 5111808		; 004e0000H
	je	$LN38@match_phas
	jmp	$LN57@match_phas
$LN23@match_phas:

; 1641 :         case OP_I: /* arith, MOV, IMUL, TEST */
; 1642 :             if( opnd2 & tbl_op2 ) {

	mov	eax, DWORD PTR tbl_op2$[rsp]
	mov	ecx, DWORD PTR opnd2$[rsp]
	and	ecx, eax
	mov	eax, ecx
	test	eax, eax
	je	$LN24@match_phas

; 1643 :                 DebugMsg1(("match_phase_3: matched OP_I\n"));

	lea	rcx, OFFSET FLAT:$SG11352
	call	DoDebugMsg1

; 1644 :                 /* This branch exits with either ERROR or NOT_ERROR.
; 1645 :                  * So it can modify the CodeInfo fields without harm.
; 1646 :                  */
; 1647 :                 if( opnd1 & OP_R8 ) {

	mov	eax, DWORD PTR opnd1$[rsp]
	and	eax, 1
	test	eax, eax
	je	SHORT $LN25@match_phas

; 1648 :                     /* 8-bit register, so output 8-bit data */
; 1649 :                     /* v2.04: the check has already happened in check_size() or idata_xxx() */
; 1650 :                     //if( Parse_Pass == PASS_1 && !InRange( operand, 1 ) ) {
; 1651 :                     //    DebugMsg(("imm const too large (08): %X\n", operand));
; 1652 :                     //    EmitWarn( 1, IMMEDIATE_CONSTANT_TOO_LARGE );
; 1653 :                     //}
; 1654 :                     CodeInfo->prefix.opsiz = FALSE;

	mov	rax, QWORD PTR CodeInfo$[rsp]
	movzx	eax, BYTE PTR [rax+9]
	and	al, 253					; 000000fdH
	mov	rcx, QWORD PTR CodeInfo$[rsp]
	mov	BYTE PTR [rcx+9], al

; 1655 :                     opnd2 = OP_I8;

	mov	DWORD PTR opnd2$[rsp], 131072		; 00020000H

; 1656 :                     if( CodeInfo->opnd[OPND2].InsFixup != NULL ) {

	mov	eax, 24
	imul	rax, rax, 1
	mov	rcx, QWORD PTR CodeInfo$[rsp]
	cmp	QWORD PTR [rcx+rax+48], 0
	je	SHORT $LN27@match_phas

; 1657 :                     /* v1.96: make sure FIX_HIBYTE isn't overwritten! */
; 1658 :                         if ( CodeInfo->opnd[OPND2].InsFixup->type != FIX_HIBYTE )

	mov	eax, 24
	imul	rax, rax, 1
	mov	rcx, QWORD PTR CodeInfo$[rsp]
	mov	rax, QWORD PTR [rcx+rax+48]
	cmp	DWORD PTR [rax+24], 11
	je	SHORT $LN28@match_phas

; 1659 :                             CodeInfo->opnd[OPND2].InsFixup->type = FIX_OFF8;

	mov	eax, 24
	imul	rax, rax, 1
	mov	rcx, QWORD PTR CodeInfo$[rsp]
	mov	rax, QWORD PTR [rcx+rax+48]
	mov	DWORD PTR [rax+24], 4
$LN28@match_phas:
$LN27@match_phas:

; 1660 :                     }

	jmp	$LN26@match_phas
$LN25@match_phas:

; 1661 :                 } else if( opnd1 & OP_R16 ) {

	mov	eax, DWORD PTR opnd1$[rsp]
	and	eax, 2
	test	eax, eax
	je	SHORT $LN29@match_phas

; 1662 :                     /* v2.04: the check has already happened in check_size() or idata_xxx() */
; 1663 :                     //if( Parse_Pass == PASS_1 && !InRange( operand, 2 ) ) {
; 1664 :                     //    DebugMsg(("imm const too large (16): %X\n", operand));
; 1665 :                     //    EmitWarn( 1, IMMEDIATE_CONSTANT_TOO_LARGE );
; 1666 :                     //}
; 1667 :                     /* 16-bit register, so output 16-bit data */
; 1668 :                     opnd2 = OP_I16;

	mov	DWORD PTR opnd2$[rsp], 262144		; 00040000H
	jmp	$LN30@match_phas
$LN29@match_phas:

; 1669 : #if AMD64_SUPPORT
; 1670 :                 } else if( opnd1 & (OP_R32 | OP_R64 ) ) {

	mov	eax, DWORD PTR opnd1$[rsp]
	and	eax, 12
	test	eax, eax
	je	SHORT $LN31@match_phas

; 1671 : #else
; 1672 :                 } else if( opnd1 & OP_R32 ) {
; 1673 : #endif
; 1674 :                     /* 32- or 64-bit register, so output 32-bit data */
; 1675 :                     CodeInfo->prefix.opsiz = CodeInfo->Ofssize ? 0 : 1;/* 12-feb-92 */

	mov	rax, QWORD PTR CodeInfo$[rsp]
	movzx	eax, BYTE PTR [rax+106]
	test	eax, eax
	je	SHORT $LN70@match_phas
	mov	DWORD PTR tv204[rsp], 0
	jmp	SHORT $LN71@match_phas
$LN70@match_phas:
	mov	DWORD PTR tv204[rsp], 1
$LN71@match_phas:
	movzx	eax, BYTE PTR tv204[rsp]
	and	al, 1
	shl	al, 1
	mov	rcx, QWORD PTR CodeInfo$[rsp]
	movzx	ecx, BYTE PTR [rcx+9]
	and	cl, 253					; 000000fdH
	or	cl, al
	movzx	eax, cl
	mov	rcx, QWORD PTR CodeInfo$[rsp]
	mov	BYTE PTR [rcx+9], al

; 1676 :                     opnd2 = OP_I32;

	mov	DWORD PTR opnd2$[rsp], 524288		; 00080000H
	jmp	$LN32@match_phas
$LN31@match_phas:

; 1677 :                 } else if( opnd1 & OP_M ) {

	mov	eax, DWORD PTR opnd1$[rsp]
	and	eax, -1887436800			; ffffffff8f800000H
	test	eax, eax
	je	$LN33@match_phas

; 1678 :                     /* there is no reason this should be only for T_MOV */
; 1679 :                     switch( OperandSize( opnd1, CodeInfo ) ) {

	mov	rdx, QWORD PTR CodeInfo$[rsp]
	mov	ecx, DWORD PTR opnd1$[rsp]
	call	OperandSize
	mov	DWORD PTR tv216[rsp], eax
	cmp	DWORD PTR tv216[rsp], 1
	je	SHORT $LN34@match_phas
	cmp	DWORD PTR tv216[rsp], 2
	je	SHORT $LN35@match_phas
	cmp	DWORD PTR tv216[rsp], 4
	je	SHORT $LN36@match_phas
	cmp	DWORD PTR tv216[rsp], 8
	je	SHORT $LN36@match_phas
	jmp	$LN37@match_phas
$LN34@match_phas:

; 1680 :                     case 1:
; 1681 :                         opnd2 = OP_I8;

	mov	DWORD PTR opnd2$[rsp], 131072		; 00020000H

; 1682 :                         CodeInfo->prefix.opsiz = FALSE;

	mov	rax, QWORD PTR CodeInfo$[rsp]
	movzx	eax, BYTE PTR [rax+9]
	and	al, 253					; 000000fdH
	mov	rcx, QWORD PTR CodeInfo$[rsp]
	mov	BYTE PTR [rcx+9], al

; 1683 :                         break;

	jmp	$LN7@match_phas
$LN35@match_phas:

; 1684 :                     case 2:
; 1685 :                         opnd2 = OP_I16;

	mov	DWORD PTR opnd2$[rsp], 262144		; 00040000H

; 1686 :                         CodeInfo->prefix.opsiz = CodeInfo->Ofssize ? 1 : 0;

	mov	rax, QWORD PTR CodeInfo$[rsp]
	movzx	eax, BYTE PTR [rax+106]
	test	eax, eax
	je	SHORT $LN72@match_phas
	mov	DWORD PTR tv224[rsp], 1
	jmp	SHORT $LN73@match_phas
$LN72@match_phas:
	mov	DWORD PTR tv224[rsp], 0
$LN73@match_phas:
	movzx	eax, BYTE PTR tv224[rsp]
	and	al, 1
	shl	al, 1
	mov	rcx, QWORD PTR CodeInfo$[rsp]
	movzx	ecx, BYTE PTR [rcx+9]
	and	cl, 253					; 000000fdH
	or	cl, al
	movzx	eax, cl
	mov	rcx, QWORD PTR CodeInfo$[rsp]
	mov	BYTE PTR [rcx+9], al

; 1687 :                         break;

	jmp	SHORT $LN7@match_phas
$LN36@match_phas:

; 1688 : #if AMD64_SUPPORT
; 1689 :                         /* mov [mem], imm64 doesn't exist. It's ensured that
; 1690 :                          * immediate data is 32bit only
; 1691 :                          */
; 1692 :                     case 8:
; 1693 : #endif
; 1694 :                     case 4:
; 1695 :                         opnd2 = OP_I32;

	mov	DWORD PTR opnd2$[rsp], 524288		; 00080000H

; 1696 :                         CodeInfo->prefix.opsiz = CodeInfo->Ofssize ? 0 : 1;

	mov	rax, QWORD PTR CodeInfo$[rsp]
	movzx	eax, BYTE PTR [rax+106]
	test	eax, eax
	je	SHORT $LN74@match_phas
	mov	DWORD PTR tv235[rsp], 0
	jmp	SHORT $LN75@match_phas
$LN74@match_phas:
	mov	DWORD PTR tv235[rsp], 1
$LN75@match_phas:
	movzx	eax, BYTE PTR tv235[rsp]
	and	al, 1
	shl	al, 1
	mov	rcx, QWORD PTR CodeInfo$[rsp]
	movzx	ecx, BYTE PTR [rcx+9]
	and	cl, 253					; 000000fdH
	or	cl, al
	movzx	eax, cl
	mov	rcx, QWORD PTR CodeInfo$[rsp]
	mov	BYTE PTR [rcx+9], al

; 1697 :                         break;

	jmp	SHORT $LN7@match_phas
$LN37@match_phas:

; 1698 :                     default:
; 1699 :                         EmitError( INVALID_COMBINATION_OF_OPCODE_AND_OPERANDS );

	mov	ecx, 14
	call	EmitError
$LN7@match_phas:
$LN33@match_phas:
$LN32@match_phas:
$LN30@match_phas:
$LN26@match_phas:

; 1700 :                         //return( ERROR ); /* v2.06: don't exit */
; 1701 :                     }
; 1702 :                 }
; 1703 :                 output_opc( CodeInfo );

	mov	rcx, QWORD PTR CodeInfo$[rsp]
	call	output_opc

; 1704 :                 output_data( CodeInfo, opnd1, OPND1 );

	xor	r8d, r8d
	mov	edx, DWORD PTR opnd1$[rsp]
	mov	rcx, QWORD PTR CodeInfo$[rsp]
	call	output_data

; 1705 :                 output_data( CodeInfo, opnd2, OPND2 );

	mov	r8d, 1
	mov	edx, DWORD PTR opnd2$[rsp]
	mov	rcx, QWORD PTR CodeInfo$[rsp]
	call	output_data

; 1706 :                 return( NOT_ERROR );

	xor	eax, eax
	jmp	$LN1@match_phas
$LN24@match_phas:

; 1707 :             }
; 1708 :             break;

	jmp	$LN5@match_phas
$LN38@match_phas:

; 1709 :         case OP_I8_U: /* shift+rotate, ENTER, BTx, IN, PSxx[D|Q|W] */
; 1710 :             if( opnd2 & tbl_op2 ) {

	mov	eax, DWORD PTR tbl_op2$[rsp]
	mov	ecx, DWORD PTR opnd2$[rsp]
	and	ecx, eax
	mov	eax, ecx
	test	eax, eax
	je	$LN39@match_phas

; 1711 :                 DebugMsg1(("match_phase_3: matched OP_I8_U\n"));

	lea	rcx, OFFSET FLAT:$SG11368
	call	DoDebugMsg1

; 1712 :                 if ( CodeInfo->const_size_fixed && opnd2 != OP_I8 )

	mov	rax, QWORD PTR CodeInfo$[rsp]
	movzx	eax, BYTE PTR [rax+142]
	shr	al, 3
	and	al, 1
	movzx	eax, al
	test	eax, eax
	je	SHORT $LN40@match_phas
	cmp	DWORD PTR opnd2$[rsp], 131072		; 00020000H
	je	SHORT $LN40@match_phas

; 1713 :                     break;

	jmp	$LN5@match_phas
$LN40@match_phas:

; 1714 :                 /* v2.03: lower bound wasn't checked */
; 1715 :                 /* range of unsigned 8-bit is -128 - +255 */
; 1716 :                 if( CodeInfo->opnd[OPND2].data32l <= UCHAR_MAX && CodeInfo->opnd[OPND2].data32l >= SCHAR_MIN ) {

	mov	eax, 24
	imul	rax, rax, 1
	mov	rcx, QWORD PTR CodeInfo$[rsp]
	cmp	DWORD PTR [rcx+rax+40], 255		; 000000ffH
	jg	$LN41@match_phas
	mov	eax, 24
	imul	rax, rax, 1
	mov	rcx, QWORD PTR CodeInfo$[rsp]
	cmp	DWORD PTR [rcx+rax+40], -128		; ffffffffffffff80H
	jl	$LN41@match_phas

; 1717 :                     /* v2.06: if there's an external, adjust the fixup if it is > 8-bit */
; 1718 :                     if ( CodeInfo->opnd[OPND2].InsFixup != NULL ) {

	mov	eax, 24
	imul	rax, rax, 1
	mov	rcx, QWORD PTR CodeInfo$[rsp]
	cmp	QWORD PTR [rcx+rax+48], 0
	je	SHORT $LN42@match_phas

; 1719 :                         if ( CodeInfo->opnd[OPND2].InsFixup->type == FIX_OFF16 ||

	mov	eax, 24
	imul	rax, rax, 1
	mov	rcx, QWORD PTR CodeInfo$[rsp]
	mov	rax, QWORD PTR [rcx+rax+48]
	cmp	DWORD PTR [rax+24], 5
	je	SHORT $LN44@match_phas
	mov	eax, 24
	imul	rax, rax, 1
	mov	rcx, QWORD PTR CodeInfo$[rsp]
	mov	rax, QWORD PTR [rcx+rax+48]
	cmp	DWORD PTR [rax+24], 6
	jne	SHORT $LN43@match_phas
$LN44@match_phas:

; 1720 :                             CodeInfo->opnd[OPND2].InsFixup->type == FIX_OFF32 )
; 1721 :                             CodeInfo->opnd[OPND2].InsFixup->type = FIX_OFF8;

	mov	eax, 24
	imul	rax, rax, 1
	mov	rcx, QWORD PTR CodeInfo$[rsp]
	mov	rax, QWORD PTR [rcx+rax+48]
	mov	DWORD PTR [rax+24], 4
$LN43@match_phas:
$LN42@match_phas:

; 1722 :                     }
; 1723 :                     /* the SSE4A EXTRQ instruction will need this! */
; 1724 :                     //if( check_3rd_operand( CodeInfo ) == ERROR )
; 1725 :                     //  break;
; 1726 :                     output_opc( CodeInfo );

	mov	rcx, QWORD PTR CodeInfo$[rsp]
	call	output_opc

; 1727 :                     output_data( CodeInfo, opnd1, OPND1 );

	xor	r8d, r8d
	mov	edx, DWORD PTR opnd1$[rsp]
	mov	rcx, QWORD PTR CodeInfo$[rsp]
	call	output_data

; 1728 :                     output_data( CodeInfo, OP_I8, OPND2 );

	mov	r8d, 1
	mov	edx, 131072				; 00020000H
	mov	rcx, QWORD PTR CodeInfo$[rsp]
	call	output_data

; 1729 :                     //if( CodeInfo->pinstr->opnd_type_3rd != OP3_NONE )
; 1730 :                     //output_3rd_operand( CodeInfo );
; 1731 :                     return( NOT_ERROR );

	xor	eax, eax
	jmp	$LN1@match_phas
$LN41@match_phas:
$LN39@match_phas:

; 1732 :                 }
; 1733 :             }
; 1734 :             break;

	jmp	$LN5@match_phas
$LN45@match_phas:

; 1735 :         case OP_I8: /* arith, IMUL */
; 1736 :             /* v2.06: this case has been rewritten */
; 1737 : 
; 1738 :             /* v2.04: added */
; 1739 :             if( ModuleInfo.NoSignExtend &&

	mov	eax, DWORD PTR ModuleInfo+408
	shr	eax, 18
	and	eax, 1
	test	eax, eax
	je	SHORT $LN46@match_phas
	mov	rax, QWORD PTR CodeInfo$[rsp]
	cmp	DWORD PTR [rax+24], 504			; 000001f8H
	je	SHORT $LN47@match_phas
	mov	rax, QWORD PTR CodeInfo$[rsp]
	cmp	DWORD PTR [rax+24], 501			; 000001f5H
	je	SHORT $LN47@match_phas
	mov	rax, QWORD PTR CodeInfo$[rsp]
	cmp	DWORD PTR [rax+24], 506			; 000001faH
	jne	SHORT $LN46@match_phas
$LN47@match_phas:

; 1740 :                ( CodeInfo->token == T_AND ||
; 1741 :                 CodeInfo->token == T_OR ||
; 1742 :                 CodeInfo->token == T_XOR ) )
; 1743 :                 break;

	jmp	$LN5@match_phas
$LN46@match_phas:

; 1744 : 
; 1745 :             /* v2.11: skip externals - but don't skip undefines; forward8.asm */
; 1746 :             //if ( CodeInfo->opnd[OPND2].InsFixup != NULL ) /* external? then skip */
; 1747 :             if ( CodeInfo->opnd[OPND2].InsFixup != NULL && CodeInfo->opnd[OPND2].InsFixup->sym->state != SYM_UNDEFINED ) /* external? then skip */

	mov	eax, 24
	imul	rax, rax, 1
	mov	rcx, QWORD PTR CodeInfo$[rsp]
	cmp	QWORD PTR [rcx+rax+48], 0
	je	SHORT $LN48@match_phas
	mov	eax, 24
	imul	rax, rax, 1
	mov	rcx, QWORD PTR CodeInfo$[rsp]
	mov	rax, QWORD PTR [rcx+rax+48]
	mov	rax, QWORD PTR [rax+56]
	cmp	DWORD PTR [rax+32], 0
	je	SHORT $LN48@match_phas

; 1748 :                 break;

	jmp	$LN5@match_phas
$LN48@match_phas:

; 1749 : 
; 1750 :             if ( CodeInfo->const_size_fixed == FALSE )

	mov	rax, QWORD PTR CodeInfo$[rsp]
	movzx	eax, BYTE PTR [rax+142]
	shr	al, 3
	and	al, 1
	movzx	eax, al
	test	eax, eax
	jne	$LN49@match_phas

; 1751 :                 if ( ( opnd1 & ( OP_R16 | OP_M16 ) ) && (int_8)CodeInfo->opnd[OPND2].data32l == (int_16)CodeInfo->opnd[OPND2].data32l )

	mov	eax, DWORD PTR opnd1$[rsp]
	and	eax, 16777218				; 01000002H
	test	eax, eax
	je	SHORT $LN50@match_phas
	mov	eax, 24
	imul	rax, rax, 1
	mov	rcx, QWORD PTR CodeInfo$[rsp]
	movsx	eax, BYTE PTR [rcx+rax+40]
	mov	ecx, 24
	imul	rcx, rcx, 1
	mov	rdx, QWORD PTR CodeInfo$[rsp]
	movsx	ecx, WORD PTR [rdx+rcx+40]
	cmp	eax, ecx
	jne	SHORT $LN50@match_phas

; 1752 :                     tbl_op2 |= OP_I16;

	mov	eax, DWORD PTR tbl_op2$[rsp]
	bts	eax, 18
	mov	DWORD PTR tbl_op2$[rsp], eax
	jmp	SHORT $LN51@match_phas
$LN50@match_phas:

; 1753 :                 else if ( ( opnd1 & ( OP_RGT16 | OP_MGT16 ) ) && (int_8)CodeInfo->opnd[OPND2].data32l == (int_32)CodeInfo->opnd[OPND2].data32l )

	mov	eax, DWORD PTR opnd1$[rsp]
	and	eax, 100663308				; 0600000cH
	test	eax, eax
	je	SHORT $LN52@match_phas
	mov	eax, 24
	imul	rax, rax, 1
	mov	rcx, QWORD PTR CodeInfo$[rsp]
	movsx	eax, BYTE PTR [rcx+rax+40]
	mov	ecx, 24
	imul	rcx, rcx, 1
	mov	rdx, QWORD PTR CodeInfo$[rsp]
	cmp	eax, DWORD PTR [rdx+rcx+40]
	jne	SHORT $LN52@match_phas

; 1754 :                     tbl_op2 |= OP_I32;

	mov	eax, DWORD PTR tbl_op2$[rsp]
	bts	eax, 19
	mov	DWORD PTR tbl_op2$[rsp], eax
$LN52@match_phas:
$LN51@match_phas:
$LN49@match_phas:

; 1755 : 
; 1756 :             if( opnd2 & tbl_op2 ) {

	mov	eax, DWORD PTR tbl_op2$[rsp]
	mov	ecx, DWORD PTR opnd2$[rsp]
	and	ecx, eax
	mov	eax, ecx
	test	eax, eax
	je	SHORT $LN53@match_phas

; 1757 :                 DebugMsg1(("match_phase_3: matched OP_I8\n"));

	lea	rcx, OFFSET FLAT:$SG11383
	call	DoDebugMsg1

; 1758 :                 output_opc( CodeInfo );

	mov	rcx, QWORD PTR CodeInfo$[rsp]
	call	output_opc

; 1759 :                 output_data( CodeInfo, opnd1, OPND1 );

	xor	r8d, r8d
	mov	edx, DWORD PTR opnd1$[rsp]
	mov	rcx, QWORD PTR CodeInfo$[rsp]
	call	output_data

; 1760 :                 output_data( CodeInfo, OP_I8, OPND2 );

	mov	r8d, 1
	mov	edx, 131072				; 00020000H
	mov	rcx, QWORD PTR CodeInfo$[rsp]
	call	output_data

; 1761 :                 return( NOT_ERROR );

	xor	eax, eax
	jmp	$LN1@match_phas
$LN53@match_phas:

; 1762 :             }
; 1763 :             break;

	jmp	$LN5@match_phas
$LN54@match_phas:

; 1764 :         case OP_I_1: /* shift ops */
; 1765 :             if( opnd2 & tbl_op2 ) {

	mov	eax, DWORD PTR tbl_op2$[rsp]
	mov	ecx, DWORD PTR opnd2$[rsp]
	and	ecx, eax
	mov	eax, ecx
	test	eax, eax
	je	SHORT $LN55@match_phas

; 1766 :                if ( CodeInfo->opnd[OPND2].data32l == 1 ) {

	mov	eax, 24
	imul	rax, rax, 1
	mov	rcx, QWORD PTR CodeInfo$[rsp]
	cmp	DWORD PTR [rcx+rax+40], 1
	jne	SHORT $LN56@match_phas

; 1767 :                    DebugMsg1(("match_phase_3: matched OP_I_1\n"));

	lea	rcx, OFFSET FLAT:$SG11387
	call	DoDebugMsg1

; 1768 :                    output_opc( CodeInfo );

	mov	rcx, QWORD PTR CodeInfo$[rsp]
	call	output_opc

; 1769 :                    output_data( CodeInfo, opnd1, OPND1 );

	xor	r8d, r8d
	mov	edx, DWORD PTR opnd1$[rsp]
	mov	rcx, QWORD PTR CodeInfo$[rsp]
	call	output_data

; 1770 :                    /* the immediate is "implicite" */
; 1771 :                    return( NOT_ERROR );

	xor	eax, eax
	jmp	$LN1@match_phas
$LN56@match_phas:
$LN55@match_phas:

; 1772 :                }
; 1773 :             }
; 1774 :             break;

	jmp	$LN5@match_phas
$LN57@match_phas:

; 1775 :         default:
; 1776 :             /* v2.06: condition made more restrictive */
; 1777 :             if (CodeInfo->token < T_VBROADCASTSS)(CodeInfo->evex_flag = 0);

	mov	rax, QWORD PTR CodeInfo$[rsp]
	cmp	DWORD PTR [rax+24], 1291		; 0000050bH
	jge	SHORT $LN58@match_phas
	mov	rax, QWORD PTR CodeInfo$[rsp]
	mov	BYTE PTR [rax+136], 0
$LN58@match_phas:

; 1778 :             //if( ( opnd2 & tbl_op2 ) || (CodeInfo->mem_type == MT_EMPTY && (opnd2 & OP_M_ANY) && (tbl_op2 & OP_M_ANY) )) {
; 1779 :               if ((opnd2 & tbl_op2) || ((CodeInfo->evex_flag)&&(CodeInfo->token < T_VPBROADCASTB) || (CodeInfo->token > T_VPBROADCASTQ))) {     // 

	mov	eax, DWORD PTR tbl_op2$[rsp]
	mov	ecx, DWORD PTR opnd2$[rsp]
	and	ecx, eax
	mov	eax, ecx
	test	eax, eax
	jne	SHORT $LN60@match_phas
	mov	rax, QWORD PTR CodeInfo$[rsp]
	movzx	eax, BYTE PTR [rax+136]
	test	eax, eax
	je	SHORT $LN62@match_phas
	mov	rax, QWORD PTR CodeInfo$[rsp]
	cmp	DWORD PTR [rax+24], 1294		; 0000050eH
	jl	SHORT $LN61@match_phas
$LN62@match_phas:
	mov	rax, QWORD PTR CodeInfo$[rsp]
	cmp	DWORD PTR [rax+24], 1297		; 00000511H
	jle	$LN59@match_phas
$LN61@match_phas:
$LN60@match_phas:

; 1780 :                 if( check_3rd_operand( CodeInfo ) == ERROR )

	mov	rcx, QWORD PTR CodeInfo$[rsp]
	call	check_3rd_operand
	cmp	eax, -1
	jne	SHORT $LN63@match_phas

; 1781 :                     break;

	jmp	$LN5@match_phas
$LN63@match_phas:

; 1782 :                 DebugMsg1(("match_phase_3: matched opnd2\n" ));

	lea	rcx, OFFSET FLAT:$SG11395
	call	DoDebugMsg1

; 1783 :                 output_opc( CodeInfo );

	mov	rcx, QWORD PTR CodeInfo$[rsp]
	call	output_opc

; 1784 :                 if ( opnd1 & (OP_I_ANY | OP_M_ANY ) )

	mov	eax, DWORD PTR opnd1$[rsp]
	and	eax, -4325376				; ffffffffffbe0000H
	test	eax, eax
	je	SHORT $LN64@match_phas

; 1785 :                     output_data( CodeInfo, opnd1, OPND1 );

	xor	r8d, r8d
	mov	edx, DWORD PTR opnd1$[rsp]
	mov	rcx, QWORD PTR CodeInfo$[rsp]
	call	output_data
$LN64@match_phas:

; 1786 :                 if ( opnd2 & (OP_I_ANY | OP_M_ANY ) )

	mov	eax, DWORD PTR opnd2$[rsp]
	and	eax, -4325376				; ffffffffffbe0000H
	test	eax, eax
	je	SHORT $LN65@match_phas

; 1787 :                     output_data( CodeInfo, opnd2, OPND2 );

	mov	r8d, 1
	mov	edx, DWORD PTR opnd2$[rsp]
	mov	rcx, QWORD PTR CodeInfo$[rsp]
	call	output_data
$LN65@match_phas:

; 1788 :                 //if( CodeInfo->pinstr->opnd_type_3rd != OP3_NONE )
; 1789 :                 if( opnd_clstab[CodeInfo->pinstr->opclsidx].opnd_type_3rd != OP3_NONE )

	mov	rax, QWORD PTR CodeInfo$[rsp]
	mov	rax, QWORD PTR [rax+16]
	movzx	eax, BYTE PTR [rax]
	imul	rax, rax, 12
	lea	rcx, OFFSET FLAT:opnd_clstab
	movzx	eax, BYTE PTR [rcx+rax+8]
	test	eax, eax
	je	SHORT $LN66@match_phas

; 1790 :                     output_3rd_operand( CodeInfo );

	mov	rcx, QWORD PTR CodeInfo$[rsp]
	call	output_3rd_operand
$LN66@match_phas:

; 1791 :                 if( CodeInfo->pinstr->byte1_info == F_0F0F ) /* output 3dNow opcode? */

	mov	rax, QWORD PTR CodeInfo$[rsp]
	mov	rax, QWORD PTR [rax+16]
	movzx	eax, BYTE PTR [rax+1]
	cmp	eax, 17
	jne	SHORT $LN67@match_phas

; 1792 :                     OutputCodeByte( CodeInfo->pinstr->opcode | CodeInfo->iswide );

	mov	rax, QWORD PTR CodeInfo$[rsp]
	mov	rax, QWORD PTR [rax+16]
	movzx	eax, BYTE PTR [rax+12]
	mov	rcx, QWORD PTR CodeInfo$[rsp]
	movzx	ecx, BYTE PTR [rcx+142]
	and	cl, 1
	movzx	ecx, cl
	or	eax, ecx
	movzx	ecx, al
	call	OutputByte
$LN67@match_phas:

; 1793 :                 return( NOT_ERROR );

	xor	eax, eax
	jmp	$LN1@match_phas
$LN59@match_phas:
$LN5@match_phas:

; 1794 :             }
; 1795 :             break;
; 1796 :         }
; 1797 :         CodeInfo->pinstr++;

	mov	rax, QWORD PTR CodeInfo$[rsp]
	mov	rax, QWORD PTR [rax+16]
	add	rax, 14
	mov	rcx, QWORD PTR CodeInfo$[rsp]
	mov	QWORD PTR [rcx+16], rax

; 1798 :     } while ( opnd_clstab[CodeInfo->pinstr->opclsidx].opnd_type[OPND1] == determinant && CodeInfo->pinstr->first == FALSE );

	mov	rax, QWORD PTR CodeInfo$[rsp]
	mov	rax, QWORD PTR [rax+16]
	movzx	eax, BYTE PTR [rax]
	imul	rax, rax, 12
	lea	rcx, OFFSET FLAT:opnd_clstab
	add	rcx, rax
	mov	rax, rcx
	mov	ecx, 4
	imul	rcx, rcx, 0
	mov	edx, DWORD PTR determinant$[rsp]
	cmp	DWORD PTR [rax+rcx], edx
	jne	SHORT $LN68@match_phas
	mov	rax, QWORD PTR CodeInfo$[rsp]
	mov	rax, QWORD PTR [rax+16]
	movzx	eax, BYTE PTR [rax+4]
	test	eax, eax
	je	$LN4@match_phas
$LN68@match_phas:

; 1799 :     CodeInfo->pinstr--; /* pointer will be increased in codegen() */

	mov	rax, QWORD PTR CodeInfo$[rsp]
	mov	rax, QWORD PTR [rax+16]
	sub	rax, 14
	mov	rcx, QWORD PTR CodeInfo$[rsp]
	mov	QWORD PTR [rcx+16], rax

; 1800 :     DebugMsg(("match_phase_3: returns EMPTY\n"));

	lea	rcx, OFFSET FLAT:$SG11401
	call	DoDebugMsg

; 1801 :     return( ERROR );

	mov	eax, -1
$LN1@match_phas:

; 1802 : }

	add	rsp, 64					; 00000040H
	pop	rdi
	ret	0
match_phase_3 ENDP
_TEXT	ENDS
; Function compile flags: /Odtp /RTCsu
; File d:\hjwasm\hjwasm2.13.1s\hjwasm2.13.1s\codegen.c
_TEXT	SEGMENT
CodeInfo$ = 48
output_3rd_operand PROC

; 1508 : {

	mov	QWORD PTR [rsp+8], rcx
	push	rdi
	sub	rsp, 32					; 00000020H
	mov	rdi, rsp
	mov	ecx, 8
	mov	eax, -858993460				; ccccccccH
	rep stosd
	mov	rcx, QWORD PTR [rsp+48]

; 1509 :     if( opnd_clstab[CodeInfo->pinstr->opclsidx].opnd_type_3rd == OP3_I8_U ) {

	mov	rax, QWORD PTR CodeInfo$[rsp]
	mov	rax, QWORD PTR [rax+16]
	movzx	eax, BYTE PTR [rax]
	imul	rax, rax, 12
	lea	rcx, OFFSET FLAT:opnd_clstab
	movzx	eax, BYTE PTR [rcx+rax+8]
	cmp	eax, 2
	jne	SHORT $LN2@output_3rd

; 1510 :         DebugMsg1(("output_3rd_operand, expected I8, op3=%" I32_SPEC "X\n", CodeInfo->opnd[OPND3].type ));

	mov	eax, 24
	imul	rax, rax, 2
	mov	rcx, QWORD PTR CodeInfo$[rsp]
	mov	edx, DWORD PTR [rcx+rax+32]
	lea	rcx, OFFSET FLAT:$SG11282
	call	DoDebugMsg1

; 1511 :         /* v2.06: the type has been checked already! */
; 1512 :         //if( CodeInfo->opnd_type[OPND3] & OP_I ) {
; 1513 :         output_data( CodeInfo, OP_I8, OPND3 );

	mov	r8d, 2
	mov	edx, 131072				; 00020000H
	mov	rcx, QWORD PTR CodeInfo$[rsp]
	call	output_data
	jmp	$LN3@output_3rd
$LN2@output_3rd:

; 1514 :         //} else {
; 1515 :         //    EmitError( INVALID_INSTRUCTION_OPERANDS );
; 1516 :         //    return;
; 1517 :         //}
; 1518 :     } else if( opnd_clstab[CodeInfo->pinstr->opclsidx].opnd_type_3rd == OP3_I ) {

	mov	rax, QWORD PTR CodeInfo$[rsp]
	mov	rax, QWORD PTR [rax+16]
	movzx	eax, BYTE PTR [rax]
	imul	rax, rax, 12
	lea	rcx, OFFSET FLAT:opnd_clstab
	movzx	eax, BYTE PTR [rcx+rax+8]
	cmp	eax, 4
	jne	SHORT $LN4@output_3rd

; 1519 :         output_data( CodeInfo, CodeInfo->opnd[OPND3].type, OPND3 );

	mov	eax, 24
	imul	rax, rax, 2
	mov	r8d, 2
	mov	rcx, QWORD PTR CodeInfo$[rsp]
	mov	edx, DWORD PTR [rcx+rax+32]
	mov	rcx, QWORD PTR CodeInfo$[rsp]
	call	output_data

; 1520 :     }

	jmp	$LN5@output_3rd
$LN4@output_3rd:

; 1521 :     else if (opnd_clstab[CodeInfo->pinstr->opclsidx].opnd_type_3rd == OP3_HID) {

	mov	rax, QWORD PTR CodeInfo$[rsp]
	mov	rax, QWORD PTR [rax+16]
	movzx	eax, BYTE PTR [rax]
	imul	rax, rax, 12
	lea	rcx, OFFSET FLAT:opnd_clstab
	movzx	eax, BYTE PTR [rcx+rax+8]
	cmp	eax, 5
	jne	$LN6@output_3rd

; 1522 :       DebugMsg1(("output_3rd_operand, expected OP3_HID, op3=%" I32_SPEC "X\n", CodeInfo->opnd[OPND3].type));

	mov	eax, 24
	imul	rax, rax, 2
	mov	rcx, QWORD PTR CodeInfo$[rsp]
	mov	edx, DWORD PTR [rcx+rax+32]
	lea	rcx, OFFSET FLAT:$SG11287
	call	DoDebugMsg1

; 1523 :       /* v2.06: to avoid having to add 3*8 operand categories there's a
; 1524 :        * hard-wired peculiarity for the "hidden" 3rd operand: it's calculated
; 1525 :        * directly from the instruction token. in instruct.h, CMPEQPD must
; 1526 :        * be first and the order of the following CMP entries must not be
; 1527 :        * changed.
; 1528 :        */
; 1529 :       //CodeInfo->data[OPND3] = opnd_clstab[CodeInfo->pinstr->opclsidx].opnd_type_3rd & ~OP3_HID;
; 1530 : #if AVXSUPP
; 1531 :       if (CodeInfo->token >= VEX_START){

	mov	rax, QWORD PTR CodeInfo$[rsp]
	cmp	DWORD PTR [rax+24], 1291		; 0000050bH
	jl	$LN8@output_3rd

; 1532 :         if (CodeInfo->token >= T_VCMPEQPD && CodeInfo->token <= T_VCMPTRUE_USSS){

	mov	rax, QWORD PTR CodeInfo$[rsp]
	cmp	DWORD PTR [rax+24], 1761		; 000006e1H
	jl	SHORT $LN10@output_3rd
	mov	rax, QWORD PTR CodeInfo$[rsp]
	cmp	DWORD PTR [rax+24], 1888		; 00000760H
	jg	SHORT $LN10@output_3rd

; 1533 :           CodeInfo->opnd[OPND3].InsFixup = NULL;

	mov	eax, 24
	imul	rax, rax, 2
	mov	rcx, QWORD PTR CodeInfo$[rsp]
	mov	QWORD PTR [rcx+rax+48], 0

; 1534 :           OutputCodeByte((CodeInfo->token - T_VCMPEQPD) & 0x1F);

	mov	rax, QWORD PTR CodeInfo$[rsp]
	mov	eax, DWORD PTR [rax+24]
	sub	eax, 1761				; 000006e1H
	and	eax, 31
	movzx	ecx, al
	call	OutputByte

; 1535 :           return;

	jmp	$LN1@output_3rd

; 1536 :         }

	jmp	$LN11@output_3rd
$LN10@output_3rd:

; 1537 :         else if (CodeInfo->token >= T_VPCMPEQD && CodeInfo->token <= T_VPCMPTRUED){

	mov	rax, QWORD PTR CodeInfo$[rsp]
	cmp	DWORD PTR [rax+24], 1454		; 000005aeH
	jl	SHORT $LN12@output_3rd
	mov	rax, QWORD PTR CodeInfo$[rsp]
	cmp	DWORD PTR [rax+24], 1461		; 000005b5H
	jg	SHORT $LN12@output_3rd

; 1538 :           CodeInfo->opnd[OPND3].InsFixup = NULL;

	mov	eax, 24
	imul	rax, rax, 2
	mov	rcx, QWORD PTR CodeInfo$[rsp]
	mov	QWORD PTR [rcx+rax+48], 0

; 1539 :           OutputCodeByte((CodeInfo->token - T_VPCMPEQD) & 0x07);

	mov	rax, QWORD PTR CodeInfo$[rsp]
	mov	eax, DWORD PTR [rax+24]
	sub	eax, 1454				; 000005aeH
	and	eax, 7
	movzx	ecx, al
	call	OutputByte

; 1540 :           return;

	jmp	$LN1@output_3rd

; 1541 :         }

	jmp	$LN13@output_3rd
$LN12@output_3rd:

; 1542 :         else if (CodeInfo->token >= T_VPCMPEQUD && CodeInfo->token <= T_VPCMPTRUEUD){

	mov	rax, QWORD PTR CodeInfo$[rsp]
	cmp	DWORD PTR [rax+24], 1462		; 000005b6H
	jl	SHORT $LN14@output_3rd
	mov	rax, QWORD PTR CodeInfo$[rsp]
	cmp	DWORD PTR [rax+24], 1469		; 000005bdH
	jg	SHORT $LN14@output_3rd

; 1543 :           CodeInfo->opnd[OPND3].InsFixup = NULL;

	mov	eax, 24
	imul	rax, rax, 2
	mov	rcx, QWORD PTR CodeInfo$[rsp]
	mov	QWORD PTR [rcx+rax+48], 0

; 1544 :           OutputCodeByte((CodeInfo->token - T_VPCMPEQUD) & 0x07);

	mov	rax, QWORD PTR CodeInfo$[rsp]
	mov	eax, DWORD PTR [rax+24]
	sub	eax, 1462				; 000005b6H
	and	eax, 7
	movzx	ecx, al
	call	OutputByte

; 1545 :           return;

	jmp	$LN1@output_3rd

; 1546 :         }

	jmp	$LN15@output_3rd
$LN14@output_3rd:

; 1547 :         else if (CodeInfo->token >= T_VPCMPEQQ && CodeInfo->token <= T_VPCMPTRUEQ){

	mov	rax, QWORD PTR CodeInfo$[rsp]
	cmp	DWORD PTR [rax+24], 1470		; 000005beH
	jl	SHORT $LN16@output_3rd
	mov	rax, QWORD PTR CodeInfo$[rsp]
	cmp	DWORD PTR [rax+24], 1477		; 000005c5H
	jg	SHORT $LN16@output_3rd

; 1548 :           CodeInfo->opnd[OPND3].InsFixup = NULL;

	mov	eax, 24
	imul	rax, rax, 2
	mov	rcx, QWORD PTR CodeInfo$[rsp]
	mov	QWORD PTR [rcx+rax+48], 0

; 1549 :           OutputCodeByte((CodeInfo->token - T_VPCMPEQQ) & 0x07);

	mov	rax, QWORD PTR CodeInfo$[rsp]
	mov	eax, DWORD PTR [rax+24]
	sub	eax, 1470				; 000005beH
	and	eax, 7
	movzx	ecx, al
	call	OutputByte

; 1550 :           return;

	jmp	$LN1@output_3rd

; 1551 :         }

	jmp	$LN17@output_3rd
$LN16@output_3rd:

; 1552 :         else if (CodeInfo->token >= T_VPCMPEQUQ && CodeInfo->token <= T_VPCMPTRUEUQ){

	mov	rax, QWORD PTR CodeInfo$[rsp]
	cmp	DWORD PTR [rax+24], 1478		; 000005c6H
	jl	SHORT $LN18@output_3rd
	mov	rax, QWORD PTR CodeInfo$[rsp]
	cmp	DWORD PTR [rax+24], 1485		; 000005cdH
	jg	SHORT $LN18@output_3rd

; 1553 :           CodeInfo->opnd[OPND3].InsFixup = NULL;

	mov	eax, 24
	imul	rax, rax, 2
	mov	rcx, QWORD PTR CodeInfo$[rsp]
	mov	QWORD PTR [rcx+rax+48], 0

; 1554 :           OutputCodeByte((CodeInfo->token - T_VPCMPEQUQ) & 0x07);

	mov	rax, QWORD PTR CodeInfo$[rsp]
	mov	eax, DWORD PTR [rax+24]
	sub	eax, 1478				; 000005c6H
	and	eax, 7
	movzx	ecx, al
	call	OutputByte

; 1555 :           return;

	jmp	$LN1@output_3rd

; 1556 :         }

	jmp	$LN19@output_3rd
$LN18@output_3rd:

; 1557 :         else if (CodeInfo->token >= T_VPCMPEQW && CodeInfo->token <= T_VPCMPTRUEW){

	mov	rax, QWORD PTR CodeInfo$[rsp]
	cmp	DWORD PTR [rax+24], 1486		; 000005ceH
	jl	SHORT $LN20@output_3rd
	mov	rax, QWORD PTR CodeInfo$[rsp]
	cmp	DWORD PTR [rax+24], 1493		; 000005d5H
	jg	SHORT $LN20@output_3rd

; 1558 :           CodeInfo->opnd[OPND3].InsFixup = NULL;

	mov	eax, 24
	imul	rax, rax, 2
	mov	rcx, QWORD PTR CodeInfo$[rsp]
	mov	QWORD PTR [rcx+rax+48], 0

; 1559 :           OutputCodeByte((CodeInfo->token - T_VPCMPEQW) & 0x07);

	mov	rax, QWORD PTR CodeInfo$[rsp]
	mov	eax, DWORD PTR [rax+24]
	sub	eax, 1486				; 000005ceH
	and	eax, 7
	movzx	ecx, al
	call	OutputByte

; 1560 :           return;

	jmp	$LN1@output_3rd

; 1561 :         }

	jmp	$LN21@output_3rd
$LN20@output_3rd:

; 1562 :         else if (CodeInfo->token >= T_VPCMPEQUW && CodeInfo->token <= T_VPCMPTRUEUW){

	mov	rax, QWORD PTR CodeInfo$[rsp]
	cmp	DWORD PTR [rax+24], 1494		; 000005d6H
	jl	SHORT $LN22@output_3rd
	mov	rax, QWORD PTR CodeInfo$[rsp]
	cmp	DWORD PTR [rax+24], 1501		; 000005ddH
	jg	SHORT $LN22@output_3rd

; 1563 :           CodeInfo->opnd[OPND3].InsFixup = NULL;

	mov	eax, 24
	imul	rax, rax, 2
	mov	rcx, QWORD PTR CodeInfo$[rsp]
	mov	QWORD PTR [rcx+rax+48], 0

; 1564 :           OutputCodeByte((CodeInfo->token - T_VPCMPEQUW) & 0x07);

	mov	rax, QWORD PTR CodeInfo$[rsp]
	mov	eax, DWORD PTR [rax+24]
	sub	eax, 1494				; 000005d6H
	and	eax, 7
	movzx	ecx, al
	call	OutputByte

; 1565 :           return;

	jmp	$LN1@output_3rd

; 1566 :         }

	jmp	$LN23@output_3rd
$LN22@output_3rd:

; 1567 :         else if (CodeInfo->token >= T_VPCMPEQB && CodeInfo->token <= T_VPCMPTRUEB){

	mov	rax, QWORD PTR CodeInfo$[rsp]
	cmp	DWORD PTR [rax+24], 1502		; 000005deH
	jl	SHORT $LN24@output_3rd
	mov	rax, QWORD PTR CodeInfo$[rsp]
	cmp	DWORD PTR [rax+24], 1509		; 000005e5H
	jg	SHORT $LN24@output_3rd

; 1568 :           CodeInfo->opnd[OPND3].InsFixup = NULL;

	mov	eax, 24
	imul	rax, rax, 2
	mov	rcx, QWORD PTR CodeInfo$[rsp]
	mov	QWORD PTR [rcx+rax+48], 0

; 1569 :           OutputCodeByte((CodeInfo->token - T_VPCMPEQB) & 0x07);

	mov	rax, QWORD PTR CodeInfo$[rsp]
	mov	eax, DWORD PTR [rax+24]
	sub	eax, 1502				; 000005deH
	and	eax, 7
	movzx	ecx, al
	call	OutputByte

; 1570 :           return;

	jmp	$LN1@output_3rd

; 1571 :         }

	jmp	SHORT $LN25@output_3rd
$LN24@output_3rd:

; 1572 :         else if (CodeInfo->token >= T_VPCMPEQUB && CodeInfo->token <= T_VPCMPTRUEUB){

	mov	rax, QWORD PTR CodeInfo$[rsp]
	cmp	DWORD PTR [rax+24], 1510		; 000005e6H
	jl	SHORT $LN26@output_3rd
	mov	rax, QWORD PTR CodeInfo$[rsp]
	cmp	DWORD PTR [rax+24], 1517		; 000005edH
	jg	SHORT $LN26@output_3rd

; 1573 :           CodeInfo->opnd[OPND3].InsFixup = NULL;

	mov	eax, 24
	imul	rax, rax, 2
	mov	rcx, QWORD PTR CodeInfo$[rsp]
	mov	QWORD PTR [rcx+rax+48], 0

; 1574 :           OutputCodeByte((CodeInfo->token - T_VPCMPEQUB) & 0x07);

	mov	rax, QWORD PTR CodeInfo$[rsp]
	mov	eax, DWORD PTR [rax+24]
	sub	eax, 1510				; 000005e6H
	and	eax, 7
	movzx	ecx, al
	call	OutputByte

; 1575 :           return;

	jmp	$LN1@output_3rd
$LN26@output_3rd:
$LN25@output_3rd:
$LN23@output_3rd:
$LN21@output_3rd:
$LN19@output_3rd:
$LN17@output_3rd:
$LN15@output_3rd:
$LN13@output_3rd:
$LN11@output_3rd:

; 1576 :       }
; 1577 :     }

	jmp	SHORT $LN9@output_3rd
$LN8@output_3rd:

; 1578 :     else
; 1579 : #endif
; 1580 :           CodeInfo->opnd[OPND3].data32l = ( CodeInfo->token - T_CMPEQPD ) % 8;

	mov	rax, QWORD PTR CodeInfo$[rsp]
	mov	eax, DWORD PTR [rax+24]
	sub	eax, 879				; 0000036fH
	cdq
	and	edx, 7
	add	eax, edx
	and	eax, 7
	sub	eax, edx
	mov	ecx, 24
	imul	rcx, rcx, 2
	mov	rdx, QWORD PTR CodeInfo$[rsp]
	mov	DWORD PTR [rdx+rcx+40], eax
$LN9@output_3rd:

; 1581 :           CodeInfo->opnd[OPND3].InsFixup = NULL;

	mov	eax, 24
	imul	rax, rax, 2
	mov	rcx, QWORD PTR CodeInfo$[rsp]
	mov	QWORD PTR [rcx+rax+48], 0

; 1582 :           output_data( CodeInfo, OP_I8, OPND3 );

	mov	r8d, 2
	mov	edx, 131072				; 00020000H
	mov	rcx, QWORD PTR CodeInfo$[rsp]
	call	output_data

; 1583 :     }

	jmp	$LN7@output_3rd
$LN6@output_3rd:

; 1584 : #if AVXSUPP
; 1585 :     else if( ((CodeInfo->token >= VEX_START) && (CodeInfo->token < T_VPGATHERDD)|| 
; 1586 :       (CodeInfo->token > T_VGATHERQPS))&&

	mov	rax, QWORD PTR CodeInfo$[rsp]
	cmp	DWORD PTR [rax+24], 1291		; 0000050bH
	jl	SHORT $LN29@output_3rd
	mov	rax, QWORD PTR CodeInfo$[rsp]
	cmp	DWORD PTR [rax+24], 1340		; 0000053cH
	jl	SHORT $LN28@output_3rd
$LN29@output_3rd:
	mov	rax, QWORD PTR CodeInfo$[rsp]
	cmp	DWORD PTR [rax+24], 1347		; 00000543H
	jle	SHORT $LN27@output_3rd
$LN28@output_3rd:
	mov	rax, QWORD PTR CodeInfo$[rsp]
	mov	rax, QWORD PTR [rax+16]
	movzx	eax, BYTE PTR [rax]
	imul	rax, rax, 12
	lea	rcx, OFFSET FLAT:opnd_clstab
	movzx	eax, BYTE PTR [rcx+rax+8]
	cmp	eax, 3
	jne	SHORT $LN27@output_3rd

; 1587 :        opnd_clstab[CodeInfo->pinstr->opclsidx].opnd_type_3rd == OP3_XMM0 ) {
; 1588 :         CodeInfo->opnd[OPND3].data32l = ( CodeInfo->opnd[OPND3].data32l << 4 );

	mov	eax, 24
	imul	rax, rax, 2
	mov	rcx, QWORD PTR CodeInfo$[rsp]
	mov	eax, DWORD PTR [rcx+rax+40]
	shl	eax, 4
	mov	ecx, 24
	imul	rcx, rcx, 2
	mov	rdx, QWORD PTR CodeInfo$[rsp]
	mov	DWORD PTR [rdx+rcx+40], eax

; 1589 :         if (CodeInfo->opnd[OPND3].type != OP_K)

	mov	eax, 24
	imul	rax, rax, 2
	mov	rcx, QWORD PTR CodeInfo$[rsp]
	cmp	DWORD PTR [rcx+rax+32], 64		; 00000040H
	je	SHORT $LN30@output_3rd

; 1590 :         output_data( CodeInfo, OP_I8, OPND3 );

	mov	r8d, 2
	mov	edx, 131072				; 00020000H
	mov	rcx, QWORD PTR CodeInfo$[rsp]
	call	output_data
$LN30@output_3rd:
$LN27@output_3rd:
$LN7@output_3rd:
$LN5@output_3rd:
$LN3@output_3rd:
$LN1@output_3rd:

; 1591 :     }
; 1592 : #endif
; 1593 :     return;
; 1594 : }

	add	rsp, 32					; 00000020H
	pop	rdi
	ret	0
output_3rd_operand ENDP
_TEXT	ENDS
; Function compile flags: /Odtp /RTCsu
; File d:\hjwasm\hjwasm2.13.1s\hjwasm2.13.1s\codegen.c
_TEXT	SEGMENT
tv85 = 32
tv139 = 36
CodeInfo$ = 64
check_3rd_operand PROC

; 1464 : {

	mov	QWORD PTR [rsp+8], rcx
	push	rdi
	sub	rsp, 48					; 00000030H
	mov	rdi, rsp
	mov	ecx, 12
	mov	eax, -858993460				; ccccccccH
	rep stosd
	mov	rcx, QWORD PTR [rsp+64]

; 1465 :     if( ( opnd_clstab[CodeInfo->pinstr->opclsidx].opnd_type_3rd == OP3_NONE ) ||

	mov	rax, QWORD PTR CodeInfo$[rsp]
	mov	rax, QWORD PTR [rax+16]
	movzx	eax, BYTE PTR [rax]
	imul	rax, rax, 12
	lea	rcx, OFFSET FLAT:opnd_clstab
	movzx	eax, BYTE PTR [rcx+rax+8]
	test	eax, eax
	je	SHORT $LN5@check_3rd_
	mov	rax, QWORD PTR CodeInfo$[rsp]
	mov	rax, QWORD PTR [rax+16]
	movzx	eax, BYTE PTR [rax]
	imul	rax, rax, 12
	lea	rcx, OFFSET FLAT:opnd_clstab
	movzx	eax, BYTE PTR [rcx+rax+8]
	cmp	eax, 5
	jne	SHORT $LN4@check_3rd_
$LN5@check_3rd_:

; 1466 :        ( opnd_clstab[CodeInfo->pinstr->opclsidx].opnd_type_3rd == OP3_HID ) )
; 1467 :         return( ( CodeInfo->opnd[OPND3].type == OP_NONE ) ? NOT_ERROR : ERROR );

	mov	eax, 24
	imul	rax, rax, 2
	mov	rcx, QWORD PTR CodeInfo$[rsp]
	cmp	DWORD PTR [rcx+rax+32], 0
	jne	SHORT $LN20@check_3rd_
	mov	DWORD PTR tv85[rsp], 0
	jmp	SHORT $LN21@check_3rd_
$LN20@check_3rd_:
	mov	DWORD PTR tv85[rsp], -1
$LN21@check_3rd_:
	mov	eax, DWORD PTR tv85[rsp]
	jmp	$LN1@check_3rd_
$LN4@check_3rd_:

; 1468 :     
; 1469 :     /* current variant needs a 3rd operand */
; 1470 :     DebugMsg1(("check_3rd_operand: tab=%X <-> codeinfo=%X\n", opnd_clstab[CodeInfo->pinstr->opclsidx].opnd_type_3rd, CodeInfo->opnd[OPND3].type ));

	mov	eax, 24
	imul	rax, rax, 2
	mov	rcx, QWORD PTR CodeInfo$[rsp]
	mov	rcx, QWORD PTR [rcx+16]
	movzx	ecx, BYTE PTR [rcx]
	imul	rcx, rcx, 12
	lea	rdx, OFFSET FLAT:opnd_clstab
	movzx	ecx, BYTE PTR [rdx+rcx+8]
	mov	rdx, QWORD PTR CodeInfo$[rsp]
	mov	r8d, DWORD PTR [rdx+rax+32]
	mov	edx, ecx
	lea	rcx, OFFSET FLAT:$SG11252
	call	DoDebugMsg1

; 1471 : 
; 1472 :     switch ( opnd_clstab[CodeInfo->pinstr->opclsidx].opnd_type_3rd ) {

	mov	rax, QWORD PTR CodeInfo$[rsp]
	mov	rax, QWORD PTR [rax+16]
	movzx	eax, BYTE PTR [rax]
	imul	rax, rax, 12
	lea	rcx, OFFSET FLAT:opnd_clstab
	movzx	eax, BYTE PTR [rcx+rax+8]
	mov	BYTE PTR tv139[rsp], al
	cmp	BYTE PTR tv139[rsp], 1
	je	SHORT $LN6@check_3rd_
	cmp	BYTE PTR tv139[rsp], 2
	je	SHORT $LN8@check_3rd_
	cmp	BYTE PTR tv139[rsp], 3
	je	$LN15@check_3rd_
	cmp	BYTE PTR tv139[rsp], 4
	je	$LN13@check_3rd_
	jmp	$LN2@check_3rd_
$LN6@check_3rd_:

; 1473 :     case OP3_CL:
; 1474 :         if ( CodeInfo->opnd[OPND3].type == OP_CL )

	mov	eax, 24
	imul	rax, rax, 2
	mov	rcx, QWORD PTR CodeInfo$[rsp]
	cmp	DWORD PTR [rcx+rax+32], 1025		; 00000401H
	jne	SHORT $LN7@check_3rd_

; 1475 :             return( NOT_ERROR );

	xor	eax, eax
	jmp	$LN1@check_3rd_
$LN7@check_3rd_:

; 1476 :         break;

	jmp	$LN2@check_3rd_
$LN8@check_3rd_:

; 1477 :     case OP3_I8_U: /* IMUL, SHxD, a few MMX/SSE */
; 1478 :         /* for IMUL, the operand is signed! */
; 1479 :         if ( ( CodeInfo->opnd[OPND3].type & OP_I ) && CodeInfo->opnd[OPND3].data32l >= -128 ) {

	mov	eax, 24
	imul	rax, rax, 2
	mov	rcx, QWORD PTR CodeInfo$[rsp]
	mov	eax, DWORD PTR [rcx+rax+32]
	and	eax, 917504				; 000e0000H
	test	eax, eax
	je	SHORT $LN9@check_3rd_
	mov	eax, 24
	imul	rax, rax, 2
	mov	rcx, QWORD PTR CodeInfo$[rsp]
	cmp	DWORD PTR [rcx+rax+40], -128		; ffffffffffffff80H
	jl	SHORT $LN9@check_3rd_

; 1480 :             if ( ( CodeInfo->token == T_IMUL && CodeInfo->opnd[OPND3].data32l < 128 ) ||

	mov	rax, QWORD PTR CodeInfo$[rsp]
	cmp	DWORD PTR [rax+24], 616			; 00000268H
	jne	SHORT $LN12@check_3rd_
	mov	eax, 24
	imul	rax, rax, 2
	mov	rcx, QWORD PTR CodeInfo$[rsp]
	cmp	DWORD PTR [rcx+rax+40], 128		; 00000080H
	jl	SHORT $LN11@check_3rd_
$LN12@check_3rd_:
	mov	rax, QWORD PTR CodeInfo$[rsp]
	cmp	DWORD PTR [rax+24], 616			; 00000268H
	je	SHORT $LN10@check_3rd_
	mov	eax, 24
	imul	rax, rax, 2
	mov	rcx, QWORD PTR CodeInfo$[rsp]
	cmp	DWORD PTR [rcx+rax+40], 256		; 00000100H
	jge	SHORT $LN10@check_3rd_
$LN11@check_3rd_:

; 1481 :                 ( CodeInfo->token != T_IMUL && CodeInfo->opnd[OPND3].data32l < 256 ) ) {
; 1482 :                 CodeInfo->opnd[OPND3].type = OP_I8;

	mov	eax, 24
	imul	rax, rax, 2
	mov	rcx, QWORD PTR CodeInfo$[rsp]
	mov	DWORD PTR [rcx+rax+32], 131072		; 00020000H

; 1483 :                 return( NOT_ERROR );

	xor	eax, eax
	jmp	SHORT $LN1@check_3rd_
$LN10@check_3rd_:
$LN9@check_3rd_:

; 1484 :             }
; 1485 :         }
; 1486 :         break;

	jmp	SHORT $LN2@check_3rd_
$LN13@check_3rd_:

; 1487 :     case OP3_I: /* IMUL */
; 1488 :         if ( CodeInfo->opnd[OPND3].type & OP_I )

	mov	eax, 24
	imul	rax, rax, 2
	mov	rcx, QWORD PTR CodeInfo$[rsp]
	mov	eax, DWORD PTR [rcx+rax+32]
	and	eax, 917504				; 000e0000H
	test	eax, eax
	je	SHORT $LN14@check_3rd_

; 1489 :             return( NOT_ERROR );

	xor	eax, eax
	jmp	SHORT $LN1@check_3rd_
$LN14@check_3rd_:

; 1490 :         break;

	jmp	SHORT $LN2@check_3rd_
$LN15@check_3rd_:

; 1491 :     case OP3_XMM0:
; 1492 : #if AVXSUPP
; 1493 :         /* for VEX encoding, XMM0 has the meaning: any K/XMM/YMM/ZMM register */
; 1494 :         if ( CodeInfo->token >= VEX_START ) {

	mov	rax, QWORD PTR CodeInfo$[rsp]
	cmp	DWORD PTR [rax+24], 1291		; 0000050bH
	jl	SHORT $LN16@check_3rd_

; 1495 :                return( NOT_ERROR );

	xor	eax, eax
	jmp	SHORT $LN1@check_3rd_

; 1496 :         } else

	jmp	SHORT $LN17@check_3rd_
$LN16@check_3rd_:

; 1497 : #endif
; 1498 :         if ( CodeInfo->opnd[OPND3].type == OP_XMM &&

	mov	eax, 24
	imul	rax, rax, 2
	mov	rcx, QWORD PTR CodeInfo$[rsp]
	cmp	DWORD PTR [rcx+rax+32], 32		; 00000020H
	jne	SHORT $LN18@check_3rd_
	mov	eax, 24
	imul	rax, rax, 2
	mov	rcx, QWORD PTR CodeInfo$[rsp]
	cmp	DWORD PTR [rcx+rax+40], 0
	jne	SHORT $LN18@check_3rd_

; 1499 :             CodeInfo->opnd[OPND3].data32l == 0 )
; 1500 :             return( NOT_ERROR );

	xor	eax, eax
	jmp	SHORT $LN1@check_3rd_
$LN18@check_3rd_:
$LN17@check_3rd_:
$LN2@check_3rd_:

; 1501 :         break;
; 1502 :     }
; 1503 :     return( ERROR );

	mov	eax, -1
$LN1@check_3rd_:

; 1504 : }

	add	rsp, 48					; 00000030H
	pop	rdi
	ret	0
check_3rd_operand ENDP
_TEXT	ENDS
; Function compile flags: /Odtp /RTCsu
; File d:\hjwasm\hjwasm2.13.1s\hjwasm2.13.1s\codegen.c
_TEXT	SEGMENT
size$ = 64
tv223 = 68
tv257 = 72
tv483 = 76
tv350 = 80
CodeInfo$ = 112
determinant$ = 120
index$ = 128
output_data PROC

; 1323 : {

	mov	DWORD PTR [rsp+24], r8d
	mov	DWORD PTR [rsp+16], edx
	mov	QWORD PTR [rsp+8], rcx
	push	rdi
	sub	rsp, 96					; 00000060H
	mov	rdi, rsp
	mov	ecx, 24
	mov	eax, -858993460				; ccccccccH
	rep stosd
	mov	rcx, QWORD PTR [rsp+112]

; 1324 :   int       size = 0;

	mov	DWORD PTR size$[rsp], 0

; 1325 : #if AVXSUPP
; 1326 :     if (CodeInfo->token >= VEX_START){

	mov	rax, QWORD PTR CodeInfo$[rsp]
	cmp	DWORD PTR [rax+24], 1291		; 0000050bH
	jl	$LN6@output_dat

; 1327 :       if ((CodeInfo->token == T_ANDN) || (CodeInfo->token == T_MULX) ||
; 1328 :         (CodeInfo->token == T_PDEP) || (CodeInfo->token == T_PEXT)){

	mov	rax, QWORD PTR CodeInfo$[rsp]
	cmp	DWORD PTR [rax+24], 1669		; 00000685H
	je	SHORT $LN9@output_dat
	mov	rax, QWORD PTR CodeInfo$[rsp]
	cmp	DWORD PTR [rax+24], 1670		; 00000686H
	je	SHORT $LN9@output_dat
	mov	rax, QWORD PTR CodeInfo$[rsp]
	cmp	DWORD PTR [rax+24], 1679		; 0000068fH
	je	SHORT $LN9@output_dat
	mov	rax, QWORD PTR CodeInfo$[rsp]
	cmp	DWORD PTR [rax+24], 1680		; 00000690H
	jne	SHORT $LN8@output_dat
$LN9@output_dat:

; 1329 :         if ((CodeInfo->opnd[OPND2].data32l == 0) || (index == 2))

	mov	eax, 24
	imul	rax, rax, 1
	mov	rcx, QWORD PTR CodeInfo$[rsp]
	cmp	DWORD PTR [rcx+rax+40], 0
	je	SHORT $LN11@output_dat
	cmp	DWORD PTR index$[rsp], 2
	jne	SHORT $LN10@output_dat
$LN11@output_dat:

; 1330 :           return;

	jmp	$LN1@output_dat
$LN10@output_dat:
$LN8@output_dat:

; 1331 :       }
; 1332 :       if ((CodeInfo->token >= T_BEXTR) && (CodeInfo->token <= T_SHRX) || (CodeInfo->token == T_BZHI)) {

	mov	rax, QWORD PTR CodeInfo$[rsp]
	cmp	DWORD PTR [rax+24], 1671		; 00000687H
	jl	SHORT $LN14@output_dat
	mov	rax, QWORD PTR CodeInfo$[rsp]
	cmp	DWORD PTR [rax+24], 1674		; 0000068aH
	jle	SHORT $LN13@output_dat
$LN14@output_dat:
	mov	rax, QWORD PTR CodeInfo$[rsp]
	cmp	DWORD PTR [rax+24], 1678		; 0000068eH
	jne	SHORT $LN12@output_dat
$LN13@output_dat:

; 1333 :         if (CodeInfo->opnd[OPND2].data32l == 0) return;

	mov	eax, 24
	imul	rax, rax, 1
	mov	rcx, QWORD PTR CodeInfo$[rsp]
	cmp	DWORD PTR [rcx+rax+40], 0
	jne	SHORT $LN15@output_dat
	jmp	$LN1@output_dat
$LN15@output_dat:

; 1334 :         if ((index == 0) || (index == 2))

	cmp	DWORD PTR index$[rsp], 0
	je	SHORT $LN17@output_dat
	cmp	DWORD PTR index$[rsp], 2
	jne	SHORT $LN16@output_dat
$LN17@output_dat:

; 1335 :           return;

	jmp	$LN1@output_dat
$LN16@output_dat:
$LN12@output_dat:

; 1336 :       }
; 1337 :       if (CodeInfo->opnd[OPND2].type == OP_I8 && CodeInfo->evex_flag){

	mov	eax, 24
	imul	rax, rax, 1
	mov	rcx, QWORD PTR CodeInfo$[rsp]
	cmp	DWORD PTR [rcx+rax+32], 131072		; 00020000H
	jne	$LN18@output_dat
	mov	rax, QWORD PTR CodeInfo$[rsp]
	movzx	eax, BYTE PTR [rax+136]
	test	eax, eax
	je	$LN18@output_dat

; 1338 :         if ((CodeInfo->token >= T_VPSLLW) && (CodeInfo->token <= T_VPSRLQ) ||
; 1339 :           (CodeInfo->token >= T_VPSLLVD) && (CodeInfo->token <= T_VPSRLVW) ||
; 1340 :           (CodeInfo->token == T_VRNDSCALEPD) || (CodeInfo->token == T_VRNDSCALEPS))

	mov	rax, QWORD PTR CodeInfo$[rsp]
	cmp	DWORD PTR [rax+24], 2039		; 000007f7H
	jl	SHORT $LN21@output_dat
	mov	rax, QWORD PTR CodeInfo$[rsp]
	cmp	DWORD PTR [rax+24], 2046		; 000007feH
	jle	SHORT $LN20@output_dat
$LN21@output_dat:
	mov	rax, QWORD PTR CodeInfo$[rsp]
	cmp	DWORD PTR [rax+24], 1529		; 000005f9H
	jl	SHORT $LN22@output_dat
	mov	rax, QWORD PTR CodeInfo$[rsp]
	cmp	DWORD PTR [rax+24], 1546		; 0000060aH
	jle	SHORT $LN20@output_dat
$LN22@output_dat:
	mov	rax, QWORD PTR CodeInfo$[rsp]
	cmp	DWORD PTR [rax+24], 1610		; 0000064aH
	je	SHORT $LN20@output_dat
	mov	rax, QWORD PTR CodeInfo$[rsp]
	cmp	DWORD PTR [rax+24], 1611		; 0000064bH
	jne	SHORT $LN19@output_dat
$LN20@output_dat:

; 1341 :         {
; 1342 :           if (((CodeInfo->rm_byte) >> 6) == 2)size = 4;

	mov	rax, QWORD PTR CodeInfo$[rsp]
	movzx	eax, BYTE PTR [rax+104]
	sar	eax, 6
	cmp	eax, 2
	jne	SHORT $LN23@output_dat
	mov	DWORD PTR size$[rsp], 4
	jmp	SHORT $LN24@output_dat
$LN23@output_dat:

; 1343 :           else if (((CodeInfo->rm_byte) >> 6) == 1)size = 2;

	mov	rax, QWORD PTR CodeInfo$[rsp]
	movzx	eax, BYTE PTR [rax+104]
	sar	eax, 6
	cmp	eax, 1
	jne	SHORT $LN25@output_dat
	mov	DWORD PTR size$[rsp], 2
$LN25@output_dat:
$LN24@output_dat:
$LN19@output_dat:
$LN18@output_dat:

; 1344 :         }
; 1345 :       }
; 1346 :     } 

	jmp	SHORT $LN7@output_dat
$LN6@output_dat:

; 1347 :     else
; 1348 : #endif
; 1349 :     /* skip the memory operand for XLAT/XLATB and string instructions! */
; 1350 :     if ( CodeInfo->token == T_XLAT || CodeInfo->token == T_XLATB ||
; 1351 :         CodeInfo->pinstr->allowed_prefix == AP_REP ||

	mov	rax, QWORD PTR CodeInfo$[rsp]
	cmp	DWORD PTR [rax+24], 662			; 00000296H
	je	SHORT $LN27@output_dat
	mov	rax, QWORD PTR CodeInfo$[rsp]
	cmp	DWORD PTR [rax+24], 663			; 00000297H
	je	SHORT $LN27@output_dat
	mov	rax, QWORD PTR CodeInfo$[rsp]
	mov	rax, QWORD PTR [rax+16]
	movzx	eax, WORD PTR [rax+2]
	cmp	eax, 2
	je	SHORT $LN27@output_dat
	mov	rax, QWORD PTR CodeInfo$[rsp]
	mov	rax, QWORD PTR [rax+16]
	movzx	eax, WORD PTR [rax+2]
$LN27@output_dat:
$LN7@output_dat:

; 1352 :         CodeInfo->pinstr->allowed_prefix == AP_REPxx ) {
; 1353 :         /* v2.06: no need anymore to modify the fixup field, it's
; 1354 :          * used inside OutputBytes() only.
; 1355 :          */
; 1356 :         //CodeInfo->InsFixup[index] = NULL;
; 1357 : 
; 1358 :         ;//return;
; 1359 :     }
; 1360 : #ifdef DEBUG_OUT
; 1361 :     if ( CodeInfo->opnd[index].InsFixup )

	movsxd	rax, DWORD PTR index$[rsp]
	imul	rax, rax, 24
	mov	rcx, QWORD PTR CodeInfo$[rsp]
	cmp	QWORD PTR [rcx+rax+48], 0
	je	SHORT $LN28@output_dat

; 1362 :         DebugMsg1(("output_data(idx=%u, op=%" I32_SPEC "X [data=%" I32_SPEC "X fixup=%p typ=%u] ) enter [rm=%X]\n", index, determinant, CodeInfo->opnd[index].data32l, CodeInfo->opnd[index].InsFixup, CodeInfo->opnd[index].InsFixup->type ,CodeInfo->rm_byte ));

	mov	rax, QWORD PTR CodeInfo$[rsp]
	movzx	eax, BYTE PTR [rax+104]
	movsxd	rcx, DWORD PTR index$[rsp]
	imul	rcx, rcx, 24
	mov	rdx, QWORD PTR CodeInfo$[rsp]
	mov	rcx, QWORD PTR [rdx+rcx+48]
	movsxd	rdx, DWORD PTR index$[rsp]
	imul	rdx, rdx, 24
	movsxd	r8, DWORD PTR index$[rsp]
	imul	r8, r8, 24
	mov	DWORD PTR [rsp+48], eax
	mov	eax, DWORD PTR [rcx+24]
	mov	DWORD PTR [rsp+40], eax
	mov	rax, QWORD PTR CodeInfo$[rsp]
	mov	rax, QWORD PTR [rax+rdx+48]
	mov	QWORD PTR [rsp+32], rax
	mov	rax, QWORD PTR CodeInfo$[rsp]
	mov	r9d, DWORD PTR [rax+r8+40]
	mov	r8d, DWORD PTR determinant$[rsp]
	mov	edx, DWORD PTR index$[rsp]
	lea	rcx, OFFSET FLAT:$SG11199
	call	DoDebugMsg1
	jmp	SHORT $LN29@output_dat
$LN28@output_dat:

; 1363 :     else
; 1364 :         DebugMsg1(("output_data(idx=%u, op=%" I32_SPEC "X [data=%" I32_SPEC "X fixup=NULL] ) enter [rm=%X]\n", index, determinant, CodeInfo->opnd[index].data32l, CodeInfo->rm_byte ));

	mov	rax, QWORD PTR CodeInfo$[rsp]
	movzx	eax, BYTE PTR [rax+104]
	movsxd	rcx, DWORD PTR index$[rsp]
	imul	rcx, rcx, 24
	mov	DWORD PTR [rsp+32], eax
	mov	rax, QWORD PTR CodeInfo$[rsp]
	mov	r9d, DWORD PTR [rax+rcx+40]
	mov	r8d, DWORD PTR determinant$[rsp]
	mov	edx, DWORD PTR index$[rsp]
	lea	rcx, OFFSET FLAT:$SG11200
	call	DoDebugMsg1
$LN29@output_dat:

; 1365 : #endif
; 1366 : 
; 1367 :     /* determine size */
; 1368 : 
; 1369 :     if( determinant & OP_I8 ) {

	mov	eax, DWORD PTR determinant$[rsp]
	and	eax, 131072				; 00020000H
	test	eax, eax
	je	SHORT $LN30@output_dat

; 1370 :         size = 1;

	mov	DWORD PTR size$[rsp], 1
	jmp	$LN31@output_dat
$LN30@output_dat:

; 1371 :     } else if( determinant & OP_I16 ) {

	mov	eax, DWORD PTR determinant$[rsp]
	and	eax, 262144				; 00040000H
	test	eax, eax
	je	SHORT $LN32@output_dat

; 1372 :         size = 2;

	mov	DWORD PTR size$[rsp], 2
	jmp	$LN33@output_dat
$LN32@output_dat:

; 1373 :     } else if( determinant & OP_I32 ) {

	mov	eax, DWORD PTR determinant$[rsp]
	and	eax, 524288				; 00080000H
	test	eax, eax
	je	SHORT $LN34@output_dat

; 1374 :         size = 4;

	mov	DWORD PTR size$[rsp], 4
	jmp	$LN35@output_dat
$LN34@output_dat:

; 1375 :     } else if( determinant & OP_I48 ) {

	mov	eax, DWORD PTR determinant$[rsp]
	and	eax, 2097152				; 00200000H
	test	eax, eax
	je	SHORT $LN36@output_dat

; 1376 :         size = 6;

	mov	DWORD PTR size$[rsp], 6
	jmp	$LN37@output_dat
$LN36@output_dat:

; 1377 : #if AMD64_SUPPORT
; 1378 :     } else if( determinant & OP_I64 ) {

	mov	eax, DWORD PTR determinant$[rsp]
	and	eax, 1048576				; 00100000H
	test	eax, eax
	je	SHORT $LN38@output_dat

; 1379 :         size = 8;

	mov	DWORD PTR size$[rsp], 8
	jmp	$LN39@output_dat
$LN38@output_dat:

; 1380 : #endif
; 1381 :     } else if( determinant & OP_M_ANY ) {

	mov	eax, DWORD PTR determinant$[rsp]
	and	eax, -8388608				; ffffffffff800000H
	test	eax, eax
	je	$LN40@output_dat

; 1382 :         /* switch on the mode ( the leftmost 2 bits ) */
; 1383 :         switch( CodeInfo->rm_byte & BIT_67 ) {

	mov	rax, QWORD PTR CodeInfo$[rsp]
	movzx	eax, BYTE PTR [rax+104]
	and	eax, 192				; 000000c0H
	mov	DWORD PTR tv223[rsp], eax
	cmp	DWORD PTR tv223[rsp], 0
	je	SHORT $LN42@output_dat
	cmp	DWORD PTR tv223[rsp], 64		; 00000040H
	je	SHORT $LN41@output_dat
	cmp	DWORD PTR tv223[rsp], 128		; 00000080H
	je	$LN54@output_dat
	jmp	$LN2@output_dat
$LN41@output_dat:

; 1384 :         case MOD_01:  /* 8-bit displacement */
; 1385 :             size = 1;

	mov	DWORD PTR size$[rsp], 1

; 1386 :             break;

	jmp	$LN2@output_dat
$LN42@output_dat:

; 1387 :         case MOD_00: /* direct; base and/or index with no disp */
; 1388 :             if( ( CodeInfo->Ofssize == USE16 && CodeInfo->prefix.adrsiz == 0 ) ||

	mov	rax, QWORD PTR CodeInfo$[rsp]
	movzx	eax, BYTE PTR [rax+106]
	test	eax, eax
	jne	SHORT $LN46@output_dat
	mov	rax, QWORD PTR CodeInfo$[rsp]
	movzx	eax, BYTE PTR [rax+9]
	and	al, 1
	movzx	eax, al
	test	eax, eax
	je	SHORT $LN45@output_dat
$LN46@output_dat:
	mov	rax, QWORD PTR CodeInfo$[rsp]
	movzx	eax, BYTE PTR [rax+106]
	cmp	eax, 1
	jne	SHORT $LN43@output_dat
	mov	rax, QWORD PTR CodeInfo$[rsp]
	movzx	eax, BYTE PTR [rax+9]
	and	al, 1
	movzx	eax, al
	cmp	eax, 1
	jne	SHORT $LN43@output_dat
$LN45@output_dat:

; 1389 :                ( CodeInfo->Ofssize == USE32 && CodeInfo->prefix.adrsiz == 1 ) ) {
; 1390 :                 if( ( CodeInfo->rm_byte & BIT_012 ) == RM_D16 ) {

	mov	rax, QWORD PTR CodeInfo$[rsp]
	movzx	eax, BYTE PTR [rax+104]
	and	eax, 7
	cmp	eax, 6
	jne	SHORT $LN47@output_dat

; 1391 :                      size = 2; /* = size of displacement */

	mov	DWORD PTR size$[rsp], 2
$LN47@output_dat:

; 1392 :                 }
; 1393 :             } else {

	jmp	$LN44@output_dat
$LN43@output_dat:

; 1394 : #if AMD64_SUPPORT
; 1395 :                 /* v2.11: special case, 64-bit direct memory addressing, opcodes 0xA0 - 0xA3 */
; 1396 :                 if( CodeInfo->Ofssize == USE64 && ( CodeInfo->pinstr->opcode & 0xFC ) == 0xA0 && CodeInfo->pinstr->byte1_info == 0 )

	mov	rax, QWORD PTR CodeInfo$[rsp]
	movzx	eax, BYTE PTR [rax+106]
	cmp	eax, 2
	jne	SHORT $LN48@output_dat
	mov	rax, QWORD PTR CodeInfo$[rsp]
	mov	rax, QWORD PTR [rax+16]
	movzx	eax, BYTE PTR [rax+12]
	and	eax, 252				; 000000fcH
	cmp	eax, 160				; 000000a0H
	jne	SHORT $LN48@output_dat
	mov	rax, QWORD PTR CodeInfo$[rsp]
	mov	rax, QWORD PTR [rax+16]
	movzx	eax, BYTE PTR [rax+1]
	test	eax, eax
	jne	SHORT $LN48@output_dat

; 1397 :                     size = 8;

	mov	DWORD PTR size$[rsp], 8
	jmp	$LN49@output_dat
$LN48@output_dat:

; 1398 :                 else
; 1399 : #endif
; 1400 :                 switch( CodeInfo->rm_byte & BIT_012 ) {

	mov	rax, QWORD PTR CodeInfo$[rsp]
	movzx	eax, BYTE PTR [rax+104]
	and	eax, 7
	mov	DWORD PTR tv257[rsp], eax
	cmp	DWORD PTR tv257[rsp], 4
	je	SHORT $LN50@output_dat
	cmp	DWORD PTR tv257[rsp], 5
	je	SHORT $LN52@output_dat
	jmp	SHORT $LN4@output_dat
$LN50@output_dat:

; 1401 :                 case RM_SIB: /* 0x04 (equals register # for ESP) */
; 1402 :                     if( ( CodeInfo->sib & BIT_012 ) != RM_D32 ) {

	mov	rax, QWORD PTR CodeInfo$[rsp]
	movzx	eax, BYTE PTR [rax+105]
	and	eax, 7
	cmp	eax, 5
	je	SHORT $LN51@output_dat

; 1403 :                         break;  /* size = 0 */

	jmp	SHORT $LN4@output_dat
$LN51@output_dat:
$LN52@output_dat:

; 1404 :                     }
; 1405 :                     /* no break */
; 1406 :                 case RM_D32: /* 0x05 (equals register # for EBP) */
; 1407 :                     size = 4; /* = size of displacement */

	mov	DWORD PTR size$[rsp], 4

; 1408 : #if AMD64_SUPPORT
; 1409 :                     /* v2.11: overflow check for 64-bit added */
; 1410 :                       if ( CodeInfo->Ofssize == USE64 && CodeInfo->opnd[index].data64 >= 0x80000000 && CodeInfo->opnd[index].data64 < 0xffffffff80000000 )

	mov	rax, QWORD PTR CodeInfo$[rsp]
	movzx	eax, BYTE PTR [rax+106]
	cmp	eax, 2
	jne	SHORT $LN53@output_dat
	movsxd	rax, DWORD PTR index$[rsp]
	imul	rax, rax, 24
	mov	rcx, QWORD PTR CodeInfo$[rsp]
	mov	edx, -2147483648			; 80000000H
	cmp	QWORD PTR [rcx+rax+40], rdx
	jb	SHORT $LN53@output_dat
	movsxd	rax, DWORD PTR index$[rsp]
	imul	rax, rax, 24
	mov	rcx, QWORD PTR CodeInfo$[rsp]
	cmp	QWORD PTR [rcx+rax+40], -2147483648	; ffffffff80000000H
	jae	SHORT $LN53@output_dat

; 1411 :                         EmitErr( INVALID_COMBINATION_OF_OPCODE_AND_OPERANDS );  // proveri

	mov	ecx, 14
	call	EmitErr
$LN53@output_dat:
$LN4@output_dat:
$LN49@output_dat:
$LN44@output_dat:

; 1412 : 
; 1413 : #endif
; 1414 :                 }
; 1415 :             }
; 1416 :             break;

	jmp	SHORT $LN2@output_dat
$LN54@output_dat:

; 1417 :         case MOD_10:  /* 16- or 32-bit displacement */
; 1418 :             if( ( CodeInfo->Ofssize == USE16 && CodeInfo->prefix.adrsiz == 0 ) ||

	mov	rax, QWORD PTR CodeInfo$[rsp]
	movzx	eax, BYTE PTR [rax+106]
	test	eax, eax
	jne	SHORT $LN58@output_dat
	mov	rax, QWORD PTR CodeInfo$[rsp]
	movzx	eax, BYTE PTR [rax+9]
	and	al, 1
	movzx	eax, al
	test	eax, eax
	je	SHORT $LN57@output_dat
$LN58@output_dat:
	mov	rax, QWORD PTR CodeInfo$[rsp]
	movzx	eax, BYTE PTR [rax+106]
	cmp	eax, 1
	jne	SHORT $LN55@output_dat
	mov	rax, QWORD PTR CodeInfo$[rsp]
	movzx	eax, BYTE PTR [rax+9]
	and	al, 1
	movzx	eax, al
	cmp	eax, 1
	jne	SHORT $LN55@output_dat
$LN57@output_dat:

; 1419 :                ( CodeInfo->Ofssize == USE32 && CodeInfo->prefix.adrsiz == 1 ) ) {
; 1420 :                 size = 2;

	mov	DWORD PTR size$[rsp], 2

; 1421 :             } else {

	jmp	SHORT $LN56@output_dat
$LN55@output_dat:

; 1422 :                 size = 4;

	mov	DWORD PTR size$[rsp], 4
$LN56@output_dat:
$LN2@output_dat:
$LN40@output_dat:
$LN39@output_dat:
$LN37@output_dat:
$LN35@output_dat:
$LN33@output_dat:
$LN31@output_dat:

; 1423 :             }
; 1424 :         }
; 1425 :     }
; 1426 : #ifdef DEBUG_OUT
; 1427 :     if ( size > 4 )

	cmp	DWORD PTR size$[rsp], 4
	jle	SHORT $LN59@output_dat

; 1428 :         DebugMsg1(( "output_data: size=%u cont=%" I64_SPEC "X\n", size, CodeInfo->opnd[index].data64 ));

	movsxd	rax, DWORD PTR index$[rsp]
	imul	rax, rax, 24
	mov	rcx, QWORD PTR CodeInfo$[rsp]
	mov	r8, QWORD PTR [rcx+rax+40]
	mov	edx, DWORD PTR size$[rsp]
	lea	rcx, OFFSET FLAT:$SG11232
	call	DoDebugMsg1
	jmp	SHORT $LN60@output_dat
$LN59@output_dat:

; 1429 :     else if ( size )

	cmp	DWORD PTR size$[rsp], 0
	je	SHORT $LN61@output_dat

; 1430 :         DebugMsg1(( "output_data: size=%u cont=%" I32_SPEC "X\n", size, CodeInfo->opnd[index].data32l ));

	movsxd	rax, DWORD PTR index$[rsp]
	imul	rax, rax, 24
	mov	rcx, QWORD PTR CodeInfo$[rsp]
	mov	r8d, DWORD PTR [rcx+rax+40]
	mov	edx, DWORD PTR size$[rsp]
	lea	rcx, OFFSET FLAT:$SG11235
	call	DoDebugMsg1
	jmp	SHORT $LN62@output_dat
$LN61@output_dat:

; 1431 :     else
; 1432 :         DebugMsg1(( "output_data: size=0\n" ));

	lea	rcx, OFFSET FLAT:$SG11236
	call	DoDebugMsg1
$LN62@output_dat:
$LN60@output_dat:

; 1433 : #endif
; 1434 :     if (size) {

	cmp	DWORD PTR size$[rsp], 0
	je	$LN63@output_dat

; 1435 :       if (CodeInfo->opnd[index].InsFixup) {

	movsxd	rax, DWORD PTR index$[rsp]
	imul	rax, rax, 24
	mov	rcx, QWORD PTR CodeInfo$[rsp]
	cmp	QWORD PTR [rcx+rax+48], 0
	je	$LN64@output_dat

; 1436 :         /* v2.07: fixup type check moved here */
; 1437 :         if (Parse_Pass > PASS_1)

	cmp	DWORD PTR Parse_Pass, 0
	jbe	$LN65@output_dat

; 1438 :           if ((1 << CodeInfo->opnd[index].InsFixup->type) & ModuleInfo.fmtopt->invalid_fixup_type) {

	movsxd	rax, DWORD PTR index$[rsp]
	imul	rax, rax, 24
	mov	rcx, QWORD PTR CodeInfo$[rsp]
	mov	rax, QWORD PTR [rcx+rax+48]
	mov	eax, DWORD PTR [rax+24]
	mov	ecx, 1
	mov	DWORD PTR tv483[rsp], ecx
	movzx	ecx, al
	mov	eax, DWORD PTR tv483[rsp]
	shl	eax, cl
	mov	rcx, QWORD PTR ModuleInfo+344
	movsx	ecx, WORD PTR [rcx+8]
	and	eax, ecx
	test	eax, eax
	je	SHORT $LN66@output_dat

; 1439 :             EmitErr(UNSUPPORTED_FIXUP_TYPE,

	movsxd	rax, DWORD PTR index$[rsp]
	imul	rax, rax, 24
	mov	rcx, QWORD PTR CodeInfo$[rsp]
	mov	rax, QWORD PTR [rcx+rax+48]
	cmp	QWORD PTR [rax+56], 0
	je	SHORT $LN71@output_dat
	movsxd	rax, DWORD PTR index$[rsp]
	imul	rax, rax, 24
	mov	rcx, QWORD PTR CodeInfo$[rsp]
	mov	rax, QWORD PTR [rcx+rax+48]
	mov	rax, QWORD PTR [rax+56]
	mov	rax, QWORD PTR [rax+8]
	mov	QWORD PTR tv350[rsp], rax
	jmp	SHORT $LN72@output_dat
$LN71@output_dat:
	lea	rax, OFFSET FLAT:szNull
	mov	QWORD PTR tv350[rsp], rax
$LN72@output_dat:
	mov	rax, QWORD PTR ModuleInfo+344
	add	rax, 10
	mov	r8, QWORD PTR tv350[rsp]
	mov	rdx, rax
	mov	ecx, 197				; 000000c5H
	call	EmitErr
$LN66@output_dat:
$LN65@output_dat:

; 1440 :               ModuleInfo.fmtopt->formatname,
; 1441 :               CodeInfo->opnd[index].InsFixup->sym ? CodeInfo->opnd[index].InsFixup->sym->name : szNull);
; 1442 :             /* don't exit! */
; 1443 :           }
; 1444 :         if (write_to_file) {

	movzx	eax, BYTE PTR write_to_file
	test	eax, eax
	je	SHORT $LN67@output_dat

; 1445 :           CodeInfo->opnd[index].InsFixup->locofs = GetCurrOffset();

	call	GetCurrOffset
	movsxd	rcx, DWORD PTR index$[rsp]
	imul	rcx, rcx, 24
	mov	rdx, QWORD PTR CodeInfo$[rsp]
	mov	rcx, QWORD PTR [rdx+rcx+48]
	mov	DWORD PTR [rcx+20], eax

; 1446 :           OutputBytes((unsigned char *)&CodeInfo->opnd[index].data32l,

	movsxd	rax, DWORD PTR index$[rsp]
	imul	rax, rax, 24
	movsxd	rcx, DWORD PTR index$[rsp]
	imul	rcx, rcx, 24
	mov	rdx, QWORD PTR CodeInfo$[rsp]
	lea	rcx, QWORD PTR [rdx+rcx+40]
	mov	rdx, QWORD PTR CodeInfo$[rsp]
	mov	r8, QWORD PTR [rdx+rax+48]
	mov	edx, DWORD PTR size$[rsp]
	call	OutputBytes

; 1447 :             size, CodeInfo->opnd[index].InsFixup);
; 1448 :           return;

	jmp	SHORT $LN1@output_dat
$LN67@output_dat:
$LN64@output_dat:
$LN63@output_dat:

; 1449 :         }
; 1450 :       }
; 1451 :     }
; 1452 :         /* if the TypleType is present output only 1 byte for the multiplier */
; 1453 :         if (CodeInfo->tuple){

	mov	rax, QWORD PTR CodeInfo$[rsp]
	movzx	eax, BYTE PTR [rax+140]
	test	eax, eax
	je	SHORT $LN68@output_dat

; 1454 :           OutputByte(CodeInfo->opnd[index].data32l);

	movsxd	rax, DWORD PTR index$[rsp]
	imul	rax, rax, 24
	mov	rcx, QWORD PTR CodeInfo$[rsp]
	movzx	ecx, BYTE PTR [rcx+rax+40]
	call	OutputByte

; 1455 :         }

	jmp	SHORT $LN69@output_dat
$LN68@output_dat:

; 1456 :         else
; 1457 :           OutputBytes( (unsigned char *)&CodeInfo->opnd[index].data32l, size, NULL );

	movsxd	rax, DWORD PTR index$[rsp]
	imul	rax, rax, 24
	mov	rcx, QWORD PTR CodeInfo$[rsp]
	lea	rax, QWORD PTR [rcx+rax+40]
	xor	r8d, r8d
	mov	edx, DWORD PTR size$[rsp]
	mov	rcx, rax
	call	OutputBytes
$LN69@output_dat:
$LN1@output_dat:

; 1458 :        
; 1459 :     return;
; 1460 : }

	add	rsp, 96					; 00000060H
	pop	rdi
	ret	0
output_data ENDP
_TEXT	ENDS
; Function compile flags: /Odtp /RTCsu
; File d:\hjwasm\hjwasm2.13.1s\hjwasm2.13.1s\codegen.c
_TEXT	SEGMENT
ins$ = 48
tmp$ = 56
fpfix$ = 57
rn$ = 60
c$ = 64
comprdsp$ = 84
lbyte$5 = 100
byte1$6 = 101
p$7 = 104
cnt$8 = 112
type1$9 = 116
type2$10 = 120
index$11 = 124
d$12 = 132
tv80 = 148
tv85 = 152
tv261 = 156
tv330 = 160
tv412 = 164
tv527 = 168
tv546 = 172
tv554 = 176
tv562 = 180
tv885 = 184
tv889 = 188
tv1024 = 192
tv1644 = 196
tv1720 = 200
tv2621 = 204
tv2629 = 208
tv3151 = 212
CodeInfo$ = 240
output_opc PROC

; 168  : {

	mov	QWORD PTR [rsp+8], rcx
	push	rdi
	sub	rsp, 224				; 000000e0H
	mov	rdi, rsp
	mov	ecx, 56					; 00000038H
	mov	eax, -858993460				; ccccccccH
	rep stosd
	mov	rcx, QWORD PTR [rsp+240]

; 169  :   const struct instr_item *ins = CodeInfo->pinstr;

	mov	rax, QWORD PTR CodeInfo$[rsp]
	mov	rax, QWORD PTR [rax+16]
	mov	QWORD PTR ins$[rsp], rax

; 170  :   uint_8           tmp;
; 171  :   uint_8           fpfix = FALSE;

	mov	BYTE PTR fpfix$[rsp], 0

; 172  :   int              rn;
; 173  :   unsigned char    c;
; 174  :   int_8            comprdsp = 0;

	mov	BYTE PTR comprdsp$[rsp], 0

; 175  : 
; 176  :   DebugMsg1(("output_opc enter, ins.opc/rm=%X/%X, byte1_info=%X CodeInfo->rm=%X opsiz=%u\n", ins->opcode, ins->rm_byte, ins->byte1_info, CodeInfo->rm_byte, CodeInfo->prefix.opsiz));

	mov	rax, QWORD PTR CodeInfo$[rsp]
	movzx	eax, BYTE PTR [rax+9]
	shr	al, 1
	and	al, 1
	movzx	eax, al
	mov	rcx, QWORD PTR CodeInfo$[rsp]
	movzx	ecx, BYTE PTR [rcx+104]
	mov	rdx, QWORD PTR ins$[rsp]
	movzx	edx, BYTE PTR [rdx+1]
	mov	r8, QWORD PTR ins$[rsp]
	movzx	r8d, BYTE PTR [r8+13]
	mov	r9, QWORD PTR ins$[rsp]
	movzx	r9d, BYTE PTR [r9+12]
	mov	DWORD PTR tv80[rsp], r9d
	mov	DWORD PTR [rsp+40], eax
	mov	DWORD PTR [rsp+32], ecx
	mov	r9d, edx
	mov	eax, DWORD PTR tv80[rsp]
	mov	edx, eax
	lea	rcx, OFFSET FLAT:$SG10638
	call	DoDebugMsg1

; 177  :   /*
; 178  :    * Output debug info - line numbers
; 179  :    */
; 180  :   if (Options.line_numbers)

	movzx	eax, BYTE PTR Options+1
	test	eax, eax
	je	SHORT $LN21@output_opc

; 181  :     AddLinnumDataRef(get_curr_srcfile(), GetLineNumber());

	call	GetLineNumber
	mov	DWORD PTR tv85[rsp], eax
	call	get_curr_srcfile
	mov	ecx, DWORD PTR tv85[rsp]
	mov	edx, ecx
	mov	ecx, eax
	call	AddLinnumDataRef
$LN21@output_opc:

; 182  :   /* if it's a FPU instr, reset opsiz */
; 183  :   //if( ins->cpu & P_FPU_MASK ) {
; 184  :   /* v2.02: if it's a FPU or MMX/SSE instr, reset opsiz!
; 185  :    * [this code has been moved here from codegen()]
; 186  :    */
; 187  :   if (ins->cpu & (P_FPU_MASK | P_MMX | P_SSEALL)) {

	mov	rax, QWORD PTR ins$[rsp]
	movzx	eax, WORD PTR [rax+10]
	and	eax, 64775				; 0000fd07H
	test	eax, eax
	je	SHORT $LN22@output_opc

; 188  : #if SSE4SUPP
; 189  :     /* there are 2 exceptions. how to avoid this ugly hack? */
; 190  :     if (CodeInfo->token != T_CRC32 &&

	mov	rax, QWORD PTR CodeInfo$[rsp]
	cmp	DWORD PTR [rax+24], 1262		; 000004eeH
	je	SHORT $LN23@output_opc
	mov	rax, QWORD PTR CodeInfo$[rsp]
	cmp	DWORD PTR [rax+24], 1268		; 000004f4H
	je	SHORT $LN23@output_opc

; 191  :       CodeInfo->token != T_POPCNT)
; 192  : #endif
; 193  :       CodeInfo->prefix.opsiz = FALSE;

	mov	rax, QWORD PTR CodeInfo$[rsp]
	movzx	eax, BYTE PTR [rax+9]
	and	al, 253					; 000000fdH
	mov	rcx, QWORD PTR CodeInfo$[rsp]
	mov	BYTE PTR [rcx+9], al
$LN23@output_opc:
$LN22@output_opc:

; 194  :   }
; 195  :   if ((CodeInfo->token == T_RDRAND) || (CodeInfo->token == T_RDSEED)){

	mov	rax, QWORD PTR CodeInfo$[rsp]
	cmp	DWORD PTR [rax+24], 1269		; 000004f5H
	je	SHORT $LN25@output_opc
	mov	rax, QWORD PTR CodeInfo$[rsp]
	cmp	DWORD PTR [rax+24], 1270		; 000004f6H
	jne	SHORT $LN24@output_opc
$LN25@output_opc:

; 196  :     if ((CodeInfo->opnd[OPND1].type == OP_R16) || (CodeInfo->opnd[OPND1].type == OP_AX))

	mov	eax, 24
	imul	rax, rax, 0
	mov	rcx, QWORD PTR CodeInfo$[rsp]
	cmp	DWORD PTR [rcx+rax+32], 2
	je	SHORT $LN27@output_opc
	mov	eax, 24
	imul	rax, rax, 0
	mov	rcx, QWORD PTR CodeInfo$[rsp]
	cmp	DWORD PTR [rcx+rax+32], 514		; 00000202H
	jne	SHORT $LN26@output_opc
$LN27@output_opc:

; 197  :       CodeInfo->prefix.opsiz = TRUE;

	mov	rax, QWORD PTR CodeInfo$[rsp]
	movzx	eax, BYTE PTR [rax+9]
	or	al, 2
	mov	rcx, QWORD PTR CodeInfo$[rsp]
	mov	BYTE PTR [rcx+9], al
$LN26@output_opc:
$LN24@output_opc:

; 198  :   } 
; 199  :   /*
; 200  :    * Check if CPU, FPU and extensions are within the limits
; 201  :    */
; 202  :   if ((ins->cpu & P_CPU_MASK) > (ModuleInfo.curr_cpu & P_CPU_MASK)
; 203  :     || (ins->cpu & P_FPU_MASK) > (ModuleInfo.curr_cpu & P_FPU_MASK)
; 204  :     || (ins->cpu & P_EXT_MASK) > (ModuleInfo.curr_cpu & P_EXT_MASK)) {

	mov	rax, QWORD PTR ins$[rsp]
	movzx	eax, WORD PTR [rax+10]
	and	eax, 240				; 000000f0H
	mov	ecx, DWORD PTR ModuleInfo+392
	and	ecx, 240				; 000000f0H
	cmp	eax, ecx
	jg	SHORT $LN29@output_opc
	mov	rax, QWORD PTR ins$[rsp]
	movzx	eax, WORD PTR [rax+10]
	and	eax, 7
	mov	ecx, DWORD PTR ModuleInfo+392
	and	ecx, 7
	cmp	eax, ecx
	jg	SHORT $LN29@output_opc
	mov	rax, QWORD PTR ins$[rsp]
	movzx	eax, WORD PTR [rax+10]
	and	eax, 65280				; 0000ff00H
	mov	ecx, DWORD PTR ModuleInfo+392
	and	ecx, 65280				; 0000ff00H
	cmp	eax, ecx
	jle	SHORT $LN28@output_opc
$LN29@output_opc:

; 205  :     DebugMsg(("output_opc: wrong cpu setting: instr.cpu=%X, ModuleInfo.cpu=%X\n",

	mov	rax, QWORD PTR ins$[rsp]
	movzx	eax, WORD PTR [rax+10]
	mov	r8d, DWORD PTR ModuleInfo+392
	mov	edx, eax
	lea	rcx, OFFSET FLAT:$SG10648
	call	DoDebugMsg

; 206  :       ins->cpu, ModuleInfo.curr_cpu));
; 207  :     /* if instruction is valid for 16bit cpu, but operands aren't,
; 208  :      then display a more specific error message! */
; 209  :     if (ins->cpu == P_386 &&

	mov	rax, QWORD PTR ins$[rsp]
	movzx	eax, WORD PTR [rax+10]
	cmp	eax, 48					; 00000030H
	jne	SHORT $LN30@output_opc
	mov	rax, QWORD PTR CodeInfo$[rsp]
	mov	eax, DWORD PTR [rax+24]
	sub	eax, 450				; 000001c2H
	cdqe
	lea	rcx, OFFSET FLAT:optable_idx
	movzx	eax, WORD PTR [rcx+rax*2]
	imul	rax, rax, 14
	lea	rcx, OFFSET FLAT:InstrTable
	movzx	eax, WORD PTR [rcx+rax+10]
	and	eax, 240				; 000000f0H
	cmp	eax, 48					; 00000030H
	jg	SHORT $LN30@output_opc

; 210  :       ((InstrTable[IndexFromToken(CodeInfo->token)].cpu & P_CPU_MASK) <= P_386))
; 211  :       EmitError(INSTRUCTION_FORM_REQUIRES_80386);

	mov	ecx, 238				; 000000eeH
	call	EmitError
	jmp	SHORT $LN31@output_opc
$LN30@output_opc:

; 212  :     else
; 213  :       EmitError(INSTRUCTION_OR_REGISTER_NOT_ACCEPTED_IN_CURRENT_CPU_MODE);

	mov	ecx, 30
	call	EmitError
$LN31@output_opc:
$LN28@output_opc:

; 214  :     //return( ERROR );
; 215  :   }
; 216  : 
; 217  :   /*
; 218  :    * Output FP fixup if required
; 219  :    * the OPs with NOWAIT are the instructions beginning with
; 220  :    * FN, except FNOP.
; 221  :    * the OPs with WAIT are the instructions:
; 222  :    * FCLEX, FDISI, FENI, FINIT, FSAVEx, FSTCW, FSTENVx, FSTSW
; 223  :    */
; 224  :   if ((ModuleInfo.emulator == TRUE) &&
; 225  :     (CodeInfo->Ofssize == USE16) &&
; 226  :     (ins->cpu & P_FPU_MASK) &&

	mov	eax, DWORD PTR ModuleInfo+408
	shr	eax, 9
	and	eax, 1
	cmp	eax, 1
	jne	SHORT $LN32@output_opc
	mov	rax, QWORD PTR CodeInfo$[rsp]
	movzx	eax, BYTE PTR [rax+106]
	test	eax, eax
	jne	SHORT $LN32@output_opc
	mov	rax, QWORD PTR ins$[rsp]
	movzx	eax, WORD PTR [rax+10]
	and	eax, 7
	test	eax, eax
	je	SHORT $LN32@output_opc
	mov	rax, QWORD PTR ins$[rsp]
	movzx	eax, WORD PTR [rax+2]
	cmp	eax, 5
	je	SHORT $LN32@output_opc

; 227  :     (ins->allowed_prefix != AP_NO_FWAIT)) {
; 228  :     fpfix = TRUE;

	mov	BYTE PTR fpfix$[rsp], 1

; 229  :     /* v2.04: no error is returned */
; 230  :     AddFloatingPointEmulationFixup(CodeInfo);

	mov	rcx, QWORD PTR CodeInfo$[rsp]
	call	AddFloatingPointEmulationFixup
$LN32@output_opc:

; 231  :   }
; 232  : 
; 233  :   /*
; 234  :    * Output instruction prefix LOCK, REP or REP[N]E|Z
; 235  :    */
; 236  :   if (CodeInfo->prefix.ins != EMPTY && (CodeInfo->token < T_VPGATHERDD || CodeInfo->token > T_VGATHERQPS)) {

	mov	rax, QWORD PTR CodeInfo$[rsp]
	cmp	DWORD PTR [rax], -2
	je	$LN33@output_opc
	mov	rax, QWORD PTR CodeInfo$[rsp]
	cmp	DWORD PTR [rax+24], 1340		; 0000053cH
	jl	SHORT $LN34@output_opc
	mov	rax, QWORD PTR CodeInfo$[rsp]
	cmp	DWORD PTR [rax+24], 1347		; 00000543H
	jle	$LN33@output_opc
$LN34@output_opc:

; 237  :     tmp = InstrTable[IndexFromToken(CodeInfo->prefix.ins)].allowed_prefix;

	mov	rax, QWORD PTR CodeInfo$[rsp]
	mov	eax, DWORD PTR [rax]
	sub	eax, 450				; 000001c2H
	cdqe
	lea	rcx, OFFSET FLAT:optable_idx
	movzx	eax, WORD PTR [rcx+rax*2]
	imul	rax, rax, 14
	lea	rcx, OFFSET FLAT:InstrTable
	movzx	eax, BYTE PTR [rcx+rax+2]
	mov	BYTE PTR tmp$[rsp], al

; 238  :     /* instruction prefix must be ok. However, with -Zm, the plain REP
; 239  :      * is also ok for instructions which expect REPxx.
; 240  :      */
; 241  :     if (ModuleInfo.m510 == TRUE &&
; 242  :       tmp == AP_REP &&

	mov	eax, DWORD PTR ModuleInfo+408
	shr	eax, 6
	and	eax, 1
	cmp	eax, 1
	jne	SHORT $LN35@output_opc
	movzx	eax, BYTE PTR tmp$[rsp]
	cmp	eax, 2
	jne	SHORT $LN35@output_opc
	mov	rax, QWORD PTR ins$[rsp]
	movzx	eax, WORD PTR [rax+2]
	cmp	eax, 3
	jne	SHORT $LN35@output_opc

; 243  :       ins->allowed_prefix == AP_REPxx)
; 244  :       tmp = AP_REPxx;

	mov	BYTE PTR tmp$[rsp], 3
$LN35@output_opc:

; 245  : 
; 246  :     if (ins->allowed_prefix != tmp) {

	mov	rax, QWORD PTR ins$[rsp]
	movzx	eax, WORD PTR [rax+2]
	movzx	ecx, BYTE PTR tmp$[rsp]
	cmp	eax, ecx
	je	SHORT $LN36@output_opc

; 247  :       EmitError(INSTRUCTION_PREFIX_NOT_ALLOWED);

	mov	ecx, 28
	call	EmitError

; 248  :     }

	jmp	SHORT $LN37@output_opc
$LN36@output_opc:

; 249  :     else
; 250  :       OutputCodeByte(InstrTable[IndexFromToken(CodeInfo->prefix.ins)].opcode);

	mov	rax, QWORD PTR CodeInfo$[rsp]
	mov	eax, DWORD PTR [rax]
	sub	eax, 450				; 000001c2H
	cdqe
	lea	rcx, OFFSET FLAT:optable_idx
	movzx	eax, WORD PTR [rcx+rax*2]
	imul	rax, rax, 14
	lea	rcx, OFFSET FLAT:InstrTable
	movzx	ecx, BYTE PTR [rcx+rax+12]
	call	OutputByte
$LN37@output_opc:
$LN33@output_opc:

; 251  :   }
; 252  :   /*
; 253  :    * Output FP FWAIT if required
; 254  :    */
; 255  :   if (ins->cpu & P_FPU_MASK) {

	mov	rax, QWORD PTR ins$[rsp]
	movzx	eax, WORD PTR [rax+10]
	and	eax, 7
	test	eax, eax
	je	SHORT $LN38@output_opc

; 256  :     if (CodeInfo->token == T_FWAIT) {

	mov	rax, QWORD PTR CodeInfo$[rsp]
	cmp	DWORD PTR [rax+24], 828			; 0000033cH
	jne	SHORT $LN39@output_opc

; 257  :       /* v2.04: Masm will always insert a NOP if emulation is active,
; 258  :        * no matter what the current cpu is. The reason is simple: the
; 259  :        * nop is needed because of the fixup which was inserted.
; 260  :        */
; 261  :       //if(( ModuleInfo.curr_cpu & P_CPU_MASK ) < P_386 ) {
; 262  :       //    if(( ModuleInfo.emulator == TRUE ) && ( CodeInfo->Ofssize == USE16 )) {
; 263  :       if (fpfix) {

	movzx	eax, BYTE PTR fpfix$[rsp]
	test	eax, eax
	je	SHORT $LN41@output_opc

; 264  :         OutputCodeByte(OP_NOP);

	mov	cl, 144					; 00000090H
	call	OutputByte
$LN41@output_opc:

; 265  :       }
; 266  :     }

	jmp	SHORT $LN40@output_opc
$LN39@output_opc:

; 267  :     else if (fpfix || ins->allowed_prefix == AP_FWAIT) {

	movzx	eax, BYTE PTR fpfix$[rsp]
	test	eax, eax
	jne	SHORT $LN44@output_opc
	mov	rax, QWORD PTR ins$[rsp]
	movzx	eax, WORD PTR [rax+2]
	cmp	eax, 4
	jne	SHORT $LN42@output_opc
$LN44@output_opc:

; 268  :       OutputCodeByte(OP_WAIT);

	mov	cl, 155					; 0000009bH
	call	OutputByte

; 269  :     }

	jmp	SHORT $LN43@output_opc
$LN42@output_opc:

; 270  :     else if (ins->allowed_prefix != AP_NO_FWAIT) {

	mov	rax, QWORD PTR ins$[rsp]
	movzx	eax, WORD PTR [rax+2]
	cmp	eax, 5
	je	SHORT $LN45@output_opc

; 271  :       /* implicit FWAIT synchronization for 8087 (CPU 8086/80186) */
; 272  :       if ((ModuleInfo.curr_cpu & P_CPU_MASK) < P_286)

	mov	eax, DWORD PTR ModuleInfo+392
	and	eax, 240				; 000000f0H
	cmp	eax, 32					; 00000020H
	jge	SHORT $LN46@output_opc

; 273  :         OutputCodeByte(OP_WAIT);

	mov	cl, 155					; 0000009bH
	call	OutputByte
$LN46@output_opc:
$LN45@output_opc:
$LN43@output_opc:
$LN40@output_opc:
$LN38@output_opc:

; 274  :     }
; 275  :   }
; 276  :   /*
; 277  :    * check if address/operand size prefix is to be set
; 278  :    */
; 279  :   switch (ins->byte1_info) {

	mov	rax, QWORD PTR ins$[rsp]
	movzx	eax, BYTE PTR [rax+1]
	mov	DWORD PTR tv261[rsp], eax
	mov	eax, DWORD PTR tv261[rsp]
	dec	eax
	mov	DWORD PTR tv261[rsp], eax
	cmp	DWORD PTR tv261[rsp], 21
	ja	$LN2@output_opc
	movsxd	rax, DWORD PTR tv261[rsp]
	lea	rcx, OFFSET FLAT:__ImageBase
	movzx	eax, BYTE PTR $LN554@output_opc[rcx+rax]
	mov	eax, DWORD PTR $LN555@output_opc[rcx+rax*4]
	add	rax, rcx
	jmp	rax
$LN47@output_opc:

; 280  :   case F_16:
; 281  :     if (CodeInfo->Ofssize >= USE32) CodeInfo->prefix.opsiz = TRUE;

	mov	rax, QWORD PTR CodeInfo$[rsp]
	movzx	eax, BYTE PTR [rax+106]
	cmp	eax, 1
	jl	SHORT $LN48@output_opc
	mov	rax, QWORD PTR CodeInfo$[rsp]
	movzx	eax, BYTE PTR [rax+9]
	or	al, 2
	mov	rcx, QWORD PTR CodeInfo$[rsp]
	mov	BYTE PTR [rcx+9], al
$LN48@output_opc:

; 282  :     break;

	jmp	$LN2@output_opc
$LN49@output_opc:

; 283  :   case F_32:
; 284  :     if (CodeInfo->Ofssize == USE16) CodeInfo->prefix.opsiz = TRUE;

	mov	rax, QWORD PTR CodeInfo$[rsp]
	movzx	eax, BYTE PTR [rax+106]
	test	eax, eax
	jne	SHORT $LN50@output_opc
	mov	rax, QWORD PTR CodeInfo$[rsp]
	movzx	eax, BYTE PTR [rax+9]
	or	al, 2
	mov	rcx, QWORD PTR CodeInfo$[rsp]
	mov	BYTE PTR [rcx+9], al
$LN50@output_opc:

; 285  :     break;

	jmp	$LN2@output_opc
$LN51@output_opc:

; 286  :   case F_16A: /* 16-bit JCXZ and LOOPcc */
; 287  :     /* doesnt exist for IA32+ */
; 288  :     if (CodeInfo->Ofssize == USE32) CodeInfo->prefix.adrsiz = TRUE;

	mov	rax, QWORD PTR CodeInfo$[rsp]
	movzx	eax, BYTE PTR [rax+106]
	cmp	eax, 1
	jne	SHORT $LN52@output_opc
	mov	rax, QWORD PTR CodeInfo$[rsp]
	movzx	eax, BYTE PTR [rax+9]
	or	al, 1
	mov	rcx, QWORD PTR CodeInfo$[rsp]
	mov	BYTE PTR [rcx+9], al
$LN52@output_opc:

; 289  :     break;

	jmp	SHORT $LN2@output_opc
$LN53@output_opc:

; 290  :   case F_32A: /* 32-bit JECXZ and LOOPcc */
; 291  : #if AMD64_SUPPORT
; 292  :     /* in IA32+, the 32bit version gets an 0x67 prefix */
; 293  :     if (CodeInfo->Ofssize != USE32)  CodeInfo->prefix.adrsiz = TRUE;

	mov	rax, QWORD PTR CodeInfo$[rsp]
	movzx	eax, BYTE PTR [rax+106]
	cmp	eax, 1
	je	SHORT $LN54@output_opc
	mov	rax, QWORD PTR CodeInfo$[rsp]
	movzx	eax, BYTE PTR [rax+9]
	or	al, 1
	mov	rcx, QWORD PTR CodeInfo$[rsp]
	mov	BYTE PTR [rcx+9], al
$LN54@output_opc:

; 294  : #else
; 295  :     if( CodeInfo->Ofssize == USE16 ) CodeInfo->prefix.adrsiz = TRUE;
; 296  : #endif
; 297  :     break;

	jmp	SHORT $LN2@output_opc
$LN55@output_opc:

; 298  :   case F_0FNO66:
; 299  :     CodeInfo->prefix.opsiz = FALSE;

	mov	rax, QWORD PTR CodeInfo$[rsp]
	movzx	eax, BYTE PTR [rax+9]
	and	al, 253					; 000000fdH
	mov	rcx, QWORD PTR CodeInfo$[rsp]
	mov	BYTE PTR [rcx+9], al

; 300  :     break;

	jmp	SHORT $LN2@output_opc
$LN56@output_opc:

; 301  : #if AMD64_SUPPORT
; 302  :   case F_48:
; 303  :   case F_480F:
; 304  :     CodeInfo->prefix.rex |= REX_W;

	mov	rax, QWORD PTR CodeInfo$[rsp]
	movzx	eax, BYTE PTR [rax+8]
	or	eax, 8
	mov	rcx, QWORD PTR CodeInfo$[rsp]
	mov	BYTE PTR [rcx+8], al
$LN2@output_opc:

; 305  :     break;
; 306  : #endif
; 307  :   }
; 308  : 
; 309  : 
; 310  : #if AVXSUPP   
; 311  :   if (ResWordTable[CodeInfo->token].flags & RWF_EVEX)

	mov	rax, QWORD PTR CodeInfo$[rsp]
	movsxd	rax, DWORD PTR [rax+24]
	imul	rax, rax, 16
	lea	rcx, OFFSET FLAT:ResWordTable
	movzx	eax, BYTE PTR [rcx+rax+3]
	and	eax, 16
	test	eax, eax
	je	SHORT $LN57@output_opc

; 312  : 	  CodeInfo->evex_flag = TRUE;

	mov	rax, QWORD PTR CodeInfo$[rsp]
	mov	BYTE PTR [rax+136], 1
$LN57@output_opc:

; 313  :   if (!evex)

	movzx	eax, BYTE PTR evex
	test	eax, eax
	jne	SHORT $LN58@output_opc

; 314  : 	  CodeInfo->evex_flag = FALSE;

	mov	rax, QWORD PTR CodeInfo$[rsp]
	mov	BYTE PTR [rax+136], 0
$LN58@output_opc:

; 315  :   if (CodeInfo->evex_flag == TRUE) {

	mov	rax, QWORD PTR CodeInfo$[rsp]
	movzx	eax, BYTE PTR [rax+136]
	cmp	eax, 1
	jne	SHORT $LN59@output_opc

; 316  : 	  if (!(vex_flags[CodeInfo->token - VEX_START] & VX_LL))

	mov	rax, QWORD PTR CodeInfo$[rsp]
	mov	eax, DWORD PTR [rax+24]
	sub	eax, 1291				; 0000050bH
	cdqe
	lea	rcx, OFFSET FLAT:vex_flags
	movzx	eax, BYTE PTR [rcx+rax]
	and	eax, 64					; 00000040H
	test	eax, eax
	jne	SHORT $LN60@output_opc

; 317  : 		  EmitError(INVALID_COMBINATION_OF_OPCODE_AND_OPERANDS);

	mov	ecx, 14
	call	EmitError
$LN60@output_opc:
$LN59@output_opc:

; 318  :   }
; 319  : 
; 320  :   if (!(ResWordTable[CodeInfo->token].flags & RWF_VEX)) {

	mov	rax, QWORD PTR CodeInfo$[rsp]
	movsxd	rax, DWORD PTR [rax+24]
	imul	rax, rax, 16
	lea	rcx, OFFSET FLAT:ResWordTable
	movzx	eax, BYTE PTR [rcx+rax+3]
	and	eax, 8
	test	eax, eax
	jne	SHORT $LN61@output_opc

; 321  : #endif
; 322  : 
; 323  : 	switch (ins->byte1_info) {

	mov	rax, QWORD PTR ins$[rsp]
	movzx	eax, BYTE PTR [rax+1]
	mov	DWORD PTR tv330[rsp], eax
	mov	eax, DWORD PTR tv330[rsp]
	sub	eax, 5
	mov	DWORD PTR tv330[rsp], eax
	cmp	DWORD PTR tv330[rsp], 22
	ja	SHORT $LN4@output_opc
	movsxd	rax, DWORD PTR tv330[rsp]
	lea	rcx, OFFSET FLAT:__ImageBase
	movzx	eax, BYTE PTR $LN552@output_opc[rcx+rax]
	mov	eax, DWORD PTR $LN553@output_opc[rcx+rax*4]
	add	rax, rcx
	jmp	rax
$LN62@output_opc:

; 324  :     case F_660F:
; 325  :     case F_660F38:
; 326  :     case F_660F3A:
; 327  :       CodeInfo->prefix.opsiz = TRUE;

	mov	rax, QWORD PTR CodeInfo$[rsp]
	movzx	eax, BYTE PTR [rax+9]
	or	al, 2
	mov	rcx, QWORD PTR CodeInfo$[rsp]
	mov	BYTE PTR [rcx+9], al

; 328  :       break;

	jmp	SHORT $LN4@output_opc
$LN63@output_opc:

; 329  :     case F_F20F:
; 330  :     case F_F20F38: OutputCodeByte(0xF2); break;

	mov	cl, 242					; 000000f2H
	call	OutputByte
	jmp	SHORT $LN4@output_opc
$LN64@output_opc:

; 331  :     case F_F3: /* PAUSE instruction */
; 332  :     case F_F30F:   OutputCodeByte(0xF3); break;

	mov	cl, 243					; 000000f3H
	call	OutputByte
$LN4@output_opc:
$LN61@output_opc:

; 333  :     }
; 334  : #if AVXSUPP
; 335  :   }
; 336  : #endif
; 337  :   /*
; 338  :    * Output address and operand size prefixes.
; 339  :    * These bytes are NOT compatible with FP emulation fixups,
; 340  :    * which expect that the FWAIT/NOP first "prefix" byte is followed
; 341  :    * by either a segment prefix or the opcode byte.
; 342  :    * Neither Masm nor HJWasm emit a warning, though.
; 343  :    */
; 344  :   if (CodeInfo->prefix.adrsiz == TRUE && (CodeInfo->token < T_VPGATHERDD || CodeInfo->token > T_VSCATTERQPD)) {

	mov	rax, QWORD PTR CodeInfo$[rsp]
	movzx	eax, BYTE PTR [rax+9]
	and	al, 1
	movzx	eax, al
	cmp	eax, 1
	jne	SHORT $LN65@output_opc
	mov	rax, QWORD PTR CodeInfo$[rsp]
	cmp	DWORD PTR [rax+24], 1340		; 0000053cH
	jl	SHORT $LN66@output_opc
	mov	rax, QWORD PTR CodeInfo$[rsp]
	cmp	DWORD PTR [rax+24], 1355		; 0000054bH
	jle	SHORT $LN65@output_opc
$LN66@output_opc:

; 345  :     OutputCodeByte(ADRSIZ);

	mov	cl, 103					; 00000067H
	call	OutputByte

; 346  : #ifdef DEBUG_OUT
; 347  :     if (fpfix)

	movzx	eax, BYTE PTR fpfix$[rsp]
	test	eax, eax
	je	SHORT $LN67@output_opc

; 348  :       DebugMsg(("output_opc: ERROR: FP emulation byte sequence destroyed by 32-bit address prefix!\n"));

	lea	rcx, OFFSET FLAT:$SG10687
	call	DoDebugMsg
$LN67@output_opc:
$LN65@output_opc:

; 349  : #endif
; 350  :   }
; 351  :   if (CodeInfo->prefix.opsiz == TRUE) {

	mov	rax, QWORD PTR CodeInfo$[rsp]
	movzx	eax, BYTE PTR [rax+9]
	shr	al, 1
	and	al, 1
	movzx	eax, al
	cmp	eax, 1
	jne	SHORT $LN68@output_opc

; 352  : #if 1
; 353  :     if ((ModuleInfo.curr_cpu & P_CPU_MASK) < P_386) {

	mov	eax, DWORD PTR ModuleInfo+392
	and	eax, 240				; 000000f0H
	cmp	eax, 48					; 00000030H
	jge	SHORT $LN69@output_opc

; 354  :       DebugMsg(("output_opc: instruction form requires 386\n"));

	lea	rcx, OFFSET FLAT:$SG10690
	call	DoDebugMsg

; 355  :       EmitError(INSTRUCTION_FORM_REQUIRES_80386);

	mov	ecx, 238				; 000000eeH
	call	EmitError
$LN69@output_opc:

; 356  :       //return( ERROR ); /* v2.06: don't skip instruction */
; 357  :     }
; 358  : #endif
; 359  :     OutputCodeByte(OPSIZ);

	mov	cl, 102					; 00000066H
	call	OutputByte
$LN68@output_opc:

; 360  :   }
; 361  :   /*
; 362  :    * Output segment prefix
; 363  :    */
; 364  :   if (CodeInfo->prefix.RegOverride != EMPTY) {

	mov	rax, QWORD PTR CodeInfo$[rsp]
	cmp	DWORD PTR [rax+4], -2
	je	SHORT $LN70@output_opc

; 365  :     OutputCodeByte(sr_prefix[CodeInfo->prefix.RegOverride]);

	mov	rax, QWORD PTR CodeInfo$[rsp]
	movsxd	rax, DWORD PTR [rax+4]
	lea	rcx, OFFSET FLAT:sr_prefix
	movzx	ecx, BYTE PTR [rcx+rax]
	call	OutputByte
$LN70@output_opc:

; 366  :   }
; 367  :   if (ins->opnd_dir) {

	mov	rax, QWORD PTR ins$[rsp]
	movzx	eax, BYTE PTR [rax+6]
	test	eax, eax
	je	SHORT $LN71@output_opc

; 368  :     /* The reg and r/m fields are backwards */
; 369  :     tmp = CodeInfo->rm_byte;

	mov	rax, QWORD PTR CodeInfo$[rsp]
	movzx	eax, BYTE PTR [rax+104]
	mov	BYTE PTR tmp$[rsp], al

; 370  :     CodeInfo->rm_byte = (tmp & 0xc0) | ((tmp >> 3) & 0x7) | ((tmp << 3) & 0x38);

	movzx	eax, BYTE PTR tmp$[rsp]
	and	eax, 192				; 000000c0H
	movzx	ecx, BYTE PTR tmp$[rsp]
	sar	ecx, 3
	and	ecx, 7
	or	eax, ecx
	movzx	ecx, BYTE PTR tmp$[rsp]
	shl	ecx, 3
	and	ecx, 56					; 00000038H
	or	eax, ecx
	mov	rcx, QWORD PTR CodeInfo$[rsp]
	mov	BYTE PTR [rcx+104], al

; 371  : #if AMD64_SUPPORT
; 372  :     tmp = CodeInfo->prefix.rex;

	mov	rax, QWORD PTR CodeInfo$[rsp]
	movzx	eax, BYTE PTR [rax+8]
	mov	BYTE PTR tmp$[rsp], al

; 373  :     CodeInfo->prefix.rex = (tmp & 0xFA) | ((tmp & REX_R) >> 2) | ((tmp & REX_B) << 2);

	movzx	eax, BYTE PTR tmp$[rsp]
	and	eax, 250				; 000000faH
	movzx	ecx, BYTE PTR tmp$[rsp]
	and	ecx, 4
	sar	ecx, 2
	or	eax, ecx
	movzx	ecx, BYTE PTR tmp$[rsp]
	and	ecx, 1
	shl	ecx, 2
	or	eax, ecx
	mov	rcx, QWORD PTR CodeInfo$[rsp]
	mov	BYTE PTR [rcx+8], al
$LN71@output_opc:

; 374  : #endif
; 375  :   }
; 376  : #if AVXSUPP
; 377  :   if (ResWordTable[CodeInfo->token].flags & RWF_VEX) {

	mov	rax, QWORD PTR CodeInfo$[rsp]
	movsxd	rax, DWORD PTR [rax+24]
	imul	rax, rax, 16
	lea	rcx, OFFSET FLAT:ResWordTable
	movzx	eax, BYTE PTR [rcx+rax+3]
	and	eax, 8
	test	eax, eax
	je	$LN72@output_opc

; 378  :     uint_8 lbyte = 0;

	mov	BYTE PTR lbyte$5[rsp], 0

; 379  :     if (CodeInfo->evex_flag){

	mov	rax, QWORD PTR CodeInfo$[rsp]
	movzx	eax, BYTE PTR [rax+136]
	test	eax, eax
	je	SHORT $LN74@output_opc

; 380  :       lbyte |= 0x4;              //bite 3 must be set in P2 WVVVV1PP 

	movzx	eax, BYTE PTR lbyte$5[rsp]
	or	eax, 4
	mov	BYTE PTR lbyte$5[rsp], al
$LN74@output_opc:

; 381  :     }
; 382  :     switch (ins->byte1_info) {

	mov	rax, QWORD PTR ins$[rsp]
	movzx	eax, BYTE PTR [rax+1]
	mov	DWORD PTR tv412[rsp], eax
	mov	eax, DWORD PTR tv412[rsp]
	sub	eax, 18
	mov	DWORD PTR tv412[rsp], eax
	cmp	DWORD PTR tv412[rsp], 10
	ja	SHORT $LN6@output_opc
	movsxd	rax, DWORD PTR tv412[rsp]
	lea	rcx, OFFSET FLAT:__ImageBase
	mov	eax, DWORD PTR $LN551@output_opc[rcx+rax*4]
	add	rax, rcx
	jmp	rax
$LN75@output_opc:

; 383  :     case F_660F:
; 384  :     case F_660F38:
; 385  :     case F_660F3A:
; 386  :       lbyte |= 0x01;

	movzx	eax, BYTE PTR lbyte$5[rsp]
	or	eax, 1
	mov	BYTE PTR lbyte$5[rsp], al

; 387  :       break;

	jmp	SHORT $LN6@output_opc
$LN76@output_opc:

; 388  :     case F_F30F:
; 389  :     case F_F30F38:
; 390  :       lbyte |= 0x02;

	movzx	eax, BYTE PTR lbyte$5[rsp]
	or	eax, 2
	mov	BYTE PTR lbyte$5[rsp], al

; 391  :       break;

	jmp	SHORT $LN6@output_opc
$LN77@output_opc:

; 392  :     case F_F20F:
; 393  :     case F_F20F38:
; 394  :       lbyte |= 0x03;

	movzx	eax, BYTE PTR lbyte$5[rsp]
	or	eax, 3
	mov	BYTE PTR lbyte$5[rsp], al
$LN6@output_opc:

; 395  :       break;
; 396  :     }
; 397  :     if ((CodeInfo->token >= T_VSHUFF32X4) && (CodeInfo->token <= T_VSHUFI64X2) &&

	mov	rax, QWORD PTR CodeInfo$[rsp]
	cmp	DWORD PTR [rax+24], 1589		; 00000635H
	jl	SHORT $LN78@output_opc
	mov	rax, QWORD PTR CodeInfo$[rsp]
	cmp	DWORD PTR [rax+24], 1592		; 00000638H
	jg	SHORT $LN78@output_opc
	mov	eax, 24
	imul	rax, rax, 0
	mov	rcx, QWORD PTR CodeInfo$[rsp]
	mov	eax, DWORD PTR [rcx+rax+32]
	and	eax, 32					; 00000020H
	test	eax, eax
	jne	SHORT $LN79@output_opc
	mov	eax, 24
	imul	rax, rax, 1
	mov	rcx, QWORD PTR CodeInfo$[rsp]
	mov	eax, DWORD PTR [rcx+rax+32]
	and	eax, 32					; 00000020H
	test	eax, eax
	je	SHORT $LN78@output_opc
$LN79@output_opc:

; 398  :       ((CodeInfo->opnd[OPND1].type & OP_XMM) || (CodeInfo->opnd[OPND2].type & OP_XMM)))
; 399  :       EmitError(INVALID_COMBINATION_OF_OPCODE_AND_OPERANDS); //Only YMM and ZMM alowed    

	mov	ecx, 14
	call	EmitError
$LN78@output_opc:

; 400  :     if (CodeInfo->vexregop)

	mov	rax, QWORD PTR CodeInfo$[rsp]
	movzx	eax, BYTE PTR [rax+128]
	test	eax, eax
	je	SHORT $LN80@output_opc

; 401  :       lbyte |= ((16 - CodeInfo->vexregop) << 3);

	mov	rax, QWORD PTR CodeInfo$[rsp]
	movzx	eax, BYTE PTR [rax+128]
	mov	ecx, 16
	sub	ecx, eax
	mov	eax, ecx
	shl	eax, 3
	movzx	ecx, BYTE PTR lbyte$5[rsp]
	or	ecx, eax
	mov	eax, ecx
	mov	BYTE PTR lbyte$5[rsp], al
	jmp	SHORT $LN81@output_opc
$LN80@output_opc:

; 402  :     else {
; 403  :       lbyte |= EVEX_P1VVVV;

	movzx	eax, BYTE PTR lbyte$5[rsp]
	or	eax, 120				; 00000078H
	mov	BYTE PTR lbyte$5[rsp], al

; 404  :       CodeInfo->evex_p2 |= EVEX_P2VMASK;

	mov	rax, QWORD PTR CodeInfo$[rsp]
	movzx	eax, BYTE PTR [rax+139]
	or	eax, 8
	mov	rcx, QWORD PTR CodeInfo$[rsp]
	mov	BYTE PTR [rcx+139], al
$LN81@output_opc:

; 405  :     }
; 406  : 	if ((CodeInfo->token >= T_VBROADCASTF128) && (CodeInfo->token <= T_VPBROADCASTQ)) {

	mov	rax, QWORD PTR CodeInfo$[rsp]
	cmp	DWORD PTR [rax+24], 1293		; 0000050dH
	jl	SHORT $LN82@output_opc
	mov	rax, QWORD PTR CodeInfo$[rsp]
	cmp	DWORD PTR [rax+24], 1297		; 00000511H
	jg	SHORT $LN82@output_opc

; 407  : 		if (!decoflags)CodeInfo->evex_flag = 0;

	movzx	eax, BYTE PTR decoflags
	test	eax, eax
	jne	SHORT $LN83@output_opc
	mov	rax, QWORD PTR CodeInfo$[rsp]
	mov	BYTE PTR [rax+136], 0
$LN83@output_opc:
$LN82@output_opc:

; 408  : 	}
; 409  :         /* emit 4 byte (0x62), 3 (0xC4) or 2 (0xC5) byte VEX prefix */
; 410  :         if ((CodeInfo->token ==  T_VMOVMSKPD )||(CodeInfo->token ==  T_VMOVMSKPS )) 

	mov	rax, QWORD PTR CodeInfo$[rsp]
	cmp	DWORD PTR [rax+24], 1941		; 00000795H
	je	SHORT $LN85@output_opc
	mov	rax, QWORD PTR CodeInfo$[rsp]
	cmp	DWORD PTR [rax+24], 1942		; 00000796H
	jne	SHORT $LN84@output_opc
$LN85@output_opc:

; 411  :           CodeInfo->prefix.rex &= ~REX_W;

	mov	rax, QWORD PTR CodeInfo$[rsp]
	movzx	eax, BYTE PTR [rax+8]
	and	eax, -9
	mov	rcx, QWORD PTR CodeInfo$[rsp]
	mov	BYTE PTR [rcx+8], al
$LN84@output_opc:

; 412  :         if (( ins->byte1_info >= F_0F38) || ( CodeInfo->prefix.rex & ( REX_B | REX_X | REX_W ) )|| 
; 413  :           (( ins->byte1_info == F_0F) && (CodeInfo->token ==  T_KMOVQ )) || (ins->byte1_info == F_660F) && 

	mov	rax, QWORD PTR ins$[rsp]
	movzx	eax, BYTE PTR [rax+1]
	cmp	eax, 23
	jge	SHORT $LN88@output_opc
	mov	rax, QWORD PTR CodeInfo$[rsp]
	movzx	eax, BYTE PTR [rax+8]
	and	eax, 11
	test	eax, eax
	jne	SHORT $LN88@output_opc
	mov	rax, QWORD PTR ins$[rsp]
	movzx	eax, BYTE PTR [rax+1]
	cmp	eax, 16
	jne	SHORT $LN89@output_opc
	mov	rax, QWORD PTR CodeInfo$[rsp]
	cmp	DWORD PTR [rax+24], 1727		; 000006bfH
	je	SHORT $LN88@output_opc
$LN89@output_opc:
	mov	rax, QWORD PTR ins$[rsp]
	movzx	eax, BYTE PTR [rax+1]
	cmp	eax, 18
	jne	$LN86@output_opc
	mov	rax, QWORD PTR CodeInfo$[rsp]
	cmp	DWORD PTR [rax+24], 1726		; 000006beH
	jne	$LN86@output_opc
$LN88@output_opc:

; 414  :            (CodeInfo->token ==  T_KMOVD )){
; 415  :             uint_8 byte1 = 0;      //RXBR00MM

	mov	BYTE PTR byte1$6[rsp], 0

; 416  :             /* first byte is 0xC4  in 3 byte VEX prefix */  
; 417  :             if (CodeInfo->evex_flag) 

	mov	rax, QWORD PTR CodeInfo$[rsp]
	movzx	eax, BYTE PTR [rax+136]
	test	eax, eax
	je	SHORT $LN90@output_opc

; 418  :               OutputCodeByte( 0x62 ); //AVX512 EVEX first byte

	mov	cl, 98					; 00000062H
	call	OutputByte
	jmp	$LN91@output_opc
$LN90@output_opc:

; 419  :             else{
; 420  :               OutputCodeByte(0xC4);

	mov	cl, 196					; 000000c4H
	call	OutputByte

; 421  :               if (CodeInfo->opnd[OPND1].type == OP_YMM || CodeInfo->opnd[OPND2].type == OP_YMM)

	mov	eax, 24
	imul	rax, rax, 0
	mov	rcx, QWORD PTR CodeInfo$[rsp]
	cmp	DWORD PTR [rcx+rax+32], 128		; 00000080H
	je	SHORT $LN94@output_opc
	mov	eax, 24
	imul	rax, rax, 1
	mov	rcx, QWORD PTR CodeInfo$[rsp]
	cmp	DWORD PTR [rcx+rax+32], 128		; 00000080H
	jne	SHORT $LN92@output_opc
$LN94@output_opc:

; 422  :                  lbyte |= 0x04;

	movzx	eax, BYTE PTR lbyte$5[rsp]
	or	eax, 4
	mov	BYTE PTR lbyte$5[rsp], al
	jmp	SHORT $LN93@output_opc
$LN92@output_opc:

; 423  :               else
; 424  :                 lbyte &= ~0x04;

	movzx	eax, BYTE PTR lbyte$5[rsp]
	and	eax, -5
	mov	BYTE PTR lbyte$5[rsp], al
$LN93@output_opc:

; 425  :               CodeInfo->tuple = 0;

	mov	rax, QWORD PTR CodeInfo$[rsp]
	mov	BYTE PTR [rax+140], 0

; 426  :               /* This fixes AVX  REX_W wide 32 <-> 64 instructions third byte bit W*/
; 427  :               lbyte &= ~EVEX_P1WMASK;        //make sure it is not set if not 64 bit

	movzx	eax, BYTE PTR lbyte$5[rsp]
	btr	eax, 7
	mov	BYTE PTR lbyte$5[rsp], al

; 428  :               lbyte |= ((CodeInfo->pinstr->prefix) >> 8 & 0x80); // set only W bit if 64 bit

	mov	rax, QWORD PTR CodeInfo$[rsp]
	mov	rax, QWORD PTR [rax+16]
	movzx	eax, WORD PTR [rax+8]
	sar	eax, 8
	and	eax, 128				; 00000080H
	movzx	ecx, BYTE PTR lbyte$5[rsp]
	or	ecx, eax
	mov	eax, ecx
	mov	BYTE PTR lbyte$5[rsp], al
$LN91@output_opc:

; 429  :             }
; 430  :             switch ( ins->byte1_info ) {                     

	mov	rax, QWORD PTR ins$[rsp]
	movzx	eax, BYTE PTR [rax+1]
	mov	DWORD PTR tv527[rsp], eax
	mov	eax, DWORD PTR tv527[rsp]
	sub	eax, 23
	mov	DWORD PTR tv527[rsp], eax
	cmp	DWORD PTR tv527[rsp], 6
	ja	SHORT $LN97@output_opc
	movsxd	rax, DWORD PTR tv527[rsp]
	lea	rcx, OFFSET FLAT:__ImageBase
	mov	eax, DWORD PTR $LN550@output_opc[rcx+rax*4]
	add	rax, rcx
	jmp	rax
$LN95@output_opc:

; 431  :             case F_0F38:                                     
; 432  :             case F_660F38:                                   
; 433  :             case F_F20F38:
; 434  :             case F_F30F38:
; 435  :                 byte1 |= 0x02;

	movzx	eax, BYTE PTR byte1$6[rsp]
	or	eax, 2
	mov	BYTE PTR byte1$6[rsp], al

; 436  :                 break;

	jmp	SHORT $LN8@output_opc
$LN96@output_opc:

; 437  :             case F_0F3A:
; 438  :             case F_660F3A:
; 439  :             case F_F20F3A:
; 440  :                 byte1 |= 0x03;

	movzx	eax, BYTE PTR byte1$6[rsp]
	or	eax, 3
	mov	BYTE PTR byte1$6[rsp], al

; 441  :                 break;

	jmp	SHORT $LN8@output_opc
$LN97@output_opc:

; 442  :             default:
; 443  :                 if ( ins->byte1_info >= F_0F )

	mov	rax, QWORD PTR ins$[rsp]
	movzx	eax, BYTE PTR [rax+1]
	cmp	eax, 16
	jl	SHORT $LN98@output_opc

; 444  :                     byte1 |= 0x01;

	movzx	eax, BYTE PTR byte1$6[rsp]
	or	eax, 1
	mov	BYTE PTR byte1$6[rsp], al
$LN98@output_opc:
$LN8@output_opc:

; 445  :             }
; 446  :               byte1 |= ((CodeInfo->prefix.rex & REX_B) ? 0 : 0x20);/*  REX_B regno 0-7 <-> 8-15 of ModR/M or SIB base */

	mov	rax, QWORD PTR CodeInfo$[rsp]
	movzx	eax, BYTE PTR [rax+8]
	and	eax, 1
	test	eax, eax
	je	SHORT $LN539@output_opc
	mov	DWORD PTR tv546[rsp], 0
	jmp	SHORT $LN540@output_opc
$LN539@output_opc:
	mov	DWORD PTR tv546[rsp], 32		; 00000020H
$LN540@output_opc:
	movzx	eax, BYTE PTR byte1$6[rsp]
	or	eax, DWORD PTR tv546[rsp]
	mov	BYTE PTR byte1$6[rsp], al

; 447  :               byte1 |= ((CodeInfo->prefix.rex & REX_X) ? 0 : 0x40);/*  REX_X regno 0-7 <-> 8-15 of SIB index */

	mov	rax, QWORD PTR CodeInfo$[rsp]
	movzx	eax, BYTE PTR [rax+8]
	and	eax, 2
	test	eax, eax
	je	SHORT $LN541@output_opc
	mov	DWORD PTR tv554[rsp], 0
	jmp	SHORT $LN542@output_opc
$LN541@output_opc:
	mov	DWORD PTR tv554[rsp], 64		; 00000040H
$LN542@output_opc:
	movzx	eax, BYTE PTR byte1$6[rsp]
	or	eax, DWORD PTR tv554[rsp]
	mov	BYTE PTR byte1$6[rsp], al

; 448  :               byte1 |= ((CodeInfo->prefix.rex & REX_R) ? 0 : 0x80);/*  REX_R regno 0-7 <-> 8-15 of ModR/M REG */

	mov	rax, QWORD PTR CodeInfo$[rsp]
	movzx	eax, BYTE PTR [rax+8]
	and	eax, 4
	test	eax, eax
	je	SHORT $LN543@output_opc
	mov	DWORD PTR tv562[rsp], 0
	jmp	SHORT $LN544@output_opc
$LN543@output_opc:
	mov	DWORD PTR tv562[rsp], 128		; 00000080H
$LN544@output_opc:
	movzx	eax, BYTE PTR byte1$6[rsp]
	or	eax, DWORD PTR tv562[rsp]
	mov	BYTE PTR byte1$6[rsp], al

; 449  :               //this still needs to be checked
; 450  :               if ((CodeInfo->evex_flag)&& (CodeInfo->reg2 <= 15))byte1 |= EVEX_P0R1MASK;

	mov	rax, QWORD PTR CodeInfo$[rsp]
	movzx	eax, BYTE PTR [rax+136]
	test	eax, eax
	je	SHORT $LN99@output_opc
	mov	rax, QWORD PTR CodeInfo$[rsp]
	movzx	eax, BYTE PTR [rax+110]
	cmp	eax, 15
	jg	SHORT $LN99@output_opc
	movzx	eax, BYTE PTR byte1$6[rsp]
	or	eax, 16
	mov	BYTE PTR byte1$6[rsp], al
$LN99@output_opc:

; 451  :             /* second byte is RXBm mmmm of 3 byte  VEX prefix */    /*  REX_W wide 32 <-> 64 */
; 452  :                if ((CodeInfo->evex_flag) && (CodeInfo->token != T_VEXTRACTPS)){ 

	mov	rax, QWORD PTR CodeInfo$[rsp]
	movzx	eax, BYTE PTR [rax+136]
	test	eax, eax
	je	$LN100@output_opc
	mov	rax, QWORD PTR CodeInfo$[rsp]
	cmp	DWORD PTR [rax+24], 1917		; 0000077dH
	je	$LN100@output_opc

; 453  :                  if ((CodeInfo->opnd[OPND1].type & OP_M_ANY) || (CodeInfo->opnd[OPND2].type & OP_M_ANY) ||

	mov	eax, 24
	imul	rax, rax, 0
	mov	rcx, QWORD PTR CodeInfo$[rsp]
	mov	eax, DWORD PTR [rcx+rax+32]
	and	eax, -8388608				; ffffffffff800000H
	test	eax, eax
	jne	SHORT $LN102@output_opc
	mov	eax, 24
	imul	rax, rax, 1
	mov	rcx, QWORD PTR CodeInfo$[rsp]
	mov	eax, DWORD PTR [rcx+rax+32]
	and	eax, -8388608				; ffffffffff800000H
	test	eax, eax
	jne	SHORT $LN102@output_opc
	mov	eax, 24
	imul	rax, rax, 2
	mov	rcx, QWORD PTR CodeInfo$[rsp]
	mov	eax, DWORD PTR [rcx+rax+32]
	and	eax, -8388608				; ffffffffff800000H
	test	eax, eax
	je	SHORT $LN101@output_opc
$LN102@output_opc:

; 454  :                    (CodeInfo->opnd[OPND3].type & OP_M_ANY)) CodeInfo->tuple = TRUE;

	mov	rax, QWORD PTR CodeInfo$[rsp]
	mov	BYTE PTR [rax+140], 1
$LN101@output_opc:

; 455  :                  lbyte &= ~EVEX_P1WMASK;

	movzx	eax, BYTE PTR lbyte$5[rsp]
	btr	eax, 7
	mov	BYTE PTR lbyte$5[rsp], al

; 456  :                  lbyte |= ((CodeInfo->pinstr->prefix) >> 8 & 0x80);

	mov	rax, QWORD PTR CodeInfo$[rsp]
	mov	rax, QWORD PTR [rax+16]
	movzx	eax, WORD PTR [rax+8]
	sar	eax, 8
	and	eax, 128				; 00000080H
	movzx	ecx, BYTE PTR lbyte$5[rsp]
	or	ecx, eax
	mov	eax, ecx
	mov	BYTE PTR lbyte$5[rsp], al

; 457  :                  if ((CodeInfo->opnd[OPND2].type == OP_M64)||(CodeInfo->opnd[OPND1].type == OP_M64)) 

	mov	eax, 24
	imul	rax, rax, 1
	mov	rcx, QWORD PTR CodeInfo$[rsp]
	cmp	DWORD PTR [rcx+rax+32], 67108864	; 04000000H
	je	SHORT $LN104@output_opc
	mov	eax, 24
	imul	rax, rax, 0
	mov	rcx, QWORD PTR CodeInfo$[rsp]
	cmp	DWORD PTR [rcx+rax+32], 67108864	; 04000000H
	jne	SHORT $LN103@output_opc
$LN104@output_opc:

; 458  :                    lbyte |= EVEX_P1WMASK;

	movzx	eax, BYTE PTR lbyte$5[rsp]
	bts	eax, 7
	mov	BYTE PTR lbyte$5[rsp], al
$LN103@output_opc:

; 459  :                  if ((CodeInfo->opnd[OPND2].type == OP_R32) || (CodeInfo->opnd[OPND2].type == OP_EAX)||
; 460  :                     (CodeInfo->opnd[OPND1].type == OP_R32) || (CodeInfo->opnd[OPND1].type == OP_EAX)){

	mov	eax, 24
	imul	rax, rax, 1
	mov	rcx, QWORD PTR CodeInfo$[rsp]
	cmp	DWORD PTR [rcx+rax+32], 4
	je	SHORT $LN106@output_opc
	mov	eax, 24
	imul	rax, rax, 1
	mov	rcx, QWORD PTR CodeInfo$[rsp]
	cmp	DWORD PTR [rcx+rax+32], 516		; 00000204H
	je	SHORT $LN106@output_opc
	mov	eax, 24
	imul	rax, rax, 0
	mov	rcx, QWORD PTR CodeInfo$[rsp]
	cmp	DWORD PTR [rcx+rax+32], 4
	je	SHORT $LN106@output_opc
	mov	eax, 24
	imul	rax, rax, 0
	mov	rcx, QWORD PTR CodeInfo$[rsp]
	cmp	DWORD PTR [rcx+rax+32], 516		; 00000204H
	jne	SHORT $LN105@output_opc
$LN106@output_opc:

; 461  :                    lbyte &= ~EVEX_P1WMASK;

	movzx	eax, BYTE PTR lbyte$5[rsp]
	btr	eax, 7
	mov	BYTE PTR lbyte$5[rsp], al
$LN105@output_opc:

; 462  :                  }
; 463  :                  if (((CodeInfo->opnd[OPND1].type & OP_M_ANY) == 0)&&

	mov	eax, 24
	imul	rax, rax, 0
	mov	rcx, QWORD PTR CodeInfo$[rsp]
	mov	eax, DWORD PTR [rcx+rax+32]
	and	eax, -8388608				; ffffffffff800000H
	test	eax, eax
	jne	$LN107@output_opc
	mov	rax, QWORD PTR CodeInfo$[rsp]
	cmp	DWORD PTR [rax+24], 1428		; 00000594H
	je	$LN107@output_opc
	mov	rax, QWORD PTR CodeInfo$[rsp]
	cmp	DWORD PTR [rax+24], 1571		; 00000623H
	je	$LN107@output_opc

; 464  :                    ((CodeInfo->token != T_VCVTPS2PH) && CodeInfo->token != T_VPMOVQB)) {
; 465  :                    if (CodeInfo->reg1 <= 15)

	mov	rax, QWORD PTR CodeInfo$[rsp]
	movzx	eax, BYTE PTR [rax+109]
	cmp	eax, 15
	jg	SHORT $LN108@output_opc

; 466  :                      byte1 |= EVEX_P0R1MASK;

	movzx	eax, BYTE PTR byte1$6[rsp]
	or	eax, 16
	mov	BYTE PTR byte1$6[rsp], al
	jmp	SHORT $LN109@output_opc
$LN108@output_opc:

; 467  :                    else
; 468  :                      byte1 &= ~EVEX_P0R1MASK;

	movzx	eax, BYTE PTR byte1$6[rsp]
	and	eax, -17
	mov	BYTE PTR byte1$6[rsp], al
$LN109@output_opc:

; 469  :                    if ((CodeInfo->reg1 <= 7) || (CodeInfo->reg1 >= 16 && CodeInfo->reg1 <= 23))

	mov	rax, QWORD PTR CodeInfo$[rsp]
	movzx	eax, BYTE PTR [rax+109]
	cmp	eax, 7
	jle	SHORT $LN112@output_opc
	mov	rax, QWORD PTR CodeInfo$[rsp]
	movzx	eax, BYTE PTR [rax+109]
	cmp	eax, 16
	jl	SHORT $LN110@output_opc
	mov	rax, QWORD PTR CodeInfo$[rsp]
	movzx	eax, BYTE PTR [rax+109]
	cmp	eax, 23
	jg	SHORT $LN110@output_opc
$LN112@output_opc:

; 470  :                      byte1 |= EVEX_P0RMASK;

	movzx	eax, BYTE PTR byte1$6[rsp]
	bts	eax, 7
	mov	BYTE PTR byte1$6[rsp], al
	jmp	SHORT $LN111@output_opc
$LN110@output_opc:

; 471  :                    else
; 472  :                      byte1 &= ~EVEX_P0RMASK;

	movzx	eax, BYTE PTR byte1$6[rsp]
	btr	eax, 7
	mov	BYTE PTR byte1$6[rsp], al
$LN111@output_opc:

; 473  :                    if (CodeInfo->reg3 != 0xff)     

	mov	rax, QWORD PTR CodeInfo$[rsp]
	movzx	eax, BYTE PTR [rax+111]
	cmp	eax, 255				; 000000ffH
	je	SHORT $LN113@output_opc

; 474  :                      rn = CodeInfo->reg3;

	mov	rax, QWORD PTR CodeInfo$[rsp]
	movzx	eax, BYTE PTR [rax+111]
	mov	DWORD PTR rn$[rsp], eax
	jmp	SHORT $LN114@output_opc
$LN113@output_opc:

; 475  :                    else if (CodeInfo->basereg != 0xff)

	mov	rax, QWORD PTR CodeInfo$[rsp]
	movzx	eax, BYTE PTR [rax+113]
	cmp	eax, 255				; 000000ffH
	je	SHORT $LN115@output_opc

; 476  :                      rn = CodeInfo->basereg;

	mov	rax, QWORD PTR CodeInfo$[rsp]
	movzx	eax, BYTE PTR [rax+113]
	mov	DWORD PTR rn$[rsp], eax
	jmp	SHORT $LN116@output_opc
$LN115@output_opc:

; 477  :                    else rn = CodeInfo->reg2;

	mov	rax, QWORD PTR CodeInfo$[rsp]
	movzx	eax, BYTE PTR [rax+110]
	mov	DWORD PTR rn$[rsp], eax
$LN116@output_opc:
$LN114@output_opc:

; 478  :                    if (rn > 15){

	cmp	DWORD PTR rn$[rsp], 15
	jle	SHORT $LN117@output_opc

; 479  :                      rn -= 15;

	mov	eax, DWORD PTR rn$[rsp]
	sub	eax, 15
	mov	DWORD PTR rn$[rsp], eax

; 480  :                      byte1 &= ~EVEX_P0XMASK;

	movzx	eax, BYTE PTR byte1$6[rsp]
	and	eax, -65				; ffffffffffffffbfH
	mov	BYTE PTR byte1$6[rsp], al
$LN117@output_opc:

; 481  :                    }
; 482  :                    if (rn <= 7)byte1 |= EVEX_P0BMASK;

	cmp	DWORD PTR rn$[rsp], 7
	jg	SHORT $LN118@output_opc
	movzx	eax, BYTE PTR byte1$6[rsp]
	or	eax, 32					; 00000020H
	mov	BYTE PTR byte1$6[rsp], al
	jmp	SHORT $LN119@output_opc
$LN118@output_opc:

; 483  :                    else byte1 &= ~EVEX_P0BMASK;

	movzx	eax, BYTE PTR byte1$6[rsp]
	and	eax, -33				; ffffffffffffffdfH
	mov	BYTE PTR byte1$6[rsp], al
$LN119@output_opc:
$LN107@output_opc:
$LN100@output_opc:

; 484  :                  }
; 485  :                }
; 486  :             if (CodeInfo->token >= T_VPSCATTERDD && CodeInfo->token <= T_VSCATTERQPD){

	mov	rax, QWORD PTR CodeInfo$[rsp]
	cmp	DWORD PTR [rax+24], 1348		; 00000544H
	jl	$LN120@output_opc
	mov	rax, QWORD PTR CodeInfo$[rsp]
	cmp	DWORD PTR [rax+24], 1355		; 0000054bH
	jg	$LN120@output_opc

; 487  :               if (CodeInfo->reg2 <= 15) byte1 |= EVEX_P0R1MASK;

	mov	rax, QWORD PTR CodeInfo$[rsp]
	movzx	eax, BYTE PTR [rax+110]
	cmp	eax, 15
	jg	SHORT $LN121@output_opc
	movzx	eax, BYTE PTR byte1$6[rsp]
	or	eax, 16
	mov	BYTE PTR byte1$6[rsp], al
	jmp	SHORT $LN122@output_opc
$LN121@output_opc:

; 488  :               else byte1 &= ~EVEX_P0R1MASK;

	movzx	eax, BYTE PTR byte1$6[rsp]
	and	eax, -17
	mov	BYTE PTR byte1$6[rsp], al
$LN122@output_opc:

; 489  :               if (CodeInfo->reg2 <= 7 )  byte1 |= EVEX_P0RMASK;

	mov	rax, QWORD PTR CodeInfo$[rsp]
	movzx	eax, BYTE PTR [rax+110]
	cmp	eax, 7
	jg	SHORT $LN123@output_opc
	movzx	eax, BYTE PTR byte1$6[rsp]
	bts	eax, 7
	mov	BYTE PTR byte1$6[rsp], al
	jmp	SHORT $LN124@output_opc
$LN123@output_opc:

; 490  :               else if (CodeInfo->reg2 >= 16 && CodeInfo->reg2 <= 23) byte1 |= EVEX_P0RMASK;

	mov	rax, QWORD PTR CodeInfo$[rsp]
	movzx	eax, BYTE PTR [rax+110]
	cmp	eax, 16
	jl	SHORT $LN125@output_opc
	mov	rax, QWORD PTR CodeInfo$[rsp]
	movzx	eax, BYTE PTR [rax+110]
	cmp	eax, 23
	jg	SHORT $LN125@output_opc
	movzx	eax, BYTE PTR byte1$6[rsp]
	bts	eax, 7
	mov	BYTE PTR byte1$6[rsp], al
	jmp	SHORT $LN126@output_opc
$LN125@output_opc:

; 491  :               else byte1 &= ~EVEX_P0RMASK;

	movzx	eax, BYTE PTR byte1$6[rsp]
	btr	eax, 7
	mov	BYTE PTR byte1$6[rsp], al
$LN126@output_opc:
$LN124@output_opc:
$LN120@output_opc:

; 492  :             }
; 493  :               if (((CodeInfo->token == T_VMOVHPS)||(CodeInfo->token == T_VMOVLPS)) && (CodeInfo->opnd[OPND2].type & OP_XMM)){

	mov	rax, QWORD PTR CodeInfo$[rsp]
	cmp	DWORD PTR [rax+24], 1936		; 00000790H
	je	SHORT $LN128@output_opc
	mov	rax, QWORD PTR CodeInfo$[rsp]
	cmp	DWORD PTR [rax+24], 1938		; 00000792H
	jne	SHORT $LN127@output_opc
$LN128@output_opc:
	mov	eax, 24
	imul	rax, rax, 1
	mov	rcx, QWORD PTR CodeInfo$[rsp]
	mov	eax, DWORD PTR [rcx+rax+32]
	and	eax, 32					; 00000020H
	test	eax, eax
	je	SHORT $LN127@output_opc

; 494  :                 if ((CodeInfo->reg2 > 7))

	mov	rax, QWORD PTR CodeInfo$[rsp]
	movzx	eax, BYTE PTR [rax+110]
	cmp	eax, 7
	jle	SHORT $LN129@output_opc

; 495  :                     byte1 &= ~EVEX_P0RMASK;

	movzx	eax, BYTE PTR byte1$6[rsp]
	btr	eax, 7
	mov	BYTE PTR byte1$6[rsp], al
$LN129@output_opc:

; 496  :                     lbyte &= ~EVEX_P1WMASK;

	movzx	eax, BYTE PTR lbyte$5[rsp]
	btr	eax, 7
	mov	BYTE PTR lbyte$5[rsp], al
$LN127@output_opc:

; 497  :               }
; 498  :               if ((CodeInfo->token == T_VMOVNTPD)||(CodeInfo->token == T_VMOVNTPS)||                                

	mov	rax, QWORD PTR CodeInfo$[rsp]
	cmp	DWORD PTR [rax+24], 1945		; 00000799H
	je	SHORT $LN131@output_opc
	mov	rax, QWORD PTR CodeInfo$[rsp]
	cmp	DWORD PTR [rax+24], 1946		; 0000079aH
	je	SHORT $LN131@output_opc
	mov	rax, QWORD PTR CodeInfo$[rsp]
	cmp	DWORD PTR [rax+24], 1571		; 00000623H
	jl	$LN130@output_opc
	mov	rax, QWORD PTR CodeInfo$[rsp]
	cmp	DWORD PTR [rax+24], 1585		; 00000631H
	jg	$LN130@output_opc
$LN131@output_opc:

; 499  :                 (CodeInfo->token >= T_VPMOVQB)&&(CodeInfo->token <= T_VPMOVUSDW)){
; 500  :                 if (CodeInfo->reg2 <= 15) byte1 |= EVEX_P0R1MASK;

	mov	rax, QWORD PTR CodeInfo$[rsp]
	movzx	eax, BYTE PTR [rax+110]
	cmp	eax, 15
	jg	SHORT $LN132@output_opc
	movzx	eax, BYTE PTR byte1$6[rsp]
	or	eax, 16
	mov	BYTE PTR byte1$6[rsp], al
	jmp	SHORT $LN133@output_opc
$LN132@output_opc:

; 501  :                 else byte1 &= ~EVEX_P0R1MASK;

	movzx	eax, BYTE PTR byte1$6[rsp]
	and	eax, -17
	mov	BYTE PTR byte1$6[rsp], al
$LN133@output_opc:

; 502  :                 if ((CodeInfo->reg2 <= 7) || (CodeInfo->reg2 >= 16 && CodeInfo->reg2 <= 23))

	mov	rax, QWORD PTR CodeInfo$[rsp]
	movzx	eax, BYTE PTR [rax+110]
	cmp	eax, 7
	jle	SHORT $LN136@output_opc
	mov	rax, QWORD PTR CodeInfo$[rsp]
	movzx	eax, BYTE PTR [rax+110]
	cmp	eax, 16
	jl	SHORT $LN134@output_opc
	mov	rax, QWORD PTR CodeInfo$[rsp]
	movzx	eax, BYTE PTR [rax+110]
	cmp	eax, 23
	jg	SHORT $LN134@output_opc
$LN136@output_opc:

; 503  :                   byte1 |= EVEX_P0RMASK;

	movzx	eax, BYTE PTR byte1$6[rsp]
	bts	eax, 7
	mov	BYTE PTR byte1$6[rsp], al
	jmp	SHORT $LN135@output_opc
$LN134@output_opc:

; 504  :                 else byte1 &= ~EVEX_P0RMASK;

	movzx	eax, BYTE PTR byte1$6[rsp]
	btr	eax, 7
	mov	BYTE PTR byte1$6[rsp], al
$LN135@output_opc:

; 505  :                 if (CodeInfo->reg1 <= 15) byte1 |= EVEX_P0XMASK;

	mov	rax, QWORD PTR CodeInfo$[rsp]
	movzx	eax, BYTE PTR [rax+109]
	cmp	eax, 15
	jg	SHORT $LN137@output_opc
	movzx	eax, BYTE PTR byte1$6[rsp]
	or	eax, 64					; 00000040H
	mov	BYTE PTR byte1$6[rsp], al
	jmp	SHORT $LN138@output_opc
$LN137@output_opc:

; 506  :                 else byte1 &= ~EVEX_P0XMASK;

	movzx	eax, BYTE PTR byte1$6[rsp]
	and	eax, -65				; ffffffffffffffbfH
	mov	BYTE PTR byte1$6[rsp], al
$LN138@output_opc:

; 507  :                 if ((CodeInfo->reg1 <= 7) || (CodeInfo->reg1 >= 16 && CodeInfo->reg1 <= 23))

	mov	rax, QWORD PTR CodeInfo$[rsp]
	movzx	eax, BYTE PTR [rax+109]
	cmp	eax, 7
	jle	SHORT $LN141@output_opc
	mov	rax, QWORD PTR CodeInfo$[rsp]
	movzx	eax, BYTE PTR [rax+109]
	cmp	eax, 16
	jl	SHORT $LN139@output_opc
	mov	rax, QWORD PTR CodeInfo$[rsp]
	movzx	eax, BYTE PTR [rax+109]
	cmp	eax, 23
	jg	SHORT $LN139@output_opc
$LN141@output_opc:

; 508  :                   byte1 |= EVEX_P0BMASK;

	movzx	eax, BYTE PTR byte1$6[rsp]
	or	eax, 32					; 00000020H
	mov	BYTE PTR byte1$6[rsp], al
	jmp	SHORT $LN140@output_opc
$LN139@output_opc:

; 509  :                 else byte1 &= ~EVEX_P0BMASK;

	movzx	eax, BYTE PTR byte1$6[rsp]
	and	eax, -33				; ffffffffffffffdfH
	mov	BYTE PTR byte1$6[rsp], al
$LN140@output_opc:
$LN130@output_opc:

; 510  :               }
; 511  :               if (CodeInfo->opnd[OPND2].type == OP_I8){

	mov	eax, 24
	imul	rax, rax, 1
	mov	rcx, QWORD PTR CodeInfo$[rsp]
	cmp	DWORD PTR [rcx+rax+32], 131072		; 00020000H
	jne	$LN142@output_opc

; 512  :                 if ((CodeInfo->token >= T_VPSLLW) && (CodeInfo->token <= T_VPSRLQ) ||

	mov	rax, QWORD PTR CodeInfo$[rsp]
	cmp	DWORD PTR [rax+24], 2039		; 000007f7H
	jl	SHORT $LN145@output_opc
	mov	rax, QWORD PTR CodeInfo$[rsp]
	cmp	DWORD PTR [rax+24], 2046		; 000007feH
	jle	SHORT $LN144@output_opc
$LN145@output_opc:
	mov	rax, QWORD PTR CodeInfo$[rsp]
	cmp	DWORD PTR [rax+24], 1529		; 000005f9H
	jl	$LN143@output_opc
	mov	rax, QWORD PTR CodeInfo$[rsp]
	cmp	DWORD PTR [rax+24], 1546		; 0000060aH
	jg	$LN143@output_opc
$LN144@output_opc:

; 513  :                   (CodeInfo->token >= T_VPSLLVD) && (CodeInfo->token <= T_VPSRLVW)){
; 514  :                   byte1 |= EVEX_P0R1MASK;

	movzx	eax, BYTE PTR byte1$6[rsp]
	or	eax, 16
	mov	BYTE PTR byte1$6[rsp], al

; 515  :                   byte1 |= EVEX_P0RMASK;

	movzx	eax, BYTE PTR byte1$6[rsp]
	bts	eax, 7
	mov	BYTE PTR byte1$6[rsp], al

; 516  :                   if ((CodeInfo->opnd[OPND1].type == OP_R64) || (CodeInfo->opnd[OPND1].type == OP_RAX) ||
; 517  :                     (CodeInfo->opnd[OPND1].type == OP_R32) || (CodeInfo->opnd[OPND1].type == OP_EAX)){

	mov	eax, 24
	imul	rax, rax, 0
	mov	rcx, QWORD PTR CodeInfo$[rsp]
	cmp	DWORD PTR [rcx+rax+32], 8
	je	SHORT $LN148@output_opc
	mov	eax, 24
	imul	rax, rax, 0
	mov	rcx, QWORD PTR CodeInfo$[rsp]
	cmp	DWORD PTR [rcx+rax+32], 520		; 00000208H
	je	SHORT $LN148@output_opc
	mov	eax, 24
	imul	rax, rax, 0
	mov	rcx, QWORD PTR CodeInfo$[rsp]
	cmp	DWORD PTR [rcx+rax+32], 4
	je	SHORT $LN148@output_opc
	mov	eax, 24
	imul	rax, rax, 0
	mov	rcx, QWORD PTR CodeInfo$[rsp]
	cmp	DWORD PTR [rcx+rax+32], 516		; 00000204H
	jne	SHORT $LN146@output_opc
$LN148@output_opc:

; 518  :                       if (CodeInfo->basereg != 0xFF){

	mov	rax, QWORD PTR CodeInfo$[rsp]
	movzx	eax, BYTE PTR [rax+113]
	cmp	eax, 255				; 000000ffH
	je	SHORT $LN149@output_opc

; 519  :                         if (CodeInfo->basereg <= 7)   

	mov	rax, QWORD PTR CodeInfo$[rsp]
	movzx	eax, BYTE PTR [rax+113]
	cmp	eax, 7
	jg	SHORT $LN150@output_opc

; 520  :                           byte1 |= EVEX_P0BMASK;

	movzx	eax, BYTE PTR byte1$6[rsp]
	or	eax, 32					; 00000020H
	mov	BYTE PTR byte1$6[rsp], al
	jmp	SHORT $LN151@output_opc
$LN150@output_opc:

; 521  :                         else
; 522  :                           byte1 &= ~EVEX_P0BMASK;

	movzx	eax, BYTE PTR byte1$6[rsp]
	and	eax, -33				; ffffffffffffffdfH
	mov	BYTE PTR byte1$6[rsp], al
$LN151@output_opc:
$LN149@output_opc:

; 523  :                       }
; 524  :                     if (CodeInfo->indexreg != 0xFF){

	mov	rax, QWORD PTR CodeInfo$[rsp]
	movzx	eax, BYTE PTR [rax+112]
	cmp	eax, 255				; 000000ffH
	je	SHORT $LN152@output_opc

; 525  :                       if (CodeInfo->indexreg <= 7)   

	mov	rax, QWORD PTR CodeInfo$[rsp]
	movzx	eax, BYTE PTR [rax+112]
	cmp	eax, 7
	jg	SHORT $LN153@output_opc

; 526  :                         byte1 |= EVEX_P0XMASK;

	movzx	eax, BYTE PTR byte1$6[rsp]
	or	eax, 64					; 00000040H
	mov	BYTE PTR byte1$6[rsp], al
	jmp	SHORT $LN154@output_opc
$LN153@output_opc:

; 527  :                       else
; 528  :                         byte1 &= ~EVEX_P0XMASK;

	movzx	eax, BYTE PTR byte1$6[rsp]
	and	eax, -65				; ffffffffffffffbfH
	mov	BYTE PTR byte1$6[rsp], al
$LN154@output_opc:
$LN152@output_opc:

; 529  :                     }
; 530  :                   }

	jmp	SHORT $LN147@output_opc
$LN146@output_opc:

; 531  :                   else if (!CodeInfo->evex_flag)

	mov	rax, QWORD PTR CodeInfo$[rsp]
	movzx	eax, BYTE PTR [rax+136]
	test	eax, eax
	jne	SHORT $LN155@output_opc

; 532  :                     byte1 &= ~EVEX_P0R1MASK;

	movzx	eax, BYTE PTR byte1$6[rsp]
	and	eax, -17
	mov	BYTE PTR byte1$6[rsp], al
$LN155@output_opc:
$LN147@output_opc:
$LN143@output_opc:
$LN142@output_opc:

; 533  :                 }
; 534  :               }
; 535  :               if ((CodeInfo->token == T_VRNDSCALEPD) || (CodeInfo->token == T_VRNDSCALEPS)){

	mov	rax, QWORD PTR CodeInfo$[rsp]
	cmp	DWORD PTR [rax+24], 1610		; 0000064aH
	je	SHORT $LN157@output_opc
	mov	rax, QWORD PTR CodeInfo$[rsp]
	cmp	DWORD PTR [rax+24], 1611		; 0000064bH
	jne	$LN156@output_opc
$LN157@output_opc:

; 536  :                 if (((CodeInfo->r2type &= OP_R64)||(CodeInfo->r2type &= OP_R32))&&

	mov	rax, QWORD PTR CodeInfo$[rsp]
	mov	eax, DWORD PTR [rax+120]
	and	eax, 8
	mov	DWORD PTR tv885[rsp], eax
	mov	rax, QWORD PTR CodeInfo$[rsp]
	mov	ecx, DWORD PTR tv885[rsp]
	mov	DWORD PTR [rax+120], ecx
	cmp	DWORD PTR tv885[rsp], 0
	jne	SHORT $LN159@output_opc
	mov	rax, QWORD PTR CodeInfo$[rsp]
	mov	eax, DWORD PTR [rax+120]
	and	eax, 4
	mov	DWORD PTR tv889[rsp], eax
	mov	rax, QWORD PTR CodeInfo$[rsp]
	mov	ecx, DWORD PTR tv889[rsp]
	mov	DWORD PTR [rax+120], ecx
	cmp	DWORD PTR tv889[rsp], 0
	je	SHORT $LN158@output_opc
$LN159@output_opc:
	mov	rax, QWORD PTR CodeInfo$[rsp]
	cmp	DWORD PTR [rax+124], 0
	je	SHORT $LN158@output_opc

; 537  :                   (CodeInfo->vexconst)) { 
; 538  :                   if (CodeInfo->indexreg != 0xff){

	mov	rax, QWORD PTR CodeInfo$[rsp]
	movzx	eax, BYTE PTR [rax+112]
	cmp	eax, 255				; 000000ffH
	je	SHORT $LN160@output_opc

; 539  :                     if (CodeInfo->reg1 <= 7)

	mov	rax, QWORD PTR CodeInfo$[rsp]
	movzx	eax, BYTE PTR [rax+109]
	cmp	eax, 7
	jg	SHORT $LN161@output_opc

; 540  :                       byte1 |= EVEX_P0XMASK;

	movzx	eax, BYTE PTR byte1$6[rsp]
	or	eax, 64					; 00000040H
	mov	BYTE PTR byte1$6[rsp], al
	jmp	SHORT $LN162@output_opc
$LN161@output_opc:

; 541  :                     else
; 542  :                       byte1 &= ~EVEX_P0XMASK;

	movzx	eax, BYTE PTR byte1$6[rsp]
	and	eax, -65				; ffffffffffffffbfH
	mov	BYTE PTR byte1$6[rsp], al
$LN162@output_opc:
$LN160@output_opc:
$LN158@output_opc:
$LN156@output_opc:

; 543  :                   }
; 544  :                 }
; 545  :               }
; 546  :               if (((CodeInfo->token == T_VEXTRACTF32x8)||(CodeInfo->token == T_VEXTRACTF64x4))
; 547  :                 && !(CodeInfo->opnd[OPND1].type & OP_M_ANY)) {

	mov	rax, QWORD PTR CodeInfo$[rsp]
	cmp	DWORD PTR [rax+24], 1314		; 00000522H
	je	SHORT $LN164@output_opc
	mov	rax, QWORD PTR CodeInfo$[rsp]
	cmp	DWORD PTR [rax+24], 1315		; 00000523H
	jne	$LN163@output_opc
$LN164@output_opc:
	mov	eax, 24
	imul	rax, rax, 0
	mov	rcx, QWORD PTR CodeInfo$[rsp]
	mov	eax, DWORD PTR [rcx+rax+32]
	and	eax, -8388608				; ffffffffff800000H
	test	eax, eax
	jne	$LN163@output_opc

; 548  :                 if (CodeInfo->reg2 <= 15) byte1 |= EVEX_P0R1MASK;

	mov	rax, QWORD PTR CodeInfo$[rsp]
	movzx	eax, BYTE PTR [rax+110]
	cmp	eax, 15
	jg	SHORT $LN165@output_opc
	movzx	eax, BYTE PTR byte1$6[rsp]
	or	eax, 16
	mov	BYTE PTR byte1$6[rsp], al
	jmp	SHORT $LN166@output_opc
$LN165@output_opc:

; 549  :                 else byte1 &= ~EVEX_P0R1MASK;

	movzx	eax, BYTE PTR byte1$6[rsp]
	and	eax, -17
	mov	BYTE PTR byte1$6[rsp], al
$LN166@output_opc:

; 550  :                 if ((CodeInfo->reg2 <= 7) || (CodeInfo->reg2 >= 16 && CodeInfo->reg2 <= 23))

	mov	rax, QWORD PTR CodeInfo$[rsp]
	movzx	eax, BYTE PTR [rax+110]
	cmp	eax, 7
	jle	SHORT $LN169@output_opc
	mov	rax, QWORD PTR CodeInfo$[rsp]
	movzx	eax, BYTE PTR [rax+110]
	cmp	eax, 16
	jl	SHORT $LN167@output_opc
	mov	rax, QWORD PTR CodeInfo$[rsp]
	movzx	eax, BYTE PTR [rax+110]
	cmp	eax, 23
	jg	SHORT $LN167@output_opc
$LN169@output_opc:

; 551  :                   byte1 |= EVEX_P0RMASK;

	movzx	eax, BYTE PTR byte1$6[rsp]
	bts	eax, 7
	mov	BYTE PTR byte1$6[rsp], al
	jmp	SHORT $LN168@output_opc
$LN167@output_opc:

; 552  :                 else
; 553  :                   byte1 &= ~EVEX_P0RMASK;

	movzx	eax, BYTE PTR byte1$6[rsp]
	btr	eax, 7
	mov	BYTE PTR byte1$6[rsp], al
$LN168@output_opc:

; 554  :                 if (CodeInfo->reg1 <= 15) byte1 |= EVEX_P0XMASK;

	mov	rax, QWORD PTR CodeInfo$[rsp]
	movzx	eax, BYTE PTR [rax+109]
	cmp	eax, 15
	jg	SHORT $LN170@output_opc
	movzx	eax, BYTE PTR byte1$6[rsp]
	or	eax, 64					; 00000040H
	mov	BYTE PTR byte1$6[rsp], al
	jmp	SHORT $LN171@output_opc
$LN170@output_opc:

; 555  :                 else byte1 &= ~EVEX_P0XMASK;

	movzx	eax, BYTE PTR byte1$6[rsp]
	and	eax, -65				; ffffffffffffffbfH
	mov	BYTE PTR byte1$6[rsp], al
$LN171@output_opc:
$LN163@output_opc:

; 556  :               }
; 557  :               if (((CodeInfo->token >= T_BEXTR)&&(CodeInfo->token <= T_SHRX)||(CodeInfo->token == T_BZHI)&&

	mov	rax, QWORD PTR CodeInfo$[rsp]
	cmp	DWORD PTR [rax+24], 1671		; 00000687H
	jl	SHORT $LN174@output_opc
	mov	rax, QWORD PTR CodeInfo$[rsp]
	cmp	DWORD PTR [rax+24], 1674		; 0000068aH
	jle	SHORT $LN173@output_opc
$LN174@output_opc:
	mov	rax, QWORD PTR CodeInfo$[rsp]
	cmp	DWORD PTR [rax+24], 1678		; 0000068eH
	jne	SHORT $LN172@output_opc
	mov	rax, QWORD PTR CodeInfo$[rsp]
	movzx	eax, BYTE PTR [rax+112]
	cmp	eax, 255				; 000000ffH
	je	SHORT $LN172@output_opc
$LN173@output_opc:

; 558  :                 (CodeInfo->indexreg != 0xFF))){
; 559  :                 byte1 &= 0xE3;

	movzx	eax, BYTE PTR byte1$6[rsp]
	and	eax, 227				; 000000e3H
	mov	BYTE PTR byte1$6[rsp], al

; 560  :                 if (CodeInfo->indexreg > 0x07)byte1 &= ~0x10;

	mov	rax, QWORD PTR CodeInfo$[rsp]
	movzx	eax, BYTE PTR [rax+112]
	cmp	eax, 7
	jle	SHORT $LN175@output_opc
	movzx	eax, BYTE PTR byte1$6[rsp]
	and	eax, -17
	mov	BYTE PTR byte1$6[rsp], al
$LN175@output_opc:
$LN172@output_opc:

; 561  :               }
; 562  :               if (CodeInfo->token == T_VCVTPH2PS || CodeInfo->token == T_VCVTPD2UDQ||
; 563  :                 CodeInfo->token == T_VCVTPD2DQ || CodeInfo->token == T_VCVTDQ2PD){

	mov	rax, QWORD PTR CodeInfo$[rsp]
	cmp	DWORD PTR [rax+24], 1427		; 00000593H
	je	SHORT $LN177@output_opc
	mov	rax, QWORD PTR CodeInfo$[rsp]
	cmp	DWORD PTR [rax+24], 1335		; 00000537H
	je	SHORT $LN177@output_opc
	mov	rax, QWORD PTR CodeInfo$[rsp]
	cmp	DWORD PTR [rax+24], 1334		; 00000536H
	je	SHORT $LN177@output_opc
	mov	rax, QWORD PTR CodeInfo$[rsp]
	cmp	DWORD PTR [rax+24], 1899		; 0000076bH
	jne	$LN176@output_opc
$LN177@output_opc:

; 564  :                 if ((CodeInfo->reg1 <= 7) || (CodeInfo->reg1 >= 16 && CodeInfo->reg1 <= 23))

	mov	rax, QWORD PTR CodeInfo$[rsp]
	movzx	eax, BYTE PTR [rax+109]
	cmp	eax, 7
	jle	SHORT $LN180@output_opc
	mov	rax, QWORD PTR CodeInfo$[rsp]
	movzx	eax, BYTE PTR [rax+109]
	cmp	eax, 16
	jl	SHORT $LN178@output_opc
	mov	rax, QWORD PTR CodeInfo$[rsp]
	movzx	eax, BYTE PTR [rax+109]
	cmp	eax, 23
	jg	SHORT $LN178@output_opc
$LN180@output_opc:

; 565  :                   byte1 |= EVEX_P0RMASK;

	movzx	eax, BYTE PTR byte1$6[rsp]
	bts	eax, 7
	mov	BYTE PTR byte1$6[rsp], al
	jmp	SHORT $LN179@output_opc
$LN178@output_opc:

; 566  :                 else
; 567  :                   byte1 &= ~EVEX_P0RMASK;

	movzx	eax, BYTE PTR byte1$6[rsp]
	btr	eax, 7
	mov	BYTE PTR byte1$6[rsp], al
$LN179@output_opc:

; 568  :                 if (CodeInfo->reg2 <= 15) byte1 |= EVEX_P0XMASK;

	mov	rax, QWORD PTR CodeInfo$[rsp]
	movzx	eax, BYTE PTR [rax+110]
	cmp	eax, 15
	jg	SHORT $LN181@output_opc
	movzx	eax, BYTE PTR byte1$6[rsp]
	or	eax, 64					; 00000040H
	mov	BYTE PTR byte1$6[rsp], al
	jmp	SHORT $LN182@output_opc
$LN181@output_opc:

; 569  :                 else byte1 &= ~EVEX_P0XMASK;

	movzx	eax, BYTE PTR byte1$6[rsp]
	and	eax, -65				; ffffffffffffffbfH
	mov	BYTE PTR byte1$6[rsp], al
$LN182@output_opc:

; 570  :                 if (CodeInfo->token == T_VCVTDQ2PD)

	mov	rax, QWORD PTR CodeInfo$[rsp]
	cmp	DWORD PTR [rax+24], 1899		; 0000076bH
	jne	SHORT $LN183@output_opc

; 571  :                 CodeInfo->evex_p2 &= ~EVEX_P2L1MASK;

	mov	rax, QWORD PTR CodeInfo$[rsp]
	movzx	eax, BYTE PTR [rax+139]
	and	eax, -65				; ffffffffffffffbfH
	mov	rcx, QWORD PTR CodeInfo$[rsp]
	mov	BYTE PTR [rcx+139], al
$LN183@output_opc:
$LN176@output_opc:

; 572  :               }
; 573  : 
; 574  :               OutputCodeByte( byte1 );

	movzx	ecx, BYTE PTR byte1$6[rsp]
	call	OutputByte

; 575  :               if (CodeInfo->opnd[OPND2].type == OP_I8){

	mov	eax, 24
	imul	rax, rax, 1
	mov	rcx, QWORD PTR CodeInfo$[rsp]
	cmp	DWORD PTR [rcx+rax+32], 131072		; 00020000H
	jne	SHORT $LN184@output_opc

; 576  :                 if ((CodeInfo->token >= T_VPSLLW) && (CodeInfo->token <= T_VPSRLQ) ||

	mov	rax, QWORD PTR CodeInfo$[rsp]
	cmp	DWORD PTR [rax+24], 2039		; 000007f7H
	jl	SHORT $LN188@output_opc
	mov	rax, QWORD PTR CodeInfo$[rsp]
	cmp	DWORD PTR [rax+24], 2046		; 000007feH
	jle	SHORT $LN187@output_opc
$LN188@output_opc:
	mov	rax, QWORD PTR CodeInfo$[rsp]
	cmp	DWORD PTR [rax+24], 1529		; 000005f9H
	jl	SHORT $LN186@output_opc
	mov	rax, QWORD PTR CodeInfo$[rsp]
	cmp	DWORD PTR [rax+24], 1546		; 0000060aH
	jg	SHORT $LN186@output_opc
$LN187@output_opc:

; 577  :                   (CodeInfo->token >= T_VPSLLVD) && (CodeInfo->token <= T_VPSRLVW))
; 578  :                   CodeInfo->tuple = TRUE;

	mov	rax, QWORD PTR CodeInfo$[rsp]
	mov	BYTE PTR [rax+140], 1
$LN186@output_opc:

; 579  :               }

	jmp	SHORT $LN185@output_opc
$LN184@output_opc:

; 580  :             else
; 581  :             lbyte |= ( ( CodeInfo->prefix.rex & REX_W ) ? 0x80 : 0 );

	mov	rax, QWORD PTR CodeInfo$[rsp]
	movzx	eax, BYTE PTR [rax+8]
	and	eax, 8
	test	eax, eax
	je	SHORT $LN545@output_opc
	mov	DWORD PTR tv1024[rsp], 128		; 00000080H
	jmp	SHORT $LN546@output_opc
$LN545@output_opc:
	mov	DWORD PTR tv1024[rsp], 0
$LN546@output_opc:
	movzx	eax, BYTE PTR lbyte$5[rsp]
	or	eax, DWORD PTR tv1024[rsp]
	mov	BYTE PTR lbyte$5[rsp], al
$LN185@output_opc:

; 582  :             /* KSHIFTLW KSHIFTLQ KSHIFTRW KSHIFTRQ */
; 583  :             if ((CodeInfo->token == T_KSHIFTLW) || (CodeInfo->token == T_KSHIFTLQ)||
; 584  :               (CodeInfo->token == T_KSHIFTRW) || (CodeInfo->token == T_KSHIFTRQ)){

	mov	rax, QWORD PTR CodeInfo$[rsp]
	cmp	DWORD PTR [rax+24], 1718		; 000006b6H
	je	SHORT $LN190@output_opc
	mov	rax, QWORD PTR CodeInfo$[rsp]
	cmp	DWORD PTR [rax+24], 1720		; 000006b8H
	je	SHORT $LN190@output_opc
	mov	rax, QWORD PTR CodeInfo$[rsp]
	cmp	DWORD PTR [rax+24], 1722		; 000006baH
	je	SHORT $LN190@output_opc
	mov	rax, QWORD PTR CodeInfo$[rsp]
	cmp	DWORD PTR [rax+24], 1724		; 000006bcH
	jne	SHORT $LN189@output_opc
$LN190@output_opc:

; 585  :               lbyte |= 0x80;

	movzx	eax, BYTE PTR lbyte$5[rsp]
	bts	eax, 7
	mov	BYTE PTR lbyte$5[rsp], al
$LN189@output_opc:

; 586  :             }
; 587  :             //HJWasm13.1 VPGATHERDD, VPGATHERQD, VPGATHERDQ, VPGATHERQQ
; 588  :             if (CodeInfo->token >= T_VPGATHERDD && CodeInfo->token <= T_VGATHERQPS){

	mov	rax, QWORD PTR CodeInfo$[rsp]
	cmp	DWORD PTR [rax+24], 1340		; 0000053cH
	jl	$LN191@output_opc
	mov	rax, QWORD PTR CodeInfo$[rsp]
	cmp	DWORD PTR [rax+24], 1347		; 00000543H
	jg	$LN191@output_opc

; 589  :               if ((CodeInfo->opnd[OPND3].type != CodeInfo->opnd[OPND1].type)&& 

	mov	eax, 24
	imul	rax, rax, 2
	mov	ecx, 24
	imul	rcx, rcx, 0
	mov	rdx, QWORD PTR CodeInfo$[rsp]
	mov	r8, QWORD PTR CodeInfo$[rsp]
	mov	ecx, DWORD PTR [r8+rcx+32]
	cmp	DWORD PTR [rdx+rax+32], ecx
	je	SHORT $LN192@output_opc
	mov	rax, QWORD PTR CodeInfo$[rsp]
	movzx	eax, BYTE PTR [rax+136]
	test	eax, eax
	jne	SHORT $LN192@output_opc

; 590  :                 (CodeInfo->evex_flag == 0))
; 591  :                 EmitError( INVALID_USE_OF_REGISTER );

	mov	ecx, 170				; 000000aaH
	call	EmitError
$LN192@output_opc:

; 592  :               CodeInfo->tuple = TRUE;       

	mov	rax, QWORD PTR CodeInfo$[rsp]
	mov	BYTE PTR [rax+140], 1

; 593  :               lbyte &= ~EVEX_P1VVVV;      // clear EVEX_P1VVVV

	movzx	eax, BYTE PTR lbyte$5[rsp]
	and	eax, -121				; ffffffffffffff87H
	mov	BYTE PTR lbyte$5[rsp], al

; 594  :               if (CodeInfo->evex_flag){

	mov	rax, QWORD PTR CodeInfo$[rsp]
	movzx	eax, BYTE PTR [rax+136]
	test	eax, eax
	je	SHORT $LN193@output_opc

; 595  :                 c = EVEX_P1VVVV;          // set all to ones : VVVV = 1111, we are not using it

	mov	BYTE PTR c$[rsp], 120			; 00000078H

; 596  :               }

	jmp	SHORT $LN194@output_opc
$LN193@output_opc:

; 597  :               else {
; 598  :                 c = CodeInfo->reg3 + 1;

	mov	rax, QWORD PTR CodeInfo$[rsp]
	movzx	eax, BYTE PTR [rax+111]
	inc	eax
	mov	BYTE PTR c$[rsp], al

; 599  :                 c = ((16 - c) << 3);

	movzx	eax, BYTE PTR c$[rsp]
	mov	ecx, 16
	sub	ecx, eax
	mov	eax, ecx
	shl	eax, 3
	mov	BYTE PTR c$[rsp], al
$LN194@output_opc:

; 600  :                 //c = ~c;
; 601  :               }
; 602  :               c &= EVEX_P1VVVV;

	movzx	eax, BYTE PTR c$[rsp]
	and	eax, 120				; 00000078H
	mov	BYTE PTR c$[rsp], al

; 603  :               lbyte |= c;  

	movzx	eax, BYTE PTR c$[rsp]
	movzx	ecx, BYTE PTR lbyte$5[rsp]
	or	ecx, eax
	mov	eax, ecx
	mov	BYTE PTR lbyte$5[rsp], al

; 604  :               if (CodeInfo->indextype == OP_YMM)    lbyte |= 4;

	mov	rax, QWORD PTR CodeInfo$[rsp]
	cmp	DWORD PTR [rax+132], 128		; 00000080H
	jne	SHORT $LN195@output_opc
	movzx	eax, BYTE PTR lbyte$5[rsp]
	or	eax, 4
	mov	BYTE PTR lbyte$5[rsp], al
$LN195@output_opc:

; 605  :               if (( CodeInfo->prefix.rex & REX_W )) lbyte |= 8;

	mov	rax, QWORD PTR CodeInfo$[rsp]
	movzx	eax, BYTE PTR [rax+8]
	and	eax, 8
	test	eax, eax
	je	SHORT $LN196@output_opc
	movzx	eax, BYTE PTR lbyte$5[rsp]
	or	eax, 8
	mov	BYTE PTR lbyte$5[rsp], al
$LN196@output_opc:
$LN191@output_opc:

; 606  :             }
; 607  :             if ((CodeInfo->token >= T_KADDB) && (CodeInfo->token <= T_KUNPCKDQ)) {       //here pay atention

	mov	rax, QWORD PTR CodeInfo$[rsp]
	cmp	DWORD PTR [rax+24], 1682		; 00000692H
	jl	$LN197@output_opc
	mov	rax, QWORD PTR CodeInfo$[rsp]
	cmp	DWORD PTR [rax+24], 1708		; 000006acH
	jg	SHORT $LN197@output_opc

; 608  :               /* third byte W vvvv Lpp   */
; 609  :               c = CodeInfo->reg2;

	mov	rax, QWORD PTR CodeInfo$[rsp]
	movzx	eax, BYTE PTR [rax+110]
	mov	BYTE PTR c$[rsp], al

; 610  :               lbyte &= 0xc0;

	movzx	eax, BYTE PTR lbyte$5[rsp]
	and	eax, 192				; 000000c0H
	mov	BYTE PTR lbyte$5[rsp], al

; 611  :               c = (c << 3);

	movzx	eax, BYTE PTR c$[rsp]
	shl	eax, 3
	mov	BYTE PTR c$[rsp], al

; 612  :               c = ~c;

	movzx	eax, BYTE PTR c$[rsp]
	not	eax
	mov	BYTE PTR c$[rsp], al

; 613  :               c &= EVEX_P1VVVV;

	movzx	eax, BYTE PTR c$[rsp]
	and	eax, 120				; 00000078H
	mov	BYTE PTR c$[rsp], al

; 614  :               lbyte |= c;

	movzx	eax, BYTE PTR c$[rsp]
	movzx	ecx, BYTE PTR lbyte$5[rsp]
	or	ecx, eax
	mov	eax, ecx
	mov	BYTE PTR lbyte$5[rsp], al

; 615  :               lbyte |= 4;    

	movzx	eax, BYTE PTR lbyte$5[rsp]
	or	eax, 4
	mov	BYTE PTR lbyte$5[rsp], al

; 616  :                if (ins->byte1_info == F_660F) lbyte |= 0x1;

	mov	rax, QWORD PTR ins$[rsp]
	movzx	eax, BYTE PTR [rax+1]
	cmp	eax, 18
	jne	SHORT $LN199@output_opc
	movzx	eax, BYTE PTR lbyte$5[rsp]
	or	eax, 1
	mov	BYTE PTR lbyte$5[rsp], al
$LN199@output_opc:

; 617  :             }

	jmp	$LN198@output_opc
$LN197@output_opc:

; 618  :             else if ((CodeInfo->token >= T_KNOTB) && (CodeInfo->token <= T_KORTESTQ)) {

	mov	rax, QWORD PTR CodeInfo$[rsp]
	cmp	DWORD PTR [rax+24], 1709		; 000006adH
	jl	SHORT $LN200@output_opc
	mov	rax, QWORD PTR CodeInfo$[rsp]
	cmp	DWORD PTR [rax+24], 1716		; 000006b4H
	jg	SHORT $LN200@output_opc

; 619  :               /*  1 1111 0pp */
; 620  :               /*  R vvvv Lpp */
; 621  :               lbyte = 0xF8;

	mov	BYTE PTR lbyte$5[rsp], 248		; 000000f8H

; 622  :               if (ins->byte1_info == F_660F) lbyte |= 0x01;

	mov	rax, QWORD PTR ins$[rsp]
	movzx	eax, BYTE PTR [rax+1]
	cmp	eax, 18
	jne	SHORT $LN202@output_opc
	movzx	eax, BYTE PTR lbyte$5[rsp]
	or	eax, 1
	mov	BYTE PTR lbyte$5[rsp], al
$LN202@output_opc:

; 623  :             }

	jmp	SHORT $LN201@output_opc
$LN200@output_opc:

; 624  :             else if ((CodeInfo->token >= T_KMOVB) && (CodeInfo->token <= T_KMOVW)) {

	mov	rax, QWORD PTR CodeInfo$[rsp]
	cmp	DWORD PTR [rax+24], 1725		; 000006bdH
	jl	SHORT $LN203@output_opc
	mov	rax, QWORD PTR CodeInfo$[rsp]
	cmp	DWORD PTR [rax+24], 1728		; 000006c0H
	jg	SHORT $LN203@output_opc

; 625  :               /*  1 1111 0pp */
; 626  :               /*  R vvvv Lpp */
; 627  :               lbyte = 0xF8;

	mov	BYTE PTR lbyte$5[rsp], 248		; 000000f8H

; 628  :               if (ins->byte1_info == F_660F) lbyte |= 0x01;

	mov	rax, QWORD PTR ins$[rsp]
	movzx	eax, BYTE PTR [rax+1]
	cmp	eax, 18
	jne	SHORT $LN204@output_opc
	movzx	eax, BYTE PTR lbyte$5[rsp]
	or	eax, 1
	mov	BYTE PTR lbyte$5[rsp], al
	jmp	SHORT $LN205@output_opc
$LN204@output_opc:

; 629  :               else  lbyte |= 0x3;

	movzx	eax, BYTE PTR lbyte$5[rsp]
	or	eax, 3
	mov	BYTE PTR lbyte$5[rsp], al
$LN205@output_opc:
$LN203@output_opc:
$LN201@output_opc:
$LN198@output_opc:

; 630  :             }
; 631  :             if (CodeInfo->token < T_VCVTDQ2PD && CodeInfo->token > T_VCVTTSS2SI){

	mov	rax, QWORD PTR CodeInfo$[rsp]
	cmp	DWORD PTR [rax+24], 1899		; 0000076bH
	jge	SHORT $LN206@output_opc
	mov	rax, QWORD PTR CodeInfo$[rsp]
	cmp	DWORD PTR [rax+24], 1910		; 00000776H
	jle	SHORT $LN206@output_opc

; 632  :               if (CodeInfo->reg2 > 15)lbyte |= EVEX_P1WMASK;

	mov	rax, QWORD PTR CodeInfo$[rsp]
	movzx	eax, BYTE PTR [rax+110]
	cmp	eax, 15
	jle	SHORT $LN207@output_opc
	movzx	eax, BYTE PTR lbyte$5[rsp]
	bts	eax, 7
	mov	BYTE PTR lbyte$5[rsp], al
$LN207@output_opc:
$LN206@output_opc:

; 633  :             }
; 634  :             if (CodeInfo->token == T_VPSCATTERDQ || CodeInfo->token == T_VPSCATTERQQ ||
; 635  :               CodeInfo->token == T_VSCATTERDPD || CodeInfo->token == T_VSCATTERQPD){

	mov	rax, QWORD PTR CodeInfo$[rsp]
	cmp	DWORD PTR [rax+24], 1349		; 00000545H
	je	SHORT $LN209@output_opc
	mov	rax, QWORD PTR CodeInfo$[rsp]
	cmp	DWORD PTR [rax+24], 1351		; 00000547H
	je	SHORT $LN209@output_opc
	mov	rax, QWORD PTR CodeInfo$[rsp]
	cmp	DWORD PTR [rax+24], 1353		; 00000549H
	je	SHORT $LN209@output_opc
	mov	rax, QWORD PTR CodeInfo$[rsp]
	cmp	DWORD PTR [rax+24], 1355		; 0000054bH
	jne	SHORT $LN208@output_opc
$LN209@output_opc:

; 636  :               lbyte |= 0x80;

	movzx	eax, BYTE PTR lbyte$5[rsp]
	bts	eax, 7
	mov	BYTE PTR lbyte$5[rsp], al
$LN208@output_opc:

; 637  :             }
; 638  :             /* if broadflags are prezent W = 0  in WVVVV1PP */
; 639  :               if (CodeInfo->token == T_VPGATHERDQ || CodeInfo->token == T_VPGATHERQQ ||
; 640  :                 CodeInfo->token == T_VGATHERDPD || CodeInfo->token == T_VGATHERQPD){

	mov	rax, QWORD PTR CodeInfo$[rsp]
	cmp	DWORD PTR [rax+24], 1342		; 0000053eH
	je	SHORT $LN211@output_opc
	mov	rax, QWORD PTR CodeInfo$[rsp]
	cmp	DWORD PTR [rax+24], 1343		; 0000053fH
	je	SHORT $LN211@output_opc
	mov	rax, QWORD PTR CodeInfo$[rsp]
	cmp	DWORD PTR [rax+24], 1344		; 00000540H
	je	SHORT $LN211@output_opc
	mov	rax, QWORD PTR CodeInfo$[rsp]
	cmp	DWORD PTR [rax+24], 1345		; 00000541H
	jne	SHORT $LN210@output_opc
$LN211@output_opc:

; 641  :                   lbyte |= 0x80;

	movzx	eax, BYTE PTR lbyte$5[rsp]
	bts	eax, 7
	mov	BYTE PTR lbyte$5[rsp], al
$LN210@output_opc:

; 642  :                 }
; 643  :             if (CodeInfo->token == T_VGATHERDPS)lbyte &= ~0x80;

	mov	rax, QWORD PTR CodeInfo$[rsp]
	cmp	DWORD PTR [rax+24], 1346		; 00000542H
	jne	SHORT $LN212@output_opc
	movzx	eax, BYTE PTR lbyte$5[rsp]
	btr	eax, 7
	mov	BYTE PTR lbyte$5[rsp], al
$LN212@output_opc:

; 644  :             if (((CodeInfo->token <= T_VCOMPRESSPS))||((CodeInfo->token >= T_VCVTDQ2PD) &&
; 645  :               (CodeInfo->token <= T_VCVTTSS2SI))|| (CodeInfo->token == T_VCVTPD2DQ)) 

	mov	rax, QWORD PTR CodeInfo$[rsp]
	cmp	DWORD PTR [rax+24], 1438		; 0000059eH
	jle	SHORT $LN214@output_opc
	mov	rax, QWORD PTR CodeInfo$[rsp]
	cmp	DWORD PTR [rax+24], 1899		; 0000076bH
	jl	SHORT $LN215@output_opc
	mov	rax, QWORD PTR CodeInfo$[rsp]
	cmp	DWORD PTR [rax+24], 1910		; 00000776H
	jle	SHORT $LN214@output_opc
$LN215@output_opc:
	mov	rax, QWORD PTR CodeInfo$[rsp]
	cmp	DWORD PTR [rax+24], 1334		; 00000536H
	jne	SHORT $LN213@output_opc
$LN214@output_opc:

; 646  :               CodeInfo->evex_p2 &= ~EVEX_P1PPMASK;

	mov	rax, QWORD PTR CodeInfo$[rsp]
	movzx	eax, BYTE PTR [rax+139]
	and	eax, -4
	mov	rcx, QWORD PTR CodeInfo$[rsp]
	mov	BYTE PTR [rcx+139], al
$LN213@output_opc:

; 647  :             if ((CodeInfo->token == T_VPCMPB) || (CodeInfo->token == T_VPCMPUB ))lbyte &= ~EVEX_P1WMASK;

	mov	rax, QWORD PTR CodeInfo$[rsp]
	cmp	DWORD PTR [rax+24], 1452		; 000005acH
	je	SHORT $LN217@output_opc
	mov	rax, QWORD PTR CodeInfo$[rsp]
	cmp	DWORD PTR [rax+24], 1453		; 000005adH
	jne	SHORT $LN216@output_opc
$LN217@output_opc:
	movzx	eax, BYTE PTR lbyte$5[rsp]
	btr	eax, 7
	mov	BYTE PTR lbyte$5[rsp], al
$LN216@output_opc:

; 648  :             if (CodeInfo->evex_flag){

	mov	rax, QWORD PTR CodeInfo$[rsp]
	movzx	eax, BYTE PTR [rax+136]
	test	eax, eax
	je	$LN218@output_opc

; 649  :               if ((CodeInfo->opnd[OPND2].type == OP_M64) || (CodeInfo->opnd[OPND1].type == OP_M64))

	mov	eax, 24
	imul	rax, rax, 1
	mov	rcx, QWORD PTR CodeInfo$[rsp]
	cmp	DWORD PTR [rcx+rax+32], 67108864	; 04000000H
	je	SHORT $LN220@output_opc
	mov	eax, 24
	imul	rax, rax, 0
	mov	rcx, QWORD PTR CodeInfo$[rsp]
	cmp	DWORD PTR [rcx+rax+32], 67108864	; 04000000H
	jne	SHORT $LN219@output_opc
$LN220@output_opc:

; 650  :                 lbyte |= EVEX_P1WMASK;

	movzx	eax, BYTE PTR lbyte$5[rsp]
	bts	eax, 7
	mov	BYTE PTR lbyte$5[rsp], al
$LN219@output_opc:

; 651  :                if ((CodeInfo->opnd[OPND2].type == OP_R32) || (CodeInfo->opnd[OPND2].type == OP_EAX) ||
; 652  :                  (CodeInfo->opnd[OPND1].type == OP_R32) || (CodeInfo->opnd[OPND1].type == OP_EAX)){

	mov	eax, 24
	imul	rax, rax, 1
	mov	rcx, QWORD PTR CodeInfo$[rsp]
	cmp	DWORD PTR [rcx+rax+32], 4
	je	SHORT $LN222@output_opc
	mov	eax, 24
	imul	rax, rax, 1
	mov	rcx, QWORD PTR CodeInfo$[rsp]
	cmp	DWORD PTR [rcx+rax+32], 516		; 00000204H
	je	SHORT $LN222@output_opc
	mov	eax, 24
	imul	rax, rax, 0
	mov	rcx, QWORD PTR CodeInfo$[rsp]
	cmp	DWORD PTR [rcx+rax+32], 4
	je	SHORT $LN222@output_opc
	mov	eax, 24
	imul	rax, rax, 0
	mov	rcx, QWORD PTR CodeInfo$[rsp]
	cmp	DWORD PTR [rcx+rax+32], 516		; 00000204H
	jne	SHORT $LN221@output_opc
$LN222@output_opc:

; 653  :                  lbyte &= ~EVEX_P1WMASK;

	movzx	eax, BYTE PTR lbyte$5[rsp]
	btr	eax, 7
	mov	BYTE PTR lbyte$5[rsp], al
$LN221@output_opc:
$LN218@output_opc:

; 654  :                }
; 655  :              }
; 656  :             if ((CodeInfo->token == T_VMOVHPS)||(CodeInfo->token == T_VMOVLPS)||
; 657  :               (CodeInfo->token == T_VPMOVQB)||(CodeInfo->token == T_VPMOVSQB)||

	mov	rax, QWORD PTR CodeInfo$[rsp]
	cmp	DWORD PTR [rax+24], 1936		; 00000790H
	je	SHORT $LN224@output_opc
	mov	rax, QWORD PTR CodeInfo$[rsp]
	cmp	DWORD PTR [rax+24], 1938		; 00000792H
	je	SHORT $LN224@output_opc
	mov	rax, QWORD PTR CodeInfo$[rsp]
	cmp	DWORD PTR [rax+24], 1571		; 00000623H
	je	SHORT $LN224@output_opc
	mov	rax, QWORD PTR CodeInfo$[rsp]
	cmp	DWORD PTR [rax+24], 1572		; 00000624H
	je	SHORT $LN224@output_opc
	mov	rax, QWORD PTR CodeInfo$[rsp]
	cmp	DWORD PTR [rax+24], 1573		; 00000625H
	jne	SHORT $LN223@output_opc
$LN224@output_opc:

; 658  :               (CodeInfo->token == T_VPMOVUSQB)){  
; 659  :                   lbyte &= ~EVEX_P1WMASK;

	movzx	eax, BYTE PTR lbyte$5[rsp]
	btr	eax, 7
	mov	BYTE PTR lbyte$5[rsp], al
$LN223@output_opc:

; 660  :             }
; 661  :              if ((CodeInfo->token == T_VPSLLQ)||(CodeInfo->token == T_VPSRLQ)||
; 662  :                (CodeInfo->token == T_VPSRAQ)|| (CodeInfo->token == T_VPROLQ)||

	mov	rax, QWORD PTR CodeInfo$[rsp]
	cmp	DWORD PTR [rax+24], 2041		; 000007f9H
	je	SHORT $LN226@output_opc
	mov	rax, QWORD PTR CodeInfo$[rsp]
	cmp	DWORD PTR [rax+24], 2046		; 000007feH
	je	SHORT $LN226@output_opc
	mov	rax, QWORD PTR CodeInfo$[rsp]
	cmp	DWORD PTR [rax+24], 1540		; 00000604H
	je	SHORT $LN226@output_opc
	mov	rax, QWORD PTR CodeInfo$[rsp]
	cmp	DWORD PTR [rax+24], 1534		; 000005feH
	je	SHORT $LN226@output_opc
	mov	rax, QWORD PTR CodeInfo$[rsp]
	cmp	DWORD PTR [rax+24], 1538		; 00000602H
	jne	SHORT $LN225@output_opc
$LN226@output_opc:

; 663  :                (CodeInfo->token == T_VPRORQ))
; 664  :                lbyte |= EVEX_P1WMASK;

	movzx	eax, BYTE PTR lbyte$5[rsp]
	bts	eax, 7
	mov	BYTE PTR lbyte$5[rsp], al
$LN225@output_opc:

; 665  :              if ((CodeInfo->token >= T_BEXTR)&&(CodeInfo->token <= T_SHRX)||(CodeInfo->token == T_BZHI)){

	mov	rax, QWORD PTR CodeInfo$[rsp]
	cmp	DWORD PTR [rax+24], 1671		; 00000687H
	jl	SHORT $LN229@output_opc
	mov	rax, QWORD PTR CodeInfo$[rsp]
	cmp	DWORD PTR [rax+24], 1674		; 0000068aH
	jle	SHORT $LN228@output_opc
$LN229@output_opc:
	mov	rax, QWORD PTR CodeInfo$[rsp]
	cmp	DWORD PTR [rax+24], 1678		; 0000068eH
	jne	$LN227@output_opc
$LN228@output_opc:

; 666  :               c = CodeInfo->reg3;

	mov	rax, QWORD PTR CodeInfo$[rsp]
	movzx	eax, BYTE PTR [rax+111]
	mov	BYTE PTR c$[rsp], al

; 667  :               lbyte &= 0x80;

	movzx	eax, BYTE PTR lbyte$5[rsp]
	and	eax, 128				; 00000080H
	mov	BYTE PTR lbyte$5[rsp], al

; 668  :               c = (c << 3);

	movzx	eax, BYTE PTR c$[rsp]
	shl	eax, 3
	mov	BYTE PTR c$[rsp], al

; 669  :               c = ~c;

	movzx	eax, BYTE PTR c$[rsp]
	not	eax
	mov	BYTE PTR c$[rsp], al

; 670  :               c &= EVEX_P1VVVV;

	movzx	eax, BYTE PTR c$[rsp]
	and	eax, 120				; 00000078H
	mov	BYTE PTR c$[rsp], al

; 671  :               lbyte |= c;

	movzx	eax, BYTE PTR c$[rsp]
	movzx	ecx, BYTE PTR lbyte$5[rsp]
	or	ecx, eax
	mov	eax, ecx
	mov	BYTE PTR lbyte$5[rsp], al

; 672  : #if AMD64_SUPPORT
; 673  :               lbyte |=0x80;

	movzx	eax, BYTE PTR lbyte$5[rsp]
	bts	eax, 7
	mov	BYTE PTR lbyte$5[rsp], al

; 674  : #endif
; 675  :                if (ins->byte1_info == F_660F) lbyte |= 0x1;

	mov	rax, QWORD PTR ins$[rsp]
	movzx	eax, BYTE PTR [rax+1]
	cmp	eax, 18
	jne	SHORT $LN230@output_opc
	movzx	eax, BYTE PTR lbyte$5[rsp]
	or	eax, 1
	mov	BYTE PTR lbyte$5[rsp], al
	jmp	SHORT $LN231@output_opc
$LN230@output_opc:

; 676  :                else if (ins->byte1_info == F_F30F38) lbyte |= 0x02;//SARX

	mov	rax, QWORD PTR ins$[rsp]
	movzx	eax, BYTE PTR [rax+1]
	cmp	eax, 28
	jne	SHORT $LN232@output_opc
	movzx	eax, BYTE PTR lbyte$5[rsp]
	or	eax, 2
	mov	BYTE PTR lbyte$5[rsp], al
	jmp	SHORT $LN233@output_opc
$LN232@output_opc:

; 677  :                else if (ins->byte1_info == F_660F38) lbyte |= 0x01;//SHLX

	mov	rax, QWORD PTR ins$[rsp]
	movzx	eax, BYTE PTR [rax+1]
	cmp	eax, 25
	jne	SHORT $LN234@output_opc
	movzx	eax, BYTE PTR lbyte$5[rsp]
	or	eax, 1
	mov	BYTE PTR lbyte$5[rsp], al
	jmp	SHORT $LN235@output_opc
$LN234@output_opc:

; 678  :                else if (ins->byte1_info == F_F20F38) lbyte |= 0x03;//SHRX

	mov	rax, QWORD PTR ins$[rsp]
	movzx	eax, BYTE PTR [rax+1]
	cmp	eax, 27
	jne	SHORT $LN236@output_opc
	movzx	eax, BYTE PTR lbyte$5[rsp]
	or	eax, 3
	mov	BYTE PTR lbyte$5[rsp], al
$LN236@output_opc:
$LN235@output_opc:
$LN233@output_opc:
$LN231@output_opc:
$LN227@output_opc:

; 679  :              }
; 680  :              if ((CodeInfo->token == T_BLSMSK)||(CodeInfo->token == T_BLSI)||

	mov	rax, QWORD PTR CodeInfo$[rsp]
	cmp	DWORD PTR [rax+24], 1676		; 0000068cH
	je	SHORT $LN238@output_opc
	mov	rax, QWORD PTR CodeInfo$[rsp]
	cmp	DWORD PTR [rax+24], 1675		; 0000068bH
	je	SHORT $LN238@output_opc
	mov	rax, QWORD PTR CodeInfo$[rsp]
	cmp	DWORD PTR [rax+24], 1677		; 0000068dH
	jne	$LN237@output_opc
$LN238@output_opc:

; 681  :                (CodeInfo->token == T_BLSR)){
; 682  :               c = CodeInfo->reg1;

	mov	rax, QWORD PTR CodeInfo$[rsp]
	movzx	eax, BYTE PTR [rax+109]
	mov	BYTE PTR c$[rsp], al

; 683  :               lbyte &= 0x80;

	movzx	eax, BYTE PTR lbyte$5[rsp]
	and	eax, 128				; 00000080H
	mov	BYTE PTR lbyte$5[rsp], al

; 684  :               c = (c << 3);

	movzx	eax, BYTE PTR c$[rsp]
	shl	eax, 3
	mov	BYTE PTR c$[rsp], al

; 685  :               c = ~c;

	movzx	eax, BYTE PTR c$[rsp]
	not	eax
	mov	BYTE PTR c$[rsp], al

; 686  :               c &= EVEX_P1VVVV;

	movzx	eax, BYTE PTR c$[rsp]
	and	eax, 120				; 00000078H
	mov	BYTE PTR c$[rsp], al

; 687  :               lbyte |= c;

	movzx	eax, BYTE PTR c$[rsp]
	movzx	ecx, BYTE PTR lbyte$5[rsp]
	or	ecx, eax
	mov	eax, ecx
	mov	BYTE PTR lbyte$5[rsp], al

; 688  :                if (ins->byte1_info == F_660F) lbyte |= 0x1;

	mov	rax, QWORD PTR ins$[rsp]
	movzx	eax, BYTE PTR [rax+1]
	cmp	eax, 18
	jne	SHORT $LN239@output_opc
	movzx	eax, BYTE PTR lbyte$5[rsp]
	or	eax, 1
	mov	BYTE PTR lbyte$5[rsp], al
	jmp	SHORT $LN240@output_opc
$LN239@output_opc:

; 689  :                else if (ins->byte1_info == F_F20F38) lbyte |= 0x3;

	mov	rax, QWORD PTR ins$[rsp]
	movzx	eax, BYTE PTR [rax+1]
	cmp	eax, 27
	jne	SHORT $LN241@output_opc
	movzx	eax, BYTE PTR lbyte$5[rsp]
	or	eax, 3
	mov	BYTE PTR lbyte$5[rsp], al
$LN241@output_opc:
$LN240@output_opc:
$LN237@output_opc:

; 690  :              }
; 691  :              if ((CodeInfo->token == T_PDEP)||(CodeInfo->token == T_PEXT)){ 

	mov	rax, QWORD PTR CodeInfo$[rsp]
	cmp	DWORD PTR [rax+24], 1679		; 0000068fH
	je	SHORT $LN243@output_opc
	mov	rax, QWORD PTR CodeInfo$[rsp]
	cmp	DWORD PTR [rax+24], 1680		; 00000690H
	jne	$LN242@output_opc
$LN243@output_opc:

; 692  :               c = CodeInfo->reg2;

	mov	rax, QWORD PTR CodeInfo$[rsp]
	movzx	eax, BYTE PTR [rax+110]
	mov	BYTE PTR c$[rsp], al

; 693  :               lbyte &= 0x80;

	movzx	eax, BYTE PTR lbyte$5[rsp]
	and	eax, 128				; 00000080H
	mov	BYTE PTR lbyte$5[rsp], al

; 694  :               c = (c << 3);

	movzx	eax, BYTE PTR c$[rsp]
	shl	eax, 3
	mov	BYTE PTR c$[rsp], al

; 695  :               c = ~c;

	movzx	eax, BYTE PTR c$[rsp]
	not	eax
	mov	BYTE PTR c$[rsp], al

; 696  :               c &= EVEX_P1VVVV;

	movzx	eax, BYTE PTR c$[rsp]
	and	eax, 120				; 00000078H
	mov	BYTE PTR c$[rsp], al

; 697  :               lbyte |= c;

	movzx	eax, BYTE PTR c$[rsp]
	movzx	ecx, BYTE PTR lbyte$5[rsp]
	or	ecx, eax
	mov	eax, ecx
	mov	BYTE PTR lbyte$5[rsp], al

; 698  :                if (ins->byte1_info == F_F20F38) lbyte |= 0x3;

	mov	rax, QWORD PTR ins$[rsp]
	movzx	eax, BYTE PTR [rax+1]
	cmp	eax, 27
	jne	SHORT $LN244@output_opc
	movzx	eax, BYTE PTR lbyte$5[rsp]
	or	eax, 3
	mov	BYTE PTR lbyte$5[rsp], al
	jmp	SHORT $LN245@output_opc
$LN244@output_opc:

; 699  :                else if (ins->byte1_info == F_F30F38)

	mov	rax, QWORD PTR ins$[rsp]
	movzx	eax, BYTE PTR [rax+1]
	cmp	eax, 28
	jne	SHORT $LN246@output_opc

; 700  :                  lbyte |= 0x2;

	movzx	eax, BYTE PTR lbyte$5[rsp]
	or	eax, 2
	mov	BYTE PTR lbyte$5[rsp], al
$LN246@output_opc:
$LN245@output_opc:
$LN242@output_opc:

; 701  :              }
; 702  :             if (CodeInfo->token == T_RORX)lbyte |= 0x3;

	mov	rax, QWORD PTR CodeInfo$[rsp]
	cmp	DWORD PTR [rax+24], 1681		; 00000691H
	jne	SHORT $LN247@output_opc
	movzx	eax, BYTE PTR lbyte$5[rsp]
	or	eax, 3
	mov	BYTE PTR lbyte$5[rsp], al
$LN247@output_opc:

; 703  :             if (CodeInfo->token == T_VEXTRACTF128){

	mov	rax, QWORD PTR CodeInfo$[rsp]
	cmp	DWORD PTR [rax+24], 1311		; 0000051fH
	jne	SHORT $LN248@output_opc

; 704  :               if (CodeInfo->r2type == OP_YMM)

	mov	rax, QWORD PTR CodeInfo$[rsp]
	cmp	DWORD PTR [rax+120], 128		; 00000080H
	jne	SHORT $LN249@output_opc

; 705  :                 lbyte |= 0x04;

	movzx	eax, BYTE PTR lbyte$5[rsp]
	or	eax, 4
	mov	BYTE PTR lbyte$5[rsp], al
$LN249@output_opc:
$LN248@output_opc:

; 706  :             }
; 707  :             CodeInfo->evex_p1 = lbyte;

	mov	rax, QWORD PTR CodeInfo$[rsp]
	movzx	ecx, BYTE PTR lbyte$5[rsp]
	mov	BYTE PTR [rax+138], cl

; 708  :             OutputCodeByte( lbyte );

	movzx	ecx, BYTE PTR lbyte$5[rsp]
	call	OutputByte

; 709  :             if (CodeInfo->evex_flag  ){

	mov	rax, QWORD PTR CodeInfo$[rsp]
	movzx	eax, BYTE PTR [rax+136]
	test	eax, eax
	je	$LN250@output_opc

; 710  :               CodeInfo->evex_p2 |= decoflags;

	movzx	eax, BYTE PTR decoflags
	mov	rcx, QWORD PTR CodeInfo$[rsp]
	movzx	ecx, BYTE PTR [rcx+139]
	or	ecx, eax
	mov	eax, ecx
	mov	rcx, QWORD PTR CodeInfo$[rsp]
	mov	BYTE PTR [rcx+139], al

; 711  :             if ((CodeInfo->opnd[OPND1].type  & OP_ZMM)|| (CodeInfo->r2type & OP_ZMM))

	mov	eax, 24
	imul	rax, rax, 0
	mov	rcx, QWORD PTR CodeInfo$[rsp]
	mov	eax, DWORD PTR [rcx+rax+32]
	and	eax, 256				; 00000100H
	test	eax, eax
	jne	SHORT $LN253@output_opc
	mov	rax, QWORD PTR CodeInfo$[rsp]
	mov	eax, DWORD PTR [rax+120]
	and	eax, 256				; 00000100H
	test	eax, eax
	je	SHORT $LN251@output_opc
$LN253@output_opc:

; 712  :               CodeInfo->evex_p2 |= EVEX_P2L1MASK;

	mov	rax, QWORD PTR CodeInfo$[rsp]
	movzx	eax, BYTE PTR [rax+139]
	or	eax, 64					; 00000040H
	mov	rcx, QWORD PTR CodeInfo$[rsp]
	mov	BYTE PTR [rcx+139], al
	jmp	SHORT $LN252@output_opc
$LN251@output_opc:

; 713  :             else if ((CodeInfo->opnd[OPND1].type & OP_YMM) || (CodeInfo->r2type & OP_YMM)) 

	mov	eax, 24
	imul	rax, rax, 0
	mov	rcx, QWORD PTR CodeInfo$[rsp]
	mov	eax, DWORD PTR [rcx+rax+32]
	and	eax, 128				; 00000080H
	test	eax, eax
	jne	SHORT $LN255@output_opc
	mov	rax, QWORD PTR CodeInfo$[rsp]
	mov	eax, DWORD PTR [rax+120]
	and	eax, 128				; 00000080H
	test	eax, eax
	je	SHORT $LN254@output_opc
$LN255@output_opc:

; 714  :               CodeInfo->evex_p2 |= EVEX_P2LMASK;

	mov	rax, QWORD PTR CodeInfo$[rsp]
	movzx	eax, BYTE PTR [rax+139]
	or	eax, 32					; 00000020H
	mov	rcx, QWORD PTR CodeInfo$[rsp]
	mov	BYTE PTR [rcx+139], al
$LN254@output_opc:
$LN252@output_opc:

; 715  :               /* here is Static Rounding Mode inserted */
; 716  :             if (CodeInfo->evex_sae){

	mov	rax, QWORD PTR CodeInfo$[rsp]
	movzx	eax, BYTE PTR [rax+141]
	test	eax, eax
	je	SHORT $LN256@output_opc

; 717  :                 CodeInfo->evex_p2 &= ~0x70;     //clear bites 6,5,4

	mov	rax, QWORD PTR CodeInfo$[rsp]
	movzx	eax, BYTE PTR [rax+139]
	and	eax, -113				; ffffffffffffff8fH
	mov	rcx, QWORD PTR CodeInfo$[rsp]
	mov	BYTE PTR [rcx+139], al

; 718  :                 c = CodeInfo->evex_sae - 0x10;  //subtract SAE to get a proper decorator

	mov	rax, QWORD PTR CodeInfo$[rsp]
	movzx	eax, BYTE PTR [rax+141]
	sub	eax, 16
	mov	BYTE PTR c$[rsp], al

; 719  :                 /* here we need to test for corect use of decorators  
; 720  :                  * if it is {sae} c will be zero, in that case we need to add 0x10 to c
; 721  :                  * if we need {sae}
; 722  :                 */   
; 723  :                 if (c == 0) c += 0x10;

	movzx	eax, BYTE PTR c$[rsp]
	test	eax, eax
	jne	SHORT $LN257@output_opc
	movzx	eax, BYTE PTR c$[rsp]
	add	eax, 16
	mov	BYTE PTR c$[rsp], al
$LN257@output_opc:

; 724  :                 CodeInfo->evex_p2 |= c;

	movzx	eax, BYTE PTR c$[rsp]
	mov	rcx, QWORD PTR CodeInfo$[rsp]
	movzx	ecx, BYTE PTR [rcx+139]
	or	ecx, eax
	mov	eax, ecx
	mov	rcx, QWORD PTR CodeInfo$[rsp]
	mov	BYTE PTR [rcx+139], al
$LN256@output_opc:

; 725  :               }
; 726  :               if (broadflags >= 0x10 && broadflags <= 0x47) CodeInfo->evex_p2 |= 0x10;

	movzx	eax, BYTE PTR broadflags
	cmp	eax, 16
	jl	SHORT $LN258@output_opc
	movzx	eax, BYTE PTR broadflags
	cmp	eax, 71					; 00000047H
	jg	SHORT $LN258@output_opc
	mov	rax, QWORD PTR CodeInfo$[rsp]
	movzx	eax, BYTE PTR [rax+139]
	or	eax, 16
	mov	rcx, QWORD PTR CodeInfo$[rsp]
	mov	BYTE PTR [rcx+139], al
$LN258@output_opc:

; 727  :                 if ((CodeInfo->token >= T_VCVTDQ2PD && CodeInfo->token <= T_VCVTTSS2SI)||

	mov	rax, QWORD PTR CodeInfo$[rsp]
	cmp	DWORD PTR [rax+24], 1899		; 0000076bH
	jl	SHORT $LN261@output_opc
	mov	rax, QWORD PTR CodeInfo$[rsp]
	cmp	DWORD PTR [rax+24], 1910		; 00000776H
	jle	SHORT $LN260@output_opc
$LN261@output_opc:
	mov	rax, QWORD PTR CodeInfo$[rsp]
	cmp	DWORD PTR [rax+24], 1906		; 00000772H
	jne	$LN259@output_opc
$LN260@output_opc:

; 728  :                 (CodeInfo->token == T_VCVTSD2SS)){
; 729  :                   if (!CodeInfo->evex_sae)

	mov	rax, QWORD PTR CodeInfo$[rsp]
	movzx	eax, BYTE PTR [rax+141]
	test	eax, eax
	jne	SHORT $LN262@output_opc

; 730  :                   CodeInfo->evex_p2 &= ~0x60;   //clear bits 6 and 5

	mov	rax, QWORD PTR CodeInfo$[rsp]
	movzx	eax, BYTE PTR [rax+139]
	and	eax, -97				; ffffffffffffff9fH
	mov	rcx, QWORD PTR CodeInfo$[rsp]
	mov	BYTE PTR [rcx+139], al
$LN262@output_opc:

; 731  :                   if (CodeInfo->opnd[OPND1].type & OP_XMM){

	mov	eax, 24
	imul	rax, rax, 0
	mov	rcx, QWORD PTR CodeInfo$[rsp]
	mov	eax, DWORD PTR [rcx+rax+32]
	and	eax, 32					; 00000020H
	test	eax, eax
	je	SHORT $LN263@output_opc

; 732  :                     if (CodeInfo->r2type & (OP_XMM | OP_M64 | OP_M))

	mov	rax, QWORD PTR CodeInfo$[rsp]
	mov	eax, DWORD PTR [rax+120]
	and	eax, -1887436768			; 8f800020H
	test	eax, eax
	je	SHORT $LN265@output_opc

; 733  :                       ;

	jmp	SHORT $LN266@output_opc
$LN265@output_opc:

; 734  :                     else EmitError(INVALID_COMBINATION_OF_OPCODE_AND_OPERANDS);

	mov	ecx, 14
	call	EmitError
$LN266@output_opc:

; 735  :                   }

	jmp	$LN264@output_opc
$LN263@output_opc:

; 736  :                   else if (CodeInfo->opnd[OPND1].type & OP_YMM){

	mov	eax, 24
	imul	rax, rax, 0
	mov	rcx, QWORD PTR CodeInfo$[rsp]
	mov	eax, DWORD PTR [rcx+rax+32]
	and	eax, 128				; 00000080H
	test	eax, eax
	je	SHORT $LN267@output_opc

; 737  :                     if (CodeInfo->r2type & (OP_XMM | OP_M128 | OP_M))

	mov	rax, QWORD PTR CodeInfo$[rsp]
	mov	eax, DWORD PTR [rax+120]
	and	eax, -1887436768			; 8f800020H
	test	eax, eax
	je	SHORT $LN269@output_opc

; 738  :                       CodeInfo->evex_p2 |= EVEX_P2LMASK;

	mov	rax, QWORD PTR CodeInfo$[rsp]
	movzx	eax, BYTE PTR [rax+139]
	or	eax, 32					; 00000020H
	mov	rcx, QWORD PTR CodeInfo$[rsp]
	mov	BYTE PTR [rcx+139], al
	jmp	SHORT $LN270@output_opc
$LN269@output_opc:

; 739  :                     else EmitError(INVALID_COMBINATION_OF_OPCODE_AND_OPERANDS);

	mov	ecx, 14
	call	EmitError
$LN270@output_opc:

; 740  :                   }

	jmp	SHORT $LN268@output_opc
$LN267@output_opc:

; 741  :                   else if (CodeInfo->opnd[OPND1].type & OP_ZMM){

	mov	eax, 24
	imul	rax, rax, 0
	mov	rcx, QWORD PTR CodeInfo$[rsp]
	mov	eax, DWORD PTR [rcx+rax+32]
	and	eax, 256				; 00000100H
	test	eax, eax
	je	SHORT $LN271@output_opc

; 742  :                     if (CodeInfo->r2type & OP_YMM | OP_M256 | OP_M)

	mov	rax, QWORD PTR CodeInfo$[rsp]
	mov	eax, DWORD PTR [rax+120]
	and	eax, 128				; 00000080H
	bts	eax, 28
	or	eax, -1887436800			; 8f800000H
	test	eax, eax
	je	SHORT $LN272@output_opc

; 743  :                       CodeInfo->evex_p2 |= EVEX_P2L1MASK;

	mov	rax, QWORD PTR CodeInfo$[rsp]
	movzx	eax, BYTE PTR [rax+139]
	or	eax, 64					; 00000040H
	mov	rcx, QWORD PTR CodeInfo$[rsp]
	mov	BYTE PTR [rcx+139], al
	jmp	SHORT $LN273@output_opc
$LN272@output_opc:

; 744  :                     else EmitError(INVALID_COMBINATION_OF_OPCODE_AND_OPERANDS);

	mov	ecx, 14
	call	EmitError
$LN273@output_opc:
$LN271@output_opc:
$LN268@output_opc:
$LN264@output_opc:
$LN259@output_opc:

; 745  :                   }
; 746  :                 }
; 747  :                 if (CodeInfo->token >= T_VPGATHERDD && CodeInfo->token <= T_VGATHERQPS){

	mov	rax, QWORD PTR CodeInfo$[rsp]
	cmp	DWORD PTR [rax+24], 1340		; 0000053cH
	jl	SHORT $LN274@output_opc
	mov	rax, QWORD PTR CodeInfo$[rsp]
	cmp	DWORD PTR [rax+24], 1347		; 00000543H
	jg	SHORT $LN274@output_opc

; 748  :                   CodeInfo->evex_p2 |= EVEX_P2L1MASK;

	mov	rax, QWORD PTR CodeInfo$[rsp]
	movzx	eax, BYTE PTR [rax+139]
	or	eax, 64					; 00000040H
	mov	rcx, QWORD PTR CodeInfo$[rsp]
	mov	BYTE PTR [rcx+139], al

; 749  :                   CodeInfo->tuple = TRUE;

	mov	rax, QWORD PTR CodeInfo$[rsp]
	mov	BYTE PTR [rax+140], 1
$LN274@output_opc:

; 750  :                 }
; 751  :                 if (CodeInfo->token >= T_VPSCATTERDD && CodeInfo->token <= T_VSCATTERQPD){

	mov	rax, QWORD PTR CodeInfo$[rsp]
	cmp	DWORD PTR [rax+24], 1348		; 00000544H
	jl	SHORT $LN275@output_opc
	mov	rax, QWORD PTR CodeInfo$[rsp]
	cmp	DWORD PTR [rax+24], 1355		; 0000054bH
	jg	SHORT $LN275@output_opc

; 752  :                   CodeInfo->evex_p2 &= ~EVEX_P2LMASK;

	mov	rax, QWORD PTR CodeInfo$[rsp]
	movzx	eax, BYTE PTR [rax+139]
	and	eax, -33				; ffffffffffffffdfH
	mov	rcx, QWORD PTR CodeInfo$[rsp]
	mov	BYTE PTR [rcx+139], al

; 753  :                   CodeInfo->evex_p2 |= EVEX_P2L1MASK;

	mov	rax, QWORD PTR CodeInfo$[rsp]
	movzx	eax, BYTE PTR [rax+139]
	or	eax, 64					; 00000040H
	mov	rcx, QWORD PTR CodeInfo$[rsp]
	mov	BYTE PTR [rcx+139], al

; 754  :                 CodeInfo->tuple = TRUE;

	mov	rax, QWORD PTR CodeInfo$[rsp]
	mov	BYTE PTR [rax+140], 1
$LN275@output_opc:

; 755  :                 }
; 756  :                 if ((CodeInfo->token == T_VEXTRACTPS)||(CodeInfo->token == T_VCVTSD2USI)||
; 757  :                   (CodeInfo->token == T_VCVTSS2USI)||(CodeInfo->token == T_VCVTTSD2USI))

	mov	rax, QWORD PTR CodeInfo$[rsp]
	cmp	DWORD PTR [rax+24], 1917		; 0000077dH
	je	SHORT $LN277@output_opc
	mov	rax, QWORD PTR CodeInfo$[rsp]
	cmp	DWORD PTR [rax+24], 1598		; 0000063eH
	je	SHORT $LN277@output_opc
	mov	rax, QWORD PTR CodeInfo$[rsp]
	cmp	DWORD PTR [rax+24], 1599		; 0000063fH
	je	SHORT $LN277@output_opc
	mov	rax, QWORD PTR CodeInfo$[rsp]
	cmp	DWORD PTR [rax+24], 1618		; 00000652H
	jne	SHORT $LN276@output_opc
$LN277@output_opc:

; 758  :                   CodeInfo->evex_p2 &= ~EVEX_P2L1MASK;

	mov	rax, QWORD PTR CodeInfo$[rsp]
	movzx	eax, BYTE PTR [rax+139]
	and	eax, -65				; ffffffffffffffbfH
	mov	rcx, QWORD PTR CodeInfo$[rsp]
	mov	BYTE PTR [rcx+139], al
$LN276@output_opc:

; 759  :                   if ((CodeInfo->token == T_VEXTRACTF32x4) || (CodeInfo->token == T_VEXTRACTF64x2)||
; 760  :                     (CodeInfo->token == T_VEXTRACTF64x4)|| (CodeInfo->token == T_VEXTRACTF32x8)||
; 761  :                     (CodeInfo->token == T_VEXTRACTI32x4)||(CodeInfo->token == T_VEXTRACTI64x4)||
; 762  :                     (CodeInfo->token == T_VEXTRACTI64x2)|| (CodeInfo->token == T_VEXTRACTI32x8)||
; 763  :                   (CodeInfo->token == T_VEXTRACTPS)|| (CodeInfo->token == T_VEXTRACTPS)){

	mov	rax, QWORD PTR CodeInfo$[rsp]
	cmp	DWORD PTR [rax+24], 1312		; 00000520H
	je	$LN279@output_opc
	mov	rax, QWORD PTR CodeInfo$[rsp]
	cmp	DWORD PTR [rax+24], 1313		; 00000521H
	je	$LN279@output_opc
	mov	rax, QWORD PTR CodeInfo$[rsp]
	cmp	DWORD PTR [rax+24], 1315		; 00000523H
	je	SHORT $LN279@output_opc
	mov	rax, QWORD PTR CodeInfo$[rsp]
	cmp	DWORD PTR [rax+24], 1314		; 00000522H
	je	SHORT $LN279@output_opc
	mov	rax, QWORD PTR CodeInfo$[rsp]
	cmp	DWORD PTR [rax+24], 1317		; 00000525H
	je	SHORT $LN279@output_opc
	mov	rax, QWORD PTR CodeInfo$[rsp]
	cmp	DWORD PTR [rax+24], 1320		; 00000528H
	je	SHORT $LN279@output_opc
	mov	rax, QWORD PTR CodeInfo$[rsp]
	cmp	DWORD PTR [rax+24], 1318		; 00000526H
	je	SHORT $LN279@output_opc
	mov	rax, QWORD PTR CodeInfo$[rsp]
	cmp	DWORD PTR [rax+24], 1319		; 00000527H
	je	SHORT $LN279@output_opc
	mov	rax, QWORD PTR CodeInfo$[rsp]
	cmp	DWORD PTR [rax+24], 1917		; 0000077dH
	je	SHORT $LN279@output_opc
	mov	rax, QWORD PTR CodeInfo$[rsp]
	cmp	DWORD PTR [rax+24], 1917		; 0000077dH
	jne	SHORT $LN278@output_opc
$LN279@output_opc:

; 764  :                     CodeInfo->evex_p2 &= ~EVEX_P2BMASK;

	mov	rax, QWORD PTR CodeInfo$[rsp]
	movzx	eax, BYTE PTR [rax+139]
	and	eax, -17
	mov	rcx, QWORD PTR CodeInfo$[rsp]
	mov	BYTE PTR [rcx+139], al

; 765  :                     CodeInfo->evex_p2 &= ~EVEX_P2LMASK;

	mov	rax, QWORD PTR CodeInfo$[rsp]
	movzx	eax, BYTE PTR [rax+139]
	and	eax, -33				; ffffffffffffffdfH
	mov	rcx, QWORD PTR CodeInfo$[rsp]
	mov	BYTE PTR [rcx+139], al
$LN278@output_opc:

; 766  :                   }
; 767  :                 if (CodeInfo->evex_flag){

	mov	rax, QWORD PTR CodeInfo$[rsp]
	movzx	eax, BYTE PTR [rax+136]
	test	eax, eax
	je	$LN280@output_opc

; 768  :                   if (CodeInfo->vexregop){

	mov	rax, QWORD PTR CodeInfo$[rsp]
	movzx	eax, BYTE PTR [rax+128]
	test	eax, eax
	je	SHORT $LN281@output_opc

; 769  :                     if (CodeInfo->reg2 <= 15) CodeInfo->evex_p2 |= EVEX_P2VMASK;

	mov	rax, QWORD PTR CodeInfo$[rsp]
	movzx	eax, BYTE PTR [rax+110]
	cmp	eax, 15
	jg	SHORT $LN283@output_opc
	mov	rax, QWORD PTR CodeInfo$[rsp]
	movzx	eax, BYTE PTR [rax+139]
	or	eax, 8
	mov	rcx, QWORD PTR CodeInfo$[rsp]
	mov	BYTE PTR [rcx+139], al
	jmp	SHORT $LN284@output_opc
$LN283@output_opc:

; 770  :                     else CodeInfo->evex_p2 &= ~EVEX_P2VMASK;

	mov	rax, QWORD PTR CodeInfo$[rsp]
	movzx	eax, BYTE PTR [rax+139]
	and	eax, -9
	mov	rcx, QWORD PTR CodeInfo$[rsp]
	mov	BYTE PTR [rcx+139], al
$LN284@output_opc:

; 771  :                   }

	jmp	SHORT $LN282@output_opc
$LN281@output_opc:

; 772  :                   else CodeInfo->evex_p2 |= EVEX_P2VMASK;

	mov	rax, QWORD PTR CodeInfo$[rsp]
	movzx	eax, BYTE PTR [rax+139]
	or	eax, 8
	mov	rcx, QWORD PTR CodeInfo$[rsp]
	mov	BYTE PTR [rcx+139], al
$LN282@output_opc:

; 773  :               if ((CodeInfo->token == T_VRNDSCALEPD) || (CodeInfo->token == T_VRNDSCALEPS)||

	mov	rax, QWORD PTR CodeInfo$[rsp]
	cmp	DWORD PTR [rax+24], 1610		; 0000064aH
	je	SHORT $LN286@output_opc
	mov	rax, QWORD PTR CodeInfo$[rsp]
	cmp	DWORD PTR [rax+24], 1611		; 0000064bH
	je	SHORT $LN286@output_opc
	mov	rax, QWORD PTR CodeInfo$[rsp]
	cmp	DWORD PTR [rax+24], 1428		; 00000594H
	jne	SHORT $LN285@output_opc
$LN286@output_opc:

; 774  :                    (CodeInfo->token ==  T_VCVTPS2PH))
; 775  :                     CodeInfo->evex_p2 |= EVEX_P2VMASK;

	mov	rax, QWORD PTR CodeInfo$[rsp]
	movzx	eax, BYTE PTR [rax+139]
	or	eax, 8
	mov	rcx, QWORD PTR CodeInfo$[rsp]
	mov	BYTE PTR [rcx+139], al
$LN285@output_opc:

; 776  :                 CodeInfo->evex_p2 |= decoflags;

	movzx	eax, BYTE PTR decoflags
	mov	rcx, QWORD PTR CodeInfo$[rsp]
	movzx	ecx, BYTE PTR [rcx+139]
	or	ecx, eax
	mov	eax, ecx
	mov	rcx, QWORD PTR CodeInfo$[rsp]
	mov	BYTE PTR [rcx+139], al

; 777  :               if (CodeInfo->token == T_VCVTDQ2PD)

	mov	rax, QWORD PTR CodeInfo$[rsp]
	cmp	DWORD PTR [rax+24], 1899		; 0000076bH
	jne	SHORT $LN287@output_opc

; 778  :                 CodeInfo->evex_p2 &= ~EVEX_P2L1MASK;

	mov	rax, QWORD PTR CodeInfo$[rsp]
	movzx	eax, BYTE PTR [rax+139]
	and	eax, -65				; ffffffffffffffbfH
	mov	rcx, QWORD PTR CodeInfo$[rsp]
	mov	BYTE PTR [rcx+139], al
$LN287@output_opc:

; 779  :                 OutputCodeByte(CodeInfo->evex_p2);

	mov	rax, QWORD PTR CodeInfo$[rsp]
	movzx	ecx, BYTE PTR [rax+139]
	call	OutputByte
$LN280@output_opc:
$LN250@output_opc:

; 780  :                 }
; 781  :             }
; 782  :         } else {

	jmp	$LN87@output_opc
$LN86@output_opc:

; 783  :             lbyte |= ( ( CodeInfo->prefix.rex & REX_R ) ? 0 : EVEX_P1WMASK );

	mov	rax, QWORD PTR CodeInfo$[rsp]
	movzx	eax, BYTE PTR [rax+8]
	and	eax, 4
	test	eax, eax
	je	SHORT $LN547@output_opc
	mov	DWORD PTR tv1644[rsp], 0
	jmp	SHORT $LN548@output_opc
$LN547@output_opc:
	mov	DWORD PTR tv1644[rsp], 128		; 00000080H
$LN548@output_opc:
	movzx	eax, BYTE PTR lbyte$5[rsp]
	or	eax, DWORD PTR tv1644[rsp]
	mov	BYTE PTR lbyte$5[rsp], al

; 784  :             /* first byte is 0xC5  in 2 byte version  */
; 785  :             if (CodeInfo->evex_flag) {

	mov	rax, QWORD PTR CodeInfo$[rsp]
	movzx	eax, BYTE PTR [rax+136]
	test	eax, eax
	je	$LN288@output_opc

; 786  :               OutputCodeByte(0x62);

	mov	cl, 98					; 00000062H
	call	OutputByte

; 787  :               if ((CodeInfo->opnd[OPND1].type & OP_M_ANY)|| (CodeInfo->opnd[OPND2].type & OP_M_ANY)||

	mov	eax, 24
	imul	rax, rax, 0
	mov	rcx, QWORD PTR CodeInfo$[rsp]
	mov	eax, DWORD PTR [rcx+rax+32]
	and	eax, -8388608				; ffffffffff800000H
	test	eax, eax
	jne	SHORT $LN291@output_opc
	mov	eax, 24
	imul	rax, rax, 1
	mov	rcx, QWORD PTR CodeInfo$[rsp]
	mov	eax, DWORD PTR [rcx+rax+32]
	and	eax, -8388608				; ffffffffff800000H
	test	eax, eax
	jne	SHORT $LN291@output_opc
	mov	eax, 24
	imul	rax, rax, 2
	mov	rcx, QWORD PTR CodeInfo$[rsp]
	mov	eax, DWORD PTR [rcx+rax+32]
	and	eax, -8388608				; ffffffffff800000H
	test	eax, eax
	je	SHORT $LN290@output_opc
$LN291@output_opc:

; 788  :                 (CodeInfo->opnd[OPND3].type & OP_M_ANY)) CodeInfo->tuple = TRUE;

	mov	rax, QWORD PTR CodeInfo$[rsp]
	mov	BYTE PTR [rax+140], 1
$LN290@output_opc:

; 789  :               lbyte &= ~EVEX_P1WMASK;

	movzx	eax, BYTE PTR lbyte$5[rsp]
	btr	eax, 7
	mov	BYTE PTR lbyte$5[rsp], al

; 790  :               lbyte |=  ((CodeInfo->pinstr->prefix)>>8 & EVEX_P1WMASK);

	mov	rax, QWORD PTR CodeInfo$[rsp]
	mov	rax, QWORD PTR [rax+16]
	movzx	eax, WORD PTR [rax+8]
	sar	eax, 8
	and	eax, 128				; 00000080H
	movzx	ecx, BYTE PTR lbyte$5[rsp]
	or	ecx, eax
	mov	eax, ecx
	mov	BYTE PTR lbyte$5[rsp], al

; 791  :               if ((CodeInfo->opnd[OPND2].type == OP_M64)||(CodeInfo->opnd[OPND1].type == OP_M64)) 

	mov	eax, 24
	imul	rax, rax, 1
	mov	rcx, QWORD PTR CodeInfo$[rsp]
	cmp	DWORD PTR [rcx+rax+32], 67108864	; 04000000H
	je	SHORT $LN293@output_opc
	mov	eax, 24
	imul	rax, rax, 0
	mov	rcx, QWORD PTR CodeInfo$[rsp]
	cmp	DWORD PTR [rcx+rax+32], 67108864	; 04000000H
	jne	SHORT $LN292@output_opc
$LN293@output_opc:

; 792  :                 lbyte |= EVEX_P1WMASK;

	movzx	eax, BYTE PTR lbyte$5[rsp]
	bts	eax, 7
	mov	BYTE PTR lbyte$5[rsp], al
$LN292@output_opc:

; 793  :               if ((CodeInfo->opnd[OPND2].type == OP_R32) || (CodeInfo->opnd[OPND2].type == OP_EAX)||
; 794  :                 (CodeInfo->opnd[OPND1].type == OP_R32) || (CodeInfo->opnd[OPND1].type == OP_EAX)){

	mov	eax, 24
	imul	rax, rax, 1
	mov	rcx, QWORD PTR CodeInfo$[rsp]
	cmp	DWORD PTR [rcx+rax+32], 4
	je	SHORT $LN295@output_opc
	mov	eax, 24
	imul	rax, rax, 1
	mov	rcx, QWORD PTR CodeInfo$[rsp]
	cmp	DWORD PTR [rcx+rax+32], 516		; 00000204H
	je	SHORT $LN295@output_opc
	mov	eax, 24
	imul	rax, rax, 0
	mov	rcx, QWORD PTR CodeInfo$[rsp]
	cmp	DWORD PTR [rcx+rax+32], 4
	je	SHORT $LN295@output_opc
	mov	eax, 24
	imul	rax, rax, 0
	mov	rcx, QWORD PTR CodeInfo$[rsp]
	cmp	DWORD PTR [rcx+rax+32], 516		; 00000204H
	jne	SHORT $LN294@output_opc
$LN295@output_opc:

; 795  :                 lbyte &= ~EVEX_P1WMASK;

	movzx	eax, BYTE PTR lbyte$5[rsp]
	btr	eax, 7
	mov	BYTE PTR lbyte$5[rsp], al
$LN294@output_opc:

; 796  :               }
; 797  :               switch ( ins->byte1_info ) {                     

	mov	rax, QWORD PTR ins$[rsp]
	movzx	eax, BYTE PTR [rax+1]
	mov	BYTE PTR tv1720[rsp], al
	cmp	BYTE PTR tv1720[rsp], 23
	je	SHORT $LN296@output_opc
	cmp	BYTE PTR tv1720[rsp], 24
	je	SHORT $LN297@output_opc
	cmp	BYTE PTR tv1720[rsp], 25
	je	SHORT $LN296@output_opc
	cmp	BYTE PTR tv1720[rsp], 26
	je	SHORT $LN297@output_opc
	cmp	BYTE PTR tv1720[rsp], 27
	je	SHORT $LN296@output_opc
	jmp	SHORT $LN298@output_opc
$LN296@output_opc:

; 798  :               case F_0F38:                                     
; 799  :               case F_660F38:                                   
; 800  :               case F_F20F38:                                   
; 801  :                   CodeInfo->evex_p0 |= 0x02;

	mov	rax, QWORD PTR CodeInfo$[rsp]
	movzx	eax, BYTE PTR [rax+137]
	or	eax, 2
	mov	rcx, QWORD PTR CodeInfo$[rsp]
	mov	BYTE PTR [rcx+137], al

; 802  :                   break;

	jmp	SHORT $LN10@output_opc
$LN297@output_opc:

; 803  :               case F_0F3A:
; 804  :               case F_660F3A:
; 805  :                   CodeInfo->evex_p0 |= 0x03;

	mov	rax, QWORD PTR CodeInfo$[rsp]
	movzx	eax, BYTE PTR [rax+137]
	or	eax, 3
	mov	rcx, QWORD PTR CodeInfo$[rsp]
	mov	BYTE PTR [rcx+137], al

; 806  :                   break;

	jmp	SHORT $LN10@output_opc
$LN298@output_opc:

; 807  :               default:
; 808  :                 if (ins->byte1_info >= F_0F){

	mov	rax, QWORD PTR ins$[rsp]
	movzx	eax, BYTE PTR [rax+1]
	cmp	eax, 16
	jl	SHORT $LN299@output_opc

; 809  :                   CodeInfo->evex_p0 |= 0x01;

	mov	rax, QWORD PTR CodeInfo$[rsp]
	movzx	eax, BYTE PTR [rax+137]
	or	eax, 1
	mov	rcx, QWORD PTR CodeInfo$[rsp]
	mov	BYTE PTR [rcx+137], al
$LN299@output_opc:
$LN10@output_opc:

; 810  :                 }
; 811  :               }
; 812  :               CodeInfo->evex_p0 |= EVEX_P0XMASK;

	mov	rax, QWORD PTR CodeInfo$[rsp]
	movzx	eax, BYTE PTR [rax+137]
	or	eax, 64					; 00000040H
	mov	rcx, QWORD PTR CodeInfo$[rsp]
	mov	BYTE PTR [rcx+137], al

; 813  :               CodeInfo->evex_p0 |= EVEX_P0BMASK;

	mov	rax, QWORD PTR CodeInfo$[rsp]
	movzx	eax, BYTE PTR [rax+137]
	or	eax, 32					; 00000020H
	mov	rcx, QWORD PTR CodeInfo$[rsp]
	mov	BYTE PTR [rcx+137], al

; 814  :                if ((CodeInfo->token >= T_VMOVLHPS)&&(CodeInfo->token <= T_VMOVLPS)||         
; 815  :                  (CodeInfo->token == T_VMOVNTDQ)||                                           
; 816  :                (CodeInfo->token == T_VMOVUPD)||(CodeInfo->token == T_VMOVAPD)||              
; 817  :                (CodeInfo->token >= T_VMOVDQA32)&&(CodeInfo->token <= T_VMOVDQU64)||          
; 818  :                (CodeInfo->token == T_VMOVAPS)||(CodeInfo->token == T_VMOVUPS)){              

	mov	rax, QWORD PTR CodeInfo$[rsp]
	cmp	DWORD PTR [rax+24], 1934		; 0000078eH
	jl	SHORT $LN303@output_opc
	mov	rax, QWORD PTR CodeInfo$[rsp]
	cmp	DWORD PTR [rax+24], 1938		; 00000792H
	jle	SHORT $LN302@output_opc
$LN303@output_opc:
	mov	rax, QWORD PTR CodeInfo$[rsp]
	cmp	DWORD PTR [rax+24], 1943		; 00000797H
	je	SHORT $LN302@output_opc
	mov	rax, QWORD PTR CodeInfo$[rsp]
	cmp	DWORD PTR [rax+24], 1949		; 0000079dH
	je	SHORT $LN302@output_opc
	mov	rax, QWORD PTR CodeInfo$[rsp]
	cmp	DWORD PTR [rax+24], 1927		; 00000787H
	je	SHORT $LN302@output_opc
	mov	rax, QWORD PTR CodeInfo$[rsp]
	cmp	DWORD PTR [rax+24], 1638		; 00000666H
	jl	SHORT $LN304@output_opc
	mov	rax, QWORD PTR CodeInfo$[rsp]
	cmp	DWORD PTR [rax+24], 1641		; 00000669H
	jle	SHORT $LN302@output_opc
$LN304@output_opc:
	mov	rax, QWORD PTR CodeInfo$[rsp]
	cmp	DWORD PTR [rax+24], 1928		; 00000788H
	je	SHORT $LN302@output_opc
	mov	rax, QWORD PTR CodeInfo$[rsp]
	cmp	DWORD PTR [rax+24], 1950		; 0000079eH
	jne	$LN300@output_opc
$LN302@output_opc:

; 819  :                 if ((CodeInfo->opnd[OPND1].type & OP_XMM)||(CodeInfo->opnd[OPND1].type & OP_YMM)||

	mov	eax, 24
	imul	rax, rax, 0
	mov	rcx, QWORD PTR CodeInfo$[rsp]
	mov	eax, DWORD PTR [rcx+rax+32]
	and	eax, 32					; 00000020H
	test	eax, eax
	jne	SHORT $LN307@output_opc
	mov	eax, 24
	imul	rax, rax, 0
	mov	rcx, QWORD PTR CodeInfo$[rsp]
	mov	eax, DWORD PTR [rcx+rax+32]
	and	eax, 128				; 00000080H
	test	eax, eax
	jne	SHORT $LN307@output_opc
	mov	eax, 24
	imul	rax, rax, 0
	mov	rcx, QWORD PTR CodeInfo$[rsp]
	mov	eax, DWORD PTR [rcx+rax+32]
	and	eax, 256				; 00000100H
	test	eax, eax
	je	$LN305@output_opc
$LN307@output_opc:

; 820  :                 (CodeInfo->opnd[OPND1].type & OP_ZMM)){
; 821  :                   if ((CodeInfo->reg1 <= 7) || (CodeInfo->reg1 >= 16 && CodeInfo->reg1 <= 23))

	mov	rax, QWORD PTR CodeInfo$[rsp]
	movzx	eax, BYTE PTR [rax+109]
	cmp	eax, 7
	jle	SHORT $LN310@output_opc
	mov	rax, QWORD PTR CodeInfo$[rsp]
	movzx	eax, BYTE PTR [rax+109]
	cmp	eax, 16
	jl	SHORT $LN308@output_opc
	mov	rax, QWORD PTR CodeInfo$[rsp]
	movzx	eax, BYTE PTR [rax+109]
	cmp	eax, 23
	jg	SHORT $LN308@output_opc
$LN310@output_opc:

; 822  :                     CodeInfo->evex_p0 |= EVEX_P0RMASK;

	mov	rax, QWORD PTR CodeInfo$[rsp]
	movzx	eax, BYTE PTR [rax+137]
	bts	eax, 7
	mov	rcx, QWORD PTR CodeInfo$[rsp]
	mov	BYTE PTR [rcx+137], al
	jmp	SHORT $LN309@output_opc
$LN308@output_opc:

; 823  :                   else CodeInfo->evex_p0 &= ~EVEX_P0RMASK;

	mov	rax, QWORD PTR CodeInfo$[rsp]
	movzx	eax, BYTE PTR [rax+137]
	btr	eax, 7
	mov	rcx, QWORD PTR CodeInfo$[rsp]
	mov	BYTE PTR [rcx+137], al
$LN309@output_opc:

; 824  :                   if (CodeInfo->reg1 <= 15) CodeInfo->evex_p0 |= EVEX_P0R1MASK;

	mov	rax, QWORD PTR CodeInfo$[rsp]
	movzx	eax, BYTE PTR [rax+109]
	cmp	eax, 15
	jg	SHORT $LN311@output_opc
	mov	rax, QWORD PTR CodeInfo$[rsp]
	movzx	eax, BYTE PTR [rax+137]
	or	eax, 16
	mov	rcx, QWORD PTR CodeInfo$[rsp]
	mov	BYTE PTR [rcx+137], al
	jmp	SHORT $LN312@output_opc
$LN311@output_opc:

; 825  :                   else CodeInfo->evex_p0 &= ~EVEX_P0R1MASK;

	mov	rax, QWORD PTR CodeInfo$[rsp]
	movzx	eax, BYTE PTR [rax+137]
	and	eax, -17
	mov	rcx, QWORD PTR CodeInfo$[rsp]
	mov	BYTE PTR [rcx+137], al
$LN312@output_opc:

; 826  :                   if (CodeInfo->opnd[OPND1].type & OP_YMM) CodeInfo->evex_p2 |= EVEX_P2LMASK;

	mov	eax, 24
	imul	rax, rax, 0
	mov	rcx, QWORD PTR CodeInfo$[rsp]
	mov	eax, DWORD PTR [rcx+rax+32]
	and	eax, 128				; 00000080H
	test	eax, eax
	je	SHORT $LN313@output_opc
	mov	rax, QWORD PTR CodeInfo$[rsp]
	movzx	eax, BYTE PTR [rax+139]
	or	eax, 32					; 00000020H
	mov	rcx, QWORD PTR CodeInfo$[rsp]
	mov	BYTE PTR [rcx+139], al
$LN313@output_opc:

; 827  :                   if (CodeInfo->opnd[OPND1].type & OP_ZMM) CodeInfo->evex_p2 |= EVEX_P2L1MASK;

	mov	eax, 24
	imul	rax, rax, 0
	mov	rcx, QWORD PTR CodeInfo$[rsp]
	mov	eax, DWORD PTR [rcx+rax+32]
	and	eax, 256				; 00000100H
	test	eax, eax
	je	SHORT $LN314@output_opc
	mov	rax, QWORD PTR CodeInfo$[rsp]
	movzx	eax, BYTE PTR [rax+139]
	or	eax, 64					; 00000040H
	mov	rcx, QWORD PTR CodeInfo$[rsp]
	mov	BYTE PTR [rcx+139], al
$LN314@output_opc:

; 828  :                 }

	jmp	$LN306@output_opc
$LN305@output_opc:

; 829  :               else if ((CodeInfo->opnd[OPND2].type & OP_XMM)||(CodeInfo->opnd[OPND2].type & OP_YMM)||

	mov	eax, 24
	imul	rax, rax, 1
	mov	rcx, QWORD PTR CodeInfo$[rsp]
	mov	eax, DWORD PTR [rcx+rax+32]
	and	eax, 32					; 00000020H
	test	eax, eax
	jne	SHORT $LN316@output_opc
	mov	eax, 24
	imul	rax, rax, 1
	mov	rcx, QWORD PTR CodeInfo$[rsp]
	mov	eax, DWORD PTR [rcx+rax+32]
	and	eax, 128				; 00000080H
	test	eax, eax
	jne	SHORT $LN316@output_opc
	mov	eax, 24
	imul	rax, rax, 1
	mov	rcx, QWORD PTR CodeInfo$[rsp]
	mov	eax, DWORD PTR [rcx+rax+32]
	and	eax, 256				; 00000100H
	test	eax, eax
	je	$LN315@output_opc
$LN316@output_opc:

; 830  :                 (CodeInfo->opnd[OPND2].type & OP_ZMM)){
; 831  :                   if ((CodeInfo->reg2 <= 7) || (CodeInfo->reg2 >= 16 && CodeInfo->reg2 <= 23))

	mov	rax, QWORD PTR CodeInfo$[rsp]
	movzx	eax, BYTE PTR [rax+110]
	cmp	eax, 7
	jle	SHORT $LN319@output_opc
	mov	rax, QWORD PTR CodeInfo$[rsp]
	movzx	eax, BYTE PTR [rax+110]
	cmp	eax, 16
	jl	SHORT $LN317@output_opc
	mov	rax, QWORD PTR CodeInfo$[rsp]
	movzx	eax, BYTE PTR [rax+110]
	cmp	eax, 23
	jg	SHORT $LN317@output_opc
$LN319@output_opc:

; 832  :                     CodeInfo->evex_p0 |= EVEX_P0RMASK;

	mov	rax, QWORD PTR CodeInfo$[rsp]
	movzx	eax, BYTE PTR [rax+137]
	bts	eax, 7
	mov	rcx, QWORD PTR CodeInfo$[rsp]
	mov	BYTE PTR [rcx+137], al
	jmp	SHORT $LN318@output_opc
$LN317@output_opc:

; 833  :                   else CodeInfo->evex_p0 &= ~EVEX_P0RMASK;

	mov	rax, QWORD PTR CodeInfo$[rsp]
	movzx	eax, BYTE PTR [rax+137]
	btr	eax, 7
	mov	rcx, QWORD PTR CodeInfo$[rsp]
	mov	BYTE PTR [rcx+137], al
$LN318@output_opc:

; 834  :                   if (CodeInfo->reg1 > 0x07)

	mov	rax, QWORD PTR CodeInfo$[rsp]
	movzx	eax, BYTE PTR [rax+109]
	cmp	eax, 7
	jle	SHORT $LN320@output_opc

; 835  :                     CodeInfo->evex_p0 &= ~EVEX_P0R1MASK;

	mov	rax, QWORD PTR CodeInfo$[rsp]
	movzx	eax, BYTE PTR [rax+137]
	and	eax, -17
	mov	rcx, QWORD PTR CodeInfo$[rsp]
	mov	BYTE PTR [rcx+137], al
	jmp	SHORT $LN321@output_opc
$LN320@output_opc:

; 836  :                   else CodeInfo->evex_p0 &= ~EVEX_P0R1MASK;  

	mov	rax, QWORD PTR CodeInfo$[rsp]
	movzx	eax, BYTE PTR [rax+137]
	and	eax, -17
	mov	rcx, QWORD PTR CodeInfo$[rsp]
	mov	BYTE PTR [rcx+137], al
$LN321@output_opc:

; 837  :                   if (CodeInfo->opnd[OPND2].type & OP_YMM) CodeInfo->evex_p2 |= EVEX_P2LMASK;

	mov	eax, 24
	imul	rax, rax, 1
	mov	rcx, QWORD PTR CodeInfo$[rsp]
	mov	eax, DWORD PTR [rcx+rax+32]
	and	eax, 128				; 00000080H
	test	eax, eax
	je	SHORT $LN322@output_opc
	mov	rax, QWORD PTR CodeInfo$[rsp]
	movzx	eax, BYTE PTR [rax+139]
	or	eax, 32					; 00000020H
	mov	rcx, QWORD PTR CodeInfo$[rsp]
	mov	BYTE PTR [rcx+139], al
$LN322@output_opc:

; 838  :                   if (CodeInfo->opnd[OPND2].type & OP_ZMM) CodeInfo->evex_p2 |= EVEX_P2L1MASK;

	mov	eax, 24
	imul	rax, rax, 1
	mov	rcx, QWORD PTR CodeInfo$[rsp]
	mov	eax, DWORD PTR [rcx+rax+32]
	and	eax, 256				; 00000100H
	test	eax, eax
	je	SHORT $LN323@output_opc
	mov	rax, QWORD PTR CodeInfo$[rsp]
	movzx	eax, BYTE PTR [rax+139]
	or	eax, 64					; 00000040H
	mov	rcx, QWORD PTR CodeInfo$[rsp]
	mov	BYTE PTR [rcx+139], al
$LN323@output_opc:
$LN315@output_opc:
$LN306@output_opc:

; 839  :                 } 
; 840  :               }

	jmp	$LN301@output_opc
$LN300@output_opc:

; 841  :               else{
; 842  :                 if (CodeInfo->reg1 <= 15) CodeInfo->evex_p0 |= EVEX_P0R1MASK;

	mov	rax, QWORD PTR CodeInfo$[rsp]
	movzx	eax, BYTE PTR [rax+109]
	cmp	eax, 15
	jg	SHORT $LN324@output_opc
	mov	rax, QWORD PTR CodeInfo$[rsp]
	movzx	eax, BYTE PTR [rax+137]
	or	eax, 16
	mov	rcx, QWORD PTR CodeInfo$[rsp]
	mov	BYTE PTR [rcx+137], al
	jmp	SHORT $LN325@output_opc
$LN324@output_opc:

; 843  :                 else CodeInfo->evex_p0 &= ~EVEX_P0R1MASK;

	mov	rax, QWORD PTR CodeInfo$[rsp]
	movzx	eax, BYTE PTR [rax+137]
	and	eax, -17
	mov	rcx, QWORD PTR CodeInfo$[rsp]
	mov	BYTE PTR [rcx+137], al
$LN325@output_opc:

; 844  :                 if ((CodeInfo->reg1 <= 7) || (CodeInfo->reg1 >= 16 && CodeInfo->reg1 <= 23))

	mov	rax, QWORD PTR CodeInfo$[rsp]
	movzx	eax, BYTE PTR [rax+109]
	cmp	eax, 7
	jle	SHORT $LN328@output_opc
	mov	rax, QWORD PTR CodeInfo$[rsp]
	movzx	eax, BYTE PTR [rax+109]
	cmp	eax, 16
	jl	SHORT $LN326@output_opc
	mov	rax, QWORD PTR CodeInfo$[rsp]
	movzx	eax, BYTE PTR [rax+109]
	cmp	eax, 23
	jg	SHORT $LN326@output_opc
$LN328@output_opc:

; 845  :                   CodeInfo->evex_p0 |= EVEX_P0RMASK;

	mov	rax, QWORD PTR CodeInfo$[rsp]
	movzx	eax, BYTE PTR [rax+137]
	bts	eax, 7
	mov	rcx, QWORD PTR CodeInfo$[rsp]
	mov	BYTE PTR [rcx+137], al
	jmp	SHORT $LN327@output_opc
$LN326@output_opc:

; 846  :                 else CodeInfo->evex_p0 &= ~EVEX_P0RMASK;

	mov	rax, QWORD PTR CodeInfo$[rsp]
	movzx	eax, BYTE PTR [rax+137]
	btr	eax, 7
	mov	rcx, QWORD PTR CodeInfo$[rsp]
	mov	BYTE PTR [rcx+137], al
$LN327@output_opc:
$LN301@output_opc:

; 847  :               }
; 848  :               if ((CodeInfo->token == T_VMOVNTPD)||(CodeInfo->token == T_VMOVNTPS)){

	mov	rax, QWORD PTR CodeInfo$[rsp]
	cmp	DWORD PTR [rax+24], 1945		; 00000799H
	je	SHORT $LN330@output_opc
	mov	rax, QWORD PTR CodeInfo$[rsp]
	cmp	DWORD PTR [rax+24], 1946		; 0000079aH
	jne	$LN329@output_opc
$LN330@output_opc:

; 849  :                 if (CodeInfo->reg2 <= 15) CodeInfo->evex_p0 |= EVEX_P0R1MASK;

	mov	rax, QWORD PTR CodeInfo$[rsp]
	movzx	eax, BYTE PTR [rax+110]
	cmp	eax, 15
	jg	SHORT $LN331@output_opc
	mov	rax, QWORD PTR CodeInfo$[rsp]
	movzx	eax, BYTE PTR [rax+137]
	or	eax, 16
	mov	rcx, QWORD PTR CodeInfo$[rsp]
	mov	BYTE PTR [rcx+137], al
	jmp	SHORT $LN332@output_opc
$LN331@output_opc:

; 850  :                 else CodeInfo->evex_p0 &= ~EVEX_P0R1MASK;

	mov	rax, QWORD PTR CodeInfo$[rsp]
	movzx	eax, BYTE PTR [rax+137]
	and	eax, -17
	mov	rcx, QWORD PTR CodeInfo$[rsp]
	mov	BYTE PTR [rcx+137], al
$LN332@output_opc:

; 851  :                 if ((CodeInfo->reg2 <= 7) || (CodeInfo->reg2 >= 16 && CodeInfo->reg2 <= 23))

	mov	rax, QWORD PTR CodeInfo$[rsp]
	movzx	eax, BYTE PTR [rax+110]
	cmp	eax, 7
	jle	SHORT $LN335@output_opc
	mov	rax, QWORD PTR CodeInfo$[rsp]
	movzx	eax, BYTE PTR [rax+110]
	cmp	eax, 16
	jl	SHORT $LN333@output_opc
	mov	rax, QWORD PTR CodeInfo$[rsp]
	movzx	eax, BYTE PTR [rax+110]
	cmp	eax, 23
	jg	SHORT $LN333@output_opc
$LN335@output_opc:

; 852  :                   CodeInfo->evex_p0 |= EVEX_P0RMASK;

	mov	rax, QWORD PTR CodeInfo$[rsp]
	movzx	eax, BYTE PTR [rax+137]
	bts	eax, 7
	mov	rcx, QWORD PTR CodeInfo$[rsp]
	mov	BYTE PTR [rcx+137], al
	jmp	SHORT $LN334@output_opc
$LN333@output_opc:

; 853  :                 else CodeInfo->evex_p0 &= ~EVEX_P0RMASK;

	mov	rax, QWORD PTR CodeInfo$[rsp]
	movzx	eax, BYTE PTR [rax+137]
	btr	eax, 7
	mov	rcx, QWORD PTR CodeInfo$[rsp]
	mov	BYTE PTR [rcx+137], al
$LN334@output_opc:
$LN329@output_opc:

; 854  :               }
; 855  :               if ((CodeInfo->token >= T_VMOVLHPS)&&(CodeInfo->token <= T_VMOVLPS)){

	mov	rax, QWORD PTR CodeInfo$[rsp]
	cmp	DWORD PTR [rax+24], 1934		; 0000078eH
	jl	$LN336@output_opc
	mov	rax, QWORD PTR CodeInfo$[rsp]
	cmp	DWORD PTR [rax+24], 1938		; 00000792H
	jg	SHORT $LN336@output_opc

; 856  :                 if ((CodeInfo->opnd[OPND1].type == OP_YMM)||(CodeInfo->opnd[OPND2].type == OP_YMM)||
; 857  :                 (CodeInfo->opnd[OPND1].type == OP_ZMM)||(CodeInfo->opnd[OPND2].type == OP_ZMM))

	mov	eax, 24
	imul	rax, rax, 0
	mov	rcx, QWORD PTR CodeInfo$[rsp]
	cmp	DWORD PTR [rcx+rax+32], 128		; 00000080H
	je	SHORT $LN338@output_opc
	mov	eax, 24
	imul	rax, rax, 1
	mov	rcx, QWORD PTR CodeInfo$[rsp]
	cmp	DWORD PTR [rcx+rax+32], 128		; 00000080H
	je	SHORT $LN338@output_opc
	mov	eax, 24
	imul	rax, rax, 0
	mov	rcx, QWORD PTR CodeInfo$[rsp]
	cmp	DWORD PTR [rcx+rax+32], 256		; 00000100H
	je	SHORT $LN338@output_opc
	mov	eax, 24
	imul	rax, rax, 1
	mov	rcx, QWORD PTR CodeInfo$[rsp]
	cmp	DWORD PTR [rcx+rax+32], 256		; 00000100H
	jne	SHORT $LN337@output_opc
$LN338@output_opc:

; 858  :                 EmitError( INVALID_INSTRUCTION_OPERANDS );

	mov	ecx, 49					; 00000031H
	call	EmitError
$LN337@output_opc:
$LN336@output_opc:

; 859  :               }
; 860  :               OutputCodeByte( CodeInfo->evex_p0 );

	mov	rax, QWORD PTR CodeInfo$[rsp]
	movzx	ecx, BYTE PTR [rax+137]
	call	OutputByte

; 861  :             }

	jmp	SHORT $LN289@output_opc
$LN288@output_opc:

; 862  :             else{
; 863  :               OutputCodeByte(0xC5);

	mov	cl, 197					; 000000c5H
	call	OutputByte

; 864  :               if (CodeInfo->opnd[OPND1].type == OP_YMM || CodeInfo->opnd[OPND2].type == OP_YMM || CodeInfo->token == T_VZEROALL) /* VZEROALL is 256 bits VZEROUPPER is 128 bits */

	mov	eax, 24
	imul	rax, rax, 0
	mov	rcx, QWORD PTR CodeInfo$[rsp]
	cmp	DWORD PTR [rcx+rax+32], 128		; 00000080H
	je	SHORT $LN341@output_opc
	mov	eax, 24
	imul	rax, rax, 1
	mov	rcx, QWORD PTR CodeInfo$[rsp]
	cmp	DWORD PTR [rcx+rax+32], 128		; 00000080H
	je	SHORT $LN341@output_opc
	mov	rax, QWORD PTR CodeInfo$[rsp]
	cmp	DWORD PTR [rax+24], 1332		; 00000534H
	jne	SHORT $LN339@output_opc
$LN341@output_opc:

; 865  :                  lbyte |= 0x04;  /* set L: Vector Length */

	movzx	eax, BYTE PTR lbyte$5[rsp]
	or	eax, 4
	mov	BYTE PTR lbyte$5[rsp], al
	jmp	SHORT $LN340@output_opc
$LN339@output_opc:

; 866  :               else
; 867  :                 lbyte &= ~0x04;

	movzx	eax, BYTE PTR lbyte$5[rsp]
	and	eax, -5
	mov	BYTE PTR lbyte$5[rsp], al
$LN340@output_opc:

; 868  :               CodeInfo->tuple = 0;

	mov	rax, QWORD PTR CodeInfo$[rsp]
	mov	BYTE PTR [rax+140], 0
$LN289@output_opc:

; 869  :             }
; 870  :             /* second byte R vvvv Lpp   */
; 871  :             if ((CodeInfo->token == T_LZCNT) || (CodeInfo->token == T_TZCNT))

	mov	rax, QWORD PTR CodeInfo$[rsp]
	cmp	DWORD PTR [rax+24], 1271		; 000004f7H
	je	SHORT $LN343@output_opc
	mov	rax, QWORD PTR CodeInfo$[rsp]
	cmp	DWORD PTR [rax+24], 1272		; 000004f8H
	jne	SHORT $LN342@output_opc
$LN343@output_opc:

; 872  :                lbyte |= 0x80;

	movzx	eax, BYTE PTR lbyte$5[rsp]
	bts	eax, 7
	mov	BYTE PTR lbyte$5[rsp], al
$LN342@output_opc:

; 873  :             if (CodeInfo->token == T_VMASKMOVDQU) {

	mov	rax, QWORD PTR CodeInfo$[rsp]
	cmp	DWORD PTR [rax+24], 1926		; 00000786H
	jne	SHORT $LN344@output_opc

; 874  :               /*  1 1111 0pp */
; 875  :               /*  R vvvv Lpp */
; 876  :               lbyte |= 0xF8;

	movzx	eax, BYTE PTR lbyte$5[rsp]
	or	eax, 248				; 000000f8H
	mov	BYTE PTR lbyte$5[rsp], al

; 877  :               if (ins->byte1_info == F_660F) lbyte |= 0x01;

	mov	rax, QWORD PTR ins$[rsp]
	movzx	eax, BYTE PTR [rax+1]
	cmp	eax, 18
	jne	SHORT $LN345@output_opc
	movzx	eax, BYTE PTR lbyte$5[rsp]
	or	eax, 1
	mov	BYTE PTR lbyte$5[rsp], al
	jmp	SHORT $LN346@output_opc
$LN345@output_opc:

; 878  :               else if (ins->byte1_info == F_0F) lbyte |= 0x3;

	mov	rax, QWORD PTR ins$[rsp]
	movzx	eax, BYTE PTR [rax+1]
	cmp	eax, 16
	jne	SHORT $LN347@output_opc
	movzx	eax, BYTE PTR lbyte$5[rsp]
	or	eax, 3
	mov	BYTE PTR lbyte$5[rsp], al
$LN347@output_opc:
$LN346@output_opc:
$LN344@output_opc:

; 879  :             }  //WVVVV1PP
; 880  :             /* if broadflags are prezent W = 0  in WVVVV1PP */
; 881  :               if (CodeInfo->token == T_VPGATHERDQ || CodeInfo->token == T_VPGATHERQQ ||
; 882  :                 CodeInfo->token == T_VGATHERDPD || CodeInfo->token == T_VGATHERQPD){

	mov	rax, QWORD PTR CodeInfo$[rsp]
	cmp	DWORD PTR [rax+24], 1342		; 0000053eH
	je	SHORT $LN349@output_opc
	mov	rax, QWORD PTR CodeInfo$[rsp]
	cmp	DWORD PTR [rax+24], 1343		; 0000053fH
	je	SHORT $LN349@output_opc
	mov	rax, QWORD PTR CodeInfo$[rsp]
	cmp	DWORD PTR [rax+24], 1344		; 00000540H
	je	SHORT $LN349@output_opc
	mov	rax, QWORD PTR CodeInfo$[rsp]
	cmp	DWORD PTR [rax+24], 1345		; 00000541H
	jne	SHORT $LN348@output_opc
$LN349@output_opc:

; 883  :                   lbyte |= 0x80;

	movzx	eax, BYTE PTR lbyte$5[rsp]
	bts	eax, 7
	mov	BYTE PTR lbyte$5[rsp], al
$LN348@output_opc:

; 884  :                 }
; 885  :               if (CodeInfo->token == T_VGATHERDPS)lbyte &= ~0x80;

	mov	rax, QWORD PTR CodeInfo$[rsp]
	cmp	DWORD PTR [rax+24], 1346		; 00000542H
	jne	SHORT $LN350@output_opc
	movzx	eax, BYTE PTR lbyte$5[rsp]
	btr	eax, 7
	mov	BYTE PTR lbyte$5[rsp], al
$LN350@output_opc:

; 886  :               if (CodeInfo->evex_flag){

	mov	rax, QWORD PTR CodeInfo$[rsp]
	movzx	eax, BYTE PTR [rax+136]
	test	eax, eax
	je	SHORT $LN351@output_opc

; 887  :                 if ((CodeInfo->opnd[OPND2].type == OP_R32) || (CodeInfo->opnd[OPND2].type == OP_EAX))

	mov	eax, 24
	imul	rax, rax, 1
	mov	rcx, QWORD PTR CodeInfo$[rsp]
	cmp	DWORD PTR [rcx+rax+32], 4
	je	SHORT $LN353@output_opc
	mov	eax, 24
	imul	rax, rax, 1
	mov	rcx, QWORD PTR CodeInfo$[rsp]
	cmp	DWORD PTR [rcx+rax+32], 516		; 00000204H
	jne	SHORT $LN352@output_opc
$LN353@output_opc:

; 888  :                   lbyte &= ~EVEX_P1WMASK;

	movzx	eax, BYTE PTR lbyte$5[rsp]
	btr	eax, 7
	mov	BYTE PTR lbyte$5[rsp], al
$LN352@output_opc:
$LN351@output_opc:

; 889  :               }
; 890  :             if ((CodeInfo->token >= T_KADDB) && (CodeInfo->token <= T_KUNPCKDQ)) {       //here pay atention

	mov	rax, QWORD PTR CodeInfo$[rsp]
	cmp	DWORD PTR [rax+24], 1682		; 00000692H
	jl	$LN354@output_opc
	mov	rax, QWORD PTR CodeInfo$[rsp]
	cmp	DWORD PTR [rax+24], 1708		; 000006acH
	jg	$LN354@output_opc

; 891  :               c = CodeInfo->reg2;

	mov	rax, QWORD PTR CodeInfo$[rsp]
	movzx	eax, BYTE PTR [rax+110]
	mov	BYTE PTR c$[rsp], al

; 892  :               lbyte &= 0x83;

	movzx	eax, BYTE PTR lbyte$5[rsp]
	and	eax, 131				; 00000083H
	mov	BYTE PTR lbyte$5[rsp], al

; 893  :               c = (c << 3);

	movzx	eax, BYTE PTR c$[rsp]
	shl	eax, 3
	mov	BYTE PTR c$[rsp], al

; 894  :               c = ~c;

	movzx	eax, BYTE PTR c$[rsp]
	not	eax
	mov	BYTE PTR c$[rsp], al

; 895  :               c &= EVEX_P1VVVV;

	movzx	eax, BYTE PTR c$[rsp]
	and	eax, 120				; 00000078H
	mov	BYTE PTR c$[rsp], al

; 896  :               lbyte |= c;

	movzx	eax, BYTE PTR c$[rsp]
	movzx	ecx, BYTE PTR lbyte$5[rsp]
	or	ecx, eax
	mov	eax, ecx
	mov	BYTE PTR lbyte$5[rsp], al

; 897  :               if (vex_flags[ CodeInfo->token - VEX_START ] & VX_L ) lbyte |= c;

	mov	rax, QWORD PTR CodeInfo$[rsp]
	mov	eax, DWORD PTR [rax+24]
	sub	eax, 1291				; 0000050bH
	cdqe
	lea	rcx, OFFSET FLAT:vex_flags
	movzx	eax, BYTE PTR [rcx+rax]
	and	eax, 1
	test	eax, eax
	je	SHORT $LN356@output_opc
	movzx	eax, BYTE PTR c$[rsp]
	movzx	ecx, BYTE PTR lbyte$5[rsp]
	or	ecx, eax
	mov	eax, ecx
	mov	BYTE PTR lbyte$5[rsp], al
$LN356@output_opc:

; 898  :             }

	jmp	$LN355@output_opc
$LN354@output_opc:

; 899  :             else if ((CodeInfo->token >= T_KNOTB) && (CodeInfo->token <= T_KORTESTQ)) {

	mov	rax, QWORD PTR CodeInfo$[rsp]
	cmp	DWORD PTR [rax+24], 1709		; 000006adH
	jl	SHORT $LN357@output_opc
	mov	rax, QWORD PTR CodeInfo$[rsp]
	cmp	DWORD PTR [rax+24], 1716		; 000006b4H
	jg	SHORT $LN357@output_opc

; 900  :               /*  1 1111 0pp */
; 901  :               /*  R vvvv Lpp */
; 902  :               lbyte = 0xF8;

	mov	BYTE PTR lbyte$5[rsp], 248		; 000000f8H

; 903  :               if (ins->byte1_info == F_660F) lbyte |= 0x01;

	mov	rax, QWORD PTR ins$[rsp]
	movzx	eax, BYTE PTR [rax+1]
	cmp	eax, 18
	jne	SHORT $LN359@output_opc
	movzx	eax, BYTE PTR lbyte$5[rsp]
	or	eax, 1
	mov	BYTE PTR lbyte$5[rsp], al
$LN359@output_opc:

; 904  :             }

	jmp	SHORT $LN358@output_opc
$LN357@output_opc:

; 905  :             else if ((CodeInfo->token >= T_KMOVB) && (CodeInfo->token <= T_KMOVW)) {

	mov	rax, QWORD PTR CodeInfo$[rsp]
	cmp	DWORD PTR [rax+24], 1725		; 000006bdH
	jl	SHORT $LN360@output_opc
	mov	rax, QWORD PTR CodeInfo$[rsp]
	cmp	DWORD PTR [rax+24], 1728		; 000006c0H
	jg	SHORT $LN360@output_opc

; 906  :               /*  1 1111 0pp */
; 907  :               /*  R vvvv Lpp */
; 908  :               lbyte = 0xF8;

	mov	BYTE PTR lbyte$5[rsp], 248		; 000000f8H

; 909  :               if (ins->byte1_info == F_660F) lbyte |= 0x01;

	mov	rax, QWORD PTR ins$[rsp]
	movzx	eax, BYTE PTR [rax+1]
	cmp	eax, 18
	jne	SHORT $LN361@output_opc
	movzx	eax, BYTE PTR lbyte$5[rsp]
	or	eax, 1
	mov	BYTE PTR lbyte$5[rsp], al
	jmp	SHORT $LN362@output_opc
$LN361@output_opc:

; 910  :               else if (ins->byte1_info == F_F20F) lbyte |= 0x3;

	mov	rax, QWORD PTR ins$[rsp]
	movzx	eax, BYTE PTR [rax+1]
	cmp	eax, 19
	jne	SHORT $LN363@output_opc
	movzx	eax, BYTE PTR lbyte$5[rsp]
	or	eax, 3
	mov	BYTE PTR lbyte$5[rsp], al
$LN363@output_opc:
$LN362@output_opc:
$LN360@output_opc:
$LN358@output_opc:
$LN355@output_opc:

; 911  :             }  //WVVVV1PP
; 912  :               if ((CodeInfo->token == T_VMOVHPD)||(CodeInfo->token == T_VMOVNTDQ)||

	mov	rax, QWORD PTR CodeInfo$[rsp]
	cmp	DWORD PTR [rax+24], 1935		; 0000078fH
	je	SHORT $LN365@output_opc
	mov	rax, QWORD PTR CodeInfo$[rsp]
	cmp	DWORD PTR [rax+24], 1943		; 00000797H
	je	SHORT $LN365@output_opc
	mov	rax, QWORD PTR CodeInfo$[rsp]
	cmp	DWORD PTR [rax+24], 1643		; 0000066bH
	jl	SHORT $LN364@output_opc
	mov	rax, QWORD PTR CodeInfo$[rsp]
	cmp	DWORD PTR [rax+24], 1646		; 0000066eH
	jg	SHORT $LN364@output_opc
$LN365@output_opc:

; 913  :                 (CodeInfo->token >= T_VFPCLASSPD)&&(CodeInfo->token <= T_VFPCLASSSS)){
; 914  :                 if (CodeInfo->vexregop){

	mov	rax, QWORD PTR CodeInfo$[rsp]
	movzx	eax, BYTE PTR [rax+128]
	test	eax, eax
	je	SHORT $LN366@output_opc

; 915  :                   lbyte &= ~0x78;

	movzx	eax, BYTE PTR lbyte$5[rsp]
	and	eax, -121				; ffffffffffffff87H
	mov	BYTE PTR lbyte$5[rsp], al

; 916  :                   lbyte |= ((16 - CodeInfo->vexregop) << 3);

	mov	rax, QWORD PTR CodeInfo$[rsp]
	movzx	eax, BYTE PTR [rax+128]
	mov	ecx, 16
	sub	ecx, eax
	mov	eax, ecx
	shl	eax, 3
	movzx	ecx, BYTE PTR lbyte$5[rsp]
	or	ecx, eax
	mov	eax, ecx
	mov	BYTE PTR lbyte$5[rsp], al

; 917  :                 }

	jmp	SHORT $LN367@output_opc
$LN366@output_opc:

; 918  :                 else lbyte |= 0x78;

	movzx	eax, BYTE PTR lbyte$5[rsp]
	or	eax, 120				; 00000078H
	mov	BYTE PTR lbyte$5[rsp], al
$LN367@output_opc:
$LN364@output_opc:

; 919  :               }
; 920  :               if (CodeInfo->evex_flag){

	mov	rax, QWORD PTR CodeInfo$[rsp]
	movzx	eax, BYTE PTR [rax+136]
	test	eax, eax
	je	SHORT $LN368@output_opc

; 921  :                 if ((CodeInfo->token == T_VMOVHPS) || (CodeInfo->token == T_VMOVLPS))

	mov	rax, QWORD PTR CodeInfo$[rsp]
	cmp	DWORD PTR [rax+24], 1936		; 00000790H
	je	SHORT $LN370@output_opc
	mov	rax, QWORD PTR CodeInfo$[rsp]
	cmp	DWORD PTR [rax+24], 1938		; 00000792H
	jne	SHORT $LN369@output_opc
$LN370@output_opc:

; 922  :                   lbyte &= ~EVEX_P1WMASK;

	movzx	eax, BYTE PTR lbyte$5[rsp]
	btr	eax, 7
	mov	BYTE PTR lbyte$5[rsp], al
$LN369@output_opc:
$LN368@output_opc:

; 923  :               }
; 924  :              if ((CodeInfo->token == T_VPSLLQ)||(CodeInfo->token == T_VPSRLQ)||
; 925  :                (CodeInfo->token == T_VPSRAQ)|| (CodeInfo->token == T_VPROLQ)||

	mov	rax, QWORD PTR CodeInfo$[rsp]
	cmp	DWORD PTR [rax+24], 2041		; 000007f9H
	je	SHORT $LN372@output_opc
	mov	rax, QWORD PTR CodeInfo$[rsp]
	cmp	DWORD PTR [rax+24], 2046		; 000007feH
	je	SHORT $LN372@output_opc
	mov	rax, QWORD PTR CodeInfo$[rsp]
	cmp	DWORD PTR [rax+24], 1540		; 00000604H
	je	SHORT $LN372@output_opc
	mov	rax, QWORD PTR CodeInfo$[rsp]
	cmp	DWORD PTR [rax+24], 1534		; 000005feH
	je	SHORT $LN372@output_opc
	mov	rax, QWORD PTR CodeInfo$[rsp]
	cmp	DWORD PTR [rax+24], 1538		; 00000602H
	jne	SHORT $LN371@output_opc
$LN372@output_opc:

; 926  :                (CodeInfo->token == T_VPRORQ))
; 927  :                lbyte |= EVEX_P1WMASK;

	movzx	eax, BYTE PTR lbyte$5[rsp]
	bts	eax, 7
	mov	BYTE PTR lbyte$5[rsp], al
$LN371@output_opc:

; 928  :             //if first byte is VEX 0xC5 then there is two byte folowing 
; 929  :             if ((CodeInfo->token == T_KUNPCKBW)||(CodeInfo->token == T_KUNPCKWD)||(CodeInfo->token == T_KUNPCKDQ))

	mov	rax, QWORD PTR CodeInfo$[rsp]
	cmp	DWORD PTR [rax+24], 1694		; 0000069eH
	je	SHORT $LN374@output_opc
	mov	rax, QWORD PTR CodeInfo$[rsp]
	cmp	DWORD PTR [rax+24], 1695		; 0000069fH
	je	SHORT $LN374@output_opc
	mov	rax, QWORD PTR CodeInfo$[rsp]
	cmp	DWORD PTR [rax+24], 1708		; 000006acH
	jne	SHORT $LN373@output_opc
$LN374@output_opc:

; 930  :                   lbyte |=  0x04; 

	movzx	eax, BYTE PTR lbyte$5[rsp]
	or	eax, 4
	mov	BYTE PTR lbyte$5[rsp], al
$LN373@output_opc:

; 931  :             CodeInfo->evex_p1 = lbyte;

	mov	rax, QWORD PTR CodeInfo$[rsp]
	movzx	ecx, BYTE PTR lbyte$5[rsp]
	mov	BYTE PTR [rax+138], cl

; 932  :             OutputCodeByte( lbyte );

	movzx	ecx, BYTE PTR lbyte$5[rsp]
	call	OutputByte

; 933  :             if (CodeInfo->evex_flag) {

	mov	rax, QWORD PTR CodeInfo$[rsp]
	movzx	eax, BYTE PTR [rax+136]
	test	eax, eax
	je	$LN375@output_opc

; 934  :               if (broadflags >= 0x10 && broadflags <= 0x47){         

	movzx	eax, BYTE PTR broadflags
	cmp	eax, 16
	jl	$LN376@output_opc
	movzx	eax, BYTE PTR broadflags
	cmp	eax, 71					; 00000047H
	jg	$LN376@output_opc

; 935  :                 CodeInfo->evex_p2 |= 0x10;

	mov	rax, QWORD PTR CodeInfo$[rsp]
	movzx	eax, BYTE PTR [rax+139]
	or	eax, 16
	mov	rcx, QWORD PTR CodeInfo$[rsp]
	mov	BYTE PTR [rcx+139], al

; 936  :                 if (CodeInfo->vexregop){                 

	mov	rax, QWORD PTR CodeInfo$[rsp]
	movzx	eax, BYTE PTR [rax+128]
	test	eax, eax
	je	SHORT $LN378@output_opc

; 937  :                   if (CodeInfo->reg2 <= 15) CodeInfo->evex_p2 |= EVEX_P2VMASK;

	mov	rax, QWORD PTR CodeInfo$[rsp]
	movzx	eax, BYTE PTR [rax+110]
	cmp	eax, 15
	jg	SHORT $LN380@output_opc
	mov	rax, QWORD PTR CodeInfo$[rsp]
	movzx	eax, BYTE PTR [rax+139]
	or	eax, 8
	mov	rcx, QWORD PTR CodeInfo$[rsp]
	mov	BYTE PTR [rcx+139], al
	jmp	SHORT $LN381@output_opc
$LN380@output_opc:

; 938  :                   else CodeInfo->evex_p2 &= ~EVEX_P2VMASK;

	mov	rax, QWORD PTR CodeInfo$[rsp]
	movzx	eax, BYTE PTR [rax+139]
	and	eax, -9
	mov	rcx, QWORD PTR CodeInfo$[rsp]
	mov	BYTE PTR [rcx+139], al
$LN381@output_opc:

; 939  :                 }

	jmp	SHORT $LN379@output_opc
$LN378@output_opc:

; 940  :                 else CodeInfo->evex_p2 |= EVEX_P2VMASK;

	mov	rax, QWORD PTR CodeInfo$[rsp]
	movzx	eax, BYTE PTR [rax+139]
	or	eax, 8
	mov	rcx, QWORD PTR CodeInfo$[rsp]
	mov	BYTE PTR [rcx+139], al
$LN379@output_opc:

; 941  :                 if (CodeInfo->r2type == OP_XMM && (broadflags & ~EVEX_P2AAAMASK) == 0x10){   //{1to2}

	mov	rax, QWORD PTR CodeInfo$[rsp]
	cmp	DWORD PTR [rax+120], 32			; 00000020H
	jne	SHORT $LN382@output_opc
	movzx	eax, BYTE PTR broadflags
	and	eax, -8
	cmp	eax, 16
	jne	SHORT $LN382@output_opc

; 942  :                    if ((CodeInfo->mem_type != MT_QWORD) && (CodeInfo->mem_type != MT_EMPTY))

	mov	rax, QWORD PTR CodeInfo$[rsp]
	cmp	DWORD PTR [rax+28], 7
	je	SHORT $LN384@output_opc
	mov	rax, QWORD PTR CodeInfo$[rsp]
	cmp	DWORD PTR [rax+28], 192			; 000000c0H
	je	SHORT $LN384@output_opc

; 943  :                      EmitError( INVALID_OPERAND_SIZE );

	mov	ecx, 71					; 00000047H
	call	EmitError
$LN384@output_opc:

; 944  :                    if ((CodeInfo->pinstr->prefix & 0xE0) == QSIZE)

	mov	rax, QWORD PTR CodeInfo$[rsp]
	mov	rax, QWORD PTR [rax+16]
	movzx	eax, WORD PTR [rax+8]
	and	eax, 224				; 000000e0H
	cmp	eax, 96					; 00000060H
	jne	SHORT $LN385@output_opc

; 945  :                      CodeInfo->mem_type = MT_QWORD;

	mov	rax, QWORD PTR CodeInfo$[rsp]
	mov	DWORD PTR [rax+28], 7
	jmp	SHORT $LN386@output_opc
$LN385@output_opc:

; 946  :                    else
; 947  :                      EmitError( MISMATCH_IN_THE_NUMBER_OF_BROADCASTING_ELEMENTS );

	mov	ecx, 18
	call	EmitError
$LN386@output_opc:

; 948  :                 }

	jmp	$LN383@output_opc
$LN382@output_opc:

; 949  :                 else if (CodeInfo->r2type == OP_XMM && (broadflags & ~EVEX_P2AAAMASK) == 0x20){ //{1to4} 

	mov	rax, QWORD PTR CodeInfo$[rsp]
	cmp	DWORD PTR [rax+120], 32			; 00000020H
	jne	SHORT $LN387@output_opc
	movzx	eax, BYTE PTR broadflags
	and	eax, -8
	cmp	eax, 32					; 00000020H
	jne	SHORT $LN387@output_opc

; 950  :                    if ((CodeInfo->mem_type != MT_DWORD) && (CodeInfo->mem_type != MT_EMPTY))

	mov	rax, QWORD PTR CodeInfo$[rsp]
	cmp	DWORD PTR [rax+28], 3
	je	SHORT $LN389@output_opc
	mov	rax, QWORD PTR CodeInfo$[rsp]
	cmp	DWORD PTR [rax+28], 192			; 000000c0H
	je	SHORT $LN389@output_opc

; 951  :                      EmitError( INVALID_OPERAND_SIZE );

	mov	ecx, 71					; 00000047H
	call	EmitError
$LN389@output_opc:

; 952  :                    if ((CodeInfo->pinstr->prefix & 0xE0) == DSIZE)

	mov	rax, QWORD PTR CodeInfo$[rsp]
	mov	rax, QWORD PTR [rax+16]
	movzx	eax, WORD PTR [rax+8]
	and	eax, 224				; 000000e0H
	cmp	eax, 64					; 00000040H
	jne	SHORT $LN390@output_opc

; 953  :                      CodeInfo->mem_type = MT_DWORD;

	mov	rax, QWORD PTR CodeInfo$[rsp]
	mov	DWORD PTR [rax+28], 3
	jmp	SHORT $LN391@output_opc
$LN390@output_opc:

; 954  :                    else
; 955  :                      EmitError( MISMATCH_IN_THE_NUMBER_OF_BROADCASTING_ELEMENTS );

	mov	ecx, 18
	call	EmitError
$LN391@output_opc:

; 956  :                 }

	jmp	$LN388@output_opc
$LN387@output_opc:

; 957  :                 else if (CodeInfo->r2type == OP_YMM && (broadflags & ~EVEX_P2AAAMASK) == 0x20){ //{1to4}

	mov	rax, QWORD PTR CodeInfo$[rsp]
	cmp	DWORD PTR [rax+120], 128		; 00000080H
	jne	$LN392@output_opc
	movzx	eax, BYTE PTR broadflags
	and	eax, -8
	cmp	eax, 32					; 00000020H
	jne	$LN392@output_opc

; 958  :                    if ((CodeInfo->mem_type != MT_QWORD) && (CodeInfo->mem_type != MT_EMPTY))

	mov	rax, QWORD PTR CodeInfo$[rsp]
	cmp	DWORD PTR [rax+28], 7
	je	SHORT $LN394@output_opc
	mov	rax, QWORD PTR CodeInfo$[rsp]
	cmp	DWORD PTR [rax+28], 192			; 000000c0H
	je	SHORT $LN394@output_opc

; 959  :                      EmitError( INVALID_OPERAND_SIZE );

	mov	ecx, 71					; 00000047H
	call	EmitError
$LN394@output_opc:

; 960  :                    if ((CodeInfo->pinstr->prefix & 0xE0) == QSIZE){

	mov	rax, QWORD PTR CodeInfo$[rsp]
	mov	rax, QWORD PTR [rax+16]
	movzx	eax, WORD PTR [rax+8]
	and	eax, 224				; 000000e0H
	cmp	eax, 96					; 00000060H
	jne	SHORT $LN395@output_opc

; 961  :                      CodeInfo->mem_type = MT_QWORD;

	mov	rax, QWORD PTR CodeInfo$[rsp]
	mov	DWORD PTR [rax+28], 7

; 962  :                      CodeInfo->evex_p2 |= 0x20;

	mov	rax, QWORD PTR CodeInfo$[rsp]
	movzx	eax, BYTE PTR [rax+139]
	or	eax, 32					; 00000020H
	mov	rcx, QWORD PTR CodeInfo$[rsp]
	mov	BYTE PTR [rcx+139], al

; 963  :                    }

	jmp	SHORT $LN396@output_opc
$LN395@output_opc:

; 964  :                    else 
; 965  :                      EmitError( MISMATCH_IN_THE_NUMBER_OF_BROADCASTING_ELEMENTS );

	mov	ecx, 18
	call	EmitError
$LN396@output_opc:

; 966  :                 }

	jmp	$LN393@output_opc
$LN392@output_opc:

; 967  :                 else if (CodeInfo->r2type == OP_YMM && (broadflags & ~EVEX_P2AAAMASK) == 0x30){ //{1to8}

	mov	rax, QWORD PTR CodeInfo$[rsp]
	cmp	DWORD PTR [rax+120], 128		; 00000080H
	jne	$LN397@output_opc
	movzx	eax, BYTE PTR broadflags
	and	eax, -8
	cmp	eax, 48					; 00000030H
	jne	$LN397@output_opc

; 968  :                    if ((CodeInfo->mem_type != MT_DWORD) && (CodeInfo->mem_type != MT_EMPTY)||

	mov	rax, QWORD PTR CodeInfo$[rsp]
	cmp	DWORD PTR [rax+28], 3
	je	SHORT $LN401@output_opc
	mov	rax, QWORD PTR CodeInfo$[rsp]
	cmp	DWORD PTR [rax+28], 192			; 000000c0H
	jne	SHORT $LN400@output_opc
$LN401@output_opc:
	mov	rax, QWORD PTR CodeInfo$[rsp]
	cmp	DWORD PTR [rax+28], 15
	je	SHORT $LN399@output_opc
$LN400@output_opc:

; 969  :                      (CodeInfo->mem_type != MT_OWORD))
; 970  :                      EmitError( INVALID_OPERAND_SIZE );

	mov	ecx, 71					; 00000047H
	call	EmitError
$LN399@output_opc:

; 971  :                    if ((CodeInfo->pinstr->prefix & 0xE0) == DSIZE){

	mov	rax, QWORD PTR CodeInfo$[rsp]
	mov	rax, QWORD PTR [rax+16]
	movzx	eax, WORD PTR [rax+8]
	and	eax, 224				; 000000e0H
	cmp	eax, 64					; 00000040H
	jne	SHORT $LN402@output_opc

; 972  :                      CodeInfo->mem_type = MT_DWORD;

	mov	rax, QWORD PTR CodeInfo$[rsp]
	mov	DWORD PTR [rax+28], 3

; 973  :                      CodeInfo->evex_p2 |= 0x20;

	mov	rax, QWORD PTR CodeInfo$[rsp]
	movzx	eax, BYTE PTR [rax+139]
	or	eax, 32					; 00000020H
	mov	rcx, QWORD PTR CodeInfo$[rsp]
	mov	BYTE PTR [rcx+139], al

; 974  :                    }

	jmp	SHORT $LN403@output_opc
$LN402@output_opc:

; 975  :                    else 
; 976  :                      EmitError( MISMATCH_IN_THE_NUMBER_OF_BROADCASTING_ELEMENTS );

	mov	ecx, 18
	call	EmitError
$LN403@output_opc:

; 977  :                 }

	jmp	$LN398@output_opc
$LN397@output_opc:

; 978  :                 else if ( CodeInfo->r2type == OP_ZMM && (broadflags & ~EVEX_P2AAAMASK) == 0x30){ //{1to8}

	mov	rax, QWORD PTR CodeInfo$[rsp]
	cmp	DWORD PTR [rax+120], 256		; 00000100H
	jne	SHORT $LN404@output_opc
	movzx	eax, BYTE PTR broadflags
	and	eax, -8
	cmp	eax, 48					; 00000030H
	jne	SHORT $LN404@output_opc

; 979  :                    if ((CodeInfo->pinstr->prefix & 0xE0) == QSIZE){

	mov	rax, QWORD PTR CodeInfo$[rsp]
	mov	rax, QWORD PTR [rax+16]
	movzx	eax, WORD PTR [rax+8]
	and	eax, 224				; 000000e0H
	cmp	eax, 96					; 00000060H
	jne	SHORT $LN406@output_opc

; 980  :                      CodeInfo->mem_type = MT_QWORD;

	mov	rax, QWORD PTR CodeInfo$[rsp]
	mov	DWORD PTR [rax+28], 7

; 981  :                      CodeInfo->evex_p2 |= 0x40;

	mov	rax, QWORD PTR CodeInfo$[rsp]
	movzx	eax, BYTE PTR [rax+139]
	or	eax, 64					; 00000040H
	mov	rcx, QWORD PTR CodeInfo$[rsp]
	mov	BYTE PTR [rcx+139], al

; 982  :                    }

	jmp	SHORT $LN407@output_opc
$LN406@output_opc:

; 983  :                    else 
; 984  :                      EmitError( MISMATCH_IN_THE_NUMBER_OF_BROADCASTING_ELEMENTS );

	mov	ecx, 18
	call	EmitError
$LN407@output_opc:

; 985  :                 }

	jmp	SHORT $LN405@output_opc
$LN404@output_opc:

; 986  :                 else if (CodeInfo->r2type == OP_ZMM && (broadflags & ~EVEX_P2AAAMASK) == 0x40){ //{1to16}

	mov	rax, QWORD PTR CodeInfo$[rsp]
	cmp	DWORD PTR [rax+120], 256		; 00000100H
	jne	SHORT $LN408@output_opc
	movzx	eax, BYTE PTR broadflags
	and	eax, -8
	cmp	eax, 64					; 00000040H
	jne	SHORT $LN408@output_opc

; 987  :                    if ((CodeInfo->pinstr->prefix & 0xE0) == DSIZE){

	mov	rax, QWORD PTR CodeInfo$[rsp]
	mov	rax, QWORD PTR [rax+16]
	movzx	eax, WORD PTR [rax+8]
	and	eax, 224				; 000000e0H
	cmp	eax, 64					; 00000040H
	jne	SHORT $LN409@output_opc

; 988  :                      CodeInfo->mem_type = MT_DWORD;

	mov	rax, QWORD PTR CodeInfo$[rsp]
	mov	DWORD PTR [rax+28], 3

; 989  :                      CodeInfo->evex_p2 |= 0x40;

	mov	rax, QWORD PTR CodeInfo$[rsp]
	movzx	eax, BYTE PTR [rax+139]
	or	eax, 64					; 00000040H
	mov	rcx, QWORD PTR CodeInfo$[rsp]
	mov	BYTE PTR [rcx+139], al

; 990  :                    }

	jmp	SHORT $LN410@output_opc
$LN409@output_opc:

; 991  :                    else 
; 992  :                      EmitError(MISMATCH_IN_THE_NUMBER_OF_BROADCASTING_ELEMENTS);

	mov	ecx, 18
	call	EmitError
$LN410@output_opc:
$LN408@output_opc:
$LN405@output_opc:
$LN398@output_opc:
$LN393@output_opc:
$LN388@output_opc:
$LN383@output_opc:

; 993  :                 }
; 994  :               }

	jmp	$LN377@output_opc
$LN376@output_opc:

; 995  :               else{   //check all for size
; 996  :                 if (CodeInfo->r2type == OP_YMM){              

	mov	rax, QWORD PTR CodeInfo$[rsp]
	cmp	DWORD PTR [rax+120], 128		; 00000080H
	jne	$LN411@output_opc

; 997  :                   if (CodeInfo->mem_type == MT_YMMWORD || (CodeInfo->mem_type == MT_EMPTY)){

	mov	rax, QWORD PTR CodeInfo$[rsp]
	cmp	DWORD PTR [rax+28], 31
	je	SHORT $LN415@output_opc
	mov	rax, QWORD PTR CodeInfo$[rsp]
	cmp	DWORD PTR [rax+28], 192			; 000000c0H
	jne	SHORT $LN413@output_opc
$LN415@output_opc:

; 998  :                     CodeInfo->evex_p2 |= 0x20;

	mov	rax, QWORD PTR CodeInfo$[rsp]
	movzx	eax, BYTE PTR [rax+139]
	or	eax, 32					; 00000020H
	mov	rcx, QWORD PTR CodeInfo$[rsp]
	mov	BYTE PTR [rcx+139], al

; 999  :                     if ((CodeInfo->opnd[OPND3].data32h > 0x20)||(CodeInfo->opnd[OPND3].data32h > ~0x20)) 

	mov	eax, 24
	imul	rax, rax, 2
	mov	rcx, QWORD PTR CodeInfo$[rsp]
	cmp	DWORD PTR [rcx+rax+44], 32		; 00000020H
	jg	SHORT $LN417@output_opc
	mov	eax, 24
	imul	rax, rax, 2
	mov	rcx, QWORD PTR CodeInfo$[rsp]
	cmp	DWORD PTR [rcx+rax+44], -33		; ffffffffffffffdfH
	jle	SHORT $LN416@output_opc
$LN417@output_opc:

; 1000 :                       CodeInfo->tuple = TRUE;  

	mov	rax, QWORD PTR CodeInfo$[rsp]
	mov	BYTE PTR [rax+140], 1
$LN416@output_opc:

; 1001 :                   }

	jmp	SHORT $LN414@output_opc
$LN413@output_opc:

; 1002 :                   else EmitError(INVALID_OPERAND_SIZE);

	mov	ecx, 71					; 00000047H
	call	EmitError
$LN414@output_opc:

; 1003 :                 }

	jmp	$LN412@output_opc
$LN411@output_opc:

; 1004 :                 else if (CodeInfo->r2type == OP_XMM){

	mov	rax, QWORD PTR CodeInfo$[rsp]
	cmp	DWORD PTR [rax+120], 32			; 00000020H
	jne	$LN418@output_opc

; 1005 :                   if ((CodeInfo->mem_type == MT_OWORD || CodeInfo->mem_type == MT_EMPTY)){

	mov	rax, QWORD PTR CodeInfo$[rsp]
	cmp	DWORD PTR [rax+28], 15
	je	SHORT $LN422@output_opc
	mov	rax, QWORD PTR CodeInfo$[rsp]
	cmp	DWORD PTR [rax+28], 192			; 000000c0H
	jne	SHORT $LN420@output_opc
$LN422@output_opc:

; 1006 :                     if ((CodeInfo->opnd[OPND3].data32h > 0x10)||(CodeInfo->opnd[OPND3].data32h > ~0x10))

	mov	eax, 24
	imul	rax, rax, 2
	mov	rcx, QWORD PTR CodeInfo$[rsp]
	cmp	DWORD PTR [rcx+rax+44], 16
	jg	SHORT $LN424@output_opc
	mov	eax, 24
	imul	rax, rax, 2
	mov	rcx, QWORD PTR CodeInfo$[rsp]
	cmp	DWORD PTR [rcx+rax+44], -17
	jle	SHORT $LN423@output_opc
$LN424@output_opc:

; 1007 :                       CodeInfo->tuple = TRUE;

	mov	rax, QWORD PTR CodeInfo$[rsp]
	mov	BYTE PTR [rax+140], 1
$LN423@output_opc:

; 1008 :                   }

	jmp	$LN421@output_opc
$LN420@output_opc:

; 1009 :                   else if ((CodeInfo->token >= T_VCMPEQSD || CodeInfo->token <= T_VCMPTRUE_USSD) &&

	mov	rax, QWORD PTR CodeInfo$[rsp]
	cmp	DWORD PTR [rax+24], 1825		; 00000721H
	jge	SHORT $LN427@output_opc
	mov	rax, QWORD PTR CodeInfo$[rsp]
	cmp	DWORD PTR [rax+24], 1856		; 00000740H
	jg	SHORT $LN425@output_opc
$LN427@output_opc:
	mov	rax, QWORD PTR CodeInfo$[rsp]
	cmp	DWORD PTR [rax+28], 7
	jne	SHORT $LN425@output_opc

; 1010 :                     (CodeInfo->mem_type == MT_QWORD)){
; 1011 :                       if ((CodeInfo->opnd[OPND3].data32h > 8)||(CodeInfo->opnd[OPND3].data32h > ~8))

	mov	eax, 24
	imul	rax, rax, 2
	mov	rcx, QWORD PTR CodeInfo$[rsp]
	cmp	DWORD PTR [rcx+rax+44], 8
	jg	SHORT $LN429@output_opc
	mov	eax, 24
	imul	rax, rax, 2
	mov	rcx, QWORD PTR CodeInfo$[rsp]
	cmp	DWORD PTR [rcx+rax+44], -9
	jle	SHORT $LN428@output_opc
$LN429@output_opc:

; 1012 :                       CodeInfo->tuple = TRUE;

	mov	rax, QWORD PTR CodeInfo$[rsp]
	mov	BYTE PTR [rax+140], 1
$LN428@output_opc:

; 1013 :                   }

	jmp	SHORT $LN426@output_opc
$LN425@output_opc:

; 1014 :                   else if ((CodeInfo->token >= T_VCMPEQSS || CodeInfo->token <= T_VCMPTRUE_USSS) &&

	mov	rax, QWORD PTR CodeInfo$[rsp]
	cmp	DWORD PTR [rax+24], 1857		; 00000741H
	jge	SHORT $LN432@output_opc
	mov	rax, QWORD PTR CodeInfo$[rsp]
	cmp	DWORD PTR [rax+24], 1888		; 00000760H
	jg	SHORT $LN430@output_opc
$LN432@output_opc:
	mov	rax, QWORD PTR CodeInfo$[rsp]
	cmp	DWORD PTR [rax+28], 3
	jne	SHORT $LN430@output_opc

; 1015 :                     (CodeInfo->mem_type == MT_DWORD)){
; 1016 :                       if ((CodeInfo->opnd[OPND3].data32h > 4)||(CodeInfo->opnd[OPND3].data32h > ~4))

	mov	eax, 24
	imul	rax, rax, 2
	mov	rcx, QWORD PTR CodeInfo$[rsp]
	cmp	DWORD PTR [rcx+rax+44], 4
	jg	SHORT $LN434@output_opc
	mov	eax, 24
	imul	rax, rax, 2
	mov	rcx, QWORD PTR CodeInfo$[rsp]
	cmp	DWORD PTR [rcx+rax+44], -5
	jle	SHORT $LN433@output_opc
$LN434@output_opc:

; 1017 :                       CodeInfo->tuple = TRUE;

	mov	rax, QWORD PTR CodeInfo$[rsp]
	mov	BYTE PTR [rax+140], 1
$LN433@output_opc:

; 1018 :                   }

	jmp	SHORT $LN431@output_opc
$LN430@output_opc:

; 1019 :                   else EmitError(INVALID_OPERAND_SIZE);

	mov	ecx, 71					; 00000047H
	call	EmitError
$LN431@output_opc:
$LN426@output_opc:
$LN421@output_opc:

; 1020 :                 }

	jmp	$LN419@output_opc
$LN418@output_opc:

; 1021 :                 else if (CodeInfo->r2type == OP_ZMM){

	mov	rax, QWORD PTR CodeInfo$[rsp]
	cmp	DWORD PTR [rax+120], 256		; 00000100H
	jne	SHORT $LN435@output_opc

; 1022 :                   if (CodeInfo->mem_type == MT_ZMMWORD || (CodeInfo->mem_type == MT_EMPTY)){

	mov	rax, QWORD PTR CodeInfo$[rsp]
	cmp	DWORD PTR [rax+28], 63			; 0000003fH
	je	SHORT $LN437@output_opc
	mov	rax, QWORD PTR CodeInfo$[rsp]
	cmp	DWORD PTR [rax+28], 192			; 000000c0H
	jne	SHORT $LN436@output_opc
$LN437@output_opc:

; 1023 :                     CodeInfo->evex_p2 |= 0x40;

	mov	rax, QWORD PTR CodeInfo$[rsp]
	movzx	eax, BYTE PTR [rax+139]
	or	eax, 64					; 00000040H
	mov	rcx, QWORD PTR CodeInfo$[rsp]
	mov	BYTE PTR [rcx+139], al

; 1024 :                     if ((CodeInfo->opnd[OPND3].data32h > 0x40)||(CodeInfo->opnd[OPND3].data32h > ~0x40))

	mov	eax, 24
	imul	rax, rax, 2
	mov	rcx, QWORD PTR CodeInfo$[rsp]
	cmp	DWORD PTR [rcx+rax+44], 64		; 00000040H
	jg	SHORT $LN439@output_opc
	mov	eax, 24
	imul	rax, rax, 2
	mov	rcx, QWORD PTR CodeInfo$[rsp]
	cmp	DWORD PTR [rcx+rax+44], -65		; ffffffffffffffbfH
	jle	SHORT $LN438@output_opc
$LN439@output_opc:

; 1025 :                       CodeInfo->tuple = TRUE;

	mov	rax, QWORD PTR CodeInfo$[rsp]
	mov	BYTE PTR [rax+140], 1
$LN438@output_opc:
$LN436@output_opc:
$LN435@output_opc:
$LN419@output_opc:
$LN412@output_opc:

; 1026 :                   }
; 1027 :                 }
; 1028 :                 if (CodeInfo->opnd[OPND3].data32l != -1){

	mov	eax, 24
	imul	rax, rax, 2
	mov	rcx, QWORD PTR CodeInfo$[rsp]
	cmp	DWORD PTR [rcx+rax+40], -1
	je	$LN440@output_opc

; 1029 :                   if ((CodeInfo->r2type == OP_YMM) && (CodeInfo->opnd[OPND3].type != OP_ZMM)){

	mov	rax, QWORD PTR CodeInfo$[rsp]
	cmp	DWORD PTR [rax+120], 128		; 00000080H
	jne	$LN441@output_opc
	mov	eax, 24
	imul	rax, rax, 2
	mov	rcx, QWORD PTR CodeInfo$[rsp]
	cmp	DWORD PTR [rcx+rax+32], 256		; 00000100H
	je	SHORT $LN441@output_opc

; 1030 :                     if ((CodeInfo->token >= T_VCMPEQPD) && (CodeInfo->token <= T_VCMPTRUE_USSS))

	mov	rax, QWORD PTR CodeInfo$[rsp]
	cmp	DWORD PTR [rax+24], 1761		; 000006e1H
	jl	SHORT $LN442@output_opc
	mov	rax, QWORD PTR CodeInfo$[rsp]
	cmp	DWORD PTR [rax+24], 1888		; 00000760H
	jg	SHORT $LN442@output_opc

; 1031 :                       CodeInfo->evex_p2 |= 0x40;

	mov	rax, QWORD PTR CodeInfo$[rsp]
	movzx	eax, BYTE PTR [rax+139]
	or	eax, 64					; 00000040H
	mov	rcx, QWORD PTR CodeInfo$[rsp]
	mov	BYTE PTR [rcx+139], al
$LN442@output_opc:

; 1032 :                     if (CodeInfo->opnd[OPND3].data32l >= 0x20)

	mov	eax, 24
	imul	rax, rax, 2
	mov	rcx, QWORD PTR CodeInfo$[rsp]
	cmp	DWORD PTR [rcx+rax+40], 32		; 00000020H
	jl	SHORT $LN443@output_opc

; 1033 :                       CodeInfo->tuple = TRUE;

	mov	rax, QWORD PTR CodeInfo$[rsp]
	mov	BYTE PTR [rax+140], 1
$LN443@output_opc:
$LN441@output_opc:
$LN440@output_opc:
$LN377@output_opc:

; 1034 :                   }
; 1035 :                 }
; 1036 :               }
; 1037 :               if (CodeInfo->evex_sae){

	mov	rax, QWORD PTR CodeInfo$[rsp]
	movzx	eax, BYTE PTR [rax+141]
	test	eax, eax
	je	SHORT $LN444@output_opc

; 1038 :                 CodeInfo->evex_p2 &= ~0x70;     //clear bites 6,5,4

	mov	rax, QWORD PTR CodeInfo$[rsp]
	movzx	eax, BYTE PTR [rax+139]
	and	eax, -113				; ffffffffffffff8fH
	mov	rcx, QWORD PTR CodeInfo$[rsp]
	mov	BYTE PTR [rcx+139], al

; 1039 :                 c = CodeInfo->evex_sae - 0x10;  //subtract SAE to get a proper decorator

	mov	rax, QWORD PTR CodeInfo$[rsp]
	movzx	eax, BYTE PTR [rax+141]
	sub	eax, 16
	mov	BYTE PTR c$[rsp], al

; 1040 :                 /* here we need to test for corect use of decorators  
; 1041 :                  * if it is {sae} c will be zero, in that case we need to add 0x10 to c
; 1042 :                  * if we need {sae}
; 1043 :                 */  
; 1044 :                 if (c == 0) c = 0x10;

	movzx	eax, BYTE PTR c$[rsp]
	test	eax, eax
	jne	SHORT $LN445@output_opc
	mov	BYTE PTR c$[rsp], 16
$LN445@output_opc:

; 1045 :                 CodeInfo->evex_p2 |= c;

	movzx	eax, BYTE PTR c$[rsp]
	mov	rcx, QWORD PTR CodeInfo$[rsp]
	movzx	ecx, BYTE PTR [rcx+139]
	or	ecx, eax
	mov	eax, ecx
	mov	rcx, QWORD PTR CodeInfo$[rsp]
	mov	BYTE PTR [rcx+139], al
$LN444@output_opc:

; 1046 :               }
; 1047 :                 if (CodeInfo->r2type == OP_YMM) CodeInfo->evex_p2 |= EVEX_P2LMASK;

	mov	rax, QWORD PTR CodeInfo$[rsp]
	cmp	DWORD PTR [rax+120], 128		; 00000080H
	jne	SHORT $LN446@output_opc
	mov	rax, QWORD PTR CodeInfo$[rsp]
	movzx	eax, BYTE PTR [rax+139]
	or	eax, 32					; 00000020H
	mov	rcx, QWORD PTR CodeInfo$[rsp]
	mov	BYTE PTR [rcx+139], al
	jmp	SHORT $LN447@output_opc
$LN446@output_opc:

; 1048 :                 else if (CodeInfo->opnd[OPND3].type == OP_ZMM)CodeInfo->evex_p2 |= EVEX_P2L1MASK; 

	mov	eax, 24
	imul	rax, rax, 2
	mov	rcx, QWORD PTR CodeInfo$[rsp]
	cmp	DWORD PTR [rcx+rax+32], 256		; 00000100H
	jne	SHORT $LN448@output_opc
	mov	rax, QWORD PTR CodeInfo$[rsp]
	movzx	eax, BYTE PTR [rax+139]
	or	eax, 64					; 00000040H
	mov	rcx, QWORD PTR CodeInfo$[rsp]
	mov	BYTE PTR [rcx+139], al
$LN448@output_opc:
$LN447@output_opc:

; 1049 :                 if ((CodeInfo->token >= T_VPGATHERDD && CodeInfo->token <= T_VGATHERQPS )||

	mov	rax, QWORD PTR CodeInfo$[rsp]
	cmp	DWORD PTR [rax+24], 1340		; 0000053cH
	jl	SHORT $LN451@output_opc
	mov	rax, QWORD PTR CodeInfo$[rsp]
	cmp	DWORD PTR [rax+24], 1347		; 00000543H
	jle	SHORT $LN450@output_opc
$LN451@output_opc:
	mov	rax, QWORD PTR CodeInfo$[rsp]
	cmp	DWORD PTR [rax+24], 1334		; 00000536H
	jne	SHORT $LN449@output_opc
$LN450@output_opc:

; 1050 :                   CodeInfo->token == T_VCVTPD2DQ)
; 1051 :                   CodeInfo->evex_p2 |= EVEX_P2L1MASK;

	mov	rax, QWORD PTR CodeInfo$[rsp]
	movzx	eax, BYTE PTR [rax+139]
	or	eax, 64					; 00000040H
	mov	rcx, QWORD PTR CodeInfo$[rsp]
	mov	BYTE PTR [rcx+139], al
$LN449@output_opc:

; 1052 :                   if ((CodeInfo->token == T_VEXTRACTPS)||      // 1914    1932
; 1053 :                     //(CodeInfo->token == T_VMOVHPS)||(CodeInfo->token == T_VMOVLPS)||           // 1933    1935  
; 1054 :                     (CodeInfo->token == T_VCVTSD2USI)||(CodeInfo->token == T_VCVTSS2USI)||     // 1598    1599

	mov	rax, QWORD PTR CodeInfo$[rsp]
	cmp	DWORD PTR [rax+24], 1917		; 0000077dH
	je	SHORT $LN453@output_opc
	mov	rax, QWORD PTR CodeInfo$[rsp]
	cmp	DWORD PTR [rax+24], 1598		; 0000063eH
	je	SHORT $LN453@output_opc
	mov	rax, QWORD PTR CodeInfo$[rsp]
	cmp	DWORD PTR [rax+24], 1599		; 0000063fH
	je	SHORT $LN453@output_opc
	mov	rax, QWORD PTR CodeInfo$[rsp]
	cmp	DWORD PTR [rax+24], 1935		; 0000078fH
	jl	SHORT $LN452@output_opc
	mov	rax, QWORD PTR CodeInfo$[rsp]
	cmp	DWORD PTR [rax+24], 1940		; 00000794H
	jg	SHORT $LN452@output_opc
$LN453@output_opc:

; 1055 :                     (CodeInfo->token >= T_VMOVHPD)&&(CodeInfo->token <= T_VMOVSS))              // 1936    1937
; 1056 :                     CodeInfo->evex_p2 &= ~EVEX_P2L1MASK;

	mov	rax, QWORD PTR CodeInfo$[rsp]
	movzx	eax, BYTE PTR [rax+139]
	and	eax, -65				; ffffffffffffffbfH
	mov	rcx, QWORD PTR CodeInfo$[rsp]
	mov	BYTE PTR [rcx+139], al
$LN452@output_opc:

; 1057 :                 if (CodeInfo->evex_flag){

	mov	rax, QWORD PTR CodeInfo$[rsp]
	movzx	eax, BYTE PTR [rax+136]
	test	eax, eax
	je	$LN454@output_opc

; 1058 :                   if (CodeInfo->vexregop){

	mov	rax, QWORD PTR CodeInfo$[rsp]
	movzx	eax, BYTE PTR [rax+128]
	test	eax, eax
	je	SHORT $LN455@output_opc

; 1059 :                     if (CodeInfo->reg2 <= 15) CodeInfo->evex_p2 |= EVEX_P2VMASK;

	mov	rax, QWORD PTR CodeInfo$[rsp]
	movzx	eax, BYTE PTR [rax+110]
	cmp	eax, 15
	jg	SHORT $LN457@output_opc
	mov	rax, QWORD PTR CodeInfo$[rsp]
	movzx	eax, BYTE PTR [rax+139]
	or	eax, 8
	mov	rcx, QWORD PTR CodeInfo$[rsp]
	mov	BYTE PTR [rcx+139], al
	jmp	SHORT $LN458@output_opc
$LN457@output_opc:

; 1060 :                     else CodeInfo->evex_p2 &= ~EVEX_P2VMASK;

	mov	rax, QWORD PTR CodeInfo$[rsp]
	movzx	eax, BYTE PTR [rax+139]
	and	eax, -9
	mov	rcx, QWORD PTR CodeInfo$[rsp]
	mov	BYTE PTR [rcx+139], al
$LN458@output_opc:

; 1061 :                   }

	jmp	SHORT $LN456@output_opc
$LN455@output_opc:

; 1062 :                   else CodeInfo->evex_p2 |= EVEX_P2VMASK;

	mov	rax, QWORD PTR CodeInfo$[rsp]
	movzx	eax, BYTE PTR [rax+139]
	or	eax, 8
	mov	rcx, QWORD PTR CodeInfo$[rsp]
	mov	BYTE PTR [rcx+139], al
$LN456@output_opc:

; 1063 :                   CodeInfo->tuple = TRUE;

	mov	rax, QWORD PTR CodeInfo$[rsp]
	mov	BYTE PTR [rax+140], 1

; 1064 :                   CodeInfo->evex_p2 |= decoflags;

	movzx	eax, BYTE PTR decoflags
	mov	rcx, QWORD PTR CodeInfo$[rsp]
	movzx	ecx, BYTE PTR [rcx+139]
	or	ecx, eax
	mov	eax, ecx
	mov	rcx, QWORD PTR CodeInfo$[rsp]
	mov	BYTE PTR [rcx+139], al

; 1065 :                   if (CodeInfo->token == T_VCVTDQ2PD || CodeInfo->token == T_VCVTPS2PD ||

	mov	rax, QWORD PTR CodeInfo$[rsp]
	cmp	DWORD PTR [rax+24], 1899		; 0000076bH
	je	SHORT $LN460@output_opc
	mov	rax, QWORD PTR CodeInfo$[rsp]
	cmp	DWORD PTR [rax+24], 1903		; 0000076fH
	je	SHORT $LN460@output_opc
	mov	rax, QWORD PTR CodeInfo$[rsp]
	cmp	DWORD PTR [rax+24], 1442		; 000005a2H
	jne	$LN459@output_opc
$LN460@output_opc:

; 1066 :                     CodeInfo->token == T_VCVTUDQ2PD){       
; 1067 :                      CodeInfo->evex_p2 &= ~EVEX_P2LMASK;

	mov	rax, QWORD PTR CodeInfo$[rsp]
	movzx	eax, BYTE PTR [rax+139]
	and	eax, -33				; ffffffffffffffdfH
	mov	rcx, QWORD PTR CodeInfo$[rsp]
	mov	BYTE PTR [rcx+139], al

; 1068 :                      CodeInfo->evex_p2 &= ~EVEX_P2L1MASK;

	mov	rax, QWORD PTR CodeInfo$[rsp]
	movzx	eax, BYTE PTR [rax+139]
	and	eax, -65				; ffffffffffffffbfH
	mov	rcx, QWORD PTR CodeInfo$[rsp]
	mov	BYTE PTR [rcx+139], al

; 1069 :                     if (CodeInfo->r1type == OP_YMM)CodeInfo->evex_p2 |= EVEX_P2LMASK;

	mov	rax, QWORD PTR CodeInfo$[rsp]
	cmp	DWORD PTR [rax+116], 128		; 00000080H
	jne	SHORT $LN461@output_opc
	mov	rax, QWORD PTR CodeInfo$[rsp]
	movzx	eax, BYTE PTR [rax+139]
	or	eax, 32					; 00000020H
	mov	rcx, QWORD PTR CodeInfo$[rsp]
	mov	BYTE PTR [rcx+139], al
	jmp	SHORT $LN462@output_opc
$LN461@output_opc:

; 1070 :                     else if (CodeInfo->r1type == OP_ZMM)CodeInfo->evex_p2 |= EVEX_P2L1MASK;

	mov	rax, QWORD PTR CodeInfo$[rsp]
	cmp	DWORD PTR [rax+116], 256		; 00000100H
	jne	SHORT $LN463@output_opc
	mov	rax, QWORD PTR CodeInfo$[rsp]
	movzx	eax, BYTE PTR [rax+139]
	or	eax, 64					; 00000040H
	mov	rcx, QWORD PTR CodeInfo$[rsp]
	mov	BYTE PTR [rcx+139], al
$LN463@output_opc:
$LN462@output_opc:
$LN459@output_opc:

; 1071 :                   }
; 1072 :                   OutputCodeByte(CodeInfo->evex_p2);

	mov	rax, QWORD PTR CodeInfo$[rsp]
	movzx	ecx, BYTE PTR [rax+139]
	call	OutputByte
$LN454@output_opc:
$LN375@output_opc:
$LN87@output_opc:

; 1073 :                 }
; 1074 :             }
; 1075 :         }
; 1076 :     } else {

	jmp	$LN73@output_opc
$LN72@output_opc:

; 1077 : #endif
; 1078 : 
; 1079 : #if AMD64_SUPPORT
; 1080 :     /* the REX prefix must be located after the other prefixes */
; 1081 :     if( CodeInfo->prefix.rex != 0 ) {

	mov	rax, QWORD PTR CodeInfo$[rsp]
	movzx	eax, BYTE PTR [rax+8]
	test	eax, eax
	je	SHORT $LN464@output_opc

; 1082 :         if ( CodeInfo->Ofssize != USE64 ) {

	mov	rax, QWORD PTR CodeInfo$[rsp]
	movzx	eax, BYTE PTR [rax+106]
	cmp	eax, 2
	je	SHORT $LN465@output_opc

; 1083 :             EmitError( INVALID_OPERAND_SIZE );

	mov	ecx, 71					; 00000047H
	call	EmitError
$LN465@output_opc:

; 1084 :         }
; 1085 :         OutputCodeByte( CodeInfo->prefix.rex | 0x40 );

	mov	rax, QWORD PTR CodeInfo$[rsp]
	movzx	eax, BYTE PTR [rax+8]
	or	eax, 64					; 00000040H
	movzx	ecx, al
	call	OutputByte
$LN464@output_opc:

; 1086 :     }
; 1087 : #endif
; 1088 : 
; 1089 :     /*
; 1090 :      * Output extended opcode
; 1091 :      * special case for some 286 and 386 instructions
; 1092 :      * or 3DNow!, MMX and SSEx instructions
; 1093 :      */
; 1094 :     if ( ins->byte1_info >= F_0F ) {

	mov	rax, QWORD PTR ins$[rsp]
	movzx	eax, BYTE PTR [rax+1]
	cmp	eax, 16
	jl	SHORT $LN466@output_opc

; 1095 :         OutputCodeByte( EXTENDED_OPCODE );

	mov	cl, 15
	call	OutputByte

; 1096 :         switch ( ins->byte1_info ) {

	mov	rax, QWORD PTR ins$[rsp]
	movzx	eax, BYTE PTR [rax+1]
	mov	DWORD PTR tv2621[rsp], eax
	mov	eax, DWORD PTR tv2621[rsp]
	sub	eax, 17
	mov	DWORD PTR tv2621[rsp], eax
	cmp	DWORD PTR tv2621[rsp], 10
	ja	SHORT $LN12@output_opc
	movsxd	rax, DWORD PTR tv2621[rsp]
	lea	rcx, OFFSET FLAT:__ImageBase
	mov	eax, DWORD PTR $LN549@output_opc[rcx+rax*4]
	add	rax, rcx
	jmp	rax
$LN467@output_opc:

; 1097 :         case F_0F0F:   OutputCodeByte( EXTENDED_OPCODE ); break;

	mov	cl, 15
	call	OutputByte
	jmp	SHORT $LN12@output_opc
$LN468@output_opc:

; 1098 :         case F_0F38:
; 1099 :         case F_F20F38:
; 1100 :         case F_660F38: OutputCodeByte( 0x38 );            break;

	mov	cl, 56					; 00000038H
	call	OutputByte
	jmp	SHORT $LN12@output_opc
$LN469@output_opc:

; 1101 :         case F_0F3A:
; 1102 :         case F_660F3A: OutputCodeByte( 0x3A );            break;

	mov	cl, 58					; 0000003aH
	call	OutputByte
$LN12@output_opc:
$LN466@output_opc:
$LN73@output_opc:

; 1103 :         }
; 1104 :     }
; 1105 : 
; 1106 : #if AVXSUPP
; 1107 :     }
; 1108 : #endif
; 1109 : 
; 1110 :     switch( ins->rm_info) {

	mov	rax, QWORD PTR ins$[rsp]
	movzx	eax, BYTE PTR [rax+5]
	mov	BYTE PTR tv2629[rsp], al
	cmp	BYTE PTR tv2629[rsp], 1
	je	SHORT $LN471@output_opc
	cmp	BYTE PTR tv2629[rsp], 2
	je	SHORT $LN472@output_opc
	cmp	BYTE PTR tv2629[rsp], 3
	je	SHORT $LN470@output_opc
	jmp	SHORT $LN473@output_opc
$LN470@output_opc:

; 1111 :     case R_in_OP:
; 1112 :         OutputCodeByte( ins->opcode | ( CodeInfo->rm_byte & NOT_BIT_67 ) );

	mov	rax, QWORD PTR ins$[rsp]
	movzx	eax, BYTE PTR [rax+12]
	mov	rcx, QWORD PTR CodeInfo$[rsp]
	movzx	ecx, BYTE PTR [rcx+104]
	and	ecx, 63					; 0000003fH
	or	eax, ecx
	movzx	ecx, al
	call	OutputByte

; 1113 :         break;

	jmp	$LN14@output_opc
$LN471@output_opc:

; 1114 :     case no_RM:
; 1115 :         OutputCodeByte( ins->opcode | CodeInfo->iswide );

	mov	rax, QWORD PTR ins$[rsp]
	movzx	eax, BYTE PTR [rax+12]
	mov	rcx, QWORD PTR CodeInfo$[rsp]
	movzx	ecx, BYTE PTR [rcx+142]
	and	cl, 1
	movzx	ecx, cl
	or	eax, ecx
	movzx	ecx, al
	call	OutputByte

; 1116 :         break;

	jmp	$LN14@output_opc
$LN472@output_opc:

; 1117 :     case no_WDS:
; 1118 :         CodeInfo->iswide = 0;

	mov	rax, QWORD PTR CodeInfo$[rsp]
	movzx	eax, BYTE PTR [rax+142]
	and	al, 254					; 000000feH
	mov	rcx, QWORD PTR CodeInfo$[rsp]
	mov	BYTE PTR [rcx+142], al
$LN473@output_opc:

; 1119 :         /* no break */
; 1120 :     default: /* opcode (with w d s bits), rm-byte */
; 1121 :            if( ins->byte1_info != F_0F0F ) {

	mov	rax, QWORD PTR ins$[rsp]
	movzx	eax, BYTE PTR [rax+1]
	cmp	eax, 17
	je	$LN474@output_opc

; 1122 :              if ((CodeInfo->token >= T_KADDB) && (CodeInfo->token <= T_KMOVW)){

	mov	rax, QWORD PTR CodeInfo$[rsp]
	cmp	DWORD PTR [rax+24], 1682		; 00000692H
	jl	$LN475@output_opc
	mov	rax, QWORD PTR CodeInfo$[rsp]
	cmp	DWORD PTR [rax+24], 1728		; 000006c0H
	jg	$LN475@output_opc

; 1123 :                if ((CodeInfo->token >= T_KMOVB) && (CodeInfo->token <= T_KMOVW)){

	mov	rax, QWORD PTR CodeInfo$[rsp]
	cmp	DWORD PTR [rax+24], 1725		; 000006bdH
	jl	$LN477@output_opc
	mov	rax, QWORD PTR CodeInfo$[rsp]
	cmp	DWORD PTR [rax+24], 1728		; 000006c0H
	jg	$LN477@output_opc

; 1124 :                 const  struct instr_item *p = CodeInfo->pinstr;

	mov	rax, QWORD PTR CodeInfo$[rsp]
	mov	rax, QWORD PTR [rax+16]
	mov	QWORD PTR p$7[rsp], rax

; 1125 :                  int cnt;
; 1126 :                  int type1 = CodeInfo->opnd[OPND1].type;

	mov	eax, 24
	imul	rax, rax, 0
	mov	rcx, QWORD PTR CodeInfo$[rsp]
	mov	eax, DWORD PTR [rcx+rax+32]
	mov	DWORD PTR type1$9[rsp], eax

; 1127 :                  int type2 = CodeInfo->opnd[OPND2].type;

	mov	eax, 24
	imul	rax, rax, 1
	mov	rcx, QWORD PTR CodeInfo$[rsp]
	mov	eax, DWORD PTR [rcx+rax+32]
	mov	DWORD PTR type2$10[rsp], eax

; 1128 :                  CodeInfo->tuple = 0;

	mov	rax, QWORD PTR CodeInfo$[rsp]
	mov	BYTE PTR [rax+140], 0

; 1129 :                  /* at least one operand must be K register */
; 1130 :                  if (type1 == OP_K || type2 == OP_K)

	cmp	DWORD PTR type1$9[rsp], 64		; 00000040H
	je	SHORT $LN481@output_opc
	cmp	DWORD PTR type2$10[rsp], 64		; 00000040H
	jne	SHORT $LN479@output_opc
$LN481@output_opc:

; 1131 :                    ;    //OK

	jmp	SHORT $LN480@output_opc
$LN479@output_opc:

; 1132 :                  else
; 1133 :                  EmitError(INVALID_COMBINATION_OF_OPCODE_AND_OPERANDS);

	mov	ecx, 14
	call	EmitError
$LN480@output_opc:

; 1134 :                  /* find the proper opcode for the command movw KREG,GP_REG */
; 1135 :                  for (cnt = 0; cnt < 5; cnt++,p++){

	mov	DWORD PTR cnt$8[rsp], 0
	jmp	SHORT $LN18@output_opc
$LN16@output_opc:
	mov	eax, DWORD PTR cnt$8[rsp]
	inc	eax
	mov	DWORD PTR cnt$8[rsp], eax
	mov	rax, QWORD PTR p$7[rsp]
	add	rax, 14
	mov	QWORD PTR p$7[rsp], rax
$LN18@output_opc:
	cmp	DWORD PTR cnt$8[rsp], 5
	jge	SHORT $LN17@output_opc

; 1136 :                    if ((opnd_clstab[p->opclsidx].opnd_type[OPND1] == type1) && 

	mov	rax, QWORD PTR p$7[rsp]
	movzx	eax, BYTE PTR [rax]
	imul	rax, rax, 12
	lea	rcx, OFFSET FLAT:opnd_clstab
	add	rcx, rax
	mov	rax, rcx
	mov	ecx, 4
	imul	rcx, rcx, 0
	mov	edx, DWORD PTR type1$9[rsp]
	cmp	DWORD PTR [rax+rcx], edx
	jne	SHORT $LN482@output_opc
	mov	rax, QWORD PTR p$7[rsp]
	movzx	eax, BYTE PTR [rax]
	imul	rax, rax, 12
	lea	rcx, OFFSET FLAT:opnd_clstab
	add	rcx, rax
	mov	rax, rcx
	mov	ecx, 4
	imul	rcx, rcx, 1
	mov	edx, DWORD PTR type2$10[rsp]
	cmp	DWORD PTR [rax+rcx], edx
	jne	SHORT $LN482@output_opc

; 1137 :                      (opnd_clstab[p->opclsidx].opnd_type[OPND2] == type2))
; 1138 :                      break;

	jmp	SHORT $LN17@output_opc
$LN482@output_opc:

; 1139 :                  }

	jmp	SHORT $LN16@output_opc
$LN17@output_opc:

; 1140 :                  if (cnt < 5) {   //there are 5 combinations

	cmp	DWORD PTR cnt$8[rsp], 5
	jge	SHORT $LN483@output_opc

; 1141 :                    OutputCodeByte(p->opcode);

	mov	rax, QWORD PTR p$7[rsp]
	movzx	ecx, BYTE PTR [rax+12]
	call	OutputByte

; 1142 :                  }

	jmp	SHORT $LN484@output_opc
$LN483@output_opc:

; 1143 :                  else
; 1144 :                    OutputCodeByte(ins->opcode);

	mov	rax, QWORD PTR ins$[rsp]
	movzx	ecx, BYTE PTR [rax+12]
	call	OutputByte
$LN484@output_opc:

; 1145 :               }else

	jmp	SHORT $LN478@output_opc
$LN477@output_opc:

; 1146 :                 OutputCodeByte(ins->opcode);

	mov	rax, QWORD PTR ins$[rsp]
	movzx	ecx, BYTE PTR [rax+12]
	call	OutputByte
$LN478@output_opc:

; 1147 :              }

	jmp	SHORT $LN476@output_opc
$LN475@output_opc:

; 1148 :              else{
; 1149 :                OutputCodeByte(ins->opcode | CodeInfo->iswide | CodeInfo->opc_or);

	mov	rax, QWORD PTR ins$[rsp]
	movzx	eax, BYTE PTR [rax+12]
	mov	rcx, QWORD PTR CodeInfo$[rsp]
	movzx	ecx, BYTE PTR [rcx+142]
	and	cl, 1
	movzx	ecx, cl
	or	eax, ecx
	mov	rcx, QWORD PTR CodeInfo$[rsp]
	movzx	ecx, BYTE PTR [rcx+107]
	or	eax, ecx
	movzx	ecx, al
	call	OutputByte
$LN476@output_opc:
$LN474@output_opc:

; 1150 :              }
; 1151 :         }
; 1152 : 
; 1153 :         /* emit ModRM byte; bits 7-6 = Mod, bits 5-3 = Reg, bits 2-0 = R/M */
; 1154 :            if ((CodeInfo->token == T_VRNDSCALEPD) || (CodeInfo->token == T_VRNDSCALEPS))CodeInfo->tuple = TRUE;

	mov	rax, QWORD PTR CodeInfo$[rsp]
	cmp	DWORD PTR [rax+24], 1610		; 0000064aH
	je	SHORT $LN486@output_opc
	mov	rax, QWORD PTR CodeInfo$[rsp]
	cmp	DWORD PTR [rax+24], 1611		; 0000064bH
	jne	SHORT $LN485@output_opc
$LN486@output_opc:
	mov	rax, QWORD PTR CodeInfo$[rsp]
	mov	BYTE PTR [rax+140], 1
$LN485@output_opc:

; 1155 :             if ((CodeInfo->token >= T_KADDB) && (CodeInfo->token <= T_KUNPCKDQ)) {       //here pay atention

	mov	rax, QWORD PTR CodeInfo$[rsp]
	cmp	DWORD PTR [rax+24], 1682		; 00000692H
	jl	SHORT $LN487@output_opc
	mov	rax, QWORD PTR CodeInfo$[rsp]
	cmp	DWORD PTR [rax+24], 1708		; 000006acH
	jg	SHORT $LN487@output_opc

; 1156 :               c = CodeInfo->reg1;

	mov	rax, QWORD PTR CodeInfo$[rsp]
	movzx	eax, BYTE PTR [rax+109]
	mov	BYTE PTR c$[rsp], al

; 1157 :               tmp = MOD_11;           //bits 7-6 = Mod

	mov	BYTE PTR tmp$[rsp], 192			; 000000c0H

; 1158 :               c = (c << 3);           //bits 5-3 = Reg,

	movzx	eax, BYTE PTR c$[rsp]
	shl	eax, 3
	mov	BYTE PTR c$[rsp], al

; 1159 :               tmp |= c;            

	movzx	eax, BYTE PTR c$[rsp]
	movzx	ecx, BYTE PTR tmp$[rsp]
	or	ecx, eax
	mov	eax, ecx
	mov	BYTE PTR tmp$[rsp], al

; 1160 :               tmp |= CodeInfo->reg3;  //bits 2-0 = R/M

	mov	rax, QWORD PTR CodeInfo$[rsp]
	movzx	eax, BYTE PTR [rax+111]
	movzx	ecx, BYTE PTR tmp$[rsp]
	or	ecx, eax
	mov	eax, ecx
	mov	BYTE PTR tmp$[rsp], al

; 1161 :             }

	jmp	SHORT $LN488@output_opc
$LN487@output_opc:

; 1162 :             else if ((CodeInfo->token >= T_KNOTB) && (CodeInfo->token <= T_KORTESTQ)) {

	mov	rax, QWORD PTR CodeInfo$[rsp]
	cmp	DWORD PTR [rax+24], 1709		; 000006adH
	jl	SHORT $LN489@output_opc
	mov	rax, QWORD PTR CodeInfo$[rsp]
	cmp	DWORD PTR [rax+24], 1716		; 000006b4H
	jg	SHORT $LN489@output_opc

; 1163 :                 tmp = MOD_11;                 //bits 7-6 = Mod

	mov	BYTE PTR tmp$[rsp], 192			; 000000c0H

; 1164 :                 tmp |= (CodeInfo->reg1 << 3); //bits 5-3 = Reg,

	mov	rax, QWORD PTR CodeInfo$[rsp]
	movzx	eax, BYTE PTR [rax+109]
	shl	eax, 3
	movzx	ecx, BYTE PTR tmp$[rsp]
	or	ecx, eax
	mov	eax, ecx
	mov	BYTE PTR tmp$[rsp], al

; 1165 :                 tmp |= CodeInfo->reg2;        //bits 2-0 = R/M

	mov	rax, QWORD PTR CodeInfo$[rsp]
	movzx	eax, BYTE PTR [rax+110]
	movzx	ecx, BYTE PTR tmp$[rsp]
	or	ecx, eax
	mov	eax, ecx
	mov	BYTE PTR tmp$[rsp], al

; 1166 :             }

	jmp	SHORT $LN490@output_opc
$LN489@output_opc:

; 1167 :         else
; 1168 :         tmp = ins->rm_byte | CodeInfo->rm_byte;

	mov	rax, QWORD PTR ins$[rsp]
	movzx	eax, BYTE PTR [rax+13]
	mov	rcx, QWORD PTR CodeInfo$[rsp]
	movzx	ecx, BYTE PTR [rcx+104]
	or	eax, ecx
	mov	BYTE PTR tmp$[rsp], al
$LN490@output_opc:
$LN488@output_opc:

; 1169 :             if (CodeInfo->token == T_VCVTPS2PH){//(!CodeInfo->evex_flag) && 

	mov	rax, QWORD PTR CodeInfo$[rsp]
	cmp	DWORD PTR [rax+24], 1428		; 00000594H
	jne	SHORT $LN491@output_opc

; 1170 :               //tmp &= 0xC0;
; 1171 :               c = CodeInfo->reg2;

	mov	rax, QWORD PTR CodeInfo$[rsp]
	movzx	eax, BYTE PTR [rax+110]
	mov	BYTE PTR c$[rsp], al

; 1172 :               if (c > 15)c -= 16 ;

	movzx	eax, BYTE PTR c$[rsp]
	cmp	eax, 15
	jle	SHORT $LN492@output_opc
	movzx	eax, BYTE PTR c$[rsp]
	sub	eax, 16
	mov	BYTE PTR c$[rsp], al
$LN492@output_opc:

; 1173 :               if (c > 7)c -= 8;

	movzx	eax, BYTE PTR c$[rsp]
	cmp	eax, 7
	jle	SHORT $LN493@output_opc
	movzx	eax, BYTE PTR c$[rsp]
	sub	eax, 8
	mov	BYTE PTR c$[rsp], al
$LN493@output_opc:

; 1174 :               c = (c << 3);

	movzx	eax, BYTE PTR c$[rsp]
	shl	eax, 3
	mov	BYTE PTR c$[rsp], al

; 1175 :               tmp |= c;

	movzx	eax, BYTE PTR c$[rsp]
	movzx	ecx, BYTE PTR tmp$[rsp]
	or	ecx, eax
	mov	eax, ecx
	mov	BYTE PTR tmp$[rsp], al
$LN491@output_opc:

; 1176 :             }
; 1177 :         if (CodeInfo->basetype == T_RIP) tmp &= ~MOD_10;

	mov	rax, QWORD PTR CodeInfo$[rsp]
	movzx	eax, BYTE PTR [rax+108]
	cmp	eax, 131				; 00000083H
	jne	SHORT $LN494@output_opc
	movzx	eax, BYTE PTR tmp$[rsp]
	btr	eax, 7
	mov	BYTE PTR tmp$[rsp], al
$LN494@output_opc:

; 1178 :         /* use only if TypleType is present  */
; 1179 :         if (CodeInfo->tuple){

	mov	rax, QWORD PTR CodeInfo$[rsp]
	movzx	eax, BYTE PTR [rax+140]
	test	eax, eax
	je	$LN495@output_opc

; 1180 :           int index = -1;

	mov	DWORD PTR index$11[rsp], -1

; 1181 :           int d;
; 1182 :           if ((CodeInfo->opnd[OPND1].type & OP_M_ANY) &&

	mov	eax, 24
	imul	rax, rax, 0
	mov	rcx, QWORD PTR CodeInfo$[rsp]
	mov	eax, DWORD PTR [rcx+rax+32]
	and	eax, -8388608				; ffffffffff800000H
	test	eax, eax
	je	SHORT $LN496@output_opc
	mov	eax, 24
	imul	rax, rax, 0
	mov	rcx, QWORD PTR CodeInfo$[rsp]
	cmp	DWORD PTR [rcx+rax+40], -1
	je	SHORT $LN496@output_opc

; 1183 :             (CodeInfo->opnd[OPND1].data32l != -1))  index = OPND1;

	mov	DWORD PTR index$11[rsp], 0
	jmp	SHORT $LN497@output_opc
$LN496@output_opc:

; 1184 :           else if ((CodeInfo->opnd[OPND2].type & OP_M_ANY) &&

	mov	eax, 24
	imul	rax, rax, 1
	mov	rcx, QWORD PTR CodeInfo$[rsp]
	mov	eax, DWORD PTR [rcx+rax+32]
	and	eax, -8388608				; ffffffffff800000H
	test	eax, eax
	je	SHORT $LN498@output_opc
	mov	eax, 24
	imul	rax, rax, 0
	mov	rcx, QWORD PTR CodeInfo$[rsp]
	cmp	DWORD PTR [rcx+rax+40], -1
	je	SHORT $LN498@output_opc

; 1185 :             (CodeInfo->opnd[OPND1].data32l != -1))
; 1186 :             index = OPND2;

	mov	DWORD PTR index$11[rsp], 1
$LN498@output_opc:
$LN497@output_opc:

; 1187 :           if ((index != -1) && ((Check4CompDisp8(CodeInfo, &comprdsp, &d, CodeInfo->opnd[index].data32l)) && comprdsp)){

	cmp	DWORD PTR index$11[rsp], -1
	je	SHORT $LN499@output_opc
	movsxd	rax, DWORD PTR index$11[rsp]
	imul	rax, rax, 24
	mov	rcx, QWORD PTR CodeInfo$[rsp]
	mov	r9d, DWORD PTR [rcx+rax+40]
	lea	r8, QWORD PTR d$12[rsp]
	lea	rdx, QWORD PTR comprdsp$[rsp]
	mov	rcx, QWORD PTR CodeInfo$[rsp]
	call	Check4CompDisp8
	movzx	eax, al
	test	eax, eax
	je	SHORT $LN499@output_opc
	movsx	eax, BYTE PTR comprdsp$[rsp]
	test	eax, eax
	je	SHORT $LN499@output_opc

; 1188 :             CodeInfo->opnd[index].data32l = comprdsp;

	movsxd	rax, DWORD PTR index$11[rsp]
	imul	rax, rax, 24
	movsx	ecx, BYTE PTR comprdsp$[rsp]
	mov	rdx, QWORD PTR CodeInfo$[rsp]
	mov	DWORD PTR [rdx+rax+40], ecx

; 1189 :             tmp &= ~MOD_10;     /* if        mod = 10, r/m = 100, s-i-b is present */

	movzx	eax, BYTE PTR tmp$[rsp]
	btr	eax, 7
	mov	BYTE PTR tmp$[rsp], al

; 1190 :             tmp |= MOD_01;      /* change to mod = 01, r/m = 100, s-i-b is present */

	movzx	eax, BYTE PTR tmp$[rsp]
	or	eax, 64					; 00000040H
	mov	BYTE PTR tmp$[rsp], al

; 1191 :           }

	jmp	$LN500@output_opc
$LN499@output_opc:

; 1192 :           else if (CodeInfo->opnd[OPND2].type == OP_I8 ){

	mov	eax, 24
	imul	rax, rax, 1
	mov	rcx, QWORD PTR CodeInfo$[rsp]
	cmp	DWORD PTR [rcx+rax+32], 131072		; 00020000H
	jne	$LN501@output_opc

; 1193 :             if ((CodeInfo->token >= T_VPSLLW) && (CodeInfo->token <= T_VPSRLQ) ||
; 1194 :               (CodeInfo->token == T_VRNDSCALEPD) || (CodeInfo->token == T_VRNDSCALEPS)||

	mov	rax, QWORD PTR CodeInfo$[rsp]
	cmp	DWORD PTR [rax+24], 2039		; 000007f7H
	jl	SHORT $LN505@output_opc
	mov	rax, QWORD PTR CodeInfo$[rsp]
	cmp	DWORD PTR [rax+24], 2046		; 000007feH
	jle	SHORT $LN504@output_opc
$LN505@output_opc:
	mov	rax, QWORD PTR CodeInfo$[rsp]
	cmp	DWORD PTR [rax+24], 1610		; 0000064aH
	je	SHORT $LN504@output_opc
	mov	rax, QWORD PTR CodeInfo$[rsp]
	cmp	DWORD PTR [rax+24], 1611		; 0000064bH
	je	SHORT $LN504@output_opc
	mov	rax, QWORD PTR CodeInfo$[rsp]
	cmp	DWORD PTR [rax+24], 1529		; 000005f9H
	jl	$LN503@output_opc
	mov	rax, QWORD PTR CodeInfo$[rsp]
	cmp	DWORD PTR [rax+24], 1546		; 0000060aH
	jg	$LN503@output_opc
$LN504@output_opc:

; 1195 :               (CodeInfo->token >= T_VPSLLVD) && (CodeInfo->token <= T_VPSRLVW)){
; 1196 :               if ((CodeInfo->vexconst) && ((Check4CompDisp8(CodeInfo, &comprdsp, &d, CodeInfo->vexconst)) && comprdsp)){

	mov	rax, QWORD PTR CodeInfo$[rsp]
	cmp	DWORD PTR [rax+124], 0
	je	$LN506@output_opc
	mov	rax, QWORD PTR CodeInfo$[rsp]
	mov	r9d, DWORD PTR [rax+124]
	lea	r8, QWORD PTR d$12[rsp]
	lea	rdx, QWORD PTR comprdsp$[rsp]
	mov	rcx, QWORD PTR CodeInfo$[rsp]
	call	Check4CompDisp8
	movzx	eax, al
	test	eax, eax
	je	$LN506@output_opc
	movsx	eax, BYTE PTR comprdsp$[rsp]
	test	eax, eax
	je	$LN506@output_opc

; 1197 :                 CodeInfo->opnd[OPND1].data32l = comprdsp;                tmp &= ~MOD_10;     /* if        mod = 10, r/m = 100, s-i-b is present */

	mov	eax, 24
	imul	rax, rax, 0
	movsx	ecx, BYTE PTR comprdsp$[rsp]
	mov	rdx, QWORD PTR CodeInfo$[rsp]
	mov	DWORD PTR [rdx+rax+40], ecx
	movzx	eax, BYTE PTR tmp$[rsp]
	btr	eax, 7
	mov	BYTE PTR tmp$[rsp], al

; 1198 :                 tmp |= MOD_01;      /* change to mod = 01, r/m = 100, s-i-b is present */

	movzx	eax, BYTE PTR tmp$[rsp]
	or	eax, 64					; 00000040H
	mov	BYTE PTR tmp$[rsp], al

; 1199 :                 if ((CodeInfo->token == T_VRNDSCALEPD) || (CodeInfo->token == T_VRNDSCALEPS)){                   

	mov	rax, QWORD PTR CodeInfo$[rsp]
	cmp	DWORD PTR [rax+24], 1610		; 0000064aH
	je	SHORT $LN509@output_opc
	mov	rax, QWORD PTR CodeInfo$[rsp]
	cmp	DWORD PTR [rax+24], 1611		; 0000064bH
	jne	SHORT $LN508@output_opc
$LN509@output_opc:

; 1200 :                      c = CodeInfo->reg2;

	mov	rax, QWORD PTR CodeInfo$[rsp]
	movzx	eax, BYTE PTR [rax+110]
	mov	BYTE PTR c$[rsp], al

; 1201 :                      if (c > 15) c -= 16;

	movzx	eax, BYTE PTR c$[rsp]
	cmp	eax, 15
	jle	SHORT $LN510@output_opc
	movzx	eax, BYTE PTR c$[rsp]
	sub	eax, 16
	mov	BYTE PTR c$[rsp], al
$LN510@output_opc:

; 1202 :                      if (c > 7) c -= 8;

	movzx	eax, BYTE PTR c$[rsp]
	cmp	eax, 7
	jle	SHORT $LN511@output_opc
	movzx	eax, BYTE PTR c$[rsp]
	sub	eax, 8
	mov	BYTE PTR c$[rsp], al
$LN511@output_opc:

; 1203 :                      tmp |= c;

	movzx	eax, BYTE PTR c$[rsp]
	movzx	ecx, BYTE PTR tmp$[rsp]
	or	ecx, eax
	mov	eax, ecx
	mov	BYTE PTR tmp$[rsp], al
$LN508@output_opc:

; 1204 :                  }
; 1205 :               }

	jmp	$LN507@output_opc
$LN506@output_opc:

; 1206 :               else{
; 1207 :                 CodeInfo->tuple = 0;

	mov	rax, QWORD PTR CodeInfo$[rsp]
	mov	BYTE PTR [rax+140], 0

; 1208 :                 if (CodeInfo->indexreg != 0xff){

	mov	rax, QWORD PTR CodeInfo$[rsp]
	movzx	eax, BYTE PTR [rax+112]
	cmp	eax, 255				; 000000ffH
	je	$LN512@output_opc

; 1209 :                   tmp &= ~NOT_BIT_345;

	movzx	eax, BYTE PTR tmp$[rsp]
	and	eax, -200				; ffffffffffffff38H
	mov	BYTE PTR tmp$[rsp], al

; 1210 :                   tmp &= ~BIT_012;

	movzx	eax, BYTE PTR tmp$[rsp]
	and	eax, -8
	mov	BYTE PTR tmp$[rsp], al

; 1211 :                   tmp |= MOD_10;

	movzx	eax, BYTE PTR tmp$[rsp]
	bts	eax, 7
	mov	BYTE PTR tmp$[rsp], al

; 1212 :                   tmp |= RM_SIB;

	movzx	eax, BYTE PTR tmp$[rsp]
	or	eax, 4
	mov	BYTE PTR tmp$[rsp], al

; 1213 :                   c = CodeInfo->indexreg;

	mov	rax, QWORD PTR CodeInfo$[rsp]
	movzx	eax, BYTE PTR [rax+112]
	mov	BYTE PTR c$[rsp], al

; 1214 :                   c = (c &= 0x7) << 3;

	movzx	eax, BYTE PTR c$[rsp]
	and	eax, 7
	mov	BYTE PTR c$[rsp], al
	movzx	eax, BYTE PTR c$[rsp]
	shl	eax, 3
	mov	BYTE PTR c$[rsp], al

; 1215 :                   CodeInfo->sib |= c;

	movzx	eax, BYTE PTR c$[rsp]
	mov	rcx, QWORD PTR CodeInfo$[rsp]
	movzx	ecx, BYTE PTR [rcx+105]
	or	ecx, eax
	mov	eax, ecx
	mov	rcx, QWORD PTR CodeInfo$[rsp]
	mov	BYTE PTR [rcx+105], al

; 1216 :                   c = CodeInfo->basereg;

	mov	rax, QWORD PTR CodeInfo$[rsp]
	movzx	eax, BYTE PTR [rax+113]
	mov	BYTE PTR c$[rsp], al

; 1217 :                   c &= 0x7;

	movzx	eax, BYTE PTR c$[rsp]
	and	eax, 7
	mov	BYTE PTR c$[rsp], al

; 1218 :                   CodeInfo->sib |= c;

	movzx	eax, BYTE PTR c$[rsp]
	mov	rcx, QWORD PTR CodeInfo$[rsp]
	movzx	ecx, BYTE PTR [rcx+105]
	or	ecx, eax
	mov	eax, ecx
	mov	rcx, QWORD PTR CodeInfo$[rsp]
	mov	BYTE PTR [rcx+105], al

; 1219 :                   CodeInfo->rm_byte = tmp;

	mov	rax, QWORD PTR CodeInfo$[rsp]
	movzx	ecx, BYTE PTR tmp$[rsp]
	mov	BYTE PTR [rax+104], cl

; 1220 :                   CodeInfo->sib |= MOD_11;

	mov	rax, QWORD PTR CodeInfo$[rsp]
	movzx	eax, BYTE PTR [rax+105]
	or	eax, 192				; 000000c0H
	mov	rcx, QWORD PTR CodeInfo$[rsp]
	mov	BYTE PTR [rcx+105], al

; 1221 :                   CodeInfo->opnd[OPND1].data32l = CodeInfo->vexconst;

	mov	eax, 24
	imul	rax, rax, 0
	mov	rcx, QWORD PTR CodeInfo$[rsp]
	mov	rdx, QWORD PTR CodeInfo$[rsp]
	mov	edx, DWORD PTR [rdx+124]
	mov	DWORD PTR [rcx+rax+40], edx

; 1222 :                 }

	jmp	$LN513@output_opc
$LN512@output_opc:

; 1223 :                 else {
; 1224 :                   if ((CodeInfo->opnd[OPND1].type == OP_R64) || (CodeInfo->opnd[OPND1].type == OP_RAX) ||
; 1225 :                     (CodeInfo->opnd[OPND1].type == OP_R32) || (CodeInfo->opnd[OPND1].type == OP_EAX)){

	mov	eax, 24
	imul	rax, rax, 0
	mov	rcx, QWORD PTR CodeInfo$[rsp]
	cmp	DWORD PTR [rcx+rax+32], 8
	je	SHORT $LN516@output_opc
	mov	eax, 24
	imul	rax, rax, 0
	mov	rcx, QWORD PTR CodeInfo$[rsp]
	cmp	DWORD PTR [rcx+rax+32], 520		; 00000208H
	je	SHORT $LN516@output_opc
	mov	eax, 24
	imul	rax, rax, 0
	mov	rcx, QWORD PTR CodeInfo$[rsp]
	cmp	DWORD PTR [rcx+rax+32], 4
	je	SHORT $LN516@output_opc
	mov	eax, 24
	imul	rax, rax, 0
	mov	rcx, QWORD PTR CodeInfo$[rsp]
	cmp	DWORD PTR [rcx+rax+32], 516		; 00000204H
	jne	SHORT $LN514@output_opc
$LN516@output_opc:

; 1226 :                     tmp &= ~MOD_11;

	movzx	eax, BYTE PTR tmp$[rsp]
	and	eax, -193				; ffffffffffffff3fH
	mov	BYTE PTR tmp$[rsp], al

; 1227 :                     if (CodeInfo->vexconst){

	mov	rax, QWORD PTR CodeInfo$[rsp]
	cmp	DWORD PTR [rax+124], 0
	je	SHORT $LN517@output_opc

; 1228 :                       tmp |= MOD_10;

	movzx	eax, BYTE PTR tmp$[rsp]
	bts	eax, 7
	mov	BYTE PTR tmp$[rsp], al

; 1229 :                       CodeInfo->rm_byte = tmp;

	mov	rax, QWORD PTR CodeInfo$[rsp]
	movzx	ecx, BYTE PTR tmp$[rsp]
	mov	BYTE PTR [rax+104], cl

; 1230 :                       CodeInfo->opnd[OPND1].data32l = CodeInfo->vexconst;

	mov	eax, 24
	imul	rax, rax, 0
	mov	rcx, QWORD PTR CodeInfo$[rsp]
	mov	rdx, QWORD PTR CodeInfo$[rsp]
	mov	edx, DWORD PTR [rdx+124]
	mov	DWORD PTR [rcx+rax+40], edx
$LN517@output_opc:

; 1231 :                     }
; 1232 :                   }

	jmp	$LN515@output_opc
$LN514@output_opc:

; 1233 :                   else if ((CodeInfo->opnd[OPND1].type == OP_XMM) || (CodeInfo->opnd[OPND1].type == OP_YMM) ||

	mov	eax, 24
	imul	rax, rax, 0
	mov	rcx, QWORD PTR CodeInfo$[rsp]
	cmp	DWORD PTR [rcx+rax+32], 32		; 00000020H
	je	SHORT $LN519@output_opc
	mov	eax, 24
	imul	rax, rax, 0
	mov	rcx, QWORD PTR CodeInfo$[rsp]
	cmp	DWORD PTR [rcx+rax+32], 128		; 00000080H
	je	SHORT $LN519@output_opc
	mov	eax, 24
	imul	rax, rax, 0
	mov	rcx, QWORD PTR CodeInfo$[rsp]
	cmp	DWORD PTR [rcx+rax+32], 256		; 00000100H
	jne	$LN518@output_opc
$LN519@output_opc:

; 1234 :                     (CodeInfo->opnd[OPND1].type == OP_ZMM)){
; 1235 :                 CodeInfo->tuple = 0;

	mov	rax, QWORD PTR CodeInfo$[rsp]
	mov	BYTE PTR [rax+140], 0

; 1236 :                 if (CodeInfo->vexconst){

	mov	rax, QWORD PTR CodeInfo$[rsp]
	cmp	DWORD PTR [rax+124], 0
	je	$LN520@output_opc

; 1237 :                   tmp &= ~NOT_BIT_345;

	movzx	eax, BYTE PTR tmp$[rsp]
	and	eax, -200				; ffffffffffffff38H
	mov	BYTE PTR tmp$[rsp], al

; 1238 :                   tmp &= ~BIT_012;

	movzx	eax, BYTE PTR tmp$[rsp]
	and	eax, -8
	mov	BYTE PTR tmp$[rsp], al

; 1239 :                   tmp |= MOD_10;

	movzx	eax, BYTE PTR tmp$[rsp]
	bts	eax, 7
	mov	BYTE PTR tmp$[rsp], al

; 1240 :                   tmp |= RM_SIB;

	movzx	eax, BYTE PTR tmp$[rsp]
	or	eax, 4
	mov	BYTE PTR tmp$[rsp], al

; 1241 :                   if (CodeInfo->indexreg != 0xFF){

	mov	rax, QWORD PTR CodeInfo$[rsp]
	movzx	eax, BYTE PTR [rax+112]
	cmp	eax, 255				; 000000ffH
	je	$LN522@output_opc

; 1242 :                     c = CodeInfo->indexreg;

	mov	rax, QWORD PTR CodeInfo$[rsp]
	movzx	eax, BYTE PTR [rax+112]
	mov	BYTE PTR c$[rsp], al

; 1243 :                     c = (c &= 0x07) << 3;

	movzx	eax, BYTE PTR c$[rsp]
	and	eax, 7
	mov	BYTE PTR c$[rsp], al
	movzx	eax, BYTE PTR c$[rsp]
	shl	eax, 3
	mov	BYTE PTR c$[rsp], al

; 1244 :                     CodeInfo->sib |= c;

	movzx	eax, BYTE PTR c$[rsp]
	mov	rcx, QWORD PTR CodeInfo$[rsp]
	movzx	ecx, BYTE PTR [rcx+105]
	or	ecx, eax
	mov	eax, ecx
	mov	rcx, QWORD PTR CodeInfo$[rsp]
	mov	BYTE PTR [rcx+105], al

; 1245 :                     c = CodeInfo->basereg;

	mov	rax, QWORD PTR CodeInfo$[rsp]
	movzx	eax, BYTE PTR [rax+113]
	mov	BYTE PTR c$[rsp], al

; 1246 :                     c &= 0x7;

	movzx	eax, BYTE PTR c$[rsp]
	and	eax, 7
	mov	BYTE PTR c$[rsp], al

; 1247 :                     CodeInfo->sib |= c;

	movzx	eax, BYTE PTR c$[rsp]
	mov	rcx, QWORD PTR CodeInfo$[rsp]
	movzx	ecx, BYTE PTR [rcx+105]
	or	ecx, eax
	mov	eax, ecx
	mov	rcx, QWORD PTR CodeInfo$[rsp]
	mov	BYTE PTR [rcx+105], al

; 1248 :                     CodeInfo->sib = 0xf0;

	mov	rax, QWORD PTR CodeInfo$[rsp]
	mov	BYTE PTR [rax+105], 240			; 000000f0H

; 1249 :                   }

	jmp	SHORT $LN523@output_opc
$LN522@output_opc:

; 1250 :                   else{
; 1251 :                     tmp &= ~0x07;

	movzx	eax, BYTE PTR tmp$[rsp]
	and	eax, -8
	mov	BYTE PTR tmp$[rsp], al

; 1252 :                     tmp |= (CodeInfo->reg2 & 0x07);

	mov	rax, QWORD PTR CodeInfo$[rsp]
	movzx	eax, BYTE PTR [rax+110]
	and	eax, 7
	movzx	ecx, BYTE PTR tmp$[rsp]
	or	ecx, eax
	mov	eax, ecx
	mov	BYTE PTR tmp$[rsp], al
$LN523@output_opc:

; 1253 :                   }
; 1254 :                   CodeInfo->rm_byte = tmp;

	mov	rax, QWORD PTR CodeInfo$[rsp]
	movzx	ecx, BYTE PTR tmp$[rsp]
	mov	BYTE PTR [rax+104], cl

; 1255 :                   CodeInfo->opnd[OPND1].data32l = CodeInfo->vexconst;

	mov	eax, 24
	imul	rax, rax, 0
	mov	rcx, QWORD PTR CodeInfo$[rsp]
	mov	rdx, QWORD PTR CodeInfo$[rsp]
	mov	edx, DWORD PTR [rdx+124]
	mov	DWORD PTR [rcx+rax+40], edx

; 1256 :                 }

	jmp	$LN521@output_opc
$LN520@output_opc:

; 1257 :                    else {
; 1258 :                      if ((CodeInfo->r2type)&&((CodeInfo->token == T_VRNDSCALEPD) || (CodeInfo->token == T_VRNDSCALEPS)))

	mov	rax, QWORD PTR CodeInfo$[rsp]
	cmp	DWORD PTR [rax+120], 0
	je	SHORT $LN524@output_opc
	mov	rax, QWORD PTR CodeInfo$[rsp]
	cmp	DWORD PTR [rax+24], 1610		; 0000064aH
	je	SHORT $LN525@output_opc
	mov	rax, QWORD PTR CodeInfo$[rsp]
	cmp	DWORD PTR [rax+24], 1611		; 0000064bH
	jne	SHORT $LN524@output_opc
$LN525@output_opc:

; 1259 :                        tmp &= ~0xc0;

	movzx	eax, BYTE PTR tmp$[rsp]
	and	eax, -193				; ffffffffffffff3fH
	mov	BYTE PTR tmp$[rsp], al
$LN524@output_opc:

; 1260 :                      c = CodeInfo->reg2;

	mov	rax, QWORD PTR CodeInfo$[rsp]
	movzx	eax, BYTE PTR [rax+110]
	mov	BYTE PTR c$[rsp], al

; 1261 :                      if (c > 15) c -= 16;

	movzx	eax, BYTE PTR c$[rsp]
	cmp	eax, 15
	jle	SHORT $LN526@output_opc
	movzx	eax, BYTE PTR c$[rsp]
	sub	eax, 16
	mov	BYTE PTR c$[rsp], al
$LN526@output_opc:

; 1262 :                      if (c > 7) c -= 8;

	movzx	eax, BYTE PTR c$[rsp]
	cmp	eax, 7
	jle	SHORT $LN527@output_opc
	movzx	eax, BYTE PTR c$[rsp]
	sub	eax, 8
	mov	BYTE PTR c$[rsp], al
$LN527@output_opc:

; 1263 :                      tmp |= c;

	movzx	eax, BYTE PTR c$[rsp]
	movzx	ecx, BYTE PTR tmp$[rsp]
	or	ecx, eax
	mov	eax, ecx
	mov	BYTE PTR tmp$[rsp], al
$LN521@output_opc:
$LN518@output_opc:
$LN515@output_opc:
$LN513@output_opc:
$LN507@output_opc:
$LN503@output_opc:

; 1264 :                    }
; 1265 :                   }
; 1266 :                 }
; 1267 :               }
; 1268 :             }
; 1269 :           }

	jmp	SHORT $LN502@output_opc
$LN501@output_opc:

; 1270 :           else{
; 1271 :             CodeInfo->tuple = 0;

	mov	rax, QWORD PTR CodeInfo$[rsp]
	mov	BYTE PTR [rax+140], 0

; 1272 :            if (CodeInfo->token >= T_VPGATHERDD && CodeInfo->token <= T_VSCATTERQPD){

	mov	rax, QWORD PTR CodeInfo$[rsp]
	cmp	DWORD PTR [rax+24], 1340		; 0000053cH
	jl	SHORT $LN528@output_opc
	mov	rax, QWORD PTR CodeInfo$[rsp]
	cmp	DWORD PTR [rax+24], 1355		; 0000054bH
	jg	SHORT $LN528@output_opc

; 1273 :               tmp &= ~0xc0;

	movzx	eax, BYTE PTR tmp$[rsp]
	and	eax, -193				; ffffffffffffff3fH
	mov	BYTE PTR tmp$[rsp], al

; 1274 :               tmp |= MOD_10;

	movzx	eax, BYTE PTR tmp$[rsp]
	bts	eax, 7
	mov	BYTE PTR tmp$[rsp], al

; 1275 :               CodeInfo->rm_byte = tmp;

	mov	rax, QWORD PTR CodeInfo$[rsp]
	movzx	ecx, BYTE PTR tmp$[rsp]
	mov	BYTE PTR [rax+104], cl
$LN528@output_opc:
$LN502@output_opc:
$LN500@output_opc:
$LN495@output_opc:

; 1276 :             }
; 1277 :           }
; 1278 :         }
; 1279 :         if (CodeInfo->token == T_VCVTPS2PH){

	mov	rax, QWORD PTR CodeInfo$[rsp]
	cmp	DWORD PTR [rax+24], 1428		; 00000594H
	jne	$LN529@output_opc

; 1280 :           if (!comprdsp) CodeInfo->tuple = 0;

	movsx	eax, BYTE PTR comprdsp$[rsp]
	test	eax, eax
	jne	SHORT $LN530@output_opc
	mov	rax, QWORD PTR CodeInfo$[rsp]
	mov	BYTE PTR [rax+140], 0
$LN530@output_opc:

; 1281 :           if (CodeInfo->indexreg != 0xFF){

	mov	rax, QWORD PTR CodeInfo$[rsp]
	movzx	eax, BYTE PTR [rax+112]
	cmp	eax, 255				; 000000ffH
	je	$LN531@output_opc

; 1282 :             c = CodeInfo->indexreg;

	mov	rax, QWORD PTR CodeInfo$[rsp]
	movzx	eax, BYTE PTR [rax+112]
	mov	BYTE PTR c$[rsp], al

; 1283 :             c = (c &= 0x07) << 3;

	movzx	eax, BYTE PTR c$[rsp]
	and	eax, 7
	mov	BYTE PTR c$[rsp], al
	movzx	eax, BYTE PTR c$[rsp]
	shl	eax, 3
	mov	BYTE PTR c$[rsp], al

; 1284 :             CodeInfo->sib |= c;

	movzx	eax, BYTE PTR c$[rsp]
	mov	rcx, QWORD PTR CodeInfo$[rsp]
	movzx	ecx, BYTE PTR [rcx+105]
	or	ecx, eax
	mov	eax, ecx
	mov	rcx, QWORD PTR CodeInfo$[rsp]
	mov	BYTE PTR [rcx+105], al

; 1285 :             c = CodeInfo->basereg;

	mov	rax, QWORD PTR CodeInfo$[rsp]
	movzx	eax, BYTE PTR [rax+113]
	mov	BYTE PTR c$[rsp], al

; 1286 :             c &= 0x7;

	movzx	eax, BYTE PTR c$[rsp]
	and	eax, 7
	mov	BYTE PTR c$[rsp], al

; 1287 :             CodeInfo->sib |= c;

	movzx	eax, BYTE PTR c$[rsp]
	mov	rcx, QWORD PTR CodeInfo$[rsp]
	movzx	ecx, BYTE PTR [rcx+105]
	or	ecx, eax
	mov	eax, ecx
	mov	rcx, QWORD PTR CodeInfo$[rsp]
	mov	BYTE PTR [rcx+105], al

; 1288 :             CodeInfo->sib = 0xf0;

	mov	rax, QWORD PTR CodeInfo$[rsp]
	mov	BYTE PTR [rax+105], 240			; 000000f0H

; 1289 :             tmp |= RM_SIB;

	movzx	eax, BYTE PTR tmp$[rsp]
	or	eax, 4
	mov	BYTE PTR tmp$[rsp], al
$LN531@output_opc:

; 1290 :           }
; 1291 :           CodeInfo->rm_byte = tmp;

	mov	rax, QWORD PTR CodeInfo$[rsp]
	movzx	ecx, BYTE PTR tmp$[rsp]
	mov	BYTE PTR [rax+104], cl
$LN529@output_opc:

; 1292 :         }
; 1293 :         if (CodeInfo->token == T_BLSMSK){

	mov	rax, QWORD PTR CodeInfo$[rsp]
	cmp	DWORD PTR [rax+24], 1676		; 0000068cH
	jne	SHORT $LN532@output_opc

; 1294 :               tmp &= ~0x38;

	movzx	eax, BYTE PTR tmp$[rsp]
	and	eax, -57				; ffffffffffffffc7H
	mov	BYTE PTR tmp$[rsp], al

; 1295 :               tmp |= 0x10;

	movzx	eax, BYTE PTR tmp$[rsp]
	or	eax, 16
	mov	BYTE PTR tmp$[rsp], al
$LN532@output_opc:

; 1296 :             }
; 1297 :         if (CodeInfo->token == T_BLSR){

	mov	rax, QWORD PTR CodeInfo$[rsp]
	cmp	DWORD PTR [rax+24], 1677		; 0000068dH
	jne	SHORT $LN533@output_opc

; 1298 :               tmp &= ~0x38;

	movzx	eax, BYTE PTR tmp$[rsp]
	and	eax, -57				; ffffffffffffffc7H
	mov	BYTE PTR tmp$[rsp], al

; 1299 :               tmp |= 0x08;

	movzx	eax, BYTE PTR tmp$[rsp]
	or	eax, 8
	mov	BYTE PTR tmp$[rsp], al
$LN533@output_opc:

; 1300 :             }
; 1301 :         OutputCodeByte( tmp );

	movzx	ecx, BYTE PTR tmp$[rsp]
	call	OutputByte

; 1302 :         if( ( CodeInfo->Ofssize == USE16 && CodeInfo->prefix.adrsiz == 0 ) ||

	mov	rax, QWORD PTR CodeInfo$[rsp]
	movzx	eax, BYTE PTR [rax+106]
	test	eax, eax
	jne	SHORT $LN536@output_opc
	mov	rax, QWORD PTR CodeInfo$[rsp]
	movzx	eax, BYTE PTR [rax+9]
	and	al, 1
	movzx	eax, al
	test	eax, eax
	je	SHORT $LN535@output_opc
$LN536@output_opc:
	mov	rax, QWORD PTR CodeInfo$[rsp]
	movzx	eax, BYTE PTR [rax+106]
	cmp	eax, 1
	jne	SHORT $LN534@output_opc
	mov	rax, QWORD PTR CodeInfo$[rsp]
	movzx	eax, BYTE PTR [rax+9]
	and	al, 1
	movzx	eax, al
	cmp	eax, 1
	jne	SHORT $LN534@output_opc
$LN535@output_opc:

; 1303 :            ( CodeInfo->Ofssize == USE32 && CodeInfo->prefix.adrsiz == 1 ) )
; 1304 :             return; /* no SIB for 16bit */

	jmp	SHORT $LN1@output_opc
$LN534@output_opc:

; 1305 : 
; 1306 :         switch ( tmp & NOT_BIT_345 ) {

	movzx	eax, BYTE PTR tmp$[rsp]
	and	eax, 199				; 000000c7H
	mov	DWORD PTR tv3151[rsp], eax
	cmp	DWORD PTR tv3151[rsp], 4
	je	SHORT $LN537@output_opc
	cmp	DWORD PTR tv3151[rsp], 68		; 00000044H
	je	SHORT $LN537@output_opc
	cmp	DWORD PTR tv3151[rsp], 132		; 00000084H
	je	SHORT $LN537@output_opc
	jmp	SHORT $LN19@output_opc
$LN537@output_opc:

; 1307 :         case 0x04: /* mod = 00, r/m = 100, s-i-b is present */
; 1308 :         case 0x44: /* mod = 01, r/m = 100, s-i-b is present */
; 1309 :         case 0x84: /* mod = 10, r/m = 100, s-i-b is present */
; 1310 :             /* emit SIB byte; bits 7-6 = Scale, bits 5-3 = Index, bits 2-0 = Base */
; 1311 :           OutputCodeByte( CodeInfo->sib );

	mov	rax, QWORD PTR CodeInfo$[rsp]
	movzx	ecx, BYTE PTR [rax+105]
	call	OutputByte
$LN19@output_opc:
$LN14@output_opc:
$LN1@output_opc:

; 1312 :         }
; 1313 :     }
; 1314 : 
; 1315 :     return;
; 1316 : }

	mov	rcx, rsp
	lea	rdx, OFFSET FLAT:output_opc$rtcFrameData
	call	_RTC_CheckStackVars
	add	rsp, 224				; 000000e0H
	pop	rdi
	ret	0
$LN555@output_opc:
	DD	$LN47@output_opc
	DD	$LN49@output_opc
	DD	$LN51@output_opc
	DD	$LN53@output_opc
	DD	$LN56@output_opc
	DD	$LN55@output_opc
	DD	$LN2@output_opc
$LN554@output_opc:
	DB	0
	DB	1
	DB	2
	DB	3
	DB	6
	DB	4
	DB	6
	DB	6
	DB	6
	DB	6
	DB	6
	DB	6
	DB	6
	DB	6
	DB	6
	DB	6
	DB	6
	DB	6
	DB	6
	DB	6
	DB	5
	DB	4
	npad	2
$LN553@output_opc:
	DD	$LN64@output_opc
	DD	$LN62@output_opc
	DD	$LN63@output_opc
	DD	$LN4@output_opc
$LN552@output_opc:
	DB	0
	DB	3
	DB	3
	DB	3
	DB	3
	DB	3
	DB	3
	DB	3
	DB	3
	DB	3
	DB	3
	DB	3
	DB	3
	DB	1
	DB	2
	DB	0
	DB	3
	DB	3
	DB	3
	DB	3
	DB	1
	DB	1
	DB	2
	npad	1
$LN551@output_opc:
	DD	$LN75@output_opc
	DD	$LN77@output_opc
	DD	$LN76@output_opc
	DD	$LN6@output_opc
	DD	$LN6@output_opc
	DD	$LN6@output_opc
	DD	$LN6@output_opc
	DD	$LN75@output_opc
	DD	$LN75@output_opc
	DD	$LN77@output_opc
	DD	$LN76@output_opc
$LN550@output_opc:
	DD	$LN95@output_opc
	DD	$LN96@output_opc
	DD	$LN95@output_opc
	DD	$LN96@output_opc
	DD	$LN95@output_opc
	DD	$LN95@output_opc
	DD	$LN96@output_opc
$LN549@output_opc:
	DD	$LN467@output_opc
	DD	$LN12@output_opc
	DD	$LN12@output_opc
	DD	$LN12@output_opc
	DD	$LN12@output_opc
	DD	$LN12@output_opc
	DD	$LN468@output_opc
	DD	$LN469@output_opc
	DD	$LN468@output_opc
	DD	$LN469@output_opc
	DD	$LN468@output_opc
output_opc ENDP
_TEXT	ENDS
; Function compile flags: /Odtp /RTCsu
; File d:\hjwasm\hjwasm2.13.1s\hjwasm2.13.1s\codegen.c
_TEXT	SEGMENT
disp32$ = 32
n$ = 36
disp8$ = 40
tv73 = 44
CodeInfo$ = 64
comprdsp$ = 72
d$ = 80
disp$ = 88
Check4CompDisp8 PROC

; 129  : {

$LN5:
	mov	DWORD PTR [rsp+32], r9d
	mov	QWORD PTR [rsp+24], r8
	mov	QWORD PTR [rsp+16], rdx
	mov	QWORD PTR [rsp+8], rcx
	push	rdi
	sub	rsp, 48					; 00000030H
	mov	rdi, rsp
	mov	ecx, 12
	mov	eax, -858993460				; ccccccccH
	rep stosd
	mov	rcx, QWORD PTR [rsp+64]

; 130  :     int_32 disp32           = disp;

	mov	eax, DWORD PTR disp$[rsp]
	mov	DWORD PTR disp32$[rsp], eax

; 131  :     uint_8 n;
; 132  :     int_32 disp8;
; 133  : 
; 134  :     n = GetByteDisp(CodeInfo);

	mov	rcx, QWORD PTR CodeInfo$[rsp]
	call	GetByteDisp
	mov	BYTE PTR n$[rsp], al

; 135  :     *d = n;

	movzx	eax, BYTE PTR n$[rsp]
	mov	rcx, QWORD PTR d$[rsp]
	mov	DWORD PTR [rcx], eax

; 136  :     if (n && !(disp32 & (n - 1))) {

	movzx	eax, BYTE PTR n$[rsp]
	test	eax, eax
	je	SHORT $LN2@Check4Comp
	movzx	eax, BYTE PTR n$[rsp]
	dec	eax
	mov	ecx, DWORD PTR disp32$[rsp]
	and	ecx, eax
	mov	eax, ecx
	test	eax, eax
	jne	SHORT $LN2@Check4Comp

; 137  :         disp8 = disp32 / n;

	movzx	eax, BYTE PTR n$[rsp]
	mov	DWORD PTR tv73[rsp], eax
	mov	eax, DWORD PTR disp32$[rsp]
	cdq
	mov	ecx, DWORD PTR tv73[rsp]
	idiv	ecx
	mov	DWORD PTR disp8$[rsp], eax

; 138  :         /* if it fits in Disp8 */
; 139  :         if (disp8 >= -128 && disp8 <= 127) {

	cmp	DWORD PTR disp8$[rsp], -128		; ffffffffffffff80H
	jl	SHORT $LN3@Check4Comp
	cmp	DWORD PTR disp8$[rsp], 127		; 0000007fH
	jg	SHORT $LN3@Check4Comp

; 140  :             *comprdsp = disp8;

	mov	rax, QWORD PTR comprdsp$[rsp]
	movzx	ecx, BYTE PTR disp8$[rsp]
	mov	BYTE PTR [rax], cl

; 141  :             return TRUE;

	mov	al, 1
	jmp	SHORT $LN1@Check4Comp
$LN3@Check4Comp:
$LN2@Check4Comp:

; 142  :         }
; 143  :     }
; 144  :     *comprdsp = 0;

	mov	rax, QWORD PTR comprdsp$[rsp]
	mov	BYTE PTR [rax], 0

; 145  :     return FALSE;

	xor	al, al
$LN1@Check4Comp:

; 146  : }

	add	rsp, 48					; 00000030H
	pop	rdi
	ret	0
Check4CompDisp8 ENDP
_TEXT	ENDS
; Function compile flags: /Odtp /RTCsu
; File d:\hjwasm\hjwasm2.13.1s\hjwasm2.13.1s\codegen.c
_TEXT	SEGMENT
fvarr$ = 40
hvarr$ = 84
duparr$ = 116
n$ = 132
evexW$ = 133
tuple$ = 136
evexB$ = 140
vctln$ = 141
tv83 = 152
tv229 = 156
tv172 = 160
tv175 = 164
tv238 = 168
tv243 = 172
__$ArrayPad$ = 176
CodeInfo$ = 208
GetByteDisp PROC

; 67   : {

$LN23:
	mov	QWORD PTR [rsp+8], rcx
	push	rdi
	sub	rsp, 192				; 000000c0H
	mov	rdi, rsp
	mov	ecx, 48					; 00000030H
	mov	eax, -858993460				; ccccccccH
	rep stosd
	mov	rcx, QWORD PTR [rsp+208]
	mov	rax, QWORD PTR __security_cookie
	xor	rax, rsp
	mov	QWORD PTR __$ArrayPad$[rsp], rax

; 68   :     const uint_8 fvarr[2][2][3] = {{{16, 32, 64}, {4, 4, 4}},    // Full Vector (FV)

	mov	BYTE PTR fvarr$[rsp], 16
	mov	BYTE PTR fvarr$[rsp+1], 32		; 00000020H
	mov	BYTE PTR fvarr$[rsp+2], 64		; 00000040H
	mov	BYTE PTR fvarr$[rsp+3], 4
	mov	BYTE PTR fvarr$[rsp+4], 4
	mov	BYTE PTR fvarr$[rsp+5], 4
	mov	BYTE PTR fvarr$[rsp+6], 16
	mov	BYTE PTR fvarr$[rsp+7], 32		; 00000020H
	mov	BYTE PTR fvarr$[rsp+8], 64		; 00000040H
	mov	BYTE PTR fvarr$[rsp+9], 8
	mov	BYTE PTR fvarr$[rsp+10], 8
	mov	BYTE PTR fvarr$[rsp+11], 8

; 69   :                                   {{16, 32, 64}, {8, 8, 8}}};
; 70   :     const uint_8 hvarr[2][3]    =  {{8, 16, 32}, {4, 4, 4}};     // Half Vector (HV) 

	mov	BYTE PTR hvarr$[rsp], 8
	mov	BYTE PTR hvarr$[rsp+1], 16
	mov	BYTE PTR hvarr$[rsp+2], 32		; 00000020H
	mov	BYTE PTR hvarr$[rsp+3], 4
	mov	BYTE PTR hvarr$[rsp+4], 4
	mov	BYTE PTR hvarr$[rsp+5], 4

; 71   :     const uint_8 duparr[3]      =   {8, 32, 64};                 // VMOVDDUP    (DUP)

	mov	BYTE PTR duparr$[rsp], 8
	mov	BYTE PTR duparr$[rsp+1], 32		; 00000020H
	mov	BYTE PTR duparr$[rsp+2], 64		; 00000040H

; 72   :                                                   //RXBR00MM
; 73   :     uint_8 n = 0;

	mov	BYTE PTR n$[rsp], 0

; 74   :     bool evexW            = (CodeInfo->evex_p1 & EVEX_P1WMASK) >> 7;

	mov	rax, QWORD PTR CodeInfo$[rsp]
	movzx	eax, BYTE PTR [rax+138]
	and	eax, 128				; 00000080H
	sar	eax, 7
	mov	BYTE PTR evexW$[rsp], al

; 75   :     enum ttypes   tuple   = CodeInfo->pinstr->prefix & 0x1F;

	mov	rax, QWORD PTR CodeInfo$[rsp]
	mov	rax, QWORD PTR [rax+16]
	movzx	eax, WORD PTR [rax+8]
	and	eax, 31
	mov	DWORD PTR tuple$[rsp], eax

; 76   :     bool evexB            = (CodeInfo->evex_p2 & EVEX_P2BMASK) >> 4;

	mov	rax, QWORD PTR CodeInfo$[rsp]
	movzx	eax, BYTE PTR [rax+139]
	and	eax, 16
	sar	eax, 4
	mov	BYTE PTR evexB$[rsp], al

; 77   :     uint_8  vctln         = (CodeInfo->evex_p2 & EVEX_P2LLMASK) >> 5;

	mov	rax, QWORD PTR CodeInfo$[rsp]
	movzx	eax, BYTE PTR [rax+139]
	and	eax, 96					; 00000060H
	sar	eax, 5
	mov	BYTE PTR vctln$[rsp], al

; 78   :     
; 79   : 
; 80   :     switch(tuple) {

	mov	eax, DWORD PTR tuple$[rsp]
	mov	DWORD PTR tv83[rsp], eax
	mov	eax, DWORD PTR tv83[rsp]
	dec	eax
	mov	DWORD PTR tv83[rsp], eax
	cmp	DWORD PTR tv83[rsp], 19
	ja	$LN16@GetByteDis
	movsxd	rax, DWORD PTR tv83[rsp]
	lea	rcx, OFFSET FLAT:__ImageBase
	mov	eax, DWORD PTR $LN22@GetByteDis[rcx+rax*4]
	add	rax, rcx
	jmp	rax
$LN4@GetByteDis:

; 81   :     case FV:         // Full Vector 
; 82   :         n = fvarr[evexW][evexB][vctln];

	movzx	eax, BYTE PTR evexW$[rsp]
	imul	rax, rax, 6
	lea	rax, QWORD PTR fvarr$[rsp+rax]
	movzx	ecx, BYTE PTR evexB$[rsp]
	imul	rcx, rcx, 3
	add	rax, rcx
	movzx	ecx, BYTE PTR vctln$[rsp]
	movzx	eax, BYTE PTR [rax+rcx]
	mov	BYTE PTR n$[rsp], al

; 83   :         break;

	jmp	$LN2@GetByteDis
$LN5@GetByteDis:

; 84   :     case HV:        // Half Vector 
; 85   :         n = hvarr[evexB][vctln];

	movzx	eax, BYTE PTR evexB$[rsp]
	imul	rax, rax, 3
	lea	rax, QWORD PTR hvarr$[rsp+rax]
	movzx	ecx, BYTE PTR vctln$[rsp]
	movzx	eax, BYTE PTR [rax+rcx]
	mov	BYTE PTR n$[rsp], al

; 86   :         break;

	jmp	$LN2@GetByteDis
$LN6@GetByteDis:

; 87   :     case FVM:       // Full Vector Mem
; 88   :         n = 1 << (vctln + 4);

	movzx	eax, BYTE PTR vctln$[rsp]
	add	eax, 4
	mov	ecx, 1
	mov	DWORD PTR tv229[rsp], ecx
	movzx	ecx, al
	mov	eax, DWORD PTR tv229[rsp]
	shl	eax, cl
	mov	BYTE PTR n$[rsp], al

; 89   :         break;

	jmp	$LN2@GetByteDis
$LN7@GetByteDis:

; 90   :     case T1S8:      // Tuple1 Scalar
; 91   :     case T1S16: 
; 92   :         n = tuple - T1S8 + 1;

	mov	eax, DWORD PTR tuple$[rsp]
	sub	eax, 3
	mov	BYTE PTR n$[rsp], al

; 93   :         break;

	jmp	$LN2@GetByteDis
$LN8@GetByteDis:

; 94   :     case T1S:
; 95   :         n = evexW ? 8 : 4;

	movzx	eax, BYTE PTR evexW$[rsp]
	test	eax, eax
	je	SHORT $LN18@GetByteDis
	mov	DWORD PTR tv172[rsp], 8
	jmp	SHORT $LN19@GetByteDis
$LN18@GetByteDis:
	mov	DWORD PTR tv172[rsp], 4
$LN19@GetByteDis:
	movzx	eax, BYTE PTR tv172[rsp]
	mov	BYTE PTR n$[rsp], al

; 96   :         break;

	jmp	$LN2@GetByteDis
$LN9@GetByteDis:

; 97   :     case T1F32:    // Tuple1 Fixed
; 98   :     case T1F64:
; 99   :         n = (tuple == T1F32 ? 4 : 8);

	cmp	DWORD PTR tuple$[rsp], 7
	jne	SHORT $LN20@GetByteDis
	mov	DWORD PTR tv175[rsp], 4
	jmp	SHORT $LN21@GetByteDis
$LN20@GetByteDis:
	mov	DWORD PTR tv175[rsp], 8
$LN21@GetByteDis:
	movzx	eax, BYTE PTR tv175[rsp]
	mov	BYTE PTR n$[rsp], al

; 100  :         break;

	jmp	$LN2@GetByteDis
$LN10@GetByteDis:

; 101  :     case T2:       // Tuple2
; 102  :     case T4:       // Tuple4
; 103  :     case T8:       // Tuple8
; 104  :         if (vctln + 7 <= (evexW + 5) + (tuple - T2 + 1))

	movzx	eax, BYTE PTR vctln$[rsp]
	add	eax, 7
	movzx	ecx, BYTE PTR evexW$[rsp]
	mov	edx, DWORD PTR tuple$[rsp]
	lea	ecx, DWORD PTR [rcx+rdx-5]
	cmp	eax, ecx
	jg	SHORT $LN11@GetByteDis

; 105  :             n = 0;

	mov	BYTE PTR n$[rsp], 0
	jmp	SHORT $LN12@GetByteDis
$LN11@GetByteDis:

; 106  :         else
; 107  :             n = 1 << (tuple - T2 + evexW + 3);

	movzx	eax, BYTE PTR evexW$[rsp]
	mov	ecx, DWORD PTR tuple$[rsp]
	lea	eax, DWORD PTR [rcx+rax-8]
	mov	ecx, 1
	mov	DWORD PTR tv238[rsp], ecx
	movzx	ecx, al
	mov	eax, DWORD PTR tv238[rsp]
	shl	eax, cl
	mov	BYTE PTR n$[rsp], al
$LN12@GetByteDis:

; 108  :         break;

	jmp	SHORT $LN2@GetByteDis
$LN13@GetByteDis:

; 109  :     case HVM:      // Half Mem
; 110  :     case QVM:      // QuarterMem
; 111  :     case OVM:      // OctMem
; 112  :         n = 1 << (OVM - tuple + vctln + 1);

	mov	eax, 16
	sub	eax, DWORD PTR tuple$[rsp]
	movzx	ecx, BYTE PTR vctln$[rsp]
	lea	eax, DWORD PTR [rax+rcx+1]
	mov	ecx, 1
	mov	DWORD PTR tv243[rsp], ecx
	movzx	ecx, al
	mov	eax, DWORD PTR tv243[rsp]
	shl	eax, cl
	mov	BYTE PTR n$[rsp], al

; 113  :         break;

	jmp	SHORT $LN2@GetByteDis
$LN14@GetByteDis:

; 114  :     case T128:     // Mem128
; 115  :         n = 16;

	mov	BYTE PTR n$[rsp], 16

; 116  :         break;

	jmp	SHORT $LN2@GetByteDis
$LN15@GetByteDis:

; 117  :     case DUP:      // MOVDDUP
; 118  :         n = duparr[vctln];

	movzx	eax, BYTE PTR vctln$[rsp]
	movzx	eax, BYTE PTR duparr$[rsp+rax]
	mov	BYTE PTR n$[rsp], al
$LN16@GetByteDis:
$LN2@GetByteDis:

; 119  :         break;
; 120  : 
; 121  :     default:
; 122  :         break;
; 123  :     }
; 124  :     return n;

	movzx	eax, BYTE PTR n$[rsp]

; 125  : }

	mov	edi, eax
	mov	rcx, rsp
	lea	rdx, OFFSET FLAT:GetByteDisp$rtcFrameData
	call	_RTC_CheckStackVars
	mov	eax, edi
	mov	rcx, QWORD PTR __$ArrayPad$[rsp]
	xor	rcx, rsp
	call	__security_check_cookie
	add	rsp, 192				; 000000c0H
	pop	rdi
	ret	0
	npad	3
$LN22@GetByteDis:
	DD	$LN4@GetByteDis
	DD	$LN5@GetByteDis
	DD	$LN6@GetByteDis
	DD	$LN7@GetByteDis
	DD	$LN7@GetByteDis
	DD	$LN8@GetByteDis
	DD	$LN9@GetByteDis
	DD	$LN16@GetByteDis
	DD	$LN16@GetByteDis
	DD	$LN9@GetByteDis
	DD	$LN10@GetByteDis
	DD	$LN10@GetByteDis
	DD	$LN10@GetByteDis
	DD	$LN13@GetByteDis
	DD	$LN13@GetByteDis
	DD	$LN13@GetByteDis
	DD	$LN14@GetByteDis
	DD	$LN16@GetByteDis
	DD	$LN16@GetByteDis
	DD	$LN15@GetByteDis
GetByteDisp ENDP
_TEXT	ENDS
; Function compile flags: /Odtp /RTCsu
; File d:\hjwasm\hjwasm2.13.1s\hjwasm2.13.1s\codegen.c
_TEXT	SEGMENT
retcode$ = 80
opnd1$ = 84
tbl_op1$ = 88
tv180 = 92
tv183 = 96
tv186 = 100
tv189 = 104
tv193 = 108
tv196 = 112
tv226 = 116
CodeInfo$ = 144
oldofs$ = 152
codegen	PROC

; 1871 : {

$LN39:
	mov	DWORD PTR [rsp+16], edx
	mov	QWORD PTR [rsp+8], rcx
	push	rdi
	sub	rsp, 128				; 00000080H
	mov	rdi, rsp
	mov	ecx, 32					; 00000020H
	mov	eax, -858993460				; ccccccccH
	rep stosd
	mov	rcx, QWORD PTR [rsp+144]

; 1872 :     ret_code           retcode = ERROR;

	mov	DWORD PTR retcode$[rsp], -1

; 1873 :     enum operand_type  opnd1;
; 1874 :     enum operand_type  tbl_op1;
; 1875 :     /* privileged instructions ok? */
; 1876 :     if( ( CodeInfo->pinstr->cpu & P_PM ) > ( ModuleInfo.curr_cpu & P_PM ) ) {

	mov	rax, QWORD PTR CodeInfo$[rsp]
	mov	rax, QWORD PTR [rax+16]
	movzx	eax, WORD PTR [rax+10]
	and	eax, 8
	mov	ecx, DWORD PTR ModuleInfo+392
	and	ecx, 8
	cmp	eax, ecx
	jle	SHORT $LN7@codegen

; 1877 :         EmitError( INSTRUCTION_OR_REGISTER_NOT_ACCEPTED_IN_CURRENT_CPU_MODE );

	mov	ecx, 30
	call	EmitError

; 1878 :         return( ERROR );

	mov	eax, -1
	jmp	$LN1@codegen
$LN7@codegen:

; 1879 :     }
; 1880 :     opnd1 = CodeInfo->opnd[OPND1].type;

	mov	eax, 24
	imul	rax, rax, 0
	mov	rcx, QWORD PTR CodeInfo$[rsp]
	mov	eax, DWORD PTR [rcx+rax+32]
	mov	DWORD PTR opnd1$[rsp], eax

; 1881 :     /* if first operand is immediate data, set compatible flags */
; 1882 :     if( opnd1 & OP_I ) {

	mov	eax, DWORD PTR opnd1$[rsp]
	and	eax, 917504				; 000e0000H
	test	eax, eax
	je	SHORT $LN8@codegen

; 1883 :         if( opnd1 == OP_I8 ) {

	cmp	DWORD PTR opnd1$[rsp], 131072		; 00020000H
	jne	SHORT $LN9@codegen

; 1884 :             opnd1 = OP_IGE8;

	mov	DWORD PTR opnd1$[rsp], 917504		; 000e0000H
	jmp	SHORT $LN10@codegen
$LN9@codegen:

; 1885 :         } else if( opnd1 == OP_I16 ) {

	cmp	DWORD PTR opnd1$[rsp], 262144		; 00040000H
	jne	SHORT $LN11@codegen

; 1886 :             opnd1 = OP_IGE16;

	mov	DWORD PTR opnd1$[rsp], 786432		; 000c0000H
$LN11@codegen:
$LN10@codegen:
$LN8@codegen:

; 1887 :         }
; 1888 :     }
; 1889 : 
; 1890 : #if AVXSUPP 
; 1891 : 	if (CodeInfo->token >= VEX_START) {

	mov	rax, QWORD PTR CodeInfo$[rsp]
	cmp	DWORD PTR [rax+24], 1291		; 0000050bH
	jl	$LN12@codegen

; 1892 : 		if (vex_flags[CodeInfo->token - VEX_START] & VX_L) {

	mov	rax, QWORD PTR CodeInfo$[rsp]
	mov	eax, DWORD PTR [rax+24]
	sub	eax, 1291				; 0000050bH
	cdqe
	lea	rcx, OFFSET FLAT:vex_flags
	movzx	eax, BYTE PTR [rcx+rax]
	and	eax, 1
	test	eax, eax
	je	$LN13@codegen

; 1893 : 			if (opnd1 & (OP_K | OP_ZMM | OP_YMM | OP_M256 | OP_M512)) {

	mov	eax, DWORD PTR opnd1$[rsp]
	and	eax, 805306816				; 300001c0H
	test	eax, eax
	je	$LN14@codegen

; 1894 : 				if (CodeInfo->opnd[OPND2].type & OP_XMM && !(vex_flags[CodeInfo->token - VEX_START] & VX_HALF)) {

	mov	eax, 24
	imul	rax, rax, 1
	mov	rcx, QWORD PTR CodeInfo$[rsp]
	mov	eax, DWORD PTR [rcx+rax+32]
	and	eax, 32					; 00000020H
	test	eax, eax
	je	SHORT $LN15@codegen
	mov	rax, QWORD PTR CodeInfo$[rsp]
	mov	eax, DWORD PTR [rax+24]
	sub	eax, 1291				; 0000050bH
	cdqe
	lea	rcx, OFFSET FLAT:vex_flags
	movzx	eax, BYTE PTR [rcx+rax]
	and	eax, 32					; 00000020H
	test	eax, eax
	jne	SHORT $LN15@codegen

; 1895 : 					EmitErr(INVALID_INSTRUCTION_OPERANDS);

	mov	ecx, 49					; 00000031H
	call	EmitErr

; 1896 : 					return(ERROR);

	mov	eax, -1
	jmp	$LN1@codegen
$LN15@codegen:

; 1897 : 				}
; 1898 : 				if (opnd1 & OP_YMM || opnd1 & OP_K || opnd1 & OP_ZMM)

	mov	eax, DWORD PTR opnd1$[rsp]
	and	eax, 128				; 00000080H
	test	eax, eax
	jne	SHORT $LN18@codegen
	mov	eax, DWORD PTR opnd1$[rsp]
	and	eax, 64					; 00000040H
	test	eax, eax
	jne	SHORT $LN18@codegen
	mov	eax, DWORD PTR opnd1$[rsp]
	and	eax, 256				; 00000100H
	test	eax, eax
	je	SHORT $LN16@codegen
$LN18@codegen:

; 1899 : 					opnd1 |= OP_XMM;

	mov	eax, DWORD PTR opnd1$[rsp]
	or	eax, 32					; 00000020H
	mov	DWORD PTR opnd1$[rsp], eax
	jmp	SHORT $LN17@codegen
$LN16@codegen:

; 1900 : 				else
; 1901 : 					opnd1 |= OP_M128;

	mov	eax, DWORD PTR opnd1$[rsp]
	bts	eax, 27
	mov	DWORD PTR opnd1$[rsp], eax
$LN17@codegen:
$LN14@codegen:
$LN13@codegen:

; 1902 : 			}
; 1903 : 		}
; 1904 : 		/* Here is probably possible to find better solution     */
; 1905 : 
; 1906 :       if ((CodeInfo->token >= T_VCMPPD && CodeInfo->token <= T_VCMPTRUE_USSS) ||     //1754        1885                  
; 1907 :         (CodeInfo->token >= T_VPCMPD) && (CodeInfo->token <= T_VINSERTI64x4) ||          //1446        1635         
; 1908 :         (CodeInfo->token >= T_VPMOVSXBD) && (CodeInfo->token <= T_VUNPCKLPS) ||        //2007        2077            
; 1909 :         (CodeInfo->token >= T_VPBROADCASTB && CodeInfo->token <= T_VBROADCASTF64x4) || //1294        1306
; 1910 :         (CodeInfo->token == T_VCVTPS2PH) || (CodeInfo->token == T_VCVTPH2PS) ||          //1428        1427
; 1911 :         (CodeInfo->token == T_VMOVDDUP) ||                                             //1339        
; 1912 :         (CodeInfo->token >= T_VDBPSADBW) && (CodeInfo->token <= T_VFPCLASSSS) ||         //1642        1646

	mov	rax, QWORD PTR CodeInfo$[rsp]
	cmp	DWORD PTR [rax+24], 1757		; 000006ddH
	jl	SHORT $LN21@codegen
	mov	rax, QWORD PTR CodeInfo$[rsp]
	cmp	DWORD PTR [rax+24], 1888		; 00000760H
	jle	$LN20@codegen
$LN21@codegen:
	mov	rax, QWORD PTR CodeInfo$[rsp]
	cmp	DWORD PTR [rax+24], 1446		; 000005a6H
	jl	SHORT $LN22@codegen
	mov	rax, QWORD PTR CodeInfo$[rsp]
	cmp	DWORD PTR [rax+24], 1635		; 00000663H
	jle	$LN20@codegen
$LN22@codegen:
	mov	rax, QWORD PTR CodeInfo$[rsp]
	cmp	DWORD PTR [rax+24], 2010		; 000007daH
	jl	SHORT $LN23@codegen
	mov	rax, QWORD PTR CodeInfo$[rsp]
	cmp	DWORD PTR [rax+24], 2080		; 00000820H
	jle	$LN20@codegen
$LN23@codegen:
	mov	rax, QWORD PTR CodeInfo$[rsp]
	cmp	DWORD PTR [rax+24], 1294		; 0000050eH
	jl	SHORT $LN24@codegen
	mov	rax, QWORD PTR CodeInfo$[rsp]
	cmp	DWORD PTR [rax+24], 1306		; 0000051aH
	jle	SHORT $LN20@codegen
$LN24@codegen:
	mov	rax, QWORD PTR CodeInfo$[rsp]
	cmp	DWORD PTR [rax+24], 1428		; 00000594H
	je	SHORT $LN20@codegen
	mov	rax, QWORD PTR CodeInfo$[rsp]
	cmp	DWORD PTR [rax+24], 1427		; 00000593H
	je	SHORT $LN20@codegen
	mov	rax, QWORD PTR CodeInfo$[rsp]
	cmp	DWORD PTR [rax+24], 1339		; 0000053bH
	je	SHORT $LN20@codegen
	mov	rax, QWORD PTR CodeInfo$[rsp]
	cmp	DWORD PTR [rax+24], 1642		; 0000066aH
	jl	SHORT $LN25@codegen
	mov	rax, QWORD PTR CodeInfo$[rsp]
	cmp	DWORD PTR [rax+24], 1646		; 0000066eH
	jle	SHORT $LN20@codegen
$LN25@codegen:
	mov	rax, QWORD PTR CodeInfo$[rsp]
	cmp	DWORD PTR [rax+24], 1334		; 00000536H
	jl	SHORT $LN19@codegen
	mov	rax, QWORD PTR CodeInfo$[rsp]
	cmp	DWORD PTR [rax+24], 1339		; 0000053bH
	jg	SHORT $LN19@codegen
$LN20@codegen:

; 1913 :         (CodeInfo->token >= T_VCVTPD2DQ) && (CodeInfo->token <= T_VMOVDDUP))            //1334        1339 
; 1914 :         opnd1 |= OP_XMM;

	mov	eax, DWORD PTR opnd1$[rsp]
	or	eax, 32					; 00000020H
	mov	DWORD PTR opnd1$[rsp], eax
$LN19@codegen:
$LN12@codegen:

; 1915 :     }
; 1916 : #endif
; 1917 : 
; 1918 : #if AMD64_SUPPORT
; 1919 :     DebugMsg1(("codegen(ofs=%X): %s opnd1=%X codeinfo: ofssize=%u wide=%u rm=%Xh sib=%Xh rex=%Xh opsiz=%u\n",

	mov	rax, QWORD PTR CodeInfo$[rsp]
	movzx	eax, BYTE PTR [rax+9]
	shr	al, 1
	and	al, 1
	movzx	eax, al
	mov	DWORD PTR tv180[rsp], eax
	mov	rcx, QWORD PTR CodeInfo$[rsp]
	movzx	ecx, BYTE PTR [rcx+8]
	mov	DWORD PTR tv183[rsp], ecx
	mov	rdx, QWORD PTR CodeInfo$[rsp]
	movzx	edx, BYTE PTR [rdx+105]
	mov	DWORD PTR tv186[rsp], edx
	mov	r8, QWORD PTR CodeInfo$[rsp]
	movzx	r8d, BYTE PTR [r8+104]
	mov	DWORD PTR tv189[rsp], r8d
	mov	r9, QWORD PTR CodeInfo$[rsp]
	movzx	r9d, BYTE PTR [r9+142]
	and	r9b, 1
	movzx	r9d, r9b
	mov	DWORD PTR tv193[rsp], r9d
	mov	r10, QWORD PTR CodeInfo$[rsp]
	movzx	r10d, BYTE PTR [r10+106]
	mov	DWORD PTR tv196[rsp], r10d
	xor	edx, edx
	mov	r11, QWORD PTR CodeInfo$[rsp]
	mov	ecx, DWORD PTR [r11+24]
	call	GetResWName
	mov	ecx, DWORD PTR tv180[rsp]
	mov	DWORD PTR [rsp+72], ecx
	mov	ecx, DWORD PTR tv183[rsp]
	mov	DWORD PTR [rsp+64], ecx
	mov	ecx, DWORD PTR tv186[rsp]
	mov	DWORD PTR [rsp+56], ecx
	mov	ecx, DWORD PTR tv189[rsp]
	mov	DWORD PTR [rsp+48], ecx
	mov	ecx, DWORD PTR tv193[rsp]
	mov	DWORD PTR [rsp+40], ecx
	mov	ecx, DWORD PTR tv196[rsp]
	mov	DWORD PTR [rsp+32], ecx
	mov	r9d, DWORD PTR opnd1$[rsp]
	mov	r8, rax
	mov	rax, QWORD PTR ModuleInfo+432
	mov	edx, DWORD PTR [rax+16]
	lea	rcx, OFFSET FLAT:$SG11463
	call	DoDebugMsg1
$LN4@codegen:

; 1920 :                CurrSeg->sym.offset, GetResWName( CodeInfo->token, NULL ),
; 1921 :                opnd1, CodeInfo->Ofssize, CodeInfo->iswide,
; 1922 :                CodeInfo->rm_byte, CodeInfo->sib,
; 1923 :                CodeInfo->prefix.rex, CodeInfo->prefix.opsiz ));
; 1924 : #endif
; 1925 :     /* scan the instruction table for a matching first operand */
; 1926 :     do  {
; 1927 :         tbl_op1 = opnd_clstab[CodeInfo->pinstr->opclsidx].opnd_type[OPND1];

	mov	rax, QWORD PTR CodeInfo$[rsp]
	mov	rax, QWORD PTR [rax+16]
	movzx	eax, BYTE PTR [rax]
	imul	rax, rax, 12
	lea	rcx, OFFSET FLAT:opnd_clstab
	add	rcx, rax
	mov	rax, rcx
	mov	ecx, 4
	imul	rcx, rcx, 0
	mov	eax, DWORD PTR [rax+rcx]
	mov	DWORD PTR tbl_op1$[rsp], eax

; 1928 : 
; 1929 :         //DebugMsg1(("codegen: table.op1=%X\n", tbl_op1 ));
; 1930 :         /* v2.06: simplified */
; 1931 :         if ( tbl_op1 == OP_NONE && opnd1 == OP_NONE ) {

	cmp	DWORD PTR tbl_op1$[rsp], 0
	jne	SHORT $LN26@codegen
	cmp	DWORD PTR opnd1$[rsp], 0
	jne	SHORT $LN26@codegen

; 1932 :             output_opc( CodeInfo );

	mov	rcx, QWORD PTR CodeInfo$[rsp]
	call	output_opc

; 1933 :             if ( CurrFile[LST] )

	mov	eax, 8
	imul	rax, rax, 2
	lea	rcx, OFFSET FLAT:ModuleInfo+96
	cmp	QWORD PTR [rcx+rax], 0
	je	SHORT $LN28@codegen

; 1934 :                 LstWrite( LSTTYPE_CODE, oldofs, NULL );

	xor	r8d, r8d
	mov	edx, DWORD PTR oldofs$[rsp]
	mov	ecx, 1
	call	LstWrite
$LN28@codegen:

; 1935 :             return( NOT_ERROR );

	xor	eax, eax
	jmp	$LN1@codegen
	jmp	$LN27@codegen
$LN26@codegen:

; 1936 :         } else if ( opnd1 & tbl_op1 ) {

	mov	eax, DWORD PTR tbl_op1$[rsp]
	mov	ecx, DWORD PTR opnd1$[rsp]
	and	ecx, eax
	mov	eax, ecx
	test	eax, eax
	je	$LN29@codegen

; 1937 :             /* for immediate operands, the idata type has sometimes
; 1938 :              * to be modified in opnd_type[OPND1], to make output_data()
; 1939 :              * emit the correct number of bytes. */
; 1940 :             switch( tbl_op1 ) {

	mov	eax, DWORD PTR tbl_op1$[rsp]
	mov	DWORD PTR tv226[rsp], eax
	cmp	DWORD PTR tv226[rsp], 262144		; 00040000H
	je	SHORT $LN30@codegen
	cmp	DWORD PTR tv226[rsp], 524288		; 00080000H
	je	SHORT $LN30@codegen
	cmp	DWORD PTR tv226[rsp], 4325377		; 00420001H
	je	SHORT $LN33@codegen
	cmp	DWORD PTR tv226[rsp], 5111808		; 004e0000H
	je	SHORT $LN31@codegen
	jmp	$LN35@codegen
$LN30@codegen:

; 1941 :             case OP_I32: /* CALL, JMP, PUSHD */
; 1942 :             case OP_I16: /* CALL, JMP, RETx, ENTER, PUSHW */
; 1943 :                 retcode = check_operand_2( CodeInfo, tbl_op1 );

	mov	edx, DWORD PTR tbl_op1$[rsp]
	mov	rcx, QWORD PTR CodeInfo$[rsp]
	call	check_operand_2
	mov	DWORD PTR retcode$[rsp], eax

; 1944 :                 break;

	jmp	$LN5@codegen
$LN31@codegen:

; 1945 :             case OP_I8_U: /* INT xx; OUT xx, AL */
; 1946 :                 if( CodeInfo->opnd[OPND1].data32l <= UCHAR_MAX && CodeInfo->opnd[OPND1].data32l >= SCHAR_MIN ) {

	mov	eax, 24
	imul	rax, rax, 0
	mov	rcx, QWORD PTR CodeInfo$[rsp]
	cmp	DWORD PTR [rcx+rax+40], 255		; 000000ffH
	jg	SHORT $LN32@codegen
	mov	eax, 24
	imul	rax, rax, 0
	mov	rcx, QWORD PTR CodeInfo$[rsp]
	cmp	DWORD PTR [rcx+rax+40], -128		; ffffffffffffff80H
	jl	SHORT $LN32@codegen

; 1947 :                     retcode = check_operand_2( CodeInfo, OP_I8 );

	mov	edx, 131072				; 00020000H
	mov	rcx, QWORD PTR CodeInfo$[rsp]
	call	check_operand_2
	mov	DWORD PTR retcode$[rsp], eax
$LN32@codegen:

; 1948 :                 }
; 1949 :                 break;

	jmp	SHORT $LN5@codegen
$LN33@codegen:

; 1950 :             case OP_I_3: /* INT 3 */
; 1951 :                 if ( CodeInfo->opnd[OPND1].data32l == 3 ) {

	mov	eax, 24
	imul	rax, rax, 0
	mov	rcx, QWORD PTR CodeInfo$[rsp]
	cmp	DWORD PTR [rcx+rax+40], 3
	jne	SHORT $LN34@codegen

; 1952 :                     retcode = check_operand_2( CodeInfo, OP_NONE );

	xor	edx, edx
	mov	rcx, QWORD PTR CodeInfo$[rsp]
	call	check_operand_2
	mov	DWORD PTR retcode$[rsp], eax
$LN34@codegen:

; 1953 :                 }
; 1954 :                 break;

	jmp	SHORT $LN5@codegen
$LN35@codegen:

; 1955 :             default:
; 1956 :                 retcode = check_operand_2( CodeInfo, CodeInfo->opnd[OPND1].type );

	mov	eax, 24
	imul	rax, rax, 0
	mov	rcx, QWORD PTR CodeInfo$[rsp]
	mov	edx, DWORD PTR [rcx+rax+32]
	mov	rcx, QWORD PTR CodeInfo$[rsp]
	call	check_operand_2
	mov	DWORD PTR retcode$[rsp], eax
$LN5@codegen:

; 1957 :                 break;
; 1958 :             }
; 1959 :             if( retcode == NOT_ERROR) {

	cmp	DWORD PTR retcode$[rsp], 0
	jne	SHORT $LN36@codegen

; 1960 :                 if ( CurrFile[LST] )

	mov	eax, 8
	imul	rax, rax, 2
	lea	rcx, OFFSET FLAT:ModuleInfo+96
	cmp	QWORD PTR [rcx+rax], 0
	je	SHORT $LN37@codegen

; 1961 :                     LstWrite( LSTTYPE_CODE, oldofs, NULL );

	xor	r8d, r8d
	mov	edx, DWORD PTR oldofs$[rsp]
	mov	ecx, 1
	call	LstWrite
$LN37@codegen:

; 1962 :                 return( NOT_ERROR );

	xor	eax, eax
	jmp	SHORT $LN1@codegen
$LN36@codegen:
$LN29@codegen:
$LN27@codegen:

; 1963 :             }
; 1964 :         }
; 1965 :         CodeInfo->pinstr++;

	mov	rax, QWORD PTR CodeInfo$[rsp]
	mov	rax, QWORD PTR [rax+16]
	add	rax, 14
	mov	rcx, QWORD PTR CodeInfo$[rsp]
	mov	QWORD PTR [rcx+16], rax

; 1966 :     } while ( CodeInfo->pinstr->first == FALSE );

	mov	rax, QWORD PTR CodeInfo$[rsp]
	mov	rax, QWORD PTR [rax+16]
	movzx	eax, BYTE PTR [rax+4]
	test	eax, eax
	je	$LN4@codegen

; 1967 : 
; 1968 :     DebugMsg(("codegen: no matching format found\n"));

	lea	rcx, OFFSET FLAT:$SG11476
	call	DoDebugMsg

; 1969 :     EmitError( INVALID_INSTRUCTION_OPERANDS );

	mov	ecx, 49					; 00000031H
	call	EmitError

; 1970 :     return( ERROR );

	mov	eax, -1
$LN1@codegen:

; 1971 : }

	add	rsp, 128				; 00000080H
	pop	rdi
	ret	0
codegen	ENDP
_TEXT	ENDS
END
