; Listing generated by Microsoft (R) Optimizing Compiler Version 19.00.23026.0 

include listing.inc

INCLUDELIB MSVCRTD
INCLUDELIB OLDNAMES

PUBLIC	maxintvalues
PUBLIC	minintvalues
_DATA	SEGMENT
COMM	decoflags:BYTE
COMM	broadflags:BYTE
COMM	evex:BYTE
COMM	ZEROLOCALS:BYTE
_DATA	ENDS
_DATA	SEGMENT
$SG11027 DB	'SetValue(%s): Phase error, enforced by alias equate', 0aH
	DB	00H
	ORG $+3
$SG11030 DB	'SetValue(%s): Phase error, enforced by alias equate %X !'
	DB	'= %X', 0aH, 00H
	ORG $+2
$SG11050 DB	'CreateAssemblyTimeVariable(%s) enter', 0aH, 00H
	ORG $+2
$SG11060 DB	'CreateAssemblyTimeVariable(%s) kind=%u sym=%p state=%u', 0aH
	DB	00H
$SG11087 DB	'CreateAssemblyTimeVariable(%s) memtype=%Xh value=%d', 0aH
	DB	00H
	ORG $+3
$SG11082 DB	'CreateAssemblyTimeVariable(%s): kind=%u, value changed ('
	DB	' %d -> %d )', 0aH, 00H
	ORG $+3
$SG11107 DB	'CreateVariable(%s, %d ) enter', 0aH, 00H
	ORG $+1
$SG11151 DB	'CreateConstant(%s): simple numeric value=%I64d', 0aH, 00H
$SG11153 DB	'CreateConstant(%s): before ExpandLineItems: >%s<', 0aH, 00H
	ORG $+6
$SG11084 DB	'CreateAssemblyTimeVariable(%s): kind=%u, value changed ('
	DB	' %d -> %d )', 0aH, 00H
	ORG $+3
$SG11136 DB	'CreateConstant(%s) enter', 0aH, 00H
	ORG $+6
$SG11156 DB	'CreateConstant(%s): after ExpandLineItems: >%s<', 0aH, 00H
	ORG $+7
$SG11145 DB	'CreateConstant(%s) state=%u, mem_type=%Xh, value=%X, sym'
	DB	'bol redefinition', 0aH, 00H
	ORG $+6
$SG11172 DB	'CreateConstant(%s), CONST value changed: old=%X, new=%X', 0aH
	DB	00H
	ORG $+7
$SG11176 DB	'CreateConstant(%s), ADDR value changed: old=%X, new ofs+'
	DB	'val=%X+%X', 0aH, 00H
	ORG $+1
$SG11177 DB	'NULL', 00H
	ORG $+7
$SG11178 DB	'CreateConstant(%s): memtype=%Xh value=%I64X isproc=%u va'
	DB	'riable=%u type=%s', 0aH, 00H
	ORG $+5
$SG11179 DB	'CreateConstant(%s): calling SetTextMacro() [MI.Ofssize=%'
	DB	'u]', 0aH, 00H
	ORG $+4
$SG11189 DB	'EquDirective(%s): calling CreateConstant', 0aH, 00H
	ORG $+6
$SG11191 DB	'equate.c', 00H
_DATA	ENDS
CONST	SEGMENT
maxintvalues DQ	00000000ffffffffH
	DQ	00000000ffffffffH
	DQ	7fffffffffffffffH
minintvalues DQ	ffffffff00000000H
	DQ	ffffffff00000000H
	DQ	8000000000000000H
CONST	ENDS
PUBLIC	CreateConstant
PUBLIC	CreateVariable
PUBLIC	EqualSgnDirective
PUBLIC	EquDirective
EXTRN	strcpy:PROC
EXTRN	DoDebugMsg:PROC
EXTRN	DoDebugMsg1:PROC
EXTRN	EmitError:PROC
EXTRN	EmitErr:PROC
EXTRN	SymCreate:PROC
EXTRN	SymFind:PROC
EXTRN	sym_remove_table:PROC
EXTRN	sym_ext2int:PROC
EXTRN	EvalOperand:PROC
EXTRN	EmitConstError:PROC
EXTRN	ExpandLineItems:PROC
EXTRN	SetTextMacro:PROC
EXTRN	StoreLine:PROC
EXTRN	SaveVariableState:PROC
EXTRN	LstWrite:PROC
EXTRN	BackPatch:PROC
EXTRN	InternalError:PROC
EXTRN	myatoi128:PROC
EXTRN	_RTC_CheckStackVars:PROC
EXTRN	_RTC_InitBase:PROC
EXTRN	_RTC_Shutdown:PROC
EXTRN	__GSHandlerCheck:PROC
EXTRN	__security_check_cookie:PROC
EXTRN	ModuleInfo:BYTE
EXTRN	Parse_Pass:DWORD
EXTRN	SymTables:BYTE
EXTRN	StoreState:BYTE
EXTRN	__security_cookie:QWORD
pdata	SEGMENT
$pdata$CreateConstant DD imagerel $LN39
	DD	imagerel $LN39+1958
	DD	imagerel $unwind$CreateConstant
$pdata$CreateVariable DD imagerel $LN9
	DD	imagerel $LN9+417
	DD	imagerel $unwind$CreateVariable
$pdata$SetValue DD imagerel SetValue
	DD	imagerel SetValue+681
	DD	imagerel $unwind$SetValue
$pdata$CreateAssemblyTimeVariable DD imagerel CreateAssemblyTimeVariable
	DD	imagerel CreateAssemblyTimeVariable+1461
	DD	imagerel $unwind$CreateAssemblyTimeVariable
$pdata$EqualSgnDirective DD imagerel $LN6
	DD	imagerel $LN6+159
	DD	imagerel $unwind$EqualSgnDirective
$pdata$EquDirective DD imagerel $LN8
	DD	imagerel $LN8+235
	DD	imagerel $unwind$EquDirective
pdata	ENDS
;	COMDAT rtc$TMZ
rtc$TMZ	SEGMENT
_RTC_Shutdown.rtc$TMZ DQ FLAT:_RTC_Shutdown
rtc$TMZ	ENDS
;	COMDAT rtc$IMZ
rtc$IMZ	SEGMENT
_RTC_InitBase.rtc$IMZ DQ FLAT:_RTC_InitBase
rtc$IMZ	ENDS
xdata	SEGMENT
$unwind$CreateConstant DD 033619H
	DD	076010dH
	DD	07006H
	DD	imagerel __GSHandlerCheck
	DD	03a0H
$unwind$CreateVariable DD 022201H
	DD	0700a520eH
$unwind$SetValue DD 022301H
	DD	0700b520fH
$unwind$CreateAssemblyTimeVariable DD 032401H
	DD	020010dH
	DD	07006H
$unwind$EqualSgnDirective DD 022101H
	DD	0700a520eH
$unwind$EquDirective DD 022101H
	DD	0700a520eH
xdata	ENDS
CONST	SEGMENT
CreateConstant$rtcName$0 DB 069H
	DB	00H
	ORG $+2
CreateConstant$rtcName$1 DB 06fH
	DB	070H
	DB	06eH
	DB	064H
	DB	00H
	ORG $+3
CreateAssemblyTimeVariable$rtcName$0 DB 069H
	DB	00H
	ORG $+2
CreateConstant$rtcName$2 DB 061H
	DB	072H
	DB	067H
	DB	062H
	DB	075H
	DB	066H
	DB	066H
	DB	065H
	DB	072H
	DB	00H
	ORG $+6
CreateConstant$rtcVarDesc DD 0120H
	DD	0258H
	DQ	FLAT:CreateConstant$rtcName$2
	DD	090H
	DD	068H
	DQ	FLAT:CreateConstant$rtcName$1
	DD	054H
	DD	04H
	DQ	FLAT:CreateConstant$rtcName$0
	ORG $+144
CreateConstant$rtcFrameData DD 03H
	DD	00H
	DQ	FLAT:CreateConstant$rtcVarDesc
CreateAssemblyTimeVariable$rtcName$1 DB 06fH
	DB	070H
	DB	06eH
	DB	064H
	DB	00H
	ORG $+3
CreateAssemblyTimeVariable$rtcFrameData DD 02H
	DD	00H
	DQ	FLAT:CreateAssemblyTimeVariable$rtcVarDesc
	ORG $+8
CreateAssemblyTimeVariable$rtcVarDesc DD 070H
	DD	068H
	DQ	FLAT:CreateAssemblyTimeVariable$rtcName$1
	DD	044H
	DD	04H
	DQ	FLAT:CreateAssemblyTimeVariable$rtcName$0
CONST	ENDS
; Function compile flags: /Odtp /RTCsu
; File d:\hjwasm\hjwasm2.13.1s\hjwasm2.13.1s\equate.c
_TEXT	SEGMENT
sym$ = 32
tv88 = 40
i$ = 64
tokenarray$ = 72
EquDirective PROC

; 508  : {

$LN8:
	mov	QWORD PTR [rsp+16], rdx
	mov	DWORD PTR [rsp+8], ecx
	push	rdi
	sub	rsp, 48					; 00000030H
	mov	rdi, rsp
	mov	ecx, 12
	mov	eax, -858993460				; ccccccccH
	rep stosd
	mov	ecx, DWORD PTR [rsp+64]

; 509  :     struct asym *sym;
; 510  : 
; 511  :     if( tokenarray[0].token != T_ID ) {

	mov	eax, 32					; 00000020H
	imul	rax, rax, 0
	mov	rcx, QWORD PTR tokenarray$[rsp]
	movzx	eax, BYTE PTR [rcx+rax]
	cmp	eax, 8
	je	SHORT $LN2@EquDirecti

; 512  :         return( EmitErr( SYNTAX_ERROR_EX, tokenarray[0].string_ptr ) );

	mov	eax, 32					; 00000020H
	imul	rax, rax, 0
	mov	rcx, QWORD PTR tokenarray$[rsp]
	mov	rdx, QWORD PTR [rcx+rax+8]
	mov	ecx, 209				; 000000d1H
	call	EmitErr
	jmp	$LN1@EquDirecti
$LN2@EquDirecti:

; 513  :     }
; 514  :     DebugMsg1(("EquDirective(%s): calling CreateConstant\n", tokenarray[0].string_ptr ));

	mov	eax, 32					; 00000020H
	imul	rax, rax, 0
	mov	rcx, QWORD PTR tokenarray$[rsp]
	mov	rdx, QWORD PTR [rcx+rax+8]
	lea	rcx, OFFSET FLAT:$SG11189
	call	DoDebugMsg1

; 515  :     if ( sym = CreateConstant( tokenarray ) ) {

	mov	rcx, QWORD PTR tokenarray$[rsp]
	call	CreateConstant
	mov	QWORD PTR sym$[rsp], rax
	cmp	QWORD PTR sym$[rsp], 0
	je	SHORT $LN3@EquDirecti

; 516  :         /**/myassert( sym->state == SYM_INTERNAL ); /* must not be a text macro */

	mov	rax, QWORD PTR sym$[rsp]
	cmp	DWORD PTR [rax+32], 1
	jne	SHORT $LN6@EquDirecti
	mov	DWORD PTR tv88[rsp], 0
	jmp	SHORT $LN7@EquDirecti
$LN6@EquDirecti:
	mov	edx, 516				; 00000204H
	lea	rcx, OFFSET FLAT:$SG11191
	call	InternalError
	mov	DWORD PTR tv88[rsp], eax
$LN7@EquDirecti:

; 517  :         if ( ModuleInfo.list == TRUE ) {

	mov	eax, DWORD PTR ModuleInfo+408
	shr	eax, 11
	and	eax, 1
	cmp	eax, 1
	jne	SHORT $LN4@EquDirecti

; 518  :             LstWrite( LSTTYPE_EQUATE, 0, sym );

	mov	r8, QWORD PTR sym$[rsp]
	xor	edx, edx
	mov	ecx, 2
	call	LstWrite
$LN4@EquDirecti:

; 519  :         }
; 520  :         return( NOT_ERROR );

	xor	eax, eax
	jmp	SHORT $LN1@EquDirecti
$LN3@EquDirecti:

; 521  :     }
; 522  :     return( ERROR );

	mov	eax, -1
$LN1@EquDirecti:

; 523  : }

	add	rsp, 48					; 00000030H
	pop	rdi
	ret	0
EquDirective ENDP
_TEXT	ENDS
; Function compile flags: /Odtp /RTCsu
; File d:\hjwasm\hjwasm2.13.1s\hjwasm2.13.1s\equate.c
_TEXT	SEGMENT
sym$ = 32
i$ = 64
tokenarray$ = 72
EqualSgnDirective PROC

; 258  : {

$LN6:
	mov	QWORD PTR [rsp+16], rdx
	mov	DWORD PTR [rsp+8], ecx
	push	rdi
	sub	rsp, 48					; 00000030H
	mov	rdi, rsp
	mov	ecx, 12
	mov	eax, -858993460				; ccccccccH
	rep stosd
	mov	ecx, DWORD PTR [rsp+64]

; 259  :     struct asym *sym;
; 260  : 
; 261  :     if( tokenarray[0].token != T_ID ) {

	mov	eax, 32					; 00000020H
	imul	rax, rax, 0
	mov	rcx, QWORD PTR tokenarray$[rsp]
	movzx	eax, BYTE PTR [rcx+rax]
	cmp	eax, 8
	je	SHORT $LN2@EqualSgnDi

; 262  :         return( EmitErr( SYNTAX_ERROR_EX, tokenarray[0].string_ptr ) );

	mov	eax, 32					; 00000020H
	imul	rax, rax, 0
	mov	rcx, QWORD PTR tokenarray$[rsp]
	mov	rdx, QWORD PTR [rcx+rax+8]
	mov	ecx, 209				; 000000d1H
	call	EmitErr
	jmp	SHORT $LN1@EqualSgnDi
$LN2@EqualSgnDi:

; 263  :     }
; 264  :     if ( sym = CreateAssemblyTimeVariable( tokenarray ) ) {

	mov	rcx, QWORD PTR tokenarray$[rsp]
	call	CreateAssemblyTimeVariable
	mov	QWORD PTR sym$[rsp], rax
	cmp	QWORD PTR sym$[rsp], 0
	je	SHORT $LN3@EqualSgnDi

; 265  :         if ( ModuleInfo.list == TRUE ) {

	mov	eax, DWORD PTR ModuleInfo+408
	shr	eax, 11
	and	eax, 1
	cmp	eax, 1
	jne	SHORT $LN4@EqualSgnDi

; 266  :             LstWrite( LSTTYPE_EQUATE, 0, sym );

	mov	r8, QWORD PTR sym$[rsp]
	xor	edx, edx
	mov	ecx, 2
	call	LstWrite
$LN4@EqualSgnDi:

; 267  :         }
; 268  :         return( NOT_ERROR );

	xor	eax, eax
	jmp	SHORT $LN1@EqualSgnDi
$LN3@EqualSgnDi:

; 269  :     }
; 270  :     return( ERROR );

	mov	eax, -1
$LN1@EqualSgnDi:

; 271  : }

	add	rsp, 48					; 00000030H
	pop	rdi
	ret	0
EqualSgnDirective ENDP
_TEXT	ENDS
; Function compile flags: /Odtp /RTCsu
; File d:\hjwasm\hjwasm2.13.1s\hjwasm2.13.1s\equate.c
_TEXT	SEGMENT
sym$ = 48
name$ = 56
i$ = 68
opnd$ = 112
tv92 = 232
tv166 = 240
tokenarray$ = 272
CreateAssemblyTimeVariable PROC

; 128  : {

	mov	QWORD PTR [rsp+8], rcx
	push	rdi
	sub	rsp, 256				; 00000100H
	mov	rdi, rsp
	mov	ecx, 64					; 00000040H
	mov	eax, -858993460				; ccccccccH
	rep stosd
	mov	rcx, QWORD PTR [rsp+272]

; 129  :     struct asym         *sym;
; 130  :     const char          *name = tokenarray[0].string_ptr;

	mov	eax, 32					; 00000020H
	imul	rax, rax, 0
	mov	rcx, QWORD PTR tokenarray$[rsp]
	mov	rax, QWORD PTR [rcx+rax+8]
	mov	QWORD PTR name$[rsp], rax

; 131  :     int                 i = 2;

	mov	DWORD PTR i$[rsp], 2

; 132  :     struct expr         opnd;
; 133  : 
; 134  :     DebugMsg1(( "CreateAssemblyTimeVariable(%s) enter\n", name ));

	mov	rdx, QWORD PTR name$[rsp]
	lea	rcx, OFFSET FLAT:$SG11050
	call	DoDebugMsg1

; 135  : 
; 136  :     /* v2.08: for plain numbers ALWAYS avoid to call evaluator */
; 137  :     if ( tokenarray[2].token == T_NUM &&

	mov	eax, 32					; 00000020H
	imul	rax, rax, 2
	mov	rcx, QWORD PTR tokenarray$[rsp]
	movzx	eax, BYTE PTR [rcx+rax]
	cmp	eax, 10
	jne	$LN2@CreateAsse
	mov	eax, 32					; 00000020H
	imul	rax, rax, 3
	mov	rcx, QWORD PTR tokenarray$[rsp]
	movzx	eax, BYTE PTR [rcx+rax]
	test	eax, eax
	jne	$LN2@CreateAsse

; 138  :         //tokenarray[3].token == T_FINAL &&
; 139  :         //tokenarray[2].itemlen <= 8 ) {
; 140  :         tokenarray[3].token == T_FINAL ) {
; 141  :         //opnd.llvalue = tokenarray[2].value64;
; 142  :         //opnd.llvalue = *(uint_64 *)(tokenarray[2].string_ptr - sizeof(uint_64) );
; 143  :         myatoi128( tokenarray[i].string_ptr, &opnd.llvalue, tokenarray[i].numbase, tokenarray[i].itemlen );

	movsxd	rax, DWORD PTR i$[rsp]
	imul	rax, rax, 32				; 00000020H
	movsxd	rcx, DWORD PTR i$[rsp]
	imul	rcx, rcx, 32				; 00000020H
	mov	rdx, QWORD PTR tokenarray$[rsp]
	movsx	ecx, BYTE PTR [rdx+rcx+1]
	movsxd	rdx, DWORD PTR i$[rsp]
	imul	rdx, rdx, 32				; 00000020H
	mov	QWORD PTR tv92[rsp], rdx
	mov	r8, QWORD PTR tokenarray$[rsp]
	mov	r9d, DWORD PTR [r8+rax+16]
	mov	r8d, ecx
	lea	rdx, QWORD PTR opnd$[rsp]
	mov	rax, QWORD PTR tokenarray$[rsp]
	mov	rcx, QWORD PTR tv92[rsp]
	mov	rcx, QWORD PTR [rax+rcx+8]
	call	myatoi128
$check_number$38:

; 144  :     check_number:
; 145  :         opnd.kind = EXPR_CONST;

	mov	DWORD PTR opnd$[rsp+60], 0

; 146  :         opnd.mem_type = MT_EMPTY; /* v2.07: added */

	mov	DWORD PTR opnd$[rsp+64], 192		; 000000c0H

; 147  :         /* v2.08: check added. the number must be 32-bit */
; 148  :         if ( opnd.hlvalue != 0 ||
; 149  :             opnd.value64 < minintvalues[ModuleInfo.Ofssize] ||

	cmp	QWORD PTR opnd$[rsp+8], 0
	jne	SHORT $LN5@CreateAsse
	movzx	eax, BYTE PTR ModuleInfo+404
	lea	rcx, OFFSET FLAT:minintvalues
	mov	rax, QWORD PTR [rcx+rax*8]
	cmp	QWORD PTR opnd$[rsp], rax
	jl	SHORT $LN5@CreateAsse
	movzx	eax, BYTE PTR ModuleInfo+404
	lea	rcx, OFFSET FLAT:maxintvalues
	mov	rax, QWORD PTR [rcx+rax*8]
	cmp	QWORD PTR opnd$[rsp], rax
	jle	SHORT $LN4@CreateAsse
$LN5@CreateAsse:

; 150  :             opnd.value64 > maxintvalues[ModuleInfo.Ofssize] ) {
; 151  :             EmitConstError( &opnd );

	lea	rcx, QWORD PTR opnd$[rsp]
	call	EmitConstError

; 152  :             return( NULL );

	xor	eax, eax
	jmp	$LN1@CreateAsse
$LN4@CreateAsse:

; 153  :         }
; 154  :     } else {

	jmp	$LN3@CreateAsse
$LN2@CreateAsse:

; 155  :         /* v2.09: don't create not-(yet)-defined symbols. Example:
; 156  :          * E1 = E1 or 1
; 157  :          * must NOT create E1.
; 158  :          */
; 159  :         if ( EvalOperand( &i, tokenarray, Token_Count, &opnd, 0 ) == ERROR )

	mov	BYTE PTR [rsp+32], 0
	lea	r9, QWORD PTR opnd$[rsp]
	mov	r8d, DWORD PTR ModuleInfo+496
	mov	rdx, QWORD PTR tokenarray$[rsp]
	lea	rcx, QWORD PTR i$[rsp]
	call	EvalOperand
	cmp	eax, -1
	jne	SHORT $LN6@CreateAsse

; 160  :             return( NULL );

	xor	eax, eax
	jmp	$LN1@CreateAsse
$LN6@CreateAsse:

; 161  :         if( tokenarray[i].token != T_FINAL ) {

	movsxd	rax, DWORD PTR i$[rsp]
	imul	rax, rax, 32				; 00000020H
	mov	rcx, QWORD PTR tokenarray$[rsp]
	movzx	eax, BYTE PTR [rcx+rax]
	test	eax, eax
	je	SHORT $LN7@CreateAsse

; 162  :             EmitErr( SYNTAX_ERROR_EX, tokenarray[i].string_ptr );

	movsxd	rax, DWORD PTR i$[rsp]
	imul	rax, rax, 32				; 00000020H
	mov	rcx, QWORD PTR tokenarray$[rsp]
	mov	rdx, QWORD PTR [rcx+rax+8]
	mov	ecx, 209				; 000000d1H
	call	EmitErr

; 163  :             return( NULL );

	xor	eax, eax
	jmp	$LN1@CreateAsse
$LN7@CreateAsse:

; 164  :         }
; 165  : 
; 166  :         /* expression may be a constant or a relocatable item.
; 167  :          * v2.09: kind may be EXPR_CONST and still include an undefined symbol.
; 168  :          * This is caused by MakeConst() in expreval.c. Brackets changed so
; 169  :          * opnd.sym is also checked for opnd.kind == EXPR_CONST.
; 170  :          */
; 171  :         if( opnd.kind != EXPR_CONST &&
; 172  :            ( opnd.kind != EXPR_ADDR || opnd.indirect == TRUE ) ||

	cmp	DWORD PTR opnd$[rsp+60], 0
	je	SHORT $LN10@CreateAsse
	cmp	DWORD PTR opnd$[rsp+60], 1
	jne	SHORT $LN9@CreateAsse
	mov	eax, DWORD PTR opnd$[rsp+72]
	and	eax, 1
	cmp	eax, 1
	je	SHORT $LN9@CreateAsse
$LN10@CreateAsse:
	cmp	QWORD PTR opnd$[rsp+80], 0
	je	$LN8@CreateAsse
	mov	rax, QWORD PTR opnd$[rsp+80]
	cmp	DWORD PTR [rax+32], 1
	je	$LN8@CreateAsse
$LN9@CreateAsse:

; 173  :             ( opnd.sym != NULL && opnd.sym->state != SYM_INTERNAL ) ) {
; 174  :             DebugMsg(( "CreateAssemblyTimeVariable(%s) kind=%u sym=%p state=%u\n", name, opnd.kind, opnd.sym, opnd.sym ? opnd.sym->state : 0 ));

	cmp	QWORD PTR opnd$[rsp+80], 0
	je	SHORT $LN36@CreateAsse
	mov	rax, QWORD PTR opnd$[rsp+80]
	mov	eax, DWORD PTR [rax+32]
	mov	DWORD PTR tv166[rsp], eax
	jmp	SHORT $LN37@CreateAsse
$LN36@CreateAsse:
	mov	DWORD PTR tv166[rsp], 0
$LN37@CreateAsse:
	mov	eax, DWORD PTR tv166[rsp]
	mov	DWORD PTR [rsp+32], eax
	mov	r9, QWORD PTR opnd$[rsp+80]
	mov	r8d, DWORD PTR opnd$[rsp+60]
	mov	rdx, QWORD PTR name$[rsp]
	lea	rcx, OFFSET FLAT:$SG11060
	call	DoDebugMsg

; 175  :             /* v2.09: no error if argument is a forward reference,
; 176  :              * but don't create the variable either. Will enforce an
; 177  :              * error if referenced symbol is still undefined in pass 2.
; 178  :              */
; 179  :             if( opnd.sym && opnd.sym->state == SYM_UNDEFINED && opnd.indirect == FALSE ) {

	cmp	QWORD PTR opnd$[rsp+80], 0
	je	SHORT $LN11@CreateAsse
	mov	rax, QWORD PTR opnd$[rsp+80]
	cmp	DWORD PTR [rax+32], 0
	jne	SHORT $LN11@CreateAsse
	mov	eax, DWORD PTR opnd$[rsp+72]
	and	eax, 1
	test	eax, eax
	jne	SHORT $LN11@CreateAsse

; 180  : #if FASTPASS
; 181  :                 if ( StoreState == FALSE ) FStoreLine(0); /* make sure this line is evaluated in pass two */

	movzx	eax, BYTE PTR StoreState
	test	eax, eax
	jne	SHORT $LN13@CreateAsse
	cmp	DWORD PTR Parse_Pass, 0
	jne	SHORT $LN14@CreateAsse
	xor	r8d, r8d
	xor	edx, edx
	mov	rcx, QWORD PTR ModuleInfo+464
	call	StoreLine
$LN14@CreateAsse:
$LN13@CreateAsse:

; 182  : #endif
; 183  :             } else

	jmp	SHORT $LN12@CreateAsse
$LN11@CreateAsse:

; 184  :                 EmitError( CONSTANT_EXPECTED );

	mov	ecx, 65					; 00000041H
	call	EmitError
$LN12@CreateAsse:

; 185  :             return( NULL );

	xor	eax, eax
	jmp	$LN1@CreateAsse
$LN8@CreateAsse:

; 186  :         }
; 187  : 
; 188  :         /* v2.08: accept any result that fits in 64-bits from expression evaluator */
; 189  :         if ( opnd.hlvalue != 0 ) {

	cmp	QWORD PTR opnd$[rsp+8], 0
	je	SHORT $LN16@CreateAsse

; 190  :             EmitConstError( &opnd );

	lea	rcx, QWORD PTR opnd$[rsp]
	call	EmitConstError

; 191  :             return( NULL );

	xor	eax, eax
	jmp	$LN1@CreateAsse
$LN16@CreateAsse:

; 192  :         }
; 193  :         /* for quoted strings, the same restrictions as for plain numbers apply */
; 194  :         if ( opnd.quoted_string )

	cmp	QWORD PTR opnd$[rsp+16], 0
	je	SHORT $LN17@CreateAsse

; 195  :             goto check_number;

	jmp	$check_number$38
$LN17@CreateAsse:
$LN3@CreateAsse:

; 196  :     }
; 197  : 
; 198  :     sym = SymSearch( name );

	mov	rcx, QWORD PTR name$[rsp]
	call	SymFind
	mov	QWORD PTR sym$[rsp], rax

; 199  :     if( sym == NULL || sym->state == SYM_UNDEFINED ) {

	cmp	QWORD PTR sym$[rsp], 0
	je	SHORT $LN20@CreateAsse
	mov	rax, QWORD PTR sym$[rsp]
	cmp	DWORD PTR [rax+32], 0
	jne	SHORT $LN18@CreateAsse
$LN20@CreateAsse:

; 200  :         if( sym == NULL ) {

	cmp	QWORD PTR sym$[rsp], 0
	jne	SHORT $LN21@CreateAsse

; 201  :             sym = SymCreate( name );

	mov	rcx, QWORD PTR name$[rsp]
	call	SymCreate
	mov	QWORD PTR sym$[rsp], rax

; 202  :         } else {

	jmp	SHORT $LN22@CreateAsse
$LN21@CreateAsse:

; 203  :             sym_remove_table( &SymTables[TAB_UNDEF], (struct dsym *)sym );

	mov	eax, 16
	imul	rax, rax, 0
	lea	rcx, OFFSET FLAT:SymTables
	add	rcx, rax
	mov	rax, rcx
	mov	rdx, QWORD PTR sym$[rsp]
	mov	rcx, rax
	call	sym_remove_table

; 204  :             sym->fwdref = TRUE;

	mov	rax, QWORD PTR sym$[rsp]
	movzx	eax, BYTE PTR [rax+41]
	or	al, 32					; 00000020H
	mov	rcx, QWORD PTR sym$[rsp]
	mov	BYTE PTR [rcx+41], al
$LN22@CreateAsse:

; 205  :         }
; 206  :         //sym->variable  = TRUE;
; 207  : #if FASTPASS
; 208  :         sym->issaved = StoreState; /* v2.10: added */

	movzx	eax, BYTE PTR StoreState
	and	al, 1
	shl	al, 4
	mov	rcx, QWORD PTR sym$[rsp]
	movzx	ecx, BYTE PTR [rcx+41]
	and	cl, 239					; 000000efH
	or	cl, al
	movzx	eax, cl
	mov	rcx, QWORD PTR sym$[rsp]
	mov	BYTE PTR [rcx+41], al
	jmp	$LN19@CreateAsse
$LN18@CreateAsse:

; 209  : #endif
; 210  :     //} else if ( sym->state == SYM_EXTERNAL && sym->weak == TRUE && sym->mem_type == MT_ABS ) {
; 211  :     } else if ( sym->state == SYM_EXTERNAL && sym->weak == TRUE && sym->mem_type == MT_EMPTY ) {

	mov	rax, QWORD PTR sym$[rsp]
	cmp	DWORD PTR [rax+32], 2
	jne	SHORT $LN23@CreateAsse
	mov	rax, QWORD PTR sym$[rsp]
	movzx	eax, BYTE PTR [rax+47]
	shr	al, 3
	and	al, 1
	movzx	eax, al
	cmp	eax, 1
	jne	SHORT $LN23@CreateAsse
	mov	rax, QWORD PTR sym$[rsp]
	cmp	DWORD PTR [rax+36], 192			; 000000c0H
	jne	SHORT $LN23@CreateAsse

; 212  :         sym_ext2int( sym );

	mov	rcx, QWORD PTR sym$[rsp]
	call	sym_ext2int

; 213  :         //sym->variable  = TRUE;
; 214  : #if FASTPASS
; 215  :         sym->issaved = StoreState; /* v2.10: added */

	movzx	eax, BYTE PTR StoreState
	and	al, 1
	shl	al, 4
	mov	rcx, QWORD PTR sym$[rsp]
	movzx	ecx, BYTE PTR [rcx+41]
	and	cl, 239					; 000000efH
	or	cl, al
	movzx	eax, cl
	mov	rcx, QWORD PTR sym$[rsp]
	mov	BYTE PTR [rcx+41], al

; 216  : #endif
; 217  :     } else {

	jmp	$LN24@CreateAsse
$LN23@CreateAsse:

; 218  :         if ( sym->state != SYM_INTERNAL ||

	mov	rax, QWORD PTR sym$[rsp]
	cmp	DWORD PTR [rax+32], 1
	jne	SHORT $LN26@CreateAsse
	mov	rax, QWORD PTR sym$[rsp]
	movzx	eax, BYTE PTR [rax+40]
	shr	al, 6
	and	al, 1
	movzx	eax, al
	test	eax, eax
	jne	SHORT $LN25@CreateAsse
	mov	rax, QWORD PTR sym$[rsp]
	mov	eax, DWORD PTR [rax+16]
	cmp	DWORD PTR opnd$[rsp], eax
	jne	SHORT $LN27@CreateAsse
	mov	rax, QWORD PTR sym$[rsp]
	mov	eax, DWORD PTR [rax+56]
	cmp	DWORD PTR opnd$[rsp+4], eax
	je	SHORT $LN25@CreateAsse
$LN27@CreateAsse:
$LN26@CreateAsse:

; 219  :             ( sym->variable == FALSE &&
; 220  :              ( opnd.uvalue != sym->uvalue || opnd.hvalue != sym->value3264 ) ) ) {
; 221  :             EmitErr( SYMBOL_REDEFINITION, sym->name );

	mov	rax, QWORD PTR sym$[rsp]
	mov	rdx, QWORD PTR [rax+8]
	mov	ecx, 143				; 0000008fH
	call	EmitErr

; 222  :             return( NULL );

	xor	eax, eax
	jmp	$LN1@CreateAsse
$LN25@CreateAsse:

; 223  :         }
; 224  : #if FASTPASS
; 225  :         /* v2.04a regression in v2.04. Do not save the variable when it
; 226  :          * is defined the first time
; 227  :          * v2.10: store state only when variable is changed and has been
; 228  :          * defined BEFORE SaveState() has been called.
; 229  :          */
; 230  :         //if ( StoreState && sym->issaved == FALSE && sym->isdefined == TRUE ) {
; 231  :         if ( StoreState && sym->issaved == FALSE ) {

	movzx	eax, BYTE PTR StoreState
	test	eax, eax
	je	SHORT $LN28@CreateAsse
	mov	rax, QWORD PTR sym$[rsp]
	movzx	eax, BYTE PTR [rax+41]
	shr	al, 4
	and	al, 1
	movzx	eax, al
	test	eax, eax
	jne	SHORT $LN28@CreateAsse

; 232  :             SaveVariableState( sym );

	mov	rcx, QWORD PTR sym$[rsp]
	call	SaveVariableState
$LN28@CreateAsse:
$LN24@CreateAsse:
$LN19@CreateAsse:

; 233  :         }
; 234  : #endif
; 235  :     }
; 236  :     sym->variable = TRUE;

	mov	rax, QWORD PTR sym$[rsp]
	movzx	eax, BYTE PTR [rax+40]
	or	al, 64					; 00000040H
	mov	rcx, QWORD PTR sym$[rsp]
	mov	BYTE PTR [rcx+40], al

; 237  : #ifdef DEBUG_OUT
; 238  :     if ( Parse_Pass > PASS_1 ) {

	cmp	DWORD PTR Parse_Pass, 0
	jbe	$LN29@CreateAsse

; 239  :         if ( opnd.kind == EXPR_CONST && sym->uvalue != opnd.uvalue )

	cmp	DWORD PTR opnd$[rsp+60], 0
	jne	SHORT $LN30@CreateAsse
	mov	rax, QWORD PTR sym$[rsp]
	mov	ecx, DWORD PTR opnd$[rsp]
	cmp	DWORD PTR [rax+16], ecx
	je	SHORT $LN30@CreateAsse

; 240  :             DebugMsg1(( "CreateAssemblyTimeVariable(%s): kind=%u, value changed ( %d -> %d )\n", name, opnd.kind, sym->uvalue, opnd.uvalue ) );

	mov	eax, DWORD PTR opnd$[rsp]
	mov	DWORD PTR [rsp+32], eax
	mov	rax, QWORD PTR sym$[rsp]
	mov	r9d, DWORD PTR [rax+16]
	mov	r8d, DWORD PTR opnd$[rsp+60]
	mov	rdx, QWORD PTR name$[rsp]
	lea	rcx, OFFSET FLAT:$SG11082
	call	DoDebugMsg1
	jmp	SHORT $LN31@CreateAsse
$LN30@CreateAsse:

; 241  :         else if ( opnd.kind == EXPR_ADDR && sym->uvalue != ( opnd.uvalue + opnd.sym->uvalue ) )

	cmp	DWORD PTR opnd$[rsp+60], 1
	jne	SHORT $LN32@CreateAsse
	mov	rax, QWORD PTR opnd$[rsp+80]
	mov	eax, DWORD PTR [rax+16]
	mov	ecx, DWORD PTR opnd$[rsp]
	add	ecx, eax
	mov	eax, ecx
	mov	rcx, QWORD PTR sym$[rsp]
	cmp	DWORD PTR [rcx+16], eax
	je	SHORT $LN32@CreateAsse

; 242  :             DebugMsg1(( "CreateAssemblyTimeVariable(%s): kind=%u, value changed ( %d -> %d )\n", name, opnd.kind, sym->uvalue, opnd.uvalue + opnd.sym->uvalue ) );

	mov	rax, QWORD PTR opnd$[rsp+80]
	mov	eax, DWORD PTR [rax+16]
	mov	ecx, DWORD PTR opnd$[rsp]
	add	ecx, eax
	mov	eax, ecx
	mov	DWORD PTR [rsp+32], eax
	mov	rax, QWORD PTR sym$[rsp]
	mov	r9d, DWORD PTR [rax+16]
	mov	r8d, DWORD PTR opnd$[rsp+60]
	mov	rdx, QWORD PTR name$[rsp]
	lea	rcx, OFFSET FLAT:$SG11084
	call	DoDebugMsg1
$LN32@CreateAsse:
$LN31@CreateAsse:
$LN29@CreateAsse:

; 243  :     }
; 244  : #endif
; 245  :     /* v2.09: allow internal variables to be set */
; 246  :     if ( sym->predefined && sym->sfunc_ptr )

	mov	rax, QWORD PTR sym$[rsp]
	movzx	eax, BYTE PTR [rax+40]
	shr	al, 5
	and	al, 1
	movzx	eax, al
	test	eax, eax
	je	SHORT $LN33@CreateAsse
	mov	rax, QWORD PTR sym$[rsp]
	cmp	QWORD PTR [rax+64], 0
	je	SHORT $LN33@CreateAsse

; 247  :         sym->sfunc_ptr( sym, &opnd );

	lea	rdx, QWORD PTR opnd$[rsp]
	mov	rcx, QWORD PTR sym$[rsp]
	mov	rax, QWORD PTR sym$[rsp]
	call	QWORD PTR [rax+64]
	jmp	SHORT $LN34@CreateAsse
$LN33@CreateAsse:

; 248  :     else
; 249  :         SetValue( sym, &opnd );

	lea	rdx, QWORD PTR opnd$[rsp]
	mov	rcx, QWORD PTR sym$[rsp]
	call	SetValue
$LN34@CreateAsse:

; 250  :     DebugMsg1(( "CreateAssemblyTimeVariable(%s) memtype=%Xh value=%d\n", name, sym->mem_type, sym->value ));

	mov	rax, QWORD PTR sym$[rsp]
	mov	r9d, DWORD PTR [rax+16]
	mov	rax, QWORD PTR sym$[rsp]
	mov	r8d, DWORD PTR [rax+36]
	mov	rdx, QWORD PTR name$[rsp]
	lea	rcx, OFFSET FLAT:$SG11087
	call	DoDebugMsg1

; 251  :     return( sym );

	mov	rax, QWORD PTR sym$[rsp]
$LN1@CreateAsse:

; 252  : }

	mov	rdi, rax
	mov	rcx, rsp
	lea	rdx, OFFSET FLAT:CreateAssemblyTimeVariable$rtcFrameData
	call	_RTC_CheckStackVars
	mov	rax, rdi
	add	rsp, 256				; 00000100H
	pop	rdi
	ret	0
CreateAssemblyTimeVariable ENDP
_TEXT	ENDS
; Function compile flags: /Odtp /RTCsu
; File d:\hjwasm\hjwasm2.13.1s\hjwasm2.13.1s\equate.c
_TEXT	SEGMENT
dir$1 = 32
sym$ = 64
opndx$ = 72
SetValue PROC

; 58   : {

	mov	QWORD PTR [rsp+16], rdx
	mov	QWORD PTR [rsp+8], rcx
	push	rdi
	sub	rsp, 48					; 00000030H
	mov	rdi, rsp
	mov	ecx, 12
	mov	eax, -858993460				; ccccccccH
	rep stosd
	mov	rcx, QWORD PTR [rsp+64]

; 59   : 
; 60   :     sym->isequate = TRUE;

	mov	rax, QWORD PTR sym$[rsp]
	movzx	eax, BYTE PTR [rax+40]
	or	al, 16
	mov	rcx, QWORD PTR sym$[rsp]
	mov	BYTE PTR [rcx+40], al

; 61   :     sym->state = SYM_INTERNAL;

	mov	rax, QWORD PTR sym$[rsp]
	mov	DWORD PTR [rax+32], 1

; 62   :     sym->isdefined = TRUE;

	mov	rax, QWORD PTR sym$[rsp]
	movzx	eax, BYTE PTR [rax+40]
	or	al, 2
	mov	rcx, QWORD PTR sym$[rsp]
	mov	BYTE PTR [rcx+40], al

; 63   :     if ( opndx->kind == EXPR_CONST ) {

	mov	rax, QWORD PTR opndx$[rsp]
	cmp	DWORD PTR [rax+60], 0
	jne	SHORT $LN2@SetValue

; 64   :         /* v2.07: use expression's memtype */
; 65   :         //sym->mem_type = MT_ABS;
; 66   :         sym->mem_type = opndx->mem_type;

	mov	rax, QWORD PTR sym$[rsp]
	mov	rcx, QWORD PTR opndx$[rsp]
	mov	ecx, DWORD PTR [rcx+64]
	mov	DWORD PTR [rax+36], ecx

; 67   :         sym->uvalue = opndx->uvalue;

	mov	rax, QWORD PTR sym$[rsp]
	mov	rcx, QWORD PTR opndx$[rsp]
	mov	ecx, DWORD PTR [rcx]
	mov	DWORD PTR [rax+16], ecx

; 68   :         sym->value3264 = opndx->hvalue;

	mov	rax, QWORD PTR sym$[rsp]
	mov	rcx, QWORD PTR opndx$[rsp]
	mov	ecx, DWORD PTR [rcx+4]
	mov	DWORD PTR [rax+56], ecx

; 69   :         sym->segment = NULL;

	mov	rax, QWORD PTR sym$[rsp]
	mov	QWORD PTR [rax+24], 0

; 70   :         sym->isproc = FALSE;

	mov	rax, QWORD PTR sym$[rsp]
	movzx	eax, BYTE PTR [rax+41]
	and	al, 247					; 000000f7H
	mov	rcx, QWORD PTR sym$[rsp]
	mov	BYTE PTR [rcx+41], al

; 71   :     } else {

	jmp	$LN3@SetValue
$LN2@SetValue:

; 72   :         sym->isproc = opndx->sym->isproc;

	mov	rax, QWORD PTR opndx$[rsp]
	mov	rax, QWORD PTR [rax+80]
	movzx	eax, BYTE PTR [rax+41]
	shr	al, 3
	and	al, 1
	and	al, 1
	shl	al, 3
	mov	rcx, QWORD PTR sym$[rsp]
	movzx	ecx, BYTE PTR [rcx+41]
	and	cl, 247					; 000000f7H
	or	cl, al
	movzx	eax, cl
	mov	rcx, QWORD PTR sym$[rsp]
	mov	BYTE PTR [rcx+41], al

; 73   :         /* for a PROC alias, copy the procinfo extension! */
; 74   :         if ( sym->isproc ) {

	mov	rax, QWORD PTR sym$[rsp]
	movzx	eax, BYTE PTR [rax+41]
	shr	al, 3
	and	al, 1
	movzx	eax, al
	test	eax, eax
	je	SHORT $LN4@SetValue

; 75   :             struct dsym *dir = (struct dsym *)sym;

	mov	rax, QWORD PTR sym$[rsp]
	mov	QWORD PTR dir$1[rsp], rax

; 76   :             dir->e.procinfo = ((struct dsym *)opndx->sym)->e.procinfo;

	mov	rax, QWORD PTR opndx$[rsp]
	mov	rax, QWORD PTR [rax+80]
	mov	rcx, QWORD PTR dir$1[rsp]
	mov	rax, QWORD PTR [rax+96]
	mov	QWORD PTR [rcx+96], rax
$LN4@SetValue:

; 77   :         }
; 78   :         sym->mem_type = opndx->mem_type;

	mov	rax, QWORD PTR sym$[rsp]
	mov	rcx, QWORD PTR opndx$[rsp]
	mov	ecx, DWORD PTR [rcx+64]
	mov	DWORD PTR [rax+36], ecx

; 79   :         /* v2.01: allow equates of variables with arbitrary type.
; 80   :          * Currently the expression evaluator sets opndx.mem_type
; 81   :          * to the mem_type of the type (i.e. QWORD for a struct with size 8),
; 82   :          * which is a bad idea in this case. So the original mem_type of the
; 83   :          * label is used instead.
; 84   :          */
; 85   :         if ( opndx->sym->mem_type == MT_TYPE && opndx->explicit == FALSE ) {

	mov	rax, QWORD PTR opndx$[rsp]
	mov	rax, QWORD PTR [rax+80]
	cmp	DWORD PTR [rax+36], 196			; 000000c4H
	jne	SHORT $LN5@SetValue
	mov	rax, QWORD PTR opndx$[rsp]
	mov	eax, DWORD PTR [rax+72]
	shr	eax, 1
	and	eax, 1
	test	eax, eax
	jne	SHORT $LN5@SetValue

; 86   :             sym->mem_type = opndx->sym->mem_type;

	mov	rax, QWORD PTR opndx$[rsp]
	mov	rax, QWORD PTR [rax+80]
	mov	rcx, QWORD PTR sym$[rsp]
	mov	eax, DWORD PTR [rax+36]
	mov	DWORD PTR [rcx+36], eax

; 87   :             sym->type = opndx->sym->type;

	mov	rax, QWORD PTR opndx$[rsp]
	mov	rax, QWORD PTR [rax+80]
	mov	rcx, QWORD PTR sym$[rsp]
	mov	rax, QWORD PTR [rax+80]
	mov	QWORD PTR [rcx+80], rax
$LN5@SetValue:

; 88   :         }
; 89   :         sym->value3264 = 0; /* v2.09: added */

	mov	rax, QWORD PTR sym$[rsp]
	mov	DWORD PTR [rax+56], 0

; 90   :         sym->segment = opndx->sym->segment;

	mov	rax, QWORD PTR opndx$[rsp]
	mov	rax, QWORD PTR [rax+80]
	mov	rcx, QWORD PTR sym$[rsp]
	mov	rax, QWORD PTR [rax+24]
	mov	QWORD PTR [rcx+24], rax

; 91   : #if 1 /* v2.10: added */
; 92   :         /* labels are supposed to be added to the current segment's label_list chain.
; 93   :          * this isn't done for alias equates, for various reasons.
; 94   :          * consequently, if the alias was forward referenced, ensure that a third pass
; 95   :          * will be done! regression test forward5.asm.
; 96   :          */
; 97   :         if ( sym->variable ) {

	mov	rax, QWORD PTR sym$[rsp]
	movzx	eax, BYTE PTR [rax+40]
	shr	al, 6
	and	al, 1
	movzx	eax, al
	test	eax, eax
	je	SHORT $LN6@SetValue

; 98   :             sym->offset = opndx->sym->offset + opndx->value;

	mov	rax, QWORD PTR opndx$[rsp]
	mov	rax, QWORD PTR [rax+80]
	mov	eax, DWORD PTR [rax+16]
	mov	rcx, QWORD PTR opndx$[rsp]
	add	eax, DWORD PTR [rcx]
	mov	rcx, QWORD PTR sym$[rsp]
	mov	DWORD PTR [rcx+16], eax

; 99   :             if ( Parse_Pass == PASS_2 && sym->fwdref ) {

	cmp	DWORD PTR Parse_Pass, 1
	jne	SHORT $LN8@SetValue
	mov	rax, QWORD PTR sym$[rsp]
	movzx	eax, BYTE PTR [rax+41]
	shr	al, 5
	and	al, 1
	movzx	eax, al
	test	eax, eax
	je	SHORT $LN8@SetValue

; 100  : #ifdef DEBUG_OUT
; 101  :                 if ( !ModuleInfo.PhaseError )

	movzx	eax, BYTE PTR ModuleInfo+422
	test	eax, eax
	jne	SHORT $LN9@SetValue

; 102  :                     DebugMsg(("SetValue(%s): Phase error, enforced by alias equate\n", sym->name ));

	mov	rax, QWORD PTR sym$[rsp]
	mov	rdx, QWORD PTR [rax+8]
	lea	rcx, OFFSET FLAT:$SG11027
	call	DoDebugMsg
$LN9@SetValue:

; 103  : #endif
; 104  :                 ModuleInfo.PhaseError = TRUE;

	mov	BYTE PTR ModuleInfo+422, 1
$LN8@SetValue:

; 105  :             }
; 106  :         } else {

	jmp	$LN7@SetValue
$LN6@SetValue:

; 107  :             if( Parse_Pass != PASS_1 && sym->offset != ( opndx->sym->offset + opndx->value ) ) {

	cmp	DWORD PTR Parse_Pass, 0
	je	SHORT $LN10@SetValue
	mov	rax, QWORD PTR opndx$[rsp]
	mov	rax, QWORD PTR [rax+80]
	mov	eax, DWORD PTR [rax+16]
	mov	rcx, QWORD PTR opndx$[rsp]
	add	eax, DWORD PTR [rcx]
	mov	rcx, QWORD PTR sym$[rsp]
	cmp	DWORD PTR [rcx+16], eax
	je	SHORT $LN10@SetValue

; 108  : #ifdef DEBUG_OUT
; 109  :                 if ( !ModuleInfo.PhaseError )

	movzx	eax, BYTE PTR ModuleInfo+422
	test	eax, eax
	jne	SHORT $LN11@SetValue

; 110  :                     DebugMsg1(("SetValue(%s): Phase error, enforced by alias equate %" I32_SPEC "X != %" I32_SPEC "X\n", sym->name, sym->offset, opndx->sym->offset + opndx->value ));

	mov	rax, QWORD PTR opndx$[rsp]
	mov	rax, QWORD PTR [rax+80]
	mov	eax, DWORD PTR [rax+16]
	mov	rcx, QWORD PTR opndx$[rsp]
	add	eax, DWORD PTR [rcx]
	mov	r9d, eax
	mov	rax, QWORD PTR sym$[rsp]
	mov	r8d, DWORD PTR [rax+16]
	mov	rax, QWORD PTR sym$[rsp]
	mov	rdx, QWORD PTR [rax+8]
	lea	rcx, OFFSET FLAT:$SG11030
	call	DoDebugMsg1
$LN11@SetValue:

; 111  : #endif
; 112  :                 ModuleInfo.PhaseError = TRUE;

	mov	BYTE PTR ModuleInfo+422, 1
$LN10@SetValue:

; 113  :             }
; 114  :             sym->offset = opndx->sym->offset + opndx->value;

	mov	rax, QWORD PTR opndx$[rsp]
	mov	rax, QWORD PTR [rax+80]
	mov	eax, DWORD PTR [rax+16]
	mov	rcx, QWORD PTR opndx$[rsp]
	add	eax, DWORD PTR [rcx]
	mov	rcx, QWORD PTR sym$[rsp]
	mov	DWORD PTR [rcx+16], eax

; 115  :             BackPatch( sym );

	mov	rcx, QWORD PTR sym$[rsp]
	call	BackPatch
$LN7@SetValue:
$LN3@SetValue:

; 116  :         }
; 117  : #endif
; 118  :     }
; 119  :     return;
; 120  : }

	add	rsp, 48					; 00000030H
	pop	rdi
	ret	0
SetValue ENDP
_TEXT	ENDS
; Function compile flags: /Odtp /RTCsu
; File d:\hjwasm\hjwasm2.13.1s\hjwasm2.13.1s\equate.c
_TEXT	SEGMENT
sym$ = 32
name$ = 64
value$ = 72
CreateVariable PROC

; 280  : {

$LN9:
	mov	DWORD PTR [rsp+16], edx
	mov	QWORD PTR [rsp+8], rcx
	push	rdi
	sub	rsp, 48					; 00000030H
	mov	rdi, rsp
	mov	ecx, 12
	mov	eax, -858993460				; ccccccccH
	rep stosd
	mov	rcx, QWORD PTR [rsp+64]

; 281  :     struct asym      *sym;
; 282  : 
; 283  :     DebugMsg1(( "CreateVariable(%s, %d ) enter\n", name, value ));

	mov	r8d, DWORD PTR value$[rsp]
	mov	rdx, QWORD PTR name$[rsp]
	lea	rcx, OFFSET FLAT:$SG11107
	call	DoDebugMsg1

; 284  : 
; 285  :     sym = SymSearch( name );

	mov	rcx, QWORD PTR name$[rsp]
	call	SymFind
	mov	QWORD PTR sym$[rsp], rax

; 286  :     if( sym == NULL ) {

	cmp	QWORD PTR sym$[rsp], 0
	jne	SHORT $LN2@CreateVari

; 287  :         sym = SymCreate( name );

	mov	rcx, QWORD PTR name$[rsp]
	call	SymCreate
	mov	QWORD PTR sym$[rsp], rax

; 288  : #if FASTPASS
; 289  :         //sym->issaved = FALSE;
; 290  :         sym->issaved = StoreState; /* v2.10 */

	movzx	eax, BYTE PTR StoreState
	and	al, 1
	shl	al, 4
	mov	rcx, QWORD PTR sym$[rsp]
	movzx	ecx, BYTE PTR [rcx+41]
	and	cl, 239					; 000000efH
	or	cl, al
	movzx	eax, cl
	mov	rcx, QWORD PTR sym$[rsp]
	mov	BYTE PTR [rcx+41], al
	jmp	$LN3@CreateVari
$LN2@CreateVari:

; 291  : #endif
; 292  :     } else if ( sym->state == SYM_UNDEFINED ) {

	mov	rax, QWORD PTR sym$[rsp]
	cmp	DWORD PTR [rax+32], 0
	jne	SHORT $LN4@CreateVari

; 293  :         sym_remove_table( &SymTables[TAB_UNDEF], (struct dsym *)sym );

	mov	eax, 16
	imul	rax, rax, 0
	lea	rcx, OFFSET FLAT:SymTables
	add	rcx, rax
	mov	rax, rcx
	mov	rdx, QWORD PTR sym$[rsp]
	mov	rcx, rax
	call	sym_remove_table

; 294  :         sym->fwdref = TRUE;

	mov	rax, QWORD PTR sym$[rsp]
	movzx	eax, BYTE PTR [rax+41]
	or	al, 32					; 00000020H
	mov	rcx, QWORD PTR sym$[rsp]
	mov	BYTE PTR [rcx+41], al

; 295  : #if FASTPASS
; 296  :         sym->issaved = StoreState; /* v2.10 */

	movzx	eax, BYTE PTR StoreState
	and	al, 1
	shl	al, 4
	mov	rcx, QWORD PTR sym$[rsp]
	movzx	ecx, BYTE PTR [rcx+41]
	and	cl, 239					; 000000efH
	or	cl, al
	movzx	eax, cl
	mov	rcx, QWORD PTR sym$[rsp]
	mov	BYTE PTR [rcx+41], al

; 297  : #endif
; 298  :     } else {

	jmp	SHORT $LN5@CreateVari
$LN4@CreateVari:

; 299  :         if ( sym->isequate == FALSE ) {

	mov	rax, QWORD PTR sym$[rsp]
	movzx	eax, BYTE PTR [rax+40]
	shr	al, 4
	and	al, 1
	movzx	eax, al
	test	eax, eax
	jne	SHORT $LN6@CreateVari

; 300  :             EmitErr( SYMBOL_REDEFINITION, name );

	mov	rdx, QWORD PTR name$[rsp]
	mov	ecx, 143				; 0000008fH
	call	EmitErr

; 301  :             return( NULL );

	xor	eax, eax
	jmp	$LN1@CreateVari
$LN6@CreateVari:

; 302  :         }
; 303  : #if FASTPASS
; 304  :         /*
; 305  :          * v2.09: don't save variable when it is defined the first time
; 306  :          * v2.10: store state only when variable is changed and has been
; 307  :          * defined BEFORE SaveState() has been called.
; 308  :          */
; 309  :         //if ( StoreState && sym->issaved == FALSE && sym->isdefined == TRUE ) {
; 310  :         if ( StoreState && sym->issaved == FALSE ) {

	movzx	eax, BYTE PTR StoreState
	test	eax, eax
	je	SHORT $LN7@CreateVari
	mov	rax, QWORD PTR sym$[rsp]
	movzx	eax, BYTE PTR [rax+41]
	shr	al, 4
	and	al, 1
	movzx	eax, al
	test	eax, eax
	jne	SHORT $LN7@CreateVari

; 311  :             SaveVariableState( sym );

	mov	rcx, QWORD PTR sym$[rsp]
	call	SaveVariableState
$LN7@CreateVari:
$LN5@CreateVari:
$LN3@CreateVari:

; 312  :         }
; 313  : #endif
; 314  :     }
; 315  :     sym->isdefined  = TRUE;

	mov	rax, QWORD PTR sym$[rsp]
	movzx	eax, BYTE PTR [rax+40]
	or	al, 2
	mov	rcx, QWORD PTR sym$[rsp]
	mov	BYTE PTR [rcx+40], al

; 316  :     sym->state    = SYM_INTERNAL;

	mov	rax, QWORD PTR sym$[rsp]
	mov	DWORD PTR [rax+32], 1

; 317  :     //sym->mem_type = MT_ABS;
; 318  :     sym->variable = TRUE;

	mov	rax, QWORD PTR sym$[rsp]
	movzx	eax, BYTE PTR [rax+40]
	or	al, 64					; 00000040H
	mov	rcx, QWORD PTR sym$[rsp]
	mov	BYTE PTR [rcx+40], al

; 319  :     sym->value    = value;

	mov	rax, QWORD PTR sym$[rsp]
	mov	ecx, DWORD PTR value$[rsp]
	mov	DWORD PTR [rax+16], ecx

; 320  :     sym->isequate = TRUE;

	mov	rax, QWORD PTR sym$[rsp]
	movzx	eax, BYTE PTR [rax+40]
	or	al, 16
	mov	rcx, QWORD PTR sym$[rsp]
	mov	BYTE PTR [rcx+40], al

; 321  :     return( sym );

	mov	rax, QWORD PTR sym$[rsp]
$LN1@CreateVari:

; 322  : }

	add	rsp, 48					; 00000030H
	pop	rdi
	ret	0
CreateVariable ENDP
_TEXT	ENDS
; Function compile flags: /Odtp /RTCsu
; File d:\hjwasm\hjwasm2.13.1s\hjwasm2.13.1s\equate.c
_TEXT	SEGMENT
sym$ = 64
name$ = 72
i$ = 84
rc$ = 100
p$ = 104
cmpvalue$ = 112
opnd$ = 144
argbuffer$ = 288
tv182 = 912
tv310 = 920
__$ArrayPad$ = 928
tokenarray$ = 960
CreateConstant PROC

; 339  : {

$LN39:
	mov	QWORD PTR [rsp+8], rcx
	push	rdi
	sub	rsp, 944				; 000003b0H
	mov	rdi, rsp
	mov	ecx, 236				; 000000ecH
	mov	eax, -858993460				; ccccccccH
	rep stosd
	mov	rcx, QWORD PTR [rsp+960]
	mov	rax, QWORD PTR __security_cookie
	xor	rax, rsp
	mov	QWORD PTR __$ArrayPad$[rsp], rax

; 340  :     struct asym         *sym;
; 341  :     const char          *name = tokenarray[0].string_ptr;

	mov	eax, 32					; 00000020H
	imul	rax, rax, 0
	mov	rcx, QWORD PTR tokenarray$[rsp]
	mov	rax, QWORD PTR [rcx+rax+8]
	mov	QWORD PTR name$[rsp], rax

; 342  :     int                 i = 2;

	mov	DWORD PTR i$[rsp], 2

; 343  :     ret_code            rc;
; 344  :     char                *p;
; 345  :     bool                cmpvalue = FALSE;

	mov	BYTE PTR cmpvalue$[rsp], 0

; 346  :     struct expr         opnd;
; 347  :     char                argbuffer[MAX_LINE_LEN];
; 348  : 
; 349  :     DebugMsg1(( "CreateConstant(%s) enter\n", name ));

	mov	rdx, QWORD PTR name$[rsp]
	lea	rcx, OFFSET FLAT:$SG11136
	call	DoDebugMsg1

; 350  : 
; 351  :     sym = SymSearch( name );

	mov	rcx, QWORD PTR name$[rsp]
	call	SymFind
	mov	QWORD PTR sym$[rsp], rax

; 352  : 
; 353  :     /* if a literal follows, the equate MUST be(come) a text macro */
; 354  :     if ( tokenarray[2].token == T_STRING && tokenarray[2].string_delim == '<' )

	mov	eax, 32					; 00000020H
	imul	rax, rax, 2
	mov	rcx, QWORD PTR tokenarray$[rsp]
	movzx	eax, BYTE PTR [rcx+rax]
	cmp	eax, 9
	jne	SHORT $LN2@CreateCons
	mov	eax, 32					; 00000020H
	imul	rax, rax, 2
	mov	rcx, QWORD PTR tokenarray$[rsp]
	movsx	eax, BYTE PTR [rcx+rax+1]
	cmp	eax, 60					; 0000003cH
	jne	SHORT $LN2@CreateCons

; 355  :         return ( SetTextMacro( tokenarray, sym, name, NULL ) );

	xor	r9d, r9d
	mov	r8, QWORD PTR name$[rsp]
	mov	rdx, QWORD PTR sym$[rsp]
	mov	rcx, QWORD PTR tokenarray$[rsp]
	call	SetTextMacro
	jmp	$LN1@CreateCons
$LN2@CreateCons:

; 356  : 
; 357  :     if( sym == NULL ||
; 358  :        sym->state == SYM_UNDEFINED ||

	cmp	QWORD PTR sym$[rsp], 0
	je	SHORT $LN5@CreateCons
	mov	rax, QWORD PTR sym$[rsp]
	cmp	DWORD PTR [rax+32], 0
	je	SHORT $LN5@CreateCons
	mov	rax, QWORD PTR sym$[rsp]
	cmp	DWORD PTR [rax+32], 2
	jne	SHORT $LN3@CreateCons
	mov	rax, QWORD PTR sym$[rsp]
	movzx	eax, BYTE PTR [rax+47]
	shr	al, 3
	and	al, 1
	movzx	eax, al
	cmp	eax, 1
	jne	SHORT $LN3@CreateCons
	mov	rax, QWORD PTR sym$[rsp]
	movzx	eax, BYTE PTR [rax+41]
	shr	al, 3
	and	al, 1
	movzx	eax, al
	test	eax, eax
	jne	SHORT $LN3@CreateCons
$LN5@CreateCons:

; 359  :        ( sym->state == SYM_EXTERNAL && sym->weak == TRUE && sym->isproc == FALSE ) ) {
; 360  :         /* It's a "new" equate.
; 361  :          * wait with definition until type of equate is clear
; 362  :          */
; 363  :     } else if( sym->state == SYM_TMACRO ) {

	jmp	$LN4@CreateCons
$LN3@CreateCons:
	mov	rax, QWORD PTR sym$[rsp]
	cmp	DWORD PTR [rax+32], 10
	jne	SHORT $LN6@CreateCons

; 364  : 
; 365  :         return ( SetTextMacro( tokenarray, sym, name, tokenarray[2].tokpos ) );

	mov	eax, 32					; 00000020H
	imul	rax, rax, 2
	mov	rcx, QWORD PTR tokenarray$[rsp]
	mov	r9, QWORD PTR [rcx+rax+24]
	mov	r8, QWORD PTR name$[rsp]
	mov	rdx, QWORD PTR sym$[rsp]
	mov	rcx, QWORD PTR tokenarray$[rsp]
	call	SetTextMacro
	jmp	$LN1@CreateCons
	jmp	$LN7@CreateCons
$LN6@CreateCons:

; 366  : 
; 367  :     } else if( sym->isequate == FALSE ) {

	mov	rax, QWORD PTR sym$[rsp]
	movzx	eax, BYTE PTR [rax+40]
	shr	al, 4
	and	al, 1
	movzx	eax, al
	test	eax, eax
	jne	SHORT $LN8@CreateCons

; 368  : 
; 369  :         DebugMsg1(( "CreateConstant(%s) state=%u, mem_type=%Xh, value=%" I32_SPEC "X, symbol redefinition\n", name, sym->state, sym->mem_type, sym->value));

	mov	rax, QWORD PTR sym$[rsp]
	mov	eax, DWORD PTR [rax+16]
	mov	DWORD PTR [rsp+32], eax
	mov	rax, QWORD PTR sym$[rsp]
	mov	r9d, DWORD PTR [rax+36]
	mov	rax, QWORD PTR sym$[rsp]
	mov	r8d, DWORD PTR [rax+32]
	mov	rdx, QWORD PTR name$[rsp]
	lea	rcx, OFFSET FLAT:$SG11145
	call	DoDebugMsg1

; 370  :         EmitErr( SYMBOL_REDEFINITION, name );

	mov	rdx, QWORD PTR name$[rsp]
	mov	ecx, 143				; 0000008fH
	call	EmitErr

; 371  :         return( NULL );

	xor	eax, eax
	jmp	$LN1@CreateCons

; 372  : 
; 373  :     } else {

	jmp	SHORT $LN9@CreateCons
$LN8@CreateCons:

; 374  :         if ( sym->asmpass == ( Parse_Pass & 0xFF ) )

	mov	rax, QWORD PTR sym$[rsp]
	movzx	eax, BYTE PTR [rax+46]
	mov	ecx, DWORD PTR Parse_Pass
	and	ecx, 255				; 000000ffH
	cmp	eax, ecx
	jne	SHORT $LN10@CreateCons

; 375  :             cmpvalue = TRUE;

	mov	BYTE PTR cmpvalue$[rsp], 1
$LN10@CreateCons:

; 376  :         sym->asmpass = Parse_Pass;

	mov	rax, QWORD PTR sym$[rsp]
	movzx	ecx, BYTE PTR Parse_Pass
	mov	BYTE PTR [rax+46], cl
$LN9@CreateCons:
$LN7@CreateCons:
$LN4@CreateCons:

; 377  :     }
; 378  : 
; 379  :     /* try to evaluate the expression */
; 380  : 
; 381  :     if ( tokenarray[2].token == T_NUM && Token_Count == 3 ) {

	mov	eax, 32					; 00000020H
	imul	rax, rax, 2
	mov	rcx, QWORD PTR tokenarray$[rsp]
	movzx	eax, BYTE PTR [rcx+rax]
	cmp	eax, 10
	jne	$LN11@CreateCons
	cmp	DWORD PTR ModuleInfo+496, 3
	jne	$LN11@CreateCons

; 382  : 
; 383  :         p = tokenarray[2].string_ptr;

	mov	eax, 32					; 00000020H
	imul	rax, rax, 2
	mov	rcx, QWORD PTR tokenarray$[rsp]
	mov	rax, QWORD PTR [rcx+rax+8]
	mov	QWORD PTR p$[rsp], rax
$do_single_number$40:

; 384  :     do_single_number:
; 385  :         /* value is a plain number. it will be accepted only if it fits into 32-bits.
; 386  :          * Else a text macro is created.
; 387  :          */
; 388  :         myatoi128( tokenarray[2].string_ptr, &opnd.llvalue, tokenarray[2].numbase, tokenarray[2].itemlen );

	mov	eax, 32					; 00000020H
	imul	rax, rax, 2
	mov	ecx, 32					; 00000020H
	imul	rcx, rcx, 2
	mov	rdx, QWORD PTR tokenarray$[rsp]
	movsx	ecx, BYTE PTR [rdx+rcx+1]
	mov	edx, 32					; 00000020H
	imul	rdx, rdx, 2
	mov	QWORD PTR tv182[rsp], rdx
	mov	r8, QWORD PTR tokenarray$[rsp]
	mov	r9d, DWORD PTR [r8+rax+16]
	mov	r8d, ecx
	lea	rdx, QWORD PTR opnd$[rsp]
	mov	rax, QWORD PTR tokenarray$[rsp]
	mov	rcx, QWORD PTR tv182[rsp]
	mov	rcx, QWORD PTR [rax+rcx+8]
	call	myatoi128
$check_single_number$41:

; 389  :     check_single_number:
; 390  :         opnd.instr = EMPTY;

	mov	DWORD PTR opnd$[rsp+56], -2

; 391  :         opnd.kind = EXPR_CONST;

	mov	DWORD PTR opnd$[rsp+60], 0

; 392  :         opnd.mem_type = MT_EMPTY; /* v2.07: added */

	mov	DWORD PTR opnd$[rsp+64], 192		; 000000c0H

; 393  :         opnd.flags1 = 0;

	mov	BYTE PTR opnd$[rsp+72], 0

; 394  :         /* v2.08: does it fit in 32-bits */
; 395  :         if ( opnd.hlvalue == 0 && opnd.value64 >= minintvalues[ModuleInfo.Ofssize] &&

	cmp	QWORD PTR opnd$[rsp+8], 0
	jne	SHORT $LN13@CreateCons
	movzx	eax, BYTE PTR ModuleInfo+404
	lea	rcx, OFFSET FLAT:minintvalues
	mov	rax, QWORD PTR [rcx+rax*8]
	cmp	QWORD PTR opnd$[rsp], rax
	jl	SHORT $LN13@CreateCons
	movzx	eax, BYTE PTR ModuleInfo+404
	lea	rcx, OFFSET FLAT:maxintvalues
	mov	rax, QWORD PTR [rcx+rax*8]
	cmp	QWORD PTR opnd$[rsp], rax
	jg	SHORT $LN13@CreateCons

; 396  :             opnd.value64 <= maxintvalues[ModuleInfo.Ofssize] ) {
; 397  :             rc = NOT_ERROR;

	mov	DWORD PTR rc$[rsp], 0

; 398  :             DebugMsg1(( "CreateConstant(%s): simple numeric value=%" I64_SPEC "d\n", name, opnd.value64 ));

	mov	r8, QWORD PTR opnd$[rsp]
	mov	rdx, QWORD PTR name$[rsp]
	lea	rcx, OFFSET FLAT:$SG11151
	call	DoDebugMsg1

; 399  :             i++;

	mov	eax, DWORD PTR i$[rsp]
	inc	eax
	mov	DWORD PTR i$[rsp], eax

; 400  :         } else

	jmp	SHORT $LN14@CreateCons
$LN13@CreateCons:

; 401  :             return ( SetTextMacro( tokenarray, sym, name, p ) );

	mov	r9, QWORD PTR p$[rsp]
	mov	r8, QWORD PTR name$[rsp]
	mov	rdx, QWORD PTR sym$[rsp]
	mov	rcx, QWORD PTR tokenarray$[rsp]
	call	SetTextMacro
	jmp	$LN1@CreateCons
$LN14@CreateCons:

; 402  : 
; 403  :     } else {

	jmp	$LN12@CreateCons
$LN11@CreateCons:

; 404  :         p = tokenarray[2].tokpos;

	mov	eax, 32					; 00000020H
	imul	rax, rax, 2
	mov	rcx, QWORD PTR tokenarray$[rsp]
	mov	rax, QWORD PTR [rcx+rax+24]
	mov	QWORD PTR p$[rsp], rax

; 405  :         if ( Parse_Pass == PASS_1 ) {

	cmp	DWORD PTR Parse_Pass, 0
	jne	$LN15@CreateCons

; 406  :             /* if the expression cannot be evaluated to a numeric value,
; 407  :              * it's to become a text macro. The value of this macro will be
; 408  :              * the original (unexpanded!) line - that's why it has to be
; 409  :              * saved here to argbuffer[].
; 410  :              */
; 411  :             strcpy( argbuffer, p );

	mov	rdx, QWORD PTR p$[rsp]
	lea	rcx, QWORD PTR argbuffer$[rsp]
	call	strcpy

; 412  :             DebugMsg1(("CreateConstant(%s): before ExpandLineItems: >%s<\n", name, p ));

	mov	r8, QWORD PTR p$[rsp]
	mov	rdx, QWORD PTR name$[rsp]
	lea	rcx, OFFSET FLAT:$SG11153
	call	DoDebugMsg1

; 413  :             /* expand EQU argument (macro functions won't be expanded!) */
; 414  :             if ( ExpandLineItems( p, 2, tokenarray, FALSE, TRUE ) )

	mov	DWORD PTR [rsp+32], 1
	xor	r9d, r9d
	mov	r8, QWORD PTR tokenarray$[rsp]
	mov	edx, 2
	mov	rcx, QWORD PTR p$[rsp]
	call	ExpandLineItems
	test	eax, eax
	je	SHORT $LN16@CreateCons

; 415  :                 /* v2.08: if expansion result is a plain number, handle is specifically.
; 416  :                  * this is necessary because values of expressions may be 64-bit now.
; 417  :                  */
; 418  :                 p = argbuffer; /* ensure that p points to unexpanded source */

	lea	rax, QWORD PTR argbuffer$[rsp]
	mov	QWORD PTR p$[rsp], rax
$LN16@CreateCons:

; 419  :                 if ( tokenarray[2].token == T_NUM && Token_Count == 3 ) {

	mov	eax, 32					; 00000020H
	imul	rax, rax, 2
	mov	rcx, QWORD PTR tokenarray$[rsp]
	movzx	eax, BYTE PTR [rcx+rax]
	cmp	eax, 10
	jne	SHORT $LN17@CreateCons
	cmp	DWORD PTR ModuleInfo+496, 3
	jne	SHORT $LN17@CreateCons

; 420  :                     goto do_single_number;

	jmp	$do_single_number$40
$LN17@CreateCons:

; 421  :                 }
; 422  :             DebugMsg1(("CreateConstant(%s): after ExpandLineItems: >%s<\n", name, p ));

	mov	r8, QWORD PTR p$[rsp]
	mov	rdx, QWORD PTR name$[rsp]
	lea	rcx, OFFSET FLAT:$SG11156
	call	DoDebugMsg1
$LN15@CreateCons:

; 423  :         }
; 424  :         rc = EvalOperand( &i, tokenarray, Token_Count, &opnd, EXPF_NOERRMSG | EXPF_NOUNDEF );

	mov	BYTE PTR [rsp+32], 3
	lea	r9, QWORD PTR opnd$[rsp]
	mov	r8d, DWORD PTR ModuleInfo+496
	mov	rdx, QWORD PTR tokenarray$[rsp]
	lea	rcx, QWORD PTR i$[rsp]
	call	EvalOperand
	mov	DWORD PTR rc$[rsp], eax

; 425  : 
; 426  :         /* v2.08: if it's a quoted string, handle it like a plain number */
; 427  :         /* v2.10: quoted_string field is != 0 if kind == EXPR_FLOAT,
; 428  :          * so this is a regression in v2.08-2.09.
; 429  :          */
; 430  :         if ( opnd.quoted_string && opnd.kind == EXPR_CONST ) {

	cmp	QWORD PTR opnd$[rsp+16], 0
	je	SHORT $LN18@CreateCons
	cmp	DWORD PTR opnd$[rsp+60], 0
	jne	SHORT $LN18@CreateCons

; 431  :             i--; /* v2.09: added; regression in v2.08 and v2.08a */

	mov	eax, DWORD PTR i$[rsp]
	dec	eax
	mov	DWORD PTR i$[rsp], eax

; 432  :             goto check_single_number;

	jmp	$check_single_number$41
$LN18@CreateCons:
$LN12@CreateCons:

; 433  :         }
; 434  : 
; 435  :         /* check here if last token has been reached? */
; 436  :     }
; 437  :     /* what is an acceptable 'number' for EQU?
; 438  :      * 1. a numeric value - if magnitude is <= 64 (or 32, if it's a plain number)
; 439  :      *    This includes struct fields.
; 440  :      * 2. an address - if it is direct, has a label and is of type SYM_INTERNAL -
; 441  :      *    that is, no forward references, no seg, groups, externals;
; 442  :      *    Anything else will be stored as a text macro.
; 443  :      * v2.04: large parts rewritten.
; 444  :      */
; 445  :     if ( rc != ERROR &&
; 446  :         tokenarray[i].token == T_FINAL &&
; 447  :         ( ( opnd.kind == EXPR_CONST && opnd.hlvalue == 0 ) || /* magnitude <= 64 bits? */
; 448  :          ( opnd.kind == EXPR_ADDR && opnd.indirect == FALSE &&
; 449  :           opnd.sym != NULL &&
; 450  :           //opnd.sym->state != SYM_EXTERNAL ) ) && /* SYM_SEG, SYM_GROUP are also not ok */
; 451  :           opnd.sym->state == SYM_INTERNAL ) ) &&

	cmp	DWORD PTR rc$[rsp], -1
	je	$LN19@CreateCons
	movsxd	rax, DWORD PTR i$[rsp]
	imul	rax, rax, 32				; 00000020H
	mov	rcx, QWORD PTR tokenarray$[rsp]
	movzx	eax, BYTE PTR [rcx+rax]
	test	eax, eax
	jne	$LN19@CreateCons
	cmp	DWORD PTR opnd$[rsp+60], 0
	jne	SHORT $LN21@CreateCons
	cmp	QWORD PTR opnd$[rsp+8], 0
	je	SHORT $LN20@CreateCons
$LN21@CreateCons:
	cmp	DWORD PTR opnd$[rsp+60], 1
	jne	$LN19@CreateCons
	mov	eax, DWORD PTR opnd$[rsp+72]
	and	eax, 1
	test	eax, eax
	jne	$LN19@CreateCons
	cmp	QWORD PTR opnd$[rsp+80], 0
	je	$LN19@CreateCons
	mov	rax, QWORD PTR opnd$[rsp+80]
	cmp	DWORD PTR [rax+32], 1
	jne	$LN19@CreateCons
$LN20@CreateCons:
	cmp	DWORD PTR opnd$[rsp+56], -2
	jne	$LN19@CreateCons

; 452  :         ( opnd.instr == EMPTY ) ) {
; 453  : 
; 454  :         if ( !sym ) {

	cmp	QWORD PTR sym$[rsp], 0
	jne	SHORT $LN22@CreateCons

; 455  :             sym = SymCreate( name );

	mov	rcx, QWORD PTR name$[rsp]
	call	SymCreate
	mov	QWORD PTR sym$[rsp], rax

; 456  :             sym->asmpass = Parse_Pass;

	mov	rax, QWORD PTR sym$[rsp]
	movzx	ecx, BYTE PTR Parse_Pass
	mov	BYTE PTR [rax+46], cl
	jmp	$LN23@CreateCons
$LN22@CreateCons:

; 457  :         } else if ( sym->state == SYM_UNDEFINED ) {

	mov	rax, QWORD PTR sym$[rsp]
	cmp	DWORD PTR [rax+32], 0
	jne	SHORT $LN24@CreateCons

; 458  :             sym_remove_table( &SymTables[TAB_UNDEF], (struct dsym *)sym );

	mov	eax, 16
	imul	rax, rax, 0
	lea	rcx, OFFSET FLAT:SymTables
	add	rcx, rax
	mov	rax, rcx
	mov	rdx, QWORD PTR sym$[rsp]
	mov	rcx, rax
	call	sym_remove_table

; 459  :             sym->fwdref = TRUE;

	mov	rax, QWORD PTR sym$[rsp]
	movzx	eax, BYTE PTR [rax+41]
	or	al, 32					; 00000020H
	mov	rcx, QWORD PTR sym$[rsp]
	mov	BYTE PTR [rcx+41], al
	jmp	$LN25@CreateCons
$LN24@CreateCons:

; 460  :         } else if ( sym->state == SYM_EXTERNAL ) {

	mov	rax, QWORD PTR sym$[rsp]
	cmp	DWORD PTR [rax+32], 2
	jne	SHORT $LN26@CreateCons

; 461  :             sym_ext2int( sym );

	mov	rcx, QWORD PTR sym$[rsp]
	call	sym_ext2int
	jmp	$LN27@CreateCons
$LN26@CreateCons:

; 462  :         } else if ( cmpvalue ) {

	movzx	eax, BYTE PTR cmpvalue$[rsp]
	test	eax, eax
	je	$LN28@CreateCons

; 463  :             if ( opnd.kind == EXPR_CONST ) {

	cmp	DWORD PTR opnd$[rsp+60], 0
	jne	SHORT $LN29@CreateCons

; 464  :                 /* for 64bit, it may be necessary to check 64bit value! */
; 465  :                 /* v2.08: always compare 64-bit values */
; 466  :                 //if ( sym->value != opnd.value ) {
; 467  :                 if ( sym->value != opnd.value || sym->value3264 != opnd.hvalue ) {

	mov	rax, QWORD PTR sym$[rsp]
	mov	ecx, DWORD PTR opnd$[rsp]
	cmp	DWORD PTR [rax+16], ecx
	jne	SHORT $LN32@CreateCons
	mov	rax, QWORD PTR sym$[rsp]
	mov	ecx, DWORD PTR opnd$[rsp+4]
	cmp	DWORD PTR [rax+56], ecx
	je	SHORT $LN31@CreateCons
$LN32@CreateCons:

; 468  :                     DebugMsg(("CreateConstant(%s), CONST value changed: old=%X, new=%X\n", name, sym->offset, opnd.value ));

	mov	r9d, DWORD PTR opnd$[rsp]
	mov	rax, QWORD PTR sym$[rsp]
	mov	r8d, DWORD PTR [rax+16]
	mov	rdx, QWORD PTR name$[rsp]
	lea	rcx, OFFSET FLAT:$SG11172
	call	DoDebugMsg

; 469  :                     EmitErr( SYMBOL_REDEFINITION, name );

	mov	rdx, QWORD PTR name$[rsp]
	mov	ecx, 143				; 0000008fH
	call	EmitErr

; 470  :                     return( NULL );

	xor	eax, eax
	jmp	$LN1@CreateCons
$LN31@CreateCons:

; 471  :                 }

	jmp	$LN30@CreateCons
$LN29@CreateCons:

; 472  :             } else if ( opnd.kind == EXPR_ADDR ) {

	cmp	DWORD PTR opnd$[rsp+60], 1
	jne	SHORT $LN33@CreateCons

; 473  :                 if ( ( sym->offset != ( opnd.sym->offset + opnd.value ) ) || ( sym->segment != opnd.sym->segment ) ) {

	mov	rax, QWORD PTR opnd$[rsp+80]
	mov	eax, DWORD PTR [rax+16]
	add	eax, DWORD PTR opnd$[rsp]
	mov	rcx, QWORD PTR sym$[rsp]
	cmp	DWORD PTR [rcx+16], eax
	jne	SHORT $LN35@CreateCons
	mov	rax, QWORD PTR sym$[rsp]
	mov	rcx, QWORD PTR opnd$[rsp+80]
	mov	rcx, QWORD PTR [rcx+24]
	cmp	QWORD PTR [rax+24], rcx
	je	SHORT $LN34@CreateCons
$LN35@CreateCons:

; 474  :                     DebugMsg(("CreateConstant(%s), ADDR value changed: old=%X, new ofs+val=%X+%X\n", name, sym->offset, opnd.sym->offset, opnd.value));

	mov	eax, DWORD PTR opnd$[rsp]
	mov	DWORD PTR [rsp+32], eax
	mov	rax, QWORD PTR opnd$[rsp+80]
	mov	r9d, DWORD PTR [rax+16]
	mov	rax, QWORD PTR sym$[rsp]
	mov	r8d, DWORD PTR [rax+16]
	mov	rdx, QWORD PTR name$[rsp]
	lea	rcx, OFFSET FLAT:$SG11176
	call	DoDebugMsg

; 475  :                     EmitErr( SYMBOL_REDEFINITION, name );

	mov	rdx, QWORD PTR name$[rsp]
	mov	ecx, 143				; 0000008fH
	call	EmitErr

; 476  :                     return( NULL );

	xor	eax, eax
	jmp	$LN1@CreateCons
$LN34@CreateCons:
$LN33@CreateCons:
$LN30@CreateCons:
$LN28@CreateCons:
$LN27@CreateCons:
$LN25@CreateCons:
$LN23@CreateCons:

; 477  :                 }
; 478  :             }
; 479  :         }
; 480  :         /* change from alias to number is ok if value (=offset) won't change!
; 481  :          * memtype must not be checked!
; 482  :          */
; 483  :         //if ( opnd.kind == EXPR_CONST ) {
; 484  :         //    if ( sym->mem_type != MT_ABS && sym->mem_type != MT_EMPTY ) {
; 485  :         //        EmitErr( SYMBOL_REDEFINITION, name );
; 486  :         //        return( NULL );
; 487  :         //    }
; 488  :         //}
; 489  :         sym->variable = FALSE;

	mov	rax, QWORD PTR sym$[rsp]
	movzx	eax, BYTE PTR [rax+40]
	and	al, 191					; 000000bfH
	mov	rcx, QWORD PTR sym$[rsp]
	mov	BYTE PTR [rcx+40], al

; 490  :         SetValue( sym, &opnd );

	lea	rdx, QWORD PTR opnd$[rsp]
	mov	rcx, QWORD PTR sym$[rsp]
	call	SetValue

; 491  :         DebugMsg1(("CreateConstant(%s): memtype=%Xh value=%" I64_SPEC "X isproc=%u variable=%u type=%s\n",

	mov	rax, QWORD PTR sym$[rsp]
	cmp	QWORD PTR [rax+80], 0
	je	SHORT $LN37@CreateCons
	mov	rax, QWORD PTR sym$[rsp]
	mov	rax, QWORD PTR [rax+80]
	mov	rax, QWORD PTR [rax+8]
	mov	QWORD PTR tv310[rsp], rax
	jmp	SHORT $LN38@CreateCons
$LN37@CreateCons:
	lea	rax, OFFSET FLAT:$SG11177
	mov	QWORD PTR tv310[rsp], rax
$LN38@CreateCons:
	mov	rax, QWORD PTR sym$[rsp]
	movzx	eax, BYTE PTR [rax+40]
	shr	al, 6
	and	al, 1
	movzx	eax, al
	mov	rcx, QWORD PTR sym$[rsp]
	movzx	ecx, BYTE PTR [rcx+41]
	shr	cl, 3
	and	cl, 1
	movzx	ecx, cl
	mov	rdx, QWORD PTR sym$[rsp]
	movsxd	rdx, DWORD PTR [rdx+16]
	mov	r8, QWORD PTR sym$[rsp]
	movsxd	r8, DWORD PTR [r8+56]
	shl	r8, 32					; 00000020H
	add	rdx, r8
	mov	r8, QWORD PTR tv310[rsp]
	mov	QWORD PTR [rsp+48], r8
	mov	DWORD PTR [rsp+40], eax
	mov	DWORD PTR [rsp+32], ecx
	mov	r9, rdx
	mov	rax, QWORD PTR sym$[rsp]
	mov	r8d, DWORD PTR [rax+36]
	mov	rdx, QWORD PTR name$[rsp]
	lea	rcx, OFFSET FLAT:$SG11178
	call	DoDebugMsg1

; 492  :             name, sym->mem_type, (uint_64)sym->value + ( (uint_64)sym->value3264 << 32), sym->isproc, sym->variable, sym->type ? sym->type->name : "NULL" ));
; 493  :         return( sym );

	mov	rax, QWORD PTR sym$[rsp]
	jmp	SHORT $LN1@CreateCons
$LN19@CreateCons:

; 494  :     }
; 495  :     DebugMsg1(("CreateConstant(%s): calling SetTextMacro() [MI.Ofssize=%u]\n", name, ModuleInfo.Ofssize ));

	movzx	eax, BYTE PTR ModuleInfo+404
	mov	r8d, eax
	mov	rdx, QWORD PTR name$[rsp]
	lea	rcx, OFFSET FLAT:$SG11179
	call	DoDebugMsg1

; 496  :     return ( SetTextMacro( tokenarray, sym, name, argbuffer ) );

	lea	r9, QWORD PTR argbuffer$[rsp]
	mov	r8, QWORD PTR name$[rsp]
	mov	rdx, QWORD PTR sym$[rsp]
	mov	rcx, QWORD PTR tokenarray$[rsp]
	call	SetTextMacro
$LN1@CreateCons:

; 497  : }

	mov	rdi, rax
	mov	rcx, rsp
	lea	rdx, OFFSET FLAT:CreateConstant$rtcFrameData
	call	_RTC_CheckStackVars
	mov	rax, rdi
	mov	rcx, QWORD PTR __$ArrayPad$[rsp]
	xor	rcx, rsp
	call	__security_check_cookie
	add	rsp, 944				; 000003b0H
	pop	rdi
	ret	0
CreateConstant ENDP
_TEXT	ENDS
END
