; Listing generated by Microsoft (R) Optimizing Compiler Version 19.00.23026.0 

include listing.inc

INCLUDELIB MSVCRTD
INCLUDELIB OLDNAMES

_BSS	SEGMENT
$SG12345 DB	01H DUP (?)
	ALIGN	4

$SG11681 DB	01H DUP (?)
_BSS	ENDS
_DATA	SEGMENT
COMM	decoflags:BYTE
COMM	broadflags:BYTE
_DATA	ENDS
_BSS	SEGMENT
	ALIGN	4

$SG11869 DB	01H DUP (?)
	ALIGN	4

$SG11890 DB	01H DUP (?)
	ALIGN	4

$SG11891 DB	01H DUP (?)
	ALIGN	4

$SG11903 DB	01H DUP (?)
	ALIGN	4

$SG11904 DB	01H DUP (?)
	ALIGN	4

evallvl	DD	01H DUP (?)
$SG11170 DB	01H DUP (?)
_BSS	ENDS
CONST	SEGMENT
unaryop	DQ	FLAT:low_op
	DQ	FLAT:high_op
	DQ	FLAT:lowword_op
	DQ	FLAT:highword_op
	DQ	FLAT:low32_op
	DQ	FLAT:high32_op
	DQ	FLAT:offset_op
	DQ	FLAT:offset_op
	DQ	FLAT:offset_op
	DQ	FLAT:offset_op
	DQ	FLAT:seg_op
	DQ	FLAT:opattr_op
	DQ	FLAT:opattr_op
	DQ	FLAT:sizlen_op
	DQ	FLAT:sizlen_op
	DQ	FLAT:sizlen_op
	DQ	FLAT:sizlen_op
	DQ	FLAT:short_op
	DQ	FLAT:this_op
	DQ	FLAT:type_op
	DQ	FLAT:wimask_op
	DQ	FLAT:wimask_op
CONST	ENDS
_DATA	SEGMENT
$SG12299 DB	'NULL', 00H
	ORG $+11
$SG12300 DB	'%u evaluate(i=%d, end=%d, flags=%X) enter [opnd1: kind=%'
	DB	'd type=%s]', 0aH, 00H
$SG12302 DB	'NULL', 00H
	ORG $+3
$SG11089 DB	'rn-sae', 00H
	ORG $+1
$SG11101 DB	'sae', 00H
$SG12303 DB	'%u evaluate loop, operator=>%s< opnd1->sym=%X, type=%s', 0aH
	DB	00H
$SG12311 DB	'%u evaluate: unexpected token at idx=%u, token=%X >%s<', 0aH
	DB	00H
$SG12321 DB	'%u evaluate: error, missing ''%c'', i=%u', 0aH, 00H
$SG12333 DB	'%u evaluate: unexpected token at %u, token=%X >%s<', 0aH
	DB	00H
$SG12341 DB	'NULL', 00H
	ORG $+3
$SG12342 DB	'NULL', 00H
	ORG $+3
$SG12344 DB	'NULL', 00H
	ORG $+7
$SG12343 DB	'%u evaluate exit, rc=%d, kind=%d value=%I64d(0x%I64X) me'
	DB	'mtype=%Xh string=%s indirect=%u type=>%s<', 0aH, 00H
	ORG $+1
$SG12346 DB	'NULL', 00H
	ORG $+7
$SG12347 DB	'%u evaluate exit, rc=%d, kind=%d value=%d(0x%X) memtype='
	DB	'%Xh string=%s ind=%u exp=%u ofssiz=%d instr=%s type=>%s<', 0aH
	DB	00H
	ORG $+2
$SG11358 DB	'NULL', 00H
	ORG $+3
$SG11092 DB	'rd-sae', 00H
	ORG $+1
$SG11176 DB	'@@', 00H
	ORG $+1
$SG11359 DB	'sizlen_op(%s): sym=%X, mbr=%X, type=>%s<', 0aH, 00H
	ORG $+2
$SG11095 DB	'ru-sae', 00H
	ORG $+5
$SG12384 DB	'EvalOperand(start=%u, end=%u, flags=%X) enter: >%s<', 0aH
	DB	00H
	ORG $+3
$SG11394 DB	'NULL', 00H
	ORG $+3
$SG11395 DB	'sizlen_op(SIZE): result=%u [symbol %s, first_size=%u]', 0aH
	DB	00H
	ORG $+1
$SG11399 DB	'sizlen_op(sizeof): symbol %s, state=%u, size=%u', 0aH, 00H
	ORG $+7
$SG11402 DB	'sizlen_op(sizeof): symbol %s (TYPE), opnd2.value=%u', 0aH
	DB	00H
	ORG $+3
$SG11403 DB	'sizlen_op(sizeof): symbol NULL, opnd2.value=%u', 0aH, 00H
$SG11428 DB	'NULL', 00H
	ORG $+3
$SG11429 DB	'NULL', 00H
	ORG $+3
$SG11448 DB	'type_op: assume type=%X [name=>%s< memtype=%X]', 0aH, 00H
$SG11469 DB	'NULL', 00H
	ORG $+3
$SG11430 DB	'type_op: opnd2 kind=%d memtype=%X sym=%s type=%s instr=%'
	DB	'd istype=%u explicit=%u', 0aH, 00H
	ORG $+7
$SG11470 DB	'type_op: result value=%u is_type=%u type=%s', 0aH, 00H
	ORG $+3
$SG11496 DB	'NULL', 00H
	ORG $+3
$SG11497 DB	'opattr_op: arg kind=%d memtype=%X sym=%s', 0aH, 00H
	ORG $+6
$SG11527 DB	'opattr_op returns %Xh', 0aH, 00H
	ORG $+1
$SG11682 DB	'NULL', 00H
	ORG $+3
$SG11683 DB	'this_op: memtype=%Xh type=%s', 0aH, 00H
	ORG $+2
$SG11736 DB	'NULL', 00H
	ORG $+3
$SG11737 DB	'NULL', 00H
	ORG $+3
$SG11738 DB	'NULL', 00H
	ORG $+3
$SG11739 DB	'NULL', 00H
	ORG $+3
$SG11740 DB	'NULL', 00H
	ORG $+3
$SG11741 DB	'NULL', 00H
	ORG $+3
$SG11742 DB	'plus_op: kind=%d/%d memtype=%Xh-%Xh value=%d-%d sym=%s-%'
	DB	's mbr=%s-%s type=%s-%s', 0aH, 00H
$SG11744 DB	'plus_op: error direct register', 0aH, 00H
$SG11750 DB	'plus_op: multiple overrides', 0aH, 00H
	ORG $+3
$SG11753 DB	'plus_op: CONST - CONST', 0aH, 00H
$SG11756 DB	'plus_op: ADDR - ADDR', 0aH, 00H
	ORG $+2
$SG11760 DB	'plus_op: two relocatable labels: %s - %s ', 0aH, 00H
	ORG $+5
$SG11768 DB	'plus_op: CONST - ADDR', 0aH, 00H
	ORG $+1
$SG11774 DB	'plus_op: ADDR - CONST', 0aH, 00H
	ORG $+1
$SG11778 DB	'plus_op: error, unexpected format: %u - %u', 0aH, 00H
	ORG $+4
$SG11792 DB	'minus_op: kind tok1=%u, tok2=%u', 0aH, 00H
	ORG $+7
$SG11794 DB	'minus_op: error direct register', 0aH, 00H
	ORG $+7
$SG11799 DB	'minus_op: CONST-CONST', 0aH, 00H
	ORG $+1
$SG11802 DB	'minus_op: ADDR-CONST', 0aH, 00H
	ORG $+2
$SG11805 DB	'minus_op: ADDR-ADDR', 0aH, 00H
	ORG $+3
$SG11807 DB	'minus_op error, opnd2->indirect==TRUE', 0aH, 00H
	ORG $+1
$SG11812 DB	'minus_op error, label_tok=%X opnd1.sym=%X opnd2.sym=%X', 0aH
	DB	00H
$SG11816 DB	'minus_op error 6', 0aH, 00H
	ORG $+6
$SG11818 DB	'minus_op error, sym.segm=%X opnd1->sym.segm=%X', 0aH, 00H
$SG11826 DB	'minus_op, exit, ADDR, base=%X, idx=%X', 0aH, 00H
	ORG $+1
$SG11829 DB	'minus_op, exit, error: kinds tok1=%u, tok2=%u', 0aH, 00H
	ORG $+1
$SG11855 DB	'NULL', 00H
	ORG $+3
$SG11856 DB	'NULL', 00H
	ORG $+3
$SG11857 DB	'NULL', 00H
	ORG $+3
$SG11858 DB	'NULL', 00H
	ORG $+3
$SG11859 DB	'NULL', 00H
	ORG $+3
$SG11860 DB	'NULL', 00H
	ORG $+3
$SG11861 DB	'dot_op: op1-op2 kind=%d/%d sym=%s-%s type=%s-%s mbr=%s-%'
	DB	's', 0aH, 00H
	ORG $+5
$SG11863 DB	'dot_op: error direct register', 0aH, 00H
	ORG $+1
$SG11867 DB	'dot_op: forward reference %s, replaced by null struct ty'
	DB	'pe', 0aH, 00H
$SG11872 DB	'NULL', 00H
	ORG $+3
$SG11873 DB	'NULL', 00H
	ORG $+7
$SG11874 DB	'dot_op, ADDR - ADDR, t1-t2 memtype=%X-%X sym=%s-%s', 0aH
	DB	00H
	ORG $+4
$SG11876 DB	'dot_op: error, mbr 2 is NULL', 0aH, 00H
	ORG $+2
$SG11880 DB	'dot_op: error, two relocatable labels: %s - %s ', 0aH, 00H
	ORG $+7
$SG11886 DB	'dot_op, CONST - ADDR: t1-t2 memtype=%Xh-%Xh istype=%u-%u'
	DB	0aH, 00H
	ORG $+6
$SG11892 DB	'dot_op, CONST - ADDR, t1.type=%X (%s), t2.type=%X (%s)', 0aH
	DB	00H
$SG11896 DB	'dot_op, ADDR - CONST: t1-t2 memtype=%Xh-%Xh t1.explicit='
	DB	'%u', 0aH, 00H
	ORG $+4
$SG11899 DB	'dot_op: error, constant or simple type after dot', 0aH, 00H
	ORG $+6
$SG11905 DB	'dot_op, ADDR - CONST, t1.type=%X (%s), t2.type=%X (%s)', 0aH
	DB	00H
$SG11908 DB	'dot_op, CONST - CONST, t1-t2 value=%u-%u, memtype=%Xh-%X'
	DB	'h istype=%u-%u', 0aH, 00H
$SG11910 DB	'dot_op: error, opnd2.mbr=NULL', 0aH, 00H
	ORG $+1
$SG11933 DB	'NULL', 00H
	ORG $+3
$SG11917 DB	'dot_op: error, unknown kind combination, opnd1->kind=%d,'
	DB	' opnd2->kind=%d', 0aH, 00H
	ORG $+3
$SG11934 DB	'NULL', 00H
	ORG $+7
$SG11935 DB	'colon_op: t1-t2 kind=%d/%d type=%s-%s is_type=%u-%u', 0aH
	DB	00H
	ORG $+3
$SG11940 DB	'colon_op: multiple override=%s', 0aH, 00H
$SG11943 DB	'colon_op: register after : not enclosed in []', 0aH, 00H
	ORG $+1
$SG11948 DB	'colon_op: register before '':'' has idx_reg set!?', 0aH, 00H
	ORG $+7
$SG11961 DB	'colon_op error 4', 0aH, 00H
	ORG $+6
$SG11962 DB	'colon_op error 5', 0aH, 00H
	ORG $+6
$SG11969 DB	'positive_op: value=%I64X high=%I64X', 0aH, 00H
	ORG $+3
$SG11974 DB	'positive_op: error 1', 0aH, 00H
	ORG $+2
$SG11981 DB	'negative_op: value=%I64X high=%I64X', 0aH, 00H
	ORG $+3
$SG11987 DB	'negative_op: unexpected opnd2.kind=%d', 0aH, 00H
	ORG $+1
$SG11997 DB	'CheckAssume(%s, MT_PTR type=>%s< )', 0aH, 00H
$SG12002 DB	'NULL', 00H
	ORG $+3
$SG12003 DB	'NULL', 00H
	ORG $+3
$SG12004 DB	'NULL', 00H
	ORG $+3
$SG12005 DB	'NULL', 00H
	ORG $+7
$SG12006 DB	'CheckAssume(%s, type=>%s<, mbr=>%s<): assume=%s [memtype'
	DB	'=%X isptr=%u type=%s target_type=%s ptr_memt=%X]', 0aH, 00H
	ORG $+6
$SG10984 DB	'get_precedence: unexpected operator=%s', 0aH, 00H
$SG12035 DB	'expreval.c', 00H
	ORG $+5
$SG12037 DB	'cmp_types: memtype=%X-%X type=%X-%X', 0aH, 00H
	ORG $+3
$SG12036 DB	'cmp_types: MT_PTR-MT_PTR is_ptr=%u-%u ptr_memtype=%X-%X '
	DB	'target_type=%X-%X', 0aH, 00H
	ORG $+5
$SG12074 DB	'%u calculate(%s): value too large', 0aH, 00H
	ORG $+5
$SG12079 DB	'%u calculate(%s): single item', 0aH, 00H
	ORG $+1
$SG12083 DB	'calculate(%s): incompatible usage of (simple) type', 0aH
	DB	00H
	ORG $+4
$SG12088 DB	'%u calculate(%s): single item', 0aH, 00H
	ORG $+1
$SG12090 DB	'calculate(%s): incompatible usage of (simple) type', 0aH
	DB	00H
	ORG $+4
$SG12092 DB	'calculate(%s): calling plus_op()', 0aH, 00H
	ORG $+6
$SG12105 DB	'calculate(*): kind=%d/%d value=%I64d-%I64d mbr=%X-%X', 0aH
	DB	00H
	ORG $+2
$SG11081 DB	'%u get_operand(idx=%u >%s<) enter [memtype=%Xh]', 0aH, 00H
	ORG $+7
$SG11083 DB	'%u get_operand: T_NUM, %s, base=%u, len=%u', 0aH, 00H
	ORG $+4
$SG11085 DB	'%u get_operand: T_STRING, %s, size=%u', 0aH, 00H
	ORG $+1
$SG12111 DB	'calculate(*) error direct register', 0aH, 00H
	ORG $+4
$SG12115 DB	'calculate(*) error 2', 0aH, 00H
	ORG $+2
$SG12117 DB	'calculate(/): t1-t2 kind %u-%u values %I64d-%I64d', 0aH, 00H
	ORG $+5
$SG12119 DB	'calculate(/) error 1', 0aH, 00H
	ORG $+2
$SG12121 DB	'calculate(/) error 2', 0aH, 00H
	ORG $+2
$SG11098 DB	'rz-sae', 00H
	ORG $+1
$SG12123 DB	'NULL', 00H
	ORG $+3
$SG12124 DB	'NULL', 00H
	ORG $+3
$SG12125 DB	'NULL', 00H
	ORG $+3
$SG12126 DB	'NULL', 00H
	ORG $+3
$SG11107 DB	'%u get_operand: T_REG, string=%s, tokval=%u, regno=%u', 0aH
	DB	00H
	ORG $+1
$SG12127 DB	'calculate(%s [T_BINARY_OPERATOR] ): t1-t2 kind %d/%d mem'
	DB	'type %X-%X sym %s-%s type %s-%s', 0aH, 00H
	ORG $+7
$SG12132 DB	'calculate(PTR), error 1: t1 is_type == FALSE', 0aH, 00H
	ORG $+2
$SG12139 DB	'calculate(PTR): segment register size (=2/4) doesn''t ma'
	DB	'tch type size (=%u)', 0aH, 00H
	ORG $+4
$SG12141 DB	'calculate(PTR): register size doesn''t match type size; '
	DB	'%u != %u', 0aH, 00H
	ORG $+3
$SG11125 DB	'NULL', 00H
	ORG $+7
$SG12144 DB	'calculate(PTR): type memtype=%Xh ( MT_FLOAT not set, alt'
	DB	'hough right op is FLOAT )', 0aH, 00H
	ORG $+5
$SG11126 DB	'%u get_operand: T_ID, is_dot=1, id=%s, opnd.type=%s', 0aH
	DB	00H
	ORG $+3
$SG11127 DB	'NULL', 00H
	ORG $+3
$SG11128 DB	'get_operand(%s): is_dot, sym=%s, offset=%Xh', 0aH, 00H
	ORG $+3
$SG12157 DB	'calculate(%s) error 1', 0aH, 00H
	ORG $+1
$SG12158 DB	'NULL', 00H
	ORG $+3
$SG12159 DB	'calculate(%s) error 2, token2.kind=%d indirect=%u sym=%s'
	DB	0aH, 00H
	ORG $+6
$SG12160 DB	'calculate(%s) error 3', 0aH, 00H
	ORG $+1
$SG12161 DB	'calculate(%s) error 4', 0aH, 00H
	ORG $+1
$SG11155 DB	'get_operand(%s): symbol is macro/textmacro/alias!', 0aH, 00H
	ORG $+5
$SG12162 DB	'calculate(%s): values=%I64d/%I64d is_type=%u/%u memtypes'
	DB	'=%X/%X', 0aH, 00H
$SG11140 DB	'%u get_operand: T_ID, id=%s', 0aH, 00H
	ORG $+3
$SG11152 DB	'get_operand(%s): OPATTR, symbol invalid', 0aH, 00H
	ORG $+7
$SG12177 DB	'calculate(SHL): value=%I64X << %u (max=%u)', 0aH, 00H
$SG11161 DB	'NULL', 00H
	ORG $+7
$SG11162 DB	'get_operand(%s): symbol not (yet) defined, CurrProc=%s', 0aH
	DB	00H
$SG11165 DB	'NULL', 00H
	ORG $+3
$SG11166 DB	'get_operand(%s): symbol error (type=%s typekind=%u)', 0aH
	DB	00H
	ORG $+3
$SG12192 DB	'NULL', 00H
	ORG $+3
$SG12193 DB	'NULL', 00H
	ORG $+3
$SG12194 DB	'NULL', 00H
	ORG $+3
$SG11172 DB	'NULL', 00H
	ORG $+3
$SG12195 DB	'calculate(%s [T_UNARY_OPERATOR]): opnd2 kind=%d sym=%s m'
	DB	'br=%s type=%s memtype=%X is_type=%u indirect=%u', 0aH, 00H
	ORG $+7
$SG11171 DB	'get_operand(%s): forward reference to a struct (using nu'
	DB	'llmbr)', 0aH, 00H
$SG11173 DB	'get_operand(%s): symbol %s not defined, pass > 1, curr p'
	DB	'roc=>%s<, ', 0aH, 00H
	ORG $+4
$SG12198 DB	'calculate(%s) error 1', 0aH, 00H
	ORG $+1
$SG11178 DB	'NULL', 00H
	ORG $+3
$SG11182 DB	'get_operand(%s): struct/union definition isn''t closed!', 0aH
	DB	00H
$SG11179 DB	'get_operand(%s): sym->state=%u type=>%s< ofs=%X memtype='
	DB	'%Xh total_size=%u defined=%u', 0aH, 00H
	ORG $+2
$SG11192 DB	'NULL', 00H
	ORG $+3
$SG11183 DB	'get_operand(%s): symbol.typekind=%u (STRUCT/UNION/TYPEDE'
	DB	'F/RECORD)', 0aH, 00H
	ORG $+5
$SG11191 DB	'get_operand(%s): structure field, ofs=%Xh', 0aH, 00H
	ORG $+5
$SG11193 DB	'get_operand: mem_type=%Xh type=%s', 0aH, 00H
	ORG $+5
$SG11198 DB	'get_operand(%s): equate hval=%Xh, lval=%Xh', 0aH, 00H
	ORG $+4
$SG12226 DB	'calculate %s ''float'' error', 0aH, 00H
	ORG $+4
$SG12229 DB	'calculate(%s): unknown operator', 0aH, 00H
	ORG $+7
$SG11206 DB	'%u get_operand: T_STYPE (>%s<, value=%X)', 0aH, 00H
	ORG $+2
$SG12232 DB	'NULL', 00H
	ORG $+7
$SG11208 DB	'%u get_operand: T_RES_ID (>%s<, value=%X)', 0aH, 00H
	ORG $+5
$SG12233 DB	'%u calculate(%s) exit, ok kind=%d value=0x%I64X_%016I64X'
	DB	' memtype=0x%X indirect=%u type=>%s<', 0aH, 00H
	ORG $+3
$SG12236 DB	'NULL', 00H
	ORG $+3
$SG12238 DB	'NULL', 00H
	ORG $+3
$SG12237 DB	'%u calculate(%s) exit, ok kind=%d value=%I64d(0x%I64X) m'
	DB	'emtype=0x%X indirect=%u type=>%s<', 0aH, 00H
	ORG $+1
$SG12239 DB	'NULL', 00H
	ORG $+7
$SG11215 DB	'%u get_operand: T_FLOAT (>%s<)', 0aH, 00H
$SG11227 DB	'NULL', 00H
	ORG $+3
$SG12240 DB	'%u calculate(%s) exit, ok kind=%d value=%d(0x%X) memtype'
	DB	'=0x%X ind=%u exp=%u type=%s mbr=%s', 0aH, 00H
	ORG $+4
$SG11217 DB	'%u get_operand: default (token=%u, string=%s)', 0aH, 00H
	ORG $+1
$SG11228 DB	'NULL', 00H
	ORG $+3
$SG11229 DB	'NULL', 00H
	ORG $+3
$SG11230 DB	'NULL', 00H
	ORG $+3
$SG12255 DB	'NULL', 00H
	ORG $+3
$SG11231 DB	'%u get_operand exit, ok, kind=%d value=%I64X hvalue=%I64'
	DB	'X mem_type=%Xh abs=%u string=%s is_type=%u type=>%s< sym=%s m'
	DB	'br=%s', 0aH, 00H
	ORG $+4
$SG12256 DB	'PrepareOp: DOT operator found, old.sym=%X, old.type=%s, '
	DB	'expr=%s', 0aH, 00H
	ORG $+7
$SG12259 DB	'PrepareOp: implicit type: %s', 0aH, 00H
	ORG $+2
$SG12261 DB	'PrepareOp: forward ref to %s, type will be NULL', 0aH, 00H
	ORG $+3
$SG12264 DB	'NULL', 00H
	ORG $+15
$SG12265 DB	'PrepareOp: OPATTR operator found, old.sym=%X, old.type=%'
	DB	's, expr=%s', 0aH, 00H
_DATA	ENDS
PUBLIC	EvalOperand
PUBLIC	ExprEvalInit
PUBLIC	EmitConstError
PUBLIC	myatoi128
EXTRN	__imp_isalpha:PROC
EXTRN	memcmp:PROC
EXTRN	memcpy:PROC
EXTRN	strlen:PROC
EXTRN	__imp__strupr:PROC
EXTRN	DoDebugMsg:PROC
EXTRN	DoDebugMsg1:PROC
EXTRN	EmitErr:PROC
EXTRN	SymAlloc:PROC
EXTRN	SymLookup:PROC
EXTRN	SymFind:PROC
EXTRN	SizeFromMemtype:PROC
EXTRN	MemtypeFromSize:PROC
EXTRN	SizeFromRegister:PROC
EXTRN	sym_add_table:PROC
EXTRN	GetResWName:PROC
EXTRN	SetSymSegOfs:PROC
EXTRN	GetSymOfssize:PROC
EXTRN	DefineFlatGroup:PROC
EXTRN	GetStdAssumeEx:PROC
EXTRN	CreateTypeSymbol:PROC
EXTRN	SearchNameInStruct:PROC
EXTRN	GetAnonymousLabel:PROC
EXTRN	atofloat:PROC
EXTRN	InternalError:PROC
EXTRN	_RTC_CheckStackVars:PROC
EXTRN	_RTC_InitBase:PROC
EXTRN	_RTC_Shutdown:PROC
EXTRN	__GSHandlerCheck:PROC
EXTRN	__security_check_cookie:PROC
EXTRN	Options:BYTE
EXTRN	ModuleInfo:BYTE
EXTRN	Parse_Pass:DWORD
EXTRN	SymTables:BYTE
EXTRN	SpecialTable:BYTE
EXTRN	CurrProc:QWORD
EXTRN	CurrStruct:QWORD
EXTRN	__ImageBase:BYTE
EXTRN	__security_cookie:QWORD
_BSS	SEGMENT
	ALIGN	8

thissym	DQ	01H DUP (?)
nullstruct DQ	01H DUP (?)
nullmbr	DQ	01H DUP (?)
fnEmitErr DQ	01H DUP (?)
_BSS	ENDS
pdata	SEGMENT
$pdata$EvalOperand DD imagerel $LN9
	DD	imagerel $LN9+291
	DD	imagerel $unwind$EvalOperand
$pdata$ExprEvalInit DD imagerel $LN3
	DD	imagerel $LN3+37
	DD	imagerel $unwind$ExprEvalInit
$pdata$EmitConstError DD imagerel $LN5
	DD	imagerel $LN5+100
	DD	imagerel $unwind$EmitConstError
$pdata$noEmitErr DD imagerel noEmitErr
	DD	imagerel noEmitErr+27
	DD	imagerel $unwind$noEmitErr
$pdata$init_expr DD imagerel init_expr
	DD	imagerel init_expr+211
	DD	imagerel $unwind$init_expr
$pdata$TokenAssign DD imagerel TokenAssign
	DD	imagerel TokenAssign+62
	DD	imagerel $unwind$TokenAssign
$pdata$get_precedence DD imagerel get_precedence
	DD	imagerel get_precedence+376
	DD	imagerel $unwind$get_precedence
$pdata$GetTypeSize DD imagerel GetTypeSize
	DD	imagerel GetTypeSize+201
	DD	imagerel $unwind$GetTypeSize
$pdata$GetRecordMask DD imagerel GetRecordMask
	DD	imagerel GetRecordMask+187
	DD	imagerel $unwind$GetRecordMask
$pdata$myatoi128 DD imagerel $LN11
	DD	imagerel $LN11+297
	DD	imagerel $unwind$myatoi128
$pdata$get_operand DD imagerel get_operand
	DD	imagerel get_operand+7236
	DD	imagerel $unwind$get_operand
$pdata$check_both DD imagerel check_both
	DD	imagerel check_both+89
	DD	imagerel $unwind$check_both
$pdata$index_connect DD imagerel index_connect
	DD	imagerel index_connect+304
	DD	imagerel $unwind$index_connect
$pdata$MakeConst DD imagerel MakeConst
	DD	imagerel MakeConst+279
	DD	imagerel $unwind$MakeConst
$pdata$MakeConst2 DD imagerel MakeConst2
	DD	imagerel MakeConst2+255
	DD	imagerel $unwind$MakeConst2
$pdata$ConstError DD imagerel ConstError
	DD	imagerel ConstError+114
	DD	imagerel $unwind$ConstError
$pdata$fix_struct_value DD imagerel fix_struct_value
	DD	imagerel fix_struct_value+76
	DD	imagerel $unwind$fix_struct_value
$pdata$check_direct_reg DD imagerel check_direct_reg
	DD	imagerel check_direct_reg+74
	DD	imagerel $unwind$check_direct_reg
$pdata$GetSizeValue DD imagerel GetSizeValue
	DD	imagerel GetSizeValue+153
	DD	imagerel $unwind$GetSizeValue
$pdata$IsOffset DD imagerel IsOffset
	DD	imagerel IsOffset+87
	DD	imagerel $unwind$IsOffset
$pdata$invalid_operand DD imagerel invalid_operand
	DD	imagerel invalid_operand+99
	DD	imagerel $unwind$invalid_operand
$pdata$sizlen_op DD imagerel sizlen_op
	DD	imagerel sizlen_op+1446
	DD	imagerel $unwind$sizlen_op
$pdata$type_op DD imagerel type_op
	DD	imagerel type_op+2252
	DD	imagerel $unwind$type_op
$pdata$opattr_op DD imagerel opattr_op
	DD	imagerel opattr_op+1216
	DD	imagerel $unwind$opattr_op
$pdata$short_op DD imagerel short_op
	DD	imagerel short_op+144
	DD	imagerel $unwind$short_op
$pdata$seg_op DD imagerel seg_op
	DD	imagerel seg_op+171
	DD	imagerel $unwind$seg_op
$pdata$offset_op DD imagerel offset_op
	DD	imagerel offset_op+272
	DD	imagerel $unwind$offset_op
$pdata$lowword_op DD imagerel lowword_op
	DD	imagerel lowword_op+137
	DD	imagerel $unwind$lowword_op
$pdata$highword_op DD imagerel highword_op
	DD	imagerel highword_op+132
	DD	imagerel $unwind$highword_op
$pdata$low_op DD imagerel low_op
	DD	imagerel low_op+137
	DD	imagerel $unwind$low_op
$pdata$high_op DD imagerel high_op
	DD	imagerel high_op+154
	DD	imagerel $unwind$high_op
$pdata$low32_op DD imagerel low32_op
	DD	imagerel low32_op+287
	DD	imagerel $unwind$low32_op
$pdata$high32_op DD imagerel high32_op
	DD	imagerel high32_op+283
	DD	imagerel $unwind$high32_op
$pdata$this_op DD imagerel this_op
	DD	imagerel this_op+395
	DD	imagerel $unwind$this_op
$pdata$wimask_op DD imagerel wimask_op
	DD	imagerel wimask_op+438
	DD	imagerel $unwind$wimask_op
$pdata$plus_op DD imagerel plus_op
	DD	imagerel plus_op+1904
	DD	imagerel $unwind$plus_op
$pdata$minus_op DD imagerel minus_op
	DD	imagerel minus_op+1319
	DD	imagerel $unwind$minus_op
$pdata$struct_field_error DD imagerel struct_field_error
	DD	imagerel struct_field_error+81
	DD	imagerel $unwind$struct_field_error
$pdata$dot_op DD imagerel dot_op
	DD	imagerel dot_op+3230
	DD	imagerel $unwind$dot_op
$pdata$colon_op DD imagerel colon_op
	DD	imagerel colon_op+1386
	DD	imagerel $unwind$colon_op
$pdata$positive_op DD imagerel positive_op
	DD	imagerel positive_op+252
	DD	imagerel $unwind$positive_op
$pdata$negative_op DD imagerel negative_op
	DD	imagerel negative_op+345
	DD	imagerel $unwind$negative_op
$pdata$CheckAssume DD imagerel CheckAssume
	DD	imagerel CheckAssume+835
	DD	imagerel $unwind$CheckAssume
$pdata$check_streg DD imagerel check_streg
	DD	imagerel check_streg+126
	DD	imagerel $unwind$check_streg
$pdata$cmp_types DD imagerel cmp_types
	DD	imagerel cmp_types+837
	DD	imagerel $unwind$cmp_types
$pdata$calculate DD imagerel calculate
	DD	imagerel calculate+7288
	DD	imagerel $unwind$calculate
$pdata$PrepareOp DD imagerel PrepareOp
	DD	imagerel PrepareOp+552
	DD	imagerel $unwind$PrepareOp
$pdata$OperErr DD imagerel OperErr
	DD	imagerel OperErr+105
	DD	imagerel $unwind$OperErr
$pdata$evaluate DD imagerel evaluate
	DD	imagerel evaluate+3461
	DD	imagerel $unwind$evaluate
$pdata$is_expr_item DD imagerel is_expr_item
	DD	imagerel is_expr_item+460
	DD	imagerel $unwind$is_expr_item
pdata	ENDS
;	COMDAT rtc$TMZ
rtc$TMZ	SEGMENT
_RTC_Shutdown.rtc$TMZ DQ FLAT:_RTC_Shutdown
rtc$TMZ	ENDS
;	COMDAT rtc$IMZ
rtc$IMZ	SEGMENT
_RTC_InitBase.rtc$IMZ DQ FLAT:_RTC_InitBase
rtc$IMZ	ENDS
CONST	SEGMENT
get_operand$rtcName$0 DB 06cH
	DB	061H
	DB	062H
	DB	065H
	DB	06cH
	DB	062H
	DB	075H
	DB	066H
	DB	066H
	DB	00H
	ORG $+6
get_operand$rtcVarDesc DD 088H
	DD	010H
	DQ	FLAT:get_operand$rtcName$0
	ORG $+48
get_operand$rtcFrameData DD 01H
	DD	00H
	DQ	FLAT:get_operand$rtcVarDesc
evaluate$rtcName$0 DB 06fH
	DB	070H
	DB	06eH
	DB	064H
	DB	032H
	DB	00H
	ORG $+2
evaluate$rtcFrameData DD 01H
	DD	00H
	DQ	FLAT:evaluate$rtcVarDesc
	ORG $+8
evaluate$rtcVarDesc DD 0a0H
	DD	068H
	DQ	FLAT:evaluate$rtcName$0
CONST	ENDS
xdata	SEGMENT
$unwind$EvalOperand DD 022d01H
	DD	070157219H
$unwind$ExprEvalInit DD 010201H
	DD	07002H
$unwind$EmitConstError DD 021e01H
	DD	07006320aH
$unwind$noEmitErr DD 011401H
	DD	07014H
$unwind$init_expr DD 010601H
	DD	07006H
$unwind$TokenAssign DD 022301H
	DD	0700b320fH
$unwind$get_precedence DD 021e01H
	DD	07006520aH
$unwind$GetTypeSize DD 022001H
	DD	07009120dH
$unwind$GetRecordMask DD 021e01H
	DD	07006520aH
$unwind$myatoi128 DD 022d01H
	DD	070153219H
$unwind$get_operand DD 034519H
	DD	02c011cH
	DD	07015H
	DD	imagerel __GSHandlerCheck
	DD	0158H
$unwind$check_both DD 011501H
	DD	07015H
$unwind$index_connect DD 022301H
	DD	0700b320fH
$unwind$MakeConst DD 010601H
	DD	07006H
$unwind$MakeConst2 DD 022301H
	DD	0700b320fH
$unwind$ConstError DD 022301H
	DD	0700b320fH
$unwind$fix_struct_value DD 010601H
	DD	07006H
$unwind$check_direct_reg DD 010b01H
	DD	0700bH
$unwind$GetSizeValue DD 021e01H
	DD	07006520aH
$unwind$IsOffset DD 010601H
	DD	07006H
$unwind$invalid_operand DD 022801H
	DD	070103214H
$unwind$sizlen_op DD 022b01H
	DD	07014b218H
$unwind$type_op DD 022e01H
	DD	07014d218H
$unwind$opattr_op DD 022b01H
	DD	070145218H
$unwind$short_op DD 022b01H
	DD	070143218H
$unwind$seg_op DD 022b01H
	DD	070143218H
$unwind$offset_op DD 022b01H
	DD	070143218H
$unwind$lowword_op DD 022b01H
	DD	070143218H
$unwind$highword_op DD 022b01H
	DD	070143218H
$unwind$low_op DD 022b01H
	DD	070143218H
$unwind$high_op DD 022b01H
	DD	070143218H
$unwind$low32_op DD 022b01H
	DD	070147218H
$unwind$high32_op DD 022b01H
	DD	070147218H
$unwind$this_op DD 022b01H
	DD	070145218H
$unwind$wimask_op DD 022b01H
	DD	070147218H
$unwind$plus_op DD 032901H
	DD	0140112H
	DD	0700bH
$unwind$minus_op DD 022301H
	DD	0700b520fH
$unwind$struct_field_error DD 021e01H
	DD	07006320aH
$unwind$dot_op DD 032901H
	DD	0160112H
	DD	0700bH
$unwind$colon_op DD 022601H
	DD	0700bd20fH
$unwind$positive_op DD 022301H
	DD	0700b320fH
$unwind$negative_op DD 022301H
	DD	0700b320fH
$unwind$CheckAssume DD 032401H
	DD	012010dH
	DD	07006H
$unwind$check_streg DD 022301H
	DD	0700b320fH
$unwind$cmp_types DD 022e01H
	DD	07010f217H
$unwind$calculate DD 032e01H
	DD	0240117H
	DD	07010H
$unwind$PrepareOp DD 022801H
	DD	070107214H
$unwind$OperErr DD 022101H
	DD	0700a320eH
$unwind$evaluate DD 033301H
	DD	02e011cH
	DD	07015H
$unwind$is_expr_item DD 021e01H
	DD	07006120aH
xdata	ENDS
; Function compile flags: /Odtp /RTCsu
; File d:\hjwasm\hjwasm2.13.1s\hjwasm2.13.1s\expreval.c
_TEXT	SEGMENT
tv66 = 0
tv68 = 4
tv148 = 8
tv88 = 12
item$ = 32
is_expr_item PROC

; 3411 : {

	mov	QWORD PTR [rsp+8], rcx
	push	rdi
	sub	rsp, 16
	mov	rdi, rsp
	mov	ecx, 4
	mov	eax, -858993460				; ccccccccH
	rep stosd
	mov	rcx, QWORD PTR [rsp+32]

; 3412 :     switch( item->token ) {

	mov	rax, QWORD PTR item$[rsp]
	movzx	eax, BYTE PTR [rax]
	mov	BYTE PTR tv66[rsp], al
	cmp	BYTE PTR tv66[rsp], 1
	je	SHORT $LN6@is_expr_it
	cmp	BYTE PTR tv66[rsp], 3
	je	$LN13@is_expr_it
	cmp	BYTE PTR tv66[rsp], 7
	je	$LN11@is_expr_it
	cmp	BYTE PTR tv66[rsp], 44			; 0000002cH
	je	$LN15@is_expr_it
	jmp	$LN2@is_expr_it
$LN6@is_expr_it:

; 3413 :     case T_INSTRUCTION:
; 3414 :         switch( item->tokval ) {

	mov	rax, QWORD PTR item$[rsp]
	mov	eax, DWORD PTR [rax+16]
	mov	DWORD PTR tv68[rsp], eax
	mov	eax, DWORD PTR tv68[rsp]
	sub	eax, 501				; 000001f5H
	mov	DWORD PTR tv68[rsp], eax
	cmp	DWORD PTR tv68[rsp], 75			; 0000004bH
	ja	SHORT $LN4@is_expr_it
	mov	eax, DWORD PTR tv68[rsp]
	lea	rcx, OFFSET FLAT:__ImageBase
	movzx	eax, BYTE PTR $LN19@is_expr_it[rcx+rax]
	mov	eax, DWORD PTR $LN20@is_expr_it[rcx+rax*4]
	add	rax, rcx
	jmp	rax
$LN7@is_expr_it:

; 3415 :         case T_SHL:
; 3416 :         case T_SHR:
; 3417 :             item->token = T_BINARY_OPERATOR;

	mov	rax, QWORD PTR item$[rsp]
	mov	BYTE PTR [rax], 5

; 3418 :             item->precedence = 8;

	mov	rax, QWORD PTR item$[rsp]
	mov	BYTE PTR [rax+1], 8

; 3419 :             return( TRUE );

	mov	al, 1
	jmp	$LN1@is_expr_it
$LN8@is_expr_it:

; 3420 :         case T_NOT:
; 3421 :             item->token = T_UNARY_OPERATOR;

	mov	rax, QWORD PTR item$[rsp]
	mov	BYTE PTR [rax], 4

; 3422 :             item->precedence = 11;

	mov	rax, QWORD PTR item$[rsp]
	mov	BYTE PTR [rax+1], 11

; 3423 :             return( TRUE );

	mov	al, 1
	jmp	$LN1@is_expr_it
$LN9@is_expr_it:

; 3424 :         case T_AND:
; 3425 :             item->token = T_BINARY_OPERATOR;

	mov	rax, QWORD PTR item$[rsp]
	mov	BYTE PTR [rax], 5

; 3426 :             item->precedence = 12;

	mov	rax, QWORD PTR item$[rsp]
	mov	BYTE PTR [rax+1], 12

; 3427 :             return( TRUE );

	mov	al, 1
	jmp	$LN1@is_expr_it
$LN10@is_expr_it:

; 3428 :         case T_OR:
; 3429 :         case T_XOR:
; 3430 :             item->token = T_BINARY_OPERATOR;

	mov	rax, QWORD PTR item$[rsp]
	mov	BYTE PTR [rax], 5

; 3431 :             item->precedence = 13;

	mov	rax, QWORD PTR item$[rsp]
	mov	BYTE PTR [rax+1], 13

; 3432 :             return( TRUE );

	mov	al, 1
	jmp	SHORT $LN1@is_expr_it
$LN4@is_expr_it:

; 3433 :         }
; 3434 :         return( FALSE );

	xor	al, al
	jmp	SHORT $LN1@is_expr_it
$LN11@is_expr_it:

; 3435 :     case T_RES_ID:
; 3436 :         if ( item->tokval == T_DUP ) /* DUP must terminate the expression */

	mov	rax, QWORD PTR item$[rsp]
	cmp	DWORD PTR [rax+16], 259			; 00000103H
	jne	SHORT $LN12@is_expr_it

; 3437 :             return( FALSE );

	xor	al, al
	jmp	SHORT $LN1@is_expr_it
$LN12@is_expr_it:

; 3438 :         break;

	jmp	SHORT $LN2@is_expr_it
$LN13@is_expr_it:

; 3439 :     case T_DIRECTIVE:
; 3440 :         /* PROC is converted to a type */
; 3441 :         if ( item->tokval == T_PROC ) {

	mov	rax, QWORD PTR item$[rsp]
	cmp	DWORD PTR [rax+16], 428			; 000001acH
	jne	SHORT $LN14@is_expr_it

; 3442 :             item->token = T_STYPE;

	mov	rax, QWORD PTR item$[rsp]
	mov	BYTE PTR [rax], 6

; 3443 :             /* v2.06: avoid to use ST_PROC */
; 3444 :             //item->bytval = ST_PROC;
; 3445 :             item->tokval = ( ( SIZE_CODEPTR & ( 1 << ModuleInfo.model ) ) ? T_FAR : T_NEAR );

	mov	eax, DWORD PTR ModuleInfo+360
	mov	ecx, 1
	mov	DWORD PTR tv148[rsp], ecx
	movzx	ecx, al
	mov	eax, DWORD PTR tv148[rsp]
	shl	eax, cl
	and	eax, 112				; 00000070H
	test	eax, eax
	je	SHORT $LN17@is_expr_it
	mov	DWORD PTR tv88[rsp], 222		; 000000deH
	jmp	SHORT $LN18@is_expr_it
$LN17@is_expr_it:
	mov	DWORD PTR tv88[rsp], 221		; 000000ddH
$LN18@is_expr_it:
	mov	rax, QWORD PTR item$[rsp]
	mov	ecx, DWORD PTR tv88[rsp]
	mov	DWORD PTR [rax+16], ecx

; 3446 :             return( TRUE );

	mov	al, 1
	jmp	SHORT $LN1@is_expr_it
$LN14@is_expr_it:
$LN15@is_expr_it:

; 3447 :         }
; 3448 :         /* fall through. Other directives will end the expression */
; 3449 :     case T_COMMA:
; 3450 :     //case T_FLOAT: /* v2.05: floats are now handled */
; 3451 :     //case T_QUESTION_MARK: /* v2.08: no need to be handled here */
; 3452 :         return( FALSE );

	xor	al, al
	jmp	SHORT $LN1@is_expr_it
$LN2@is_expr_it:

; 3453 :     }
; 3454 :     return( TRUE );

	mov	al, 1
$LN1@is_expr_it:

; 3455 : }

	add	rsp, 16
	pop	rdi
	ret	0
	npad	3
$LN20@is_expr_it:
	DD	$LN10@is_expr_it
	DD	$LN9@is_expr_it
	DD	$LN7@is_expr_it
	DD	$LN8@is_expr_it
	DD	$LN4@is_expr_it
$LN19@is_expr_it:
	DB	0
	DB	4
	DB	4
	DB	1
	DB	4
	DB	0
	DB	4
	DB	4
	DB	4
	DB	4
	DB	4
	DB	4
	DB	4
	DB	2
	DB	2
	DB	4
	DB	4
	DB	4
	DB	4
	DB	4
	DB	4
	DB	4
	DB	4
	DB	4
	DB	4
	DB	4
	DB	4
	DB	4
	DB	4
	DB	4
	DB	4
	DB	4
	DB	4
	DB	4
	DB	4
	DB	4
	DB	4
	DB	4
	DB	4
	DB	4
	DB	4
	DB	4
	DB	4
	DB	4
	DB	4
	DB	4
	DB	4
	DB	4
	DB	4
	DB	4
	DB	4
	DB	4
	DB	4
	DB	4
	DB	4
	DB	4
	DB	4
	DB	4
	DB	4
	DB	4
	DB	4
	DB	4
	DB	4
	DB	4
	DB	4
	DB	4
	DB	4
	DB	4
	DB	4
	DB	4
	DB	4
	DB	4
	DB	4
	DB	4
	DB	4
	DB	3
is_expr_item ENDP
_TEXT	ENDS
; Function compile flags: /Odtp /RTCsu
; File d:\hjwasm\hjwasm2.13.1s\hjwasm2.13.1s\expreval.c
_TEXT	SEGMENT
rc$ = 112
curr_operator$4 = 128
opnd2$5 = 160
exp_token$6 = 276
tv68 = 280
tv166 = 288
tv274 = 296
tv428 = 300
tv485 = 304
tv494 = 312
tv506 = 320
tv513 = 328
tv521 = 336
tv537 = 344
tv549 = 352
opnd1$ = 384
i$ = 392
tokenarray$ = 400
end$ = 408
flags$ = 416
evaluate PROC

; 3245 : {

	mov	DWORD PTR [rsp+32], r9d
	mov	QWORD PTR [rsp+24], r8
	mov	QWORD PTR [rsp+16], rdx
	mov	QWORD PTR [rsp+8], rcx
	push	rdi
	sub	rsp, 368				; 00000170H
	mov	rdi, rsp
	mov	ecx, 92					; 0000005cH
	mov	eax, -858993460				; ccccccccH
	rep stosd
	mov	rcx, QWORD PTR [rsp+384]

; 3246 :     ret_code rc = NOT_ERROR;

	mov	DWORD PTR rc$[rsp], 0

; 3247 :     unsigned char c;
; 3248 :     char *p;
; 3249 :     DebugMsg1(("%u evaluate(i=%d, end=%d, flags=%X) enter [opnd1: kind=%d type=%s]\n",

	mov	rax, QWORD PTR opnd1$[rsp]
	cmp	QWORD PTR [rax+96], 0
	je	SHORT $LN44@evaluate
	mov	rax, QWORD PTR opnd1$[rsp]
	mov	rax, QWORD PTR [rax+96]
	mov	rax, QWORD PTR [rax+8]
	mov	QWORD PTR tv68[rsp], rax
	jmp	SHORT $LN45@evaluate
$LN44@evaluate:
	lea	rax, OFFSET FLAT:$SG12299
	mov	QWORD PTR tv68[rsp], rax
$LN45@evaluate:
	mov	eax, DWORD PTR evallvl
	inc	eax
	mov	DWORD PTR evallvl, eax
	movzx	eax, BYTE PTR flags$[rsp]
	mov	rcx, QWORD PTR tv68[rsp]
	mov	QWORD PTR [rsp+48], rcx
	mov	rcx, QWORD PTR opnd1$[rsp]
	mov	ecx, DWORD PTR [rcx+60]
	mov	DWORD PTR [rsp+40], ecx
	mov	DWORD PTR [rsp+32], eax
	mov	r9d, DWORD PTR end$[rsp]
	mov	rax, QWORD PTR i$[rsp]
	mov	r8d, DWORD PTR [rax]
	mov	edx, DWORD PTR evallvl
	lea	rcx, OFFSET FLAT:$SG12300
	call	DoDebugMsg1

; 3250 :                ++evallvl, *i, end, flags, opnd1->kind, opnd1->type ? opnd1->type->name : "NULL" ));
; 3251 : 
; 3252 :     /* v2.07: this function has been "simplified".
; 3253 :      * it's ensured now that if any operator is involved
; 3254 :      * - including () and [] - then calculate() will be called.
; 3255 :      * v2.10: removed the 'return( ERROR )' branches, to make
; 3256 :      * OPATTR work better.
; 3257 :      * v2.10: loop changed from 'do {} while' to 'while () {}'.
; 3258 :      * v2.10: 'flags' argument contains "inside []" information.
; 3259 :      */
; 3260 : 
; 3261 :     /*
; 3262 :      * First token may be either an unary operator or an operand
; 3263 :      */
; 3264 :     if ( opnd1->kind == EXPR_EMPTY &&  !is_unary_op( tokenarray[*i].token ) ) {

	mov	rax, QWORD PTR opnd1$[rsp]
	cmp	DWORD PTR [rax+60], -2
	jne	$LN8@evaluate
	mov	rax, QWORD PTR i$[rsp]
	movsxd	rax, DWORD PTR [rax]
	imul	rax, rax, 32				; 00000020H
	mov	rcx, QWORD PTR tokenarray$[rsp]
	movzx	eax, BYTE PTR [rcx+rax]
	cmp	eax, 40					; 00000028H
	je	$LN8@evaluate
	mov	rax, QWORD PTR i$[rsp]
	movsxd	rax, DWORD PTR [rax]
	imul	rax, rax, 32				; 00000020H
	mov	rcx, QWORD PTR tokenarray$[rsp]
	movzx	eax, BYTE PTR [rcx+rax]
	cmp	eax, 91					; 0000005bH
	je	$LN8@evaluate
	mov	rax, QWORD PTR i$[rsp]
	movsxd	rax, DWORD PTR [rax]
	imul	rax, rax, 32				; 00000020H
	mov	rcx, QWORD PTR tokenarray$[rsp]
	movzx	eax, BYTE PTR [rcx+rax]
	cmp	eax, 43					; 0000002bH
	je	SHORT $LN8@evaluate
	mov	rax, QWORD PTR i$[rsp]
	movsxd	rax, DWORD PTR [rax]
	imul	rax, rax, 32				; 00000020H
	mov	rcx, QWORD PTR tokenarray$[rsp]
	movzx	eax, BYTE PTR [rcx+rax]
	cmp	eax, 45					; 0000002dH
	je	SHORT $LN8@evaluate
	mov	rax, QWORD PTR i$[rsp]
	movsxd	rax, DWORD PTR [rax]
	imul	rax, rax, 32				; 00000020H
	mov	rcx, QWORD PTR tokenarray$[rsp]
	movzx	eax, BYTE PTR [rcx+rax]
	cmp	eax, 4
	je	SHORT $LN8@evaluate

; 3265 :         rc = get_operand( opnd1, i, tokenarray, flags );

	movzx	r9d, BYTE PTR flags$[rsp]
	mov	r8, QWORD PTR tokenarray$[rsp]
	mov	rdx, QWORD PTR i$[rsp]
	mov	rcx, QWORD PTR opnd1$[rsp]
	call	get_operand
	mov	DWORD PTR rc$[rsp], eax
$LN8@evaluate:
$LN2@evaluate:

; 3266 :     }
; 3267 :     /* now handle operators. */
; 3268 :     while ( rc == NOT_ERROR && *i < end && !IsCurrToken( T_CL_BRACKET ) && !IsCurrToken( T_CL_SQ_BRACKET ) ) {

	cmp	DWORD PTR rc$[rsp], 0
	jne	$LN3@evaluate
	mov	rax, QWORD PTR i$[rsp]
	mov	ecx, DWORD PTR end$[rsp]
	cmp	DWORD PTR [rax], ecx
	jge	$LN3@evaluate
	mov	rax, QWORD PTR i$[rsp]
	movsxd	rax, DWORD PTR [rax]
	imul	rax, rax, 32				; 00000020H
	mov	rcx, QWORD PTR tokenarray$[rsp]
	movzx	eax, BYTE PTR [rcx+rax]
	cmp	eax, 41					; 00000029H
	je	$LN3@evaluate
	mov	rax, QWORD PTR i$[rsp]
	movsxd	rax, DWORD PTR [rax]
	imul	rax, rax, 32				; 00000020H
	mov	rcx, QWORD PTR tokenarray$[rsp]
	movzx	eax, BYTE PTR [rcx+rax]
	cmp	eax, 93					; 0000005dH
	je	$LN3@evaluate

; 3269 : 
; 3270 :         int curr_operator;
; 3271 :         struct expr opnd2;
; 3272 : 
; 3273 :         curr_operator = *i;

	mov	rax, QWORD PTR i$[rsp]
	mov	eax, DWORD PTR [rax]
	mov	DWORD PTR curr_operator$4[rsp], eax

; 3274 :         DebugMsg1(("%u evaluate loop, operator=>%s< opnd1->sym=%X, type=%s\n",

	mov	rax, QWORD PTR opnd1$[rsp]
	cmp	QWORD PTR [rax+96], 0
	je	SHORT $LN46@evaluate
	mov	rax, QWORD PTR opnd1$[rsp]
	mov	rax, QWORD PTR [rax+96]
	mov	rax, QWORD PTR [rax+8]
	mov	QWORD PTR tv166[rsp], rax
	jmp	SHORT $LN47@evaluate
$LN46@evaluate:
	lea	rax, OFFSET FLAT:$SG12302
	mov	QWORD PTR tv166[rsp], rax
$LN47@evaluate:
	movsxd	rax, DWORD PTR curr_operator$4[rsp]
	imul	rax, rax, 32				; 00000020H
	mov	rcx, QWORD PTR tv166[rsp]
	mov	QWORD PTR [rsp+32], rcx
	mov	rcx, QWORD PTR opnd1$[rsp]
	mov	r9, QWORD PTR [rcx+80]
	mov	rcx, QWORD PTR tokenarray$[rsp]
	mov	r8, QWORD PTR [rcx+rax+8]
	mov	edx, DWORD PTR evallvl
	lea	rcx, OFFSET FLAT:$SG12303
	call	DoDebugMsg1

; 3275 :                    evallvl, tokenarray[curr_operator].string_ptr, opnd1->sym, (opnd1->type ? opnd1->type->name : "NULL") ));
; 3276 : 
; 3277 :         if ( opnd1->kind != EXPR_EMPTY ) {

	mov	rax, QWORD PTR opnd1$[rsp]
	cmp	DWORD PTR [rax+60], -2
	je	$LN9@evaluate

; 3278 :             /* check operator behind operand. Must be binary or open bracket */
; 3279 :             if ( tokenarray[curr_operator].token == '+' || tokenarray[curr_operator].token == '-' )

	movsxd	rax, DWORD PTR curr_operator$4[rsp]
	imul	rax, rax, 32				; 00000020H
	mov	rcx, QWORD PTR tokenarray$[rsp]
	movzx	eax, BYTE PTR [rcx+rax]
	cmp	eax, 43					; 0000002bH
	je	SHORT $LN12@evaluate
	movsxd	rax, DWORD PTR curr_operator$4[rsp]
	imul	rax, rax, 32				; 00000020H
	mov	rcx, QWORD PTR tokenarray$[rsp]
	movzx	eax, BYTE PTR [rcx+rax]
	cmp	eax, 45					; 0000002dH
	jne	SHORT $LN10@evaluate
$LN12@evaluate:

; 3280 :                 tokenarray[curr_operator].specval = BINARY_PLUSMINUS;

	movsxd	rax, DWORD PTR curr_operator$4[rsp]
	imul	rax, rax, 32				; 00000020H
	mov	rcx, QWORD PTR tokenarray$[rsp]
	mov	BYTE PTR [rcx+rax+1], 1
	jmp	$LN11@evaluate
$LN10@evaluate:

; 3281 :             else if( !is_operator( tokenarray[curr_operator].token ) || tokenarray[curr_operator].token == T_UNARY_OPERATOR ) {

	movsxd	rax, DWORD PTR curr_operator$4[rsp]
	imul	rax, rax, 32				; 00000020H
	mov	rcx, QWORD PTR tokenarray$[rsp]
	movzx	eax, BYTE PTR [rcx+rax]
	cmp	eax, 40					; 00000028H
	jge	SHORT $LN15@evaluate
	movsxd	rax, DWORD PTR curr_operator$4[rsp]
	imul	rax, rax, 32				; 00000020H
	mov	rcx, QWORD PTR tokenarray$[rsp]
	movzx	eax, BYTE PTR [rcx+rax]
	cmp	eax, 4
	je	SHORT $LN15@evaluate
	movsxd	rax, DWORD PTR curr_operator$4[rsp]
	imul	rax, rax, 32				; 00000020H
	mov	rcx, QWORD PTR tokenarray$[rsp]
	movzx	eax, BYTE PTR [rcx+rax]
	cmp	eax, 5
	jne	SHORT $LN14@evaluate
$LN15@evaluate:
	movsxd	rax, DWORD PTR curr_operator$4[rsp]
	imul	rax, rax, 32				; 00000020H
	mov	rcx, QWORD PTR tokenarray$[rsp]
	movzx	eax, BYTE PTR [rcx+rax]
	cmp	eax, 4
	jne	$LN13@evaluate
$LN14@evaluate:

; 3282 :                 DebugMsg(("%u evaluate: unexpected token at idx=%u, token=%X >%s<\n", evallvl, curr_operator, tokenarray[curr_operator].token, tokenarray[curr_operator].tokpos ));

	movsxd	rax, DWORD PTR curr_operator$4[rsp]
	imul	rax, rax, 32				; 00000020H
	movsxd	rcx, DWORD PTR curr_operator$4[rsp]
	imul	rcx, rcx, 32				; 00000020H
	mov	rdx, QWORD PTR tokenarray$[rsp]
	movzx	ecx, BYTE PTR [rdx+rcx]
	mov	rdx, QWORD PTR tokenarray$[rsp]
	mov	rax, QWORD PTR [rdx+rax+24]
	mov	QWORD PTR [rsp+32], rax
	mov	r9d, ecx
	mov	r8d, DWORD PTR curr_operator$4[rsp]
	mov	edx, DWORD PTR evallvl
	lea	rcx, OFFSET FLAT:$SG12311
	call	DoDebugMsg

; 3283 :                 rc = ERROR;

	mov	DWORD PTR rc$[rsp], -1

; 3284 :                 //if ( !opnd2.is_opattr )  /* v2.11: opnd2 was accessed before initialization */
; 3285 :                 
; 3286 :                 if ( !opnd1->is_opattr )

	mov	rax, QWORD PTR opnd1$[rsp]
	mov	eax, DWORD PTR [rax+76]
	shr	eax, 4
	and	eax, 1
	test	eax, eax
	jne	SHORT $LN16@evaluate

; 3287 :                     OperErr( curr_operator, tokenarray );

	mov	rdx, QWORD PTR tokenarray$[rsp]
	mov	ecx, DWORD PTR curr_operator$4[rsp]
	call	OperErr
$LN16@evaluate:

; 3288 :                 break;

	jmp	$LN3@evaluate
$LN13@evaluate:
$LN11@evaluate:
$LN9@evaluate:

; 3289 :             }
; 3290 :         }
; 3291 : 
; 3292 :         (*i)++;

	mov	rax, QWORD PTR i$[rsp]
	mov	eax, DWORD PTR [rax]
	inc	eax
	mov	rcx, QWORD PTR i$[rsp]
	mov	DWORD PTR [rcx], eax

; 3293 : 
; 3294 :         init_expr( &opnd2 );

	lea	rcx, QWORD PTR opnd2$5[rsp]
	call	init_expr

; 3295 :         PrepareOp( &opnd2, opnd1, &tokenarray[curr_operator] );

	movsxd	rax, DWORD PTR curr_operator$4[rsp]
	imul	rax, rax, 32				; 00000020H
	mov	rcx, QWORD PTR tokenarray$[rsp]
	add	rcx, rax
	mov	rax, rcx
	mov	r8, rax
	mov	rdx, QWORD PTR opnd1$[rsp]
	lea	rcx, QWORD PTR opnd2$5[rsp]
	call	PrepareOp

; 3296 : 
; 3297 :         /* read the (next) operand.
; 3298 :          */
; 3299 : 
; 3300 :         if( tokenarray[curr_operator].token == T_OP_BRACKET ||

	movsxd	rax, DWORD PTR curr_operator$4[rsp]
	imul	rax, rax, 32				; 00000020H
	mov	rcx, QWORD PTR tokenarray$[rsp]
	movzx	eax, BYTE PTR [rcx+rax]
	cmp	eax, 40					; 00000028H
	je	SHORT $LN19@evaluate
	movsxd	rax, DWORD PTR curr_operator$4[rsp]
	imul	rax, rax, 32				; 00000020H
	mov	rcx, QWORD PTR tokenarray$[rsp]
	movzx	eax, BYTE PTR [rcx+rax]
	cmp	eax, 91					; 0000005bH
	jne	$LN17@evaluate
$LN19@evaluate:

; 3301 :            tokenarray[curr_operator].token == T_OP_SQ_BRACKET ) {
; 3302 :             int exp_token = T_CL_BRACKET;

	mov	DWORD PTR exp_token$6[rsp], 41		; 00000029H

; 3303 :             if( tokenarray[curr_operator].token == T_OP_SQ_BRACKET ) {

	movsxd	rax, DWORD PTR curr_operator$4[rsp]
	imul	rax, rax, 32				; 00000020H
	mov	rcx, QWORD PTR tokenarray$[rsp]
	movzx	eax, BYTE PTR [rcx+rax]
	cmp	eax, 91					; 0000005bH
	jne	SHORT $LN20@evaluate

; 3304 :                 exp_token = T_CL_SQ_BRACKET;

	mov	DWORD PTR exp_token$6[rsp], 93		; 0000005dH
	jmp	SHORT $LN21@evaluate
$LN20@evaluate:

; 3305 : #if 1 /* v2.10: slightly hackish; see regression test dotop5.asm */
; 3306 :             } else if ( opnd1->is_dot ) {

	mov	rax, QWORD PTR opnd1$[rsp]
	mov	eax, DWORD PTR [rax+76]
	shr	eax, 7
	and	eax, 1
	test	eax, eax
	je	SHORT $LN22@evaluate

; 3307 :                 opnd2.type = opnd1->type;

	mov	rax, QWORD PTR opnd1$[rsp]
	mov	rax, QWORD PTR [rax+96]
	mov	QWORD PTR opnd2$5[rsp+96], rax

; 3308 :                 opnd2.is_dot = TRUE;

	mov	eax, DWORD PTR opnd2$5[rsp+76]
	bts	eax, 7
	mov	DWORD PTR opnd2$5[rsp+76], eax
$LN22@evaluate:
$LN21@evaluate:

; 3309 : #endif
; 3310 :             }
; 3311 : 
; 3312 :             rc = evaluate( &opnd2, i, tokenarray, end, ( flags | ( exp_token == T_CL_SQ_BRACKET ? EXPF_IN_SQBR : 0 ) ) & ~EXPF_ONEOPND );

	cmp	DWORD PTR exp_token$6[rsp], 93		; 0000005dH
	jne	SHORT $LN48@evaluate
	mov	DWORD PTR tv274[rsp], 8
	jmp	SHORT $LN49@evaluate
$LN48@evaluate:
	mov	DWORD PTR tv274[rsp], 0
$LN49@evaluate:
	movzx	eax, BYTE PTR flags$[rsp]
	or	eax, DWORD PTR tv274[rsp]
	and	eax, -5
	mov	BYTE PTR [rsp+32], al
	mov	r9d, DWORD PTR end$[rsp]
	mov	r8, QWORD PTR tokenarray$[rsp]
	mov	rdx, QWORD PTR i$[rsp]
	lea	rcx, QWORD PTR opnd2$5[rsp]
	call	evaluate
	mov	DWORD PTR rc$[rsp], eax

; 3313 : 
; 3314 :             if( !IsCurrToken( exp_token ) ) {

	mov	rax, QWORD PTR i$[rsp]
	movsxd	rax, DWORD PTR [rax]
	imul	rax, rax, 32				; 00000020H
	mov	rcx, QWORD PTR tokenarray$[rsp]
	movzx	eax, BYTE PTR [rcx+rax]
	cmp	eax, DWORD PTR exp_token$6[rsp]
	je	$LN23@evaluate

; 3315 :                 DebugMsg(("%u evaluate: error, missing '%c', i=%u\n", evallvl, exp_token, *i ));

	mov	rax, QWORD PTR i$[rsp]
	mov	r9d, DWORD PTR [rax]
	mov	r8d, DWORD PTR exp_token$6[rsp]
	mov	edx, DWORD PTR evallvl
	lea	rcx, OFFSET FLAT:$SG12321
	call	DoDebugMsg

; 3316 :                 if ( rc != ERROR ) {

	cmp	DWORD PTR rc$[rsp], -1
	je	SHORT $LN25@evaluate

; 3317 :                     fnEmitErr( MISSING_RIGHT_PARENTHESIS_IN_EXPRESSION );

	mov	ecx, 227				; 000000e3H
	call	QWORD PTR fnEmitErr

; 3318 :                     /* v2.12: if curr token is a comma, the intention might be to call a macro function
; 3319 :                      * - using an undefined ( or not yet defined ) macro. The problem is that the name
; 3320 :                      * of this undefined macro isn't displayed in pass one, making it hard to see the
; 3321 :                      * reason for the error msg. However, if a comma is found, then it's surely no valid
; 3322 :                      * expression - in this case an "undefined symbol" err msg may be helpful.
; 3323 :                      */
; 3324 :                     if ( IsCurrToken( T_COMMA ) && opnd1->sym && opnd1->sym->state == SYM_UNDEFINED )

	mov	rax, QWORD PTR i$[rsp]
	movsxd	rax, DWORD PTR [rax]
	imul	rax, rax, 32				; 00000020H
	mov	rcx, QWORD PTR tokenarray$[rsp]
	movzx	eax, BYTE PTR [rcx+rax]
	cmp	eax, 44					; 0000002cH
	jne	SHORT $LN26@evaluate
	mov	rax, QWORD PTR opnd1$[rsp]
	cmp	QWORD PTR [rax+80], 0
	je	SHORT $LN26@evaluate
	mov	rax, QWORD PTR opnd1$[rsp]
	mov	rax, QWORD PTR [rax+80]
	cmp	DWORD PTR [rax+32], 0
	jne	SHORT $LN26@evaluate

; 3325 :                         fnEmitErr( SYMBOL_NOT_DEFINED, opnd1->sym->name );

	mov	rax, QWORD PTR opnd1$[rsp]
	mov	rax, QWORD PTR [rax+80]
	mov	rdx, QWORD PTR [rax+8]
	mov	ecx, 102				; 00000066H
	call	QWORD PTR fnEmitErr
$LN26@evaluate:
$LN25@evaluate:

; 3326 :                 }
; 3327 :                 rc = ERROR;

	mov	DWORD PTR rc$[rsp], -1

; 3328 :             } else {

	jmp	SHORT $LN24@evaluate
$LN23@evaluate:

; 3329 :                 (*i)++;

	mov	rax, QWORD PTR i$[rsp]
	mov	eax, DWORD PTR [rax]
	inc	eax
	mov	rcx, QWORD PTR i$[rsp]
	mov	DWORD PTR [rcx], eax
$LN24@evaluate:

; 3330 :             }

	jmp	$LN18@evaluate
$LN17@evaluate:

; 3331 : 
; 3332 :         } else if( is_unary_op( tokenarray[*i].token ) ) { /* brackets, +, -, T_UNARY_OPERATOR? */

	mov	rax, QWORD PTR i$[rsp]
	movsxd	rax, DWORD PTR [rax]
	imul	rax, rax, 32				; 00000020H
	mov	rcx, QWORD PTR tokenarray$[rsp]
	movzx	eax, BYTE PTR [rcx+rax]
	cmp	eax, 40					; 00000028H
	je	$LN29@evaluate
	mov	rax, QWORD PTR i$[rsp]
	movsxd	rax, DWORD PTR [rax]
	imul	rax, rax, 32				; 00000020H
	mov	rcx, QWORD PTR tokenarray$[rsp]
	movzx	eax, BYTE PTR [rcx+rax]
	cmp	eax, 91					; 0000005bH
	je	SHORT $LN29@evaluate
	mov	rax, QWORD PTR i$[rsp]
	movsxd	rax, DWORD PTR [rax]
	imul	rax, rax, 32				; 00000020H
	mov	rcx, QWORD PTR tokenarray$[rsp]
	movzx	eax, BYTE PTR [rcx+rax]
	cmp	eax, 43					; 0000002bH
	je	SHORT $LN29@evaluate
	mov	rax, QWORD PTR i$[rsp]
	movsxd	rax, DWORD PTR [rax]
	imul	rax, rax, 32				; 00000020H
	mov	rcx, QWORD PTR tokenarray$[rsp]
	movzx	eax, BYTE PTR [rcx+rax]
	cmp	eax, 45					; 0000002dH
	je	SHORT $LN29@evaluate
	mov	rax, QWORD PTR i$[rsp]
	movsxd	rax, DWORD PTR [rax]
	imul	rax, rax, 32				; 00000020H
	mov	rcx, QWORD PTR tokenarray$[rsp]
	movzx	eax, BYTE PTR [rcx+rax]
	cmp	eax, 4
	jne	SHORT $LN27@evaluate
$LN29@evaluate:

; 3333 :             rc = evaluate( &opnd2, i, tokenarray, end, flags | EXPF_ONEOPND );

	movzx	eax, BYTE PTR flags$[rsp]
	or	eax, 4
	mov	BYTE PTR [rsp+32], al
	mov	r9d, DWORD PTR end$[rsp]
	mov	r8, QWORD PTR tokenarray$[rsp]
	mov	rdx, QWORD PTR i$[rsp]
	lea	rcx, QWORD PTR opnd2$5[rsp]
	call	evaluate
	mov	DWORD PTR rc$[rsp], eax

; 3334 :         } else {

	jmp	SHORT $LN28@evaluate
$LN27@evaluate:

; 3335 :             /* get either:
; 3336 :              * - operand of unary operator OR
; 3337 :              * - 2. operand of binary operator
; 3338 :              */
; 3339 :             rc = get_operand( &opnd2, i, tokenarray, flags );

	movzx	r9d, BYTE PTR flags$[rsp]
	mov	r8, QWORD PTR tokenarray$[rsp]
	mov	rdx, QWORD PTR i$[rsp]
	lea	rcx, QWORD PTR opnd2$5[rsp]
	call	get_operand
	mov	DWORD PTR rc$[rsp], eax
$LN28@evaluate:
$LN18@evaluate:
$LN4@evaluate:

; 3340 :         }
; 3341 : 
; 3342 :         /*
; 3343 :          * parse expression until either the end or an operator with a higher priority is found.
; 3344 :          */
; 3345 : 
; 3346 :         while( rc != ERROR && *i < end && !IsCurrToken( T_CL_BRACKET ) && !IsCurrToken( T_CL_SQ_BRACKET ) ) {

	cmp	DWORD PTR rc$[rsp], -1
	je	$LN5@evaluate
	mov	rax, QWORD PTR i$[rsp]
	mov	ecx, DWORD PTR end$[rsp]
	cmp	DWORD PTR [rax], ecx
	jge	$LN5@evaluate
	mov	rax, QWORD PTR i$[rsp]
	movsxd	rax, DWORD PTR [rax]
	imul	rax, rax, 32				; 00000020H
	mov	rcx, QWORD PTR tokenarray$[rsp]
	movzx	eax, BYTE PTR [rcx+rax]
	cmp	eax, 41					; 00000029H
	je	$LN5@evaluate
	mov	rax, QWORD PTR i$[rsp]
	movsxd	rax, DWORD PTR [rax]
	imul	rax, rax, 32				; 00000020H
	mov	rcx, QWORD PTR tokenarray$[rsp]
	movzx	eax, BYTE PTR [rcx+rax]
	cmp	eax, 93					; 0000005dH
	je	$LN5@evaluate

; 3347 :             
; 3348 :             if ( tokenarray[*i].token == '+' || tokenarray[*i].token == '-' )

	mov	rax, QWORD PTR i$[rsp]
	movsxd	rax, DWORD PTR [rax]
	imul	rax, rax, 32				; 00000020H
	mov	rcx, QWORD PTR tokenarray$[rsp]
	movzx	eax, BYTE PTR [rcx+rax]
	cmp	eax, 43					; 0000002bH
	je	SHORT $LN32@evaluate
	mov	rax, QWORD PTR i$[rsp]
	movsxd	rax, DWORD PTR [rax]
	imul	rax, rax, 32				; 00000020H
	mov	rcx, QWORD PTR tokenarray$[rsp]
	movzx	eax, BYTE PTR [rcx+rax]
	cmp	eax, 45					; 0000002dH
	jne	SHORT $LN30@evaluate
$LN32@evaluate:

; 3349 :                 tokenarray[*i].specval = BINARY_PLUSMINUS;

	mov	rax, QWORD PTR i$[rsp]
	movsxd	rax, DWORD PTR [rax]
	imul	rax, rax, 32				; 00000020H
	mov	rcx, QWORD PTR tokenarray$[rsp]
	mov	BYTE PTR [rcx+rax+1], 1
	jmp	$LN31@evaluate
$LN30@evaluate:

; 3350 :             else if( !is_operator( tokenarray[*i].token ) || tokenarray[*i].token == T_UNARY_OPERATOR ) {

	mov	rax, QWORD PTR i$[rsp]
	movsxd	rax, DWORD PTR [rax]
	imul	rax, rax, 32				; 00000020H
	mov	rcx, QWORD PTR tokenarray$[rsp]
	movzx	eax, BYTE PTR [rcx+rax]
	cmp	eax, 40					; 00000028H
	jge	SHORT $LN35@evaluate
	mov	rax, QWORD PTR i$[rsp]
	movsxd	rax, DWORD PTR [rax]
	imul	rax, rax, 32				; 00000020H
	mov	rcx, QWORD PTR tokenarray$[rsp]
	movzx	eax, BYTE PTR [rcx+rax]
	cmp	eax, 4
	je	SHORT $LN35@evaluate
	mov	rax, QWORD PTR i$[rsp]
	movsxd	rax, DWORD PTR [rax]
	imul	rax, rax, 32				; 00000020H
	mov	rcx, QWORD PTR tokenarray$[rsp]
	movzx	eax, BYTE PTR [rcx+rax]
	cmp	eax, 5
	jne	SHORT $LN34@evaluate
$LN35@evaluate:
	mov	rax, QWORD PTR i$[rsp]
	movsxd	rax, DWORD PTR [rax]
	imul	rax, rax, 32				; 00000020H
	mov	rcx, QWORD PTR tokenarray$[rsp]
	movzx	eax, BYTE PTR [rcx+rax]
	cmp	eax, 4
	jne	$LN33@evaluate
$LN34@evaluate:

; 3351 :                 DebugMsg(("%u evaluate: unexpected token at %u, token=%X >%s<\n", evallvl, *i, tokenarray[*i].token, tokenarray[*i].tokpos ));

	mov	rax, QWORD PTR i$[rsp]
	movsxd	rax, DWORD PTR [rax]
	imul	rax, rax, 32				; 00000020H
	mov	rcx, QWORD PTR i$[rsp]
	movsxd	rcx, DWORD PTR [rcx]
	imul	rcx, rcx, 32				; 00000020H
	mov	rdx, QWORD PTR tokenarray$[rsp]
	movzx	ecx, BYTE PTR [rdx+rcx]
	mov	rdx, QWORD PTR tokenarray$[rsp]
	mov	rax, QWORD PTR [rdx+rax+24]
	mov	QWORD PTR [rsp+32], rax
	mov	r9d, ecx
	mov	rax, QWORD PTR i$[rsp]
	mov	r8d, DWORD PTR [rax]
	mov	edx, DWORD PTR evallvl
	lea	rcx, OFFSET FLAT:$SG12333
	call	DoDebugMsg

; 3352 :                 rc = ERROR;

	mov	DWORD PTR rc$[rsp], -1

; 3353 :                 if ( !opnd2.is_opattr ) /* don't emit error if expression is OPATTR operand */

	mov	eax, DWORD PTR opnd2$5[rsp+76]
	shr	eax, 4
	and	eax, 1
	test	eax, eax
	jne	SHORT $LN36@evaluate

; 3354 :                     OperErr( *i, tokenarray );

	mov	rdx, QWORD PTR tokenarray$[rsp]
	mov	rax, QWORD PTR i$[rsp]
	mov	ecx, DWORD PTR [rax]
	call	OperErr
$LN36@evaluate:

; 3355 :                 break;

	jmp	$LN5@evaluate
$LN33@evaluate:
$LN31@evaluate:

; 3356 :             }
; 3357 : 
; 3358 :             if( get_precedence( &tokenarray[*i] ) >= get_precedence( &tokenarray[curr_operator] ) )

	mov	rax, QWORD PTR i$[rsp]
	movsxd	rax, DWORD PTR [rax]
	imul	rax, rax, 32				; 00000020H
	mov	rcx, QWORD PTR tokenarray$[rsp]
	add	rcx, rax
	mov	rax, rcx
	mov	rcx, rax
	call	get_precedence
	mov	DWORD PTR tv428[rsp], eax
	movsxd	rcx, DWORD PTR curr_operator$4[rsp]
	imul	rcx, rcx, 32				; 00000020H
	mov	rdx, QWORD PTR tokenarray$[rsp]
	add	rdx, rcx
	mov	rcx, rdx
	call	get_precedence
	mov	ecx, DWORD PTR tv428[rsp]
	cmp	ecx, eax
	jl	SHORT $LN37@evaluate

; 3359 :                 break;

	jmp	SHORT $LN5@evaluate
$LN37@evaluate:

; 3360 : 
; 3361 :             rc = evaluate( &opnd2, i, tokenarray, end, flags | EXPF_ONEOPND );

	movzx	eax, BYTE PTR flags$[rsp]
	or	eax, 4
	mov	BYTE PTR [rsp+32], al
	mov	r9d, DWORD PTR end$[rsp]
	mov	r8, QWORD PTR tokenarray$[rsp]
	mov	rdx, QWORD PTR i$[rsp]
	lea	rcx, QWORD PTR opnd2$5[rsp]
	call	evaluate
	mov	DWORD PTR rc$[rsp], eax

; 3362 : 
; 3363 :         }

	jmp	$LN4@evaluate
$LN5@evaluate:

; 3364 : 
; 3365 :         /* v2.10: OPATTR special handling */
; 3366 :         if ( rc == ERROR && opnd2.is_opattr ) {

	cmp	DWORD PTR rc$[rsp], -1
	jne	$LN38@evaluate
	mov	eax, DWORD PTR opnd2$5[rsp+76]
	shr	eax, 4
	and	eax, 1
	test	eax, eax
	je	SHORT $LN38@evaluate
$LN6@evaluate:

; 3367 :             /* skip tokens until the end */
; 3368 :             while( *i < end && !IsCurrToken( T_CL_BRACKET ) && !IsCurrToken( T_CL_SQ_BRACKET ) ) {

	mov	rax, QWORD PTR i$[rsp]
	mov	ecx, DWORD PTR end$[rsp]
	cmp	DWORD PTR [rax], ecx
	jge	SHORT $LN7@evaluate
	mov	rax, QWORD PTR i$[rsp]
	movsxd	rax, DWORD PTR [rax]
	imul	rax, rax, 32				; 00000020H
	mov	rcx, QWORD PTR tokenarray$[rsp]
	movzx	eax, BYTE PTR [rcx+rax]
	cmp	eax, 41					; 00000029H
	je	SHORT $LN7@evaluate
	mov	rax, QWORD PTR i$[rsp]
	movsxd	rax, DWORD PTR [rax]
	imul	rax, rax, 32				; 00000020H
	mov	rcx, QWORD PTR tokenarray$[rsp]
	movzx	eax, BYTE PTR [rcx+rax]
	cmp	eax, 93					; 0000005dH
	je	SHORT $LN7@evaluate

; 3369 :                 (*i)++;

	mov	rax, QWORD PTR i$[rsp]
	mov	eax, DWORD PTR [rax]
	inc	eax
	mov	rcx, QWORD PTR i$[rsp]
	mov	DWORD PTR [rcx], eax

; 3370 :             }

	jmp	SHORT $LN6@evaluate
$LN7@evaluate:

; 3371 :             opnd2.kind = EXPR_EMPTY;

	mov	DWORD PTR opnd2$5[rsp+60], -2

; 3372 :             rc = NOT_ERROR;

	mov	DWORD PTR rc$[rsp], 0
$LN38@evaluate:

; 3373 :         }
; 3374 :         if( rc != ERROR )

	cmp	DWORD PTR rc$[rsp], -1
	je	SHORT $LN39@evaluate

; 3375 :             rc = calculate( opnd1, &opnd2, &tokenarray[curr_operator] );

	movsxd	rax, DWORD PTR curr_operator$4[rsp]
	imul	rax, rax, 32				; 00000020H
	mov	rcx, QWORD PTR tokenarray$[rsp]
	add	rcx, rax
	mov	rax, rcx
	mov	r8, rax
	lea	rdx, QWORD PTR opnd2$5[rsp]
	mov	rcx, QWORD PTR opnd1$[rsp]
	call	calculate
	mov	DWORD PTR rc$[rsp], eax
$LN39@evaluate:

; 3376 : 
; 3377 :         if( flags & EXPF_ONEOPND ) /* stop after one operand? */

	movzx	eax, BYTE PTR flags$[rsp]
	and	eax, 4
	test	eax, eax
	je	SHORT $LN40@evaluate

; 3378 :             break;

	jmp	SHORT $LN3@evaluate
$LN40@evaluate:

; 3379 :     }

	jmp	$LN2@evaluate
$LN3@evaluate:

; 3380 : 
; 3381 : #ifdef DEBUG_OUT
; 3382 :     if ( opnd1->hvalue != -1 && opnd1->hvalue != 0 ) {

	mov	rax, QWORD PTR opnd1$[rsp]
	cmp	DWORD PTR [rax+4], -1
	je	$LN41@evaluate
	mov	rax, QWORD PTR opnd1$[rsp]
	cmp	DWORD PTR [rax+4], 0
	je	$LN41@evaluate

; 3383 :         DebugMsg1(("%u evaluate exit, rc=%d, kind=%d value=%" I64_SPEC "d(0x%" I64_SPEC "X) memtype=%Xh string=%s indirect=%u type=>%s<\n",

	mov	rax, QWORD PTR opnd1$[rsp]
	cmp	QWORD PTR [rax+96], 0
	je	SHORT $LN50@evaluate
	mov	rax, QWORD PTR opnd1$[rsp]
	mov	rax, QWORD PTR [rax+96]
	mov	rax, QWORD PTR [rax+8]
	mov	QWORD PTR tv485[rsp], rax
	jmp	SHORT $LN51@evaluate
$LN50@evaluate:
	lea	rax, OFFSET FLAT:$SG12341
	mov	QWORD PTR tv485[rsp], rax
$LN51@evaluate:
	mov	rax, QWORD PTR opnd1$[rsp]
	cmp	QWORD PTR [rax+16], 0
	je	SHORT $LN52@evaluate
	mov	rax, QWORD PTR opnd1$[rsp]
	mov	rax, QWORD PTR [rax+16]
	mov	rax, QWORD PTR [rax+8]
	mov	QWORD PTR tv494[rsp], rax
	jmp	SHORT $LN53@evaluate
$LN52@evaluate:
	lea	rax, OFFSET FLAT:$SG12342
	mov	QWORD PTR tv494[rsp], rax
$LN53@evaluate:
	mov	eax, DWORD PTR evallvl
	mov	DWORD PTR tv506[rsp], eax
	mov	eax, DWORD PTR evallvl
	dec	eax
	mov	DWORD PTR evallvl, eax
	mov	rax, QWORD PTR opnd1$[rsp]
	mov	eax, DWORD PTR [rax+76]
	and	eax, 1
	mov	rcx, QWORD PTR tv485[rsp]
	mov	QWORD PTR [rsp+72], rcx
	mov	DWORD PTR [rsp+64], eax
	mov	rax, QWORD PTR tv494[rsp]
	mov	QWORD PTR [rsp+56], rax
	mov	rax, QWORD PTR opnd1$[rsp]
	mov	eax, DWORD PTR [rax+64]
	mov	DWORD PTR [rsp+48], eax
	mov	rax, QWORD PTR opnd1$[rsp]
	mov	rax, QWORD PTR [rax]
	mov	QWORD PTR [rsp+40], rax
	mov	rax, QWORD PTR opnd1$[rsp]
	mov	rax, QWORD PTR [rax]
	mov	QWORD PTR [rsp+32], rax
	mov	rax, QWORD PTR opnd1$[rsp]
	mov	r9d, DWORD PTR [rax+60]
	mov	r8d, DWORD PTR rc$[rsp]
	mov	edx, DWORD PTR tv506[rsp]
	lea	rcx, OFFSET FLAT:$SG12343
	call	DoDebugMsg1

; 3384 :                    evallvl--, rc, opnd1->kind, opnd1->llvalue, opnd1->llvalue, opnd1->mem_type,
; 3385 :                    opnd1->quoted_string ? opnd1->quoted_string->string_ptr : "NULL",
; 3386 :                    opnd1->indirect,
; 3387 :                    opnd1->type ? opnd1->type->name : "NULL" ));
; 3388 :     } else {

	jmp	$LN42@evaluate
$LN41@evaluate:

; 3389 :         DebugMsg1(("%u evaluate exit, rc=%d, kind=%d value=%" I32_SPEC "d(0x%" I32_SPEC "X) memtype=%Xh string=%s ind=%u exp=%u ofssiz=%d instr=%s type=>%s<\n",

	mov	rax, QWORD PTR opnd1$[rsp]
	cmp	QWORD PTR [rax+96], 0
	je	SHORT $LN54@evaluate
	mov	rax, QWORD PTR opnd1$[rsp]
	mov	rax, QWORD PTR [rax+96]
	mov	rax, QWORD PTR [rax+8]
	mov	QWORD PTR tv513[rsp], rax
	jmp	SHORT $LN55@evaluate
$LN54@evaluate:
	lea	rax, OFFSET FLAT:$SG12344
	mov	QWORD PTR tv513[rsp], rax
$LN55@evaluate:
	mov	rax, QWORD PTR opnd1$[rsp]
	cmp	DWORD PTR [rax+56], -2
	jne	SHORT $LN56@evaluate
	lea	rax, OFFSET FLAT:$SG12345
	mov	QWORD PTR tv521[rsp], rax
	jmp	SHORT $LN57@evaluate
$LN56@evaluate:
	xor	edx, edx
	mov	rax, QWORD PTR opnd1$[rsp]
	mov	ecx, DWORD PTR [rax+56]
	call	GetResWName
	mov	QWORD PTR tv521[rsp], rax
$LN57@evaluate:
	mov	rax, QWORD PTR opnd1$[rsp]
	cmp	QWORD PTR [rax+16], 0
	je	SHORT $LN58@evaluate
	mov	rax, QWORD PTR opnd1$[rsp]
	mov	rax, QWORD PTR [rax+16]
	mov	rax, QWORD PTR [rax+8]
	mov	QWORD PTR tv537[rsp], rax
	jmp	SHORT $LN59@evaluate
$LN58@evaluate:
	lea	rax, OFFSET FLAT:$SG12346
	mov	QWORD PTR tv537[rsp], rax
$LN59@evaluate:
	mov	eax, DWORD PTR evallvl
	mov	DWORD PTR tv549[rsp], eax
	mov	eax, DWORD PTR evallvl
	dec	eax
	mov	DWORD PTR evallvl, eax
	mov	rax, QWORD PTR opnd1$[rsp]
	movzx	eax, BYTE PTR [rax+69]
	mov	rcx, QWORD PTR opnd1$[rsp]
	mov	ecx, DWORD PTR [rcx+76]
	shr	ecx, 1
	and	ecx, 1
	mov	rdx, QWORD PTR opnd1$[rsp]
	mov	edx, DWORD PTR [rdx+76]
	and	edx, 1
	mov	r8, QWORD PTR tv513[rsp]
	mov	QWORD PTR [rsp+96], r8
	mov	r8, QWORD PTR tv521[rsp]
	mov	QWORD PTR [rsp+88], r8
	mov	DWORD PTR [rsp+80], eax
	mov	DWORD PTR [rsp+72], ecx
	mov	DWORD PTR [rsp+64], edx
	mov	rax, QWORD PTR tv537[rsp]
	mov	QWORD PTR [rsp+56], rax
	mov	rax, QWORD PTR opnd1$[rsp]
	mov	eax, DWORD PTR [rax+64]
	mov	DWORD PTR [rsp+48], eax
	mov	rax, QWORD PTR opnd1$[rsp]
	mov	eax, DWORD PTR [rax]
	mov	DWORD PTR [rsp+40], eax
	mov	rax, QWORD PTR opnd1$[rsp]
	mov	eax, DWORD PTR [rax]
	mov	DWORD PTR [rsp+32], eax
	mov	rax, QWORD PTR opnd1$[rsp]
	mov	r9d, DWORD PTR [rax+60]
	mov	r8d, DWORD PTR rc$[rsp]
	mov	edx, DWORD PTR tv549[rsp]
	lea	rcx, OFFSET FLAT:$SG12347
	call	DoDebugMsg1
$LN42@evaluate:

; 3390 :                    evallvl--, rc, opnd1->kind, opnd1->value, opnd1->value, opnd1->mem_type,
; 3391 :                    opnd1->quoted_string ? opnd1->quoted_string->string_ptr : "NULL",
; 3392 :                    opnd1->indirect, opnd1->explicit, opnd1->Ofssize,
; 3393 :                    opnd1->instr == EMPTY ? "" : GetResWName( opnd1->instr, NULL ),
; 3394 :                    opnd1->type ? opnd1->type->name : "NULL" ));
; 3395 :     }
; 3396 : #endif
; 3397 :     return( rc );

	mov	eax, DWORD PTR rc$[rsp]

; 3398 : }

	mov	edi, eax
	mov	rcx, rsp
	lea	rdx, OFFSET FLAT:evaluate$rtcFrameData
	call	_RTC_CheckStackVars
	mov	eax, edi
	add	rsp, 368				; 00000170H
	pop	rdi
	ret	0
evaluate ENDP
_TEXT	ENDS
; Function compile flags: /Odtp /RTCsu
; File d:\hjwasm\hjwasm2.13.1s\hjwasm2.13.1s\expreval.c
_TEXT	SEGMENT
i$ = 48
tokenarray$ = 56
OperErr	PROC

; 3232 : {

	mov	QWORD PTR [rsp+16], rdx
	mov	DWORD PTR [rsp+8], ecx
	push	rdi
	sub	rsp, 32					; 00000020H
	mov	rdi, rsp
	mov	ecx, 8
	mov	eax, -858993460				; ccccccccH
	rep stosd
	mov	ecx, DWORD PTR [rsp+48]

; 3233 :     if ( tokenarray[i].token <= T_BAD_NUM ) {

	movsxd	rax, DWORD PTR i$[rsp]
	imul	rax, rax, 32				; 00000020H
	mov	rcx, QWORD PTR tokenarray$[rsp]
	movzx	eax, BYTE PTR [rcx+rax]
	cmp	eax, 12
	jg	SHORT $LN2@OperErr

; 3234 :         fnEmitErr( MISSING_OPERATOR_IN_EXPRESSION ); ERRLOC(i);

	mov	ecx, 150				; 00000096H
	call	QWORD PTR fnEmitErr

; 3235 :     } else

	jmp	SHORT $LN3@OperErr
$LN2@OperErr:

; 3236 :         fnEmitErr( SYNTAX_ERROR_EX, tokenarray[i].string_ptr );

	movsxd	rax, DWORD PTR i$[rsp]
	imul	rax, rax, 32				; 00000020H
	mov	rcx, QWORD PTR tokenarray$[rsp]
	mov	rdx, QWORD PTR [rcx+rax+8]
	mov	ecx, 209				; 000000d1H
	call	QWORD PTR fnEmitErr
$LN3@OperErr:

; 3237 : 
; 3238 :     return;
; 3239 : }

	add	rsp, 32					; 00000020H
	pop	rdi
	ret	0
OperErr	ENDP
_TEXT	ENDS
; Function compile flags: /Odtp /RTCsu
; File d:\hjwasm\hjwasm2.13.1s\hjwasm2.13.1s\expreval.c
_TEXT	SEGMENT
tv75 = 32
tv86 = 40
tv151 = 48
tv162 = 56
opnd$ = 80
old$ = 88
oper$ = 96
PrepareOp PROC

; 3185 : {

	mov	QWORD PTR [rsp+24], r8
	mov	QWORD PTR [rsp+16], rdx
	mov	QWORD PTR [rsp+8], rcx
	push	rdi
	sub	rsp, 64					; 00000040H
	mov	rdi, rsp
	mov	ecx, 16
	mov	eax, -858993460				; ccccccccH
	rep stosd
	mov	rcx, QWORD PTR [rsp+80]

; 3186 :     opnd->is_opattr = old->is_opattr;

	mov	rax, QWORD PTR old$[rsp]
	mov	eax, DWORD PTR [rax+76]
	shr	eax, 4
	and	eax, 1
	and	eax, 1
	shl	eax, 4
	mov	rcx, QWORD PTR opnd$[rsp]
	mov	ecx, DWORD PTR [rcx+76]
	and	ecx, -17				; ffffffefH
	or	ecx, eax
	mov	eax, ecx
	mov	rcx, QWORD PTR opnd$[rsp]
	mov	DWORD PTR [rcx+76], eax

; 3187 : 
; 3188 :     switch ( oper->token ) {

	mov	rax, QWORD PTR oper$[rsp]
	movzx	eax, BYTE PTR [rax]
	mov	BYTE PTR tv75[rsp], al
	cmp	BYTE PTR tv75[rsp], 4
	je	$LN10@PrepareOp
	cmp	BYTE PTR tv75[rsp], 46			; 0000002eH
	je	SHORT $LN6@PrepareOp
	jmp	$LN2@PrepareOp
$LN6@PrepareOp:

; 3189 :     case T_DOT:
; 3190 :         DebugMsg(("PrepareOp: DOT operator found, old.sym=%X, old.type=%s, expr=%s\n", old->sym, (old->type ? old->type->name : "NULL" ), oper->tokpos + strlen( oper->string_ptr ) ));

	mov	rax, QWORD PTR old$[rsp]
	cmp	QWORD PTR [rax+96], 0
	je	SHORT $LN13@PrepareOp
	mov	rax, QWORD PTR old$[rsp]
	mov	rax, QWORD PTR [rax+96]
	mov	rax, QWORD PTR [rax+8]
	mov	QWORD PTR tv86[rsp], rax
	jmp	SHORT $LN14@PrepareOp
$LN13@PrepareOp:
	lea	rax, OFFSET FLAT:$SG12255
	mov	QWORD PTR tv86[rsp], rax
$LN14@PrepareOp:
	mov	rax, QWORD PTR oper$[rsp]
	mov	rcx, QWORD PTR [rax+8]
	call	strlen
	mov	rcx, QWORD PTR oper$[rsp]
	add	rax, QWORD PTR [rcx+24]
	mov	r9, rax
	mov	r8, QWORD PTR tv86[rsp]
	mov	rax, QWORD PTR old$[rsp]
	mov	rdx, QWORD PTR [rax+80]
	lea	rcx, OFFSET FLAT:$SG12256
	call	DoDebugMsg

; 3191 :         if ( old->type ) {

	mov	rax, QWORD PTR old$[rsp]
	cmp	QWORD PTR [rax+96], 0
	je	SHORT $LN7@PrepareOp

; 3192 :             DebugMsg1(("PrepareOp: implicit type: %s\n", old->type->name));

	mov	rax, QWORD PTR old$[rsp]
	mov	rax, QWORD PTR [rax+96]
	mov	rdx, QWORD PTR [rax+8]
	lea	rcx, OFFSET FLAT:$SG12259
	call	DoDebugMsg1

; 3193 :             opnd->type = old->type;

	mov	rax, QWORD PTR opnd$[rsp]
	mov	rcx, QWORD PTR old$[rsp]
	mov	rcx, QWORD PTR [rcx+96]
	mov	QWORD PTR [rax+96], rcx

; 3194 :             opnd->is_dot = TRUE;

	mov	rax, QWORD PTR opnd$[rsp]
	mov	eax, DWORD PTR [rax+76]
	bts	eax, 7
	mov	rcx, QWORD PTR opnd$[rsp]
	mov	DWORD PTR [rcx+76], eax
	jmp	SHORT $LN8@PrepareOp
$LN7@PrepareOp:

; 3195 : #if 0
; 3196 :         /* v2.09 (type field is now set in get_operand();
; 3197 :          * it's problematic to use old->sym here, because this field
; 3198 :          * is not necessarily set by the operand just before the dot.
; 3199 :          */
; 3200 :         //} else if ( old->sym && old->sym->mem_type == MT_TYPE ) {
; 3201 :         } else if ( old->sym && old->sym->mem_type == MT_TYPE && old->instr == EMPTY ) {
; 3202 :             DebugMsg1(("PrepareOp: label %s, implicit type: %s\n", old->sym->name, old->sym->type->name));
; 3203 :             for ( opnd->type = old->sym->type; opnd->type->type; opnd->type = opnd->type->type );
; 3204 : #endif
; 3205 :         /* v2.07: changed */
; 3206 :         //} else if ( !ModuleInfo.oldstructs ) {
; 3207 :         /* v2.08: reverted, replaced by changes in dot_op() and get_operand(), case T_STYPE */
; 3208 :         //} else if ( old->sym && old->sym->mem_type == MT_EMPTY && !ModuleInfo.oldstructs ) {
; 3209 :         /* v2.11: nullstruct not used here. Set type to NULL and is_dot==TRUE */
; 3210 :         //} else if ( !ModuleInfo.oldstructs ) {
; 3211 :         } else if ( !ModuleInfo.oldstructs && old->sym && old->sym->state == SYM_UNDEFINED ) {

	mov	eax, DWORD PTR ModuleInfo+408
	shr	eax, 8
	and	eax, 1
	test	eax, eax
	jne	SHORT $LN9@PrepareOp
	mov	rax, QWORD PTR old$[rsp]
	cmp	QWORD PTR [rax+80], 0
	je	SHORT $LN9@PrepareOp
	mov	rax, QWORD PTR old$[rsp]
	mov	rax, QWORD PTR [rax+80]
	cmp	DWORD PTR [rax+32], 0
	jne	SHORT $LN9@PrepareOp

; 3212 :             DebugMsg1(("PrepareOp: forward ref to %s, type will be NULL\n", old->sym->name ));

	mov	rax, QWORD PTR old$[rsp]
	mov	rax, QWORD PTR [rax+80]
	mov	rdx, QWORD PTR [rax+8]
	lea	rcx, OFFSET FLAT:$SG12261
	call	DoDebugMsg1

; 3213 :             opnd->type = NULL;

	mov	rax, QWORD PTR opnd$[rsp]
	mov	QWORD PTR [rax+96], 0

; 3214 :             opnd->is_dot = TRUE;

	mov	rax, QWORD PTR opnd$[rsp]
	mov	eax, DWORD PTR [rax+76]
	bts	eax, 7
	mov	rcx, QWORD PTR opnd$[rsp]
	mov	DWORD PTR [rcx+76], eax
$LN9@PrepareOp:
$LN8@PrepareOp:

; 3215 :         }
; 3216 :         break;

	jmp	$LN2@PrepareOp
$LN10@PrepareOp:

; 3217 :     case T_UNARY_OPERATOR:
; 3218 :         switch ( oper->tokval ) {

	mov	rax, QWORD PTR oper$[rsp]
	mov	eax, DWORD PTR [rax+16]
	mov	DWORD PTR tv151[rsp], eax
	cmp	DWORD PTR tv151[rsp], 229		; 000000e5H
	je	SHORT $LN11@PrepareOp
	cmp	DWORD PTR tv151[rsp], 242		; 000000f2H
	je	SHORT $LN11@PrepareOp
	jmp	SHORT $LN4@PrepareOp
$LN11@PrepareOp:

; 3219 :         case T_OPATTR:
; 3220 :         case T_DOT_TYPE:
; 3221 :             DebugMsg(("PrepareOp: OPATTR operator found, old.sym=%X, old.type=%s, expr=%s\n",

	mov	rax, QWORD PTR old$[rsp]
	cmp	QWORD PTR [rax+96], 0
	je	SHORT $LN15@PrepareOp
	mov	rax, QWORD PTR old$[rsp]
	mov	rax, QWORD PTR [rax+96]
	mov	rax, QWORD PTR [rax+8]
	mov	QWORD PTR tv162[rsp], rax
	jmp	SHORT $LN16@PrepareOp
$LN15@PrepareOp:
	lea	rax, OFFSET FLAT:$SG12264
	mov	QWORD PTR tv162[rsp], rax
$LN16@PrepareOp:
	mov	rax, QWORD PTR oper$[rsp]
	mov	rcx, QWORD PTR [rax+8]
	call	strlen
	mov	rcx, QWORD PTR oper$[rsp]
	add	rax, QWORD PTR [rcx+24]
	mov	r9, rax
	mov	r8, QWORD PTR tv162[rsp]
	mov	rax, QWORD PTR old$[rsp]
	mov	rdx, QWORD PTR [rax+80]
	lea	rcx, OFFSET FLAT:$SG12265
	call	DoDebugMsg

; 3222 :                       old->sym, (old->type ? old->type->name : "NULL" ), oper->tokpos + strlen( oper->string_ptr ) ));
; 3223 :             opnd->is_opattr = TRUE;

	mov	rax, QWORD PTR opnd$[rsp]
	mov	eax, DWORD PTR [rax+76]
	or	eax, 16
	mov	rcx, QWORD PTR opnd$[rsp]
	mov	DWORD PTR [rcx+76], eax
$LN4@PrepareOp:
$LN2@PrepareOp:

; 3224 :             break;
; 3225 :         }
; 3226 :         break;
; 3227 :     }
; 3228 : }

	add	rsp, 64					; 00000040H
	pop	rdi
	ret	0
PrepareOp ENDP
_TEXT	ENDS
; Function compile flags: /Odtp /RTCsu
; File d:\hjwasm\hjwasm2.13.1s\hjwasm2.13.1s\expreval.c
_TEXT	SEGMENT
temp$ = 96
sym$ = 104
name$ = 112
tv92 = 120
tv322 = 124
tv341 = 128
tv347 = 136
tv353 = 144
tv359 = 152
tv502 = 160
tv545 = 168
tv561 = 172
tv578 = 176
tv584 = 180
tv590 = 184
tv596 = 188
tv602 = 192
tv1355 = 200
tv1367 = 208
tv710 = 216
tv716 = 224
tv722 = 232
tv777 = 240
tv960 = 248
tv886 = 256
tv909 = 264
tv930 = 272
tv936 = 280
opnd1$ = 304
opnd2$ = 312
oper$ = 320
calculate PROC

; 2587 : {

	mov	QWORD PTR [rsp+24], r8
	mov	QWORD PTR [rsp+16], rdx
	mov	QWORD PTR [rsp+8], rcx
	push	rdi
	sub	rsp, 288				; 00000120H
	mov	rdi, rsp
	mov	ecx, 72					; 00000048H
	mov	eax, -858993460				; ccccccccH
	rep stosd
	mov	rcx, QWORD PTR [rsp+304]

; 2588 :     int_32              temp;
; 2589 :     struct asym         *sym;
; 2590 :     char                *name;
; 2591 : 
; 2592 :     /* avoid to use the <string> member once it's part of an expression!
; 2593 :      * the <value> member is the one to be used then.
; 2594 :      * test case: db "a"+80h
; 2595 :      * v2.08: first: this is too early; second: the current operand is opnd2.
; 2596 :      * third: the space is also used by float_tok member, which cannot be cleared.
; 2597 :      * probably the best solution - at calculate()'s end:
; 2598 :      * if ( opnd1->kind == EXPR_CONST ) opnd1->quoted_string = NULL;
; 2599 :      */
; 2600 :     opnd1->quoted_string = NULL;

	mov	rax, QWORD PTR opnd1$[rsp]
	mov	QWORD PTR [rax+16], 0

; 2601 : 
; 2602 :     /* v2.11: added check to ensure constant fits in 64-bits */
; 2603 :     if ( opnd2->hlvalue ) {

	mov	rax, QWORD PTR opnd2$[rsp]
	cmp	QWORD PTR [rax+8], 0
	je	$LN8@calculate

; 2604 :         /* opattr and unary +/- are ok, they can handle 128-bits */
; 2605 :         if ( opnd2->is_opattr || ( ( oper->token == '+' || oper->token == '-' ) && oper->specval == UNARY_PLUSMINUS ) )

	mov	rax, QWORD PTR opnd2$[rsp]
	mov	eax, DWORD PTR [rax+76]
	shr	eax, 4
	and	eax, 1
	test	eax, eax
	jne	SHORT $LN11@calculate
	mov	rax, QWORD PTR oper$[rsp]
	movzx	eax, BYTE PTR [rax]
	cmp	eax, 43					; 0000002bH
	je	SHORT $LN12@calculate
	mov	rax, QWORD PTR oper$[rsp]
	movzx	eax, BYTE PTR [rax]
	cmp	eax, 45					; 0000002dH
	jne	SHORT $LN9@calculate
$LN12@calculate:
	mov	rax, QWORD PTR oper$[rsp]
	movsx	eax, BYTE PTR [rax+1]
	test	eax, eax
	jne	SHORT $LN9@calculate
$LN11@calculate:

; 2606 :             ;

	jmp	SHORT $LN10@calculate
$LN9@calculate:

; 2607 :         else {
; 2608 :             DebugMsg(("%u calculate(%s): value too large\n", evallvl, oper->string_ptr ));

	mov	rax, QWORD PTR oper$[rsp]
	mov	r8, QWORD PTR [rax+8]
	mov	edx, DWORD PTR evallvl
	lea	rcx, OFFSET FLAT:$SG12074
	call	DoDebugMsg

; 2609 :             return( fnEmitErr( CONSTANT_VALUE_TOO_LARGE_EX, opnd2->hlvalue, opnd2->value64 ) );

	mov	rax, QWORD PTR opnd2$[rsp]
	mov	r8, QWORD PTR [rax]
	mov	rax, QWORD PTR opnd2$[rsp]
	mov	rdx, QWORD PTR [rax+8]
	mov	ecx, 272				; 00000110H
	call	QWORD PTR fnEmitErr
	jmp	$LN1@calculate
$LN10@calculate:
$LN8@calculate:

; 2610 :         }
; 2611 :     }
; 2612 : 
; 2613 :     switch( oper->token ) {

	mov	rax, QWORD PTR oper$[rsp]
	movzx	eax, BYTE PTR [rax]
	mov	DWORD PTR tv92[rsp], eax
	mov	eax, DWORD PTR tv92[rsp]
	sub	eax, 4
	mov	DWORD PTR tv92[rsp], eax
	cmp	DWORD PTR tv92[rsp], 87			; 00000057H
	ja	$LN133@calculate
	movsxd	rax, DWORD PTR tv92[rsp]
	lea	rcx, OFFSET FLAT:__ImageBase
	movzx	eax, BYTE PTR $LN179@calculate[rcx+rax]
	mov	eax, DWORD PTR $LN180@calculate[rcx+rax*4]
	add	rax, rcx
	jmp	rax
$LN13@calculate:

; 2614 :     case T_OP_SQ_BRACKET:
; 2615 :         /* v2.07: the ASSUMEs are now checked only when operator [] is done.
; 2616 :          * this is compatible with Masm:
; 2617 :          *   assume ebx:ptr <struct>
; 2618 :          *   mov eax, [ebx.<member>]             ;is to fail
; 2619 :          *   mov eax, [ebx.<struct>.<member>]    ;is to be ok
; 2620 :          * previously both variants were accepted by jwasm.
; 2621 :          */
; 2622 :         if ( opnd2->assumecheck == TRUE ) {

	mov	rax, QWORD PTR opnd2$[rsp]
	mov	eax, DWORD PTR [rax+76]
	shr	eax, 6
	and	eax, 1
	cmp	eax, 1
	jne	SHORT $LN14@calculate

; 2623 :             opnd2->assumecheck = FALSE;   /* check ONE time only! */

	mov	rax, QWORD PTR opnd2$[rsp]
	mov	eax, DWORD PTR [rax+76]
	and	eax, -65				; ffffffbfH
	mov	rcx, QWORD PTR opnd2$[rsp]
	mov	DWORD PTR [rcx+76], eax

; 2624 :             if ( opnd1->sym == NULL ) /* v2.10: added; see assume10.asm */

	mov	rax, QWORD PTR opnd1$[rsp]
	cmp	QWORD PTR [rax+80], 0
	jne	SHORT $LN15@calculate

; 2625 :                 CheckAssume( opnd2 );

	mov	rcx, QWORD PTR opnd2$[rsp]
	call	CheckAssume
$LN15@calculate:
$LN14@calculate:

; 2626 :         }
; 2627 : 
; 2628 :         if ( opnd1->kind == EXPR_EMPTY ) {

	mov	rax, QWORD PTR opnd1$[rsp]
	cmp	DWORD PTR [rax+60], -2
	jne	$LN16@calculate

; 2629 :             DebugMsg1(("%u calculate(%s): single item\n", evallvl, oper->string_ptr ));

	mov	rax, QWORD PTR oper$[rsp]
	mov	r8, QWORD PTR [rax+8]
	mov	edx, DWORD PTR evallvl
	lea	rcx, OFFSET FLAT:$SG12079
	call	DoDebugMsg1

; 2630 :             TokenAssign( opnd1, opnd2 );

	mov	rdx, QWORD PTR opnd2$[rsp]
	mov	rcx, QWORD PTR opnd1$[rsp]
	call	TokenAssign

; 2631 :             opnd1->type = opnd2->type;

	mov	rax, QWORD PTR opnd1$[rsp]
	mov	rcx, QWORD PTR opnd2$[rsp]
	mov	rcx, QWORD PTR [rcx+96]
	mov	QWORD PTR [rax+96], rcx

; 2632 :             if ( opnd1->is_type && opnd1->kind == EXPR_CONST )

	mov	rax, QWORD PTR opnd1$[rsp]
	mov	eax, DWORD PTR [rax+76]
	shr	eax, 3
	and	eax, 1
	test	eax, eax
	je	SHORT $LN17@calculate
	mov	rax, QWORD PTR opnd1$[rsp]
	cmp	DWORD PTR [rax+60], 0
	jne	SHORT $LN17@calculate

; 2633 :                 opnd1->is_type = 0;

	mov	rax, QWORD PTR opnd1$[rsp]
	mov	eax, DWORD PTR [rax+76]
	and	eax, -9					; fffffff7H
	mov	rcx, QWORD PTR opnd1$[rsp]
	mov	DWORD PTR [rcx+76], eax
$LN17@calculate:

; 2634 :             break;

	jmp	$LN2@calculate
$LN16@calculate:

; 2635 :         }
; 2636 : 
; 2637 :         /* v2.03: make HJWasm reject syntax variants
; 2638 :          * "mov eax, DWORD [EBX]"
; 2639 :          * "mov eax, DWORD [var_name]"
; 2640 :          * variants still valid:
; 2641 :          * "mov eax, DWORD [WORD]"
; 2642 :          * "mov eax, DWORD [4]"
; 2643 :          * "mov eax, [DWORD][EBX]"
; 2644 :          */
; 2645 :         /* v2.08: structure/union names are ok: mov eax, S1[ebx] */
; 2646 :         //if ( opnd1->is_type == TRUE &&
; 2647 :         if ( opnd1->is_type == TRUE && opnd1->type == NULL &&

	mov	rax, QWORD PTR opnd1$[rsp]
	mov	eax, DWORD PTR [rax+76]
	shr	eax, 3
	and	eax, 1
	cmp	eax, 1
	jne	SHORT $LN18@calculate
	mov	rax, QWORD PTR opnd1$[rsp]
	cmp	QWORD PTR [rax+96], 0
	jne	SHORT $LN18@calculate
	mov	rax, QWORD PTR opnd2$[rsp]
	cmp	DWORD PTR [rax+60], 1
	je	SHORT $LN19@calculate
	mov	rax, QWORD PTR opnd2$[rsp]
	cmp	DWORD PTR [rax+60], 2
	jne	SHORT $LN18@calculate
$LN19@calculate:

; 2648 :             (opnd2->kind == EXPR_ADDR || opnd2->kind == EXPR_REG ) ) {
; 2649 :             DebugMsg(("calculate(%s): incompatible usage of (simple) type\n", oper->string_ptr ));

	mov	rax, QWORD PTR oper$[rsp]
	mov	rdx, QWORD PTR [rax+8]
	lea	rcx, OFFSET FLAT:$SG12083
	call	DoDebugMsg

; 2650 :             return( fnEmitErr( SYNTAX_ERROR_IN_EXPRESSION ) );

	mov	ecx, 263				; 00000107H
	call	QWORD PTR fnEmitErr
	jmp	$LN1@calculate
$LN18@calculate:

; 2651 :         }
; 2652 : 
; 2653 :         /* v2.08: moved here from get_operand() */
; 2654 :         if ( opnd1->base_reg && opnd1->base_reg->tokval == T_ST )

	mov	rax, QWORD PTR opnd1$[rsp]
	cmp	QWORD PTR [rax+24], 0
	je	SHORT $LN20@calculate
	mov	rax, QWORD PTR opnd1$[rsp]
	mov	rax, QWORD PTR [rax+24]
	cmp	DWORD PTR [rax+16], 31
	jne	SHORT $LN20@calculate

; 2655 :             return( check_streg( opnd1, opnd2 ) );

	mov	rdx, QWORD PTR opnd2$[rsp]
	mov	rcx, QWORD PTR opnd1$[rsp]
	call	check_streg
	jmp	$LN1@calculate
$LN20@calculate:

; 2656 : 
; 2657 : #ifdef DEBUG_OUT
; 2658 :         if ( plus_op( opnd1, opnd2 ) == ERROR )

	mov	rdx, QWORD PTR opnd2$[rsp]
	mov	rcx, QWORD PTR opnd1$[rsp]
	call	plus_op
	cmp	eax, -1
	jne	SHORT $LN21@calculate

; 2659 :             return( ERROR );

	mov	eax, -1
	jmp	$LN1@calculate
$LN21@calculate:

; 2660 :         break;

	jmp	$LN2@calculate
$LN22@calculate:

; 2661 : #else
; 2662 :         return( plus_op( opnd1, opnd2 ) );
; 2663 : #endif
; 2664 :     case T_OP_BRACKET:
; 2665 : 
; 2666 :         if ( opnd1->kind == EXPR_EMPTY ) {

	mov	rax, QWORD PTR opnd1$[rsp]
	cmp	DWORD PTR [rax+60], -2
	jne	SHORT $LN23@calculate

; 2667 :             DebugMsg1(("%u calculate(%s): single item\n", evallvl, oper->string_ptr ));

	mov	rax, QWORD PTR oper$[rsp]
	mov	r8, QWORD PTR [rax+8]
	mov	edx, DWORD PTR evallvl
	lea	rcx, OFFSET FLAT:$SG12088
	call	DoDebugMsg1

; 2668 :             TokenAssign( opnd1, opnd2 );

	mov	rdx, QWORD PTR opnd2$[rsp]
	mov	rcx, QWORD PTR opnd1$[rsp]
	call	TokenAssign

; 2669 :             opnd1->type = opnd2->type;

	mov	rax, QWORD PTR opnd1$[rsp]
	mov	rcx, QWORD PTR opnd2$[rsp]
	mov	rcx, QWORD PTR [rcx+96]
	mov	QWORD PTR [rax+96], rcx

; 2670 :             break;

	jmp	$LN2@calculate
$LN23@calculate:

; 2671 :         }
; 2672 :         /* v2.03: make HJWasm reject syntax variants
; 2673 :          * "mov eax, DWORD (<label>)"
; 2674 :          */
; 2675 :         if ( opnd1->is_type == TRUE && opnd2->kind == EXPR_ADDR ) {

	mov	rax, QWORD PTR opnd1$[rsp]
	mov	eax, DWORD PTR [rax+76]
	shr	eax, 3
	and	eax, 1
	cmp	eax, 1
	jne	SHORT $LN24@calculate
	mov	rax, QWORD PTR opnd2$[rsp]
	cmp	DWORD PTR [rax+60], 1
	jne	SHORT $LN24@calculate

; 2676 :             DebugMsg(("calculate(%s): incompatible usage of (simple) type\n", oper->string_ptr ));

	mov	rax, QWORD PTR oper$[rsp]
	mov	rdx, QWORD PTR [rax+8]
	lea	rcx, OFFSET FLAT:$SG12090
	call	DoDebugMsg

; 2677 :             return( fnEmitErr( SYNTAX_ERROR_IN_EXPRESSION ) );

	mov	ecx, 263				; 00000107H
	call	QWORD PTR fnEmitErr
	jmp	$LN1@calculate
$LN24@calculate:

; 2678 :         }
; 2679 : 
; 2680 :         /* v2.08: moved here from get_operand() */
; 2681 :         if ( opnd1->base_reg && opnd1->base_reg->tokval == T_ST )

	mov	rax, QWORD PTR opnd1$[rsp]
	cmp	QWORD PTR [rax+24], 0
	je	SHORT $LN25@calculate
	mov	rax, QWORD PTR opnd1$[rsp]
	mov	rax, QWORD PTR [rax+24]
	cmp	DWORD PTR [rax+16], 31
	jne	SHORT $LN25@calculate

; 2682 :             return( check_streg( opnd1, opnd2 ) );

	mov	rdx, QWORD PTR opnd2$[rsp]
	mov	rcx, QWORD PTR opnd1$[rsp]
	call	check_streg
	jmp	$LN1@calculate
$LN25@calculate:

; 2683 : 
; 2684 :         DebugMsg1(("calculate(%s): calling plus_op()\n", oper->string_ptr ));

	mov	rax, QWORD PTR oper$[rsp]
	mov	rdx, QWORD PTR [rax+8]
	lea	rcx, OFFSET FLAT:$SG12092
	call	DoDebugMsg1

; 2685 : #ifdef DEBUG_OUT
; 2686 :         if ( plus_op( opnd1, opnd2 ) == ERROR )

	mov	rdx, QWORD PTR opnd2$[rsp]
	mov	rcx, QWORD PTR opnd1$[rsp]
	call	plus_op
	cmp	eax, -1
	jne	SHORT $LN26@calculate

; 2687 :             return( ERROR );

	mov	eax, -1
	jmp	$LN1@calculate
$LN26@calculate:

; 2688 :         break;

	jmp	$LN2@calculate
$LN27@calculate:

; 2689 : #else
; 2690 :         return( plus_op( opnd1, opnd2 ) );
; 2691 : #endif
; 2692 :     case '+':
; 2693 :         if ( oper->specval == UNARY_PLUSMINUS ) /* unary op? */

	mov	rax, QWORD PTR oper$[rsp]
	movsx	eax, BYTE PTR [rax+1]
	test	eax, eax
	jne	SHORT $LN28@calculate

; 2694 :             return( positive_op( opnd1, opnd2 ) );

	mov	rdx, QWORD PTR opnd2$[rsp]
	mov	rcx, QWORD PTR opnd1$[rsp]
	call	positive_op
	jmp	$LN1@calculate
$LN28@calculate:

; 2695 : #ifdef DEBUG_OUT
; 2696 :         if ( plus_op( opnd1, opnd2 ) == ERROR )

	mov	rdx, QWORD PTR opnd2$[rsp]
	mov	rcx, QWORD PTR opnd1$[rsp]
	call	plus_op
	cmp	eax, -1
	jne	SHORT $LN29@calculate

; 2697 :             return( ERROR );

	mov	eax, -1
	jmp	$LN1@calculate
$LN29@calculate:

; 2698 :         break;

	jmp	$LN2@calculate
$LN30@calculate:

; 2699 : #else
; 2700 :         return( plus_op( opnd1, opnd2 ) );
; 2701 : #endif
; 2702 :     case '-':
; 2703 :         if ( oper->specval == UNARY_PLUSMINUS ) /* unary op? */

	mov	rax, QWORD PTR oper$[rsp]
	movsx	eax, BYTE PTR [rax+1]
	test	eax, eax
	jne	SHORT $LN31@calculate

; 2704 :             return( negative_op( opnd1, opnd2 ) );

	mov	rdx, QWORD PTR opnd2$[rsp]
	mov	rcx, QWORD PTR opnd1$[rsp]
	call	negative_op
	jmp	$LN1@calculate
$LN31@calculate:

; 2705 : #ifdef DEBUG_OUT
; 2706 :         if ( minus_op( opnd1, opnd2 ) == ERROR )

	mov	rdx, QWORD PTR opnd2$[rsp]
	mov	rcx, QWORD PTR opnd1$[rsp]
	call	minus_op
	cmp	eax, -1
	jne	SHORT $LN32@calculate

; 2707 :             return( ERROR );

	mov	eax, -1
	jmp	$LN1@calculate
$LN32@calculate:

; 2708 :         break;

	jmp	$LN2@calculate
$LN33@calculate:

; 2709 : #else
; 2710 :         return( minus_op( opnd1, opnd2 ) );
; 2711 : #endif
; 2712 :     case T_DOT:
; 2713 : #ifdef DEBUG_OUT
; 2714 :         if ( dot_op( opnd1, opnd2 ) == ERROR )

	mov	rdx, QWORD PTR opnd2$[rsp]
	mov	rcx, QWORD PTR opnd1$[rsp]
	call	dot_op
	cmp	eax, -1
	jne	SHORT $LN34@calculate

; 2715 :             return( ERROR );

	mov	eax, -1
	jmp	$LN1@calculate
$LN34@calculate:

; 2716 :         break;

	jmp	$LN2@calculate
$LN35@calculate:

; 2717 : #else
; 2718 :         return( dot_op( opnd1, opnd2 ) );
; 2719 : #endif
; 2720 :     case T_COLON:
; 2721 : #ifdef DEBUG_OUT
; 2722 :         if ( colon_op( opnd1, opnd2 ) == ERROR )

	mov	rdx, QWORD PTR opnd2$[rsp]
	mov	rcx, QWORD PTR opnd1$[rsp]
	call	colon_op
	cmp	eax, -1
	jne	SHORT $LN36@calculate

; 2723 :             return( ERROR );

	mov	eax, -1
	jmp	$LN1@calculate
$LN36@calculate:

; 2724 :         break;

	jmp	$LN2@calculate
$LN37@calculate:

; 2725 : #else
; 2726 :         return( colon_op( opnd1, opnd2 ) );
; 2727 : #endif
; 2728 :     case '*':
; 2729 :         /*
; 2730 :          * The only formats allowed are:
; 2731 :          *        constant * constant
; 2732 :          *        register * scaling factor ( 1, 2, 4 or 8 )
; 2733 :          *                   386 only
; 2734 :          */
; 2735 :         DebugMsg1(("calculate(*): kind=%d/%d value=%" I64_SPEC "d-%" I64_SPEC "d mbr=%X-%X\n",

	mov	rax, QWORD PTR opnd2$[rsp]
	mov	rax, QWORD PTR [rax+88]
	mov	QWORD PTR [rsp+48], rax
	mov	rax, QWORD PTR opnd1$[rsp]
	mov	rax, QWORD PTR [rax+88]
	mov	QWORD PTR [rsp+40], rax
	mov	rax, QWORD PTR opnd2$[rsp]
	mov	rax, QWORD PTR [rax]
	mov	QWORD PTR [rsp+32], rax
	mov	rax, QWORD PTR opnd1$[rsp]
	mov	r9, QWORD PTR [rax]
	mov	rax, QWORD PTR opnd2$[rsp]
	mov	r8d, DWORD PTR [rax+60]
	mov	rax, QWORD PTR opnd1$[rsp]
	mov	edx, DWORD PTR [rax+60]
	lea	rcx, OFFSET FLAT:$SG12105
	call	DoDebugMsg1

; 2736 :                    opnd1->kind,    opnd2->kind,
; 2737 :                    opnd1->value64, opnd2->value64,
; 2738 :                    opnd1->mbr,     opnd2->mbr ));
; 2739 : 
; 2740 :         MakeConst( opnd1 );

	mov	rcx, QWORD PTR opnd1$[rsp]
	call	MakeConst

; 2741 :         MakeConst( opnd2 );

	mov	rcx, QWORD PTR opnd2$[rsp]
	call	MakeConst

; 2742 : 
; 2743 :         if( check_same( opnd1, opnd2, EXPR_CONST ) ) {

	mov	rax, QWORD PTR opnd1$[rsp]
	cmp	DWORD PTR [rax+60], 0
	jne	SHORT $LN38@calculate
	mov	rax, QWORD PTR opnd2$[rsp]
	cmp	DWORD PTR [rax+60], 0
	jne	SHORT $LN38@calculate

; 2744 :             opnd1->llvalue *= opnd2->llvalue;

	mov	rax, QWORD PTR opnd1$[rsp]
	mov	rcx, QWORD PTR opnd2$[rsp]
	mov	rax, QWORD PTR [rax]
	imul	rax, QWORD PTR [rcx]
	mov	rcx, QWORD PTR opnd1$[rsp]
	mov	QWORD PTR [rcx], rax
	jmp	$LN39@calculate
$LN38@calculate:

; 2745 :         } else if( check_both( opnd1, opnd2, EXPR_REG, EXPR_CONST ) ) {

	xor	r9d, r9d
	mov	r8d, 2
	mov	rdx, QWORD PTR opnd2$[rsp]
	mov	rcx, QWORD PTR opnd1$[rsp]
	call	check_both
	movzx	eax, al
	test	eax, eax
	je	$LN40@calculate

; 2746 :             if( check_direct_reg( opnd1, opnd2 ) == ERROR ) {

	mov	rdx, QWORD PTR opnd2$[rsp]
	mov	rcx, QWORD PTR opnd1$[rsp]
	call	check_direct_reg
	cmp	eax, -1
	jne	SHORT $LN42@calculate

; 2747 :                 DebugMsg(("calculate(*) error direct register\n"));

	lea	rcx, OFFSET FLAT:$SG12111
	call	DoDebugMsg

; 2748 :                 return( fnEmitErr( INVALID_USE_OF_REGISTER ) );

	mov	ecx, 170				; 000000aaH
	call	QWORD PTR fnEmitErr
	jmp	$LN1@calculate
$LN42@calculate:

; 2749 :             }
; 2750 :             /* scaling factor */
; 2751 :             if( opnd2->kind == EXPR_REG ) {

	mov	rax, QWORD PTR opnd2$[rsp]
	cmp	DWORD PTR [rax+60], 2
	jne	SHORT $LN43@calculate

; 2752 :                 /* scale * reg */
; 2753 :                 opnd1->idx_reg = opnd2->base_reg;

	mov	rax, QWORD PTR opnd1$[rsp]
	mov	rcx, QWORD PTR opnd2$[rsp]
	mov	rcx, QWORD PTR [rcx+24]
	mov	QWORD PTR [rax+32], rcx

; 2754 :                 opnd1->scale = opnd1->value;

	mov	rax, QWORD PTR opnd1$[rsp]
	mov	rcx, QWORD PTR opnd1$[rsp]
	movzx	ecx, BYTE PTR [rcx]
	mov	BYTE PTR [rax+68], cl

; 2755 :                 opnd1->value = 0;

	mov	rax, QWORD PTR opnd1$[rsp]
	mov	DWORD PTR [rax], 0

; 2756 :                 //opnd2->base_reg = NULL;
; 2757 :             } else {

	jmp	SHORT $LN44@calculate
$LN43@calculate:

; 2758 :                 /* reg * scale */
; 2759 :                 opnd1->idx_reg = opnd1->base_reg;

	mov	rax, QWORD PTR opnd1$[rsp]
	mov	rcx, QWORD PTR opnd1$[rsp]
	mov	rcx, QWORD PTR [rcx+24]
	mov	QWORD PTR [rax+32], rcx

; 2760 :                 opnd1->scale = opnd2->value;

	mov	rax, QWORD PTR opnd1$[rsp]
	mov	rcx, QWORD PTR opnd2$[rsp]
	movzx	ecx, BYTE PTR [rcx]
	mov	BYTE PTR [rax+68], cl
$LN44@calculate:

; 2761 :             }
; 2762 :             /* v2.08: check 0 (the default value) here */
; 2763 :             if ( opnd1->scale == 0 ) {

	mov	rax, QWORD PTR opnd1$[rsp]
	movzx	eax, BYTE PTR [rax+68]
	test	eax, eax
	jne	SHORT $LN45@calculate

; 2764 :                 return( fnEmitErr( SCALE_FACTOR_MUST_BE_1_2_4_OR_8 ) );

	mov	ecx, 36					; 00000024H
	call	QWORD PTR fnEmitErr
	jmp	$LN1@calculate
$LN45@calculate:

; 2765 :             }
; 2766 : 
; 2767 :             opnd1->base_reg = NULL;

	mov	rax, QWORD PTR opnd1$[rsp]
	mov	QWORD PTR [rax+24], 0

; 2768 :             opnd1->indirect = TRUE;

	mov	rax, QWORD PTR opnd1$[rsp]
	mov	eax, DWORD PTR [rax+76]
	or	eax, 1
	mov	rcx, QWORD PTR opnd1$[rsp]
	mov	DWORD PTR [rcx+76], eax

; 2769 :             opnd1->kind = EXPR_ADDR;

	mov	rax, QWORD PTR opnd1$[rsp]
	mov	DWORD PTR [rax+60], 1

; 2770 :         } else {

	jmp	SHORT $LN41@calculate
$LN40@calculate:

; 2771 :             DebugMsg(("calculate(*) error 2\n"));

	lea	rcx, OFFSET FLAT:$SG12115
	call	DoDebugMsg

; 2772 :             return( ConstError( opnd1, opnd2 ) );

	mov	rdx, QWORD PTR opnd2$[rsp]
	mov	rcx, QWORD PTR opnd1$[rsp]
	call	ConstError
	jmp	$LN1@calculate
$LN41@calculate:
$LN39@calculate:

; 2773 :         }
; 2774 :         break;

	jmp	$LN2@calculate
$LN46@calculate:

; 2775 :     case '/':
; 2776 :         /*
; 2777 :          * The only formats allowed are:
; 2778 :          *        constant / constant
; 2779 :          */
; 2780 :         DebugMsg1(("calculate(/): t1-t2 kind %u-%u values %" I64_SPEC "d-%" I64_SPEC "d\n",

	mov	rax, QWORD PTR opnd2$[rsp]
	mov	rax, QWORD PTR [rax]
	mov	QWORD PTR [rsp+32], rax
	mov	rax, QWORD PTR opnd1$[rsp]
	mov	r9, QWORD PTR [rax]
	mov	rax, QWORD PTR opnd2$[rsp]
	mov	r8d, DWORD PTR [rax+60]
	mov	rax, QWORD PTR opnd1$[rsp]
	mov	edx, DWORD PTR [rax+60]
	lea	rcx, OFFSET FLAT:$SG12117
	call	DoDebugMsg1

; 2781 :                    opnd1->kind,    opnd2->kind,
; 2782 :                    opnd1->value64, opnd2->value64 ));
; 2783 :         MakeConst( opnd1 );

	mov	rcx, QWORD PTR opnd1$[rsp]
	call	MakeConst

; 2784 :         MakeConst( opnd2 );

	mov	rcx, QWORD PTR opnd2$[rsp]
	call	MakeConst

; 2785 : 
; 2786 :         if( check_same( opnd1, opnd2, EXPR_CONST ) == FALSE ) {

	mov	rax, QWORD PTR opnd1$[rsp]
	cmp	DWORD PTR [rax+60], 0
	jne	SHORT $LN139@calculate
	mov	rax, QWORD PTR opnd2$[rsp]
	cmp	DWORD PTR [rax+60], 0
	jne	SHORT $LN139@calculate
	mov	DWORD PTR tv322[rsp], 1
	jmp	SHORT $LN140@calculate
$LN139@calculate:
	mov	DWORD PTR tv322[rsp], 0
$LN140@calculate:
	cmp	DWORD PTR tv322[rsp], 0
	jne	SHORT $LN47@calculate

; 2787 :             DebugMsg(("calculate(/) error 1\n"));

	lea	rcx, OFFSET FLAT:$SG12119
	call	DoDebugMsg

; 2788 :             return( ConstError( opnd1, opnd2 ) );

	mov	rdx, QWORD PTR opnd2$[rsp]
	mov	rcx, QWORD PTR opnd1$[rsp]
	call	ConstError
	jmp	$LN1@calculate
$LN47@calculate:

; 2789 :         }
; 2790 : 
; 2791 :         if ( opnd2->llvalue == 0 ) {

	mov	rax, QWORD PTR opnd2$[rsp]
	cmp	QWORD PTR [rax], 0
	jne	SHORT $LN48@calculate

; 2792 :             DebugMsg(("calculate(/) error 2\n"));

	lea	rcx, OFFSET FLAT:$SG12121
	call	DoDebugMsg

; 2793 :             return( fnEmitErr( DIVIDE_BY_ZERO_IN_EXPR ) );

	mov	ecx, 167				; 000000a7H
	call	QWORD PTR fnEmitErr
	jmp	$LN1@calculate
$LN48@calculate:

; 2794 :         }
; 2795 : 
; 2796 :         opnd1->value64 /= opnd2->value64;

	mov	rax, QWORD PTR opnd1$[rsp]
	mov	rax, QWORD PTR [rax]
	cdq
	mov	rcx, QWORD PTR opnd2$[rsp]
	idiv	QWORD PTR [rcx]
	mov	rcx, QWORD PTR opnd1$[rsp]
	mov	QWORD PTR [rcx], rax

; 2797 :         break;

	jmp	$LN2@calculate
$LN49@calculate:

; 2798 :     case T_BINARY_OPERATOR:
; 2799 :         DebugMsg1(("calculate(%s [T_BINARY_OPERATOR] ): t1-t2 kind %d/%d memtype %X-%X sym %s-%s type %s-%s\n",

	mov	rax, QWORD PTR opnd2$[rsp]
	cmp	QWORD PTR [rax+96], 0
	je	SHORT $LN141@calculate
	mov	rax, QWORD PTR opnd2$[rsp]
	mov	rax, QWORD PTR [rax+96]
	mov	rax, QWORD PTR [rax+8]
	mov	QWORD PTR tv341[rsp], rax
	jmp	SHORT $LN142@calculate
$LN141@calculate:
	lea	rax, OFFSET FLAT:$SG12123
	mov	QWORD PTR tv341[rsp], rax
$LN142@calculate:
	mov	rax, QWORD PTR opnd1$[rsp]
	cmp	QWORD PTR [rax+96], 0
	je	SHORT $LN143@calculate
	mov	rax, QWORD PTR opnd1$[rsp]
	mov	rax, QWORD PTR [rax+96]
	mov	rax, QWORD PTR [rax+8]
	mov	QWORD PTR tv347[rsp], rax
	jmp	SHORT $LN144@calculate
$LN143@calculate:
	lea	rax, OFFSET FLAT:$SG12124
	mov	QWORD PTR tv347[rsp], rax
$LN144@calculate:
	mov	rax, QWORD PTR opnd2$[rsp]
	cmp	QWORD PTR [rax+80], 0
	je	SHORT $LN145@calculate
	mov	rax, QWORD PTR opnd2$[rsp]
	mov	rax, QWORD PTR [rax+80]
	mov	rax, QWORD PTR [rax+8]
	mov	QWORD PTR tv353[rsp], rax
	jmp	SHORT $LN146@calculate
$LN145@calculate:
	lea	rax, OFFSET FLAT:$SG12125
	mov	QWORD PTR tv353[rsp], rax
$LN146@calculate:
	mov	rax, QWORD PTR opnd1$[rsp]
	cmp	QWORD PTR [rax+80], 0
	je	SHORT $LN147@calculate
	mov	rax, QWORD PTR opnd1$[rsp]
	mov	rax, QWORD PTR [rax+80]
	mov	rax, QWORD PTR [rax+8]
	mov	QWORD PTR tv359[rsp], rax
	jmp	SHORT $LN148@calculate
$LN147@calculate:
	lea	rax, OFFSET FLAT:$SG12126
	mov	QWORD PTR tv359[rsp], rax
$LN148@calculate:
	mov	rax, QWORD PTR tv341[rsp]
	mov	QWORD PTR [rsp+72], rax
	mov	rax, QWORD PTR tv347[rsp]
	mov	QWORD PTR [rsp+64], rax
	mov	rax, QWORD PTR tv353[rsp]
	mov	QWORD PTR [rsp+56], rax
	mov	rax, QWORD PTR tv359[rsp]
	mov	QWORD PTR [rsp+48], rax
	mov	rax, QWORD PTR opnd2$[rsp]
	mov	eax, DWORD PTR [rax+64]
	mov	DWORD PTR [rsp+40], eax
	mov	rax, QWORD PTR opnd1$[rsp]
	mov	eax, DWORD PTR [rax+64]
	mov	DWORD PTR [rsp+32], eax
	mov	rax, QWORD PTR opnd2$[rsp]
	mov	r9d, DWORD PTR [rax+60]
	mov	rax, QWORD PTR opnd1$[rsp]
	mov	r8d, DWORD PTR [rax+60]
	mov	rax, QWORD PTR oper$[rsp]
	mov	rdx, QWORD PTR [rax+8]
	lea	rcx, OFFSET FLAT:$SG12127
	call	DoDebugMsg1

; 2800 :                    oper->string_ptr,
; 2801 :                    opnd1->kind, opnd2->kind,
; 2802 :                    opnd1->mem_type, opnd2->mem_type,
; 2803 :                    opnd1->sym  ? opnd1->sym->name  : "NULL",
; 2804 :                    opnd2->sym  ? opnd2->sym->name  : "NULL",
; 2805 :                    opnd1->type ? opnd1->type->name : "NULL",
; 2806 :                    opnd2->type ? opnd2->type->name : "NULL" ));
; 2807 : 
; 2808 :         if ( oper->tokval == T_PTR ) {

	mov	rax, QWORD PTR oper$[rsp]
	cmp	DWORD PTR [rax+16], 258			; 00000102H
	jne	$LN50@calculate

; 2809 :             if ( opnd1->is_type == FALSE ) {

	mov	rax, QWORD PTR opnd1$[rsp]
	mov	eax, DWORD PTR [rax+76]
	shr	eax, 3
	and	eax, 1
	test	eax, eax
	jne	$LN51@calculate

; 2810 :                 if ( opnd1->sym && opnd1->sym->state == SYM_UNDEFINED ) {

	mov	rax, QWORD PTR opnd1$[rsp]
	cmp	QWORD PTR [rax+80], 0
	je	SHORT $LN52@calculate
	mov	rax, QWORD PTR opnd1$[rsp]
	mov	rax, QWORD PTR [rax+80]
	cmp	DWORD PTR [rax+32], 0
	jne	SHORT $LN52@calculate

; 2811 :                     CreateTypeSymbol( opnd1->sym, NULL, TRUE );

	mov	r8b, 1
	xor	edx, edx
	mov	rax, QWORD PTR opnd1$[rsp]
	mov	rcx, QWORD PTR [rax+80]
	call	CreateTypeSymbol

; 2812 :                     opnd1->type = opnd1->sym;

	mov	rax, QWORD PTR opnd1$[rsp]
	mov	rcx, QWORD PTR opnd1$[rsp]
	mov	rcx, QWORD PTR [rcx+80]
	mov	QWORD PTR [rax+96], rcx

; 2813 :                     opnd1->sym = NULL;

	mov	rax, QWORD PTR opnd1$[rsp]
	mov	QWORD PTR [rax+80], 0

; 2814 :                     opnd1->is_type = TRUE;

	mov	rax, QWORD PTR opnd1$[rsp]
	mov	eax, DWORD PTR [rax+76]
	or	eax, 8
	mov	rcx, QWORD PTR opnd1$[rsp]
	mov	DWORD PTR [rcx+76], eax

; 2815 :                 } else {

	jmp	SHORT $LN53@calculate
$LN52@calculate:

; 2816 :                     DebugMsg(("calculate(PTR), error 1: t1 is_type == FALSE\n"));

	lea	rcx, OFFSET FLAT:$SG12132
	call	DoDebugMsg

; 2817 :                     return( fnEmitErr( INVALID_TYPE_EXPRESSION ) );

	mov	ecx, 179				; 000000b3H
	call	QWORD PTR fnEmitErr
	jmp	$LN1@calculate
$LN53@calculate:
$LN51@calculate:

; 2818 :                 }
; 2819 :             }
; 2820 :             opnd2->explicit = TRUE;

	mov	rax, QWORD PTR opnd2$[rsp]
	mov	eax, DWORD PTR [rax+76]
	or	eax, 2
	mov	rcx, QWORD PTR opnd2$[rsp]
	mov	DWORD PTR [rcx+76], eax

; 2821 :             /* v2.02: if operand is a register, make sure
; 2822 :              * that invalid combinations ("DWORD PTR AX") are flagged.
; 2823 :              *
; 2824 :              * v2.10: must also be checked inside []. However, it's
; 2825 :              * a problem to properly handle this case, since opnd->indirect
; 2826 :              * is just a flag.
; 2827 :              * Curr. hackish fix: to query state of assumecheck if indirect==TRUE.
; 2828 :              * Proposed "good" fix: change EXPR_REG to EXPR_ADDR in
; 2829 :              * CheckAssume(), that is, when the terminating  ']' was found.
; 2830 :              */
; 2831 :             //if ( opnd2->kind == EXPR_REG && opnd2->indirect == FALSE ) {
; 2832 :             if ( opnd2->kind == EXPR_REG && ( opnd2->indirect == FALSE || opnd2->assumecheck == TRUE ) ) {

	mov	rax, QWORD PTR opnd2$[rsp]
	cmp	DWORD PTR [rax+60], 2
	jne	$LN54@calculate
	mov	rax, QWORD PTR opnd2$[rsp]
	mov	eax, DWORD PTR [rax+76]
	and	eax, 1
	test	eax, eax
	je	SHORT $LN56@calculate
	mov	rax, QWORD PTR opnd2$[rsp]
	mov	eax, DWORD PTR [rax+76]
	shr	eax, 6
	and	eax, 1
	cmp	eax, 1
	jne	$LN54@calculate
$LN56@calculate:

; 2833 :                 temp = opnd2->base_reg->tokval;

	mov	rax, QWORD PTR opnd2$[rsp]
	mov	rax, QWORD PTR [rax+24]
	mov	eax, DWORD PTR [rax+16]
	mov	DWORD PTR temp$[rsp], eax

; 2834 :                 /* for segment registers, both size 2 and 4 is ok.*/
; 2835 :                 if ( GetValueSp( temp ) & OP_SR ) {

	movsxd	rax, DWORD PTR temp$[rsp]
	imul	rax, rax, 12
	lea	rcx, OFFSET FLAT:SpecialTable
	mov	eax, DWORD PTR [rcx+rax]
	and	eax, 24576				; 00006000H
	test	eax, eax
	je	SHORT $LN57@calculate

; 2836 :                     if ( opnd1->value != 2 && opnd1->value != 4 ) {

	mov	rax, QWORD PTR opnd1$[rsp]
	cmp	DWORD PTR [rax], 2
	je	SHORT $LN59@calculate
	mov	rax, QWORD PTR opnd1$[rsp]
	cmp	DWORD PTR [rax], 4
	je	SHORT $LN59@calculate

; 2837 :                         DebugMsg(("calculate(PTR): segment register size (=2/4) doesn't match type size (=%u)\n", opnd1->value ));

	mov	rax, QWORD PTR opnd1$[rsp]
	mov	edx, DWORD PTR [rax]
	lea	rcx, OFFSET FLAT:$SG12139
	call	DoDebugMsg

; 2838 :                         return( fnEmitErr( INVALID_USE_OF_REGISTER ) );

	mov	ecx, 170				; 000000aaH
	call	QWORD PTR fnEmitErr
	jmp	$LN1@calculate
$LN59@calculate:

; 2839 :                     }

	jmp	SHORT $LN58@calculate
$LN57@calculate:

; 2840 :                 } else if ( opnd1->value != SizeFromRegister( temp ) ) {

	mov	ecx, DWORD PTR temp$[rsp]
	call	SizeFromRegister
	mov	rcx, QWORD PTR opnd1$[rsp]
	cmp	DWORD PTR [rcx], eax
	je	SHORT $LN60@calculate

; 2841 :                     DebugMsg(("calculate(PTR): register size doesn't match type size; %u != %u\n", SizeFromRegister( temp ), opnd1->value ));

	mov	ecx, DWORD PTR temp$[rsp]
	call	SizeFromRegister
	mov	rcx, QWORD PTR opnd1$[rsp]
	mov	r8d, DWORD PTR [rcx]
	mov	edx, eax
	lea	rcx, OFFSET FLAT:$SG12141
	call	DoDebugMsg

; 2842 :                     return( fnEmitErr( INVALID_USE_OF_REGISTER ) );

	mov	ecx, 170				; 000000aaH
	call	QWORD PTR fnEmitErr
	jmp	$LN1@calculate
$LN60@calculate:
$LN58@calculate:

; 2843 :                 }

	jmp	SHORT $LN55@calculate
$LN54@calculate:

; 2844 :             } else if ( opnd2->kind == EXPR_FLOAT ) {

	mov	rax, QWORD PTR opnd2$[rsp]
	cmp	DWORD PTR [rax+60], 3
	jne	SHORT $LN61@calculate

; 2845 :                 if ( !( opnd1->mem_type & MT_FLOAT ) ) {

	mov	rax, QWORD PTR opnd1$[rsp]
	mov	eax, DWORD PTR [rax+64]
	and	eax, 32					; 00000020H
	test	eax, eax
	jne	SHORT $LN62@calculate

; 2846 :                     DebugMsg(("calculate(PTR): type memtype=%Xh ( MT_FLOAT not set, although right op is FLOAT )\n", opnd1->mem_type ));

	mov	rax, QWORD PTR opnd1$[rsp]
	mov	edx, DWORD PTR [rax+64]
	lea	rcx, OFFSET FLAT:$SG12144
	call	DoDebugMsg

; 2847 :                     return( fnEmitErr( REAL_OR_BCD_NUMBER_NOT_ALLOWED ) );

	mov	ecx, 270				; 0000010eH
	call	QWORD PTR fnEmitErr
	jmp	$LN1@calculate
$LN62@calculate:
$LN61@calculate:
$LN55@calculate:

; 2848 :                 }
; 2849 :             }
; 2850 :             opnd2->mem_type = opnd1->mem_type;

	mov	rax, QWORD PTR opnd2$[rsp]
	mov	rcx, QWORD PTR opnd1$[rsp]
	mov	ecx, DWORD PTR [rcx+64]
	mov	DWORD PTR [rax+64], ecx

; 2851 :             opnd2->Ofssize  = opnd1->Ofssize;

	mov	rax, QWORD PTR opnd2$[rsp]
	mov	rcx, QWORD PTR opnd1$[rsp]
	movzx	ecx, BYTE PTR [rcx+69]
	mov	BYTE PTR [rax+69], cl

; 2852 :             /* v2.04: added */
; 2853 :             if ( opnd2->is_type )

	mov	rax, QWORD PTR opnd2$[rsp]
	mov	eax, DWORD PTR [rax+76]
	shr	eax, 3
	and	eax, 1
	test	eax, eax
	je	SHORT $LN63@calculate

; 2854 :                 opnd2->value  = opnd1->value;

	mov	rax, QWORD PTR opnd2$[rsp]
	mov	rcx, QWORD PTR opnd1$[rsp]
	mov	ecx, DWORD PTR [rcx]
	mov	DWORD PTR [rax], ecx
$LN63@calculate:

; 2855 : 
; 2856 :             /* todo: describe which case is handled here. How is the left
; 2857 :              * operand of PTR supposed to get an override? And why is
; 2858 :              * it necessary to change kind to EXPR_ADDR here? */
; 2859 :             if ( opnd1->override != NULL ) {

	mov	rax, QWORD PTR opnd1$[rsp]
	cmp	QWORD PTR [rax+48], 0
	je	SHORT $LN64@calculate

; 2860 :                 if ( opnd2->override == NULL )

	mov	rax, QWORD PTR opnd2$[rsp]
	cmp	QWORD PTR [rax+48], 0
	jne	SHORT $LN65@calculate

; 2861 :                     opnd2->override = opnd1->override;

	mov	rax, QWORD PTR opnd2$[rsp]
	mov	rcx, QWORD PTR opnd1$[rsp]
	mov	rcx, QWORD PTR [rcx+48]
	mov	QWORD PTR [rax+48], rcx
$LN65@calculate:

; 2862 :                 opnd2->kind = EXPR_ADDR;

	mov	rax, QWORD PTR opnd2$[rsp]
	mov	DWORD PTR [rax+60], 1
$LN64@calculate:

; 2863 :             }
; 2864 :             //if ( opnd1->mbr )
; 2865 :             //    opnd2->mbr = opnd1->mbr;
; 2866 :             //if ( opnd1->sym )
; 2867 :             //    opnd2->sym = opnd1->sym;
; 2868 :             //opnd2->instr = opnd1->instr;
; 2869 : 
; 2870 :             /* note: member type isn't copied, IOW: value of opnd1->type is kept. */
; 2871 :             TokenAssign( opnd1, opnd2 );

	mov	rdx, QWORD PTR opnd2$[rsp]
	mov	rcx, QWORD PTR opnd1$[rsp]
	call	TokenAssign

; 2872 :             break;

	jmp	$LN2@calculate
$LN50@calculate:

; 2873 :         }
; 2874 : 
; 2875 :         MakeConst( opnd1 );

	mov	rcx, QWORD PTR opnd1$[rsp]
	call	MakeConst

; 2876 :         MakeConst( opnd2 );

	mov	rcx, QWORD PTR opnd2$[rsp]
	call	MakeConst

; 2877 : 
; 2878 :         if ( check_same( opnd1, opnd2, EXPR_CONST ) )

	mov	rax, QWORD PTR opnd1$[rsp]
	cmp	DWORD PTR [rax+60], 0
	jne	SHORT $LN66@calculate
	mov	rax, QWORD PTR opnd2$[rsp]
	cmp	DWORD PTR [rax+60], 0
	jne	SHORT $LN66@calculate

; 2879 :             ;

	jmp	$LN67@calculate
$LN66@calculate:

; 2880 :         /* if it's EQ, NE, LE [, ...], operands may be either constants
; 2881 :          or relocatable labels */
; 2882 :         else if ( oper->precedence == CMP_PRECEDENCE &&

	mov	rax, QWORD PTR oper$[rsp]
	movzx	eax, BYTE PTR [rax+1]
	cmp	eax, 10
	jne	$LN68@calculate
	mov	rax, QWORD PTR opnd1$[rsp]
	cmp	DWORD PTR [rax+60], 0
	je	$LN68@calculate

; 2883 :                  opnd1->kind != EXPR_CONST ) {
; 2884 :             if ( opnd1->kind == EXPR_ADDR && opnd1->indirect == FALSE && opnd1->sym )

	mov	rax, QWORD PTR opnd1$[rsp]
	cmp	DWORD PTR [rax+60], 1
	jne	$LN70@calculate
	mov	rax, QWORD PTR opnd1$[rsp]
	mov	eax, DWORD PTR [rax+76]
	and	eax, 1
	test	eax, eax
	jne	$LN70@calculate
	mov	rax, QWORD PTR opnd1$[rsp]
	cmp	QWORD PTR [rax+80], 0
	je	$LN70@calculate

; 2885 :                 if ( opnd2->kind == EXPR_ADDR && opnd2->indirect == FALSE && opnd2->sym ) {

	mov	rax, QWORD PTR opnd2$[rsp]
	cmp	DWORD PTR [rax+60], 1
	jne	SHORT $LN72@calculate
	mov	rax, QWORD PTR opnd2$[rsp]
	mov	eax, DWORD PTR [rax+76]
	and	eax, 1
	test	eax, eax
	jne	SHORT $LN72@calculate
	mov	rax, QWORD PTR opnd2$[rsp]
	cmp	QWORD PTR [rax+80], 0
	je	SHORT $LN72@calculate

; 2886 :                     if ( MakeConst2( opnd1, opnd2 ) == ERROR ) {

	mov	rdx, QWORD PTR opnd2$[rsp]
	mov	rcx, QWORD PTR opnd1$[rsp]
	call	MakeConst2
	cmp	eax, -1
	jne	SHORT $LN74@calculate

; 2887 :                         DebugMsg(("calculate(%s) error 1\n", oper->string_ptr ));

	mov	rax, QWORD PTR oper$[rsp]
	mov	rdx, QWORD PTR [rax+8]
	lea	rcx, OFFSET FLAT:$SG12157
	call	DoDebugMsg

; 2888 :                         return( ERROR );

	mov	eax, -1
	jmp	$LN1@calculate
$LN74@calculate:

; 2889 :                     }
; 2890 :                 } else {

	jmp	$LN73@calculate
$LN72@calculate:

; 2891 :                     DebugMsg(("calculate(%s) error 2, token2.kind=%d indirect=%u sym=%s\n",

	mov	rax, QWORD PTR opnd2$[rsp]
	cmp	QWORD PTR [rax+80], 0
	je	SHORT $LN149@calculate
	mov	rax, QWORD PTR opnd2$[rsp]
	mov	rax, QWORD PTR [rax+80]
	mov	rax, QWORD PTR [rax+8]
	mov	QWORD PTR tv502[rsp], rax
	jmp	SHORT $LN150@calculate
$LN149@calculate:
	lea	rax, OFFSET FLAT:$SG12158
	mov	QWORD PTR tv502[rsp], rax
$LN150@calculate:
	mov	rax, QWORD PTR opnd2$[rsp]
	mov	eax, DWORD PTR [rax+76]
	and	eax, 1
	mov	rcx, QWORD PTR tv502[rsp]
	mov	QWORD PTR [rsp+32], rcx
	mov	r9d, eax
	mov	rax, QWORD PTR opnd2$[rsp]
	mov	r8d, DWORD PTR [rax+60]
	mov	rax, QWORD PTR oper$[rsp]
	mov	rdx, QWORD PTR [rax+8]
	lea	rcx, OFFSET FLAT:$SG12159
	call	DoDebugMsg

; 2892 :                               oper->string_ptr, opnd2->kind, opnd2->indirect,
; 2893 :                               opnd2->sym ? opnd2->sym->name : "NULL" ));
; 2894 :                     return( fnEmitErr( OPERAND_MUST_BE_RELOCATABLE ) );

	mov	ecx, 188				; 000000bcH
	call	QWORD PTR fnEmitErr
	jmp	$LN1@calculate
$LN73@calculate:

; 2895 :                 }

	jmp	SHORT $LN71@calculate
$LN70@calculate:

; 2896 :             else {
; 2897 :                 DebugMsg(("calculate(%s) error 3\n", oper->string_ptr ));

	mov	rax, QWORD PTR oper$[rsp]
	mov	rdx, QWORD PTR [rax+8]
	lea	rcx, OFFSET FLAT:$SG12160
	call	DoDebugMsg

; 2898 :                 return( fnEmitErr( CONSTANT_OR_RELOCATABLE_LABEL_EXPECTED ) );

	mov	ecx, 189				; 000000bdH
	call	QWORD PTR fnEmitErr
	jmp	$LN1@calculate
$LN71@calculate:

; 2899 :             }
; 2900 :         } else {

	jmp	SHORT $LN69@calculate
$LN68@calculate:

; 2901 :             DebugMsg(("calculate(%s) error 4\n", oper->string_ptr ));

	mov	rax, QWORD PTR oper$[rsp]
	mov	rdx, QWORD PTR [rax+8]
	lea	rcx, OFFSET FLAT:$SG12161
	call	DoDebugMsg

; 2902 :             return( ConstError( opnd1, opnd2 ) );

	mov	rdx, QWORD PTR opnd2$[rsp]
	mov	rcx, QWORD PTR opnd1$[rsp]
	call	ConstError
	jmp	$LN1@calculate
$LN69@calculate:
$LN67@calculate:

; 2903 :         }
; 2904 : 
; 2905 :         DebugMsg1(("calculate(%s): values=%" I64_SPEC "d/%" I64_SPEC "d is_type=%u/%u memtypes=%X/%X\n", oper->string_ptr,

	mov	rax, QWORD PTR opnd2$[rsp]
	mov	eax, DWORD PTR [rax+76]
	shr	eax, 3
	and	eax, 1
	mov	rcx, QWORD PTR opnd1$[rsp]
	mov	ecx, DWORD PTR [rcx+76]
	shr	ecx, 3
	and	ecx, 1
	mov	rdx, QWORD PTR opnd2$[rsp]
	mov	edx, DWORD PTR [rdx+64]
	mov	DWORD PTR [rsp+56], edx
	mov	rdx, QWORD PTR opnd1$[rsp]
	mov	edx, DWORD PTR [rdx+64]
	mov	DWORD PTR [rsp+48], edx
	mov	DWORD PTR [rsp+40], eax
	mov	DWORD PTR [rsp+32], ecx
	mov	rax, QWORD PTR opnd2$[rsp]
	mov	r9, QWORD PTR [rax]
	mov	rax, QWORD PTR opnd1$[rsp]
	mov	r8, QWORD PTR [rax]
	mov	rax, QWORD PTR oper$[rsp]
	mov	rdx, QWORD PTR [rax+8]
	lea	rcx, OFFSET FLAT:$SG12162
	call	DoDebugMsg1

; 2906 :                    opnd1->value64, opnd2->value64, opnd1->is_type, opnd2->is_type, opnd1->mem_type, opnd2->mem_type  ));
; 2907 :         switch( oper->tokval ) {

	mov	rax, QWORD PTR oper$[rsp]
	mov	eax, DWORD PTR [rax+16]
	mov	DWORD PTR tv545[rsp], eax
	cmp	DWORD PTR tv545[rsp], 501		; 000001f5H
	ja	SHORT $LN163@calculate
	cmp	DWORD PTR tv545[rsp], 501		; 000001f5H
	je	$LN100@calculate
	mov	eax, DWORD PTR tv545[rsp]
	sub	eax, 251				; 000000fbH
	mov	DWORD PTR tv545[rsp], eax
	cmp	DWORD PTR tv545[rsp], 6
	ja	$LN4@calculate
	mov	eax, DWORD PTR tv545[rsp]
	lea	rcx, OFFSET FLAT:__ImageBase
	mov	eax, DWORD PTR $LN178@calculate[rcx+rax*4]
	add	rax, rcx
	jmp	rax
$LN163@calculate:
	cmp	DWORD PTR tv545[rsp], 504		; 000001f8H
	je	$LN99@calculate
	cmp	DWORD PTR tv545[rsp], 506		; 000001faH
	je	$LN101@calculate
	cmp	DWORD PTR tv545[rsp], 514		; 00000202H
	je	$LN88@calculate
	cmp	DWORD PTR tv545[rsp], 515		; 00000203H
	je	$LN94@calculate
	jmp	$LN4@calculate
$LN75@calculate:

; 2908 :         case T_EQ:
; 2909 : #if 1 /* v2.03: added */
; 2910 :             /* if both operands are types, do a more comprehensive comparison! */
; 2911 :             if ( opnd1->is_type && opnd2->is_type ) {

	mov	rax, QWORD PTR opnd1$[rsp]
	mov	eax, DWORD PTR [rax+76]
	shr	eax, 3
	and	eax, 1
	test	eax, eax
	je	SHORT $LN76@calculate
	mov	rax, QWORD PTR opnd2$[rsp]
	mov	eax, DWORD PTR [rax+76]
	shr	eax, 3
	and	eax, 1
	test	eax, eax
	je	SHORT $LN76@calculate

; 2912 :                 cmp_types( opnd1, opnd2, -1 );

	mov	r8d, -1
	mov	rdx, QWORD PTR opnd2$[rsp]
	mov	rcx, QWORD PTR opnd1$[rsp]
	call	cmp_types

; 2913 :             } else

	jmp	SHORT $LN77@calculate
$LN76@calculate:

; 2914 : #endif
; 2915 :             opnd1->value64 = ( opnd1->value64 == opnd2->value64 ? -1:0 );

	mov	rax, QWORD PTR opnd1$[rsp]
	mov	rcx, QWORD PTR opnd2$[rsp]
	mov	rcx, QWORD PTR [rcx]
	cmp	QWORD PTR [rax], rcx
	jne	SHORT $LN151@calculate
	mov	DWORD PTR tv561[rsp], -1
	jmp	SHORT $LN152@calculate
$LN151@calculate:
	mov	DWORD PTR tv561[rsp], 0
$LN152@calculate:
	movsxd	rax, DWORD PTR tv561[rsp]
	mov	rcx, QWORD PTR opnd1$[rsp]
	mov	QWORD PTR [rcx], rax
$LN77@calculate:

; 2916 :             break;

	jmp	$LN4@calculate
$LN78@calculate:

; 2917 :         case T_NE:
; 2918 : #if 1 /* v2.03: added */
; 2919 :             /* if both operands are types, do a more comprehensive comparison! */
; 2920 :             if ( opnd1->is_type && opnd2->is_type ) {

	mov	rax, QWORD PTR opnd1$[rsp]
	mov	eax, DWORD PTR [rax+76]
	shr	eax, 3
	and	eax, 1
	test	eax, eax
	je	SHORT $LN79@calculate
	mov	rax, QWORD PTR opnd2$[rsp]
	mov	eax, DWORD PTR [rax+76]
	shr	eax, 3
	and	eax, 1
	test	eax, eax
	je	SHORT $LN79@calculate

; 2921 :                 cmp_types( opnd1, opnd2, 0 );

	xor	r8d, r8d
	mov	rdx, QWORD PTR opnd2$[rsp]
	mov	rcx, QWORD PTR opnd1$[rsp]
	call	cmp_types

; 2922 :             } else

	jmp	SHORT $LN80@calculate
$LN79@calculate:

; 2923 : #endif
; 2924 :             opnd1->value64 = ( opnd1->value64 != opnd2->value64 ? -1:0 );

	mov	rax, QWORD PTR opnd1$[rsp]
	mov	rcx, QWORD PTR opnd2$[rsp]
	mov	rcx, QWORD PTR [rcx]
	cmp	QWORD PTR [rax], rcx
	je	SHORT $LN153@calculate
	mov	DWORD PTR tv578[rsp], -1
	jmp	SHORT $LN154@calculate
$LN153@calculate:
	mov	DWORD PTR tv578[rsp], 0
$LN154@calculate:
	movsxd	rax, DWORD PTR tv578[rsp]
	mov	rcx, QWORD PTR opnd1$[rsp]
	mov	QWORD PTR [rcx], rax
$LN80@calculate:

; 2925 :             break;

	jmp	$LN4@calculate
$LN81@calculate:

; 2926 :         case T_LT:
; 2927 :             opnd1->value64 = ( opnd1->value64 <  opnd2->value64 ? -1:0 );

	mov	rax, QWORD PTR opnd1$[rsp]
	mov	rcx, QWORD PTR opnd2$[rsp]
	mov	rcx, QWORD PTR [rcx]
	cmp	QWORD PTR [rax], rcx
	jge	SHORT $LN155@calculate
	mov	DWORD PTR tv584[rsp], -1
	jmp	SHORT $LN156@calculate
$LN155@calculate:
	mov	DWORD PTR tv584[rsp], 0
$LN156@calculate:
	movsxd	rax, DWORD PTR tv584[rsp]
	mov	rcx, QWORD PTR opnd1$[rsp]
	mov	QWORD PTR [rcx], rax

; 2928 :             break;

	jmp	$LN4@calculate
$LN82@calculate:

; 2929 :         case T_LE:
; 2930 :             opnd1->value64 = ( opnd1->value64 <= opnd2->value64 ? -1:0 );

	mov	rax, QWORD PTR opnd1$[rsp]
	mov	rcx, QWORD PTR opnd2$[rsp]
	mov	rcx, QWORD PTR [rcx]
	cmp	QWORD PTR [rax], rcx
	jg	SHORT $LN157@calculate
	mov	DWORD PTR tv590[rsp], -1
	jmp	SHORT $LN158@calculate
$LN157@calculate:
	mov	DWORD PTR tv590[rsp], 0
$LN158@calculate:
	movsxd	rax, DWORD PTR tv590[rsp]
	mov	rcx, QWORD PTR opnd1$[rsp]
	mov	QWORD PTR [rcx], rax

; 2931 :             break;

	jmp	$LN4@calculate
$LN83@calculate:

; 2932 :         case T_GT:
; 2933 :             opnd1->value64 = ( opnd1->value64 >  opnd2->value64 ? -1:0 );

	mov	rax, QWORD PTR opnd1$[rsp]
	mov	rcx, QWORD PTR opnd2$[rsp]
	mov	rcx, QWORD PTR [rcx]
	cmp	QWORD PTR [rax], rcx
	jle	SHORT $LN159@calculate
	mov	DWORD PTR tv596[rsp], -1
	jmp	SHORT $LN160@calculate
$LN159@calculate:
	mov	DWORD PTR tv596[rsp], 0
$LN160@calculate:
	movsxd	rax, DWORD PTR tv596[rsp]
	mov	rcx, QWORD PTR opnd1$[rsp]
	mov	QWORD PTR [rcx], rax

; 2934 :             break;

	jmp	$LN4@calculate
$LN84@calculate:

; 2935 :         case T_GE:
; 2936 :             opnd1->value64 = ( opnd1->value64 >= opnd2->value64 ? -1:0 );

	mov	rax, QWORD PTR opnd1$[rsp]
	mov	rcx, QWORD PTR opnd2$[rsp]
	mov	rcx, QWORD PTR [rcx]
	cmp	QWORD PTR [rax], rcx
	jl	SHORT $LN161@calculate
	mov	DWORD PTR tv602[rsp], -1
	jmp	SHORT $LN162@calculate
$LN161@calculate:
	mov	DWORD PTR tv602[rsp], 0
$LN162@calculate:
	movsxd	rax, DWORD PTR tv602[rsp]
	mov	rcx, QWORD PTR opnd1$[rsp]
	mov	QWORD PTR [rcx], rax

; 2937 :             break;

	jmp	$LN4@calculate
$LN85@calculate:

; 2938 :         case T_MOD:
; 2939 :             if ( opnd2->llvalue == 0 ) {

	mov	rax, QWORD PTR opnd2$[rsp]
	cmp	QWORD PTR [rax], 0
	jne	SHORT $LN86@calculate

; 2940 :                 return( fnEmitErr( DIVIDE_BY_ZERO_IN_EXPR ) );

	mov	ecx, 167				; 000000a7H
	call	QWORD PTR fnEmitErr
	jmp	$LN1@calculate

; 2941 :             } else

	jmp	SHORT $LN87@calculate
$LN86@calculate:

; 2942 :                 opnd1->llvalue %= opnd2->llvalue;

	xor	edx, edx
	mov	rax, QWORD PTR opnd1$[rsp]
	mov	rax, QWORD PTR [rax]
	mov	rcx, QWORD PTR opnd2$[rsp]
	div	QWORD PTR [rcx]
	mov	rax, rdx
	mov	rcx, QWORD PTR opnd1$[rsp]
	mov	QWORD PTR [rcx], rax
$LN87@calculate:

; 2943 :             break;

	jmp	$LN4@calculate
$LN88@calculate:

; 2944 :         case T_SHL:
; 2945 :             /* v2.04: check for shift count < 0 */
; 2946 :             DebugMsg1(("calculate(SHL): value=%" I64_SPEC "X << %" I32_SPEC "u (max=%u)\n", opnd1->llvalue, opnd2->value, 8 * sizeof( opnd1->llvalue ) ));

	mov	r9d, 64					; 00000040H
	mov	rax, QWORD PTR opnd2$[rsp]
	mov	r8d, DWORD PTR [rax]
	mov	rax, QWORD PTR opnd1$[rsp]
	mov	rdx, QWORD PTR [rax]
	lea	rcx, OFFSET FLAT:$SG12177
	call	DoDebugMsg1

; 2947 :             if ( opnd2->value < 0 )

	mov	rax, QWORD PTR opnd2$[rsp]
	cmp	DWORD PTR [rax], 0
	jge	SHORT $LN89@calculate

; 2948 :                 fnEmitErr( COUNT_MUST_BE_POSITIVE_OR_ZERO );

	mov	ecx, 208				; 000000d0H
	call	QWORD PTR fnEmitErr
	jmp	SHORT $LN90@calculate
$LN89@calculate:

; 2949 :             else if ( opnd2->value >= ( 8 * sizeof( opnd1->llvalue ) ) )

	mov	rax, QWORD PTR opnd2$[rsp]
	movsxd	rax, DWORD PTR [rax]
	cmp	rax, 64					; 00000040H
	jb	SHORT $LN91@calculate

; 2950 :                 opnd1->llvalue = 0;

	mov	rax, QWORD PTR opnd1$[rsp]
	mov	QWORD PTR [rax], 0
	jmp	SHORT $LN92@calculate
$LN91@calculate:

; 2951 :             else
; 2952 :                 opnd1->llvalue = opnd1->llvalue << opnd2->value;

	mov	rax, QWORD PTR opnd2$[rsp]
	mov	eax, DWORD PTR [rax]
	mov	rcx, QWORD PTR opnd1$[rsp]
	mov	QWORD PTR tv1355[rsp], rcx
	movzx	ecx, al
	mov	rax, QWORD PTR tv1355[rsp]
	mov	rax, QWORD PTR [rax]
	shl	rax, cl
	mov	rcx, QWORD PTR opnd1$[rsp]
	mov	QWORD PTR [rcx], rax
$LN92@calculate:
$LN90@calculate:

; 2953 :             /* v2.01: result is 64-bit only if mode is USE64 */
; 2954 :             /* v2.06: for -Zm only. This is not entirely correct,
; 2955 :              * since Masm v6x also does 32-bit shifts, but since v2.06
; 2956 :              * HJWasm intends to behave like Masm v8+.
; 2957 :              * Might be better to implement OPTION EXPR16|32|64.
; 2958 :              */
; 2959 :             //if ( ModuleInfo.Ofssize <= USE32 ) {
; 2960 :             if ( ModuleInfo.m510 ) {

	mov	eax, DWORD PTR ModuleInfo+408
	shr	eax, 6
	and	eax, 1
	test	eax, eax
	je	SHORT $LN93@calculate

; 2961 :                 opnd1->hvalue = 0;

	mov	rax, QWORD PTR opnd1$[rsp]
	mov	DWORD PTR [rax+4], 0

; 2962 :                 opnd1->hlvalue = 0;

	mov	rax, QWORD PTR opnd1$[rsp]
	mov	QWORD PTR [rax+8], 0
$LN93@calculate:

; 2963 :             }
; 2964 :             break;

	jmp	$LN4@calculate
$LN94@calculate:

; 2965 :         case T_SHR:
; 2966 :             /* Masm v8 works with unsigned 64-bit,
; 2967 :              * Masm v6 masks shift count with 0x3F.
; 2968 :              * v2.04: does behave like Masm v8+.
; 2969 :              * there is a problem with some compilers if shift
; 2970 :              * count is >= 64. So in this case the result is zeroed manually
; 2971 :              */
; 2972 : #if 0
; 2973 :             if ( opnd1->hvalue == -1 ) {
; 2974 :                 opnd1->hvalue = 0;
; 2975 :                 opnd1->hlvalue = 0;
; 2976 :             }
; 2977 : #endif
; 2978 :             /* v2.04: check for shift count < 0 */
; 2979 :             if ( opnd2->value < 0 )

	mov	rax, QWORD PTR opnd2$[rsp]
	cmp	DWORD PTR [rax], 0
	jge	SHORT $LN95@calculate

; 2980 :                 fnEmitErr( COUNT_MUST_BE_POSITIVE_OR_ZERO );

	mov	ecx, 208				; 000000d0H
	call	QWORD PTR fnEmitErr
	jmp	SHORT $LN96@calculate
$LN95@calculate:

; 2981 :             else if ( opnd2->value >= ( 8 * sizeof( opnd1->llvalue ) ) )

	mov	rax, QWORD PTR opnd2$[rsp]
	movsxd	rax, DWORD PTR [rax]
	cmp	rax, 64					; 00000040H
	jb	SHORT $LN97@calculate

; 2982 :                 opnd1->llvalue = 0;

	mov	rax, QWORD PTR opnd1$[rsp]
	mov	QWORD PTR [rax], 0
	jmp	SHORT $LN98@calculate
$LN97@calculate:

; 2983 :             else
; 2984 :                 opnd1->llvalue = opnd1->llvalue >> opnd2->value;

	mov	rax, QWORD PTR opnd2$[rsp]
	mov	eax, DWORD PTR [rax]
	mov	rcx, QWORD PTR opnd1$[rsp]
	mov	QWORD PTR tv1367[rsp], rcx
	movzx	ecx, al
	mov	rax, QWORD PTR tv1367[rsp]
	mov	rax, QWORD PTR [rax]
	shr	rax, cl
	mov	rcx, QWORD PTR opnd1$[rsp]
	mov	QWORD PTR [rcx], rax
$LN98@calculate:
$LN96@calculate:

; 2985 :             break;

	jmp	SHORT $LN4@calculate
$LN99@calculate:

; 2986 :         case T_AND:
; 2987 :             opnd1->llvalue &= opnd2->llvalue;

	mov	rax, QWORD PTR opnd1$[rsp]
	mov	rcx, QWORD PTR opnd2$[rsp]
	mov	rcx, QWORD PTR [rcx]
	mov	rax, QWORD PTR [rax]
	and	rax, rcx
	mov	rcx, QWORD PTR opnd1$[rsp]
	mov	QWORD PTR [rcx], rax

; 2988 :             break;

	jmp	SHORT $LN4@calculate
$LN100@calculate:

; 2989 :         case T_OR:
; 2990 :             opnd1->llvalue |= opnd2->llvalue;

	mov	rax, QWORD PTR opnd1$[rsp]
	mov	rcx, QWORD PTR opnd2$[rsp]
	mov	rcx, QWORD PTR [rcx]
	mov	rax, QWORD PTR [rax]
	or	rax, rcx
	mov	rcx, QWORD PTR opnd1$[rsp]
	mov	QWORD PTR [rcx], rax

; 2991 :             break;

	jmp	SHORT $LN4@calculate
$LN101@calculate:

; 2992 :         case T_XOR:
; 2993 :             opnd1->llvalue ^= opnd2->llvalue;

	mov	rax, QWORD PTR opnd1$[rsp]
	mov	rcx, QWORD PTR opnd2$[rsp]
	mov	rcx, QWORD PTR [rcx]
	mov	rax, QWORD PTR [rax]
	xor	rax, rcx
	mov	rcx, QWORD PTR opnd1$[rsp]
	mov	QWORD PTR [rcx], rax
$LN4@calculate:

; 2994 :             break;
; 2995 :         }
; 2996 :         break; /* end case T_BINARY_OPERATOR */

	jmp	$LN2@calculate
$LN102@calculate:

; 2997 :     case T_UNARY_OPERATOR:
; 2998 :         DebugMsg1(("calculate(%s [T_UNARY_OPERATOR]): opnd2 kind=%d sym=%s mbr=%s type=%s memtype=%X is_type=%u indirect=%u\n",

	mov	rax, QWORD PTR opnd2$[rsp]
	cmp	QWORD PTR [rax+96], 0
	je	SHORT $LN164@calculate
	mov	rax, QWORD PTR opnd2$[rsp]
	mov	rax, QWORD PTR [rax+96]
	mov	rax, QWORD PTR [rax+8]
	mov	QWORD PTR tv710[rsp], rax
	jmp	SHORT $LN165@calculate
$LN164@calculate:
	lea	rax, OFFSET FLAT:$SG12192
	mov	QWORD PTR tv710[rsp], rax
$LN165@calculate:
	mov	rax, QWORD PTR opnd2$[rsp]
	cmp	QWORD PTR [rax+88], 0
	je	SHORT $LN166@calculate
	mov	rax, QWORD PTR opnd2$[rsp]
	mov	rax, QWORD PTR [rax+88]
	mov	rax, QWORD PTR [rax+8]
	mov	QWORD PTR tv716[rsp], rax
	jmp	SHORT $LN167@calculate
$LN166@calculate:
	lea	rax, OFFSET FLAT:$SG12193
	mov	QWORD PTR tv716[rsp], rax
$LN167@calculate:
	mov	rax, QWORD PTR opnd2$[rsp]
	cmp	QWORD PTR [rax+80], 0
	je	SHORT $LN168@calculate
	mov	rax, QWORD PTR opnd2$[rsp]
	mov	rax, QWORD PTR [rax+80]
	mov	rax, QWORD PTR [rax+8]
	mov	QWORD PTR tv722[rsp], rax
	jmp	SHORT $LN169@calculate
$LN168@calculate:
	lea	rax, OFFSET FLAT:$SG12194
	mov	QWORD PTR tv722[rsp], rax
$LN169@calculate:
	mov	rax, QWORD PTR opnd2$[rsp]
	mov	eax, DWORD PTR [rax+76]
	and	eax, 1
	mov	rcx, QWORD PTR opnd2$[rsp]
	mov	ecx, DWORD PTR [rcx+76]
	shr	ecx, 3
	and	ecx, 1
	mov	DWORD PTR [rsp+64], eax
	mov	DWORD PTR [rsp+56], ecx
	mov	rax, QWORD PTR opnd2$[rsp]
	mov	eax, DWORD PTR [rax+64]
	mov	DWORD PTR [rsp+48], eax
	mov	rax, QWORD PTR tv710[rsp]
	mov	QWORD PTR [rsp+40], rax
	mov	rax, QWORD PTR tv716[rsp]
	mov	QWORD PTR [rsp+32], rax
	mov	r9, QWORD PTR tv722[rsp]
	mov	rax, QWORD PTR opnd2$[rsp]
	mov	r8d, DWORD PTR [rax+60]
	mov	rax, QWORD PTR oper$[rsp]
	mov	rdx, QWORD PTR [rax+8]
	lea	rcx, OFFSET FLAT:$SG12195
	call	DoDebugMsg1

; 2999 :                    oper->string_ptr,
; 3000 :                    opnd2->kind,
; 3001 :                    opnd2->sym ? opnd2->sym->name : "NULL",
; 3002 :                    opnd2->mbr ? opnd2->mbr->name : "NULL",
; 3003 :                    opnd2->type ? opnd2->type->name : "NULL",
; 3004 :                    opnd2->mem_type, opnd2->is_type, opnd2->indirect ));
; 3005 :         /* NOT is an instruction and hence has no valid
; 3006 :          * value to be returned by GetValueSp() or GetSflagsSp()!
; 3007 :          */
; 3008 :         if( oper->tokval == T_NOT ) {

	mov	rax, QWORD PTR oper$[rsp]
	cmp	DWORD PTR [rax+16], 576			; 00000240H
	jne	SHORT $LN103@calculate

; 3009 :             MakeConst( opnd2 );

	mov	rcx, QWORD PTR opnd2$[rsp]
	call	MakeConst

; 3010 :             if( opnd2->kind != EXPR_CONST ) {

	mov	rax, QWORD PTR opnd2$[rsp]
	cmp	DWORD PTR [rax+60], 0
	je	SHORT $LN104@calculate

; 3011 :                 DebugMsg(("calculate(%s) error 1\n", oper->string_ptr ));

	mov	rax, QWORD PTR oper$[rsp]
	mov	rdx, QWORD PTR [rax+8]
	lea	rcx, OFFSET FLAT:$SG12198
	call	DoDebugMsg

; 3012 :                 return( fnEmitErr( CONSTANT_OPERAND_EXPECTED ) );

	mov	ecx, 66					; 00000042H
	call	QWORD PTR fnEmitErr
	jmp	$LN1@calculate
$LN104@calculate:

; 3013 :             }
; 3014 :             TokenAssign( opnd1, opnd2 );

	mov	rdx, QWORD PTR opnd2$[rsp]
	mov	rcx, QWORD PTR opnd1$[rsp]
	call	TokenAssign

; 3015 :             opnd1->llvalue = ~(opnd2->llvalue);

	mov	rax, QWORD PTR opnd2$[rsp]
	mov	rax, QWORD PTR [rax]
	not	rax
	mov	rcx, QWORD PTR opnd1$[rsp]
	mov	QWORD PTR [rcx], rax

; 3016 :             break;

	jmp	$LN2@calculate
$LN103@calculate:

; 3017 :         }
; 3018 : 
; 3019 :         /* operator         accepts
; 3020 :          ----------------------------------------------
; 3021 :          SIZEOF/SIZE        label, type, struct field
; 3022 :          LENGTHOF/LENGTH    label, struct field
; 3023 :          TYPE               label, type, struct field, register, number
; 3024 :          LOW                constant, label (OMF+BIN only)
; 3025 :          HIGH               constant, label (OMF+BIN only)
; 3026 :          LOWWORD            constant, label
; 3027 :          HIGHWORD           constant
; 3028 :          LOW32              constant, label, float
; 3029 :          HIGH32             constant, float
; 3030 :          THIS               type
; 3031 :          OPATTR/.TYPE       label, type, struct field, register, number
; 3032 :          SHORT              label
; 3033 :          SEG                label
; 3034 :          OFFSET/LROFFSET    label, struct field, number
; 3035 :          IMAGEREL           label
; 3036 :          SECTIONREL         label
; 3037 :          WIDTH/MASK         bitfields or RECORD type
; 3038 :          */
; 3039 : 
; 3040 :         temp = GetValueSp( oper->tokval );

	mov	rax, QWORD PTR oper$[rsp]
	mov	eax, DWORD PTR [rax+16]
	imul	rax, rax, 12
	lea	rcx, OFFSET FLAT:SpecialTable
	mov	eax, DWORD PTR [rcx+rax]
	mov	DWORD PTR temp$[rsp], eax

; 3041 : 
; 3042 :         sym = opnd2->sym;

	mov	rax, QWORD PTR opnd2$[rsp]
	mov	rax, QWORD PTR [rax+80]
	mov	QWORD PTR sym$[rsp], rax

; 3043 :         if( opnd2->mbr != NULL )

	mov	rax, QWORD PTR opnd2$[rsp]
	cmp	QWORD PTR [rax+88], 0
	je	SHORT $LN105@calculate

; 3044 :             sym = opnd2->mbr;

	mov	rax, QWORD PTR opnd2$[rsp]
	mov	rax, QWORD PTR [rax+88]
	mov	QWORD PTR sym$[rsp], rax
$LN105@calculate:

; 3045 : 
; 3046 :         /* for error displays, get the position of the operand that
; 3047 :          * caused the trouble.
; 3048 :          */
; 3049 :         if ( opnd2->instr != EMPTY )

	mov	rax, QWORD PTR opnd2$[rsp]
	cmp	DWORD PTR [rax+56], -2
	je	SHORT $LN106@calculate

; 3050 :             name = oper->tokpos + strlen( oper->string_ptr ) + 1;

	mov	rax, QWORD PTR oper$[rsp]
	mov	rcx, QWORD PTR [rax+8]
	call	strlen
	mov	rcx, QWORD PTR oper$[rsp]
	mov	rcx, QWORD PTR [rcx+24]
	lea	rax, QWORD PTR [rcx+rax+1]
	mov	QWORD PTR name$[rsp], rax
	jmp	SHORT $LN107@calculate
$LN106@calculate:

; 3051 :         else if ( sym )

	cmp	QWORD PTR sym$[rsp], 0
	je	SHORT $LN108@calculate

; 3052 :             name = sym->name;

	mov	rax, QWORD PTR sym$[rsp]
	mov	rax, QWORD PTR [rax+8]
	mov	QWORD PTR name$[rsp], rax
	jmp	SHORT $LN109@calculate
$LN108@calculate:

; 3053 :         else if ( opnd2->base_reg != NULL && opnd2->indirect == FALSE )

	mov	rax, QWORD PTR opnd2$[rsp]
	cmp	QWORD PTR [rax+24], 0
	je	SHORT $LN110@calculate
	mov	rax, QWORD PTR opnd2$[rsp]
	mov	eax, DWORD PTR [rax+76]
	and	eax, 1
	test	eax, eax
	jne	SHORT $LN110@calculate

; 3054 :             name = opnd2->base_reg->string_ptr;

	mov	rax, QWORD PTR opnd2$[rsp]
	mov	rax, QWORD PTR [rax+24]
	mov	rax, QWORD PTR [rax+8]
	mov	QWORD PTR name$[rsp], rax
	jmp	SHORT $LN111@calculate
$LN110@calculate:

; 3055 :         else
; 3056 :             name = oper->tokpos + strlen( oper->string_ptr ) + 1;

	mov	rax, QWORD PTR oper$[rsp]
	mov	rcx, QWORD PTR [rax+8]
	call	strlen
	mov	rcx, QWORD PTR oper$[rsp]
	mov	rcx, QWORD PTR [rcx+24]
	lea	rax, QWORD PTR [rcx+rax+1]
	mov	QWORD PTR name$[rsp], rax
$LN111@calculate:
$LN109@calculate:
$LN107@calculate:

; 3057 : 
; 3058 :         switch ( opnd2->kind ) {

	mov	rax, QWORD PTR opnd2$[rsp]
	mov	eax, DWORD PTR [rax+60]
	mov	DWORD PTR tv777[rsp], eax
	cmp	DWORD PTR tv777[rsp], 0
	je	SHORT $LN112@calculate
	cmp	DWORD PTR tv777[rsp], 1
	je	$LN123@calculate
	cmp	DWORD PTR tv777[rsp], 2
	je	$LN128@calculate
	cmp	DWORD PTR tv777[rsp], 3
	je	$LN130@calculate
	jmp	$LN6@calculate
$LN112@calculate:

; 3059 :         case EXPR_CONST:
; 3060 :             /* v2.05: conditions "struct-field" and "istype" exchanged */
; 3061 :             /* is item a struct field? */
; 3062 :             /* v2.10: fixme: EXPR_CONST & mbr!=NULL - what's that supposed to be? */
; 3063 :             if ( opnd2->mbr != NULL && opnd2->mbr->state != SYM_TYPE ) {

	mov	rax, QWORD PTR opnd2$[rsp]
	cmp	QWORD PTR [rax+88], 0
	je	$LN113@calculate
	mov	rax, QWORD PTR opnd2$[rsp]
	mov	rax, QWORD PTR [rax+88]
	cmp	DWORD PTR [rax+32], 7
	je	SHORT $LN113@calculate

; 3064 :                 if ( opnd2->mbr->mem_type == MT_BITS ) { /* bitfield? */

	mov	rax, QWORD PTR opnd2$[rsp]
	mov	rax, QWORD PTR [rax+88]
	cmp	DWORD PTR [rax+36], 193			; 000000c1H
	jne	SHORT $LN115@calculate

; 3065 :                     if ( ( temp & AT_BF ) == 0 ) {

	mov	eax, DWORD PTR temp$[rsp]
	and	eax, 64					; 00000040H
	test	eax, eax
	jne	SHORT $LN117@calculate

; 3066 :                         return( invalid_operand( opnd2, oper->string_ptr, name ) );

	mov	r8, QWORD PTR name$[rsp]
	mov	rax, QWORD PTR oper$[rsp]
	mov	rdx, QWORD PTR [rax+8]
	mov	rcx, QWORD PTR opnd2$[rsp]
	call	invalid_operand
	jmp	$LN1@calculate
$LN117@calculate:

; 3067 :                     }
; 3068 :                 } else {

	jmp	SHORT $LN116@calculate
$LN115@calculate:

; 3069 :                     if ( ( temp & AT_FIELD ) == 0 ) {

	mov	eax, DWORD PTR temp$[rsp]
	and	eax, 16
	test	eax, eax
	jne	SHORT $LN118@calculate

; 3070 :                         return( invalid_operand( opnd2, oper->string_ptr, name ) );

	mov	r8, QWORD PTR name$[rsp]
	mov	rax, QWORD PTR oper$[rsp]
	mov	rdx, QWORD PTR [rax+8]
	mov	rcx, QWORD PTR opnd2$[rsp]
	call	invalid_operand
	jmp	$LN1@calculate
$LN118@calculate:
$LN116@calculate:

; 3071 :                     }
; 3072 :                 }

	jmp	SHORT $LN114@calculate
$LN113@calculate:

; 3073 :             } else if ( opnd2->is_type ) { /* is item a type? */

	mov	rax, QWORD PTR opnd2$[rsp]
	mov	eax, DWORD PTR [rax+76]
	shr	eax, 3
	and	eax, 1
	test	eax, eax
	je	SHORT $LN119@calculate

; 3074 :                 if ( ( temp & AT_TYPE ) == 0 ) {

	mov	eax, DWORD PTR temp$[rsp]
	and	eax, 1
	test	eax, eax
	jne	SHORT $LN121@calculate

; 3075 :                     return( invalid_operand( opnd2, oper->string_ptr, name ) );

	mov	r8, QWORD PTR name$[rsp]
	mov	rax, QWORD PTR oper$[rsp]
	mov	rdx, QWORD PTR [rax+8]
	mov	rcx, QWORD PTR opnd2$[rsp]
	call	invalid_operand
	jmp	$LN1@calculate
$LN121@calculate:

; 3076 :                 }
; 3077 :             } else { /*  or is it a number? */

	jmp	SHORT $LN120@calculate
$LN119@calculate:

; 3078 :                 if ( ( temp & AT_NUM ) == 0 ) {

	mov	eax, DWORD PTR temp$[rsp]
	and	eax, 32					; 00000020H
	test	eax, eax
	jne	SHORT $LN122@calculate

; 3079 :                     return( invalid_operand( opnd2, oper->string_ptr, name ) );

	mov	r8, QWORD PTR name$[rsp]
	mov	rax, QWORD PTR oper$[rsp]
	mov	rdx, QWORD PTR [rax+8]
	mov	rcx, QWORD PTR opnd2$[rsp]
	call	invalid_operand
	jmp	$LN1@calculate
$LN122@calculate:
$LN120@calculate:
$LN114@calculate:

; 3080 :                 }
; 3081 :             }
; 3082 :             break;

	jmp	$LN6@calculate
$LN123@calculate:

; 3083 :         case EXPR_ADDR:
; 3084 :             /* an indirect memory operand? (not an auto variable) */
; 3085 :             if ( opnd2->indirect == TRUE && opnd2->sym == NULL ) {

	mov	rax, QWORD PTR opnd2$[rsp]
	mov	eax, DWORD PTR [rax+76]
	and	eax, 1
	cmp	eax, 1
	jne	SHORT $LN124@calculate
	mov	rax, QWORD PTR opnd2$[rsp]
	cmp	QWORD PTR [rax+80], 0
	jne	SHORT $LN124@calculate

; 3086 :                 if ( ( temp & AT_IND ) == 0 ) {

	mov	eax, DWORD PTR temp$[rsp]
	and	eax, 4
	test	eax, eax
	jne	SHORT $LN126@calculate

; 3087 :                     return( invalid_operand( opnd2, oper->string_ptr, name ) );

	mov	r8, QWORD PTR name$[rsp]
	mov	rax, QWORD PTR oper$[rsp]
	mov	rdx, QWORD PTR [rax+8]
	mov	rcx, QWORD PTR opnd2$[rsp]
	call	invalid_operand
	jmp	$LN1@calculate
$LN126@calculate:

; 3088 :                 }
; 3089 :             } else {

	jmp	SHORT $LN125@calculate
$LN124@calculate:

; 3090 :                 if ( ( temp & AT_LABEL ) == 0 ) {

	mov	eax, DWORD PTR temp$[rsp]
	and	eax, 2
	test	eax, eax
	jne	SHORT $LN127@calculate

; 3091 :                     return( invalid_operand( opnd2, oper->string_ptr, name ) );

	mov	r8, QWORD PTR name$[rsp]
	mov	rax, QWORD PTR oper$[rsp]
	mov	rdx, QWORD PTR [rax+8]
	mov	rcx, QWORD PTR opnd2$[rsp]
	call	invalid_operand
	jmp	$LN1@calculate
$LN127@calculate:
$LN125@calculate:

; 3092 :                 }
; 3093 :             }
; 3094 : #if 0 /* v2.08: this if() obsolete? */
; 3095 :             if( opnd2->instr != EMPTY ) {
; 3096 :                 /* if instr is set, it's not a full address */
; 3097 :                 switch ( oper->tokval ) {
; 3098 :                 case T_LOW:
; 3099 :                 case T_HIGH:
; 3100 :                 case T_LOWWORD:
; 3101 :                 case T_HIGHWORD:
; 3102 : #if LOHI32
; 3103 :                 case T_LOW32:
; 3104 :                 case T_HIGH32:
; 3105 : #endif
; 3106 :                 case T_TYPE:
; 3107 :                 case T_OPATTR:
; 3108 :                 case T_DOT_TYPE:
; 3109 :                 case T_OFFSET: /* v2.08: added, to allow OFFSET OFFSET <addr> */
; 3110 :                     break;
; 3111 :                 default:
; 3112 :                     /* remaining: OFFSET, LROFFSET, IMAGEREL, SECTIONREL, SEG,
; 3113 :                      * SHORT
; 3114 :                      * THIS (won't set opnd.instr)
; 3115 :                      * (SIZE, SIZEOF, LENGTH, LENGHTOF, MASK, WIDTH) -> EXPR_CONST
; 3116 :                      *
; 3117 :                      */
; 3118 :                     DebugMsg(("calculate %s error 2\n", oper->string_ptr ));
; 3119 :                     return( fnEmitErr( LABEL_EXPECTED ) );
; 3120 :                 }
; 3121 :             }
; 3122 : #endif
; 3123 :             break;

	jmp	SHORT $LN6@calculate
$LN128@calculate:

; 3124 :         case EXPR_REG:
; 3125 :             if ( ( temp & AT_REG ) == 0 ) {

	mov	eax, DWORD PTR temp$[rsp]
	and	eax, 8
	test	eax, eax
	jne	SHORT $LN129@calculate

; 3126 :                 return( invalid_operand( opnd2, oper->string_ptr, name ) );

	mov	r8, QWORD PTR name$[rsp]
	mov	rax, QWORD PTR oper$[rsp]
	mov	rdx, QWORD PTR [rax+8]
	mov	rcx, QWORD PTR opnd2$[rsp]
	call	invalid_operand
	jmp	$LN1@calculate
$LN129@calculate:

; 3127 :             }
; 3128 :             break;

	jmp	SHORT $LN6@calculate
$LN130@calculate:

; 3129 :         case EXPR_FLOAT: /* v2.05: added */
; 3130 :             if ( ( temp & AT_FLOAT ) == 0 ) {

	mov	eax, DWORD PTR temp$[rsp]
	and	eax, 256				; 00000100H
	test	eax, eax
	jne	SHORT $LN131@calculate

; 3131 :                 DebugMsg(("calculate %s 'float' error\n", oper->string_ptr ));

	mov	rax, QWORD PTR oper$[rsp]
	mov	rdx, QWORD PTR [rax+8]
	lea	rcx, OFFSET FLAT:$SG12226
	call	DoDebugMsg

; 3132 :                 return( fnEmitErr( REAL_OR_BCD_NUMBER_NOT_ALLOWED ) );

	mov	ecx, 270				; 0000010eH
	call	QWORD PTR fnEmitErr
	jmp	$LN1@calculate
$LN131@calculate:
$LN6@calculate:

; 3133 :             }
; 3134 :             break;
; 3135 :         }
; 3136 : #ifdef DEBUG_OUT
; 3137 :         if ( unaryop[ GetSflagsSp( oper->tokval ) ]( oper->tokval, opnd1, opnd2, sym, name ) == ERROR )

	mov	rax, QWORD PTR oper$[rsp]
	mov	eax, DWORD PTR [rax+16]
	imul	rax, rax, 12
	lea	rcx, OFFSET FLAT:SpecialTable
	mov	eax, DWORD PTR [rcx+rax+4]
	lea	rcx, OFFSET FLAT:unaryop
	mov	QWORD PTR tv960[rsp], rcx
	mov	rdx, QWORD PTR name$[rsp]
	mov	QWORD PTR [rsp+32], rdx
	mov	r9, QWORD PTR sym$[rsp]
	mov	r8, QWORD PTR opnd2$[rsp]
	mov	rdx, QWORD PTR opnd1$[rsp]
	mov	r10, QWORD PTR oper$[rsp]
	mov	ecx, DWORD PTR [r10+16]
	mov	r10, QWORD PTR tv960[rsp]
	call	QWORD PTR [r10+rax*8]
	cmp	eax, -1
	jne	SHORT $LN132@calculate

; 3138 :             return( ERROR );

	mov	eax, -1
	jmp	$LN1@calculate
$LN132@calculate:

; 3139 :         break;

	jmp	SHORT $LN2@calculate
$LN133@calculate:

; 3140 : #else
; 3141 :         return( unaryop[ GetSflagsSp( oper->tokval ) ]( oper->tokval, opnd1, opnd2, sym, name ) );
; 3142 : #endif
; 3143 :     //case T_RES_ID:
; 3144 :     default: /* shouldn't happen */
; 3145 :         DebugMsg(("calculate(%s): unknown operator\n", oper->string_ptr ));

	mov	rax, QWORD PTR oper$[rsp]
	mov	rdx, QWORD PTR [rax+8]
	lea	rcx, OFFSET FLAT:$SG12229
	call	DoDebugMsg

; 3146 :         return( fnEmitErr( SYNTAX_ERROR_EX, oper->string_ptr ) );

	mov	rax, QWORD PTR oper$[rsp]
	mov	rdx, QWORD PTR [rax+8]
	mov	ecx, 209				; 000000d1H
	call	QWORD PTR fnEmitErr
	jmp	$LN1@calculate
$LN2@calculate:

; 3147 :     } /* end switch( oper->token ) */
; 3148 : 
; 3149 : #ifdef DEBUG_OUT
; 3150 :     if ( opnd1->hlvalue ) {

	mov	rax, QWORD PTR opnd1$[rsp]
	cmp	QWORD PTR [rax+8], 0
	je	$LN134@calculate

; 3151 :         DebugMsg1(("%u calculate(%s) exit, ok kind=%d value=0x%" I64_SPEC "X_%016" I64_SPEC "X memtype=0x%X indirect=%u type=>%s<\n",

	mov	rax, QWORD PTR opnd1$[rsp]
	cmp	QWORD PTR [rax+96], 0
	je	SHORT $LN170@calculate
	mov	rax, QWORD PTR opnd1$[rsp]
	mov	rax, QWORD PTR [rax+96]
	mov	rax, QWORD PTR [rax+8]
	mov	QWORD PTR tv886[rsp], rax
	jmp	SHORT $LN171@calculate
$LN170@calculate:
	lea	rax, OFFSET FLAT:$SG12232
	mov	QWORD PTR tv886[rsp], rax
$LN171@calculate:
	mov	rax, QWORD PTR opnd1$[rsp]
	mov	eax, DWORD PTR [rax+76]
	and	eax, 1
	mov	rcx, QWORD PTR tv886[rsp]
	mov	QWORD PTR [rsp+64], rcx
	mov	DWORD PTR [rsp+56], eax
	mov	rax, QWORD PTR opnd1$[rsp]
	mov	eax, DWORD PTR [rax+64]
	mov	DWORD PTR [rsp+48], eax
	mov	rax, QWORD PTR opnd1$[rsp]
	mov	rax, QWORD PTR [rax]
	mov	QWORD PTR [rsp+40], rax
	mov	rax, QWORD PTR opnd1$[rsp]
	mov	rax, QWORD PTR [rax+8]
	mov	QWORD PTR [rsp+32], rax
	mov	rax, QWORD PTR opnd1$[rsp]
	mov	r9d, DWORD PTR [rax+60]
	mov	rax, QWORD PTR oper$[rsp]
	mov	r8, QWORD PTR [rax+8]
	mov	edx, DWORD PTR evallvl
	lea	rcx, OFFSET FLAT:$SG12233
	call	DoDebugMsg1
	jmp	$LN135@calculate
$LN134@calculate:

; 3152 :                    evallvl,
; 3153 :                    oper->string_ptr,
; 3154 :                    opnd1->kind,
; 3155 :                    opnd1->hlvalue, opnd1->llvalue,
; 3156 :                    opnd1->mem_type,
; 3157 :                    opnd1->indirect, opnd1->type ? opnd1->type->name : "NULL" ));
; 3158 :     } else if ( opnd1->hvalue ) {

	mov	rax, QWORD PTR opnd1$[rsp]
	cmp	DWORD PTR [rax+4], 0
	je	$LN136@calculate

; 3159 :         DebugMsg1(("%u calculate(%s) exit, ok kind=%d value=%" I64_SPEC"d(0x%" I64_SPEC "X) memtype=0x%X indirect=%u type=>%s<\n",

	mov	rax, QWORD PTR opnd1$[rsp]
	cmp	QWORD PTR [rax+96], 0
	je	SHORT $LN172@calculate
	mov	rax, QWORD PTR opnd1$[rsp]
	mov	rax, QWORD PTR [rax+96]
	mov	rax, QWORD PTR [rax+8]
	mov	QWORD PTR tv909[rsp], rax
	jmp	SHORT $LN173@calculate
$LN172@calculate:
	lea	rax, OFFSET FLAT:$SG12236
	mov	QWORD PTR tv909[rsp], rax
$LN173@calculate:
	mov	rax, QWORD PTR opnd1$[rsp]
	mov	eax, DWORD PTR [rax+76]
	and	eax, 1
	mov	rcx, QWORD PTR tv909[rsp]
	mov	QWORD PTR [rsp+64], rcx
	mov	DWORD PTR [rsp+56], eax
	mov	rax, QWORD PTR opnd1$[rsp]
	mov	eax, DWORD PTR [rax+64]
	mov	DWORD PTR [rsp+48], eax
	mov	rax, QWORD PTR opnd1$[rsp]
	mov	rax, QWORD PTR [rax]
	mov	QWORD PTR [rsp+40], rax
	mov	rax, QWORD PTR opnd1$[rsp]
	mov	rax, QWORD PTR [rax]
	mov	QWORD PTR [rsp+32], rax
	mov	rax, QWORD PTR opnd1$[rsp]
	mov	r9d, DWORD PTR [rax+60]
	mov	rax, QWORD PTR oper$[rsp]
	mov	r8, QWORD PTR [rax+8]
	mov	edx, DWORD PTR evallvl
	lea	rcx, OFFSET FLAT:$SG12237
	call	DoDebugMsg1

; 3160 :                    evallvl,
; 3161 :                    oper->string_ptr,
; 3162 :                    opnd1->kind,
; 3163 :                    opnd1->llvalue, opnd1->llvalue,
; 3164 :                    opnd1->mem_type,
; 3165 :                    opnd1->indirect, opnd1->type ? opnd1->type->name : "NULL" ));
; 3166 :     } else {

	jmp	$LN137@calculate
$LN136@calculate:

; 3167 :         DebugMsg1(("%u calculate(%s) exit, ok kind=%d value=%d(0x%X) memtype=0x%X ind=%u exp=%u type=%s mbr=%s\n",

	mov	rax, QWORD PTR opnd1$[rsp]
	cmp	QWORD PTR [rax+88], 0
	je	SHORT $LN174@calculate
	mov	rax, QWORD PTR opnd1$[rsp]
	mov	rax, QWORD PTR [rax+88]
	mov	rax, QWORD PTR [rax+8]
	mov	QWORD PTR tv930[rsp], rax
	jmp	SHORT $LN175@calculate
$LN174@calculate:
	lea	rax, OFFSET FLAT:$SG12238
	mov	QWORD PTR tv930[rsp], rax
$LN175@calculate:
	mov	rax, QWORD PTR opnd1$[rsp]
	cmp	QWORD PTR [rax+96], 0
	je	SHORT $LN176@calculate
	mov	rax, QWORD PTR opnd1$[rsp]
	mov	rax, QWORD PTR [rax+96]
	mov	rax, QWORD PTR [rax+8]
	mov	QWORD PTR tv936[rsp], rax
	jmp	SHORT $LN177@calculate
$LN176@calculate:
	lea	rax, OFFSET FLAT:$SG12239
	mov	QWORD PTR tv936[rsp], rax
$LN177@calculate:
	mov	rax, QWORD PTR opnd1$[rsp]
	mov	eax, DWORD PTR [rax+76]
	shr	eax, 1
	and	eax, 1
	mov	rcx, QWORD PTR opnd1$[rsp]
	mov	ecx, DWORD PTR [rcx+76]
	and	ecx, 1
	mov	rdx, QWORD PTR tv930[rsp]
	mov	QWORD PTR [rsp+80], rdx
	mov	rdx, QWORD PTR tv936[rsp]
	mov	QWORD PTR [rsp+72], rdx
	mov	DWORD PTR [rsp+64], eax
	mov	DWORD PTR [rsp+56], ecx
	mov	rax, QWORD PTR opnd1$[rsp]
	mov	eax, DWORD PTR [rax+64]
	mov	DWORD PTR [rsp+48], eax
	mov	rax, QWORD PTR opnd1$[rsp]
	mov	eax, DWORD PTR [rax]
	mov	DWORD PTR [rsp+40], eax
	mov	rax, QWORD PTR opnd1$[rsp]
	mov	eax, DWORD PTR [rax]
	mov	DWORD PTR [rsp+32], eax
	mov	rax, QWORD PTR opnd1$[rsp]
	mov	r9d, DWORD PTR [rax+60]
	mov	rax, QWORD PTR oper$[rsp]
	mov	r8, QWORD PTR [rax+8]
	mov	edx, DWORD PTR evallvl
	lea	rcx, OFFSET FLAT:$SG12240
	call	DoDebugMsg1
$LN137@calculate:
$LN135@calculate:

; 3168 :                    evallvl,
; 3169 :                    oper->string_ptr,
; 3170 :                    opnd1->kind,
; 3171 :                    opnd1->value, opnd1->value,
; 3172 :                    opnd1->mem_type,
; 3173 :                    opnd1->indirect, opnd1->explicit,
; 3174 :                    opnd1->type ? opnd1->type->name : "NULL",
; 3175 :                    opnd1->mbr ? opnd1->mbr->name : "NULL" ));
; 3176 :     }
; 3177 : #endif
; 3178 :     return( NOT_ERROR );

	xor	eax, eax
$LN1@calculate:

; 3179 : }

	add	rsp, 288				; 00000120H
	pop	rdi
	ret	0
	npad	3
$LN180@calculate:
	DD	$LN102@calculate
	DD	$LN49@calculate
	DD	$LN22@calculate
	DD	$LN37@calculate
	DD	$LN27@calculate
	DD	$LN30@calculate
	DD	$LN33@calculate
	DD	$LN46@calculate
	DD	$LN35@calculate
	DD	$LN13@calculate
	DD	$LN133@calculate
$LN179@calculate:
	DB	0
	DB	1
	DB	10
	DB	10
	DB	10
	DB	10
	DB	10
	DB	10
	DB	10
	DB	10
	DB	10
	DB	10
	DB	10
	DB	10
	DB	10
	DB	10
	DB	10
	DB	10
	DB	10
	DB	10
	DB	10
	DB	10
	DB	10
	DB	10
	DB	10
	DB	10
	DB	10
	DB	10
	DB	10
	DB	10
	DB	10
	DB	10
	DB	10
	DB	10
	DB	10
	DB	10
	DB	2
	DB	10
	DB	3
	DB	4
	DB	10
	DB	5
	DB	6
	DB	7
	DB	10
	DB	10
	DB	10
	DB	10
	DB	10
	DB	10
	DB	10
	DB	10
	DB	10
	DB	10
	DB	8
	DB	10
	DB	10
	DB	10
	DB	10
	DB	10
	DB	10
	DB	10
	DB	10
	DB	10
	DB	10
	DB	10
	DB	10
	DB	10
	DB	10
	DB	10
	DB	10
	DB	10
	DB	10
	DB	10
	DB	10
	DB	10
	DB	10
	DB	10
	DB	10
	DB	10
	DB	10
	DB	10
	DB	10
	DB	10
	DB	10
	DB	10
	DB	10
	DB	9
$LN178@calculate:
	DD	$LN75@calculate
	DD	$LN78@calculate
	DD	$LN84@calculate
	DD	$LN83@calculate
	DD	$LN82@calculate
	DD	$LN81@calculate
	DD	$LN85@calculate
calculate ENDP
_TEXT	ENDS
; Function compile flags: /Odtp /RTCsu
; File d:\hjwasm\hjwasm2.13.1s\hjwasm2.13.1s\expreval.c
_TEXT	SEGMENT
type1$ = 64
type2$ = 72
tv79 = 80
tv87 = 88
tv95 = 96
tv143 = 104
tv159 = 108
tv201 = 112
opnd1$ = 144
opnd2$ = 152
trueval$ = 160
cmp_types PROC

; 2534 : {

	mov	DWORD PTR [rsp+24], r8d
	mov	QWORD PTR [rsp+16], rdx
	mov	QWORD PTR [rsp+8], rcx
	push	rdi
	sub	rsp, 128				; 00000080H
	mov	rdi, rsp
	mov	ecx, 32					; 00000020H
	mov	eax, -858993460				; ccccccccH
	rep stosd
	mov	rcx, QWORD PTR [rsp+144]

; 2535 :     struct asym *type1;
; 2536 :     struct asym *type2;
; 2537 : 
; 2538 :     /* v2.10: special handling of pointer types. */
; 2539 :     //if ( opnd1->mem_type == MT_PTR && opnd2->mem_type == MT_PTR && opnd1->type && opnd2->type ) {
; 2540 :     if ( opnd1->mem_type == MT_PTR && opnd2->mem_type == MT_PTR ) {

	mov	rax, QWORD PTR opnd1$[rsp]
	cmp	DWORD PTR [rax+64], 195			; 000000c3H
	jne	$LN2@cmp_types
	mov	rax, QWORD PTR opnd2$[rsp]
	cmp	DWORD PTR [rax+64], 195			; 000000c3H
	jne	$LN2@cmp_types

; 2541 :         /**/myassert( ( opnd1->type || opnd1->type_tok ) && ( opnd2->type || opnd2->type_tok ) );

	mov	rax, QWORD PTR opnd1$[rsp]
	cmp	QWORD PTR [rax+96], 0
	jne	SHORT $LN7@cmp_types
	mov	rax, QWORD PTR opnd1$[rsp]
	cmp	QWORD PTR [rax+40], 0
	je	SHORT $LN9@cmp_types
$LN7@cmp_types:
	mov	rax, QWORD PTR opnd2$[rsp]
	cmp	QWORD PTR [rax+96], 0
	jne	SHORT $LN8@cmp_types
	mov	rax, QWORD PTR opnd2$[rsp]
	cmp	QWORD PTR [rax+40], 0
	je	SHORT $LN9@cmp_types
$LN8@cmp_types:
	mov	DWORD PTR tv79[rsp], 0
	jmp	SHORT $LN10@cmp_types
$LN9@cmp_types:
	mov	edx, 2541				; 000009edH
	lea	rcx, OFFSET FLAT:$SG12035
	call	InternalError
	mov	DWORD PTR tv79[rsp], eax
$LN10@cmp_types:

; 2542 :         type1 = ( opnd1->type ? opnd1->type : SymSearch( opnd1->type_tok->string_ptr ) );

	mov	rax, QWORD PTR opnd1$[rsp]
	cmp	QWORD PTR [rax+96], 0
	je	SHORT $LN11@cmp_types
	mov	rax, QWORD PTR opnd1$[rsp]
	mov	rax, QWORD PTR [rax+96]
	mov	QWORD PTR tv87[rsp], rax
	jmp	SHORT $LN12@cmp_types
$LN11@cmp_types:
	mov	rax, QWORD PTR opnd1$[rsp]
	mov	rax, QWORD PTR [rax+40]
	mov	rcx, QWORD PTR [rax+8]
	call	SymFind
	mov	QWORD PTR tv87[rsp], rax
$LN12@cmp_types:
	mov	rax, QWORD PTR tv87[rsp]
	mov	QWORD PTR type1$[rsp], rax

; 2543 :         type2 = ( opnd2->type ? opnd2->type : SymSearch( opnd2->type_tok->string_ptr ) );

	mov	rax, QWORD PTR opnd2$[rsp]
	cmp	QWORD PTR [rax+96], 0
	je	SHORT $LN13@cmp_types
	mov	rax, QWORD PTR opnd2$[rsp]
	mov	rax, QWORD PTR [rax+96]
	mov	QWORD PTR tv95[rsp], rax
	jmp	SHORT $LN14@cmp_types
$LN13@cmp_types:
	mov	rax, QWORD PTR opnd2$[rsp]
	mov	rax, QWORD PTR [rax+40]
	mov	rcx, QWORD PTR [rax+8]
	call	SymFind
	mov	QWORD PTR tv95[rsp], rax
$LN14@cmp_types:
	mov	rax, QWORD PTR tv95[rsp]
	mov	QWORD PTR type2$[rsp], rax

; 2544 :         //opnd1->value64 = ( ( type1->is_ptr == type2->is_ptr &&
; 2545 :         opnd1->value64 = ( ( type1->is_ptr == type2->is_ptr &&

	mov	rax, QWORD PTR type1$[rsp]
	movzx	eax, BYTE PTR [rax+45]
	mov	rcx, QWORD PTR type2$[rsp]
	movzx	ecx, BYTE PTR [rcx+45]
	cmp	eax, ecx
	jne	SHORT $LN15@cmp_types
	mov	rax, QWORD PTR type1$[rsp]
	movzx	eax, BYTE PTR [rax+46]
	mov	rcx, QWORD PTR type2$[rsp]
	movzx	ecx, BYTE PTR [rcx+46]
	cmp	eax, ecx
	jne	SHORT $LN15@cmp_types
	mov	rax, QWORD PTR type1$[rsp]
	mov	rcx, QWORD PTR type2$[rsp]
	mov	rcx, QWORD PTR [rcx+48]
	cmp	QWORD PTR [rax+48], rcx
	jne	SHORT $LN15@cmp_types
	mov	eax, DWORD PTR trueval$[rsp]
	mov	DWORD PTR tv143[rsp], eax
	jmp	SHORT $LN16@cmp_types
$LN15@cmp_types:
	mov	eax, DWORD PTR trueval$[rsp]
	not	eax
	mov	DWORD PTR tv143[rsp], eax
$LN16@cmp_types:
	movsxd	rax, DWORD PTR tv143[rsp]
	mov	rcx, QWORD PTR opnd1$[rsp]
	mov	QWORD PTR [rcx], rax

; 2546 :                             type1->ptr_memtype == type2->ptr_memtype &&
; 2547 :                             type1->target_type == type2->target_type ) ? trueval : ~trueval );
; 2548 :         DebugMsg1(("cmp_types: MT_PTR-MT_PTR is_ptr=%u-%u ptr_memtype=%X-%X target_type=%X-%X\n",

	mov	rax, QWORD PTR type2$[rsp]
	movzx	eax, BYTE PTR [rax+46]
	mov	rcx, QWORD PTR type1$[rsp]
	movzx	ecx, BYTE PTR [rcx+46]
	mov	rdx, QWORD PTR type2$[rsp]
	movzx	edx, BYTE PTR [rdx+45]
	mov	r8, QWORD PTR type1$[rsp]
	movzx	r8d, BYTE PTR [r8+45]
	mov	DWORD PTR tv159[rsp], r8d
	mov	r9, QWORD PTR type2$[rsp]
	mov	r9, QWORD PTR [r9+48]
	mov	QWORD PTR [rsp+48], r9
	mov	r9, QWORD PTR type1$[rsp]
	mov	r9, QWORD PTR [r9+48]
	mov	QWORD PTR [rsp+40], r9
	mov	DWORD PTR [rsp+32], eax
	mov	r9d, ecx
	mov	r8d, edx
	mov	eax, DWORD PTR tv159[rsp]
	mov	edx, eax
	lea	rcx, OFFSET FLAT:$SG12036
	call	DoDebugMsg1

; 2549 :                    type1->is_ptr, type2->is_ptr,
; 2550 :                    type1->ptr_memtype, type2->ptr_memtype,
; 2551 :                    type1->target_type, type2->target_type ));
; 2552 :     } else {

	jmp	$LN3@cmp_types
$LN2@cmp_types:

; 2553 :         DebugMsg1(("cmp_types: memtype=%X-%X type=%X-%X\n",

	mov	rax, QWORD PTR opnd2$[rsp]
	mov	rax, QWORD PTR [rax+96]
	mov	QWORD PTR [rsp+32], rax
	mov	rax, QWORD PTR opnd1$[rsp]
	mov	r9, QWORD PTR [rax+96]
	mov	rax, QWORD PTR opnd2$[rsp]
	mov	r8d, DWORD PTR [rax+64]
	mov	rax, QWORD PTR opnd1$[rsp]
	mov	edx, DWORD PTR [rax+64]
	lea	rcx, OFFSET FLAT:$SG12037
	call	DoDebugMsg1

; 2554 :                    opnd1->mem_type, opnd2->mem_type, opnd1->type, opnd2->type ));
; 2555 :         /* v2.09: include type member in comparison, but ignore typedef types */
; 2556 :         if ( opnd1->type && opnd1->type->typekind == TYPE_TYPEDEF && opnd1->type->is_ptr == 0 )

	mov	rax, QWORD PTR opnd1$[rsp]
	cmp	QWORD PTR [rax+96], 0
	je	SHORT $LN4@cmp_types
	mov	rax, QWORD PTR opnd1$[rsp]
	mov	rax, QWORD PTR [rax+96]
	movzx	eax, BYTE PTR [rax+66]
	cmp	eax, 3
	jne	SHORT $LN4@cmp_types
	mov	rax, QWORD PTR opnd1$[rsp]
	mov	rax, QWORD PTR [rax+96]
	movzx	eax, BYTE PTR [rax+45]
	test	eax, eax
	jne	SHORT $LN4@cmp_types

; 2557 :             opnd1->type = NULL;

	mov	rax, QWORD PTR opnd1$[rsp]
	mov	QWORD PTR [rax+96], 0
$LN4@cmp_types:

; 2558 :         if ( opnd2->type && opnd2->type->typekind == TYPE_TYPEDEF && opnd2->type->is_ptr == 0 )

	mov	rax, QWORD PTR opnd2$[rsp]
	cmp	QWORD PTR [rax+96], 0
	je	SHORT $LN5@cmp_types
	mov	rax, QWORD PTR opnd2$[rsp]
	mov	rax, QWORD PTR [rax+96]
	movzx	eax, BYTE PTR [rax+66]
	cmp	eax, 3
	jne	SHORT $LN5@cmp_types
	mov	rax, QWORD PTR opnd2$[rsp]
	mov	rax, QWORD PTR [rax+96]
	movzx	eax, BYTE PTR [rax+45]
	test	eax, eax
	jne	SHORT $LN5@cmp_types

; 2559 :             opnd2->type = NULL;

	mov	rax, QWORD PTR opnd2$[rsp]
	mov	QWORD PTR [rax+96], 0
$LN5@cmp_types:

; 2560 :         opnd1->value64 = ( ( opnd1->mem_type == opnd2->mem_type &&

	mov	rax, QWORD PTR opnd1$[rsp]
	mov	rcx, QWORD PTR opnd2$[rsp]
	mov	ecx, DWORD PTR [rcx+64]
	cmp	DWORD PTR [rax+64], ecx
	jne	SHORT $LN17@cmp_types
	mov	rax, QWORD PTR opnd1$[rsp]
	mov	rcx, QWORD PTR opnd2$[rsp]
	mov	rcx, QWORD PTR [rcx+96]
	cmp	QWORD PTR [rax+96], rcx
	jne	SHORT $LN17@cmp_types
	mov	eax, DWORD PTR trueval$[rsp]
	mov	DWORD PTR tv201[rsp], eax
	jmp	SHORT $LN18@cmp_types
$LN17@cmp_types:
	mov	eax, DWORD PTR trueval$[rsp]
	not	eax
	mov	DWORD PTR tv201[rsp], eax
$LN18@cmp_types:
	movsxd	rax, DWORD PTR tv201[rsp]
	mov	rcx, QWORD PTR opnd1$[rsp]
	mov	QWORD PTR [rcx], rax
$LN3@cmp_types:

; 2561 :                             opnd1->type == opnd2->type ) ? trueval : ~trueval );
; 2562 :     }
; 2563 : }

	add	rsp, 128				; 00000080H
	pop	rdi
	ret	0
cmp_types ENDP
_TEXT	ENDS
; Function compile flags: /Odtp /RTCsu
; File d:\hjwasm\hjwasm2.13.1s\hjwasm2.13.1s\expreval.c
_TEXT	SEGMENT
opnd1$ = 48
opnd2$ = 56
check_streg PROC

; 2518 : {

	mov	QWORD PTR [rsp+16], rdx
	mov	QWORD PTR [rsp+8], rcx
	push	rdi
	sub	rsp, 32					; 00000020H
	mov	rdi, rsp
	mov	ecx, 8
	mov	eax, -858993460				; ccccccccH
	rep stosd
	mov	rcx, QWORD PTR [rsp+48]

; 2519 :     if ( opnd1->scale > 0 ) {

	mov	rax, QWORD PTR opnd1$[rsp]
	movzx	eax, BYTE PTR [rax+68]
	test	eax, eax
	jle	SHORT $LN2@check_stre

; 2520 :         return( fnEmitErr( INVALID_USE_OF_REGISTER ) );

	mov	ecx, 170				; 000000aaH
	call	QWORD PTR fnEmitErr
	jmp	SHORT $LN1@check_stre
$LN2@check_stre:

; 2521 :     }
; 2522 :     opnd1->scale++; /* make sure there's only ONE bracket pair */

	mov	rax, QWORD PTR opnd1$[rsp]
	movzx	eax, BYTE PTR [rax+68]
	inc	al
	mov	rcx, QWORD PTR opnd1$[rsp]
	mov	BYTE PTR [rcx+68], al

; 2523 :     if ( opnd2->kind != EXPR_CONST ) {

	mov	rax, QWORD PTR opnd2$[rsp]
	cmp	DWORD PTR [rax+60], 0
	je	SHORT $LN3@check_stre

; 2524 :         return( fnEmitErr( INVALID_COPROCESSOR_REGISTER ) );

	mov	ecx, 252				; 000000fcH
	call	QWORD PTR fnEmitErr
	jmp	SHORT $LN1@check_stre
$LN3@check_stre:

; 2525 :     }
; 2526 :     opnd1->st_idx = opnd2->value;

	mov	rax, QWORD PTR opnd1$[rsp]
	mov	rcx, QWORD PTR opnd2$[rsp]
	mov	ecx, DWORD PTR [rcx]
	mov	DWORD PTR [rax], ecx

; 2527 :     return( NOT_ERROR );

	xor	eax, eax
$LN1@check_stre:

; 2528 : }

	add	rsp, 32					; 00000020H
	pop	rdi
	ret	0
check_streg ENDP
_TEXT	ENDS
; Function compile flags: /Odtp /RTCsu
; File d:\hjwasm\hjwasm2.13.1s\hjwasm2.13.1s\expreval.c
_TEXT	SEGMENT
sym$ = 80
tv143 = 88
tv149 = 96
tv162 = 104
tv168 = 112
tv178 = 120
tv137 = 124
tv152 = 128
opnd$ = 160
CheckAssume PROC

; 2456 : {

	mov	QWORD PTR [rsp+8], rcx
	push	rdi
	sub	rsp, 144				; 00000090H
	mov	rdi, rsp
	mov	ecx, 36					; 00000024H
	mov	eax, -858993460				; ccccccccH
	rep stosd
	mov	rcx, QWORD PTR [rsp+160]

; 2457 :     struct asym *sym = NULL;

	mov	QWORD PTR sym$[rsp], 0

; 2458 : 
; 2459 : #if 1 /* v2.10: see regression test ptr2.asm */
; 2460 :     if ( opnd->explicit ) { /* perhaps check mem_type instead of explicit */

	mov	rax, QWORD PTR opnd$[rsp]
	mov	eax, DWORD PTR [rax+76]
	shr	eax, 1
	and	eax, 1
	test	eax, eax
	je	$LN2@CheckAssum

; 2461 :         if ( opnd->type && opnd->type->mem_type == MT_PTR ) {

	mov	rax, QWORD PTR opnd$[rsp]
	cmp	QWORD PTR [rax+96], 0
	je	$LN3@CheckAssum
	mov	rax, QWORD PTR opnd$[rsp]
	mov	rax, QWORD PTR [rax+96]
	cmp	DWORD PTR [rax+36], 195			; 000000c3H
	jne	SHORT $LN3@CheckAssum

; 2462 :             DebugMsg1(( "CheckAssume(%s, MT_PTR type=>%s< )\n", opnd->type->name ));

	mov	rax, QWORD PTR opnd$[rsp]
	mov	rax, QWORD PTR [rax+96]
	mov	rdx, QWORD PTR [rax+8]
	lea	rcx, OFFSET FLAT:$SG11997
	call	DoDebugMsg1

; 2463 :             if ( opnd->type->is_ptr == 1 ) { /* dereference only if indirection is 1 */

	mov	rax, QWORD PTR opnd$[rsp]
	mov	rax, QWORD PTR [rax+96]
	movzx	eax, BYTE PTR [rax+45]
	cmp	eax, 1
	jne	SHORT $LN4@CheckAssum

; 2464 :                 opnd->mem_type = opnd->type->ptr_memtype;

	mov	rax, QWORD PTR opnd$[rsp]
	mov	rax, QWORD PTR [rax+96]
	movzx	eax, BYTE PTR [rax+46]
	mov	rcx, QWORD PTR opnd$[rsp]
	mov	DWORD PTR [rcx+64], eax

; 2465 :                 opnd->type = opnd->type->target_type;

	mov	rax, QWORD PTR opnd$[rsp]
	mov	rax, QWORD PTR [rax+96]
	mov	rcx, QWORD PTR opnd$[rsp]
	mov	rax, QWORD PTR [rax+48]
	mov	QWORD PTR [rcx+96], rax

; 2466 :                 return; /* ignore assumes in this case */

	jmp	$LN1@CheckAssum
$LN4@CheckAssum:
$LN3@CheckAssum:
$LN2@CheckAssum:

; 2467 :             }
; 2468 :         }
; 2469 :     }
; 2470 : #endif
; 2471 :     /* in jwasm < v2.10, the idx_reg had higher priority than base_reg.
; 2472 :      * However, the base reg is supposed to have a higher priority.
; 2473 :      * This wasn't fully clear, because in Masm 6, if no register has
; 2474 :      * a scaling factor, the second one becomes base - something that
; 2475 :      * HJWasm didn't do, unless -Zg was set.
; 2476 :      * Since v2.10, HJWasm behaves like Masm v6+: base and index registers
; 2477 :      * are swapped, and assume for base has higher priority than assume for
; 2478 :      * index.
; 2479 :      */
; 2480 :     if ( opnd->base_reg ) {

	mov	rax, QWORD PTR opnd$[rsp]
	cmp	QWORD PTR [rax+24], 0
	je	SHORT $LN5@CheckAssum

; 2481 :         sym = GetStdAssumeEx( opnd->base_reg->bytval );

	mov	rax, QWORD PTR opnd$[rsp]
	mov	rax, QWORD PTR [rax+24]
	movzx	eax, BYTE PTR [rax+1]
	mov	ecx, eax
	call	GetStdAssumeEx
	mov	QWORD PTR sym$[rsp], rax
$LN5@CheckAssum:

; 2482 :     }
; 2483 :     if (!sym && opnd->idx_reg ) {

	cmp	QWORD PTR sym$[rsp], 0
	jne	SHORT $LN6@CheckAssum
	mov	rax, QWORD PTR opnd$[rsp]
	cmp	QWORD PTR [rax+32], 0
	je	SHORT $LN6@CheckAssum

; 2484 :         sym = GetStdAssumeEx( opnd->idx_reg->bytval );

	mov	rax, QWORD PTR opnd$[rsp]
	mov	rax, QWORD PTR [rax+32]
	movzx	eax, BYTE PTR [rax+1]
	mov	ecx, eax
	call	GetStdAssumeEx
	mov	QWORD PTR sym$[rsp], rax
$LN6@CheckAssum:

; 2485 :     }
; 2486 :     if ( sym ) {

	cmp	QWORD PTR sym$[rsp], 0
	je	$LN7@CheckAssum

; 2487 :         DebugMsg1(( "CheckAssume(%s, type=>%s<, mbr=>%s<): assume=%s [memtype=%X isptr=%u type=%s target_type=%s ptr_memt=%X]\n",

	mov	rax, QWORD PTR sym$[rsp]
	cmp	QWORD PTR [rax+48], 0
	je	SHORT $LN14@CheckAssum
	mov	rax, QWORD PTR sym$[rsp]
	mov	rax, QWORD PTR [rax+48]
	mov	rax, QWORD PTR [rax+8]
	mov	QWORD PTR tv143[rsp], rax
	jmp	SHORT $LN15@CheckAssum
$LN14@CheckAssum:
	lea	rax, OFFSET FLAT:$SG12002
	mov	QWORD PTR tv143[rsp], rax
$LN15@CheckAssum:
	mov	rax, QWORD PTR sym$[rsp]
	cmp	QWORD PTR [rax+80], 0
	je	SHORT $LN16@CheckAssum
	mov	rax, QWORD PTR sym$[rsp]
	mov	rax, QWORD PTR [rax+80]
	mov	rax, QWORD PTR [rax+8]
	mov	QWORD PTR tv149[rsp], rax
	jmp	SHORT $LN17@CheckAssum
$LN16@CheckAssum:
	lea	rax, OFFSET FLAT:$SG12003
	mov	QWORD PTR tv149[rsp], rax
$LN17@CheckAssum:
	mov	rax, QWORD PTR opnd$[rsp]
	cmp	QWORD PTR [rax+88], 0
	je	SHORT $LN18@CheckAssum
	mov	rax, QWORD PTR opnd$[rsp]
	mov	rax, QWORD PTR [rax+88]
	mov	rax, QWORD PTR [rax+8]
	mov	QWORD PTR tv162[rsp], rax
	jmp	SHORT $LN19@CheckAssum
$LN18@CheckAssum:
	lea	rax, OFFSET FLAT:$SG12004
	mov	QWORD PTR tv162[rsp], rax
$LN19@CheckAssum:
	mov	rax, QWORD PTR opnd$[rsp]
	cmp	QWORD PTR [rax+96], 0
	je	SHORT $LN20@CheckAssum
	mov	rax, QWORD PTR opnd$[rsp]
	mov	rax, QWORD PTR [rax+96]
	mov	rax, QWORD PTR [rax+8]
	mov	QWORD PTR tv168[rsp], rax
	jmp	SHORT $LN21@CheckAssum
$LN20@CheckAssum:
	lea	rax, OFFSET FLAT:$SG12005
	mov	QWORD PTR tv168[rsp], rax
$LN21@CheckAssum:
	mov	rax, QWORD PTR opnd$[rsp]
	cmp	QWORD PTR [rax+32], 0
	je	SHORT $LN22@CheckAssum
	mov	rax, QWORD PTR opnd$[rsp]
	mov	rax, QWORD PTR [rax+32]
	mov	eax, DWORD PTR [rax+16]
	mov	DWORD PTR tv178[rsp], eax
	jmp	SHORT $LN23@CheckAssum
$LN22@CheckAssum:
	mov	rax, QWORD PTR opnd$[rsp]
	mov	rax, QWORD PTR [rax+24]
	mov	eax, DWORD PTR [rax+16]
	mov	DWORD PTR tv178[rsp], eax
$LN23@CheckAssum:
	mov	rax, QWORD PTR sym$[rsp]
	movzx	eax, BYTE PTR [rax+46]
	mov	DWORD PTR tv137[rsp], eax
	mov	rcx, QWORD PTR sym$[rsp]
	movzx	ecx, BYTE PTR [rcx+45]
	mov	DWORD PTR tv152[rsp], ecx
	xor	edx, edx
	mov	ecx, DWORD PTR tv178[rsp]
	call	GetResWName
	mov	ecx, DWORD PTR tv137[rsp]
	mov	DWORD PTR [rsp+72], ecx
	mov	rcx, QWORD PTR tv143[rsp]
	mov	QWORD PTR [rsp+64], rcx
	mov	rcx, QWORD PTR tv149[rsp]
	mov	QWORD PTR [rsp+56], rcx
	mov	ecx, DWORD PTR tv152[rsp]
	mov	DWORD PTR [rsp+48], ecx
	mov	rcx, QWORD PTR sym$[rsp]
	mov	ecx, DWORD PTR [rcx+36]
	mov	DWORD PTR [rsp+40], ecx
	mov	rcx, QWORD PTR sym$[rsp]
	mov	rcx, QWORD PTR [rcx+8]
	mov	QWORD PTR [rsp+32], rcx
	mov	r9, QWORD PTR tv162[rsp]
	mov	r8, QWORD PTR tv168[rsp]
	mov	rdx, rax
	lea	rcx, OFFSET FLAT:$SG12006
	call	DoDebugMsg1

; 2488 :                    GetResWName( ( opnd->idx_reg ? opnd->idx_reg->tokval : opnd->base_reg->tokval ), NULL ),
; 2489 :                    opnd->type ? opnd->type->name : "NULL",
; 2490 :                    opnd->mbr ? opnd->mbr->name : "NULL",
; 2491 :                    sym->name, sym->mem_type, sym->is_ptr,
; 2492 :                    sym->type ? sym->type->name : "NULL",
; 2493 :                    sym->target_type ? sym->target_type->name : "NULL",
; 2494 :                    sym->ptr_memtype ));
; 2495 :         /* v2.08: skip ASSUMEd type if type or mbr is set */
; 2496 :         //if ( opnd->type || opnd->mbr )
; 2497 :         //    return;
; 2498 :         /* skip "alias" types */
; 2499 :         /* v2.05: obsolete */
; 2500 :         //for ( ; sym->type; sym = sym->type );
; 2501 :         /* v2.05: new */
; 2502 :         if ( sym->mem_type == MT_TYPE )

	mov	rax, QWORD PTR sym$[rsp]
	cmp	DWORD PTR [rax+36], 196			; 000000c4H
	jne	SHORT $LN8@CheckAssum

; 2503 :             opnd->type = sym->type;

	mov	rax, QWORD PTR opnd$[rsp]
	mov	rcx, QWORD PTR sym$[rsp]
	mov	rcx, QWORD PTR [rcx+80]
	mov	QWORD PTR [rax+96], rcx
	jmp	SHORT $LN9@CheckAssum
$LN8@CheckAssum:

; 2504 :         else if ( sym->is_ptr == 1 ) { /* v2.10: only dereference if indirection is 1 */

	mov	rax, QWORD PTR sym$[rsp]
	movzx	eax, BYTE PTR [rax+45]
	cmp	eax, 1
	jne	SHORT $LN10@CheckAssum

; 2505 :             opnd->type = sym->target_type;

	mov	rax, QWORD PTR opnd$[rsp]
	mov	rcx, QWORD PTR sym$[rsp]
	mov	rcx, QWORD PTR [rcx+48]
	mov	QWORD PTR [rax+96], rcx

; 2506 :             if ( sym->target_type )

	mov	rax, QWORD PTR sym$[rsp]
	cmp	QWORD PTR [rax+48], 0
	je	SHORT $LN11@CheckAssum

; 2507 :                 opnd->mem_type = sym->target_type->mem_type;

	mov	rax, QWORD PTR sym$[rsp]
	mov	rax, QWORD PTR [rax+48]
	mov	rcx, QWORD PTR opnd$[rsp]
	mov	eax, DWORD PTR [rax+36]
	mov	DWORD PTR [rcx+64], eax
	jmp	SHORT $LN12@CheckAssum
$LN11@CheckAssum:

; 2508 :             else
; 2509 :                 opnd->mem_type = sym->ptr_memtype;

	mov	rax, QWORD PTR sym$[rsp]
	movzx	eax, BYTE PTR [rax+46]
	mov	rcx, QWORD PTR opnd$[rsp]
	mov	DWORD PTR [rcx+64], eax
$LN12@CheckAssum:
$LN10@CheckAssum:
$LN9@CheckAssum:
$LN7@CheckAssum:
$LN1@CheckAssum:

; 2510 :         }
; 2511 :     }
; 2512 : }

	add	rsp, 144				; 00000090H
	pop	rdi
	ret	0
CheckAssume ENDP
_TEXT	ENDS
; Function compile flags: /Odtp /RTCsu
; File d:\hjwasm\hjwasm2.13.1s\hjwasm2.13.1s\expreval.c
_TEXT	SEGMENT
opnd1$ = 48
opnd2$ = 56
negative_op PROC

; 2421 : {

	mov	QWORD PTR [rsp+16], rdx
	mov	QWORD PTR [rsp+8], rcx
	push	rdi
	sub	rsp, 32					; 00000020H
	mov	rdi, rsp
	mov	ecx, 8
	mov	eax, -858993460				; ccccccccH
	rep stosd
	mov	rcx, QWORD PTR [rsp+48]

; 2422 :     DebugMsg1(("negative_op: value=%" I64_SPEC "X high=%" I64_SPEC "X\n", opnd2->llvalue, opnd2->hlvalue ));

	mov	rax, QWORD PTR opnd2$[rsp]
	mov	r8, QWORD PTR [rax+8]
	mov	rax, QWORD PTR opnd2$[rsp]
	mov	rdx, QWORD PTR [rax]
	lea	rcx, OFFSET FLAT:$SG11981
	call	DoDebugMsg1

; 2423 :     /*
; 2424 :      * The formats allowed are:
; 2425 :      *        - constant
; 2426 :      *        - float
; 2427 :      */
; 2428 : 
; 2429 :     MakeConst( opnd2 );

	mov	rcx, QWORD PTR opnd2$[rsp]
	call	MakeConst

; 2430 :     if( opnd2->kind == EXPR_CONST ) {

	mov	rax, QWORD PTR opnd2$[rsp]
	cmp	DWORD PTR [rax+60], 0
	jne	SHORT $LN2@negative_o

; 2431 :         opnd1->kind = EXPR_CONST;

	mov	rax, QWORD PTR opnd1$[rsp]
	mov	DWORD PTR [rax+60], 0

; 2432 :         opnd1->llvalue = -opnd2->llvalue;

	mov	rax, QWORD PTR opnd2$[rsp]
	mov	rax, QWORD PTR [rax]
	neg	rax
	mov	rcx, QWORD PTR opnd1$[rsp]
	mov	QWORD PTR [rcx], rax

; 2433 :         /* v2.06: the unary '-' operator is to work with
; 2434 :          * magnitudes > 64-bit. Current implementation is
; 2435 :          * a bit hackish.
; 2436 :          */
; 2437 :         if ( opnd2->hlvalue )

	mov	rax, QWORD PTR opnd2$[rsp]
	cmp	QWORD PTR [rax+8], 0
	je	SHORT $LN4@negative_o

; 2438 :             opnd1->hlvalue = -opnd2->hlvalue - 1;

	mov	rax, QWORD PTR opnd2$[rsp]
	mov	rax, QWORD PTR [rax+8]
	neg	rax
	dec	rax
	mov	rcx, QWORD PTR opnd1$[rsp]
	mov	QWORD PTR [rcx+8], rax
$LN4@negative_o:

; 2439 :         opnd1->negative = 1 - opnd2->negative; /* ??? supposed to be used for EXPR_FLOAT only! */

	mov	rax, QWORD PTR opnd2$[rsp]
	mov	eax, DWORD PTR [rax+76]
	shr	eax, 5
	and	eax, 1
	mov	ecx, 1
	sub	ecx, eax
	mov	eax, ecx
	and	eax, 1
	shl	eax, 5
	mov	rcx, QWORD PTR opnd1$[rsp]
	mov	ecx, DWORD PTR [rcx+76]
	and	ecx, -33				; ffffffdfH
	or	ecx, eax
	mov	eax, ecx
	mov	rcx, QWORD PTR opnd1$[rsp]
	mov	DWORD PTR [rcx+76], eax
	jmp	$LN3@negative_o
$LN2@negative_o:

; 2440 :     } else if( opnd2->kind == EXPR_FLOAT ) {

	mov	rax, QWORD PTR opnd2$[rsp]
	cmp	DWORD PTR [rax+60], 3
	jne	SHORT $LN5@negative_o

; 2441 :         opnd1->kind = EXPR_FLOAT;

	mov	rax, QWORD PTR opnd1$[rsp]
	mov	DWORD PTR [rax+60], 3

; 2442 :         opnd1->float_tok = opnd2->float_tok;

	mov	rax, QWORD PTR opnd1$[rsp]
	mov	rcx, QWORD PTR opnd2$[rsp]
	mov	rcx, QWORD PTR [rcx+16]
	mov	QWORD PTR [rax+16], rcx

; 2443 :         opnd1->negative = 1 - opnd2->negative;

	mov	rax, QWORD PTR opnd2$[rsp]
	mov	eax, DWORD PTR [rax+76]
	shr	eax, 5
	and	eax, 1
	mov	ecx, 1
	sub	ecx, eax
	mov	eax, ecx
	and	eax, 1
	shl	eax, 5
	mov	rcx, QWORD PTR opnd1$[rsp]
	mov	ecx, DWORD PTR [rcx+76]
	and	ecx, -33				; ffffffdfH
	or	ecx, eax
	mov	eax, ecx
	mov	rcx, QWORD PTR opnd1$[rsp]
	mov	DWORD PTR [rcx+76], eax

; 2444 :     } else {

	jmp	SHORT $LN6@negative_o
$LN5@negative_o:

; 2445 :         DebugMsg(("negative_op: unexpected opnd2.kind=%d\n", opnd2->kind ));

	mov	rax, QWORD PTR opnd2$[rsp]
	mov	edx, DWORD PTR [rax+60]
	lea	rcx, OFFSET FLAT:$SG11987
	call	DoDebugMsg

; 2446 :         return( fnEmitErr( CONSTANT_EXPECTED ) );

	mov	ecx, 65					; 00000041H
	call	QWORD PTR fnEmitErr
	jmp	SHORT $LN1@negative_o
$LN6@negative_o:
$LN3@negative_o:

; 2447 :     }
; 2448 :     return( NOT_ERROR );

	xor	eax, eax
$LN1@negative_o:

; 2449 : }

	add	rsp, 32					; 00000020H
	pop	rdi
	ret	0
negative_op ENDP
_TEXT	ENDS
; Function compile flags: /Odtp /RTCsu
; File d:\hjwasm\hjwasm2.13.1s\hjwasm2.13.1s\expreval.c
_TEXT	SEGMENT
opnd1$ = 48
opnd2$ = 56
positive_op PROC

; 2393 : {

	mov	QWORD PTR [rsp+16], rdx
	mov	QWORD PTR [rsp+8], rcx
	push	rdi
	sub	rsp, 32					; 00000020H
	mov	rdi, rsp
	mov	ecx, 8
	mov	eax, -858993460				; ccccccccH
	rep stosd
	mov	rcx, QWORD PTR [rsp+48]

; 2394 :     DebugMsg1(("positive_op: value=%" I64_SPEC "X high=%" I64_SPEC "X\n", opnd2->llvalue, opnd2->hlvalue ));

	mov	rax, QWORD PTR opnd2$[rsp]
	mov	r8, QWORD PTR [rax+8]
	mov	rax, QWORD PTR opnd2$[rsp]
	mov	rdx, QWORD PTR [rax]
	lea	rcx, OFFSET FLAT:$SG11969
	call	DoDebugMsg1

; 2395 :     /*
; 2396 :      * The formats allowed are:
; 2397 :      *        + constant
; 2398 :      *        + float
; 2399 :      * v2.06: unlike the other operators unary + will
; 2400 :      * handle 128-bit values (needed for TBYTE integers)
; 2401 :      */
; 2402 : 
; 2403 :     MakeConst( opnd2 );

	mov	rcx, QWORD PTR opnd2$[rsp]
	call	MakeConst

; 2404 :     if( opnd2->kind == EXPR_CONST ) {

	mov	rax, QWORD PTR opnd2$[rsp]
	cmp	DWORD PTR [rax+60], 0
	jne	SHORT $LN2@positive_o

; 2405 :         opnd1->kind = EXPR_CONST;

	mov	rax, QWORD PTR opnd1$[rsp]
	mov	DWORD PTR [rax+60], 0

; 2406 :         opnd1->llvalue = opnd2->llvalue;

	mov	rax, QWORD PTR opnd1$[rsp]
	mov	rcx, QWORD PTR opnd2$[rsp]
	mov	rcx, QWORD PTR [rcx]
	mov	QWORD PTR [rax], rcx

; 2407 :         opnd1->hlvalue = opnd2->hlvalue; /* v2.06: added */

	mov	rax, QWORD PTR opnd1$[rsp]
	mov	rcx, QWORD PTR opnd2$[rsp]
	mov	rcx, QWORD PTR [rcx+8]
	mov	QWORD PTR [rax+8], rcx
	jmp	SHORT $LN3@positive_o
$LN2@positive_o:

; 2408 :     } else if( opnd2->kind == EXPR_FLOAT ) {

	mov	rax, QWORD PTR opnd2$[rsp]
	cmp	DWORD PTR [rax+60], 3
	jne	SHORT $LN4@positive_o

; 2409 :         opnd1->kind = EXPR_FLOAT;

	mov	rax, QWORD PTR opnd1$[rsp]
	mov	DWORD PTR [rax+60], 3

; 2410 :         opnd1->float_tok = opnd2->float_tok;

	mov	rax, QWORD PTR opnd1$[rsp]
	mov	rcx, QWORD PTR opnd2$[rsp]
	mov	rcx, QWORD PTR [rcx+16]
	mov	QWORD PTR [rax+16], rcx

; 2411 :         opnd1->negative = opnd2->negative;

	mov	rax, QWORD PTR opnd2$[rsp]
	mov	eax, DWORD PTR [rax+76]
	shr	eax, 5
	and	eax, 1
	and	eax, 1
	shl	eax, 5
	mov	rcx, QWORD PTR opnd1$[rsp]
	mov	ecx, DWORD PTR [rcx+76]
	and	ecx, -33				; ffffffdfH
	or	ecx, eax
	mov	eax, ecx
	mov	rcx, QWORD PTR opnd1$[rsp]
	mov	DWORD PTR [rcx+76], eax

; 2412 :     } else {

	jmp	SHORT $LN5@positive_o
$LN4@positive_o:

; 2413 :         DebugMsg(("positive_op: error 1\n"));

	lea	rcx, OFFSET FLAT:$SG11974
	call	DoDebugMsg

; 2414 :         return( fnEmitErr( CONSTANT_EXPECTED ) );

	mov	ecx, 65					; 00000041H
	call	QWORD PTR fnEmitErr
	jmp	SHORT $LN1@positive_o
$LN5@positive_o:
$LN3@positive_o:

; 2415 :     }
; 2416 :     return( NOT_ERROR );

	xor	eax, eax
$LN1@positive_o:

; 2417 : }

	add	rsp, 32					; 00000020H
	pop	rdi
	ret	0
positive_op ENDP
_TEXT	ENDS
; Function compile flags: /Odtp /RTCsu
; File d:\hjwasm\hjwasm2.13.1s\hjwasm2.13.1s\expreval.c
_TEXT	SEGMENT
temp$ = 64
sym$ = 72
tv76 = 80
tv82 = 88
tv142 = 96
opnd1$ = 128
opnd2$ = 136
colon_op PROC

; 2262 : {

	mov	QWORD PTR [rsp+16], rdx
	mov	QWORD PTR [rsp+8], rcx
	push	rdi
	sub	rsp, 112				; 00000070H
	mov	rdi, rsp
	mov	ecx, 28
	mov	eax, -858993460				; ccccccccH
	rep stosd
	mov	rcx, QWORD PTR [rsp+128]

; 2263 :     int_32              temp;
; 2264 :     struct asym         *sym;
; 2265 :     /*
; 2266 :      * The only formats allowed are:
; 2267 :      *     seg_reg : const
; 2268 :      *     seg_reg : address
; 2269 :      *     seg_label : const
; 2270 :      *     seg_label : address
; 2271 :      *     ( seg_label = segment or group symbol )
; 2272 :      *     inside square brackets, seg_reg : register is not accepted
; 2273 :      *     if Masm-syntax is on.
; 2274 :      */
; 2275 :     DebugMsg1(("colon_op: t1-t2 kind=%d/%d type=%s-%s is_type=%u-%u\n",

	mov	rax, QWORD PTR opnd2$[rsp]
	cmp	QWORD PTR [rax+96], 0
	je	SHORT $LN27@colon_op
	mov	rax, QWORD PTR opnd2$[rsp]
	mov	rax, QWORD PTR [rax+96]
	mov	rax, QWORD PTR [rax+8]
	mov	QWORD PTR tv76[rsp], rax
	jmp	SHORT $LN28@colon_op
$LN27@colon_op:
	lea	rax, OFFSET FLAT:$SG11933
	mov	QWORD PTR tv76[rsp], rax
$LN28@colon_op:
	mov	rax, QWORD PTR opnd1$[rsp]
	cmp	QWORD PTR [rax+96], 0
	je	SHORT $LN29@colon_op
	mov	rax, QWORD PTR opnd1$[rsp]
	mov	rax, QWORD PTR [rax+96]
	mov	rax, QWORD PTR [rax+8]
	mov	QWORD PTR tv82[rsp], rax
	jmp	SHORT $LN30@colon_op
$LN29@colon_op:
	lea	rax, OFFSET FLAT:$SG11934
	mov	QWORD PTR tv82[rsp], rax
$LN30@colon_op:
	mov	rax, QWORD PTR opnd2$[rsp]
	mov	eax, DWORD PTR [rax+76]
	shr	eax, 3
	and	eax, 1
	mov	rcx, QWORD PTR opnd1$[rsp]
	mov	ecx, DWORD PTR [rcx+76]
	shr	ecx, 3
	and	ecx, 1
	mov	DWORD PTR [rsp+48], eax
	mov	DWORD PTR [rsp+40], ecx
	mov	rax, QWORD PTR tv76[rsp]
	mov	QWORD PTR [rsp+32], rax
	mov	r9, QWORD PTR tv82[rsp]
	mov	rax, QWORD PTR opnd2$[rsp]
	mov	r8d, DWORD PTR [rax+60]
	mov	rax, QWORD PTR opnd1$[rsp]
	mov	edx, DWORD PTR [rax+60]
	lea	rcx, OFFSET FLAT:$SG11935
	call	DoDebugMsg1

; 2276 :                opnd1->kind, opnd2->kind,
; 2277 :                opnd1->type ? opnd1->type->name : "NULL",
; 2278 :                opnd2->type ? opnd2->type->name : "NULL",
; 2279 :                opnd1->is_type, opnd2->is_type ));
; 2280 :     if( opnd2->override != NULL ) {

	mov	rax, QWORD PTR opnd2$[rsp]
	cmp	QWORD PTR [rax+48], 0
	je	SHORT $LN4@colon_op

; 2281 :         /* v2.07a: was too rigid */
; 2282 :         if ( ( opnd1->kind == EXPR_REG && opnd2->override->token == T_REG ) ||

	mov	rax, QWORD PTR opnd1$[rsp]
	cmp	DWORD PTR [rax+60], 2
	jne	SHORT $LN7@colon_op
	mov	rax, QWORD PTR opnd2$[rsp]
	mov	rax, QWORD PTR [rax+48]
	movzx	eax, BYTE PTR [rax]
	cmp	eax, 2
	je	SHORT $LN6@colon_op
$LN7@colon_op:
	mov	rax, QWORD PTR opnd1$[rsp]
	cmp	DWORD PTR [rax+60], 1
	jne	SHORT $LN5@colon_op
	mov	rax, QWORD PTR opnd2$[rsp]
	mov	rax, QWORD PTR [rax+48]
	movzx	eax, BYTE PTR [rax]
	cmp	eax, 8
	jne	SHORT $LN5@colon_op
$LN6@colon_op:

; 2283 :             ( opnd1->kind == EXPR_ADDR && opnd2->override->token == T_ID ) ) {
; 2284 :             DebugMsg(("colon_op: multiple override=%s\n", opnd2->override->string_ptr ));

	mov	rax, QWORD PTR opnd2$[rsp]
	mov	rax, QWORD PTR [rax+48]
	mov	rdx, QWORD PTR [rax+8]
	lea	rcx, OFFSET FLAT:$SG11940
	call	DoDebugMsg

; 2285 :             return( fnEmitErr( MULTIPLE_OVERRIDES ) );

	mov	ecx, 68					; 00000044H
	call	QWORD PTR fnEmitErr
	jmp	$LN1@colon_op
$LN5@colon_op:
$LN4@colon_op:

; 2286 :         }
; 2287 :     }
; 2288 :     switch ( opnd2->kind ) {

	mov	rax, QWORD PTR opnd2$[rsp]
	mov	eax, DWORD PTR [rax+60]
	mov	DWORD PTR tv142[rsp], eax
	cmp	DWORD PTR tv142[rsp], 2
	je	SHORT $LN8@colon_op
	cmp	DWORD PTR tv142[rsp], 3
	je	SHORT $LN10@colon_op
	jmp	SHORT $LN2@colon_op
$LN8@colon_op:

; 2289 :     case EXPR_REG:
; 2290 :         /* v2.05: register as second operand must be enclosed in [] */
; 2291 :         if ( opnd2->indirect == FALSE ) {

	mov	rax, QWORD PTR opnd2$[rsp]
	mov	eax, DWORD PTR [rax+76]
	and	eax, 1
	test	eax, eax
	jne	SHORT $LN9@colon_op

; 2292 :             DebugMsg(("colon_op: register after : not enclosed in []\n" ));

	lea	rcx, OFFSET FLAT:$SG11943
	call	DoDebugMsg

; 2293 :             return( fnEmitErr( INVALID_USE_OF_REGISTER ) );

	mov	ecx, 170				; 000000aaH
	call	QWORD PTR fnEmitErr
	jmp	$LN1@colon_op
$LN9@colon_op:

; 2294 :         }
; 2295 :         break;

	jmp	SHORT $LN2@colon_op
$LN10@colon_op:

; 2296 :     case EXPR_FLOAT:
; 2297 :         return( fnEmitErr( REAL_OR_BCD_NUMBER_NOT_ALLOWED ) );

	mov	ecx, 270				; 0000010eH
	call	QWORD PTR fnEmitErr
	jmp	$LN1@colon_op
$LN2@colon_op:

; 2298 :     }
; 2299 : 
; 2300 :     if( opnd1->kind == EXPR_REG ) {

	mov	rax, QWORD PTR opnd1$[rsp]
	cmp	DWORD PTR [rax+60], 2
	jne	$LN11@colon_op

; 2301 : 
; 2302 :         /* the item before the ':' must be a single register */
; 2303 :         if( opnd1->idx_reg != NULL ) {

	mov	rax, QWORD PTR opnd1$[rsp]
	cmp	QWORD PTR [rax+32], 0
	je	SHORT $LN13@colon_op

; 2304 :             DebugMsg(("colon_op: register before ':' has idx_reg set!?\n"));

	lea	rcx, OFFSET FLAT:$SG11948
	call	DoDebugMsg

; 2305 :             return( fnEmitErr( INVALID_USE_OF_REGISTER ) );

	mov	ecx, 170				; 000000aaH
	call	QWORD PTR fnEmitErr
	jmp	$LN1@colon_op
$LN13@colon_op:

; 2306 :         }
; 2307 :         /* segment override inside bracket not allowed with -Zne.
; 2308 :          * [ds:0] is ok, but [ds:ebx] is rejected.
; 2309 :          */
; 2310 :         /* v2.08: test moved here from get_operand() */
; 2311 :         /* v2.10: regression in v2.08-2.09: check was way too simple.
; 2312 :          * problem: indirect-flag isn't set for segment regs (anymore?).
; 2313 :          * error check moved back to get_operand().
; 2314 :          */
; 2315 : #if 0
; 2316 :         if ( Options.strict_masm_compat ) {
; 2317 :             return( fnEmitErr( INVALID_USE_OF_REGISTER ) );
; 2318 :         }
; 2319 : #endif
; 2320 :         /* make sure first operand is a segment register */
; 2321 :         temp = opnd1->base_reg->tokval;

	mov	rax, QWORD PTR opnd1$[rsp]
	mov	rax, QWORD PTR [rax+24]
	mov	eax, DWORD PTR [rax+16]
	mov	DWORD PTR temp$[rsp], eax

; 2322 :         if ( ( GetValueSp( temp ) & OP_SR ) == 0 ) {

	movsxd	rax, DWORD PTR temp$[rsp]
	imul	rax, rax, 12
	lea	rcx, OFFSET FLAT:SpecialTable
	mov	eax, DWORD PTR [rcx+rax]
	and	eax, 24576				; 00006000H
	test	eax, eax
	jne	SHORT $LN14@colon_op

; 2323 :             return( fnEmitErr( SEGMENT_GROUP_OR_SEGREG_EXPECTED ) );

	mov	ecx, 69					; 00000045H
	call	QWORD PTR fnEmitErr
	jmp	$LN1@colon_op
$LN14@colon_op:

; 2324 :         }
; 2325 : 
; 2326 :         opnd2->override = opnd1->base_reg;

	mov	rax, QWORD PTR opnd2$[rsp]
	mov	rcx, QWORD PTR opnd1$[rsp]
	mov	rcx, QWORD PTR [rcx+24]
	mov	QWORD PTR [rax+48], rcx

; 2327 :         opnd2->indirect |= opnd1->indirect;

	mov	rax, QWORD PTR opnd2$[rsp]
	mov	eax, DWORD PTR [rax+76]
	and	eax, 1
	mov	rcx, QWORD PTR opnd1$[rsp]
	mov	ecx, DWORD PTR [rcx+76]
	and	ecx, 1
	or	eax, ecx
	and	eax, 1
	mov	rcx, QWORD PTR opnd2$[rsp]
	mov	ecx, DWORD PTR [rcx+76]
	and	ecx, -2					; fffffffeH
	or	ecx, eax
	mov	eax, ecx
	mov	rcx, QWORD PTR opnd2$[rsp]
	mov	DWORD PTR [rcx+76], eax

; 2328 : 
; 2329 :         if ( opnd2->kind == EXPR_CONST ) {

	mov	rax, QWORD PTR opnd2$[rsp]
	cmp	DWORD PTR [rax+60], 0
	jne	SHORT $LN15@colon_op

; 2330 :             opnd2->kind = EXPR_ADDR;

	mov	rax, QWORD PTR opnd2$[rsp]
	mov	DWORD PTR [rax+60], 1
$LN15@colon_op:

; 2331 :             /* v2.05: type flag cleared HERE, not in dot_op()
; 2332 :              * v2.05rc17 problem: mov es:byte ptr <var>,0
; 2333 :              * so the flag isn't cleared at all now.
; 2334 :              */
; 2335 :             //opnd2->is_type = FALSE;
; 2336 :         }
; 2337 : 
; 2338 :         if( opnd1->explicit ) {

	mov	rax, QWORD PTR opnd1$[rsp]
	mov	eax, DWORD PTR [rax+76]
	shr	eax, 1
	and	eax, 1
	test	eax, eax
	je	SHORT $LN16@colon_op

; 2339 :             opnd2->explicit = opnd1->explicit;

	mov	rax, QWORD PTR opnd1$[rsp]
	mov	eax, DWORD PTR [rax+76]
	shr	eax, 1
	and	eax, 1
	and	eax, 1
	shl	eax, 1
	mov	rcx, QWORD PTR opnd2$[rsp]
	mov	ecx, DWORD PTR [rcx+76]
	and	ecx, -3					; fffffffdH
	or	ecx, eax
	mov	eax, ecx
	mov	rcx, QWORD PTR opnd2$[rsp]
	mov	DWORD PTR [rcx+76], eax

; 2340 :             opnd2->mem_type = opnd1->mem_type;

	mov	rax, QWORD PTR opnd2$[rsp]
	mov	rcx, QWORD PTR opnd1$[rsp]
	mov	ecx, DWORD PTR [rcx+64]
	mov	DWORD PTR [rax+64], ecx

; 2341 :             opnd2->Ofssize  = opnd1->Ofssize;

	mov	rax, QWORD PTR opnd2$[rsp]
	mov	rcx, QWORD PTR opnd1$[rsp]
	movzx	ecx, BYTE PTR [rcx+69]
	mov	BYTE PTR [rax+69], cl
$LN16@colon_op:

; 2342 :         }
; 2343 :         TokenAssign( opnd1, opnd2 );

	mov	rdx, QWORD PTR opnd2$[rsp]
	mov	rcx, QWORD PTR opnd1$[rsp]
	call	TokenAssign

; 2344 : 
; 2345 :         /*
; 2346 :          * currently the <type> token isn't copied by
; 2347 :          * TokenAssign (which is probably just for historical reasons).
; 2348 :          * So copy it manually!
; 2349 :          * v1.95: only copy if it is != NULL!
; 2350 :          * Testcase: (<type> ptr DS:[0]).<struct_field> ...
; 2351 :          * In this case the DS:[] will clear the <type>, as a result
; 2352 :          * the dot operator won't have a valid assume and the code fails.
; 2353 :          */
; 2354 :         if ( opnd2->type )

	mov	rax, QWORD PTR opnd2$[rsp]
	cmp	QWORD PTR [rax+96], 0
	je	SHORT $LN17@colon_op

; 2355 :             opnd1->type = opnd2->type;

	mov	rax, QWORD PTR opnd1$[rsp]
	mov	rcx, QWORD PTR opnd2$[rsp]
	mov	rcx, QWORD PTR [rcx+96]
	mov	QWORD PTR [rax+96], rcx
$LN17@colon_op:

; 2356 : 
; 2357 :     } else if( opnd1->kind == EXPR_ADDR &&

	jmp	$LN12@colon_op
$LN11@colon_op:

; 2358 :               /* opnd2->kind == EXPR_ADDR && */
; 2359 :               opnd1->override == NULL &&
; 2360 :               opnd1->instr == EMPTY &&
; 2361 :               opnd1->value == 0 &&
; 2362 :               opnd1->sym &&
; 2363 :               opnd1->base_reg == NULL &&

	mov	rax, QWORD PTR opnd1$[rsp]
	cmp	DWORD PTR [rax+60], 1
	jne	$LN18@colon_op
	mov	rax, QWORD PTR opnd1$[rsp]
	cmp	QWORD PTR [rax+48], 0
	jne	$LN18@colon_op
	mov	rax, QWORD PTR opnd1$[rsp]
	cmp	DWORD PTR [rax+56], -2
	jne	$LN18@colon_op
	mov	rax, QWORD PTR opnd1$[rsp]
	cmp	DWORD PTR [rax], 0
	jne	$LN18@colon_op
	mov	rax, QWORD PTR opnd1$[rsp]
	cmp	QWORD PTR [rax+80], 0
	je	$LN18@colon_op
	mov	rax, QWORD PTR opnd1$[rsp]
	cmp	QWORD PTR [rax+24], 0
	jne	$LN18@colon_op
	mov	rax, QWORD PTR opnd1$[rsp]
	cmp	QWORD PTR [rax+32], 0
	jne	$LN18@colon_op

; 2364 :               opnd1->idx_reg == NULL ) {
; 2365 : 
; 2366 :         sym = opnd1->sym;

	mov	rax, QWORD PTR opnd1$[rsp]
	mov	rax, QWORD PTR [rax+80]
	mov	QWORD PTR sym$[rsp], rax

; 2367 : 
; 2368 :         if( sym->state == SYM_GRP || sym->state == SYM_SEG ) {

	mov	rax, QWORD PTR sym$[rsp]
	cmp	DWORD PTR [rax+32], 4
	je	SHORT $LN22@colon_op
	mov	rax, QWORD PTR sym$[rsp]
	cmp	DWORD PTR [rax+32], 3
	jne	$LN20@colon_op
$LN22@colon_op:

; 2369 :             opnd2->kind = EXPR_ADDR;

	mov	rax, QWORD PTR opnd2$[rsp]
	mov	DWORD PTR [rax+60], 1

; 2370 :             opnd2->override = opnd1->label_tok;

	mov	rax, QWORD PTR opnd2$[rsp]
	mov	rcx, QWORD PTR opnd1$[rsp]
	mov	rcx, QWORD PTR [rcx+40]
	mov	QWORD PTR [rax+48], rcx

; 2371 :             opnd2->indirect |= opnd1->indirect;

	mov	rax, QWORD PTR opnd2$[rsp]
	mov	eax, DWORD PTR [rax+76]
	and	eax, 1
	mov	rcx, QWORD PTR opnd1$[rsp]
	mov	ecx, DWORD PTR [rcx+76]
	and	ecx, 1
	or	eax, ecx
	and	eax, 1
	mov	rcx, QWORD PTR opnd2$[rsp]
	mov	ecx, DWORD PTR [rcx+76]
	and	ecx, -2					; fffffffeH
	or	ecx, eax
	mov	eax, ecx
	mov	rcx, QWORD PTR opnd2$[rsp]
	mov	DWORD PTR [rcx+76], eax

; 2372 :             if( opnd1->explicit ) {

	mov	rax, QWORD PTR opnd1$[rsp]
	mov	eax, DWORD PTR [rax+76]
	shr	eax, 1
	and	eax, 1
	test	eax, eax
	je	SHORT $LN23@colon_op

; 2373 :                 opnd2->explicit = opnd1->explicit;

	mov	rax, QWORD PTR opnd1$[rsp]
	mov	eax, DWORD PTR [rax+76]
	shr	eax, 1
	and	eax, 1
	and	eax, 1
	shl	eax, 1
	mov	rcx, QWORD PTR opnd2$[rsp]
	mov	ecx, DWORD PTR [rcx+76]
	and	ecx, -3					; fffffffdH
	or	ecx, eax
	mov	eax, ecx
	mov	rcx, QWORD PTR opnd2$[rsp]
	mov	DWORD PTR [rcx+76], eax

; 2374 :                 opnd2->mem_type = opnd1->mem_type;

	mov	rax, QWORD PTR opnd2$[rsp]
	mov	rcx, QWORD PTR opnd1$[rsp]
	mov	ecx, DWORD PTR [rcx+64]
	mov	DWORD PTR [rax+64], ecx

; 2375 :                 opnd2->Ofssize  = opnd1->Ofssize;

	mov	rax, QWORD PTR opnd2$[rsp]
	mov	rcx, QWORD PTR opnd1$[rsp]
	movzx	ecx, BYTE PTR [rcx+69]
	mov	BYTE PTR [rax+69], cl
$LN23@colon_op:

; 2376 :             }
; 2377 :             TokenAssign( opnd1, opnd2 );

	mov	rdx, QWORD PTR opnd2$[rsp]
	mov	rcx, QWORD PTR opnd1$[rsp]
	call	TokenAssign

; 2378 :             opnd1->type = opnd2->type;

	mov	rax, QWORD PTR opnd1$[rsp]
	mov	rcx, QWORD PTR opnd2$[rsp]
	mov	rcx, QWORD PTR [rcx+96]
	mov	QWORD PTR [rax+96], rcx
	jmp	SHORT $LN21@colon_op
$LN20@colon_op:

; 2379 : 
; 2380 :         } else if( Parse_Pass > PASS_1 || sym->state != SYM_UNDEFINED ) {

	cmp	DWORD PTR Parse_Pass, 0
	ja	SHORT $LN25@colon_op
	mov	rax, QWORD PTR sym$[rsp]
	cmp	DWORD PTR [rax+32], 0
	je	SHORT $LN24@colon_op
$LN25@colon_op:

; 2381 :             DebugMsg(("colon_op error 4\n"));

	lea	rcx, OFFSET FLAT:$SG11961
	call	DoDebugMsg

; 2382 :             return( fnEmitErr( SEGMENT_GROUP_OR_SEGREG_EXPECTED ) );

	mov	ecx, 69					; 00000045H
	call	QWORD PTR fnEmitErr
	jmp	SHORT $LN1@colon_op
$LN24@colon_op:
$LN21@colon_op:

; 2383 :         }
; 2384 :     } else {

	jmp	SHORT $LN19@colon_op
$LN18@colon_op:

; 2385 :         DebugMsg(("colon_op error 5\n"));

	lea	rcx, OFFSET FLAT:$SG11962
	call	DoDebugMsg

; 2386 :         return( fnEmitErr( SEGMENT_GROUP_OR_SEGREG_EXPECTED ) );

	mov	ecx, 69					; 00000045H
	call	QWORD PTR fnEmitErr
	jmp	SHORT $LN1@colon_op
$LN19@colon_op:
$LN12@colon_op:

; 2387 :     }
; 2388 :     return( NOT_ERROR );

	xor	eax, eax
$LN1@colon_op:

; 2389 : }

	add	rsp, 112				; 00000070H
	pop	rdi
	ret	0
colon_op ENDP
_TEXT	ENDS
; Function compile flags: /Odtp /RTCsu
; File d:\hjwasm\hjwasm2.13.1s\hjwasm2.13.1s\expreval.c
_TEXT	SEGMENT
tv68 = 80
tv74 = 88
tv80 = 96
tv86 = 104
tv92 = 112
tv130 = 120
tv179 = 128
tv185 = 136
tv310 = 144
tv318 = 152
tv389 = 160
tv397 = 168
opnd1$ = 192
opnd2$ = 200
dot_op	PROC

; 2058 : {

	mov	QWORD PTR [rsp+16], rdx
	mov	QWORD PTR [rsp+8], rcx
	push	rdi
	sub	rsp, 176				; 000000b0H
	mov	rdi, rsp
	mov	ecx, 44					; 0000002cH
	mov	eax, -858993460				; ccccccccH
	rep stosd
	mov	rcx, QWORD PTR [rsp+192]

; 2059 :     /* this code needs cleanup! some stuff is obsolete. */
; 2060 : 
; 2061 :     DebugMsg1(("dot_op: op1-op2 kind=%d/%d sym=%s-%s type=%s-%s mbr=%s-%s\n",

	mov	rax, QWORD PTR opnd2$[rsp]
	cmp	QWORD PTR [rax+88], 0
	je	SHORT $LN39@dot_op
	mov	rax, QWORD PTR opnd2$[rsp]
	mov	rax, QWORD PTR [rax+88]
	mov	rax, QWORD PTR [rax+8]
	mov	QWORD PTR tv68[rsp], rax
	jmp	SHORT $LN40@dot_op
$LN39@dot_op:
	lea	rax, OFFSET FLAT:$SG11855
	mov	QWORD PTR tv68[rsp], rax
$LN40@dot_op:
	mov	rax, QWORD PTR opnd1$[rsp]
	cmp	QWORD PTR [rax+88], 0
	je	SHORT $LN41@dot_op
	mov	rax, QWORD PTR opnd1$[rsp]
	mov	rax, QWORD PTR [rax+88]
	mov	rax, QWORD PTR [rax+8]
	mov	QWORD PTR tv74[rsp], rax
	jmp	SHORT $LN42@dot_op
$LN41@dot_op:
	lea	rax, OFFSET FLAT:$SG11856
	mov	QWORD PTR tv74[rsp], rax
$LN42@dot_op:
	mov	rax, QWORD PTR opnd2$[rsp]
	cmp	QWORD PTR [rax+96], 0
	je	SHORT $LN43@dot_op
	mov	rax, QWORD PTR opnd2$[rsp]
	mov	rax, QWORD PTR [rax+96]
	mov	rax, QWORD PTR [rax+8]
	mov	QWORD PTR tv80[rsp], rax
	jmp	SHORT $LN44@dot_op
$LN43@dot_op:
	lea	rax, OFFSET FLAT:$SG11857
	mov	QWORD PTR tv80[rsp], rax
$LN44@dot_op:
	mov	rax, QWORD PTR opnd1$[rsp]
	cmp	QWORD PTR [rax+96], 0
	je	SHORT $LN45@dot_op
	mov	rax, QWORD PTR opnd1$[rsp]
	mov	rax, QWORD PTR [rax+96]
	mov	rax, QWORD PTR [rax+8]
	mov	QWORD PTR tv86[rsp], rax
	jmp	SHORT $LN46@dot_op
$LN45@dot_op:
	lea	rax, OFFSET FLAT:$SG11858
	mov	QWORD PTR tv86[rsp], rax
$LN46@dot_op:
	mov	rax, QWORD PTR opnd2$[rsp]
	cmp	QWORD PTR [rax+80], 0
	je	SHORT $LN47@dot_op
	mov	rax, QWORD PTR opnd2$[rsp]
	mov	rax, QWORD PTR [rax+80]
	mov	rax, QWORD PTR [rax+8]
	mov	QWORD PTR tv92[rsp], rax
	jmp	SHORT $LN48@dot_op
$LN47@dot_op:
	lea	rax, OFFSET FLAT:$SG11859
	mov	QWORD PTR tv92[rsp], rax
$LN48@dot_op:
	mov	rax, QWORD PTR opnd1$[rsp]
	cmp	QWORD PTR [rax+80], 0
	je	SHORT $LN49@dot_op
	mov	rax, QWORD PTR opnd1$[rsp]
	mov	rax, QWORD PTR [rax+80]
	mov	rax, QWORD PTR [rax+8]
	mov	QWORD PTR tv130[rsp], rax
	jmp	SHORT $LN50@dot_op
$LN49@dot_op:
	lea	rax, OFFSET FLAT:$SG11860
	mov	QWORD PTR tv130[rsp], rax
$LN50@dot_op:
	mov	rax, QWORD PTR tv68[rsp]
	mov	QWORD PTR [rsp+64], rax
	mov	rax, QWORD PTR tv74[rsp]
	mov	QWORD PTR [rsp+56], rax
	mov	rax, QWORD PTR tv80[rsp]
	mov	QWORD PTR [rsp+48], rax
	mov	rax, QWORD PTR tv86[rsp]
	mov	QWORD PTR [rsp+40], rax
	mov	rax, QWORD PTR tv92[rsp]
	mov	QWORD PTR [rsp+32], rax
	mov	r9, QWORD PTR tv130[rsp]
	mov	rax, QWORD PTR opnd2$[rsp]
	mov	r8d, DWORD PTR [rax+60]
	mov	rax, QWORD PTR opnd1$[rsp]
	mov	edx, DWORD PTR [rax+60]
	lea	rcx, OFFSET FLAT:$SG11861
	call	DoDebugMsg1

; 2062 :                opnd1->kind, opnd2->kind,
; 2063 :                opnd1->sym  ? opnd1->sym->name  : "NULL",
; 2064 :                opnd2->sym  ? opnd2->sym->name  : "NULL",
; 2065 :                opnd1->type ? opnd1->type->name : "NULL",
; 2066 :                opnd2->type ? opnd2->type->name : "NULL",
; 2067 :                opnd1->mbr  ? opnd1->mbr->name  : "NULL",
; 2068 :                opnd2->mbr  ? opnd2->mbr->name  : "NULL" ));
; 2069 : 
; 2070 :     /*
; 2071 :      * The formats allowed are:
; 2072 :      *        [register]      . (type) constant
; 2073 :      *        label           . (type) constant
; 2074 :      *        (type) constant . (type) constant
; 2075 :      *
; 2076 :      * with OPTION OLDSTRUCTS:
; 2077 :      *        [register]      . address
; 2078 :      *        address         . address
; 2079 :      */
; 2080 : 
; 2081 :     if( check_direct_reg( opnd1, opnd2 ) == ERROR ) {

	mov	rdx, QWORD PTR opnd2$[rsp]
	mov	rcx, QWORD PTR opnd1$[rsp]
	call	check_direct_reg
	cmp	eax, -1
	jne	SHORT $LN2@dot_op

; 2082 :         DebugMsg(("dot_op: error direct register\n"));

	lea	rcx, OFFSET FLAT:$SG11863
	call	DoDebugMsg

; 2083 :         return( fnEmitErr( INVALID_USE_OF_REGISTER ) );

	mov	ecx, 170				; 000000aaH
	call	QWORD PTR fnEmitErr
	jmp	$LN1@dot_op
$LN2@dot_op:

; 2084 :     }
; 2085 : 
; 2086 :     /* v2.08: remove EXPR_REG variants */
; 2087 :     if ( opnd1->kind == EXPR_REG )

	mov	rax, QWORD PTR opnd1$[rsp]
	cmp	DWORD PTR [rax+60], 2
	jne	SHORT $LN3@dot_op

; 2088 :         opnd1->kind = EXPR_ADDR;

	mov	rax, QWORD PTR opnd1$[rsp]
	mov	DWORD PTR [rax+60], 1
$LN3@dot_op:

; 2089 :     if ( opnd2->kind == EXPR_REG )

	mov	rax, QWORD PTR opnd2$[rsp]
	cmp	DWORD PTR [rax+60], 2
	jne	SHORT $LN4@dot_op

; 2090 :         opnd2->kind = EXPR_ADDR;

	mov	rax, QWORD PTR opnd2$[rsp]
	mov	DWORD PTR [rax+60], 1
$LN4@dot_op:

; 2091 : 
; 2092 :     /* forward ref to a struct: [reg].<struct> */
; 2093 :     if ( opnd2->sym && opnd2->sym->state == SYM_UNDEFINED && Parse_Pass == PASS_1 ) {

	mov	rax, QWORD PTR opnd2$[rsp]
	cmp	QWORD PTR [rax+80], 0
	je	$LN5@dot_op
	mov	rax, QWORD PTR opnd2$[rsp]
	mov	rax, QWORD PTR [rax+80]
	cmp	DWORD PTR [rax+32], 0
	jne	$LN5@dot_op
	cmp	DWORD PTR Parse_Pass, 0
	jne	$LN5@dot_op

; 2094 :         DebugMsg(("dot_op: forward reference %s, replaced by null struct type\n", opnd2->sym->name ));

	mov	rax, QWORD PTR opnd2$[rsp]
	mov	rax, QWORD PTR [rax+80]
	mov	rdx, QWORD PTR [rax+8]
	lea	rcx, OFFSET FLAT:$SG11867
	call	DoDebugMsg

; 2095 :         if ( !nullstruct )

	cmp	QWORD PTR nullstruct, 0
	jne	SHORT $LN6@dot_op

; 2096 :             nullstruct = CreateTypeSymbol( NULL, "", FALSE );

	xor	r8d, r8d
	lea	rdx, OFFSET FLAT:$SG11869
	xor	ecx, ecx
	call	CreateTypeSymbol
	mov	QWORD PTR nullstruct, rax
$LN6@dot_op:

; 2097 :         opnd2->type = nullstruct;

	mov	rax, QWORD PTR opnd2$[rsp]
	mov	rcx, QWORD PTR nullstruct
	mov	QWORD PTR [rax+96], rcx

; 2098 :         opnd2->is_type = TRUE; /* v2.10: added */

	mov	rax, QWORD PTR opnd2$[rsp]
	mov	eax, DWORD PTR [rax+76]
	or	eax, 8
	mov	rcx, QWORD PTR opnd2$[rsp]
	mov	DWORD PTR [rcx+76], eax

; 2099 :         opnd2->sym = NULL;

	mov	rax, QWORD PTR opnd2$[rsp]
	mov	QWORD PTR [rax+80], 0

; 2100 :         opnd2->kind = EXPR_CONST;

	mov	rax, QWORD PTR opnd2$[rsp]
	mov	DWORD PTR [rax+60], 0
$LN5@dot_op:

; 2101 :     }
; 2102 : 
; 2103 :     if( check_same( opnd1, opnd2, EXPR_ADDR ) ) {

	mov	rax, QWORD PTR opnd1$[rsp]
	cmp	DWORD PTR [rax+60], 1
	jne	$LN7@dot_op
	mov	rax, QWORD PTR opnd2$[rsp]
	cmp	DWORD PTR [rax+60], 1
	jne	$LN7@dot_op

; 2104 : 
; 2105 :         DebugMsg1(("dot_op, ADDR - ADDR, t1-t2 memtype=%X-%X sym=%s-%s\n",

	mov	rax, QWORD PTR opnd2$[rsp]
	cmp	QWORD PTR [rax+80], 0
	je	SHORT $LN51@dot_op
	mov	rax, QWORD PTR opnd2$[rsp]
	mov	rax, QWORD PTR [rax+80]
	mov	rax, QWORD PTR [rax+8]
	mov	QWORD PTR tv179[rsp], rax
	jmp	SHORT $LN52@dot_op
$LN51@dot_op:
	lea	rax, OFFSET FLAT:$SG11872
	mov	QWORD PTR tv179[rsp], rax
$LN52@dot_op:
	mov	rax, QWORD PTR opnd1$[rsp]
	cmp	QWORD PTR [rax+80], 0
	je	SHORT $LN53@dot_op
	mov	rax, QWORD PTR opnd1$[rsp]
	mov	rax, QWORD PTR [rax+80]
	mov	rax, QWORD PTR [rax+8]
	mov	QWORD PTR tv185[rsp], rax
	jmp	SHORT $LN54@dot_op
$LN53@dot_op:
	lea	rax, OFFSET FLAT:$SG11873
	mov	QWORD PTR tv185[rsp], rax
$LN54@dot_op:
	mov	rax, QWORD PTR tv179[rsp]
	mov	QWORD PTR [rsp+32], rax
	mov	r9, QWORD PTR tv185[rsp]
	mov	rax, QWORD PTR opnd2$[rsp]
	mov	r8d, DWORD PTR [rax+64]
	mov	rax, QWORD PTR opnd1$[rsp]
	mov	edx, DWORD PTR [rax+64]
	lea	rcx, OFFSET FLAT:$SG11874
	call	DoDebugMsg1

; 2106 :                    opnd1->mem_type, opnd2->mem_type,
; 2107 :                    opnd1->sym  ? opnd1->sym->name  : "NULL",
; 2108 :                    opnd2->sym  ? opnd2->sym->name  : "NULL" ));
; 2109 : 
; 2110 : #if 1 /* v2.05: error */
; 2111 :         if ( opnd2->mbr == NULL && !ModuleInfo.oldstructs ) {

	mov	rax, QWORD PTR opnd2$[rsp]
	cmp	QWORD PTR [rax+88], 0
	jne	SHORT $LN9@dot_op
	mov	eax, DWORD PTR ModuleInfo+408
	shr	eax, 8
	and	eax, 1
	test	eax, eax
	jne	SHORT $LN9@dot_op

; 2112 :             DebugMsg(("dot_op: error, mbr 2 is NULL\n"));

	lea	rcx, OFFSET FLAT:$SG11876
	call	DoDebugMsg

; 2113 :             return( struct_field_error( opnd1 ) );

	mov	rcx, QWORD PTR opnd1$[rsp]
	call	struct_field_error
	jmp	$LN1@dot_op
$LN9@dot_op:

; 2114 :         }
; 2115 : #endif
; 2116 :         if ( index_connect( opnd1, opnd2 ) == ERROR )

	mov	rdx, QWORD PTR opnd2$[rsp]
	mov	rcx, QWORD PTR opnd1$[rsp]
	call	index_connect
	cmp	eax, -1
	jne	SHORT $LN10@dot_op

; 2117 :             return( ERROR );

	mov	eax, -1
	jmp	$LN1@dot_op
$LN10@dot_op:

; 2118 : 
; 2119 :         if( opnd2->sym != NULL ) {

	mov	rax, QWORD PTR opnd2$[rsp]
	cmp	QWORD PTR [rax+80], 0
	je	$LN11@dot_op

; 2120 :             if( opnd1->sym != NULL &&
; 2121 :                 opnd1->sym->state != SYM_UNDEFINED &&

	mov	rax, QWORD PTR opnd1$[rsp]
	cmp	QWORD PTR [rax+80], 0
	je	SHORT $LN12@dot_op
	mov	rax, QWORD PTR opnd1$[rsp]
	mov	rax, QWORD PTR [rax+80]
	cmp	DWORD PTR [rax+32], 0
	je	SHORT $LN12@dot_op
	mov	rax, QWORD PTR opnd2$[rsp]
	mov	rax, QWORD PTR [rax+80]
	cmp	DWORD PTR [rax+32], 0
	je	SHORT $LN12@dot_op

; 2122 :                 opnd2->sym->state != SYM_UNDEFINED ) {
; 2123 :                 DebugMsg(("dot_op: error, two relocatable labels: %s - %s \n", opnd1->sym->name, opnd2->sym->name ));

	mov	rax, QWORD PTR opnd2$[rsp]
	mov	rax, QWORD PTR [rax+80]
	mov	rcx, QWORD PTR opnd1$[rsp]
	mov	rcx, QWORD PTR [rcx+80]
	mov	r8, QWORD PTR [rax+8]
	mov	rdx, QWORD PTR [rcx+8]
	lea	rcx, OFFSET FLAT:$SG11880
	call	DoDebugMsg

; 2124 :                 return( fnEmitErr( CANNOT_ADD_TWO_RELOCATABLE_LABELS ) );

	mov	ecx, 173				; 000000adH
	call	QWORD PTR fnEmitErr
	jmp	$LN1@dot_op
$LN12@dot_op:

; 2125 :             }
; 2126 :             opnd1->label_tok = opnd2->label_tok;

	mov	rax, QWORD PTR opnd1$[rsp]
	mov	rcx, QWORD PTR opnd2$[rsp]
	mov	rcx, QWORD PTR [rcx+40]
	mov	QWORD PTR [rax+40], rcx

; 2127 :             opnd1->sym = opnd2->sym;

	mov	rax, QWORD PTR opnd1$[rsp]
	mov	rcx, QWORD PTR opnd2$[rsp]
	mov	rcx, QWORD PTR [rcx+80]
	mov	QWORD PTR [rax+80], rcx
$LN11@dot_op:

; 2128 :         }
; 2129 :         if( opnd2->mbr != NULL ) {

	mov	rax, QWORD PTR opnd2$[rsp]
	cmp	QWORD PTR [rax+88], 0
	je	SHORT $LN13@dot_op

; 2130 :             opnd1->mbr = opnd2->mbr;

	mov	rax, QWORD PTR opnd1$[rsp]
	mov	rcx, QWORD PTR opnd2$[rsp]
	mov	rcx, QWORD PTR [rcx+88]
	mov	QWORD PTR [rax+88], rcx
$LN13@dot_op:

; 2131 :         }
; 2132 :         opnd1->value += opnd2->value;

	mov	rax, QWORD PTR opnd1$[rsp]
	mov	eax, DWORD PTR [rax]
	mov	rcx, QWORD PTR opnd2$[rsp]
	add	eax, DWORD PTR [rcx]
	mov	rcx, QWORD PTR opnd1$[rsp]
	mov	DWORD PTR [rcx], eax

; 2133 :         if( opnd1->explicit == FALSE ) {

	mov	rax, QWORD PTR opnd1$[rsp]
	mov	eax, DWORD PTR [rax+76]
	shr	eax, 1
	and	eax, 1
	test	eax, eax
	jne	SHORT $LN14@dot_op

; 2134 :             opnd1->mem_type = opnd2->mem_type;

	mov	rax, QWORD PTR opnd1$[rsp]
	mov	rcx, QWORD PTR opnd2$[rsp]
	mov	ecx, DWORD PTR [rcx+64]
	mov	DWORD PTR [rax+64], ecx
$LN14@dot_op:

; 2135 :         }
; 2136 :         if ( opnd2->type )

	mov	rax, QWORD PTR opnd2$[rsp]
	cmp	QWORD PTR [rax+96], 0
	je	SHORT $LN15@dot_op

; 2137 :             opnd1->type = opnd2->type;

	mov	rax, QWORD PTR opnd1$[rsp]
	mov	rcx, QWORD PTR opnd2$[rsp]
	mov	rcx, QWORD PTR [rcx+96]
	mov	QWORD PTR [rax+96], rcx
$LN15@dot_op:

; 2138 : 
; 2139 :     } else if( ( opnd1->kind == EXPR_CONST ) && ( opnd2->kind == EXPR_ADDR ) ) {

	jmp	$LN8@dot_op
$LN7@dot_op:
	mov	rax, QWORD PTR opnd1$[rsp]
	cmp	DWORD PTR [rax+60], 0
	jne	$LN16@dot_op
	mov	rax, QWORD PTR opnd2$[rsp]
	cmp	DWORD PTR [rax+60], 1
	jne	$LN16@dot_op

; 2140 : 
; 2141 :         DebugMsg1(("dot_op, CONST - ADDR: t1-t2 memtype=%Xh-%Xh istype=%u-%u\n",

	mov	rax, QWORD PTR opnd2$[rsp]
	mov	eax, DWORD PTR [rax+76]
	shr	eax, 3
	and	eax, 1
	mov	rcx, QWORD PTR opnd1$[rsp]
	mov	ecx, DWORD PTR [rcx+76]
	shr	ecx, 3
	and	ecx, 1
	mov	DWORD PTR [rsp+32], eax
	mov	r9d, ecx
	mov	rax, QWORD PTR opnd2$[rsp]
	mov	r8d, DWORD PTR [rax+64]
	mov	rax, QWORD PTR opnd1$[rsp]
	mov	edx, DWORD PTR [rax+64]
	lea	rcx, OFFSET FLAT:$SG11886
	call	DoDebugMsg1

; 2142 :                    opnd1->mem_type, opnd2->mem_type, opnd1->is_type, opnd2->is_type ));
; 2143 :         /* v2.08 added (copied from branch EXPR_ADDR-EXPR_REG )*/
; 2144 :         if ( opnd1->is_type && opnd1->type ) {

	mov	rax, QWORD PTR opnd1$[rsp]
	mov	eax, DWORD PTR [rax+76]
	shr	eax, 3
	and	eax, 1
	test	eax, eax
	je	SHORT $LN18@dot_op
	mov	rax, QWORD PTR opnd1$[rsp]
	cmp	QWORD PTR [rax+96], 0
	je	SHORT $LN18@dot_op

; 2145 :             opnd2->assumecheck = FALSE;

	mov	rax, QWORD PTR opnd2$[rsp]
	mov	eax, DWORD PTR [rax+76]
	and	eax, -65				; ffffffbfH
	mov	rcx, QWORD PTR opnd2$[rsp]
	mov	DWORD PTR [rcx+76], eax

; 2146 :             opnd1->llvalue = 0;  /* v2.08: this was previously done in get_operand() */

	mov	rax, QWORD PTR opnd1$[rsp]
	mov	QWORD PTR [rax], 0
$LN18@dot_op:

; 2147 :         }
; 2148 : #if 1 /* v2.05: error */
; 2149 :         /* <structname>.<member>[<index_reg>] is ALWAYS ok! */
; 2150 :         if ( ( !ModuleInfo.oldstructs ) && ( opnd1->is_type == FALSE && opnd1->mbr == NULL ) )

	mov	eax, DWORD PTR ModuleInfo+408
	shr	eax, 8
	and	eax, 1
	test	eax, eax
	jne	SHORT $LN19@dot_op
	mov	rax, QWORD PTR opnd1$[rsp]
	mov	eax, DWORD PTR [rax+76]
	shr	eax, 3
	and	eax, 1
	test	eax, eax
	jne	SHORT $LN19@dot_op
	mov	rax, QWORD PTR opnd1$[rsp]
	cmp	QWORD PTR [rax+88], 0
	jne	SHORT $LN19@dot_op

; 2151 :             return( struct_field_error( opnd1 ) );

	mov	rcx, QWORD PTR opnd1$[rsp]
	call	struct_field_error
	jmp	$LN1@dot_op
$LN19@dot_op:

; 2152 : #endif
; 2153 :         /* for TYPE.xxx, return offset instead of size */
; 2154 :         if ( opnd1->mbr && opnd1->mbr->state == SYM_TYPE )

	mov	rax, QWORD PTR opnd1$[rsp]
	cmp	QWORD PTR [rax+88], 0
	je	SHORT $LN20@dot_op
	mov	rax, QWORD PTR opnd1$[rsp]
	mov	rax, QWORD PTR [rax+88]
	cmp	DWORD PTR [rax+32], 7
	jne	SHORT $LN20@dot_op

; 2155 :             opnd1->llvalue = opnd1->mbr->offset;

	mov	rax, QWORD PTR opnd1$[rsp]
	mov	rax, QWORD PTR [rax+88]
	movsxd	rax, DWORD PTR [rax+16]
	mov	rcx, QWORD PTR opnd1$[rsp]
	mov	QWORD PTR [rcx], rax
$LN20@dot_op:

; 2156 :         opnd2->indirect |= opnd1->indirect;

	mov	rax, QWORD PTR opnd2$[rsp]
	mov	eax, DWORD PTR [rax+76]
	and	eax, 1
	mov	rcx, QWORD PTR opnd1$[rsp]
	mov	ecx, DWORD PTR [rcx+76]
	and	ecx, 1
	or	eax, ecx
	and	eax, 1
	mov	rcx, QWORD PTR opnd2$[rsp]
	mov	ecx, DWORD PTR [rcx+76]
	and	ecx, -2					; fffffffeH
	or	ecx, eax
	mov	eax, ecx
	mov	rcx, QWORD PTR opnd2$[rsp]
	mov	DWORD PTR [rcx+76], eax

; 2157 :         opnd2->llvalue += opnd1->llvalue;

	mov	rax, QWORD PTR opnd2$[rsp]
	mov	rax, QWORD PTR [rax]
	mov	rcx, QWORD PTR opnd1$[rsp]
	add	rax, QWORD PTR [rcx]
	mov	rcx, QWORD PTR opnd2$[rsp]
	mov	QWORD PTR [rcx], rax

; 2158 :         DebugMsg1(("dot_op, CONST - ADDR, t1.type=%X (%s), t2.type=%X (%s)\n",

	mov	rax, QWORD PTR opnd2$[rsp]
	cmp	QWORD PTR [rax+96], 0
	je	SHORT $LN55@dot_op
	mov	rax, QWORD PTR opnd2$[rsp]
	mov	rax, QWORD PTR [rax+96]
	mov	rax, QWORD PTR [rax+8]
	mov	QWORD PTR tv310[rsp], rax
	jmp	SHORT $LN56@dot_op
$LN55@dot_op:
	lea	rax, OFFSET FLAT:$SG11890
	mov	QWORD PTR tv310[rsp], rax
$LN56@dot_op:
	mov	rax, QWORD PTR opnd1$[rsp]
	cmp	QWORD PTR [rax+96], 0
	je	SHORT $LN57@dot_op
	mov	rax, QWORD PTR opnd1$[rsp]
	mov	rax, QWORD PTR [rax+96]
	mov	rax, QWORD PTR [rax+8]
	mov	QWORD PTR tv318[rsp], rax
	jmp	SHORT $LN58@dot_op
$LN57@dot_op:
	lea	rax, OFFSET FLAT:$SG11891
	mov	QWORD PTR tv318[rsp], rax
$LN58@dot_op:
	mov	rax, QWORD PTR tv310[rsp]
	mov	QWORD PTR [rsp+32], rax
	mov	rax, QWORD PTR opnd2$[rsp]
	mov	r9, QWORD PTR [rax+96]
	mov	r8, QWORD PTR tv318[rsp]
	mov	rax, QWORD PTR opnd1$[rsp]
	mov	rdx, QWORD PTR [rax+96]
	lea	rcx, OFFSET FLAT:$SG11892
	call	DoDebugMsg1

; 2159 :                    opnd1->type,
; 2160 :                    opnd1->type ? opnd1->type->name : "",
; 2161 :                    opnd2->type,
; 2162 :                    opnd2->type ? opnd2->type->name : "" ));
; 2163 :         /* v2.06: added. test case: INVOKE struct.mbr[edx] ( mbr has a type ) */
; 2164 :         if ( opnd2->mbr )

	mov	rax, QWORD PTR opnd2$[rsp]
	cmp	QWORD PTR [rax+88], 0
	je	SHORT $LN21@dot_op

; 2165 :             opnd1->type = opnd2->type;

	mov	rax, QWORD PTR opnd1$[rsp]
	mov	rcx, QWORD PTR opnd2$[rsp]
	mov	rcx, QWORD PTR [rcx+96]
	mov	QWORD PTR [rax+96], rcx
$LN21@dot_op:

; 2166 :         TokenAssign( opnd1, opnd2 );

	mov	rdx, QWORD PTR opnd2$[rsp]
	mov	rcx, QWORD PTR opnd1$[rsp]
	call	TokenAssign
	jmp	$LN17@dot_op
$LN16@dot_op:

; 2167 : 
; 2168 :     } else if( ( opnd1->kind == EXPR_ADDR ) && ( opnd2->kind == EXPR_CONST ) ) {

	mov	rax, QWORD PTR opnd1$[rsp]
	cmp	DWORD PTR [rax+60], 1
	jne	$LN22@dot_op
	mov	rax, QWORD PTR opnd2$[rsp]
	cmp	DWORD PTR [rax+60], 0
	jne	$LN22@dot_op

; 2169 : 
; 2170 :         DebugMsg1(("dot_op, ADDR - CONST: t1-t2 memtype=%Xh-%Xh t1.explicit=%u\n",

	mov	rax, QWORD PTR opnd1$[rsp]
	mov	eax, DWORD PTR [rax+76]
	shr	eax, 1
	and	eax, 1
	mov	r9d, eax
	mov	rax, QWORD PTR opnd2$[rsp]
	mov	r8d, DWORD PTR [rax+64]
	mov	rax, QWORD PTR opnd1$[rsp]
	mov	edx, DWORD PTR [rax+64]
	lea	rcx, OFFSET FLAT:$SG11896
	call	DoDebugMsg1

; 2171 :                    opnd1->mem_type, opnd2->mem_type, opnd1->explicit ));
; 2172 : 
; 2173 :         /* v2.08: changed to catch [ebx].<num> or [ebx].<simple type> */
; 2174 :         //if ( (!ModuleInfo.oldstructs) && opnd2->type == NULL && opnd2->mbr == NULL ) {
; 2175 :         if ( (!ModuleInfo.oldstructs) && ( opnd2->type == NULL || opnd2->is_type == FALSE ) && opnd2->mbr == NULL ) {

	mov	eax, DWORD PTR ModuleInfo+408
	shr	eax, 8
	and	eax, 1
	test	eax, eax
	jne	SHORT $LN24@dot_op
	mov	rax, QWORD PTR opnd2$[rsp]
	cmp	QWORD PTR [rax+96], 0
	je	SHORT $LN25@dot_op
	mov	rax, QWORD PTR opnd2$[rsp]
	mov	eax, DWORD PTR [rax+76]
	shr	eax, 3
	and	eax, 1
	test	eax, eax
	jne	SHORT $LN24@dot_op
$LN25@dot_op:
	mov	rax, QWORD PTR opnd2$[rsp]
	cmp	QWORD PTR [rax+88], 0
	jne	SHORT $LN24@dot_op

; 2176 :             DebugMsg(("dot_op: error, constant or simple type after dot\n"));

	lea	rcx, OFFSET FLAT:$SG11899
	call	DoDebugMsg

; 2177 :             return( struct_field_error( opnd1 ) );

	mov	rcx, QWORD PTR opnd1$[rsp]
	call	struct_field_error
	jmp	$LN1@dot_op
$LN24@dot_op:

; 2178 :         }
; 2179 : 
; 2180 :         /* v2.08 added (copied from branch EXPR_ADDR-EXPR_REG )*/
; 2181 :         if ( opnd2->is_type && opnd2->type ) {

	mov	rax, QWORD PTR opnd2$[rsp]
	mov	eax, DWORD PTR [rax+76]
	shr	eax, 3
	and	eax, 1
	test	eax, eax
	je	SHORT $LN26@dot_op
	mov	rax, QWORD PTR opnd2$[rsp]
	cmp	QWORD PTR [rax+96], 0
	je	SHORT $LN26@dot_op

; 2182 :             opnd1->assumecheck = FALSE;

	mov	rax, QWORD PTR opnd1$[rsp]
	mov	eax, DWORD PTR [rax+76]
	and	eax, -65				; ffffffbfH
	mov	rcx, QWORD PTR opnd1$[rsp]
	mov	DWORD PTR [rcx+76], eax

; 2183 :             opnd2->llvalue = 0;  /* v2.08: this was previously done in get_operand() */

	mov	rax, QWORD PTR opnd2$[rsp]
	mov	QWORD PTR [rax], 0
$LN26@dot_op:

; 2184 :         }
; 2185 :         /* for [var].TYPE | STRUCT_FIELD, use offset instead of size */
; 2186 :         if ( opnd2->mbr && opnd2->mbr->state == SYM_TYPE )

	mov	rax, QWORD PTR opnd2$[rsp]
	cmp	QWORD PTR [rax+88], 0
	je	SHORT $LN27@dot_op
	mov	rax, QWORD PTR opnd2$[rsp]
	mov	rax, QWORD PTR [rax+88]
	cmp	DWORD PTR [rax+32], 7
	jne	SHORT $LN27@dot_op

; 2187 :             opnd2->llvalue = opnd2->mbr->offset;

	mov	rax, QWORD PTR opnd2$[rsp]
	mov	rax, QWORD PTR [rax+88]
	movsxd	rax, DWORD PTR [rax+16]
	mov	rcx, QWORD PTR opnd2$[rsp]
	mov	QWORD PTR [rcx], rax
$LN27@dot_op:

; 2188 :         opnd1->llvalue += opnd2->llvalue;

	mov	rax, QWORD PTR opnd1$[rsp]
	mov	rax, QWORD PTR [rax]
	mov	rcx, QWORD PTR opnd2$[rsp]
	add	rax, QWORD PTR [rcx]
	mov	rcx, QWORD PTR opnd1$[rsp]
	mov	QWORD PTR [rcx], rax

; 2189 :         opnd1->mem_type = opnd2->mem_type; /* v2.08: now always done */

	mov	rax, QWORD PTR opnd1$[rsp]
	mov	rcx, QWORD PTR opnd2$[rsp]
	mov	ecx, DWORD PTR [rcx+64]
	mov	DWORD PTR [rax+64], ecx

; 2190 :         if( opnd2->mbr != NULL ) {

	mov	rax, QWORD PTR opnd2$[rsp]
	cmp	QWORD PTR [rax+88], 0
	je	SHORT $LN28@dot_op

; 2191 :             opnd1->mbr = opnd2->mbr;

	mov	rax, QWORD PTR opnd1$[rsp]
	mov	rcx, QWORD PTR opnd2$[rsp]
	mov	rcx, QWORD PTR [rcx+88]
	mov	QWORD PTR [rax+88], rcx
$LN28@dot_op:

; 2192 : #if 0 /* v2.07 */
; 2193 :             /* temp. disabled in v1.95, test case:
; 2194 :              * mov eax,(<struct> ptr [ebx]).F1
; 2195 :              * however: mov ax, word ptr var[bx].F1 ???
; 2196 :              * the condition can't be disabled. Instead the PTR
; 2197 :              * operator must NOT set the explicit flag if the
; 2198 :              * first operand is a structure.
; 2199 :              */
; 2200 :             if( opnd1->explicit == FALSE )
; 2201 : #endif
; 2202 :                 //opnd1->mem_type = opnd2->mem_type; /* v2.08: obsolete */
; 2203 :         }
; 2204 : 
; 2205 :         DebugMsg1(("dot_op, ADDR - CONST, t1.type=%X (%s), t2.type=%X (%s)\n",

	mov	rax, QWORD PTR opnd2$[rsp]
	cmp	QWORD PTR [rax+96], 0
	je	SHORT $LN59@dot_op
	mov	rax, QWORD PTR opnd2$[rsp]
	mov	rax, QWORD PTR [rax+96]
	mov	rax, QWORD PTR [rax+8]
	mov	QWORD PTR tv389[rsp], rax
	jmp	SHORT $LN60@dot_op
$LN59@dot_op:
	lea	rax, OFFSET FLAT:$SG11903
	mov	QWORD PTR tv389[rsp], rax
$LN60@dot_op:
	mov	rax, QWORD PTR opnd1$[rsp]
	cmp	QWORD PTR [rax+96], 0
	je	SHORT $LN61@dot_op
	mov	rax, QWORD PTR opnd1$[rsp]
	mov	rax, QWORD PTR [rax+96]
	mov	rax, QWORD PTR [rax+8]
	mov	QWORD PTR tv397[rsp], rax
	jmp	SHORT $LN62@dot_op
$LN61@dot_op:
	lea	rax, OFFSET FLAT:$SG11904
	mov	QWORD PTR tv397[rsp], rax
$LN62@dot_op:
	mov	rax, QWORD PTR tv389[rsp]
	mov	QWORD PTR [rsp+32], rax
	mov	rax, QWORD PTR opnd2$[rsp]
	mov	r9, QWORD PTR [rax+96]
	mov	r8, QWORD PTR tv397[rsp]
	mov	rax, QWORD PTR opnd1$[rsp]
	mov	rdx, QWORD PTR [rax+96]
	lea	rcx, OFFSET FLAT:$SG11905
	call	DoDebugMsg1

; 2206 :                    opnd1->type,
; 2207 :                    opnd1->type ? opnd1->type->name : "",
; 2208 :                    opnd2->type,
; 2209 :                    opnd2->type ? opnd2->type->name : "" ));
; 2210 : #if 0 /* v1.96 */
; 2211 :         if ( opnd2->type )
; 2212 : #endif
; 2213 :             opnd1->type = opnd2->type;

	mov	rax, QWORD PTR opnd1$[rsp]
	mov	rcx, QWORD PTR opnd2$[rsp]
	mov	rcx, QWORD PTR [rcx+96]
	mov	QWORD PTR [rax+96], rcx
	jmp	$LN23@dot_op
$LN22@dot_op:

; 2214 : 
; 2215 :     } else if ( opnd1->kind == EXPR_CONST && opnd2->kind == EXPR_CONST ) {

	mov	rax, QWORD PTR opnd1$[rsp]
	cmp	DWORD PTR [rax+60], 0
	jne	$LN29@dot_op
	mov	rax, QWORD PTR opnd2$[rsp]
	cmp	DWORD PTR [rax+60], 0
	jne	$LN29@dot_op

; 2216 : 
; 2217 :         DebugMsg1(("dot_op, CONST - CONST, t1-t2 value=%u-%u, memtype=%Xh-%Xh istype=%u-%u\n",

	mov	rax, QWORD PTR opnd2$[rsp]
	mov	eax, DWORD PTR [rax+76]
	shr	eax, 3
	and	eax, 1
	mov	rcx, QWORD PTR opnd1$[rsp]
	mov	ecx, DWORD PTR [rcx+76]
	shr	ecx, 3
	and	ecx, 1
	mov	DWORD PTR [rsp+48], eax
	mov	DWORD PTR [rsp+40], ecx
	mov	rax, QWORD PTR opnd2$[rsp]
	mov	eax, DWORD PTR [rax+64]
	mov	DWORD PTR [rsp+32], eax
	mov	rax, QWORD PTR opnd1$[rsp]
	mov	r9d, DWORD PTR [rax+64]
	mov	rax, QWORD PTR opnd2$[rsp]
	mov	r8d, DWORD PTR [rax]
	mov	rax, QWORD PTR opnd1$[rsp]
	mov	edx, DWORD PTR [rax]
	lea	rcx, OFFSET FLAT:$SG11908
	call	DoDebugMsg1

; 2218 :                    opnd1->value, opnd2->value, opnd1->mem_type, opnd2->mem_type, opnd1->is_type, opnd2->is_type));
; 2219 :         if ( opnd2->mbr == NULL && !ModuleInfo.oldstructs ) {

	mov	rax, QWORD PTR opnd2$[rsp]
	cmp	QWORD PTR [rax+88], 0
	jne	SHORT $LN31@dot_op
	mov	eax, DWORD PTR ModuleInfo+408
	shr	eax, 8
	and	eax, 1
	test	eax, eax
	jne	SHORT $LN31@dot_op

; 2220 :             DebugMsg(("dot_op: error, opnd2.mbr=NULL\n" ));

	lea	rcx, OFFSET FLAT:$SG11910
	call	DoDebugMsg

; 2221 :             return( struct_field_error( opnd1 ) );

	mov	rcx, QWORD PTR opnd1$[rsp]
	call	struct_field_error
	jmp	$LN1@dot_op
$LN31@dot_op:

; 2222 :         }
; 2223 :         if ( opnd1->type != NULL ) {

	mov	rax, QWORD PTR opnd1$[rsp]
	cmp	QWORD PTR [rax+96], 0
	je	$LN32@dot_op

; 2224 :             /*
; 2225 :              * v2.06: the token1 value must NOT be ignored if the token is a
; 2226 :              * struct member: mov ax, [offset] <struct>.<mbr>.<mbr>
; 2227 :              */
; 2228 :             if ( opnd1->mbr != NULL )

	mov	rax, QWORD PTR opnd1$[rsp]
	cmp	QWORD PTR [rax+88], 0
	je	SHORT $LN34@dot_op

; 2229 :                 opnd1->llvalue += opnd2->llvalue;

	mov	rax, QWORD PTR opnd1$[rsp]
	mov	rax, QWORD PTR [rax]
	mov	rcx, QWORD PTR opnd2$[rsp]
	add	rax, QWORD PTR [rcx]
	mov	rcx, QWORD PTR opnd1$[rsp]
	mov	QWORD PTR [rcx], rax
	jmp	SHORT $LN35@dot_op
$LN34@dot_op:

; 2230 :             else {
; 2231 :                 /* old token is a type - the value (=size) is ignored then. */
; 2232 :                 opnd1->llvalue = opnd2->llvalue;

	mov	rax, QWORD PTR opnd1$[rsp]
	mov	rcx, QWORD PTR opnd2$[rsp]
	mov	rcx, QWORD PTR [rcx]
	mov	QWORD PTR [rax], rcx
$LN35@dot_op:

; 2233 :             }
; 2234 :             opnd1->mbr = opnd2->mbr;

	mov	rax, QWORD PTR opnd1$[rsp]
	mov	rcx, QWORD PTR opnd2$[rsp]
	mov	rcx, QWORD PTR [rcx+88]
	mov	QWORD PTR [rax+88], rcx

; 2235 :             /* v2.0: copy mem_type (test case: mov ds:[<struct>.<mbr>], 123) */
; 2236 :             opnd1->mem_type = opnd2->mem_type;

	mov	rax, QWORD PTR opnd1$[rsp]
	mov	rcx, QWORD PTR opnd2$[rsp]
	mov	ecx, DWORD PTR [rcx+64]
	mov	DWORD PTR [rax+64], ecx

; 2237 :             /* v2.05: removed, it's still a type constant */
; 2238 :             //opnd1->is_type = FALSE;
; 2239 :             opnd1->is_type = opnd2->is_type;

	mov	rax, QWORD PTR opnd2$[rsp]
	mov	eax, DWORD PTR [rax+76]
	shr	eax, 3
	and	eax, 1
	and	eax, 1
	shl	eax, 3
	mov	rcx, QWORD PTR opnd1$[rsp]
	mov	ecx, DWORD PTR [rcx+76]
	and	ecx, -9					; fffffff7H
	or	ecx, eax
	mov	eax, ecx
	mov	rcx, QWORD PTR opnd1$[rsp]
	mov	DWORD PTR [rcx+76], eax

; 2240 :             /* either clear <type> or use the renewed one */
; 2241 :             if ( opnd1->type != opnd2->type )

	mov	rax, QWORD PTR opnd1$[rsp]
	mov	rcx, QWORD PTR opnd2$[rsp]
	mov	rcx, QWORD PTR [rcx+96]
	cmp	QWORD PTR [rax+96], rcx
	je	SHORT $LN36@dot_op

; 2242 :                 opnd1->type = opnd2->type;

	mov	rax, QWORD PTR opnd1$[rsp]
	mov	rcx, QWORD PTR opnd2$[rsp]
	mov	rcx, QWORD PTR [rcx+96]
	mov	QWORD PTR [rax+96], rcx
	jmp	SHORT $LN37@dot_op
$LN36@dot_op:

; 2243 :             else
; 2244 :                 opnd1->type = NULL;

	mov	rax, QWORD PTR opnd1$[rsp]
	mov	QWORD PTR [rax+96], 0
$LN37@dot_op:

; 2245 :         } else {

	jmp	SHORT $LN33@dot_op
$LN32@dot_op:

; 2246 :             /* old token is NOT a type */
; 2247 :             /* most likely a number or an MT_ABS symbol! */
; 2248 :             /* so the TOTAL of both constants is required */
; 2249 :             opnd1->llvalue += opnd2->llvalue;

	mov	rax, QWORD PTR opnd1$[rsp]
	mov	rax, QWORD PTR [rax]
	mov	rcx, QWORD PTR opnd2$[rsp]
	add	rax, QWORD PTR [rcx]
	mov	rcx, QWORD PTR opnd1$[rsp]
	mov	QWORD PTR [rcx], rax

; 2250 :             opnd1->mbr = opnd2->mbr;

	mov	rax, QWORD PTR opnd1$[rsp]
	mov	rcx, QWORD PTR opnd2$[rsp]
	mov	rcx, QWORD PTR [rcx+88]
	mov	QWORD PTR [rax+88], rcx

; 2251 :             opnd1->mem_type = opnd2->mem_type;

	mov	rax, QWORD PTR opnd1$[rsp]
	mov	rcx, QWORD PTR opnd2$[rsp]
	mov	ecx, DWORD PTR [rcx+64]
	mov	DWORD PTR [rax+64], ecx
$LN33@dot_op:

; 2252 :         }
; 2253 :     } else {

	jmp	SHORT $LN30@dot_op
$LN29@dot_op:

; 2254 :         DebugMsg(("dot_op: error, unknown kind combination, opnd1->kind=%d, opnd2->kind=%d\n", opnd1->kind, opnd2->kind ));

	mov	rax, QWORD PTR opnd2$[rsp]
	mov	r8d, DWORD PTR [rax+60]
	mov	rax, QWORD PTR opnd1$[rsp]
	mov	edx, DWORD PTR [rax+60]
	lea	rcx, OFFSET FLAT:$SG11917
	call	DoDebugMsg

; 2255 :         return( struct_field_error( opnd1 ) );

	mov	rcx, QWORD PTR opnd1$[rsp]
	call	struct_field_error
	jmp	SHORT $LN1@dot_op
$LN30@dot_op:
$LN23@dot_op:
$LN17@dot_op:
$LN8@dot_op:

; 2256 :     }
; 2257 :     return( NOT_ERROR );

	xor	eax, eax
$LN1@dot_op:

; 2258 : }

	add	rsp, 176				; 000000b0H
	pop	rdi
	ret	0
dot_op	ENDP
_TEXT	ENDS
; Function compile flags: /Odtp /RTCsu
; File d:\hjwasm\hjwasm2.13.1s\hjwasm2.13.1s\expreval.c
_TEXT	SEGMENT
opnd$ = 48
struct_field_error PROC

; 2048 : {

	mov	QWORD PTR [rsp+8], rcx
	push	rdi
	sub	rsp, 32					; 00000020H
	mov	rdi, rsp
	mov	ecx, 8
	mov	eax, -858993460				; ccccccccH
	rep stosd
	mov	rcx, QWORD PTR [rsp+48]

; 2049 :     if ( opnd->is_opattr ) {

	mov	rax, QWORD PTR opnd$[rsp]
	mov	eax, DWORD PTR [rax+76]
	shr	eax, 4
	and	eax, 1
	test	eax, eax
	je	SHORT $LN2@struct_fie

; 2050 :         opnd->kind = EXPR_ERROR;

	mov	rax, QWORD PTR opnd$[rsp]
	mov	DWORD PTR [rax+60], -1

; 2051 :         return( NOT_ERROR );

	xor	eax, eax
	jmp	SHORT $LN1@struct_fie
$LN2@struct_fie:

; 2052 :     }
; 2053 :     return( fnEmitErr( STRUCTURE_FIELD_EXPECTED ) );

	mov	ecx, 271				; 0000010fH
	call	QWORD PTR fnEmitErr
$LN1@struct_fie:

; 2054 : }

	add	rsp, 32					; 00000020H
	pop	rdi
	ret	0
struct_field_error ENDP
_TEXT	ENDS
; Function compile flags: /Odtp /RTCsu
; File d:\hjwasm\hjwasm2.13.1s\hjwasm2.13.1s\expreval.c
_TEXT	SEGMENT
sym$ = 32
opnd1$ = 64
opnd2$ = 72
minus_op PROC

; 1902 : {

	mov	QWORD PTR [rsp+16], rdx
	mov	QWORD PTR [rsp+8], rcx
	push	rdi
	sub	rsp, 48					; 00000030H
	mov	rdi, rsp
	mov	ecx, 12
	mov	eax, -858993460				; ccccccccH
	rep stosd
	mov	rcx, QWORD PTR [rsp+64]

; 1903 :     struct asym      *sym;
; 1904 :     /*
; 1905 :      * The only formats allowed are:
; 1906 :      *        constant - constant
; 1907 :      *         address - constant       ( only in this order )
; 1908 :      *         address - address
; 1909 :      *        register - constant       ( only inside [] and in this
; 1910 :      *                                    order )
; 1911 :      */
; 1912 : 
; 1913 :     DebugMsg1(("minus_op: kind tok1=%u, tok2=%u\n", opnd1->kind, opnd2->kind ));

	mov	rax, QWORD PTR opnd2$[rsp]
	mov	r8d, DWORD PTR [rax+60]
	mov	rax, QWORD PTR opnd1$[rsp]
	mov	edx, DWORD PTR [rax+60]
	lea	rcx, OFFSET FLAT:$SG11792
	call	DoDebugMsg1

; 1914 : 
; 1915 :     if( check_direct_reg( opnd1, opnd2 ) == ERROR ) {

	mov	rdx, QWORD PTR opnd2$[rsp]
	mov	rcx, QWORD PTR opnd1$[rsp]
	call	check_direct_reg
	cmp	eax, -1
	jne	SHORT $LN2@minus_op

; 1916 :         DebugMsg(("minus_op: error direct register\n"));

	lea	rcx, OFFSET FLAT:$SG11794
	call	DoDebugMsg

; 1917 :         return( fnEmitErr( INVALID_USE_OF_REGISTER ) );

	mov	ecx, 170				; 000000aaH
	call	QWORD PTR fnEmitErr
	jmp	$LN1@minus_op
$LN2@minus_op:

; 1918 :     }
; 1919 : 
; 1920 :     /* added for v1.94. It's related to the change done in MakeConst()!
; 1921 :      * todo: find out why flag no_error_msg was checked in v1.94-2.09.
; 1922 :      */
; 1923 :     if ( opnd1->kind == EXPR_ADDR &&
; 1924 :         opnd2->kind == EXPR_ADDR &&
; 1925 :         opnd2->sym &&

	mov	rax, QWORD PTR opnd1$[rsp]
	cmp	DWORD PTR [rax+60], 1
	jne	SHORT $LN3@minus_op
	mov	rax, QWORD PTR opnd2$[rsp]
	cmp	DWORD PTR [rax+60], 1
	jne	SHORT $LN3@minus_op
	mov	rax, QWORD PTR opnd2$[rsp]
	cmp	QWORD PTR [rax+80], 0
	je	SHORT $LN3@minus_op
	mov	rax, QWORD PTR opnd2$[rsp]
	mov	rax, QWORD PTR [rax+80]
	cmp	DWORD PTR [rax+32], 0
	jne	SHORT $LN3@minus_op

; 1926 :         opnd2->sym->state == SYM_UNDEFINED /* && !no_error_msg */ )
; 1927 :         ; /* don't convert token2 to a constant! */

	jmp	SHORT $LN4@minus_op
$LN3@minus_op:

; 1928 :     else
; 1929 :         MakeConst( opnd2 );

	mov	rcx, QWORD PTR opnd2$[rsp]
	call	MakeConst
$LN4@minus_op:

; 1930 : 
; 1931 :     if( check_same( opnd1, opnd2, EXPR_CONST ) ) {

	mov	rax, QWORD PTR opnd1$[rsp]
	cmp	DWORD PTR [rax+60], 0
	jne	SHORT $LN5@minus_op
	mov	rax, QWORD PTR opnd2$[rsp]
	cmp	DWORD PTR [rax+60], 0
	jne	SHORT $LN5@minus_op

; 1932 : 
; 1933 :         DebugMsg1(("minus_op: CONST-CONST\n" ));

	lea	rcx, OFFSET FLAT:$SG11799
	call	DoDebugMsg1

; 1934 :         opnd1->llvalue -= opnd2->llvalue;

	mov	rax, QWORD PTR opnd1$[rsp]
	mov	rcx, QWORD PTR opnd2$[rsp]
	mov	rcx, QWORD PTR [rcx]
	mov	rax, QWORD PTR [rax]
	sub	rax, rcx
	mov	rcx, QWORD PTR opnd1$[rsp]
	mov	QWORD PTR [rcx], rax
	jmp	$LN6@minus_op
$LN5@minus_op:

; 1935 : 
; 1936 :     } else if( opnd1->kind == EXPR_ADDR &&

	mov	rax, QWORD PTR opnd1$[rsp]
	cmp	DWORD PTR [rax+60], 1
	jne	SHORT $LN7@minus_op
	mov	rax, QWORD PTR opnd2$[rsp]
	cmp	DWORD PTR [rax+60], 0
	jne	SHORT $LN7@minus_op

; 1937 :               opnd2->kind == EXPR_CONST ) {
; 1938 : 
; 1939 :         DebugMsg1(("minus_op: ADDR-CONST\n" ));

	lea	rcx, OFFSET FLAT:$SG11802
	call	DoDebugMsg1

; 1940 :         opnd1->llvalue -= opnd2->llvalue;

	mov	rax, QWORD PTR opnd1$[rsp]
	mov	rcx, QWORD PTR opnd2$[rsp]
	mov	rcx, QWORD PTR [rcx]
	mov	rax, QWORD PTR [rax]
	sub	rax, rcx
	mov	rcx, QWORD PTR opnd1$[rsp]
	mov	QWORD PTR [rcx], rax

; 1941 :         fix_struct_value( opnd1 );

	mov	rcx, QWORD PTR opnd1$[rsp]
	call	fix_struct_value
	jmp	$LN8@minus_op
$LN7@minus_op:

; 1942 : 
; 1943 :     } else if( check_same( opnd1, opnd2, EXPR_ADDR ) ){

	mov	rax, QWORD PTR opnd1$[rsp]
	cmp	DWORD PTR [rax+60], 1
	jne	$LN9@minus_op
	mov	rax, QWORD PTR opnd2$[rsp]
	cmp	DWORD PTR [rax+60], 1
	jne	$LN9@minus_op

; 1944 : 
; 1945 :         DebugMsg1(("minus_op: ADDR-ADDR\n" ));

	lea	rcx, OFFSET FLAT:$SG11805
	call	DoDebugMsg1

; 1946 :         fix_struct_value( opnd1 );

	mov	rcx, QWORD PTR opnd1$[rsp]
	call	fix_struct_value

; 1947 :         fix_struct_value( opnd2 );

	mov	rcx, QWORD PTR opnd2$[rsp]
	call	fix_struct_value

; 1948 :         //if( opnd2->base_reg != NULL || opnd2->idx_reg != NULL ) { /* v2.09: just check 'indirect' */
; 1949 :         if( opnd2->indirect ) {

	mov	rax, QWORD PTR opnd2$[rsp]
	mov	eax, DWORD PTR [rax+76]
	and	eax, 1
	test	eax, eax
	je	SHORT $LN11@minus_op

; 1950 :             DebugMsg(("minus_op error, opnd2->indirect==TRUE\n"));

	lea	rcx, OFFSET FLAT:$SG11807
	call	DoDebugMsg

; 1951 :             return( fnEmitErr( INVALID_USE_OF_REGISTER ) );

	mov	ecx, 170				; 000000aaH
	call	QWORD PTR fnEmitErr
	jmp	$LN1@minus_op
$LN11@minus_op:

; 1952 :         }
; 1953 :         if( opnd2->label_tok == NULL ) {

	mov	rax, QWORD PTR opnd2$[rsp]
	cmp	QWORD PTR [rax+40], 0
	jne	SHORT $LN12@minus_op

; 1954 :             /* v2.06c: do 64-bit arithmetic (more rigid test in data.c) */
; 1955 :             //opnd1->value -= opnd2->value;
; 1956 :             opnd1->value64 -= opnd2->value64;

	mov	rax, QWORD PTR opnd1$[rsp]
	mov	rcx, QWORD PTR opnd2$[rsp]
	mov	rcx, QWORD PTR [rcx]
	mov	rax, QWORD PTR [rax]
	sub	rax, rcx
	mov	rcx, QWORD PTR opnd1$[rsp]
	mov	QWORD PTR [rcx], rax

; 1957 :             opnd1->indirect |= opnd2->indirect;

	mov	rax, QWORD PTR opnd1$[rsp]
	mov	eax, DWORD PTR [rax+76]
	and	eax, 1
	mov	rcx, QWORD PTR opnd2$[rsp]
	mov	ecx, DWORD PTR [rcx+76]
	and	ecx, 1
	or	eax, ecx
	and	eax, 1
	mov	rcx, QWORD PTR opnd1$[rsp]
	mov	ecx, DWORD PTR [rcx+76]
	and	ecx, -2					; fffffffeH
	or	ecx, eax
	mov	eax, ecx
	mov	rcx, QWORD PTR opnd1$[rsp]
	mov	DWORD PTR [rcx+76], eax

; 1958 :         } else {

	jmp	$LN13@minus_op
$LN12@minus_op:

; 1959 :             if( opnd1->label_tok == NULL || opnd1->sym == NULL || opnd2->sym == NULL ) {

	mov	rax, QWORD PTR opnd1$[rsp]
	cmp	QWORD PTR [rax+40], 0
	je	SHORT $LN15@minus_op
	mov	rax, QWORD PTR opnd1$[rsp]
	cmp	QWORD PTR [rax+80], 0
	je	SHORT $LN15@minus_op
	mov	rax, QWORD PTR opnd2$[rsp]
	cmp	QWORD PTR [rax+80], 0
	jne	SHORT $LN14@minus_op
$LN15@minus_op:

; 1960 :                 DebugMsg(("minus_op error, label_tok=%X opnd1.sym=%X opnd2.sym=%X\n", opnd1->label_tok, opnd1->sym, opnd2->sym ));

	mov	rax, QWORD PTR opnd2$[rsp]
	mov	r9, QWORD PTR [rax+80]
	mov	rax, QWORD PTR opnd1$[rsp]
	mov	r8, QWORD PTR [rax+80]
	mov	rax, QWORD PTR opnd1$[rsp]
	mov	rdx, QWORD PTR [rax+40]
	lea	rcx, OFFSET FLAT:$SG11812
	call	DoDebugMsg

; 1961 :                 /* v2.05: error msg changed */
; 1962 :                 //fnEmitErr( SYNTAX_ERROR );
; 1963 :                 return( fnEmitErr( OPERAND_MUST_BE_RELOCATABLE ) );

	mov	ecx, 188				; 000000bcH
	call	QWORD PTR fnEmitErr
	jmp	$LN1@minus_op
$LN14@minus_op:

; 1964 :             }
; 1965 :             /* handle first operand */
; 1966 :             sym = opnd1->sym;

	mov	rax, QWORD PTR opnd1$[rsp]
	mov	rax, QWORD PTR [rax+80]
	mov	QWORD PTR sym$[rsp], rax

; 1967 :             opnd1->value += sym->offset;

	mov	rax, QWORD PTR opnd1$[rsp]
	mov	eax, DWORD PTR [rax]
	mov	rcx, QWORD PTR sym$[rsp]
	add	eax, DWORD PTR [rcx+16]
	mov	rcx, QWORD PTR opnd1$[rsp]
	mov	DWORD PTR [rcx], eax

; 1968 : 
; 1969 :             /* handle second operand */
; 1970 :             sym = opnd2->sym;

	mov	rax, QWORD PTR opnd2$[rsp]
	mov	rax, QWORD PTR [rax+80]
	mov	QWORD PTR sym$[rsp], rax

; 1971 :             if( Parse_Pass > PASS_1 ) {

	cmp	DWORD PTR Parse_Pass, 0
	jbe	$LN16@minus_op

; 1972 :                 /* if symbol is external, error - unless it's the same symbol */
; 1973 :                 if ( ( sym->state == SYM_EXTERNAL ||
; 1974 :                      opnd1->sym->state == SYM_EXTERNAL) &&

	mov	rax, QWORD PTR sym$[rsp]
	cmp	DWORD PTR [rax+32], 2
	je	SHORT $LN18@minus_op
	mov	rax, QWORD PTR opnd1$[rsp]
	mov	rax, QWORD PTR [rax+80]
	cmp	DWORD PTR [rax+32], 2
	jne	SHORT $LN17@minus_op
$LN18@minus_op:
	mov	rax, QWORD PTR opnd1$[rsp]
	mov	rax, QWORD PTR [rax+80]
	cmp	QWORD PTR sym$[rsp], rax
	je	SHORT $LN17@minus_op

; 1975 :                     sym != opnd1->sym ) {
; 1976 :                     DebugMsg(("minus_op error 6\n"));

	lea	rcx, OFFSET FLAT:$SG11816
	call	DoDebugMsg

; 1977 :                     return( fnEmitErr(INVALID_USE_OF_EXTERNAL_SYMBOL, opnd1->sym->name ) );

	mov	rax, QWORD PTR opnd1$[rsp]
	mov	rax, QWORD PTR [rax+80]
	mov	rdx, QWORD PTR [rax+8]
	mov	ecx, 193				; 000000c1H
	call	QWORD PTR fnEmitErr
	jmp	$LN1@minus_op
$LN17@minus_op:

; 1978 :                 }
; 1979 :                 /* check if the 2 offsets belong to the same segment */
; 1980 :                 if ( sym->segment != opnd1->sym->segment ) {

	mov	rax, QWORD PTR opnd1$[rsp]
	mov	rax, QWORD PTR [rax+80]
	mov	rcx, QWORD PTR sym$[rsp]
	mov	rax, QWORD PTR [rax+24]
	cmp	QWORD PTR [rcx+24], rax
	je	SHORT $LN19@minus_op

; 1981 :                     DebugMsg(("minus_op error, sym.segm=%X opnd1->sym.segm=%X\n", sym->segment, opnd1->sym->segment ));

	mov	rax, QWORD PTR opnd1$[rsp]
	mov	rax, QWORD PTR [rax+80]
	mov	r8, QWORD PTR [rax+24]
	mov	rax, QWORD PTR sym$[rsp]
	mov	rdx, QWORD PTR [rax+24]
	lea	rcx, OFFSET FLAT:$SG11818
	call	DoDebugMsg

; 1982 :                     return( fnEmitErr( OPERANDS_MUST_BE_IN_SAME_SEGMENT ) );

	mov	ecx, 192				; 000000c0H
	call	QWORD PTR fnEmitErr
	jmp	$LN1@minus_op
$LN19@minus_op:
$LN16@minus_op:

; 1983 :                 }
; 1984 :             }
; 1985 : 
; 1986 :             /* the type changes from address to constant.
; 1987 :              * but only if both labels are defined and no indirect addressing.
; 1988 :              */
; 1989 :             opnd1->kind = EXPR_CONST;

	mov	rax, QWORD PTR opnd1$[rsp]
	mov	DWORD PTR [rax+60], 0

; 1990 : 
; 1991 :             /* v2.05: if at least one label is undefined, assume result=1 */
; 1992 :             if ( opnd1->sym->state == SYM_UNDEFINED ||

	mov	rax, QWORD PTR opnd1$[rsp]
	mov	rax, QWORD PTR [rax+80]
	cmp	DWORD PTR [rax+32], 0
	je	SHORT $LN22@minus_op
	mov	rax, QWORD PTR opnd2$[rsp]
	mov	rax, QWORD PTR [rax+80]
	cmp	DWORD PTR [rax+32], 0
	jne	SHORT $LN20@minus_op
$LN22@minus_op:

; 1993 :                 opnd2->sym->state == SYM_UNDEFINED ) {
; 1994 :                 opnd1->value = 1;

	mov	rax, QWORD PTR opnd1$[rsp]
	mov	DWORD PTR [rax], 1

; 1995 :                 /* 2.09: make sure an undefined label is returned in opnd.sym.
; 1996 :                  * expression type has to be ADDR then; see equate22.aso.
; 1997 :                  * 2.11: returning EXPR_ADDR may cause problems -
; 1998 :                  * it may make the code longer than necessary, thus
; 1999 :                  * triggering an unnecessary jump extension.
; 2000 :                  * so it is returned only if the expression is used to define an equate.
; 2001 :                  */
; 2002 :                 if ( opnd1->sym->state != SYM_UNDEFINED ) {

	mov	rax, QWORD PTR opnd1$[rsp]
	mov	rax, QWORD PTR [rax+80]
	cmp	DWORD PTR [rax+32], 0
	je	SHORT $LN23@minus_op

; 2003 :                     opnd1->sym = opnd2->sym;

	mov	rax, QWORD PTR opnd1$[rsp]
	mov	rcx, QWORD PTR opnd2$[rsp]
	mov	rcx, QWORD PTR [rcx+80]
	mov	QWORD PTR [rax+80], rcx

; 2004 :                     opnd1->label_tok = opnd2->label_tok;

	mov	rax, QWORD PTR opnd1$[rsp]
	mov	rcx, QWORD PTR opnd2$[rsp]
	mov	rcx, QWORD PTR [rcx+40]
	mov	QWORD PTR [rax+40], rcx
$LN23@minus_op:

; 2005 :                 }
; 2006 :                 opnd1->kind = EXPR_ADDR;

	mov	rax, QWORD PTR opnd1$[rsp]
	mov	DWORD PTR [rax+60], 1

; 2007 :             } else {

	jmp	SHORT $LN21@minus_op
$LN20@minus_op:

; 2008 :                 /* v2.06c: do 64-bit arithmetic (more rigid test in data.c) */
; 2009 :                 //opnd1->value -= sym->offset;
; 2010 :                 //opnd1->value -= opnd2->value;
; 2011 :                 opnd1->value64 -= sym->offset;

	mov	rax, QWORD PTR sym$[rsp]
	movsxd	rax, DWORD PTR [rax+16]
	mov	rcx, QWORD PTR opnd1$[rsp]
	mov	rcx, QWORD PTR [rcx]
	sub	rcx, rax
	mov	rax, rcx
	mov	rcx, QWORD PTR opnd1$[rsp]
	mov	QWORD PTR [rcx], rax

; 2012 :                 opnd1->value64 -= opnd2->value64;

	mov	rax, QWORD PTR opnd1$[rsp]
	mov	rcx, QWORD PTR opnd2$[rsp]
	mov	rcx, QWORD PTR [rcx]
	mov	rax, QWORD PTR [rax]
	sub	rax, rcx
	mov	rcx, QWORD PTR opnd1$[rsp]
	mov	QWORD PTR [rcx], rax

; 2013 :                 opnd1->label_tok = NULL;

	mov	rax, QWORD PTR opnd1$[rsp]
	mov	QWORD PTR [rax+40], 0

; 2014 :                 opnd1->sym = NULL;

	mov	rax, QWORD PTR opnd1$[rsp]
	mov	QWORD PTR [rax+80], 0
$LN21@minus_op:

; 2015 :             }
; 2016 :             //if( opnd1->base_reg == NULL && opnd1->idx_reg == NULL ) { /* v2.09: just check 'indirect' */
; 2017 :             if( opnd1->indirect == FALSE ) {

	mov	rax, QWORD PTR opnd1$[rsp]
	mov	eax, DWORD PTR [rax+76]
	and	eax, 1
	test	eax, eax
	jne	SHORT $LN24@minus_op

; 2018 :                 if( opnd1->instr == T_OFFSET && opnd2->instr == T_OFFSET )

	mov	rax, QWORD PTR opnd1$[rsp]
	cmp	DWORD PTR [rax+56], 241			; 000000f1H
	jne	SHORT $LN26@minus_op
	mov	rax, QWORD PTR opnd2$[rsp]
	cmp	DWORD PTR [rax+56], 241			; 000000f1H
	jne	SHORT $LN26@minus_op

; 2019 :                     opnd1->instr = EMPTY;

	mov	rax, QWORD PTR opnd1$[rsp]
	mov	DWORD PTR [rax+56], -2
$LN26@minus_op:

; 2020 :                 //opnd1->indirect = FALSE; /* v2.09: not needed */
; 2021 :             } else {

	jmp	SHORT $LN25@minus_op
$LN24@minus_op:

; 2022 :                 DebugMsg1(("minus_op, exit, ADDR, base=%X, idx=%X\n", opnd1->base_reg, opnd1->idx_reg ));

	mov	rax, QWORD PTR opnd1$[rsp]
	mov	r8, QWORD PTR [rax+32]
	mov	rax, QWORD PTR opnd1$[rsp]
	mov	rdx, QWORD PTR [rax+24]
	lea	rcx, OFFSET FLAT:$SG11826
	call	DoDebugMsg1

; 2023 :                 opnd1->kind = EXPR_ADDR;

	mov	rax, QWORD PTR opnd1$[rsp]
	mov	DWORD PTR [rax+60], 1
$LN25@minus_op:

; 2024 :                 //opnd1->indirect |= opnd2->indirect;  /* v2.09: op1->indirect is always 1, op2->indirect is always 0 */
; 2025 :             }
; 2026 :             opnd1->explicit = FALSE;

	mov	rax, QWORD PTR opnd1$[rsp]
	mov	eax, DWORD PTR [rax+76]
	and	eax, -3					; fffffffdH
	mov	rcx, QWORD PTR opnd1$[rsp]
	mov	DWORD PTR [rcx+76], eax

; 2027 :             opnd1->mem_type = MT_EMPTY;

	mov	rax, QWORD PTR opnd1$[rsp]
	mov	DWORD PTR [rax+64], 192			; 000000c0H
$LN13@minus_op:

; 2028 :         }

	jmp	$LN10@minus_op
$LN9@minus_op:

; 2029 : 
; 2030 :     } else if( opnd1->kind == EXPR_REG &&

	mov	rax, QWORD PTR opnd1$[rsp]
	cmp	DWORD PTR [rax+60], 2
	jne	SHORT $LN27@minus_op
	mov	rax, QWORD PTR opnd2$[rsp]
	cmp	DWORD PTR [rax+60], 0
	jne	SHORT $LN27@minus_op

; 2031 :               opnd2->kind == EXPR_CONST ) {
; 2032 : 
; 2033 :         opnd1->llvalue = -1 * opnd2->llvalue;

	mov	rax, QWORD PTR opnd2$[rsp]
	imul	rax, QWORD PTR [rax], -1
	mov	rcx, QWORD PTR opnd1$[rsp]
	mov	QWORD PTR [rcx], rax

; 2034 :         opnd1->indirect |= opnd2->indirect;

	mov	rax, QWORD PTR opnd1$[rsp]
	mov	eax, DWORD PTR [rax+76]
	and	eax, 1
	mov	rcx, QWORD PTR opnd2$[rsp]
	mov	ecx, DWORD PTR [rcx+76]
	and	ecx, 1
	or	eax, ecx
	and	eax, 1
	mov	rcx, QWORD PTR opnd1$[rsp]
	mov	ecx, DWORD PTR [rcx+76]
	and	ecx, -2					; fffffffeH
	or	ecx, eax
	mov	eax, ecx
	mov	rcx, QWORD PTR opnd1$[rsp]
	mov	DWORD PTR [rcx+76], eax

; 2035 :         opnd1->kind = EXPR_ADDR;

	mov	rax, QWORD PTR opnd1$[rsp]
	mov	DWORD PTR [rax+60], 1

; 2036 : 
; 2037 :     } else {

	jmp	SHORT $LN28@minus_op
$LN27@minus_op:

; 2038 :         DebugMsg(("minus_op, exit, error: kinds tok1=%u, tok2=%u\n", opnd1->kind, opnd2->kind ));

	mov	rax, QWORD PTR opnd2$[rsp]
	mov	r8d, DWORD PTR [rax+60]
	mov	rax, QWORD PTR opnd1$[rsp]
	mov	edx, DWORD PTR [rax+60]
	lea	rcx, OFFSET FLAT:$SG11829
	call	DoDebugMsg

; 2039 :         return( ConstError( opnd1, opnd2 ) );

	mov	rdx, QWORD PTR opnd2$[rsp]
	mov	rcx, QWORD PTR opnd1$[rsp]
	call	ConstError
	jmp	SHORT $LN1@minus_op
$LN28@minus_op:
$LN10@minus_op:
$LN8@minus_op:
$LN6@minus_op:

; 2040 :     }
; 2041 :     return( NOT_ERROR );

	xor	eax, eax
$LN1@minus_op:

; 2042 : }

	add	rsp, 48					; 00000030H
	pop	rdi
	ret	0
minus_op ENDP
_TEXT	ENDS
; Function compile flags: /Odtp /RTCsu
; File d:\hjwasm\hjwasm2.13.1s\hjwasm2.13.1s\expreval.c
_TEXT	SEGMENT
tv68 = 112
tv74 = 120
tv80 = 128
tv86 = 136
tv92 = 144
tv130 = 152
opnd1$ = 176
opnd2$ = 184
plus_op	PROC

; 1775 : {

	mov	QWORD PTR [rsp+16], rdx
	mov	QWORD PTR [rsp+8], rcx
	push	rdi
	sub	rsp, 160				; 000000a0H
	mov	rdi, rsp
	mov	ecx, 40					; 00000028H
	mov	eax, -858993460				; ccccccccH
	rep stosd
	mov	rcx, QWORD PTR [rsp+176]

; 1776 :     DebugMsg1(("plus_op: kind=%d/%d memtype=%Xh-%Xh value=%d-%d sym=%s-%s mbr=%s-%s type=%s-%s\n",

	mov	rax, QWORD PTR opnd2$[rsp]
	cmp	QWORD PTR [rax+96], 0
	je	SHORT $LN31@plus_op
	mov	rax, QWORD PTR opnd2$[rsp]
	mov	rax, QWORD PTR [rax+96]
	mov	rax, QWORD PTR [rax+8]
	mov	QWORD PTR tv68[rsp], rax
	jmp	SHORT $LN32@plus_op
$LN31@plus_op:
	lea	rax, OFFSET FLAT:$SG11736
	mov	QWORD PTR tv68[rsp], rax
$LN32@plus_op:
	mov	rax, QWORD PTR opnd1$[rsp]
	cmp	QWORD PTR [rax+96], 0
	je	SHORT $LN33@plus_op
	mov	rax, QWORD PTR opnd1$[rsp]
	mov	rax, QWORD PTR [rax+96]
	mov	rax, QWORD PTR [rax+8]
	mov	QWORD PTR tv74[rsp], rax
	jmp	SHORT $LN34@plus_op
$LN33@plus_op:
	lea	rax, OFFSET FLAT:$SG11737
	mov	QWORD PTR tv74[rsp], rax
$LN34@plus_op:
	mov	rax, QWORD PTR opnd2$[rsp]
	cmp	QWORD PTR [rax+88], 0
	je	SHORT $LN35@plus_op
	mov	rax, QWORD PTR opnd2$[rsp]
	mov	rax, QWORD PTR [rax+88]
	mov	rax, QWORD PTR [rax+8]
	mov	QWORD PTR tv80[rsp], rax
	jmp	SHORT $LN36@plus_op
$LN35@plus_op:
	lea	rax, OFFSET FLAT:$SG11738
	mov	QWORD PTR tv80[rsp], rax
$LN36@plus_op:
	mov	rax, QWORD PTR opnd1$[rsp]
	cmp	QWORD PTR [rax+88], 0
	je	SHORT $LN37@plus_op
	mov	rax, QWORD PTR opnd1$[rsp]
	mov	rax, QWORD PTR [rax+88]
	mov	rax, QWORD PTR [rax+8]
	mov	QWORD PTR tv86[rsp], rax
	jmp	SHORT $LN38@plus_op
$LN37@plus_op:
	lea	rax, OFFSET FLAT:$SG11739
	mov	QWORD PTR tv86[rsp], rax
$LN38@plus_op:
	mov	rax, QWORD PTR opnd2$[rsp]
	cmp	QWORD PTR [rax+80], 0
	je	SHORT $LN39@plus_op
	mov	rax, QWORD PTR opnd2$[rsp]
	mov	rax, QWORD PTR [rax+80]
	mov	rax, QWORD PTR [rax+8]
	mov	QWORD PTR tv92[rsp], rax
	jmp	SHORT $LN40@plus_op
$LN39@plus_op:
	lea	rax, OFFSET FLAT:$SG11740
	mov	QWORD PTR tv92[rsp], rax
$LN40@plus_op:
	mov	rax, QWORD PTR opnd1$[rsp]
	cmp	QWORD PTR [rax+80], 0
	je	SHORT $LN41@plus_op
	mov	rax, QWORD PTR opnd1$[rsp]
	mov	rax, QWORD PTR [rax+80]
	mov	rax, QWORD PTR [rax+8]
	mov	QWORD PTR tv130[rsp], rax
	jmp	SHORT $LN42@plus_op
$LN41@plus_op:
	lea	rax, OFFSET FLAT:$SG11741
	mov	QWORD PTR tv130[rsp], rax
$LN42@plus_op:
	mov	rax, QWORD PTR tv68[rsp]
	mov	QWORD PTR [rsp+96], rax
	mov	rax, QWORD PTR tv74[rsp]
	mov	QWORD PTR [rsp+88], rax
	mov	rax, QWORD PTR tv80[rsp]
	mov	QWORD PTR [rsp+80], rax
	mov	rax, QWORD PTR tv86[rsp]
	mov	QWORD PTR [rsp+72], rax
	mov	rax, QWORD PTR tv92[rsp]
	mov	QWORD PTR [rsp+64], rax
	mov	rax, QWORD PTR tv130[rsp]
	mov	QWORD PTR [rsp+56], rax
	mov	rax, QWORD PTR opnd2$[rsp]
	mov	eax, DWORD PTR [rax]
	mov	DWORD PTR [rsp+48], eax
	mov	rax, QWORD PTR opnd1$[rsp]
	mov	eax, DWORD PTR [rax]
	mov	DWORD PTR [rsp+40], eax
	mov	rax, QWORD PTR opnd2$[rsp]
	mov	eax, DWORD PTR [rax+64]
	mov	DWORD PTR [rsp+32], eax
	mov	rax, QWORD PTR opnd1$[rsp]
	mov	r9d, DWORD PTR [rax+64]
	mov	rax, QWORD PTR opnd2$[rsp]
	mov	r8d, DWORD PTR [rax+60]
	mov	rax, QWORD PTR opnd1$[rsp]
	mov	edx, DWORD PTR [rax+60]
	lea	rcx, OFFSET FLAT:$SG11742
	call	DoDebugMsg1

; 1777 :                opnd1->kind, opnd2->kind,
; 1778 :                opnd1->mem_type, opnd2->mem_type, 
; 1779 :                opnd1->value, opnd2->value,
; 1780 :                opnd1->sym ? opnd1->sym->name : "NULL",
; 1781 :                opnd2->sym ? opnd2->sym->name : "NULL",
; 1782 :                opnd1->mbr ? opnd1->mbr->name : "NULL",
; 1783 :                opnd2->mbr ? opnd2->mbr->name : "NULL",
; 1784 :                opnd1->type ? opnd1->type->name : "NULL",
; 1785 :                opnd2->type ? opnd2->type->name : "NULL" ));
; 1786 :     /*
; 1787 :      * The formats allowed are (registers inside [] only!):
; 1788 :      *        constant + constant  CONST-CONST
; 1789 :      *        constant + address   CONST-ADDR
; 1790 :      *        register + constant  ADDR-CONST
; 1791 :      *        address + register   ADDR-ADDR
; 1792 :      *        register + register  ADDR-ADDR
; 1793 :      *        address  + address   ADDR-ADDR
; 1794 :      */
; 1795 : 
; 1796 :     if( check_direct_reg( opnd1, opnd2 ) == ERROR ) {

	mov	rdx, QWORD PTR opnd2$[rsp]
	mov	rcx, QWORD PTR opnd1$[rsp]
	call	check_direct_reg
	cmp	eax, -1
	jne	SHORT $LN2@plus_op

; 1797 :         DebugMsg(("plus_op: error direct register\n" ));

	lea	rcx, OFFSET FLAT:$SG11744
	call	DoDebugMsg

; 1798 :         return( fnEmitErr( INVALID_USE_OF_REGISTER ) );

	mov	ecx, 170				; 000000aaH
	call	QWORD PTR fnEmitErr
	jmp	$LN1@plus_op
$LN2@plus_op:

; 1799 :     }
; 1800 :     /* v2.08: remove EXPR_REG variants */
; 1801 :     if ( opnd1->kind == EXPR_REG )

	mov	rax, QWORD PTR opnd1$[rsp]
	cmp	DWORD PTR [rax+60], 2
	jne	SHORT $LN3@plus_op

; 1802 :         opnd1->kind = EXPR_ADDR;

	mov	rax, QWORD PTR opnd1$[rsp]
	mov	DWORD PTR [rax+60], 1
$LN3@plus_op:

; 1803 :     if ( opnd2->kind == EXPR_REG )

	mov	rax, QWORD PTR opnd2$[rsp]
	cmp	DWORD PTR [rax+60], 2
	jne	SHORT $LN4@plus_op

; 1804 :         opnd2->kind = EXPR_ADDR;

	mov	rax, QWORD PTR opnd2$[rsp]
	mov	DWORD PTR [rax+60], 1
$LN4@plus_op:

; 1805 : 
; 1806 :     /* v2.07: don't allow multiple overrides */
; 1807 :     if ( opnd2->override ) {

	mov	rax, QWORD PTR opnd2$[rsp]
	cmp	QWORD PTR [rax+48], 0
	je	SHORT $LN5@plus_op

; 1808 :         if ( opnd1->override ) {

	mov	rax, QWORD PTR opnd1$[rsp]
	cmp	QWORD PTR [rax+48], 0
	je	SHORT $LN6@plus_op

; 1809 :             /* v2.07a: both T_REG or both T_ID is rejected */
; 1810 :             if ( opnd1->override->token == opnd2->override->token ) {

	mov	rax, QWORD PTR opnd1$[rsp]
	mov	rax, QWORD PTR [rax+48]
	movzx	eax, BYTE PTR [rax]
	mov	rcx, QWORD PTR opnd2$[rsp]
	mov	rcx, QWORD PTR [rcx+48]
	movzx	ecx, BYTE PTR [rcx]
	cmp	eax, ecx
	jne	SHORT $LN7@plus_op

; 1811 :                 DebugMsg(("plus_op: multiple overrides\n" ));

	lea	rcx, OFFSET FLAT:$SG11750
	call	DoDebugMsg

; 1812 :                 return( fnEmitErr( MULTIPLE_OVERRIDES ) );

	mov	ecx, 68					; 00000044H
	call	QWORD PTR fnEmitErr
	jmp	$LN1@plus_op
$LN7@plus_op:
$LN6@plus_op:

; 1813 :             }
; 1814 :         }
; 1815 :         opnd1->override = opnd2->override;

	mov	rax, QWORD PTR opnd1$[rsp]
	mov	rcx, QWORD PTR opnd2$[rsp]
	mov	rcx, QWORD PTR [rcx+48]
	mov	QWORD PTR [rax+48], rcx
$LN5@plus_op:

; 1816 :     }
; 1817 : 
; 1818 :     if( check_same( opnd1, opnd2, EXPR_CONST ) ) {

	mov	rax, QWORD PTR opnd1$[rsp]
	cmp	DWORD PTR [rax+60], 0
	jne	SHORT $LN8@plus_op
	mov	rax, QWORD PTR opnd2$[rsp]
	cmp	DWORD PTR [rax+60], 0
	jne	SHORT $LN8@plus_op

; 1819 : 
; 1820 :         DebugMsg1(("plus_op: CONST - CONST\n" ));

	lea	rcx, OFFSET FLAT:$SG11753
	call	DoDebugMsg1

; 1821 :         opnd1->llvalue += opnd2->llvalue;

	mov	rax, QWORD PTR opnd1$[rsp]
	mov	rax, QWORD PTR [rax]
	mov	rcx, QWORD PTR opnd2$[rsp]
	add	rax, QWORD PTR [rcx]
	mov	rcx, QWORD PTR opnd1$[rsp]
	mov	QWORD PTR [rcx], rax
	jmp	$LN9@plus_op
$LN8@plus_op:

; 1822 : 
; 1823 :     } else if( check_same( opnd1, opnd2, EXPR_ADDR ) ) {

	mov	rax, QWORD PTR opnd1$[rsp]
	cmp	DWORD PTR [rax+60], 1
	jne	$LN10@plus_op
	mov	rax, QWORD PTR opnd2$[rsp]
	cmp	DWORD PTR [rax+60], 1
	jne	$LN10@plus_op

; 1824 : 
; 1825 :         DebugMsg1(("plus_op: ADDR - ADDR\n" ));

	lea	rcx, OFFSET FLAT:$SG11756
	call	DoDebugMsg1

; 1826 :         fix_struct_value( opnd1 );

	mov	rcx, QWORD PTR opnd1$[rsp]
	call	fix_struct_value

; 1827 :         fix_struct_value( opnd2 );

	mov	rcx, QWORD PTR opnd2$[rsp]
	call	fix_struct_value

; 1828 :         if ( index_connect( opnd1, opnd2 ) == ERROR )

	mov	rdx, QWORD PTR opnd2$[rsp]
	mov	rcx, QWORD PTR opnd1$[rsp]
	call	index_connect
	cmp	eax, -1
	jne	SHORT $LN12@plus_op

; 1829 :             return( ERROR );

	mov	eax, -1
	jmp	$LN1@plus_op
$LN12@plus_op:

; 1830 :         if( opnd2->sym != NULL ) {

	mov	rax, QWORD PTR opnd2$[rsp]
	cmp	QWORD PTR [rax+80], 0
	je	$LN13@plus_op

; 1831 :             /* two relocatable labels not allowed */
; 1832 :             /* v2.05: changed */
; 1833 :             //if ( ( opnd1->sym != NULL ) && ( Parse_Pass > PASS_1 || error_msg == FALSE ) ) {
; 1834 :             if ( opnd1->sym != NULL &&
; 1835 :                 opnd1->sym->state != SYM_UNDEFINED &&

	mov	rax, QWORD PTR opnd1$[rsp]
	cmp	QWORD PTR [rax+80], 0
	je	SHORT $LN14@plus_op
	mov	rax, QWORD PTR opnd1$[rsp]
	mov	rax, QWORD PTR [rax+80]
	cmp	DWORD PTR [rax+32], 0
	je	SHORT $LN14@plus_op
	mov	rax, QWORD PTR opnd2$[rsp]
	mov	rax, QWORD PTR [rax+80]
	cmp	DWORD PTR [rax+32], 0
	je	SHORT $LN14@plus_op

; 1836 :                 opnd2->sym->state != SYM_UNDEFINED ) {
; 1837 :                 DebugMsg(("plus_op: two relocatable labels: %s - %s \n", opnd1->sym->name, opnd2->sym->name ));

	mov	rax, QWORD PTR opnd2$[rsp]
	mov	rax, QWORD PTR [rax+80]
	mov	rcx, QWORD PTR opnd1$[rsp]
	mov	rcx, QWORD PTR [rcx+80]
	mov	r8, QWORD PTR [rax+8]
	mov	rdx, QWORD PTR [rcx+8]
	lea	rcx, OFFSET FLAT:$SG11760
	call	DoDebugMsg

; 1838 :                 return( fnEmitErr( CANNOT_ADD_TWO_RELOCATABLE_LABELS ) );

	mov	ecx, 173				; 000000adH
	call	QWORD PTR fnEmitErr
	jmp	$LN1@plus_op
$LN14@plus_op:

; 1839 :             }
; 1840 :             opnd1->label_tok = opnd2->label_tok;

	mov	rax, QWORD PTR opnd1$[rsp]
	mov	rcx, QWORD PTR opnd2$[rsp]
	mov	rcx, QWORD PTR [rcx+40]
	mov	QWORD PTR [rax+40], rcx

; 1841 :             opnd1->sym = opnd2->sym;

	mov	rax, QWORD PTR opnd1$[rsp]
	mov	rcx, QWORD PTR opnd2$[rsp]
	mov	rcx, QWORD PTR [rcx+80]
	mov	QWORD PTR [rax+80], rcx

; 1842 :             /* v2.05: added */
; 1843 :             if ( opnd1->mem_type == MT_EMPTY )

	mov	rax, QWORD PTR opnd1$[rsp]
	cmp	DWORD PTR [rax+64], 192			; 000000c0H
	jne	SHORT $LN15@plus_op

; 1844 :                 opnd1->mem_type = opnd2->mem_type;

	mov	rax, QWORD PTR opnd1$[rsp]
	mov	rcx, QWORD PTR opnd2$[rsp]
	mov	ecx, DWORD PTR [rcx+64]
	mov	DWORD PTR [rax+64], ecx
$LN15@plus_op:

; 1845 :             /* v2.10: copy qualifier ( [<reg>+imagerel xxx] */
; 1846 :             if ( opnd2->instr != EMPTY )

	mov	rax, QWORD PTR opnd2$[rsp]
	cmp	DWORD PTR [rax+56], -2
	je	SHORT $LN16@plus_op

; 1847 :                 opnd1->instr = opnd2->instr;

	mov	rax, QWORD PTR opnd1$[rsp]
	mov	rcx, QWORD PTR opnd2$[rsp]
	mov	ecx, DWORD PTR [rcx+56]
	mov	DWORD PTR [rax+56], ecx
$LN16@plus_op:
$LN13@plus_op:

; 1848 :         }
; 1849 :         opnd1->llvalue += opnd2->llvalue;

	mov	rax, QWORD PTR opnd1$[rsp]
	mov	rax, QWORD PTR [rax]
	mov	rcx, QWORD PTR opnd2$[rsp]
	add	rax, QWORD PTR [rcx]
	mov	rcx, QWORD PTR opnd1$[rsp]
	mov	QWORD PTR [rcx], rax

; 1850 :         /* v2.08: added, test case [ecx+ebx.<struc>].<mbr> */
; 1851 :         if ( opnd2->type )

	mov	rax, QWORD PTR opnd2$[rsp]
	cmp	QWORD PTR [rax+96], 0
	je	SHORT $LN17@plus_op

; 1852 :             opnd1->type = opnd2->type;

	mov	rax, QWORD PTR opnd1$[rsp]
	mov	rcx, QWORD PTR opnd2$[rsp]
	mov	rcx, QWORD PTR [rcx+96]
	mov	QWORD PTR [rax+96], rcx
$LN17@plus_op:

; 1853 : 
; 1854 :     } else if( check_both( opnd1, opnd2, EXPR_CONST, EXPR_ADDR ) ) {

	jmp	$LN11@plus_op
$LN10@plus_op:
	mov	r9d, 1
	xor	r8d, r8d
	mov	rdx, QWORD PTR opnd2$[rsp]
	mov	rcx, QWORD PTR opnd1$[rsp]
	call	check_both
	movzx	eax, al
	test	eax, eax
	je	$LN18@plus_op

; 1855 : 
; 1856 :         if( opnd1->kind == EXPR_CONST ) {

	mov	rax, QWORD PTR opnd1$[rsp]
	cmp	DWORD PTR [rax+60], 0
	jne	$LN20@plus_op

; 1857 :             DebugMsg1(("plus_op: CONST - ADDR\n" ));

	lea	rcx, OFFSET FLAT:$SG11768
	call	DoDebugMsg1

; 1858 :             opnd2->llvalue += opnd1->llvalue;

	mov	rax, QWORD PTR opnd2$[rsp]
	mov	rax, QWORD PTR [rax]
	mov	rcx, QWORD PTR opnd1$[rsp]
	add	rax, QWORD PTR [rcx]
	mov	rcx, QWORD PTR opnd2$[rsp]
	mov	QWORD PTR [rcx], rax

; 1859 :             opnd2->indirect |= opnd1->indirect;

	mov	rax, QWORD PTR opnd2$[rsp]
	mov	eax, DWORD PTR [rax+76]
	and	eax, 1
	mov	rcx, QWORD PTR opnd1$[rsp]
	mov	ecx, DWORD PTR [rcx+76]
	and	ecx, 1
	or	eax, ecx
	and	eax, 1
	mov	rcx, QWORD PTR opnd2$[rsp]
	mov	ecx, DWORD PTR [rcx+76]
	and	ecx, -2					; fffffffeH
	or	ecx, eax
	mov	eax, ecx
	mov	rcx, QWORD PTR opnd2$[rsp]
	mov	DWORD PTR [rcx+76], eax

; 1860 : 
; 1861 :             if( opnd1->explicit == TRUE ) {

	mov	rax, QWORD PTR opnd1$[rsp]
	mov	eax, DWORD PTR [rax+76]
	shr	eax, 1
	and	eax, 1
	cmp	eax, 1
	jne	SHORT $LN22@plus_op

; 1862 :                 opnd2->explicit = TRUE;

	mov	rax, QWORD PTR opnd2$[rsp]
	mov	eax, DWORD PTR [rax+76]
	or	eax, 2
	mov	rcx, QWORD PTR opnd2$[rsp]
	mov	DWORD PTR [rcx+76], eax

; 1863 :                 opnd2->mem_type = opnd1->mem_type;

	mov	rax, QWORD PTR opnd2$[rsp]
	mov	rcx, QWORD PTR opnd1$[rsp]
	mov	ecx, DWORD PTR [rcx+64]
	mov	DWORD PTR [rax+64], ecx
	jmp	SHORT $LN23@plus_op
$LN22@plus_op:

; 1864 :             } else if ( opnd2->mem_type == MT_EMPTY )

	mov	rax, QWORD PTR opnd2$[rsp]
	cmp	DWORD PTR [rax+64], 192			; 000000c0H
	jne	SHORT $LN24@plus_op

; 1865 :                 opnd2->mem_type = opnd1->mem_type;

	mov	rax, QWORD PTR opnd2$[rsp]
	mov	rcx, QWORD PTR opnd1$[rsp]
	mov	ecx, DWORD PTR [rcx+64]
	mov	DWORD PTR [rax+64], ecx
$LN24@plus_op:
$LN23@plus_op:

; 1866 : 
; 1867 :             /* v2.05: added. See dotop2.asm, "mov eax, v2.f1[ebx*2]" */
; 1868 :             if ( opnd2->mbr == NULL )

	mov	rax, QWORD PTR opnd2$[rsp]
	cmp	QWORD PTR [rax+88], 0
	jne	SHORT $LN25@plus_op

; 1869 :                 opnd2->mbr = opnd1->mbr;

	mov	rax, QWORD PTR opnd2$[rsp]
	mov	rcx, QWORD PTR opnd1$[rsp]
	mov	rcx, QWORD PTR [rcx+88]
	mov	QWORD PTR [rax+88], rcx
$LN25@plus_op:

; 1870 : 
; 1871 :             /* v2.08: added, test case [4+ebx.<struc>].<mbr> */
; 1872 :             if ( opnd2->type )

	mov	rax, QWORD PTR opnd2$[rsp]
	cmp	QWORD PTR [rax+96], 0
	je	SHORT $LN26@plus_op

; 1873 :                 opnd1->type = opnd2->type; /* set <type> in op1! */

	mov	rax, QWORD PTR opnd1$[rsp]
	mov	rcx, QWORD PTR opnd2$[rsp]
	mov	rcx, QWORD PTR [rcx+96]
	mov	QWORD PTR [rax+96], rcx
$LN26@plus_op:

; 1874 : 
; 1875 :             TokenAssign( opnd1, opnd2 );

	mov	rdx, QWORD PTR opnd2$[rsp]
	mov	rcx, QWORD PTR opnd1$[rsp]
	call	TokenAssign

; 1876 : 
; 1877 :         } else {

	jmp	$LN21@plus_op
$LN20@plus_op:

; 1878 :             DebugMsg1(("plus_op: ADDR - CONST\n" ));

	lea	rcx, OFFSET FLAT:$SG11774
	call	DoDebugMsg1

; 1879 :             opnd1->llvalue += opnd2->llvalue;

	mov	rax, QWORD PTR opnd1$[rsp]
	mov	rax, QWORD PTR [rax]
	mov	rcx, QWORD PTR opnd2$[rsp]
	add	rax, QWORD PTR [rcx]
	mov	rcx, QWORD PTR opnd1$[rsp]
	mov	QWORD PTR [rcx], rax

; 1880 :             /* v2.04: added. to make this case behave like
; 1881 :              * the CONST - REG case (see below).
; 1882 :              */
; 1883 :             /* v2.08: changed, test case [reg+struct] */
; 1884 :             //if ( opnd1->mem_type == MT_EMPTY )
; 1885 :             if ( opnd2->mbr ) { /* v2.10: added; regression test dotop5.asm */

	mov	rax, QWORD PTR opnd2$[rsp]
	cmp	QWORD PTR [rax+88], 0
	je	SHORT $LN27@plus_op

; 1886 :                 opnd1->mbr = opnd2->mbr;

	mov	rax, QWORD PTR opnd1$[rsp]
	mov	rcx, QWORD PTR opnd2$[rsp]
	mov	rcx, QWORD PTR [rcx+88]
	mov	QWORD PTR [rax+88], rcx

; 1887 :                 opnd1->mem_type = opnd2->mem_type;

	mov	rax, QWORD PTR opnd1$[rsp]
	mov	rcx, QWORD PTR opnd2$[rsp]
	mov	ecx, DWORD PTR [rcx+64]
	mov	DWORD PTR [rax+64], ecx

; 1888 :             } else

	jmp	SHORT $LN28@plus_op
$LN27@plus_op:

; 1889 :             if ( opnd1->mem_type == MT_EMPTY && opnd2->is_type == FALSE )

	mov	rax, QWORD PTR opnd1$[rsp]
	cmp	DWORD PTR [rax+64], 192			; 000000c0H
	jne	SHORT $LN29@plus_op
	mov	rax, QWORD PTR opnd2$[rsp]
	mov	eax, DWORD PTR [rax+76]
	shr	eax, 3
	and	eax, 1
	test	eax, eax
	jne	SHORT $LN29@plus_op

; 1890 :                 opnd1->mem_type = opnd2->mem_type;

	mov	rax, QWORD PTR opnd1$[rsp]
	mov	rcx, QWORD PTR opnd2$[rsp]
	mov	ecx, DWORD PTR [rcx+64]
	mov	DWORD PTR [rax+64], ecx
$LN29@plus_op:
$LN28@plus_op:
$LN21@plus_op:

; 1891 :         }
; 1892 :         fix_struct_value( opnd1 );

	mov	rcx, QWORD PTR opnd1$[rsp]
	call	fix_struct_value

; 1893 :     } else {

	jmp	SHORT $LN19@plus_op
$LN18@plus_op:

; 1894 :         DebugMsg(("plus_op: error, unexpected format: %u - %u\n", opnd1->kind, opnd2->kind ));

	mov	rax, QWORD PTR opnd2$[rsp]
	mov	r8d, DWORD PTR [rax+60]
	mov	rax, QWORD PTR opnd1$[rsp]
	mov	edx, DWORD PTR [rax+60]
	lea	rcx, OFFSET FLAT:$SG11778
	call	DoDebugMsg

; 1895 :         return( ConstError( opnd1, opnd2 ) );

	mov	rdx, QWORD PTR opnd2$[rsp]
	mov	rcx, QWORD PTR opnd1$[rsp]
	call	ConstError
	jmp	SHORT $LN1@plus_op
$LN19@plus_op:
$LN11@plus_op:
$LN9@plus_op:

; 1896 :     }
; 1897 :     return( NOT_ERROR );

	xor	eax, eax
$LN1@plus_op:

; 1898 : }

	add	rsp, 160				; 000000a0H
	pop	rdi
	ret	0
plus_op	ENDP
_TEXT	ENDS
; Function compile flags: /Odtp /RTCsu
; File d:\hjwasm\hjwasm2.13.1s\hjwasm2.13.1s\expreval.c
_TEXT	SEGMENT
i$1 = 32
dir$2 = 40
fl$3 = 48
tv176 = 56
oper$ = 80
opnd1$ = 88
opnd2$ = 96
sym$ = 104
name$ = 112
wimask_op PROC

; 1719 : {

	mov	QWORD PTR [rsp+32], r9
	mov	QWORD PTR [rsp+24], r8
	mov	QWORD PTR [rsp+16], rdx
	mov	DWORD PTR [rsp+8], ecx
	push	rdi
	sub	rsp, 64					; 00000040H
	mov	rdi, rsp
	mov	ecx, 16
	mov	eax, -858993460				; ccccccccH
	rep stosd
	mov	ecx, DWORD PTR [rsp+80]

; 1720 :     /* additional check needed if operand is a type */
; 1721 :     if ( opnd2->is_type ) {

	mov	rax, QWORD PTR opnd2$[rsp]
	mov	eax, DWORD PTR [rax+76]
	shr	eax, 3
	and	eax, 1
	test	eax, eax
	je	SHORT $LN8@wimask_op

; 1722 :         sym = opnd2->type;

	mov	rax, QWORD PTR opnd2$[rsp]
	mov	rax, QWORD PTR [rax+96]
	mov	QWORD PTR sym$[rsp], rax

; 1723 :         if (sym->typekind != TYPE_RECORD ) {

	mov	rax, QWORD PTR sym$[rsp]
	movzx	eax, BYTE PTR [rax+66]
	cmp	eax, 4
	je	SHORT $LN10@wimask_op

; 1724 :             return( fnEmitErr( OPERAND_MUST_BE_RECORD ) );

	mov	ecx, 161				; 000000a1H
	call	QWORD PTR fnEmitErr
	jmp	$LN1@wimask_op
$LN10@wimask_op:

; 1725 :         }

	jmp	SHORT $LN9@wimask_op
$LN8@wimask_op:

; 1726 :     } else if ( opnd2->kind == EXPR_CONST ) {

	mov	rax, QWORD PTR opnd2$[rsp]
	cmp	DWORD PTR [rax+60], 0
	jne	SHORT $LN11@wimask_op

; 1727 :         sym = opnd2->mbr;

	mov	rax, QWORD PTR opnd2$[rsp]
	mov	rax, QWORD PTR [rax+88]
	mov	QWORD PTR sym$[rsp], rax

; 1728 :     } else {

	jmp	SHORT $LN12@wimask_op
$LN11@wimask_op:

; 1729 :         sym = opnd2->sym;

	mov	rax, QWORD PTR opnd2$[rsp]
	mov	rax, QWORD PTR [rax+80]
	mov	QWORD PTR sym$[rsp], rax
$LN12@wimask_op:
$LN9@wimask_op:

; 1730 :     }
; 1731 :     if ( oper == T_MASK ) {

	cmp	DWORD PTR oper$[rsp], 240		; 000000f0H
	jne	$LN13@wimask_op

; 1732 :         int i;
; 1733 :         opnd1->value = 0;

	mov	rax, QWORD PTR opnd1$[rsp]
	mov	DWORD PTR [rax], 0

; 1734 :         if ( opnd2->is_type ) { /* get mask of the RECORD? */

	mov	rax, QWORD PTR opnd2$[rsp]
	mov	eax, DWORD PTR [rax+76]
	shr	eax, 3
	and	eax, 1
	test	eax, eax
	je	SHORT $LN15@wimask_op

; 1735 : #if AMD64_SUPPORT
; 1736 :             opnd1->llvalue = GetRecordMask( (struct dsym *)sym );

	mov	rcx, QWORD PTR sym$[rsp]
	call	GetRecordMask
	mov	rcx, QWORD PTR opnd1$[rsp]
	mov	QWORD PTR [rcx], rax

; 1737 : #else
; 1738 :             opnd1->value = GetRecordMask( (struct dsym *)sym );
; 1739 : #endif
; 1740 :         } else { /* get mask of the bitfield */

	jmp	SHORT $LN16@wimask_op
$LN15@wimask_op:

; 1741 :             for ( i = sym->offset ;i < sym->offset + sym->total_size; i++ )

	mov	rax, QWORD PTR sym$[rsp]
	mov	eax, DWORD PTR [rax+16]
	mov	DWORD PTR i$1[rsp], eax
	jmp	SHORT $LN4@wimask_op
$LN2@wimask_op:
	mov	eax, DWORD PTR i$1[rsp]
	inc	eax
	mov	DWORD PTR i$1[rsp], eax
$LN4@wimask_op:
	mov	rax, QWORD PTR sym$[rsp]
	mov	eax, DWORD PTR [rax+16]
	mov	rcx, QWORD PTR sym$[rsp]
	add	eax, DWORD PTR [rcx+56]
	cmp	DWORD PTR i$1[rsp], eax
	jae	SHORT $LN3@wimask_op

; 1742 : #if AMD64_SUPPORT
; 1743 : #if defined(LLONG_MAX) || defined(__GNUC__) || defined(__TINYC__)
; 1744 :                 opnd1->llvalue |= 1ULL << i;

	mov	eax, DWORD PTR i$1[rsp]
	mov	ecx, 1
	mov	QWORD PTR tv176[rsp], rcx
	movzx	ecx, al
	mov	rax, QWORD PTR tv176[rsp]
	shl	rax, cl
	mov	rcx, QWORD PTR opnd1$[rsp]
	mov	rcx, QWORD PTR [rcx]
	or	rcx, rax
	mov	rax, rcx
	mov	rcx, QWORD PTR opnd1$[rsp]
	mov	QWORD PTR [rcx], rax
	jmp	SHORT $LN2@wimask_op
$LN3@wimask_op:
$LN16@wimask_op:

; 1745 : #else
; 1746 :                 opnd1->llvalue |= 1i64 << i;
; 1747 : #endif
; 1748 : #else
; 1749 :                 opnd1->value |= 1 << i;
; 1750 : #endif
; 1751 :         }
; 1752 :     } else {

	jmp	SHORT $LN14@wimask_op
$LN13@wimask_op:

; 1753 :         if ( opnd2->is_type ) { /* get width of the RECORD? */

	mov	rax, QWORD PTR opnd2$[rsp]
	mov	eax, DWORD PTR [rax+76]
	shr	eax, 3
	and	eax, 1
	test	eax, eax
	je	SHORT $LN17@wimask_op

; 1754 :             struct dsym *dir = (struct dsym *)sym;

	mov	rax, QWORD PTR sym$[rsp]
	mov	QWORD PTR dir$2[rsp], rax

; 1755 :             struct sfield *fl;
; 1756 :             for ( fl = dir->e.structinfo->head; fl; fl = fl->next )

	mov	rax, QWORD PTR dir$2[rsp]
	mov	rax, QWORD PTR [rax+96]
	mov	rax, QWORD PTR [rax]
	mov	QWORD PTR fl$3[rsp], rax
	jmp	SHORT $LN7@wimask_op
$LN5@wimask_op:
	mov	rax, QWORD PTR fl$3[rsp]
	mov	rax, QWORD PTR [rax+96]
	mov	QWORD PTR fl$3[rsp], rax
$LN7@wimask_op:
	cmp	QWORD PTR fl$3[rsp], 0
	je	SHORT $LN6@wimask_op

; 1757 :                 opnd1->value += fl->sym.total_size;

	mov	rax, QWORD PTR opnd1$[rsp]
	mov	eax, DWORD PTR [rax]
	mov	rcx, QWORD PTR fl$3[rsp]
	add	eax, DWORD PTR [rcx+56]
	mov	rcx, QWORD PTR opnd1$[rsp]
	mov	DWORD PTR [rcx], eax
	jmp	SHORT $LN5@wimask_op
$LN6@wimask_op:

; 1758 :         } else

	jmp	SHORT $LN18@wimask_op
$LN17@wimask_op:

; 1759 :             opnd1->value = sym->total_size;

	mov	rax, QWORD PTR opnd1$[rsp]
	mov	rcx, QWORD PTR sym$[rsp]
	mov	ecx, DWORD PTR [rcx+56]
	mov	DWORD PTR [rax], ecx
$LN18@wimask_op:
$LN14@wimask_op:

; 1760 :     }
; 1761 :     opnd1->kind = EXPR_CONST;

	mov	rax, QWORD PTR opnd1$[rsp]
	mov	DWORD PTR [rax+60], 0

; 1762 :     return( NOT_ERROR );

	xor	eax, eax
$LN1@wimask_op:

; 1763 : }

	add	rsp, 64					; 00000040H
	pop	rdi
	ret	0
wimask_op ENDP
_TEXT	ENDS
; Function compile flags: /Odtp /RTCsu
; File d:\hjwasm\hjwasm2.13.1s\hjwasm2.13.1s\expreval.c
_TEXT	SEGMENT
tv87 = 32
oper$ = 64
opnd1$ = 72
opnd2$ = 80
sym$ = 88
name$ = 96
this_op	PROC

; 1676 : {

	mov	QWORD PTR [rsp+32], r9
	mov	QWORD PTR [rsp+24], r8
	mov	QWORD PTR [rsp+16], rdx
	mov	DWORD PTR [rsp+8], ecx
	push	rdi
	sub	rsp, 48					; 00000030H
	mov	rdi, rsp
	mov	ecx, 12
	mov	eax, -858993460				; ccccccccH
	rep stosd
	mov	ecx, DWORD PTR [rsp+64]

; 1677 :     if ( opnd2->is_type == FALSE ) {

	mov	rax, QWORD PTR opnd2$[rsp]
	mov	eax, DWORD PTR [rax+76]
	shr	eax, 3
	and	eax, 1
	test	eax, eax
	jne	SHORT $LN2@this_op

; 1678 :         return( fnEmitErr( INVALID_TYPE_EXPRESSION ) );

	mov	ecx, 179				; 000000b3H
	call	QWORD PTR fnEmitErr
	jmp	$LN1@this_op
$LN2@this_op:

; 1679 :     }
; 1680 :     /* v2.06: won't work inside structs */
; 1681 :     if ( CurrStruct ) {

	cmp	QWORD PTR CurrStruct, 0
	je	SHORT $LN3@this_op

; 1682 :         return( fnEmitErr( MUST_BE_IN_SEGMENT_BLOCK ) );

	mov	ecx, 82					; 00000052H
	call	QWORD PTR fnEmitErr
	jmp	$LN1@this_op
$LN3@this_op:

; 1683 :     }
; 1684 :     /* v2.06: won't work outside segments */
; 1685 :     if ( CurrSeg == NULL ) {

	cmp	QWORD PTR ModuleInfo+432, 0
	jne	SHORT $LN4@this_op

; 1686 :         return( EmitErr( MUST_BE_IN_SEGMENT_BLOCK ) ); /* error displayed even in EQU, hence EmitErr()! */

	mov	ecx, 82					; 00000052H
	call	EmitErr
	jmp	$LN1@this_op
$LN4@this_op:

; 1687 :     }
; 1688 : 
; 1689 :     if ( thissym == NULL ) {

	cmp	QWORD PTR thissym, 0
	jne	SHORT $LN5@this_op

; 1690 :         thissym = SymAlloc( "" );

	lea	rcx, OFFSET FLAT:$SG11681
	call	SymAlloc
	mov	QWORD PTR thissym, rax

; 1691 :         /* fixme: set thissym->variable? */
; 1692 :         thissym->state = SYM_INTERNAL;

	mov	rax, QWORD PTR thissym
	mov	DWORD PTR [rax+32], 1

; 1693 :         thissym->isdefined = TRUE;

	mov	rax, QWORD PTR thissym
	movzx	eax, BYTE PTR [rax+40]
	or	al, 2
	mov	rcx, QWORD PTR thissym
	mov	BYTE PTR [rcx+40], al
$LN5@this_op:

; 1694 :     }
; 1695 : 
; 1696 :     DebugMsg1(("this_op: memtype=%Xh type=%s\n", opnd2->mem_type, opnd2->type ? opnd2->type->name : "NULL" ));

	mov	rax, QWORD PTR opnd2$[rsp]
	cmp	QWORD PTR [rax+96], 0
	je	SHORT $LN9@this_op
	mov	rax, QWORD PTR opnd2$[rsp]
	mov	rax, QWORD PTR [rax+96]
	mov	rax, QWORD PTR [rax+8]
	mov	QWORD PTR tv87[rsp], rax
	jmp	SHORT $LN10@this_op
$LN9@this_op:
	lea	rax, OFFSET FLAT:$SG11682
	mov	QWORD PTR tv87[rsp], rax
$LN10@this_op:
	mov	r8, QWORD PTR tv87[rsp]
	mov	rax, QWORD PTR opnd2$[rsp]
	mov	edx, DWORD PTR [rax+64]
	lea	rcx, OFFSET FLAT:$SG11683
	call	DoDebugMsg1

; 1697 :     opnd1->kind = EXPR_ADDR;

	mov	rax, QWORD PTR opnd1$[rsp]
	mov	DWORD PTR [rax+60], 1

; 1698 : 
; 1699 :     /* v2.09: a label is not a valid argument */
; 1700 :     //if ( opnd2->sym && opnd2->sym->mem_type == MT_TYPE )
; 1701 :     //    thissym->type = opnd2->sym->type;
; 1702 :     /* v2.09: set structured type */
; 1703 :     thissym->type = opnd2->type;

	mov	rax, QWORD PTR thissym
	mov	rcx, QWORD PTR opnd2$[rsp]
	mov	rcx, QWORD PTR [rcx+96]
	mov	QWORD PTR [rax+80], rcx

; 1704 :     if ( opnd2->type ) {

	mov	rax, QWORD PTR opnd2$[rsp]
	cmp	QWORD PTR [rax+96], 0
	je	SHORT $LN6@this_op

; 1705 :         thissym->mem_type = MT_TYPE;

	mov	rax, QWORD PTR thissym
	mov	DWORD PTR [rax+36], 196			; 000000c4H

; 1706 :     } else

	jmp	SHORT $LN7@this_op
$LN6@this_op:

; 1707 :         thissym->mem_type = opnd2->mem_type;

	mov	rax, QWORD PTR thissym
	mov	rcx, QWORD PTR opnd2$[rsp]
	mov	ecx, DWORD PTR [rcx+64]
	mov	DWORD PTR [rax+36], ecx
$LN7@this_op:

; 1708 : 
; 1709 :     opnd1->sym  = thissym;

	mov	rax, QWORD PTR opnd1$[rsp]
	mov	rcx, QWORD PTR thissym
	mov	QWORD PTR [rax+80], rcx

; 1710 :     SetSymSegOfs( thissym );

	mov	rcx, QWORD PTR thissym
	call	SetSymSegOfs

; 1711 :     opnd1->mem_type = thissym->mem_type;

	mov	rax, QWORD PTR opnd1$[rsp]
	mov	rcx, QWORD PTR thissym
	mov	ecx, DWORD PTR [rcx+36]
	mov	DWORD PTR [rax+64], ecx

; 1712 :     return( NOT_ERROR );

	xor	eax, eax
$LN1@this_op:

; 1713 : }

	add	rsp, 48					; 00000030H
	pop	rdi
	ret	0
this_op	ENDP
_TEXT	ENDS
; Function compile flags: /Odtp /RTCsu
; File d:\hjwasm\hjwasm2.13.1s\hjwasm2.13.1s\expreval.c
_TEXT	SEGMENT
tv83 = 48
oper$ = 80
opnd1$ = 88
opnd2$ = 96
sym$ = 104
name$ = 112
high32_op PROC

; 1653 : {

	mov	QWORD PTR [rsp+32], r9
	mov	QWORD PTR [rsp+24], r8
	mov	QWORD PTR [rsp+16], rdx
	mov	DWORD PTR [rsp+8], ecx
	push	rdi
	sub	rsp, 64					; 00000040H
	mov	rdi, rsp
	mov	ecx, 16
	mov	eax, -858993460				; ccccccccH
	rep stosd
	mov	ecx, DWORD PTR [rsp+80]

; 1654 :     /* v2.06: added support for double constants */
; 1655 :     if ( opnd2->kind == EXPR_FLOAT ) {

	mov	rax, QWORD PTR opnd2$[rsp]
	cmp	DWORD PTR [rax+60], 3
	jne	$LN2@high32_op

; 1656 :         if ( Options.strict_masm_compat )

	movzx	eax, BYTE PTR Options+143
	test	eax, eax
	je	SHORT $LN3@high32_op

; 1657 :             return( ConstError( opnd1, opnd2 ) );

	mov	rdx, QWORD PTR opnd2$[rsp]
	mov	rcx, QWORD PTR opnd1$[rsp]
	call	ConstError
	jmp	$LN1@high32_op
$LN3@high32_op:

; 1658 :         atofloat( &opnd2->llvalue, opnd2->float_tok->string_ptr, sizeof( opnd2->llvalue), opnd2->negative, opnd2->float_tok->floattype );

	mov	rax, QWORD PTR opnd2$[rsp]
	mov	rax, QWORD PTR [rax+16]
	mov	rcx, QWORD PTR opnd2$[rsp]
	mov	ecx, DWORD PTR [rcx+76]
	shr	ecx, 5
	and	ecx, 1
	mov	rdx, QWORD PTR opnd2$[rsp]
	mov	rdx, QWORD PTR [rdx+16]
	mov	r8, QWORD PTR opnd2$[rsp]
	mov	QWORD PTR tv83[rsp], r8
	movzx	eax, BYTE PTR [rax+1]
	mov	BYTE PTR [rsp+32], al
	movzx	r9d, cl
	mov	r8d, 8
	mov	rdx, QWORD PTR [rdx+8]
	mov	rax, QWORD PTR tv83[rsp]
	mov	rcx, rax
	call	atofloat

; 1659 :         opnd2->kind = EXPR_CONST;

	mov	rax, QWORD PTR opnd2$[rsp]
	mov	DWORD PTR [rax+60], 0

; 1660 :         opnd2->float_tok = NULL;

	mov	rax, QWORD PTR opnd2$[rsp]
	mov	QWORD PTR [rax+16], 0
$LN2@high32_op:

; 1661 :     }
; 1662 :     TokenAssign( opnd1, opnd2 );

	mov	rdx, QWORD PTR opnd2$[rsp]
	mov	rcx, QWORD PTR opnd1$[rsp]
	call	TokenAssign

; 1663 :     if ( opnd2->kind == EXPR_ADDR && opnd2->instr != T_SEG ) {

	mov	rax, QWORD PTR opnd2$[rsp]
	cmp	DWORD PTR [rax+60], 1
	jne	SHORT $LN4@high32_op
	mov	rax, QWORD PTR opnd2$[rsp]
	cmp	DWORD PTR [rax+56], 244			; 000000f4H
	je	SHORT $LN4@high32_op

; 1664 :         opnd1->instr = T_HIGH32;

	mov	rax, QWORD PTR opnd1$[rsp]
	mov	DWORD PTR [rax+56], 231			; 000000e7H

; 1665 :         //opnd1->mem_type = MT_DWORD; /* v2.10: changed - also see change in parser.c, idata_fixup() */
; 1666 :         opnd1->mem_type = MT_EMPTY;

	mov	rax, QWORD PTR opnd1$[rsp]
	mov	DWORD PTR [rax+64], 192			; 000000c0H
$LN4@high32_op:

; 1667 :     }
; 1668 :     opnd1->llvalue = opnd1->llvalue >> 32;

	mov	rax, QWORD PTR opnd1$[rsp]
	mov	rax, QWORD PTR [rax]
	shr	rax, 32					; 00000020H
	mov	rcx, QWORD PTR opnd1$[rsp]
	mov	QWORD PTR [rcx], rax

; 1669 :     return( NOT_ERROR );

	xor	eax, eax
$LN1@high32_op:

; 1670 : }

	add	rsp, 64					; 00000040H
	pop	rdi
	ret	0
high32_op ENDP
_TEXT	ENDS
; Function compile flags: /Odtp /RTCsu
; File d:\hjwasm\hjwasm2.13.1s\hjwasm2.13.1s\expreval.c
_TEXT	SEGMENT
tv83 = 48
oper$ = 80
opnd1$ = 88
opnd2$ = 96
sym$ = 104
name$ = 112
low32_op PROC

; 1632 : {

	mov	QWORD PTR [rsp+32], r9
	mov	QWORD PTR [rsp+24], r8
	mov	QWORD PTR [rsp+16], rdx
	mov	DWORD PTR [rsp+8], ecx
	push	rdi
	sub	rsp, 64					; 00000040H
	mov	rdi, rsp
	mov	ecx, 16
	mov	eax, -858993460				; ccccccccH
	rep stosd
	mov	ecx, DWORD PTR [rsp+80]

; 1633 :     /* v2.06: added support for double constants */
; 1634 :     if ( opnd2->kind == EXPR_FLOAT ) {

	mov	rax, QWORD PTR opnd2$[rsp]
	cmp	DWORD PTR [rax+60], 3
	jne	$LN2@low32_op

; 1635 :         if ( Options.strict_masm_compat )

	movzx	eax, BYTE PTR Options+143
	test	eax, eax
	je	SHORT $LN3@low32_op

; 1636 :             return( ConstError( opnd1, opnd2 ) );

	mov	rdx, QWORD PTR opnd2$[rsp]
	mov	rcx, QWORD PTR opnd1$[rsp]
	call	ConstError
