; Listing generated by Microsoft (R) Optimizing Compiler Version 19.00.23026.0 

include listing.inc

INCLUDELIB LIBCMTD
INCLUDELIB OLDNAMES

_BSS	SEGMENT
$SG12396 DB	01H DUP (?)
	ALIGN	4

$SG11730 DB	01H DUP (?)
_BSS	ENDS
_DATA	SEGMENT
COMM	decoflags:BYTE
COMM	broadflags:BYTE
COMM	evex:BYTE
COMM	ZEROLOCALS:BYTE
_DATA	ENDS
_BSS	SEGMENT
	ALIGN	4

$SG11918 DB	01H DUP (?)
	ALIGN	4

$SG11939 DB	01H DUP (?)
	ALIGN	4

$SG11940 DB	01H DUP (?)
	ALIGN	4

$SG11952 DB	01H DUP (?)
	ALIGN	4

$SG11953 DB	01H DUP (?)
	ALIGN	4

evallvl	DD	01H DUP (?)
$SG11215 DB	01H DUP (?)
_BSS	ENDS
CONST	SEGMENT
unaryop	DQ	FLAT:low_op
	DQ	FLAT:high_op
	DQ	FLAT:lowword_op
	DQ	FLAT:highword_op
	DQ	FLAT:low32_op
	DQ	FLAT:high32_op
	DQ	FLAT:offset_op
	DQ	FLAT:offset_op
	DQ	FLAT:offset_op
	DQ	FLAT:offset_op
	DQ	FLAT:seg_op
	DQ	FLAT:opattr_op
	DQ	FLAT:opattr_op
	DQ	FLAT:sizlen_op
	DQ	FLAT:sizlen_op
	DQ	FLAT:sizlen_op
	DQ	FLAT:sizlen_op
	DQ	FLAT:short_op
	DQ	FLAT:this_op
	DQ	FLAT:type_op
	DQ	FLAT:wimask_op
	DQ	FLAT:wimask_op
CONST	ENDS
_DATA	SEGMENT
$SG12288 DB	'%u calculate(%s) exit, ok kind=%d value=%I64d(0x%I64X) m'
	DB	'emtype=0x%X indirect=%u type=>%s<', 0aH, 00H
	ORG $+5
$SG11264 DB	'%u get_operand: default (token=%u, string=%s)', 0aH, 00H
	ORG $+1
$SG12289 DB	'NULL', 00H
	ORG $+3
$SG12290 DB	'NULL', 00H
	ORG $+3
$SG12291 DB	'%u calculate(%s) exit, ok kind=%d value=%d(0x%X) memtype'
	DB	'=0x%X ind=%u exp=%u type=%s mbr=%s', 0aH, 00H
$SG11274 DB	'NULL', 00H
	ORG $+3
$SG11275 DB	'NULL', 00H
	ORG $+3
$SG11276 DB	'NULL', 00H
	ORG $+3
$SG11277 DB	'NULL', 00H
	ORG $+7
$SG11278 DB	'%u get_operand exit, ok, kind=%d value=%I64X hvalue=%I64'
	DB	'X mem_type=%Xh abs=%u string=%s is_type=%u type=>%s< sym=%s m'
	DB	'br=%s', 0aH, 00H
$SG12306 DB	'NULL', 00H
	ORG $+7
$SG12310 DB	'PrepareOp: implicit type: %s', 0aH, 00H
	ORG $+2
$SG12312 DB	'PrepareOp: forward ref to %s, type will be NULL', 0aH, 00H
	ORG $+7
$SG12307 DB	'PrepareOp: DOT operator found, old.sym=%X, old.type=%s, '
	DB	'expr=%s', 0aH, 00H
	ORG $+3
$SG12315 DB	'NULL', 00H
	ORG $+7
$SG12316 DB	'PrepareOp: OPATTR operator found, old.sym=%X, old.type=%'
	DB	's, expr=%s', 0aH, 00H
$SG12350 DB	'NULL', 00H
	ORG $+7
$SG12351 DB	'%u evaluate(i=%d, end=%d, flags=%X) enter [opnd1: kind=%'
	DB	'd type=%s]', 0aH, 00H
$SG12353 DB	'NULL', 00H
	ORG $+3
$SG11129 DB	'rn-sae', 00H
	ORG $+1
$SG11145 DB	'sae', 00H
$SG12354 DB	'%u evaluate loop, operator=>%s< opnd1->sym=%X, type=%s', 0aH
	DB	00H
$SG12362 DB	'%u evaluate: unexpected token at idx=%u, token=%X >%s<', 0aH
	DB	00H
$SG12372 DB	'%u evaluate: error, missing ''%c'', i=%u', 0aH, 00H
$SG12384 DB	'%u evaluate: unexpected token at %u, token=%X >%s<', 0aH
	DB	00H
$SG12392 DB	'NULL', 00H
	ORG $+3
$SG12393 DB	'NULL', 00H
	ORG $+3
$SG12395 DB	'NULL', 00H
	ORG $+7
$SG12394 DB	'%u evaluate exit, rc=%d, kind=%d value=%I64d(0x%I64X) me'
	DB	'mtype=%Xh string=%s indirect=%u type=>%s<', 0aH, 00H
	ORG $+1
$SG12397 DB	'NULL', 00H
	ORG $+7
$SG12398 DB	'%u evaluate exit, rc=%d, kind=%d value=%d(0x%X) memtype='
	DB	'%Xh string=%s ind=%u exp=%u ofssiz=%d instr=%s type=>%s<', 0aH
	DB	00H
	ORG $+2
$SG11405 DB	'NULL', 00H
	ORG $+3
$SG11133 DB	'rd-sae', 00H
	ORG $+1
$SG11221 DB	'@@', 00H
	ORG $+1
$SG11406 DB	'sizlen_op(%s): sym=%X, mbr=%X, type=>%s<', 0aH, 00H
	ORG $+2
$SG11137 DB	'ru-sae', 00H
	ORG $+5
$SG12435 DB	'EvalOperand(start=%u, end=%u, flags=%X) enter: >%s<', 0aH
	DB	00H
	ORG $+3
$SG11441 DB	'NULL', 00H
	ORG $+3
$SG11442 DB	'sizlen_op(SIZE): result=%u [symbol %s, first_size=%u]', 0aH
	DB	00H
	ORG $+1
$SG11446 DB	'sizlen_op(sizeof): symbol %s, state=%u, size=%u', 0aH, 00H
	ORG $+7
$SG11449 DB	'sizlen_op(sizeof): symbol %s (TYPE), opnd2.value=%u', 0aH
	DB	00H
	ORG $+3
$SG11450 DB	'sizlen_op(sizeof): symbol NULL, opnd2.value=%u', 0aH, 00H
$SG11475 DB	'NULL', 00H
	ORG $+3
$SG11476 DB	'NULL', 00H
	ORG $+3
$SG11495 DB	'type_op: assume type=%X [name=>%s< memtype=%X]', 0aH, 00H
$SG11516 DB	'NULL', 00H
	ORG $+3
$SG11477 DB	'type_op: opnd2 kind=%d memtype=%X sym=%s type=%s instr=%'
	DB	'd istype=%u explicit=%u', 0aH, 00H
	ORG $+7
$SG11517 DB	'type_op: result value=%u is_type=%u type=%s', 0aH, 00H
	ORG $+3
$SG11545 DB	'NULL', 00H
	ORG $+3
$SG11546 DB	'opattr_op: arg kind=%d memtype=%X sym=%s', 0aH, 00H
	ORG $+6
$SG11576 DB	'opattr_op returns %Xh', 0aH, 00H
	ORG $+1
$SG11731 DB	'NULL', 00H
	ORG $+3
$SG11732 DB	'this_op: memtype=%Xh type=%s', 0aH, 00H
	ORG $+2
$SG11785 DB	'NULL', 00H
	ORG $+3
$SG11786 DB	'NULL', 00H
	ORG $+3
$SG11787 DB	'NULL', 00H
	ORG $+3
$SG11788 DB	'NULL', 00H
	ORG $+3
$SG11789 DB	'NULL', 00H
	ORG $+3
$SG11790 DB	'NULL', 00H
	ORG $+3
$SG11791 DB	'plus_op: kind=%d/%d memtype=%Xh-%Xh value=%d-%d sym=%s-%'
	DB	's mbr=%s-%s type=%s-%s', 0aH, 00H
$SG11793 DB	'plus_op: error direct register', 0aH, 00H
$SG11799 DB	'plus_op: multiple overrides', 0aH, 00H
	ORG $+3
$SG11802 DB	'plus_op: CONST - CONST', 0aH, 00H
$SG11805 DB	'plus_op: ADDR - ADDR', 0aH, 00H
	ORG $+2
$SG11809 DB	'plus_op: two relocatable labels: %s - %s ', 0aH, 00H
	ORG $+5
$SG11817 DB	'plus_op: CONST - ADDR', 0aH, 00H
	ORG $+1
$SG11823 DB	'plus_op: ADDR - CONST', 0aH, 00H
	ORG $+1
$SG11827 DB	'plus_op: error, unexpected format: %u - %u', 0aH, 00H
	ORG $+4
$SG11841 DB	'minus_op: kind tok1=%u, tok2=%u', 0aH, 00H
	ORG $+7
$SG11843 DB	'minus_op: error direct register', 0aH, 00H
	ORG $+7
$SG11848 DB	'minus_op: CONST-CONST', 0aH, 00H
	ORG $+1
$SG11851 DB	'minus_op: ADDR-CONST', 0aH, 00H
	ORG $+2
$SG11854 DB	'minus_op: ADDR-ADDR', 0aH, 00H
	ORG $+3
$SG11856 DB	'minus_op error, opnd2->indirect==TRUE', 0aH, 00H
	ORG $+1
$SG11861 DB	'minus_op error, label_tok=%X opnd1.sym=%X opnd2.sym=%X', 0aH
	DB	00H
$SG11865 DB	'minus_op error 6', 0aH, 00H
	ORG $+6
$SG11867 DB	'minus_op error, sym.segm=%X opnd1->sym.segm=%X', 0aH, 00H
$SG11875 DB	'minus_op, exit, ADDR, base=%X, idx=%X', 0aH, 00H
	ORG $+1
$SG11878 DB	'minus_op, exit, error: kinds tok1=%u, tok2=%u', 0aH, 00H
	ORG $+1
$SG11904 DB	'NULL', 00H
	ORG $+3
$SG11905 DB	'NULL', 00H
	ORG $+3
$SG11906 DB	'NULL', 00H
	ORG $+3
$SG11907 DB	'NULL', 00H
	ORG $+3
$SG11908 DB	'NULL', 00H
	ORG $+3
$SG11909 DB	'NULL', 00H
	ORG $+3
$SG11910 DB	'dot_op: op1-op2 kind=%d/%d sym=%s-%s type=%s-%s mbr=%s-%'
	DB	's', 0aH, 00H
	ORG $+5
$SG11912 DB	'dot_op: error direct register', 0aH, 00H
	ORG $+1
$SG11916 DB	'dot_op: forward reference %s, replaced by null struct ty'
	DB	'pe', 0aH, 00H
$SG11921 DB	'NULL', 00H
	ORG $+3
$SG11922 DB	'NULL', 00H
	ORG $+7
$SG11923 DB	'dot_op, ADDR - ADDR, t1-t2 memtype=%X-%X sym=%s-%s', 0aH
	DB	00H
	ORG $+4
$SG11925 DB	'dot_op: error, mbr 2 is NULL', 0aH, 00H
	ORG $+2
$SG11929 DB	'dot_op: error, two relocatable labels: %s - %s ', 0aH, 00H
	ORG $+7
$SG11935 DB	'dot_op, CONST - ADDR: t1-t2 memtype=%Xh-%Xh istype=%u-%u'
	DB	0aH, 00H
	ORG $+6
$SG11941 DB	'dot_op, CONST - ADDR, t1.type=%X (%s), t2.type=%X (%s)', 0aH
	DB	00H
$SG11945 DB	'dot_op, ADDR - CONST: t1-t2 memtype=%Xh-%Xh t1.explicit='
	DB	'%u', 0aH, 00H
	ORG $+4
$SG11948 DB	'dot_op: error, constant or simple type after dot', 0aH, 00H
	ORG $+6
$SG11954 DB	'dot_op, ADDR - CONST, t1.type=%X (%s), t2.type=%X (%s)', 0aH
	DB	00H
$SG11957 DB	'dot_op, CONST - CONST, t1-t2 value=%u-%u, memtype=%Xh-%X'
	DB	'h istype=%u-%u', 0aH, 00H
$SG11959 DB	'dot_op: error, opnd2.mbr=NULL', 0aH, 00H
	ORG $+1
$SG11982 DB	'NULL', 00H
	ORG $+3
$SG11966 DB	'dot_op: error, unknown kind combination, opnd1->kind=%d,'
	DB	' opnd2->kind=%d', 0aH, 00H
	ORG $+3
$SG11983 DB	'NULL', 00H
	ORG $+7
$SG11984 DB	'colon_op: t1-t2 kind=%d/%d type=%s-%s is_type=%u-%u', 0aH
	DB	00H
	ORG $+3
$SG11989 DB	'colon_op: multiple override=%s', 0aH, 00H
$SG11992 DB	'colon_op: register after : not enclosed in []', 0aH, 00H
	ORG $+1
$SG11997 DB	'colon_op: register before '':'' has idx_reg set!?', 0aH, 00H
	ORG $+7
$SG12010 DB	'colon_op error 4', 0aH, 00H
	ORG $+6
$SG12011 DB	'colon_op error 5', 0aH, 00H
	ORG $+6
$SG12018 DB	'positive_op: value=%I64X high=%I64X', 0aH, 00H
	ORG $+3
$SG12023 DB	'positive_op: error 1', 0aH, 00H
	ORG $+2
$SG12030 DB	'negative_op: value=%I64X high=%I64X', 0aH, 00H
	ORG $+3
$SG12036 DB	'negative_op: unexpected opnd2.kind=%d', 0aH, 00H
	ORG $+1
$SG12047 DB	'CheckAssume(%s, MT_PTR type=>%s< )', 0aH, 00H
	ORG $+4
$SG11023 DB	'get_precedence: unexpected operator=%s', 0aH, 00H
$SG12053 DB	'NULL', 00H
	ORG $+3
$SG12054 DB	'NULL', 00H
	ORG $+3
$SG12055 DB	'NULL', 00H
	ORG $+3
$SG12056 DB	'NULL', 00H
	ORG $+3
$SG12088 DB	'cmp_types: memtype=%X-%X type=%X-%X', 0aH, 00H
	ORG $+3
$SG12057 DB	'CheckAssume(%s, type=>%s<, mbr=>%s<): assume=%s [memtype'
	DB	'=%X isptr=%u type=%s target_type=%s ptr_memt=%X]', 0aH, 00H
	ORG $+6
$SG12086 DB	'expreval.c', 00H
	ORG $+5
$SG12087 DB	'cmp_types: MT_PTR-MT_PTR is_ptr=%u-%u ptr_memtype=%X-%X '
	DB	'target_type=%X-%X', 0aH, 00H
	ORG $+5
$SG12125 DB	'%u calculate(%s): value too large', 0aH, 00H
	ORG $+5
$SG12130 DB	'%u calculate(%s): single item', 0aH, 00H
	ORG $+1
$SG12134 DB	'calculate(%s): incompatible usage of (simple) type', 0aH
	DB	00H
	ORG $+4
$SG12139 DB	'%u calculate(%s): single item', 0aH, 00H
	ORG $+1
$SG12141 DB	'calculate(%s): incompatible usage of (simple) type', 0aH
	DB	00H
	ORG $+4
$SG12143 DB	'calculate(%s): calling plus_op()', 0aH, 00H
	ORG $+6
$SG11121 DB	'%u get_operand(idx=%u >%s<) enter [memtype=%Xh]', 0aH, 00H
	ORG $+7
$SG11123 DB	'%u get_operand: T_NUM, %s, base=%u, len=%u', 0aH, 00H
	ORG $+4
$SG11125 DB	'%u get_operand: T_STRING, %s, size=%u', 0aH, 00H
	ORG $+1
$SG12156 DB	'calculate(*): kind=%d/%d value=%I64d-%I64d mbr=%X-%X', 0aH
	DB	00H
	ORG $+2
$SG12162 DB	'calculate(*) error direct register', 0aH, 00H
$SG11141 DB	'rz-sae', 00H
	ORG $+5
$SG12166 DB	'calculate(*) error 2', 0aH, 00H
	ORG $+2
$SG12168 DB	'calculate(/): t1-t2 kind %u-%u values %I64d-%I64d', 0aH, 00H
	ORG $+5
$SG12170 DB	'calculate(/) error 1', 0aH, 00H
	ORG $+2
$SG12172 DB	'calculate(/) error 2', 0aH, 00H
	ORG $+2
$SG12174 DB	'NULL', 00H
	ORG $+3
$SG12175 DB	'NULL', 00H
	ORG $+3
$SG12176 DB	'NULL', 00H
	ORG $+3
$SG11152 DB	'%u get_operand: T_REG, string=%s, tokval=%u, regno=%u', 0aH
	DB	00H
	ORG $+1
$SG12177 DB	'NULL', 00H
	ORG $+3
$SG12178 DB	'calculate(%s [T_BINARY_OPERATOR] ): t1-t2 kind %d/%d mem'
	DB	'type %X-%X sym %s-%s type %s-%s', 0aH, 00H
	ORG $+7
$SG12183 DB	'calculate(PTR), error 1: t1 is_type == FALSE', 0aH, 00H
	ORG $+2
$SG12190 DB	'calculate(PTR): segment register size (=2/4) doesn''t ma'
	DB	'tch type size (=%u)', 0aH, 00H
	ORG $+4
$SG12192 DB	'calculate(PTR): register size doesn''t match type size; '
	DB	'%u != %u', 0aH, 00H
	ORG $+3
$SG11170 DB	'NULL', 00H
	ORG $+7
$SG12195 DB	'calculate(PTR): type memtype=%Xh ( MT_FLOAT not set, alt'
	DB	'hough right op is FLOAT )', 0aH, 00H
	ORG $+5
$SG11171 DB	'%u get_operand: T_ID, is_dot=1, id=%s, opnd.type=%s', 0aH
	DB	00H
	ORG $+3
$SG11172 DB	'NULL', 00H
	ORG $+3
$SG11173 DB	'get_operand(%s): is_dot, sym=%s, offset=%Xh', 0aH, 00H
	ORG $+3
$SG12208 DB	'calculate(%s) error 1', 0aH, 00H
	ORG $+1
$SG12209 DB	'NULL', 00H
	ORG $+3
$SG11185 DB	'%u get_operand: T_ID, id=%s', 0aH, 00H
	ORG $+3
$SG12210 DB	'calculate(%s) error 2, token2.kind=%d indirect=%u sym=%s'
	DB	0aH, 00H
	ORG $+6
$SG12211 DB	'calculate(%s) error 3', 0aH, 00H
	ORG $+1
$SG12212 DB	'calculate(%s) error 4', 0aH, 00H
	ORG $+1
$SG11200 DB	'get_operand(%s): symbol is macro/textmacro/alias!', 0aH, 00H
	ORG $+5
$SG12213 DB	'calculate(%s): values=%I64d/%I64d is_type=%u/%u memtypes'
	DB	'=%X/%X', 0aH, 00H
$SG11197 DB	'get_operand(%s): OPATTR, symbol invalid', 0aH, 00H
	ORG $+7
$SG12228 DB	'calculate(SHL): value=%I64X << %u (max=%u)', 0aH, 00H
$SG11206 DB	'NULL', 00H
	ORG $+7
$SG11207 DB	'get_operand(%s): symbol not (yet) defined, CurrProc=%s', 0aH
	DB	00H
$SG11210 DB	'NULL', 00H
	ORG $+3
$SG11211 DB	'get_operand(%s): symbol error (type=%s typekind=%u)', 0aH
	DB	00H
	ORG $+3
$SG11216 DB	'get_operand(%s): forward reference to a struct (using nu'
	DB	'llmbr)', 0aH, 00H
$SG11217 DB	'NULL', 00H
	ORG $+3
$SG12243 DB	'NULL', 00H
	ORG $+3
$SG11218 DB	'get_operand(%s): symbol %s not defined, pass > 1, curr p'
	DB	'roc=>%s<, ', 0aH, 00H
$SG12244 DB	'NULL', 00H
	ORG $+3
$SG12245 DB	'NULL', 00H
	ORG $+3
$SG11223 DB	'NULL', 00H
	ORG $+7
$SG12246 DB	'calculate(%s [T_UNARY_OPERATOR]): opnd2 kind=%d sym=%s m'
	DB	'br=%s type=%s memtype=%X is_type=%u indirect=%u', 0aH, 00H
	ORG $+7
$SG11224 DB	'get_operand(%s): sym->state=%u type=>%s< ofs=%X memtype='
	DB	'%Xh total_size=%u defined=%u', 0aH, 00H
	ORG $+2
$SG12249 DB	'calculate(%s) error 1', 0aH, 00H
	ORG $+1
$SG11227 DB	'get_operand(%s): struct/union definition isn''t closed!', 0aH
	DB	00H
$SG11237 DB	'NULL', 00H
	ORG $+3
$SG11228 DB	'get_operand(%s): symbol.typekind=%u (STRUCT/UNION/TYPEDE'
	DB	'F/RECORD)', 0aH, 00H
	ORG $+5
$SG11236 DB	'get_operand(%s): structure field, ofs=%Xh', 0aH, 00H
	ORG $+5
$SG11238 DB	'get_operand: mem_type=%Xh type=%s', 0aH, 00H
	ORG $+5
$SG11243 DB	'get_operand(%s): equate hval=%Xh, lval=%Xh', 0aH, 00H
	ORG $+4
$SG12277 DB	'calculate %s ''float'' error', 0aH, 00H
	ORG $+4
$SG11253 DB	'%u get_operand: T_STYPE (>%s<, value=%X)', 0aH, 00H
	ORG $+6
$SG11255 DB	'%u get_operand: T_RES_ID (>%s<, value=%X)', 0aH, 00H
	ORG $+5
$SG12280 DB	'calculate(%s): unknown operator', 0aH, 00H
	ORG $+3
$SG12283 DB	'NULL', 00H
	ORG $+7
$SG12284 DB	'%u calculate(%s) exit, ok kind=%d value=0x%I64X_%016I64X'
	DB	' memtype=0x%X indirect=%u type=>%s<', 0aH, 00H
	ORG $+3
$SG11262 DB	'%u get_operand: T_FLOAT (>%s<)', 0aH, 00H
$SG12287 DB	'NULL', 00H
_DATA	ENDS
PUBLIC	EvalOperand
PUBLIC	ExprEvalInit
PUBLIC	EmitConstError
PUBLIC	myatoi128
EXTRN	isalpha:PROC
EXTRN	memcmp:PROC
EXTRN	memcpy:PROC
EXTRN	strlen:PROC
EXTRN	_strupr:PROC
EXTRN	DoDebugMsg:PROC
EXTRN	DoDebugMsg1:PROC
EXTRN	EmitError:PROC
EXTRN	EmitErr:PROC
EXTRN	SymAlloc:PROC
EXTRN	SymLookup:PROC
EXTRN	SymFind:PROC
EXTRN	SizeFromMemtype:PROC
EXTRN	MemtypeFromSize:PROC
EXTRN	SizeFromRegister:PROC
EXTRN	sym_add_table:PROC
EXTRN	GetResWName:PROC
EXTRN	SetSymSegOfs:PROC
EXTRN	GetSymOfssize:PROC
EXTRN	DefineFlatGroup:PROC
EXTRN	GetStdAssumeEx:PROC
EXTRN	CreateTypeSymbol:PROC
EXTRN	SearchNameInStruct:PROC
EXTRN	GetAnonymousLabel:PROC
EXTRN	atofloat:PROC
EXTRN	InternalError:PROC
EXTRN	__GSHandlerCheck:PROC
EXTRN	__security_check_cookie:PROC
EXTRN	Options:BYTE
EXTRN	ModuleInfo:BYTE
EXTRN	Parse_Pass:DWORD
EXTRN	SymTables:BYTE
EXTRN	SpecialTable:BYTE
EXTRN	CurrProc:QWORD
EXTRN	CurrStruct:QWORD
EXTRN	__ImageBase:BYTE
EXTRN	__security_cookie:QWORD
_BSS	SEGMENT
	ALIGN	8

thissym	DQ	01H DUP (?)
nullstruct DQ	01H DUP (?)
nullmbr	DQ	01H DUP (?)
fnEmitErr DQ	01H DUP (?)
_BSS	ENDS
pdata	SEGMENT
$pdata$EvalOperand DD imagerel $LN9
	DD	imagerel $LN9+269
	DD	imagerel $unwind$EvalOperand
$pdata$EmitConstError DD imagerel $LN5
	DD	imagerel $LN5+78
	DD	imagerel $unwind$EmitConstError
$pdata$TokenAssign DD imagerel TokenAssign
	DD	imagerel TokenAssign+40
	DD	imagerel $unwind$TokenAssign
$pdata$get_precedence DD imagerel get_precedence
	DD	imagerel get_precedence+356
	DD	imagerel $unwind$get_precedence
$pdata$GetTypeSize DD imagerel GetTypeSize
	DD	imagerel GetTypeSize+180
	DD	imagerel $unwind$GetTypeSize
$pdata$GetRecordMask DD imagerel GetRecordMask
	DD	imagerel GetRecordMask+164
	DD	imagerel $unwind$GetRecordMask
$pdata$myatoi128 DD imagerel $LN12
	DD	imagerel $LN12+342
	DD	imagerel $unwind$myatoi128
$pdata$get_operand DD imagerel get_operand
	DD	imagerel get_operand+7336
	DD	imagerel $unwind$get_operand
$pdata$index_connect DD imagerel index_connect
	DD	imagerel index_connect+282
	DD	imagerel $unwind$index_connect
$pdata$MakeConst2 DD imagerel MakeConst2
	DD	imagerel MakeConst2+233
	DD	imagerel $unwind$MakeConst2
$pdata$ConstError DD imagerel ConstError
	DD	imagerel ConstError+92
	DD	imagerel $unwind$ConstError
$pdata$GetSizeValue DD imagerel GetSizeValue
	DD	imagerel GetSizeValue+131
	DD	imagerel $unwind$GetSizeValue
$pdata$invalid_operand DD imagerel invalid_operand
	DD	imagerel invalid_operand+76
	DD	imagerel $unwind$invalid_operand
$pdata$sizlen_op DD imagerel sizlen_op
	DD	imagerel sizlen_op+1425
	DD	imagerel $unwind$sizlen_op
$pdata$type_op DD imagerel type_op
	DD	imagerel type_op+2228
	DD	imagerel $unwind$type_op
$pdata$opattr_op DD imagerel opattr_op
	DD	imagerel opattr_op+1241
	DD	imagerel $unwind$opattr_op
$pdata$short_op DD imagerel short_op
	DD	imagerel short_op+123
	DD	imagerel $unwind$short_op
$pdata$seg_op DD imagerel seg_op
	DD	imagerel seg_op+150
	DD	imagerel $unwind$seg_op
$pdata$offset_op DD imagerel offset_op
	DD	imagerel offset_op+251
	DD	imagerel $unwind$offset_op
$pdata$lowword_op DD imagerel lowword_op
	DD	imagerel lowword_op+116
	DD	imagerel $unwind$lowword_op
$pdata$highword_op DD imagerel highword_op
	DD	imagerel highword_op+119
	DD	imagerel $unwind$highword_op
$pdata$low_op DD imagerel low_op
	DD	imagerel low_op+116
	DD	imagerel $unwind$low_op
$pdata$high_op DD imagerel high_op
	DD	imagerel high_op+133
	DD	imagerel $unwind$high_op
$pdata$low32_op DD imagerel low32_op
	DD	imagerel low32_op+266
	DD	imagerel $unwind$low32_op
$pdata$high32_op DD imagerel high32_op
	DD	imagerel high32_op+262
	DD	imagerel $unwind$high32_op
$pdata$this_op DD imagerel this_op
	DD	imagerel this_op+374
	DD	imagerel $unwind$this_op
$pdata$wimask_op DD imagerel wimask_op
	DD	imagerel wimask_op+417
	DD	imagerel $unwind$wimask_op
$pdata$plus_op DD imagerel plus_op
	DD	imagerel plus_op+1879
	DD	imagerel $unwind$plus_op
$pdata$minus_op DD imagerel minus_op
	DD	imagerel minus_op+1297
	DD	imagerel $unwind$minus_op
$pdata$struct_field_error DD imagerel struct_field_error
	DD	imagerel struct_field_error+59
	DD	imagerel $unwind$struct_field_error
$pdata$dot_op DD imagerel dot_op
	DD	imagerel dot_op+3205
	DD	imagerel $unwind$dot_op
$pdata$colon_op DD imagerel colon_op
	DD	imagerel colon_op+1160
	DD	imagerel $unwind$colon_op
$pdata$positive_op DD imagerel positive_op
	DD	imagerel positive_op+230
	DD	imagerel $unwind$positive_op
$pdata$negative_op DD imagerel negative_op
	DD	imagerel negative_op+323
	DD	imagerel $unwind$negative_op
$pdata$CheckAssume DD imagerel CheckAssume
	DD	imagerel CheckAssume+832
	DD	imagerel $unwind$CheckAssume
$pdata$check_streg DD imagerel check_streg
	DD	imagerel check_streg+104
	DD	imagerel $unwind$check_streg
$pdata$cmp_types DD imagerel cmp_types
	DD	imagerel cmp_types+806
	DD	imagerel $unwind$cmp_types
$pdata$calculate DD imagerel calculate
	DD	imagerel calculate+7220
	DD	imagerel $unwind$calculate
$pdata$PrepareOp DD imagerel PrepareOp
	DD	imagerel PrepareOp+530
	DD	imagerel $unwind$PrepareOp
$pdata$OperErr DD imagerel OperErr
	DD	imagerel OperErr+84
	DD	imagerel $unwind$OperErr
$pdata$evaluate DD imagerel evaluate
	DD	imagerel evaluate+3332
	DD	imagerel $unwind$evaluate
$pdata$is_expr_item DD imagerel is_expr_item
	DD	imagerel is_expr_item+436
	DD	imagerel $unwind$is_expr_item
pdata	ENDS
xdata	SEGMENT
$unwind$EvalOperand DD 011801H
	DD	08218H
$unwind$EmitConstError DD 010901H
	DD	04209H
$unwind$TokenAssign DD 010e01H
	DD	0420eH
$unwind$get_precedence DD 010901H
	DD	06209H
$unwind$GetTypeSize DD 010c01H
	DD	0220cH
$unwind$GetRecordMask DD 010901H
	DD	04209H
$unwind$myatoi128 DD 011801H
	DD	04218H
$unwind$get_operand DD 022d19H
	DD	029011bH
	DD	imagerel __GSHandlerCheck
	DD	0130H
$unwind$index_connect DD 010e01H
	DD	0420eH
$unwind$MakeConst2 DD 010e01H
	DD	0420eH
$unwind$ConstError DD 010e01H
	DD	0420eH
$unwind$GetSizeValue DD 010901H
	DD	06209H
$unwind$invalid_operand DD 011301H
	DD	04213H
$unwind$sizlen_op DD 011701H
	DD	0c217H
$unwind$type_op DD 011701H
	DD	0e217H
$unwind$opattr_op DD 011701H
	DD	06217H
$unwind$short_op DD 011701H
	DD	04217H
$unwind$seg_op DD 011701H
	DD	04217H
$unwind$offset_op DD 011701H
	DD	04217H
$unwind$lowword_op DD 011701H
	DD	04217H
$unwind$highword_op DD 011701H
	DD	04217H
$unwind$low_op DD 011701H
	DD	04217H
$unwind$high_op DD 011701H
	DD	04217H
$unwind$low32_op DD 011701H
	DD	08217H
$unwind$high32_op DD 011701H
	DD	08217H
$unwind$this_op DD 011701H
	DD	06217H
$unwind$wimask_op DD 011701H
	DD	08217H
$unwind$plus_op DD 021101H
	DD	0150111H
$unwind$minus_op DD 010e01H
	DD	0620eH
$unwind$struct_field_error DD 010901H
	DD	04209H
$unwind$dot_op DD 021101H
	DD	0170111H
$unwind$colon_op DD 010e01H
	DD	0c20eH
$unwind$positive_op DD 010e01H
	DD	0420eH
$unwind$negative_op DD 010e01H
	DD	0420eH
$unwind$CheckAssume DD 020c01H
	DD	013010cH
$unwind$check_streg DD 010e01H
	DD	0420eH
$unwind$cmp_types DD 011301H
	DD	0e213H
$unwind$calculate DD 021601H
	DD	0250116H
$unwind$PrepareOp DD 011301H
	DD	08213H
$unwind$OperErr DD 010d01H
	DD	0420dH
$unwind$evaluate DD 021b01H
	DD	029011bH
$unwind$is_expr_item DD 010901H
	DD	02209H
xdata	ENDS
; Function compile flags: /Odtp
; File d:\hjwasm\hjwasm2.13.1s\hjwasm2.13.1s\expreval.c
_TEXT	SEGMENT
tv66 = 0
tv68 = 4
tv88 = 8
tv148 = 12
item$ = 32
is_expr_item PROC

; 3394 : {

	mov	QWORD PTR [rsp+8], rcx
	sub	rsp, 24

; 3395 :     switch( item->token ) {

	mov	rax, QWORD PTR item$[rsp]
	movzx	eax, BYTE PTR [rax]
	mov	BYTE PTR tv66[rsp], al
	cmp	BYTE PTR tv66[rsp], 1
	je	SHORT $LN6@is_expr_it
	cmp	BYTE PTR tv66[rsp], 3
	je	$LN13@is_expr_it
	cmp	BYTE PTR tv66[rsp], 7
	je	$LN11@is_expr_it
	cmp	BYTE PTR tv66[rsp], 44			; 0000002cH
	je	$LN15@is_expr_it
	jmp	$LN2@is_expr_it
$LN6@is_expr_it:

; 3396 :     case T_INSTRUCTION:
; 3397 :         switch( item->tokval ) {

	mov	rax, QWORD PTR item$[rsp]
	mov	eax, DWORD PTR [rax+16]
	mov	DWORD PTR tv68[rsp], eax
	mov	eax, DWORD PTR tv68[rsp]
	sub	eax, 506				; 000001faH
	mov	DWORD PTR tv68[rsp], eax
	cmp	DWORD PTR tv68[rsp], 75			; 0000004bH
	ja	SHORT $LN4@is_expr_it
	mov	eax, DWORD PTR tv68[rsp]
	lea	rcx, OFFSET FLAT:__ImageBase
	movzx	eax, BYTE PTR $LN19@is_expr_it[rcx+rax]
	mov	eax, DWORD PTR $LN20@is_expr_it[rcx+rax*4]
	add	rax, rcx
	jmp	rax
$LN7@is_expr_it:

; 3398 :         case T_SHL:
; 3399 :         case T_SHR:
; 3400 :             item->token = T_BINARY_OPERATOR;

	mov	rax, QWORD PTR item$[rsp]
	mov	BYTE PTR [rax], 5

; 3401 :             item->precedence = 8;

	mov	rax, QWORD PTR item$[rsp]
	mov	BYTE PTR [rax+1], 8

; 3402 :             return( TRUE );

	mov	al, 1
	jmp	$LN1@is_expr_it
$LN8@is_expr_it:

; 3403 :         case T_NOT:
; 3404 :             item->token = T_UNARY_OPERATOR;

	mov	rax, QWORD PTR item$[rsp]
	mov	BYTE PTR [rax], 4

; 3405 :             item->precedence = 11;

	mov	rax, QWORD PTR item$[rsp]
	mov	BYTE PTR [rax+1], 11

; 3406 :             return( TRUE );

	mov	al, 1
	jmp	$LN1@is_expr_it
$LN9@is_expr_it:

; 3407 :         case T_AND:
; 3408 :             item->token = T_BINARY_OPERATOR;

	mov	rax, QWORD PTR item$[rsp]
	mov	BYTE PTR [rax], 5

; 3409 :             item->precedence = 12;

	mov	rax, QWORD PTR item$[rsp]
	mov	BYTE PTR [rax+1], 12

; 3410 :             return( TRUE );

	mov	al, 1
	jmp	$LN1@is_expr_it
$LN10@is_expr_it:

; 3411 :         case T_OR:
; 3412 :         case T_XOR:
; 3413 :             item->token = T_BINARY_OPERATOR;

	mov	rax, QWORD PTR item$[rsp]
	mov	BYTE PTR [rax], 5

; 3414 :             item->precedence = 13;

	mov	rax, QWORD PTR item$[rsp]
	mov	BYTE PTR [rax+1], 13

; 3415 :             return( TRUE );

	mov	al, 1
	jmp	SHORT $LN1@is_expr_it
$LN4@is_expr_it:

; 3416 :         }
; 3417 :         return( FALSE );

	xor	al, al
	jmp	SHORT $LN1@is_expr_it
$LN11@is_expr_it:

; 3418 :     case T_RES_ID:
; 3419 :         if ( item->tokval == T_DUP ) /* DUP must terminate the expression */

	mov	rax, QWORD PTR item$[rsp]
	cmp	DWORD PTR [rax+16], 259			; 00000103H
	jne	SHORT $LN12@is_expr_it

; 3420 :             return( FALSE );

	xor	al, al
	jmp	SHORT $LN1@is_expr_it
$LN12@is_expr_it:

; 3421 :         break;

	jmp	SHORT $LN2@is_expr_it
$LN13@is_expr_it:

; 3422 :     case T_DIRECTIVE:
; 3423 :         /* PROC is converted to a type */
; 3424 :         if ( item->tokval == T_PROC ) {

	mov	rax, QWORD PTR item$[rsp]
	cmp	DWORD PTR [rax+16], 433			; 000001b1H
	jne	SHORT $LN14@is_expr_it

; 3425 :             item->token = T_STYPE;

	mov	rax, QWORD PTR item$[rsp]
	mov	BYTE PTR [rax], 6

; 3426 :             /* v2.06: avoid to use ST_PROC */
; 3427 :             //item->bytval = ST_PROC;
; 3428 :             item->tokval = ( ( SIZE_CODEPTR & ( 1 << ModuleInfo.model ) ) ? T_FAR : T_NEAR );

	mov	eax, DWORD PTR ModuleInfo+360
	mov	ecx, 1
	mov	DWORD PTR tv148[rsp], ecx
	movzx	ecx, al
	mov	eax, DWORD PTR tv148[rsp]
	shl	eax, cl
	and	eax, 112				; 00000070H
	test	eax, eax
	je	SHORT $LN17@is_expr_it
	mov	DWORD PTR tv88[rsp], 222		; 000000deH
	jmp	SHORT $LN18@is_expr_it
$LN17@is_expr_it:
	mov	DWORD PTR tv88[rsp], 221		; 000000ddH
$LN18@is_expr_it:
	mov	rax, QWORD PTR item$[rsp]
	mov	ecx, DWORD PTR tv88[rsp]
	mov	DWORD PTR [rax+16], ecx

; 3429 :             return( TRUE );

	mov	al, 1
	jmp	SHORT $LN1@is_expr_it
$LN14@is_expr_it:
$LN15@is_expr_it:

; 3430 :         }
; 3431 :         /* fall through. Other directives will end the expression */
; 3432 :     case T_COMMA:
; 3433 :     //case T_FLOAT: /* v2.05: floats are now handled */
; 3434 :     //case T_QUESTION_MARK: /* v2.08: no need to be handled here */
; 3435 :         return( FALSE );

	xor	al, al
	jmp	SHORT $LN1@is_expr_it
$LN2@is_expr_it:

; 3436 :     }
; 3437 :     return( TRUE );

	mov	al, 1
$LN1@is_expr_it:

; 3438 : }

	add	rsp, 24
	ret	0
	npad	1
$LN20@is_expr_it:
	DD	$LN10@is_expr_it
	DD	$LN9@is_expr_it
	DD	$LN7@is_expr_it
	DD	$LN8@is_expr_it
	DD	$LN4@is_expr_it
$LN19@is_expr_it:
	DB	0
	DB	4
	DB	4
	DB	1
	DB	4
	DB	0
	DB	4
	DB	4
	DB	4
	DB	4
	DB	4
	DB	4
	DB	4
	DB	2
	DB	2
	DB	4
	DB	4
	DB	4
	DB	4
	DB	4
	DB	4
	DB	4
	DB	4
	DB	4
	DB	4
	DB	4
	DB	4
	DB	4
	DB	4
	DB	4
	DB	4
	DB	4
	DB	4
	DB	4
	DB	4
	DB	4
	DB	4
	DB	4
	DB	4
	DB	4
	DB	4
	DB	4
	DB	4
	DB	4
	DB	4
	DB	4
	DB	4
	DB	4
	DB	4
	DB	4
	DB	4
	DB	4
	DB	4
	DB	4
	DB	4
	DB	4
	DB	4
	DB	4
	DB	4
	DB	4
	DB	4
	DB	4
	DB	4
	DB	4
	DB	4
	DB	4
	DB	4
	DB	4
	DB	4
	DB	4
	DB	4
	DB	4
	DB	4
	DB	4
	DB	4
	DB	3
is_expr_item ENDP
_TEXT	ENDS
; Function compile flags: /Odtp
; File d:\hjwasm\hjwasm2.13.1s\hjwasm2.13.1s\expreval.c
_TEXT	SEGMENT
curr_operator$1 = 112
rc$ = 116
exp_token$2 = 120
tv274 = 124
tv428 = 128
tv506 = 132
tv549 = 136
tv68 = 144
tv166 = 152
tv485 = 160
tv494 = 168
tv513 = 176
tv521 = 184
tv537 = 192
opnd2$3 = 208
opnd1$ = 336
i$ = 344
tokenarray$ = 352
end$ = 360
flags$ = 368
evaluate PROC

; 3228 : {

	mov	DWORD PTR [rsp+32], r9d
	mov	QWORD PTR [rsp+24], r8
	mov	QWORD PTR [rsp+16], rdx
	mov	QWORD PTR [rsp+8], rcx
	sub	rsp, 328				; 00000148H

; 3229 :     ret_code rc = NOT_ERROR;

	mov	DWORD PTR rc$[rsp], 0

; 3230 :     unsigned char c;
; 3231 :     char *p;
; 3232 :     DebugMsg1(("%u evaluate(i=%d, end=%d, flags=%X) enter [opnd1: kind=%d type=%s]\n",

	mov	rax, QWORD PTR opnd1$[rsp]
	cmp	QWORD PTR [rax+96], 0
	je	SHORT $LN44@evaluate
	mov	rax, QWORD PTR opnd1$[rsp]
	mov	rax, QWORD PTR [rax+96]
	mov	rax, QWORD PTR [rax+8]
	mov	QWORD PTR tv68[rsp], rax
	jmp	SHORT $LN45@evaluate
$LN44@evaluate:
	lea	rax, OFFSET FLAT:$SG12350
	mov	QWORD PTR tv68[rsp], rax
$LN45@evaluate:
	mov	eax, DWORD PTR evallvl
	inc	eax
	mov	DWORD PTR evallvl, eax
	movzx	eax, BYTE PTR flags$[rsp]
	mov	rcx, QWORD PTR tv68[rsp]
	mov	QWORD PTR [rsp+48], rcx
	mov	rcx, QWORD PTR opnd1$[rsp]
	mov	ecx, DWORD PTR [rcx+60]
	mov	DWORD PTR [rsp+40], ecx
	mov	DWORD PTR [rsp+32], eax
	mov	r9d, DWORD PTR end$[rsp]
	mov	rax, QWORD PTR i$[rsp]
	mov	r8d, DWORD PTR [rax]
	mov	edx, DWORD PTR evallvl
	lea	rcx, OFFSET FLAT:$SG12351
	call	DoDebugMsg1

; 3233 :                ++evallvl, *i, end, flags, opnd1->kind, opnd1->type ? opnd1->type->name : "NULL" ));
; 3234 : 
; 3235 :     /* v2.07: this function has been "simplified".
; 3236 :      * it's ensured now that if any operator is involved
; 3237 :      * - including () and [] - then calculate() will be called.
; 3238 :      * v2.10: removed the 'return( ERROR )' branches, to make
; 3239 :      * OPATTR work better.
; 3240 :      * v2.10: loop changed from 'do {} while' to 'while () {}'.
; 3241 :      * v2.10: 'flags' argument contains "inside []" information.
; 3242 :      */
; 3243 : 
; 3244 :     /*
; 3245 :      * First token may be either an unary operator or an operand
; 3246 :      */
; 3247 :     if ( opnd1->kind == EXPR_EMPTY &&  !is_unary_op( tokenarray[*i].token ) ) {

	mov	rax, QWORD PTR opnd1$[rsp]
	cmp	DWORD PTR [rax+60], -2
	jne	$LN8@evaluate
	mov	rax, QWORD PTR i$[rsp]
	movsxd	rax, DWORD PTR [rax]
	imul	rax, rax, 32				; 00000020H
	mov	rcx, QWORD PTR tokenarray$[rsp]
	movzx	eax, BYTE PTR [rcx+rax]
	cmp	eax, 40					; 00000028H
	je	$LN8@evaluate
	mov	rax, QWORD PTR i$[rsp]
	movsxd	rax, DWORD PTR [rax]
	imul	rax, rax, 32				; 00000020H
	mov	rcx, QWORD PTR tokenarray$[rsp]
	movzx	eax, BYTE PTR [rcx+rax]
	cmp	eax, 91					; 0000005bH
	je	$LN8@evaluate
	mov	rax, QWORD PTR i$[rsp]
	movsxd	rax, DWORD PTR [rax]
	imul	rax, rax, 32				; 00000020H
	mov	rcx, QWORD PTR tokenarray$[rsp]
	movzx	eax, BYTE PTR [rcx+rax]
	cmp	eax, 43					; 0000002bH
	je	SHORT $LN8@evaluate
	mov	rax, QWORD PTR i$[rsp]
	movsxd	rax, DWORD PTR [rax]
	imul	rax, rax, 32				; 00000020H
	mov	rcx, QWORD PTR tokenarray$[rsp]
	movzx	eax, BYTE PTR [rcx+rax]
	cmp	eax, 45					; 0000002dH
	je	SHORT $LN8@evaluate
	mov	rax, QWORD PTR i$[rsp]
	movsxd	rax, DWORD PTR [rax]
	imul	rax, rax, 32				; 00000020H
	mov	rcx, QWORD PTR tokenarray$[rsp]
	movzx	eax, BYTE PTR [rcx+rax]
	cmp	eax, 4
	je	SHORT $LN8@evaluate

; 3248 :         rc = get_operand( opnd1, i, tokenarray, flags );

	movzx	r9d, BYTE PTR flags$[rsp]
	mov	r8, QWORD PTR tokenarray$[rsp]
	mov	rdx, QWORD PTR i$[rsp]
	mov	rcx, QWORD PTR opnd1$[rsp]
	call	get_operand
	mov	DWORD PTR rc$[rsp], eax
$LN8@evaluate:
$LN2@evaluate:

; 3249 :     }
; 3250 :     /* now handle operators. */
; 3251 :     while ( rc == NOT_ERROR && *i < end && !IsCurrToken( T_CL_BRACKET ) && !IsCurrToken( T_CL_SQ_BRACKET ) ) {

	cmp	DWORD PTR rc$[rsp], 0
	jne	$LN3@evaluate
	mov	rax, QWORD PTR i$[rsp]
	mov	ecx, DWORD PTR end$[rsp]
	cmp	DWORD PTR [rax], ecx
	jge	$LN3@evaluate
	mov	rax, QWORD PTR i$[rsp]
	movsxd	rax, DWORD PTR [rax]
	imul	rax, rax, 32				; 00000020H
	mov	rcx, QWORD PTR tokenarray$[rsp]
	movzx	eax, BYTE PTR [rcx+rax]
	cmp	eax, 41					; 00000029H
	je	$LN3@evaluate
	mov	rax, QWORD PTR i$[rsp]
	movsxd	rax, DWORD PTR [rax]
	imul	rax, rax, 32				; 00000020H
	mov	rcx, QWORD PTR tokenarray$[rsp]
	movzx	eax, BYTE PTR [rcx+rax]
	cmp	eax, 93					; 0000005dH
	je	$LN3@evaluate

; 3252 : 
; 3253 :         int curr_operator;
; 3254 :         struct expr opnd2;
; 3255 : 
; 3256 :         curr_operator = *i;

	mov	rax, QWORD PTR i$[rsp]
	mov	eax, DWORD PTR [rax]
	mov	DWORD PTR curr_operator$1[rsp], eax

; 3257 :         DebugMsg1(("%u evaluate loop, operator=>%s< opnd1->sym=%X, type=%s\n",

	mov	rax, QWORD PTR opnd1$[rsp]
	cmp	QWORD PTR [rax+96], 0
	je	SHORT $LN46@evaluate
	mov	rax, QWORD PTR opnd1$[rsp]
	mov	rax, QWORD PTR [rax+96]
	mov	rax, QWORD PTR [rax+8]
	mov	QWORD PTR tv166[rsp], rax
	jmp	SHORT $LN47@evaluate
$LN46@evaluate:
	lea	rax, OFFSET FLAT:$SG12353
	mov	QWORD PTR tv166[rsp], rax
$LN47@evaluate:
	movsxd	rax, DWORD PTR curr_operator$1[rsp]
	imul	rax, rax, 32				; 00000020H
	mov	rcx, QWORD PTR tv166[rsp]
	mov	QWORD PTR [rsp+32], rcx
	mov	rcx, QWORD PTR opnd1$[rsp]
	mov	r9, QWORD PTR [rcx+80]
	mov	rcx, QWORD PTR tokenarray$[rsp]
	mov	r8, QWORD PTR [rcx+rax+8]
	mov	edx, DWORD PTR evallvl
	lea	rcx, OFFSET FLAT:$SG12354
	call	DoDebugMsg1

; 3258 :                    evallvl, tokenarray[curr_operator].string_ptr, opnd1->sym, (opnd1->type ? opnd1->type->name : "NULL") ));
; 3259 : 
; 3260 :         if ( opnd1->kind != EXPR_EMPTY ) {

	mov	rax, QWORD PTR opnd1$[rsp]
	cmp	DWORD PTR [rax+60], -2
	je	$LN9@evaluate

; 3261 :             /* check operator behind operand. Must be binary or open bracket */
; 3262 :             if ( tokenarray[curr_operator].token == '+' || tokenarray[curr_operator].token == '-' )

	movsxd	rax, DWORD PTR curr_operator$1[rsp]
	imul	rax, rax, 32				; 00000020H
	mov	rcx, QWORD PTR tokenarray$[rsp]
	movzx	eax, BYTE PTR [rcx+rax]
	cmp	eax, 43					; 0000002bH
	je	SHORT $LN12@evaluate
	movsxd	rax, DWORD PTR curr_operator$1[rsp]
	imul	rax, rax, 32				; 00000020H
	mov	rcx, QWORD PTR tokenarray$[rsp]
	movzx	eax, BYTE PTR [rcx+rax]
	cmp	eax, 45					; 0000002dH
	jne	SHORT $LN10@evaluate
$LN12@evaluate:

; 3263 :                 tokenarray[curr_operator].specval = BINARY_PLUSMINUS;

	movsxd	rax, DWORD PTR curr_operator$1[rsp]
	imul	rax, rax, 32				; 00000020H
	mov	rcx, QWORD PTR tokenarray$[rsp]
	mov	BYTE PTR [rcx+rax+1], 1
	jmp	$LN11@evaluate
$LN10@evaluate:

; 3264 :             else if( !is_operator( tokenarray[curr_operator].token ) || tokenarray[curr_operator].token == T_UNARY_OPERATOR ) {

	movsxd	rax, DWORD PTR curr_operator$1[rsp]
	imul	rax, rax, 32				; 00000020H
	mov	rcx, QWORD PTR tokenarray$[rsp]
	movzx	eax, BYTE PTR [rcx+rax]
	cmp	eax, 40					; 00000028H
	jge	SHORT $LN15@evaluate
	movsxd	rax, DWORD PTR curr_operator$1[rsp]
	imul	rax, rax, 32				; 00000020H
	mov	rcx, QWORD PTR tokenarray$[rsp]
	movzx	eax, BYTE PTR [rcx+rax]
	cmp	eax, 4
	je	SHORT $LN15@evaluate
	movsxd	rax, DWORD PTR curr_operator$1[rsp]
	imul	rax, rax, 32				; 00000020H
	mov	rcx, QWORD PTR tokenarray$[rsp]
	movzx	eax, BYTE PTR [rcx+rax]
	cmp	eax, 5
	jne	SHORT $LN14@evaluate
$LN15@evaluate:
	movsxd	rax, DWORD PTR curr_operator$1[rsp]
	imul	rax, rax, 32				; 00000020H
	mov	rcx, QWORD PTR tokenarray$[rsp]
	movzx	eax, BYTE PTR [rcx+rax]
	cmp	eax, 4
	jne	SHORT $LN13@evaluate
$LN14@evaluate:

; 3265 :                 DebugMsg(("%u evaluate: unexpected token at idx=%u, token=%X >%s<\n", evallvl, curr_operator, tokenarray[curr_operator].token, tokenarray[curr_operator].tokpos ));

	movsxd	rax, DWORD PTR curr_operator$1[rsp]
	imul	rax, rax, 32				; 00000020H
	movsxd	rcx, DWORD PTR curr_operator$1[rsp]
	imul	rcx, rcx, 32				; 00000020H
	mov	rdx, QWORD PTR tokenarray$[rsp]
	movzx	ecx, BYTE PTR [rdx+rcx]
	mov	rdx, QWORD PTR tokenarray$[rsp]
	mov	rax, QWORD PTR [rdx+rax+24]
	mov	QWORD PTR [rsp+32], rax
	mov	r9d, ecx
	mov	r8d, DWORD PTR curr_operator$1[rsp]
	mov	edx, DWORD PTR evallvl
	lea	rcx, OFFSET FLAT:$SG12362
	call	DoDebugMsg

; 3266 :                 rc = ERROR;

	mov	DWORD PTR rc$[rsp], -1

; 3267 :                 //if ( !opnd2.is_opattr )  /* v2.11: opnd2 was accessed before initialization */
; 3268 :                 
; 3269 :                 if ( !opnd1->is_opattr )

	mov	rax, QWORD PTR opnd1$[rsp]
	mov	eax, DWORD PTR [rax+72]
	shr	eax, 4
	and	eax, 1
	test	eax, eax
	jne	SHORT $LN16@evaluate

; 3270 :                     OperErr( curr_operator, tokenarray );

	mov	rdx, QWORD PTR tokenarray$[rsp]
	mov	ecx, DWORD PTR curr_operator$1[rsp]
	call	OperErr
$LN16@evaluate:

; 3271 :                 break;

	jmp	$LN3@evaluate
$LN13@evaluate:
$LN11@evaluate:
$LN9@evaluate:

; 3272 :             }
; 3273 :         }
; 3274 : 
; 3275 :         (*i)++;

	mov	rax, QWORD PTR i$[rsp]
	mov	eax, DWORD PTR [rax]
	inc	eax
	mov	rcx, QWORD PTR i$[rsp]
	mov	DWORD PTR [rcx], eax

; 3276 : 
; 3277 :         init_expr( &opnd2 );

	lea	rcx, QWORD PTR opnd2$3[rsp]
	call	init_expr

; 3278 :         PrepareOp( &opnd2, opnd1, &tokenarray[curr_operator] );

	movsxd	rax, DWORD PTR curr_operator$1[rsp]
	imul	rax, rax, 32				; 00000020H
	mov	rcx, QWORD PTR tokenarray$[rsp]
	add	rcx, rax
	mov	rax, rcx
	mov	r8, rax
	mov	rdx, QWORD PTR opnd1$[rsp]
	lea	rcx, QWORD PTR opnd2$3[rsp]
	call	PrepareOp

; 3279 : 
; 3280 :         /* read the (next) operand.
; 3281 :          */
; 3282 : 
; 3283 :         if( tokenarray[curr_operator].token == T_OP_BRACKET ||

	movsxd	rax, DWORD PTR curr_operator$1[rsp]
	imul	rax, rax, 32				; 00000020H
	mov	rcx, QWORD PTR tokenarray$[rsp]
	movzx	eax, BYTE PTR [rcx+rax]
	cmp	eax, 40					; 00000028H
	je	SHORT $LN19@evaluate
	movsxd	rax, DWORD PTR curr_operator$1[rsp]
	imul	rax, rax, 32				; 00000020H
	mov	rcx, QWORD PTR tokenarray$[rsp]
	movzx	eax, BYTE PTR [rcx+rax]
	cmp	eax, 91					; 0000005bH
	jne	$LN17@evaluate
$LN19@evaluate:

; 3284 :            tokenarray[curr_operator].token == T_OP_SQ_BRACKET ) {
; 3285 :             int exp_token = T_CL_BRACKET;

	mov	DWORD PTR exp_token$2[rsp], 41		; 00000029H

; 3286 :             if( tokenarray[curr_operator].token == T_OP_SQ_BRACKET ) {

	movsxd	rax, DWORD PTR curr_operator$1[rsp]
	imul	rax, rax, 32				; 00000020H
	mov	rcx, QWORD PTR tokenarray$[rsp]
	movzx	eax, BYTE PTR [rcx+rax]
	cmp	eax, 91					; 0000005bH
	jne	SHORT $LN20@evaluate

; 3287 :                 exp_token = T_CL_SQ_BRACKET;

	mov	DWORD PTR exp_token$2[rsp], 93		; 0000005dH
	jmp	SHORT $LN21@evaluate
$LN20@evaluate:

; 3288 : #if 1 /* v2.10: slightly hackish; see regression test dotop5.asm */
; 3289 :             } else if ( opnd1->is_dot ) {

	mov	rax, QWORD PTR opnd1$[rsp]
	mov	eax, DWORD PTR [rax+72]
	shr	eax, 7
	and	eax, 1
	test	eax, eax
	je	SHORT $LN22@evaluate

; 3290 :                 opnd2.type = opnd1->type;

	mov	rax, QWORD PTR opnd1$[rsp]
	mov	rax, QWORD PTR [rax+96]
	mov	QWORD PTR opnd2$3[rsp+96], rax

; 3291 :                 opnd2.is_dot = TRUE;

	mov	eax, DWORD PTR opnd2$3[rsp+72]
	bts	eax, 7
	mov	DWORD PTR opnd2$3[rsp+72], eax
$LN22@evaluate:
$LN21@evaluate:

; 3292 : #endif
; 3293 :             }
; 3294 : 
; 3295 :             rc = evaluate( &opnd2, i, tokenarray, end, ( flags | ( exp_token == T_CL_SQ_BRACKET ? EXPF_IN_SQBR : 0 ) ) & ~EXPF_ONEOPND );

	cmp	DWORD PTR exp_token$2[rsp], 93		; 0000005dH
	jne	SHORT $LN48@evaluate
	mov	DWORD PTR tv274[rsp], 8
	jmp	SHORT $LN49@evaluate
$LN48@evaluate:
	mov	DWORD PTR tv274[rsp], 0
$LN49@evaluate:
	movzx	eax, BYTE PTR flags$[rsp]
	or	eax, DWORD PTR tv274[rsp]
	and	eax, -5
	mov	BYTE PTR [rsp+32], al
	mov	r9d, DWORD PTR end$[rsp]
	mov	r8, QWORD PTR tokenarray$[rsp]
	mov	rdx, QWORD PTR i$[rsp]
	lea	rcx, QWORD PTR opnd2$3[rsp]
	call	evaluate
	mov	DWORD PTR rc$[rsp], eax

; 3296 : 
; 3297 :             if( !IsCurrToken( exp_token ) ) {

	mov	rax, QWORD PTR i$[rsp]
	movsxd	rax, DWORD PTR [rax]
	imul	rax, rax, 32				; 00000020H
	mov	rcx, QWORD PTR tokenarray$[rsp]
	movzx	eax, BYTE PTR [rcx+rax]
	cmp	eax, DWORD PTR exp_token$2[rsp]
	je	$LN23@evaluate

; 3298 :                 DebugMsg(("%u evaluate: error, missing '%c', i=%u\n", evallvl, exp_token, *i ));

	mov	rax, QWORD PTR i$[rsp]
	mov	r9d, DWORD PTR [rax]
	mov	r8d, DWORD PTR exp_token$2[rsp]
	mov	edx, DWORD PTR evallvl
	lea	rcx, OFFSET FLAT:$SG12372
	call	DoDebugMsg

; 3299 :                 if ( rc != ERROR ) {

	cmp	DWORD PTR rc$[rsp], -1
	je	SHORT $LN25@evaluate

; 3300 :                     fnEmitErr( MISSING_RIGHT_PARENTHESIS_IN_EXPRESSION );

	mov	ecx, 227				; 000000e3H
	call	QWORD PTR fnEmitErr

; 3301 :                     /* v2.12: if curr token is a comma, the intention might be to call a macro function
; 3302 :                      * - using an undefined ( or not yet defined ) macro. The problem is that the name
; 3303 :                      * of this undefined macro isn't displayed in pass one, making it hard to see the
; 3304 :                      * reason for the error msg. However, if a comma is found, then it's surely no valid
; 3305 :                      * expression - in this case an "undefined symbol" err msg may be helpful.
; 3306 :                      */
; 3307 :                     if ( IsCurrToken( T_COMMA ) && opnd1->sym && opnd1->sym->state == SYM_UNDEFINED )

	mov	rax, QWORD PTR i$[rsp]
	movsxd	rax, DWORD PTR [rax]
	imul	rax, rax, 32				; 00000020H
	mov	rcx, QWORD PTR tokenarray$[rsp]
	movzx	eax, BYTE PTR [rcx+rax]
	cmp	eax, 44					; 0000002cH
	jne	SHORT $LN26@evaluate
	mov	rax, QWORD PTR opnd1$[rsp]
	cmp	QWORD PTR [rax+80], 0
	je	SHORT $LN26@evaluate
	mov	rax, QWORD PTR opnd1$[rsp]
	mov	rax, QWORD PTR [rax+80]
	cmp	DWORD PTR [rax+32], 0
	jne	SHORT $LN26@evaluate

; 3308 :                         fnEmitErr( SYMBOL_NOT_DEFINED, opnd1->sym->name );

	mov	rax, QWORD PTR opnd1$[rsp]
	mov	rax, QWORD PTR [rax+80]
	mov	rdx, QWORD PTR [rax+8]
	mov	ecx, 102				; 00000066H
	call	QWORD PTR fnEmitErr
$LN26@evaluate:
$LN25@evaluate:

; 3309 :                 }
; 3310 :                 rc = ERROR;

	mov	DWORD PTR rc$[rsp], -1

; 3311 :             } else {

	jmp	SHORT $LN24@evaluate
$LN23@evaluate:

; 3312 :                 (*i)++;

	mov	rax, QWORD PTR i$[rsp]
	mov	eax, DWORD PTR [rax]
	inc	eax
	mov	rcx, QWORD PTR i$[rsp]
	mov	DWORD PTR [rcx], eax
$LN24@evaluate:

; 3313 :             }

	jmp	$LN18@evaluate
$LN17@evaluate:

; 3314 : 
; 3315 :         } else if( is_unary_op( tokenarray[*i].token ) ) { /* brackets, +, -, T_UNARY_OPERATOR? */

	mov	rax, QWORD PTR i$[rsp]
	movsxd	rax, DWORD PTR [rax]
	imul	rax, rax, 32				; 00000020H
	mov	rcx, QWORD PTR tokenarray$[rsp]
	movzx	eax, BYTE PTR [rcx+rax]
	cmp	eax, 40					; 00000028H
	je	$LN29@evaluate
	mov	rax, QWORD PTR i$[rsp]
	movsxd	rax, DWORD PTR [rax]
	imul	rax, rax, 32				; 00000020H
	mov	rcx, QWORD PTR tokenarray$[rsp]
	movzx	eax, BYTE PTR [rcx+rax]
	cmp	eax, 91					; 0000005bH
	je	SHORT $LN29@evaluate
	mov	rax, QWORD PTR i$[rsp]
	movsxd	rax, DWORD PTR [rax]
	imul	rax, rax, 32				; 00000020H
	mov	rcx, QWORD PTR tokenarray$[rsp]
	movzx	eax, BYTE PTR [rcx+rax]
	cmp	eax, 43					; 0000002bH
	je	SHORT $LN29@evaluate
	mov	rax, QWORD PTR i$[rsp]
	movsxd	rax, DWORD PTR [rax]
	imul	rax, rax, 32				; 00000020H
	mov	rcx, QWORD PTR tokenarray$[rsp]
	movzx	eax, BYTE PTR [rcx+rax]
	cmp	eax, 45					; 0000002dH
	je	SHORT $LN29@evaluate
	mov	rax, QWORD PTR i$[rsp]
	movsxd	rax, DWORD PTR [rax]
	imul	rax, rax, 32				; 00000020H
	mov	rcx, QWORD PTR tokenarray$[rsp]
	movzx	eax, BYTE PTR [rcx+rax]
	cmp	eax, 4
	jne	SHORT $LN27@evaluate
$LN29@evaluate:

; 3316 :             rc = evaluate( &opnd2, i, tokenarray, end, flags | EXPF_ONEOPND );

	movzx	eax, BYTE PTR flags$[rsp]
	or	eax, 4
	mov	BYTE PTR [rsp+32], al
	mov	r9d, DWORD PTR end$[rsp]
	mov	r8, QWORD PTR tokenarray$[rsp]
	mov	rdx, QWORD PTR i$[rsp]
	lea	rcx, QWORD PTR opnd2$3[rsp]
	call	evaluate
	mov	DWORD PTR rc$[rsp], eax

; 3317 :         } else {

	jmp	SHORT $LN28@evaluate
$LN27@evaluate:

; 3318 :             /* get either:
; 3319 :              * - operand of unary operator OR
; 3320 :              * - 2. operand of binary operator
; 3321 :              */
; 3322 :             rc = get_operand( &opnd2, i, tokenarray, flags );

	movzx	r9d, BYTE PTR flags$[rsp]
	mov	r8, QWORD PTR tokenarray$[rsp]
	mov	rdx, QWORD PTR i$[rsp]
	lea	rcx, QWORD PTR opnd2$3[rsp]
	call	get_operand
	mov	DWORD PTR rc$[rsp], eax
$LN28@evaluate:
$LN18@evaluate:
$LN4@evaluate:

; 3323 :         }
; 3324 : 
; 3325 :         /*
; 3326 :          * parse expression until either the end or an operator with a higher priority is found.
; 3327 :          */
; 3328 : 
; 3329 :         while( rc != ERROR && *i < end && !IsCurrToken( T_CL_BRACKET ) && !IsCurrToken( T_CL_SQ_BRACKET ) ) {

	cmp	DWORD PTR rc$[rsp], -1
	je	$LN5@evaluate
	mov	rax, QWORD PTR i$[rsp]
	mov	ecx, DWORD PTR end$[rsp]
	cmp	DWORD PTR [rax], ecx
	jge	$LN5@evaluate
	mov	rax, QWORD PTR i$[rsp]
	movsxd	rax, DWORD PTR [rax]
	imul	rax, rax, 32				; 00000020H
	mov	rcx, QWORD PTR tokenarray$[rsp]
	movzx	eax, BYTE PTR [rcx+rax]
	cmp	eax, 41					; 00000029H
	je	$LN5@evaluate
	mov	rax, QWORD PTR i$[rsp]
	movsxd	rax, DWORD PTR [rax]
	imul	rax, rax, 32				; 00000020H
	mov	rcx, QWORD PTR tokenarray$[rsp]
	movzx	eax, BYTE PTR [rcx+rax]
	cmp	eax, 93					; 0000005dH
	je	$LN5@evaluate

; 3330 :             
; 3331 :             if ( tokenarray[*i].token == '+' || tokenarray[*i].token == '-' )

	mov	rax, QWORD PTR i$[rsp]
	movsxd	rax, DWORD PTR [rax]
	imul	rax, rax, 32				; 00000020H
	mov	rcx, QWORD PTR tokenarray$[rsp]
	movzx	eax, BYTE PTR [rcx+rax]
	cmp	eax, 43					; 0000002bH
	je	SHORT $LN32@evaluate
	mov	rax, QWORD PTR i$[rsp]
	movsxd	rax, DWORD PTR [rax]
	imul	rax, rax, 32				; 00000020H
	mov	rcx, QWORD PTR tokenarray$[rsp]
	movzx	eax, BYTE PTR [rcx+rax]
	cmp	eax, 45					; 0000002dH
	jne	SHORT $LN30@evaluate
$LN32@evaluate:

; 3332 :                 tokenarray[*i].specval = BINARY_PLUSMINUS;

	mov	rax, QWORD PTR i$[rsp]
	movsxd	rax, DWORD PTR [rax]
	imul	rax, rax, 32				; 00000020H
	mov	rcx, QWORD PTR tokenarray$[rsp]
	mov	BYTE PTR [rcx+rax+1], 1
	jmp	$LN31@evaluate
$LN30@evaluate:

; 3333 :             else if( !is_operator( tokenarray[*i].token ) || tokenarray[*i].token == T_UNARY_OPERATOR ) {

	mov	rax, QWORD PTR i$[rsp]
	movsxd	rax, DWORD PTR [rax]
	imul	rax, rax, 32				; 00000020H
	mov	rcx, QWORD PTR tokenarray$[rsp]
	movzx	eax, BYTE PTR [rcx+rax]
	cmp	eax, 40					; 00000028H
	jge	SHORT $LN35@evaluate
	mov	rax, QWORD PTR i$[rsp]
	movsxd	rax, DWORD PTR [rax]
	imul	rax, rax, 32				; 00000020H
	mov	rcx, QWORD PTR tokenarray$[rsp]
	movzx	eax, BYTE PTR [rcx+rax]
	cmp	eax, 4
	je	SHORT $LN35@evaluate
	mov	rax, QWORD PTR i$[rsp]
	movsxd	rax, DWORD PTR [rax]
	imul	rax, rax, 32				; 00000020H
	mov	rcx, QWORD PTR tokenarray$[rsp]
	movzx	eax, BYTE PTR [rcx+rax]
	cmp	eax, 5
	jne	SHORT $LN34@evaluate
$LN35@evaluate:
	mov	rax, QWORD PTR i$[rsp]
	movsxd	rax, DWORD PTR [rax]
	imul	rax, rax, 32				; 00000020H
	mov	rcx, QWORD PTR tokenarray$[rsp]
	movzx	eax, BYTE PTR [rcx+rax]
	cmp	eax, 4
	jne	$LN33@evaluate
$LN34@evaluate:

; 3334 :                 DebugMsg(("%u evaluate: unexpected token at %u, token=%X >%s<\n", evallvl, *i, tokenarray[*i].token, tokenarray[*i].tokpos ));

	mov	rax, QWORD PTR i$[rsp]
	movsxd	rax, DWORD PTR [rax]
	imul	rax, rax, 32				; 00000020H
	mov	rcx, QWORD PTR i$[rsp]
	movsxd	rcx, DWORD PTR [rcx]
	imul	rcx, rcx, 32				; 00000020H
	mov	rdx, QWORD PTR tokenarray$[rsp]
	movzx	ecx, BYTE PTR [rdx+rcx]
	mov	rdx, QWORD PTR tokenarray$[rsp]
	mov	rax, QWORD PTR [rdx+rax+24]
	mov	QWORD PTR [rsp+32], rax
	mov	r9d, ecx
	mov	rax, QWORD PTR i$[rsp]
	mov	r8d, DWORD PTR [rax]
	mov	edx, DWORD PTR evallvl
	lea	rcx, OFFSET FLAT:$SG12384
	call	DoDebugMsg

; 3335 :                 rc = ERROR;

	mov	DWORD PTR rc$[rsp], -1

; 3336 :                 if ( !opnd2.is_opattr ) /* don't emit error if expression is OPATTR operand */

	mov	eax, DWORD PTR opnd2$3[rsp+72]
	shr	eax, 4
	and	eax, 1
	test	eax, eax
	jne	SHORT $LN36@evaluate

; 3337 :                     OperErr( *i, tokenarray );

	mov	rdx, QWORD PTR tokenarray$[rsp]
	mov	rax, QWORD PTR i$[rsp]
	mov	ecx, DWORD PTR [rax]
	call	OperErr
$LN36@evaluate:

; 3338 :                 break;

	jmp	$LN5@evaluate
$LN33@evaluate:
$LN31@evaluate:

; 3339 :             }
; 3340 : 
; 3341 :             if( get_precedence( &tokenarray[*i] ) >= get_precedence( &tokenarray[curr_operator] ) )

	mov	rax, QWORD PTR i$[rsp]
	movsxd	rax, DWORD PTR [rax]
	imul	rax, rax, 32				; 00000020H
	mov	rcx, QWORD PTR tokenarray$[rsp]
	add	rcx, rax
	mov	rax, rcx
	mov	rcx, rax
	call	get_precedence
	mov	DWORD PTR tv428[rsp], eax
	movsxd	rcx, DWORD PTR curr_operator$1[rsp]
	imul	rcx, rcx, 32				; 00000020H
	mov	rdx, QWORD PTR tokenarray$[rsp]
	add	rdx, rcx
	mov	rcx, rdx
	call	get_precedence
	mov	ecx, DWORD PTR tv428[rsp]
	cmp	ecx, eax
	jl	SHORT $LN37@evaluate

; 3342 :                 break;

	jmp	SHORT $LN5@evaluate
$LN37@evaluate:

; 3343 : 
; 3344 :             rc = evaluate( &opnd2, i, tokenarray, end, flags | EXPF_ONEOPND );

	movzx	eax, BYTE PTR flags$[rsp]
	or	eax, 4
	mov	BYTE PTR [rsp+32], al
	mov	r9d, DWORD PTR end$[rsp]
	mov	r8, QWORD PTR tokenarray$[rsp]
	mov	rdx, QWORD PTR i$[rsp]
	lea	rcx, QWORD PTR opnd2$3[rsp]
	call	evaluate
	mov	DWORD PTR rc$[rsp], eax

; 3345 : 
; 3346 :         }

	jmp	$LN4@evaluate
$LN5@evaluate:

; 3347 : 
; 3348 :         /* v2.10: OPATTR special handling */
; 3349 :         if ( rc == ERROR && opnd2.is_opattr ) {

	cmp	DWORD PTR rc$[rsp], -1
	jne	$LN38@evaluate
	mov	eax, DWORD PTR opnd2$3[rsp+72]
	shr	eax, 4
	and	eax, 1
	test	eax, eax
	je	SHORT $LN38@evaluate
$LN6@evaluate:

; 3350 :             /* skip tokens until the end */
; 3351 :             while( *i < end && !IsCurrToken( T_CL_BRACKET ) && !IsCurrToken( T_CL_SQ_BRACKET ) ) {

	mov	rax, QWORD PTR i$[rsp]
	mov	ecx, DWORD PTR end$[rsp]
	cmp	DWORD PTR [rax], ecx
	jge	SHORT $LN7@evaluate
	mov	rax, QWORD PTR i$[rsp]
	movsxd	rax, DWORD PTR [rax]
	imul	rax, rax, 32				; 00000020H
	mov	rcx, QWORD PTR tokenarray$[rsp]
	movzx	eax, BYTE PTR [rcx+rax]
	cmp	eax, 41					; 00000029H
	je	SHORT $LN7@evaluate
	mov	rax, QWORD PTR i$[rsp]
	movsxd	rax, DWORD PTR [rax]
	imul	rax, rax, 32				; 00000020H
	mov	rcx, QWORD PTR tokenarray$[rsp]
	movzx	eax, BYTE PTR [rcx+rax]
	cmp	eax, 93					; 0000005dH
	je	SHORT $LN7@evaluate

; 3352 :                 (*i)++;

	mov	rax, QWORD PTR i$[rsp]
	mov	eax, DWORD PTR [rax]
	inc	eax
	mov	rcx, QWORD PTR i$[rsp]
	mov	DWORD PTR [rcx], eax

; 3353 :             }

	jmp	SHORT $LN6@evaluate
$LN7@evaluate:

; 3354 :             opnd2.kind = EXPR_EMPTY;

	mov	DWORD PTR opnd2$3[rsp+60], -2

; 3355 :             rc = NOT_ERROR;

	mov	DWORD PTR rc$[rsp], 0
$LN38@evaluate:

; 3356 :         }
; 3357 :         if( rc != ERROR )

	cmp	DWORD PTR rc$[rsp], -1
	je	SHORT $LN39@evaluate

; 3358 :             rc = calculate( opnd1, &opnd2, &tokenarray[curr_operator] );

	movsxd	rax, DWORD PTR curr_operator$1[rsp]
	imul	rax, rax, 32				; 00000020H
	mov	rcx, QWORD PTR tokenarray$[rsp]
	add	rcx, rax
	mov	rax, rcx
	mov	r8, rax
	lea	rdx, QWORD PTR opnd2$3[rsp]
	mov	rcx, QWORD PTR opnd1$[rsp]
	call	calculate
	mov	DWORD PTR rc$[rsp], eax
$LN39@evaluate:

; 3359 : 
; 3360 :         if( flags & EXPF_ONEOPND ) /* stop after one operand? */

	movzx	eax, BYTE PTR flags$[rsp]
	and	eax, 4
	test	eax, eax
	je	SHORT $LN40@evaluate

; 3361 :             break;

	jmp	SHORT $LN3@evaluate
$LN40@evaluate:

; 3362 :     }

	jmp	$LN2@evaluate
$LN3@evaluate:

; 3363 : 
; 3364 : #ifdef DEBUG_OUT
; 3365 :     if ( opnd1->hvalue != -1 && opnd1->hvalue != 0 ) {

	mov	rax, QWORD PTR opnd1$[rsp]
	cmp	DWORD PTR [rax+4], -1
	je	$LN41@evaluate
	mov	rax, QWORD PTR opnd1$[rsp]
	cmp	DWORD PTR [rax+4], 0
	je	$LN41@evaluate

; 3366 :         DebugMsg1(("%u evaluate exit, rc=%d, kind=%d value=%" I64_SPEC "d(0x%" I64_SPEC "X) memtype=%Xh string=%s indirect=%u type=>%s<\n",

	mov	rax, QWORD PTR opnd1$[rsp]
	cmp	QWORD PTR [rax+96], 0
	je	SHORT $LN50@evaluate
	mov	rax, QWORD PTR opnd1$[rsp]
	mov	rax, QWORD PTR [rax+96]
	mov	rax, QWORD PTR [rax+8]
	mov	QWORD PTR tv485[rsp], rax
	jmp	SHORT $LN51@evaluate
$LN50@evaluate:
	lea	rax, OFFSET FLAT:$SG12392
	mov	QWORD PTR tv485[rsp], rax
$LN51@evaluate:
	mov	rax, QWORD PTR opnd1$[rsp]
	cmp	QWORD PTR [rax+16], 0
	je	SHORT $LN52@evaluate
	mov	rax, QWORD PTR opnd1$[rsp]
	mov	rax, QWORD PTR [rax+16]
	mov	rax, QWORD PTR [rax+8]
	mov	QWORD PTR tv494[rsp], rax
	jmp	SHORT $LN53@evaluate
$LN52@evaluate:
	lea	rax, OFFSET FLAT:$SG12393
	mov	QWORD PTR tv494[rsp], rax
$LN53@evaluate:
	mov	eax, DWORD PTR evallvl
	mov	DWORD PTR tv506[rsp], eax
	mov	eax, DWORD PTR evallvl
	dec	eax
	mov	DWORD PTR evallvl, eax
	mov	rax, QWORD PTR opnd1$[rsp]
	mov	eax, DWORD PTR [rax+72]
	and	eax, 1
	mov	rcx, QWORD PTR tv485[rsp]
	mov	QWORD PTR [rsp+72], rcx
	mov	DWORD PTR [rsp+64], eax
	mov	rax, QWORD PTR tv494[rsp]
	mov	QWORD PTR [rsp+56], rax
	mov	rax, QWORD PTR opnd1$[rsp]
	mov	eax, DWORD PTR [rax+64]
	mov	DWORD PTR [rsp+48], eax
	mov	rax, QWORD PTR opnd1$[rsp]
	mov	rax, QWORD PTR [rax]
	mov	QWORD PTR [rsp+40], rax
	mov	rax, QWORD PTR opnd1$[rsp]
	mov	rax, QWORD PTR [rax]
	mov	QWORD PTR [rsp+32], rax
	mov	rax, QWORD PTR opnd1$[rsp]
	mov	r9d, DWORD PTR [rax+60]
	mov	r8d, DWORD PTR rc$[rsp]
	mov	edx, DWORD PTR tv506[rsp]
	lea	rcx, OFFSET FLAT:$SG12394
	call	DoDebugMsg1

; 3367 :                    evallvl--, rc, opnd1->kind, opnd1->llvalue, opnd1->llvalue, opnd1->mem_type,
; 3368 :                    opnd1->quoted_string ? opnd1->quoted_string->string_ptr : "NULL",
; 3369 :                    opnd1->indirect,
; 3370 :                    opnd1->type ? opnd1->type->name : "NULL" ));
; 3371 :     } else {

	jmp	$LN42@evaluate
$LN41@evaluate:

; 3372 :         DebugMsg1(("%u evaluate exit, rc=%d, kind=%d value=%" I32_SPEC "d(0x%" I32_SPEC "X) memtype=%Xh string=%s ind=%u exp=%u ofssiz=%d instr=%s type=>%s<\n",

	mov	rax, QWORD PTR opnd1$[rsp]
	cmp	QWORD PTR [rax+96], 0
	je	SHORT $LN54@evaluate
	mov	rax, QWORD PTR opnd1$[rsp]
	mov	rax, QWORD PTR [rax+96]
	mov	rax, QWORD PTR [rax+8]
	mov	QWORD PTR tv513[rsp], rax
	jmp	SHORT $LN55@evaluate
$LN54@evaluate:
	lea	rax, OFFSET FLAT:$SG12395
	mov	QWORD PTR tv513[rsp], rax
$LN55@evaluate:
	mov	rax, QWORD PTR opnd1$[rsp]
	cmp	DWORD PTR [rax+56], -2
	jne	SHORT $LN56@evaluate
	lea	rax, OFFSET FLAT:$SG12396
	mov	QWORD PTR tv521[rsp], rax
	jmp	SHORT $LN57@evaluate
$LN56@evaluate:
	xor	edx, edx
	mov	rax, QWORD PTR opnd1$[rsp]
	mov	ecx, DWORD PTR [rax+56]
	call	GetResWName
	mov	QWORD PTR tv521[rsp], rax
$LN57@evaluate:
	mov	rax, QWORD PTR opnd1$[rsp]
	cmp	QWORD PTR [rax+16], 0
	je	SHORT $LN58@evaluate
	mov	rax, QWORD PTR opnd1$[rsp]
	mov	rax, QWORD PTR [rax+16]
	mov	rax, QWORD PTR [rax+8]
	mov	QWORD PTR tv537[rsp], rax
	jmp	SHORT $LN59@evaluate
$LN58@evaluate:
	lea	rax, OFFSET FLAT:$SG12397
	mov	QWORD PTR tv537[rsp], rax
$LN59@evaluate:
	mov	eax, DWORD PTR evallvl
	mov	DWORD PTR tv549[rsp], eax
	mov	eax, DWORD PTR evallvl
	dec	eax
	mov	DWORD PTR evallvl, eax
	mov	rax, QWORD PTR opnd1$[rsp]
	movzx	eax, BYTE PTR [rax+69]
	mov	rcx, QWORD PTR opnd1$[rsp]
	mov	ecx, DWORD PTR [rcx+72]
	shr	ecx, 1
	and	ecx, 1
	mov	rdx, QWORD PTR opnd1$[rsp]
	mov	edx, DWORD PTR [rdx+72]
	and	edx, 1
	mov	r8, QWORD PTR tv513[rsp]
	mov	QWORD PTR [rsp+96], r8
	mov	r8, QWORD PTR tv521[rsp]
	mov	QWORD PTR [rsp+88], r8
	mov	DWORD PTR [rsp+80], eax
	mov	DWORD PTR [rsp+72], ecx
	mov	DWORD PTR [rsp+64], edx
	mov	rax, QWORD PTR tv537[rsp]
	mov	QWORD PTR [rsp+56], rax
	mov	rax, QWORD PTR opnd1$[rsp]
	mov	eax, DWORD PTR [rax+64]
	mov	DWORD PTR [rsp+48], eax
	mov	rax, QWORD PTR opnd1$[rsp]
	mov	eax, DWORD PTR [rax]
	mov	DWORD PTR [rsp+40], eax
	mov	rax, QWORD PTR opnd1$[rsp]
	mov	eax, DWORD PTR [rax]
	mov	DWORD PTR [rsp+32], eax
	mov	rax, QWORD PTR opnd1$[rsp]
	mov	r9d, DWORD PTR [rax+60]
	mov	r8d, DWORD PTR rc$[rsp]
	mov	edx, DWORD PTR tv549[rsp]
	lea	rcx, OFFSET FLAT:$SG12398
	call	DoDebugMsg1
$LN42@evaluate:

; 3373 :                    evallvl--, rc, opnd1->kind, opnd1->value, opnd1->value, opnd1->mem_type,
; 3374 :                    opnd1->quoted_string ? opnd1->quoted_string->string_ptr : "NULL",
; 3375 :                    opnd1->indirect, opnd1->explicit, opnd1->Ofssize,
; 3376 :                    opnd1->instr == EMPTY ? "" : GetResWName( opnd1->instr, NULL ),
; 3377 :                    opnd1->type ? opnd1->type->name : "NULL" ));
; 3378 :     }
; 3379 : #endif
; 3380 :     return( rc );

	mov	eax, DWORD PTR rc$[rsp]

; 3381 : }

	add	rsp, 328				; 00000148H
	ret	0
evaluate ENDP
_TEXT	ENDS
; Function compile flags: /Odtp
; File d:\hjwasm\hjwasm2.13.1s\hjwasm2.13.1s\expreval.c
_TEXT	SEGMENT
i$ = 48
tokenarray$ = 56
OperErr	PROC

; 3215 : {

	mov	QWORD PTR [rsp+16], rdx
	mov	DWORD PTR [rsp+8], ecx
	sub	rsp, 40					; 00000028H

; 3216 :     if ( tokenarray[i].token <= T_BAD_NUM ) {

	movsxd	rax, DWORD PTR i$[rsp]
	imul	rax, rax, 32				; 00000020H
	mov	rcx, QWORD PTR tokenarray$[rsp]
	movzx	eax, BYTE PTR [rcx+rax]
	cmp	eax, 12
	jg	SHORT $LN2@OperErr

; 3217 :         fnEmitErr( MISSING_OPERATOR_IN_EXPRESSION ); ERRLOC(i);

	mov	ecx, 150				; 00000096H
	call	QWORD PTR fnEmitErr

; 3218 :     } else

	jmp	SHORT $LN3@OperErr
$LN2@OperErr:

; 3219 :         fnEmitErr( SYNTAX_ERROR_EX, tokenarray[i].string_ptr );

	movsxd	rax, DWORD PTR i$[rsp]
	imul	rax, rax, 32				; 00000020H
	mov	rcx, QWORD PTR tokenarray$[rsp]
	mov	rdx, QWORD PTR [rcx+rax+8]
	mov	ecx, 209				; 000000d1H
	call	QWORD PTR fnEmitErr
$LN3@OperErr:

; 3220 : 
; 3221 :     return;
; 3222 : }

	add	rsp, 40					; 00000028H
	ret	0
OperErr	ENDP
_TEXT	ENDS
; Function compile flags: /Odtp
; File d:\hjwasm\hjwasm2.13.1s\hjwasm2.13.1s\expreval.c
_TEXT	SEGMENT
tv75 = 32
tv151 = 36
tv86 = 40
tv162 = 48
opnd$ = 80
old$ = 88
oper$ = 96
PrepareOp PROC

; 3168 : {

	mov	QWORD PTR [rsp+24], r8
	mov	QWORD PTR [rsp+16], rdx
	mov	QWORD PTR [rsp+8], rcx
	sub	rsp, 72					; 00000048H

; 3169 :     opnd->is_opattr = old->is_opattr;

	mov	rax, QWORD PTR old$[rsp]
	mov	eax, DWORD PTR [rax+72]
	shr	eax, 4
	and	eax, 1
	and	eax, 1
	shl	eax, 4
	mov	rcx, QWORD PTR opnd$[rsp]
	mov	ecx, DWORD PTR [rcx+72]
	and	ecx, -17				; ffffffefH
	or	ecx, eax
	mov	eax, ecx
	mov	rcx, QWORD PTR opnd$[rsp]
	mov	DWORD PTR [rcx+72], eax

; 3170 : 
; 3171 :     switch ( oper->token ) {

	mov	rax, QWORD PTR oper$[rsp]
	movzx	eax, BYTE PTR [rax]
	mov	BYTE PTR tv75[rsp], al
	cmp	BYTE PTR tv75[rsp], 4
	je	$LN10@PrepareOp
	cmp	BYTE PTR tv75[rsp], 46			; 0000002eH
	je	SHORT $LN6@PrepareOp
	jmp	$LN2@PrepareOp
$LN6@PrepareOp:

; 3172 :     case T_DOT:
; 3173 :         DebugMsg(("PrepareOp: DOT operator found, old.sym=%X, old.type=%s, expr=%s\n", old->sym, (old->type ? old->type->name : "NULL" ), oper->tokpos + strlen( oper->string_ptr ) ));

	mov	rax, QWORD PTR old$[rsp]
	cmp	QWORD PTR [rax+96], 0
	je	SHORT $LN13@PrepareOp
	mov	rax, QWORD PTR old$[rsp]
	mov	rax, QWORD PTR [rax+96]
	mov	rax, QWORD PTR [rax+8]
	mov	QWORD PTR tv86[rsp], rax
	jmp	SHORT $LN14@PrepareOp
$LN13@PrepareOp:
	lea	rax, OFFSET FLAT:$SG12306
	mov	QWORD PTR tv86[rsp], rax
$LN14@PrepareOp:
	mov	rax, QWORD PTR oper$[rsp]
	mov	rcx, QWORD PTR [rax+8]
	call	strlen
	mov	rcx, QWORD PTR oper$[rsp]
	add	rax, QWORD PTR [rcx+24]
	mov	r9, rax
	mov	r8, QWORD PTR tv86[rsp]
	mov	rax, QWORD PTR old$[rsp]
	mov	rdx, QWORD PTR [rax+80]
	lea	rcx, OFFSET FLAT:$SG12307
	call	DoDebugMsg

; 3174 :         if ( old->type ) {

	mov	rax, QWORD PTR old$[rsp]
	cmp	QWORD PTR [rax+96], 0
	je	SHORT $LN7@PrepareOp

; 3175 :             DebugMsg1(("PrepareOp: implicit type: %s\n", old->type->name));

	mov	rax, QWORD PTR old$[rsp]
	mov	rax, QWORD PTR [rax+96]
	mov	rdx, QWORD PTR [rax+8]
	lea	rcx, OFFSET FLAT:$SG12310
	call	DoDebugMsg1

; 3176 :             opnd->type = old->type;

	mov	rax, QWORD PTR opnd$[rsp]
	mov	rcx, QWORD PTR old$[rsp]
	mov	rcx, QWORD PTR [rcx+96]
	mov	QWORD PTR [rax+96], rcx

; 3177 :             opnd->is_dot = TRUE;

	mov	rax, QWORD PTR opnd$[rsp]
	mov	eax, DWORD PTR [rax+72]
	bts	eax, 7
	mov	rcx, QWORD PTR opnd$[rsp]
	mov	DWORD PTR [rcx+72], eax
	jmp	SHORT $LN8@PrepareOp
$LN7@PrepareOp:

; 3178 : #if 0
; 3179 :         /* v2.09 (type field is now set in get_operand();
; 3180 :          * it's problematic to use old->sym here, because this field
; 3181 :          * is not necessarily set by the operand just before the dot.
; 3182 :          */
; 3183 :         //} else if ( old->sym && old->sym->mem_type == MT_TYPE ) {
; 3184 :         } else if ( old->sym && old->sym->mem_type == MT_TYPE && old->instr == EMPTY ) {
; 3185 :             DebugMsg1(("PrepareOp: label %s, implicit type: %s\n", old->sym->name, old->sym->type->name));
; 3186 :             for ( opnd->type = old->sym->type; opnd->type->type; opnd->type = opnd->type->type );
; 3187 : #endif
; 3188 :         /* v2.07: changed */
; 3189 :         //} else if ( !ModuleInfo.oldstructs ) {
; 3190 :         /* v2.08: reverted, replaced by changes in dot_op() and get_operand(), case T_STYPE */
; 3191 :         //} else if ( old->sym && old->sym->mem_type == MT_EMPTY && !ModuleInfo.oldstructs ) {
; 3192 :         /* v2.11: nullstruct not used here. Set type to NULL and is_dot==TRUE */
; 3193 :         //} else if ( !ModuleInfo.oldstructs ) {
; 3194 :         } else if ( !ModuleInfo.oldstructs && old->sym && old->sym->state == SYM_UNDEFINED ) {

	mov	eax, DWORD PTR ModuleInfo+408
	shr	eax, 8
	and	eax, 1
	test	eax, eax
	jne	SHORT $LN9@PrepareOp
	mov	rax, QWORD PTR old$[rsp]
	cmp	QWORD PTR [rax+80], 0
	je	SHORT $LN9@PrepareOp
	mov	rax, QWORD PTR old$[rsp]
	mov	rax, QWORD PTR [rax+80]
	cmp	DWORD PTR [rax+32], 0
	jne	SHORT $LN9@PrepareOp

; 3195 :             DebugMsg1(("PrepareOp: forward ref to %s, type will be NULL\n", old->sym->name ));

	mov	rax, QWORD PTR old$[rsp]
	mov	rax, QWORD PTR [rax+80]
	mov	rdx, QWORD PTR [rax+8]
	lea	rcx, OFFSET FLAT:$SG12312
	call	DoDebugMsg1

; 3196 :             opnd->type = NULL;

	mov	rax, QWORD PTR opnd$[rsp]
	mov	QWORD PTR [rax+96], 0

; 3197 :             opnd->is_dot = TRUE;

	mov	rax, QWORD PTR opnd$[rsp]
	mov	eax, DWORD PTR [rax+72]
	bts	eax, 7
	mov	rcx, QWORD PTR opnd$[rsp]
	mov	DWORD PTR [rcx+72], eax
$LN9@PrepareOp:
$LN8@PrepareOp:

; 3198 :         }
; 3199 :         break;

	jmp	$LN2@PrepareOp
$LN10@PrepareOp:

; 3200 :     case T_UNARY_OPERATOR:
; 3201 :         switch ( oper->tokval ) {

	mov	rax, QWORD PTR oper$[rsp]
	mov	eax, DWORD PTR [rax+16]
	mov	DWORD PTR tv151[rsp], eax
	cmp	DWORD PTR tv151[rsp], 229		; 000000e5H
	je	SHORT $LN11@PrepareOp
	cmp	DWORD PTR tv151[rsp], 242		; 000000f2H
	je	SHORT $LN11@PrepareOp
	jmp	SHORT $LN4@PrepareOp
$LN11@PrepareOp:

; 3202 :         case T_OPATTR:
; 3203 :         case T_DOT_TYPE:
; 3204 :             DebugMsg(("PrepareOp: OPATTR operator found, old.sym=%X, old.type=%s, expr=%s\n",

	mov	rax, QWORD PTR old$[rsp]
	cmp	QWORD PTR [rax+96], 0
	je	SHORT $LN15@PrepareOp
	mov	rax, QWORD PTR old$[rsp]
	mov	rax, QWORD PTR [rax+96]
	mov	rax, QWORD PTR [rax+8]
	mov	QWORD PTR tv162[rsp], rax
	jmp	SHORT $LN16@PrepareOp
$LN15@PrepareOp:
	lea	rax, OFFSET FLAT:$SG12315
	mov	QWORD PTR tv162[rsp], rax
$LN16@PrepareOp:
	mov	rax, QWORD PTR oper$[rsp]
	mov	rcx, QWORD PTR [rax+8]
	call	strlen
	mov	rcx, QWORD PTR oper$[rsp]
	add	rax, QWORD PTR [rcx+24]
	mov	r9, rax
	mov	r8, QWORD PTR tv162[rsp]
	mov	rax, QWORD PTR old$[rsp]
	mov	rdx, QWORD PTR [rax+80]
	lea	rcx, OFFSET FLAT:$SG12316
	call	DoDebugMsg

; 3205 :                       old->sym, (old->type ? old->type->name : "NULL" ), oper->tokpos + strlen( oper->string_ptr ) ));
; 3206 :             opnd->is_opattr = TRUE;

	mov	rax, QWORD PTR opnd$[rsp]
	mov	eax, DWORD PTR [rax+72]
	or	eax, 16
	mov	rcx, QWORD PTR opnd$[rsp]
	mov	DWORD PTR [rcx+72], eax
$LN4@PrepareOp:
$LN2@PrepareOp:

; 3207 :             break;
; 3208 :         }
; 3209 :         break;
; 3210 :     }
; 3211 : }

	add	rsp, 72					; 00000048H
	ret	0
PrepareOp ENDP
_TEXT	ENDS
; Function compile flags: /Odtp
; File d:\hjwasm\hjwasm2.13.1s\hjwasm2.13.1s\expreval.c
_TEXT	SEGMENT
temp$ = 96
tv545 = 100
name$ = 104
tv92 = 112
tv777 = 116
tv322 = 120
tv561 = 124
tv578 = 128
tv584 = 132
tv590 = 136
tv596 = 140
tv602 = 144
sym$ = 152
tv341 = 160
tv347 = 168
tv353 = 176
tv359 = 184
tv502 = 192
tv710 = 200
tv716 = 208
tv722 = 216
tv886 = 224
tv909 = 232
tv930 = 240
tv936 = 248
tv1355 = 256
tv1367 = 264
tv960 = 272
opnd1$ = 304
opnd2$ = 312
oper$ = 320
calculate PROC

; 2570 : {

	mov	QWORD PTR [rsp+24], r8
	mov	QWORD PTR [rsp+16], rdx
	mov	QWORD PTR [rsp+8], rcx
	sub	rsp, 296				; 00000128H

; 2571 :     int_32              temp;
; 2572 :     struct asym         *sym;
; 2573 :     char                *name;
; 2574 : 
; 2575 :     /* avoid to use the <string> member once it's part of an expression!
; 2576 :      * the <value> member is the one to be used then.
; 2577 :      * test case: db "a"+80h
; 2578 :      * v2.08: first: this is too early; second: the current operand is opnd2.
; 2579 :      * third: the space is also used by float_tok member, which cannot be cleared.
; 2580 :      * probably the best solution - at calculate()'s end:
; 2581 :      * if ( opnd1->kind == EXPR_CONST ) opnd1->quoted_string = NULL;
; 2582 :      */
; 2583 :     opnd1->quoted_string = NULL;

	mov	rax, QWORD PTR opnd1$[rsp]
	mov	QWORD PTR [rax+16], 0

; 2584 : 
; 2585 :     /* v2.11: added check to ensure constant fits in 64-bits */
; 2586 :     if ( opnd2->hlvalue ) {

	mov	rax, QWORD PTR opnd2$[rsp]
	cmp	QWORD PTR [rax+8], 0
	je	$LN8@calculate

; 2587 :         /* opattr and unary +/- are ok, they can handle 128-bits */
; 2588 :         if ( opnd2->is_opattr || ( ( oper->token == '+' || oper->token == '-' ) && oper->specval == UNARY_PLUSMINUS ) )

	mov	rax, QWORD PTR opnd2$[rsp]
	mov	eax, DWORD PTR [rax+72]
	shr	eax, 4
	and	eax, 1
	test	eax, eax
	jne	SHORT $LN11@calculate
	mov	rax, QWORD PTR oper$[rsp]
	movzx	eax, BYTE PTR [rax]
	cmp	eax, 43					; 0000002bH
	je	SHORT $LN12@calculate
	mov	rax, QWORD PTR oper$[rsp]
	movzx	eax, BYTE PTR [rax]
	cmp	eax, 45					; 0000002dH
	jne	SHORT $LN9@calculate
$LN12@calculate:
	mov	rax, QWORD PTR oper$[rsp]
	movsx	eax, BYTE PTR [rax+1]
	test	eax, eax
	jne	SHORT $LN9@calculate
$LN11@calculate:

; 2589 :             ;

	jmp	SHORT $LN10@calculate
$LN9@calculate:

; 2590 :         else {
; 2591 :             DebugMsg(("%u calculate(%s): value too large\n", evallvl, oper->string_ptr ));

	mov	rax, QWORD PTR oper$[rsp]
	mov	r8, QWORD PTR [rax+8]
	mov	edx, DWORD PTR evallvl
	lea	rcx, OFFSET FLAT:$SG12125
	call	DoDebugMsg

; 2592 :             return( fnEmitErr( CONSTANT_VALUE_TOO_LARGE_EX, opnd2->hlvalue, opnd2->value64 ) );

	mov	rax, QWORD PTR opnd2$[rsp]
	mov	r8, QWORD PTR [rax]
	mov	rax, QWORD PTR opnd2$[rsp]
	mov	rdx, QWORD PTR [rax+8]
	mov	ecx, 273				; 00000111H
	call	QWORD PTR fnEmitErr
	jmp	$LN1@calculate
$LN10@calculate:
$LN8@calculate:

; 2593 :         }
; 2594 :     }
; 2595 : 
; 2596 :     switch( oper->token ) {

	mov	rax, QWORD PTR oper$[rsp]
	movzx	eax, BYTE PTR [rax]
	mov	DWORD PTR tv92[rsp], eax
	mov	eax, DWORD PTR tv92[rsp]
	sub	eax, 4
	mov	DWORD PTR tv92[rsp], eax
	cmp	DWORD PTR tv92[rsp], 87			; 00000057H
	ja	$LN133@calculate
	movsxd	rax, DWORD PTR tv92[rsp]
	lea	rcx, OFFSET FLAT:__ImageBase
	movzx	eax, BYTE PTR $LN179@calculate[rcx+rax]
	mov	eax, DWORD PTR $LN180@calculate[rcx+rax*4]
	add	rax, rcx
	jmp	rax
$LN13@calculate:

; 2597 :     case T_OP_SQ_BRACKET:
; 2598 :         /* v2.07: the ASSUMEs are now checked only when operator [] is done.
; 2599 :          * this is compatible with Masm:
; 2600 :          *   assume ebx:ptr <struct>
; 2601 :          *   mov eax, [ebx.<member>]             ;is to fail
; 2602 :          *   mov eax, [ebx.<struct>.<member>]    ;is to be ok
; 2603 :          * previously both variants were accepted by jwasm.
; 2604 :          */
; 2605 :         if ( opnd2->assumecheck == TRUE ) {

	mov	rax, QWORD PTR opnd2$[rsp]
	mov	eax, DWORD PTR [rax+72]
	shr	eax, 6
	and	eax, 1
	cmp	eax, 1
	jne	SHORT $LN14@calculate

; 2606 :             opnd2->assumecheck = FALSE;   /* check ONE time only! */

	mov	rax, QWORD PTR opnd2$[rsp]
	mov	eax, DWORD PTR [rax+72]
	and	eax, -65				; ffffffbfH
	mov	rcx, QWORD PTR opnd2$[rsp]
	mov	DWORD PTR [rcx+72], eax

; 2607 :             if ( opnd1->sym == NULL ) /* v2.10: added; see assume10.asm */

	mov	rax, QWORD PTR opnd1$[rsp]
	cmp	QWORD PTR [rax+80], 0
	jne	SHORT $LN15@calculate

; 2608 :                 CheckAssume( opnd2 );

	mov	rcx, QWORD PTR opnd2$[rsp]
	call	CheckAssume
$LN15@calculate:
$LN14@calculate:

; 2609 :         }
; 2610 : 
; 2611 :         if ( opnd1->kind == EXPR_EMPTY ) {

	mov	rax, QWORD PTR opnd1$[rsp]
	cmp	DWORD PTR [rax+60], -2
	jne	$LN16@calculate

; 2612 :             DebugMsg1(("%u calculate(%s): single item\n", evallvl, oper->string_ptr ));

	mov	rax, QWORD PTR oper$[rsp]
	mov	r8, QWORD PTR [rax+8]
	mov	edx, DWORD PTR evallvl
	lea	rcx, OFFSET FLAT:$SG12130
	call	DoDebugMsg1

; 2613 :             TokenAssign( opnd1, opnd2 );

	mov	rdx, QWORD PTR opnd2$[rsp]
	mov	rcx, QWORD PTR opnd1$[rsp]
	call	TokenAssign

; 2614 :             opnd1->type = opnd2->type;

	mov	rax, QWORD PTR opnd1$[rsp]
	mov	rcx, QWORD PTR opnd2$[rsp]
	mov	rcx, QWORD PTR [rcx+96]
	mov	QWORD PTR [rax+96], rcx

; 2615 :             if ( opnd1->is_type && opnd1->kind == EXPR_CONST )

	mov	rax, QWORD PTR opnd1$[rsp]
	mov	eax, DWORD PTR [rax+72]
	shr	eax, 3
	and	eax, 1
	test	eax, eax
	je	SHORT $LN17@calculate
	mov	rax, QWORD PTR opnd1$[rsp]
	cmp	DWORD PTR [rax+60], 0
	jne	SHORT $LN17@calculate

; 2616 :                 opnd1->is_type = 0;

	mov	rax, QWORD PTR opnd1$[rsp]
	mov	eax, DWORD PTR [rax+72]
	and	eax, -9					; fffffff7H
	mov	rcx, QWORD PTR opnd1$[rsp]
	mov	DWORD PTR [rcx+72], eax
$LN17@calculate:

; 2617 :             break;

	jmp	$LN2@calculate
$LN16@calculate:

; 2618 :         }
; 2619 : 
; 2620 :         /* v2.03: make HJWasm reject syntax variants
; 2621 :          * "mov eax, DWORD [EBX]"
; 2622 :          * "mov eax, DWORD [var_name]"
; 2623 :          * variants still valid:
; 2624 :          * "mov eax, DWORD [WORD]"
; 2625 :          * "mov eax, DWORD [4]"
; 2626 :          * "mov eax, [DWORD][EBX]"
; 2627 :          */
; 2628 :         /* v2.08: structure/union names are ok: mov eax, S1[ebx] */
; 2629 :         //if ( opnd1->is_type == TRUE &&
; 2630 :         if ( opnd1->is_type == TRUE && opnd1->type == NULL &&

	mov	rax, QWORD PTR opnd1$[rsp]
	mov	eax, DWORD PTR [rax+72]
	shr	eax, 3
	and	eax, 1
	cmp	eax, 1
	jne	SHORT $LN18@calculate
	mov	rax, QWORD PTR opnd1$[rsp]
	cmp	QWORD PTR [rax+96], 0
	jne	SHORT $LN18@calculate
	mov	rax, QWORD PTR opnd2$[rsp]
	cmp	DWORD PTR [rax+60], 1
	je	SHORT $LN19@calculate
	mov	rax, QWORD PTR opnd2$[rsp]
	cmp	DWORD PTR [rax+60], 2
	jne	SHORT $LN18@calculate
$LN19@calculate:

; 2631 :             (opnd2->kind == EXPR_ADDR || opnd2->kind == EXPR_REG ) ) {
; 2632 :             DebugMsg(("calculate(%s): incompatible usage of (simple) type\n", oper->string_ptr ));

	mov	rax, QWORD PTR oper$[rsp]
	mov	rdx, QWORD PTR [rax+8]
	lea	rcx, OFFSET FLAT:$SG12134
	call	DoDebugMsg

; 2633 :             return( fnEmitErr( SYNTAX_ERROR_IN_EXPRESSION ) );

	mov	ecx, 264				; 00000108H
	call	QWORD PTR fnEmitErr
	jmp	$LN1@calculate
$LN18@calculate:

; 2634 :         }
; 2635 : 
; 2636 :         /* v2.08: moved here from get_operand() */
; 2637 :         if ( opnd1->base_reg && opnd1->base_reg->tokval == T_ST )

	mov	rax, QWORD PTR opnd1$[rsp]
	cmp	QWORD PTR [rax+24], 0
	je	SHORT $LN20@calculate
	mov	rax, QWORD PTR opnd1$[rsp]
	mov	rax, QWORD PTR [rax+24]
	cmp	DWORD PTR [rax+16], 31
	jne	SHORT $LN20@calculate

; 2638 :             return( check_streg( opnd1, opnd2 ) );

	mov	rdx, QWORD PTR opnd2$[rsp]
	mov	rcx, QWORD PTR opnd1$[rsp]
	call	check_streg
	jmp	$LN1@calculate
$LN20@calculate:

; 2639 : 
; 2640 : #ifdef DEBUG_OUT
; 2641 :         if ( plus_op( opnd1, opnd2 ) == ERROR )

	mov	rdx, QWORD PTR opnd2$[rsp]
	mov	rcx, QWORD PTR opnd1$[rsp]
	call	plus_op
	cmp	eax, -1
	jne	SHORT $LN21@calculate

; 2642 :             return( ERROR );

	mov	eax, -1
	jmp	$LN1@calculate
$LN21@calculate:

; 2643 :         break;

	jmp	$LN2@calculate
$LN22@calculate:

; 2644 : #else
; 2645 :         return( plus_op( opnd1, opnd2 ) );
; 2646 : #endif
; 2647 :     case T_OP_BRACKET:
; 2648 : 
; 2649 :         if ( opnd1->kind == EXPR_EMPTY ) {

	mov	rax, QWORD PTR opnd1$[rsp]
	cmp	DWORD PTR [rax+60], -2
	jne	SHORT $LN23@calculate

; 2650 :             DebugMsg1(("%u calculate(%s): single item\n", evallvl, oper->string_ptr ));

	mov	rax, QWORD PTR oper$[rsp]
	mov	r8, QWORD PTR [rax+8]
	mov	edx, DWORD PTR evallvl
	lea	rcx, OFFSET FLAT:$SG12139
	call	DoDebugMsg1

; 2651 :             TokenAssign( opnd1, opnd2 );

	mov	rdx, QWORD PTR opnd2$[rsp]
	mov	rcx, QWORD PTR opnd1$[rsp]
	call	TokenAssign

; 2652 :             opnd1->type = opnd2->type;

	mov	rax, QWORD PTR opnd1$[rsp]
	mov	rcx, QWORD PTR opnd2$[rsp]
	mov	rcx, QWORD PTR [rcx+96]
	mov	QWORD PTR [rax+96], rcx

; 2653 :             break;

	jmp	$LN2@calculate
$LN23@calculate:

; 2654 :         }
; 2655 :         /* v2.03: make HJWasm reject syntax variants
; 2656 :          * "mov eax, DWORD (<label>)"
; 2657 :          */
; 2658 :         if ( opnd1->is_type == TRUE && opnd2->kind == EXPR_ADDR ) {

	mov	rax, QWORD PTR opnd1$[rsp]
	mov	eax, DWORD PTR [rax+72]
	shr	eax, 3
	and	eax, 1
	cmp	eax, 1
	jne	SHORT $LN24@calculate
	mov	rax, QWORD PTR opnd2$[rsp]
	cmp	DWORD PTR [rax+60], 1
	jne	SHORT $LN24@calculate

; 2659 :             DebugMsg(("calculate(%s): incompatible usage of (simple) type\n", oper->string_ptr ));

	mov	rax, QWORD PTR oper$[rsp]
	mov	rdx, QWORD PTR [rax+8]
	lea	rcx, OFFSET FLAT:$SG12141
	call	DoDebugMsg

; 2660 :             return( fnEmitErr( SYNTAX_ERROR_IN_EXPRESSION ) );

	mov	ecx, 264				; 00000108H
	call	QWORD PTR fnEmitErr
	jmp	$LN1@calculate
$LN24@calculate:

; 2661 :         }
; 2662 : 
; 2663 :         /* v2.08: moved here from get_operand() */
; 2664 :         if ( opnd1->base_reg && opnd1->base_reg->tokval == T_ST )

	mov	rax, QWORD PTR opnd1$[rsp]
	cmp	QWORD PTR [rax+24], 0
	je	SHORT $LN25@calculate
	mov	rax, QWORD PTR opnd1$[rsp]
	mov	rax, QWORD PTR [rax+24]
	cmp	DWORD PTR [rax+16], 31
	jne	SHORT $LN25@calculate

; 2665 :             return( check_streg( opnd1, opnd2 ) );

	mov	rdx, QWORD PTR opnd2$[rsp]
	mov	rcx, QWORD PTR opnd1$[rsp]
	call	check_streg
	jmp	$LN1@calculate
$LN25@calculate:

; 2666 : 
; 2667 :         DebugMsg1(("calculate(%s): calling plus_op()\n", oper->string_ptr ));

	mov	rax, QWORD PTR oper$[rsp]
	mov	rdx, QWORD PTR [rax+8]
	lea	rcx, OFFSET FLAT:$SG12143
	call	DoDebugMsg1

; 2668 : #ifdef DEBUG_OUT
; 2669 :         if ( plus_op( opnd1, opnd2 ) == ERROR )

	mov	rdx, QWORD PTR opnd2$[rsp]
	mov	rcx, QWORD PTR opnd1$[rsp]
	call	plus_op
	cmp	eax, -1
	jne	SHORT $LN26@calculate

; 2670 :             return( ERROR );

	mov	eax, -1
	jmp	$LN1@calculate
$LN26@calculate:

; 2671 :         break;

	jmp	$LN2@calculate
$LN27@calculate:

; 2672 : #else
; 2673 :         return( plus_op( opnd1, opnd2 ) );
; 2674 : #endif
; 2675 :     case '+':
; 2676 :         if ( oper->specval == UNARY_PLUSMINUS ) /* unary op? */

	mov	rax, QWORD PTR oper$[rsp]
	movsx	eax, BYTE PTR [rax+1]
	test	eax, eax
	jne	SHORT $LN28@calculate

; 2677 :             return( positive_op( opnd1, opnd2 ) );

	mov	rdx, QWORD PTR opnd2$[rsp]
	mov	rcx, QWORD PTR opnd1$[rsp]
	call	positive_op
	jmp	$LN1@calculate
$LN28@calculate:

; 2678 : #ifdef DEBUG_OUT
; 2679 :         if ( plus_op( opnd1, opnd2 ) == ERROR )

	mov	rdx, QWORD PTR opnd2$[rsp]
	mov	rcx, QWORD PTR opnd1$[rsp]
	call	plus_op
	cmp	eax, -1
	jne	SHORT $LN29@calculate

; 2680 :             return( ERROR );

	mov	eax, -1
	jmp	$LN1@calculate
$LN29@calculate:

; 2681 :         break;

	jmp	$LN2@calculate
$LN30@calculate:

; 2682 : #else
; 2683 :         return( plus_op( opnd1, opnd2 ) );
; 2684 : #endif
; 2685 :     case '-':
; 2686 :         if ( oper->specval == UNARY_PLUSMINUS ) /* unary op? */

	mov	rax, QWORD PTR oper$[rsp]
	movsx	eax, BYTE PTR [rax+1]
	test	eax, eax
	jne	SHORT $LN31@calculate

; 2687 :             return( negative_op( opnd1, opnd2 ) );

	mov	rdx, QWORD PTR opnd2$[rsp]
	mov	rcx, QWORD PTR opnd1$[rsp]
	call	negative_op
	jmp	$LN1@calculate
$LN31@calculate:

; 2688 : #ifdef DEBUG_OUT
; 2689 :         if ( minus_op( opnd1, opnd2 ) == ERROR )

	mov	rdx, QWORD PTR opnd2$[rsp]
	mov	rcx, QWORD PTR opnd1$[rsp]
	call	minus_op
	cmp	eax, -1
	jne	SHORT $LN32@calculate

; 2690 :             return( ERROR );

	mov	eax, -1
	jmp	$LN1@calculate
$LN32@calculate:

; 2691 :         break;

	jmp	$LN2@calculate
$LN33@calculate:

; 2692 : #else
; 2693 :         return( minus_op( opnd1, opnd2 ) );
; 2694 : #endif
; 2695 :     case T_DOT:
; 2696 : #ifdef DEBUG_OUT
; 2697 :         if ( dot_op( opnd1, opnd2 ) == ERROR )

	mov	rdx, QWORD PTR opnd2$[rsp]
	mov	rcx, QWORD PTR opnd1$[rsp]
	call	dot_op
	cmp	eax, -1
	jne	SHORT $LN34@calculate

; 2698 :             return( ERROR );

	mov	eax, -1
	jmp	$LN1@calculate
$LN34@calculate:

; 2699 :         break;

	jmp	$LN2@calculate
$LN35@calculate:

; 2700 : #else
; 2701 :         return( dot_op( opnd1, opnd2 ) );
; 2702 : #endif
; 2703 :     case T_COLON:
; 2704 : #ifdef DEBUG_OUT
; 2705 :         if ( colon_op( opnd1, opnd2 ) == ERROR )

	mov	rdx, QWORD PTR opnd2$[rsp]
	mov	rcx, QWORD PTR opnd1$[rsp]
	call	colon_op
	cmp	eax, -1
	jne	SHORT $LN36@calculate

; 2706 :             return( ERROR );

	mov	eax, -1
	jmp	$LN1@calculate
$LN36@calculate:

; 2707 :         break;

	jmp	$LN2@calculate
$LN37@calculate:

; 2708 : #else
; 2709 :         return( colon_op( opnd1, opnd2 ) );
; 2710 : #endif
; 2711 :     case '*':
; 2712 :         /*
; 2713 :          * The only formats allowed are:
; 2714 :          *        constant * constant
; 2715 :          *        register * scaling factor ( 1, 2, 4 or 8 )
; 2716 :          *                   386 only
; 2717 :          */
; 2718 :         DebugMsg1(("calculate(*): kind=%d/%d value=%" I64_SPEC "d-%" I64_SPEC "d mbr=%X-%X\n",

	mov	rax, QWORD PTR opnd2$[rsp]
	mov	rax, QWORD PTR [rax+88]
	mov	QWORD PTR [rsp+48], rax
	mov	rax, QWORD PTR opnd1$[rsp]
	mov	rax, QWORD PTR [rax+88]
	mov	QWORD PTR [rsp+40], rax
	mov	rax, QWORD PTR opnd2$[rsp]
	mov	rax, QWORD PTR [rax]
	mov	QWORD PTR [rsp+32], rax
	mov	rax, QWORD PTR opnd1$[rsp]
	mov	r9, QWORD PTR [rax]
	mov	rax, QWORD PTR opnd2$[rsp]
	mov	r8d, DWORD PTR [rax+60]
	mov	rax, QWORD PTR opnd1$[rsp]
	mov	edx, DWORD PTR [rax+60]
	lea	rcx, OFFSET FLAT:$SG12156
	call	DoDebugMsg1

; 2719 :                    opnd1->kind,    opnd2->kind,
; 2720 :                    opnd1->value64, opnd2->value64,
; 2721 :                    opnd1->mbr,     opnd2->mbr ));
; 2722 : 
; 2723 :         MakeConst( opnd1 );

	mov	rcx, QWORD PTR opnd1$[rsp]
	call	MakeConst

; 2724 :         MakeConst( opnd2 );

	mov	rcx, QWORD PTR opnd2$[rsp]
	call	MakeConst

; 2725 : 
; 2726 :         if( check_same( opnd1, opnd2, EXPR_CONST ) ) {

	mov	rax, QWORD PTR opnd1$[rsp]
	cmp	DWORD PTR [rax+60], 0
	jne	SHORT $LN38@calculate
	mov	rax, QWORD PTR opnd2$[rsp]
	cmp	DWORD PTR [rax+60], 0
	jne	SHORT $LN38@calculate

; 2727 :             opnd1->llvalue *= opnd2->llvalue;

	mov	rax, QWORD PTR opnd1$[rsp]
	mov	rcx, QWORD PTR opnd2$[rsp]
	mov	rax, QWORD PTR [rax]
	imul	rax, QWORD PTR [rcx]
	mov	rcx, QWORD PTR opnd1$[rsp]
	mov	QWORD PTR [rcx], rax
	jmp	$LN39@calculate
$LN38@calculate:

; 2728 :         } else if( check_both( opnd1, opnd2, EXPR_REG, EXPR_CONST ) ) {

	xor	r9d, r9d
	mov	r8d, 2
	mov	rdx, QWORD PTR opnd2$[rsp]
	mov	rcx, QWORD PTR opnd1$[rsp]
	call	check_both
	movzx	eax, al
	test	eax, eax
	je	$LN40@calculate

; 2729 :             if( check_direct_reg( opnd1, opnd2 ) == ERROR ) {

	mov	rdx, QWORD PTR opnd2$[rsp]
	mov	rcx, QWORD PTR opnd1$[rsp]
	call	check_direct_reg
	cmp	eax, -1
	jne	SHORT $LN42@calculate

; 2730 :                 DebugMsg(("calculate(*) error direct register\n"));

	lea	rcx, OFFSET FLAT:$SG12162
	call	DoDebugMsg

; 2731 :                 return( fnEmitErr( INVALID_USE_OF_REGISTER ) );

	mov	ecx, 170				; 000000aaH
	call	QWORD PTR fnEmitErr
	jmp	$LN1@calculate
$LN42@calculate:

; 2732 :             }
; 2733 :             /* scaling factor */
; 2734 :             if( opnd2->kind == EXPR_REG ) {

	mov	rax, QWORD PTR opnd2$[rsp]
	cmp	DWORD PTR [rax+60], 2
	jne	SHORT $LN43@calculate

; 2735 :                 /* scale * reg */
; 2736 :                 opnd1->idx_reg = opnd2->base_reg;

	mov	rax, QWORD PTR opnd1$[rsp]
	mov	rcx, QWORD PTR opnd2$[rsp]
	mov	rcx, QWORD PTR [rcx+24]
	mov	QWORD PTR [rax+32], rcx

; 2737 :                 opnd1->scale = opnd1->value;

	mov	rax, QWORD PTR opnd1$[rsp]
	mov	rcx, QWORD PTR opnd1$[rsp]
	movzx	ecx, BYTE PTR [rcx]
	mov	BYTE PTR [rax+68], cl

; 2738 :                 opnd1->value = 0;

	mov	rax, QWORD PTR opnd1$[rsp]
	mov	DWORD PTR [rax], 0

; 2739 :                 //opnd2->base_reg = NULL;
; 2740 :             } else {

	jmp	SHORT $LN44@calculate
$LN43@calculate:

; 2741 :                 /* reg * scale */
; 2742 :                 opnd1->idx_reg = opnd1->base_reg;

	mov	rax, QWORD PTR opnd1$[rsp]
	mov	rcx, QWORD PTR opnd1$[rsp]
	mov	rcx, QWORD PTR [rcx+24]
	mov	QWORD PTR [rax+32], rcx

; 2743 :                 opnd1->scale = opnd2->value;

	mov	rax, QWORD PTR opnd1$[rsp]
	mov	rcx, QWORD PTR opnd2$[rsp]
	movzx	ecx, BYTE PTR [rcx]
	mov	BYTE PTR [rax+68], cl
$LN44@calculate:

; 2744 :             }
; 2745 :             /* v2.08: check 0 (the default value) here */
; 2746 :             if ( opnd1->scale == 0 ) {

	mov	rax, QWORD PTR opnd1$[rsp]
	movzx	eax, BYTE PTR [rax+68]
	test	eax, eax
	jne	SHORT $LN45@calculate

; 2747 :                 return( fnEmitErr( SCALE_FACTOR_MUST_BE_1_2_4_OR_8 ) );

	mov	ecx, 36					; 00000024H
	call	QWORD PTR fnEmitErr
	jmp	$LN1@calculate
$LN45@calculate:

; 2748 :             }
; 2749 : 
; 2750 :             opnd1->base_reg = NULL;

	mov	rax, QWORD PTR opnd1$[rsp]
	mov	QWORD PTR [rax+24], 0

; 2751 :             opnd1->indirect = TRUE;

	mov	rax, QWORD PTR opnd1$[rsp]
	mov	eax, DWORD PTR [rax+72]
	or	eax, 1
	mov	rcx, QWORD PTR opnd1$[rsp]
	mov	DWORD PTR [rcx+72], eax

; 2752 :             opnd1->kind = EXPR_ADDR;

	mov	rax, QWORD PTR opnd1$[rsp]
	mov	DWORD PTR [rax+60], 1

; 2753 :         } else {

	jmp	SHORT $LN41@calculate
$LN40@calculate:

; 2754 :             DebugMsg(("calculate(*) error 2\n"));

	lea	rcx, OFFSET FLAT:$SG12166
	call	DoDebugMsg

; 2755 :             return( ConstError( opnd1, opnd2 ) );

	mov	rdx, QWORD PTR opnd2$[rsp]
	mov	rcx, QWORD PTR opnd1$[rsp]
	call	ConstError
	jmp	$LN1@calculate
$LN41@calculate:
$LN39@calculate:

; 2756 :         }
; 2757 :         break;

	jmp	$LN2@calculate
$LN46@calculate:

; 2758 :     case '/':
; 2759 :         /*
; 2760 :          * The only formats allowed are:
; 2761 :          *        constant / constant
; 2762 :          */
; 2763 :         DebugMsg1(("calculate(/): t1-t2 kind %u-%u values %" I64_SPEC "d-%" I64_SPEC "d\n",

	mov	rax, QWORD PTR opnd2$[rsp]
	mov	rax, QWORD PTR [rax]
	mov	QWORD PTR [rsp+32], rax
	mov	rax, QWORD PTR opnd1$[rsp]
	mov	r9, QWORD PTR [rax]
	mov	rax, QWORD PTR opnd2$[rsp]
	mov	r8d, DWORD PTR [rax+60]
	mov	rax, QWORD PTR opnd1$[rsp]
	mov	edx, DWORD PTR [rax+60]
	lea	rcx, OFFSET FLAT:$SG12168
	call	DoDebugMsg1

; 2764 :                    opnd1->kind,    opnd2->kind,
; 2765 :                    opnd1->value64, opnd2->value64 ));
; 2766 :         MakeConst( opnd1 );

	mov	rcx, QWORD PTR opnd1$[rsp]
	call	MakeConst

; 2767 :         MakeConst( opnd2 );

	mov	rcx, QWORD PTR opnd2$[rsp]
	call	MakeConst

; 2768 : 
; 2769 :         if( check_same( opnd1, opnd2, EXPR_CONST ) == FALSE ) {

	mov	rax, QWORD PTR opnd1$[rsp]
	cmp	DWORD PTR [rax+60], 0
	jne	SHORT $LN139@calculate
	mov	rax, QWORD PTR opnd2$[rsp]
	cmp	DWORD PTR [rax+60], 0
	jne	SHORT $LN139@calculate
	mov	DWORD PTR tv322[rsp], 1
	jmp	SHORT $LN140@calculate
$LN139@calculate:
	mov	DWORD PTR tv322[rsp], 0
$LN140@calculate:
	cmp	DWORD PTR tv322[rsp], 0
	jne	SHORT $LN47@calculate

; 2770 :             DebugMsg(("calculate(/) error 1\n"));

	lea	rcx, OFFSET FLAT:$SG12170
	call	DoDebugMsg

; 2771 :             return( ConstError( opnd1, opnd2 ) );

	mov	rdx, QWORD PTR opnd2$[rsp]
	mov	rcx, QWORD PTR opnd1$[rsp]
	call	ConstError
	jmp	$LN1@calculate
$LN47@calculate:

; 2772 :         }
; 2773 : 
; 2774 :         if ( opnd2->llvalue == 0 ) {

	mov	rax, QWORD PTR opnd2$[rsp]
	cmp	QWORD PTR [rax], 0
	jne	SHORT $LN48@calculate

; 2775 :             DebugMsg(("calculate(/) error 2\n"));

	lea	rcx, OFFSET FLAT:$SG12172
	call	DoDebugMsg

; 2776 :             return( fnEmitErr( DIVIDE_BY_ZERO_IN_EXPR ) );

	mov	ecx, 167				; 000000a7H
	call	QWORD PTR fnEmitErr
	jmp	$LN1@calculate
$LN48@calculate:

; 2777 :         }
; 2778 : 
; 2779 :         opnd1->value64 /= opnd2->value64;

	mov	rax, QWORD PTR opnd1$[rsp]
	mov	rax, QWORD PTR [rax]
	cdq
	mov	rcx, QWORD PTR opnd2$[rsp]
	idiv	QWORD PTR [rcx]
	mov	rcx, QWORD PTR opnd1$[rsp]
	mov	QWORD PTR [rcx], rax

; 2780 :         break;

	jmp	$LN2@calculate
$LN49@calculate:

; 2781 :     case T_BINARY_OPERATOR:
; 2782 :         DebugMsg1(("calculate(%s [T_BINARY_OPERATOR] ): t1-t2 kind %d/%d memtype %X-%X sym %s-%s type %s-%s\n",

	mov	rax, QWORD PTR opnd2$[rsp]
	cmp	QWORD PTR [rax+96], 0
	je	SHORT $LN141@calculate
	mov	rax, QWORD PTR opnd2$[rsp]
	mov	rax, QWORD PTR [rax+96]
	mov	rax, QWORD PTR [rax+8]
	mov	QWORD PTR tv341[rsp], rax
	jmp	SHORT $LN142@calculate
$LN141@calculate:
	lea	rax, OFFSET FLAT:$SG12174
	mov	QWORD PTR tv341[rsp], rax
$LN142@calculate:
	mov	rax, QWORD PTR opnd1$[rsp]
	cmp	QWORD PTR [rax+96], 0
	je	SHORT $LN143@calculate
	mov	rax, QWORD PTR opnd1$[rsp]
	mov	rax, QWORD PTR [rax+96]
	mov	rax, QWORD PTR [rax+8]
	mov	QWORD PTR tv347[rsp], rax
	jmp	SHORT $LN144@calculate
$LN143@calculate:
	lea	rax, OFFSET FLAT:$SG12175
	mov	QWORD PTR tv347[rsp], rax
$LN144@calculate:
	mov	rax, QWORD PTR opnd2$[rsp]
	cmp	QWORD PTR [rax+80], 0
	je	SHORT $LN145@calculate
	mov	rax, QWORD PTR opnd2$[rsp]
	mov	rax, QWORD PTR [rax+80]
	mov	rax, QWORD PTR [rax+8]
	mov	QWORD PTR tv353[rsp], rax
	jmp	SHORT $LN146@calculate
$LN145@calculate:
	lea	rax, OFFSET FLAT:$SG12176
	mov	QWORD PTR tv353[rsp], rax
$LN146@calculate:
	mov	rax, QWORD PTR opnd1$[rsp]
	cmp	QWORD PTR [rax+80], 0
	je	SHORT $LN147@calculate
	mov	rax, QWORD PTR opnd1$[rsp]
	mov	rax, QWORD PTR [rax+80]
	mov	rax, QWORD PTR [rax+8]
	mov	QWORD PTR tv359[rsp], rax
	jmp	SHORT $LN148@calculate
$LN147@calculate:
	lea	rax, OFFSET FLAT:$SG12177
	mov	QWORD PTR tv359[rsp], rax
$LN148@calculate:
	mov	rax, QWORD PTR tv341[rsp]
	mov	QWORD PTR [rsp+72], rax
	mov	rax, QWORD PTR tv347[rsp]
	mov	QWORD PTR [rsp+64], rax
	mov	rax, QWORD PTR tv353[rsp]
	mov	QWORD PTR [rsp+56], rax
	mov	rax, QWORD PTR tv359[rsp]
	mov	QWORD PTR [rsp+48], rax
	mov	rax, QWORD PTR opnd2$[rsp]
	mov	eax, DWORD PTR [rax+64]
	mov	DWORD PTR [rsp+40], eax
	mov	rax, QWORD PTR opnd1$[rsp]
	mov	eax, DWORD PTR [rax+64]
	mov	DWORD PTR [rsp+32], eax
	mov	rax, QWORD PTR opnd2$[rsp]
	mov	r9d, DWORD PTR [rax+60]
	mov	rax, QWORD PTR opnd1$[rsp]
	mov	r8d, DWORD PTR [rax+60]
	mov	rax, QWORD PTR oper$[rsp]
	mov	rdx, QWORD PTR [rax+8]
	lea	rcx, OFFSET FLAT:$SG12178
	call	DoDebugMsg1

; 2783 :                    oper->string_ptr,
; 2784 :                    opnd1->kind, opnd2->kind,
; 2785 :                    opnd1->mem_type, opnd2->mem_type,
; 2786 :                    opnd1->sym  ? opnd1->sym->name  : "NULL",
; 2787 :                    opnd2->sym  ? opnd2->sym->name  : "NULL",
; 2788 :                    opnd1->type ? opnd1->type->name : "NULL",
; 2789 :                    opnd2->type ? opnd2->type->name : "NULL" ));
; 2790 : 
; 2791 :         if ( oper->tokval == T_PTR ) {

	mov	rax, QWORD PTR oper$[rsp]
	cmp	DWORD PTR [rax+16], 258			; 00000102H
	jne	$LN50@calculate

; 2792 :             if ( opnd1->is_type == FALSE ) {

	mov	rax, QWORD PTR opnd1$[rsp]
	mov	eax, DWORD PTR [rax+72]
	shr	eax, 3
	and	eax, 1
	test	eax, eax
	jne	$LN51@calculate

; 2793 :                 if ( opnd1->sym && opnd1->sym->state == SYM_UNDEFINED ) {

	mov	rax, QWORD PTR opnd1$[rsp]
	cmp	QWORD PTR [rax+80], 0
	je	SHORT $LN52@calculate
	mov	rax, QWORD PTR opnd1$[rsp]
	mov	rax, QWORD PTR [rax+80]
	cmp	DWORD PTR [rax+32], 0
	jne	SHORT $LN52@calculate

; 2794 :                     CreateTypeSymbol( opnd1->sym, NULL, TRUE );

	mov	r8b, 1
	xor	edx, edx
	mov	rax, QWORD PTR opnd1$[rsp]
	mov	rcx, QWORD PTR [rax+80]
	call	CreateTypeSymbol

; 2795 :                     opnd1->type = opnd1->sym;

	mov	rax, QWORD PTR opnd1$[rsp]
	mov	rcx, QWORD PTR opnd1$[rsp]
	mov	rcx, QWORD PTR [rcx+80]
	mov	QWORD PTR [rax+96], rcx

; 2796 :                     opnd1->sym = NULL;

	mov	rax, QWORD PTR opnd1$[rsp]
	mov	QWORD PTR [rax+80], 0

; 2797 :                     opnd1->is_type = TRUE;

	mov	rax, QWORD PTR opnd1$[rsp]
	mov	eax, DWORD PTR [rax+72]
	or	eax, 8
	mov	rcx, QWORD PTR opnd1$[rsp]
	mov	DWORD PTR [rcx+72], eax

; 2798 :                 } else {

	jmp	SHORT $LN53@calculate
$LN52@calculate:

; 2799 :                     DebugMsg(("calculate(PTR), error 1: t1 is_type == FALSE\n"));

	lea	rcx, OFFSET FLAT:$SG12183
	call	DoDebugMsg

; 2800 :                     return( fnEmitErr( INVALID_TYPE_EXPRESSION ) );

	mov	ecx, 179				; 000000b3H
	call	QWORD PTR fnEmitErr
	jmp	$LN1@calculate
$LN53@calculate:
$LN51@calculate:

; 2801 :                 }
; 2802 :             }
; 2803 :             opnd2->explicit = TRUE;

	mov	rax, QWORD PTR opnd2$[rsp]
	mov	eax, DWORD PTR [rax+72]
	or	eax, 2
	mov	rcx, QWORD PTR opnd2$[rsp]
	mov	DWORD PTR [rcx+72], eax

; 2804 :             /* v2.02: if operand is a register, make sure
; 2805 :              * that invalid combinations ("DWORD PTR AX") are flagged.
; 2806 :              *
; 2807 :              * v2.10: must also be checked inside []. However, it's
; 2808 :              * a problem to properly handle this case, since opnd->indirect
; 2809 :              * is just a flag.
; 2810 :              * Curr. hackish fix: to query state of assumecheck if indirect==TRUE.
; 2811 :              * Proposed "good" fix: change EXPR_REG to EXPR_ADDR in
; 2812 :              * CheckAssume(), that is, when the terminating  ']' was found.
; 2813 :              */
; 2814 :             //if ( opnd2->kind == EXPR_REG && opnd2->indirect == FALSE ) {
; 2815 :             if ( opnd2->kind == EXPR_REG && ( opnd2->indirect == FALSE || opnd2->assumecheck == TRUE ) ) {

	mov	rax, QWORD PTR opnd2$[rsp]
	cmp	DWORD PTR [rax+60], 2
	jne	$LN54@calculate
	mov	rax, QWORD PTR opnd2$[rsp]
	mov	eax, DWORD PTR [rax+72]
	and	eax, 1
	test	eax, eax
	je	SHORT $LN56@calculate
	mov	rax, QWORD PTR opnd2$[rsp]
	mov	eax, DWORD PTR [rax+72]
	shr	eax, 6
	and	eax, 1
	cmp	eax, 1
	jne	$LN54@calculate
$LN56@calculate:

; 2816 :                 temp = opnd2->base_reg->tokval;

	mov	rax, QWORD PTR opnd2$[rsp]
	mov	rax, QWORD PTR [rax+24]
	mov	eax, DWORD PTR [rax+16]
	mov	DWORD PTR temp$[rsp], eax

; 2817 :                 /* for segment registers, both size 2 and 4 is ok.*/
; 2818 :                 if ( GetValueSp( temp ) & OP_SR ) {

	movsxd	rax, DWORD PTR temp$[rsp]
	imul	rax, rax, 12
	lea	rcx, OFFSET FLAT:SpecialTable
	mov	eax, DWORD PTR [rcx+rax]
	and	eax, 24576				; 00006000H
	test	eax, eax
	je	SHORT $LN57@calculate

; 2819 :                     if ( opnd1->value != 2 && opnd1->value != 4 ) {

	mov	rax, QWORD PTR opnd1$[rsp]
	cmp	DWORD PTR [rax], 2
	je	SHORT $LN59@calculate
	mov	rax, QWORD PTR opnd1$[rsp]
	cmp	DWORD PTR [rax], 4
	je	SHORT $LN59@calculate

; 2820 :                         DebugMsg(("calculate(PTR): segment register size (=2/4) doesn't match type size (=%u)\n", opnd1->value ));

	mov	rax, QWORD PTR opnd1$[rsp]
	mov	edx, DWORD PTR [rax]
	lea	rcx, OFFSET FLAT:$SG12190
	call	DoDebugMsg

; 2821 :                         return( fnEmitErr( INVALID_USE_OF_REGISTER ) );

	mov	ecx, 170				; 000000aaH
	call	QWORD PTR fnEmitErr
	jmp	$LN1@calculate
$LN59@calculate:

; 2822 :                     }

	jmp	SHORT $LN58@calculate
$LN57@calculate:

; 2823 :                 } else if ( opnd1->value != SizeFromRegister( temp ) ) {

	mov	ecx, DWORD PTR temp$[rsp]
	call	SizeFromRegister
	mov	rcx, QWORD PTR opnd1$[rsp]
	cmp	DWORD PTR [rcx], eax
	je	SHORT $LN60@calculate

; 2824 :                     DebugMsg(("calculate(PTR): register size doesn't match type size; %u != %u\n", SizeFromRegister( temp ), opnd1->value ));

	mov	ecx, DWORD PTR temp$[rsp]
	call	SizeFromRegister
	mov	rcx, QWORD PTR opnd1$[rsp]
	mov	r8d, DWORD PTR [rcx]
	mov	edx, eax
	lea	rcx, OFFSET FLAT:$SG12192
	call	DoDebugMsg

; 2825 :                     return( fnEmitErr( INVALID_USE_OF_REGISTER ) );

	mov	ecx, 170				; 000000aaH
	call	QWORD PTR fnEmitErr
	jmp	$LN1@calculate
$LN60@calculate:
$LN58@calculate:

; 2826 :                 }

	jmp	SHORT $LN55@calculate
$LN54@calculate:

; 2827 :             } else if ( opnd2->kind == EXPR_FLOAT ) {

	mov	rax, QWORD PTR opnd2$[rsp]
	cmp	DWORD PTR [rax+60], 3
	jne	SHORT $LN61@calculate

; 2828 :                 if ( !( opnd1->mem_type & MT_FLOAT ) ) {

	mov	rax, QWORD PTR opnd1$[rsp]
	mov	eax, DWORD PTR [rax+64]
	and	eax, 32					; 00000020H
	test	eax, eax
	jne	SHORT $LN62@calculate

; 2829 :                     DebugMsg(("calculate(PTR): type memtype=%Xh ( MT_FLOAT not set, although right op is FLOAT )\n", opnd1->mem_type ));

	mov	rax, QWORD PTR opnd1$[rsp]
	mov	edx, DWORD PTR [rax+64]
	lea	rcx, OFFSET FLAT:$SG12195
	call	DoDebugMsg

; 2830 :                     return( fnEmitErr( REAL_OR_BCD_NUMBER_NOT_ALLOWED ) );

	mov	ecx, 271				; 0000010fH
	call	QWORD PTR fnEmitErr
	jmp	$LN1@calculate
$LN62@calculate:
$LN61@calculate:
$LN55@calculate:

; 2831 :                 }
; 2832 :             }
; 2833 :             opnd2->mem_type = opnd1->mem_type;

	mov	rax, QWORD PTR opnd2$[rsp]
	mov	rcx, QWORD PTR opnd1$[rsp]
	mov	ecx, DWORD PTR [rcx+64]
	mov	DWORD PTR [rax+64], ecx

; 2834 :             opnd2->Ofssize  = opnd1->Ofssize;

	mov	rax, QWORD PTR opnd2$[rsp]
	mov	rcx, QWORD PTR opnd1$[rsp]
	movzx	ecx, BYTE PTR [rcx+69]
	mov	BYTE PTR [rax+69], cl

; 2835 :             /* v2.04: added */
; 2836 :             if ( opnd2->is_type )

	mov	rax, QWORD PTR opnd2$[rsp]
	mov	eax, DWORD PTR [rax+72]
	shr	eax, 3
	and	eax, 1
	test	eax, eax
	je	SHORT $LN63@calculate

; 2837 :                 opnd2->value  = opnd1->value;

	mov	rax, QWORD PTR opnd2$[rsp]
	mov	rcx, QWORD PTR opnd1$[rsp]
	mov	ecx, DWORD PTR [rcx]
	mov	DWORD PTR [rax], ecx
$LN63@calculate:

; 2838 : 
; 2839 :             /* todo: describe which case is handled here. How is the left
; 2840 :              * operand of PTR supposed to get an override? And why is
; 2841 :              * it necessary to change kind to EXPR_ADDR here? */
; 2842 :             if ( opnd1->override != NULL ) {

	mov	rax, QWORD PTR opnd1$[rsp]
	cmp	QWORD PTR [rax+48], 0
	je	SHORT $LN64@calculate

; 2843 :                 if ( opnd2->override == NULL )

	mov	rax, QWORD PTR opnd2$[rsp]
	cmp	QWORD PTR [rax+48], 0
	jne	SHORT $LN65@calculate

; 2844 :                     opnd2->override = opnd1->override;

	mov	rax, QWORD PTR opnd2$[rsp]
	mov	rcx, QWORD PTR opnd1$[rsp]
	mov	rcx, QWORD PTR [rcx+48]
	mov	QWORD PTR [rax+48], rcx
$LN65@calculate:

; 2845 :                 opnd2->kind = EXPR_ADDR;

	mov	rax, QWORD PTR opnd2$[rsp]
	mov	DWORD PTR [rax+60], 1
$LN64@calculate:

; 2846 :             }
; 2847 :             //if ( opnd1->mbr )
; 2848 :             //    opnd2->mbr = opnd1->mbr;
; 2849 :             //if ( opnd1->sym )
; 2850 :             //    opnd2->sym = opnd1->sym;
; 2851 :             //opnd2->instr = opnd1->instr;
; 2852 : 
; 2853 :             /* note: member type isn't copied, IOW: value of opnd1->type is kept. */
; 2854 :             TokenAssign( opnd1, opnd2 );

	mov	rdx, QWORD PTR opnd2$[rsp]
	mov	rcx, QWORD PTR opnd1$[rsp]
	call	TokenAssign

; 2855 :             break;

	jmp	$LN2@calculate
$LN50@calculate:

; 2856 :         }
; 2857 : 
; 2858 :         MakeConst( opnd1 );

	mov	rcx, QWORD PTR opnd1$[rsp]
	call	MakeConst

; 2859 :         MakeConst( opnd2 );

	mov	rcx, QWORD PTR opnd2$[rsp]
	call	MakeConst

; 2860 : 
; 2861 :         if ( check_same( opnd1, opnd2, EXPR_CONST ) )

	mov	rax, QWORD PTR opnd1$[rsp]
	cmp	DWORD PTR [rax+60], 0
	jne	SHORT $LN66@calculate
	mov	rax, QWORD PTR opnd2$[rsp]
	cmp	DWORD PTR [rax+60], 0
	jne	SHORT $LN66@calculate

; 2862 :             ;

	jmp	$LN67@calculate
$LN66@calculate:

; 2863 :         /* if it's EQ, NE, LE [, ...], operands may be either constants
; 2864 :          or relocatable labels */
; 2865 :         else if ( oper->precedence == CMP_PRECEDENCE &&

	mov	rax, QWORD PTR oper$[rsp]
	movzx	eax, BYTE PTR [rax+1]
	cmp	eax, 10
	jne	$LN68@calculate
	mov	rax, QWORD PTR opnd1$[rsp]
	cmp	DWORD PTR [rax+60], 0
	je	$LN68@calculate

; 2866 :                  opnd1->kind != EXPR_CONST ) {
; 2867 :             if ( opnd1->kind == EXPR_ADDR && opnd1->indirect == FALSE && opnd1->sym )

	mov	rax, QWORD PTR opnd1$[rsp]
	cmp	DWORD PTR [rax+60], 1
	jne	$LN70@calculate
	mov	rax, QWORD PTR opnd1$[rsp]
	mov	eax, DWORD PTR [rax+72]
	and	eax, 1
	test	eax, eax
	jne	$LN70@calculate
	mov	rax, QWORD PTR opnd1$[rsp]
	cmp	QWORD PTR [rax+80], 0
	je	$LN70@calculate

; 2868 :                 if ( opnd2->kind == EXPR_ADDR && opnd2->indirect == FALSE && opnd2->sym ) {

	mov	rax, QWORD PTR opnd2$[rsp]
	cmp	DWORD PTR [rax+60], 1
	jne	SHORT $LN72@calculate
	mov	rax, QWORD PTR opnd2$[rsp]
	mov	eax, DWORD PTR [rax+72]
	and	eax, 1
	test	eax, eax
	jne	SHORT $LN72@calculate
	mov	rax, QWORD PTR opnd2$[rsp]
	cmp	QWORD PTR [rax+80], 0
	je	SHORT $LN72@calculate

; 2869 :                     if ( MakeConst2( opnd1, opnd2 ) == ERROR ) {

	mov	rdx, QWORD PTR opnd2$[rsp]
	mov	rcx, QWORD PTR opnd1$[rsp]
	call	MakeConst2
	cmp	eax, -1
	jne	SHORT $LN74@calculate

; 2870 :                         DebugMsg(("calculate(%s) error 1\n", oper->string_ptr ));

	mov	rax, QWORD PTR oper$[rsp]
	mov	rdx, QWORD PTR [rax+8]
	lea	rcx, OFFSET FLAT:$SG12208
	call	DoDebugMsg

; 2871 :                         return( ERROR );

	mov	eax, -1
	jmp	$LN1@calculate
$LN74@calculate:

; 2872 :                     }
; 2873 :                 } else {

	jmp	$LN73@calculate
$LN72@calculate:

; 2874 :                     DebugMsg(("calculate(%s) error 2, token2.kind=%d indirect=%u sym=%s\n",

	mov	rax, QWORD PTR opnd2$[rsp]
	cmp	QWORD PTR [rax+80], 0
	je	SHORT $LN149@calculate
	mov	rax, QWORD PTR opnd2$[rsp]
	mov	rax, QWORD PTR [rax+80]
	mov	rax, QWORD PTR [rax+8]
	mov	QWORD PTR tv502[rsp], rax
	jmp	SHORT $LN150@calculate
$LN149@calculate:
	lea	rax, OFFSET FLAT:$SG12209
	mov	QWORD PTR tv502[rsp], rax
$LN150@calculate:
	mov	rax, QWORD PTR opnd2$[rsp]
	mov	eax, DWORD PTR [rax+72]
	and	eax, 1
	mov	rcx, QWORD PTR tv502[rsp]
	mov	QWORD PTR [rsp+32], rcx
	mov	r9d, eax
	mov	rax, QWORD PTR opnd2$[rsp]
	mov	r8d, DWORD PTR [rax+60]
	mov	rax, QWORD PTR oper$[rsp]
	mov	rdx, QWORD PTR [rax+8]
	lea	rcx, OFFSET FLAT:$SG12210
	call	DoDebugMsg

; 2875 :                               oper->string_ptr, opnd2->kind, opnd2->indirect,
; 2876 :                               opnd2->sym ? opnd2->sym->name : "NULL" ));
; 2877 :                     return( fnEmitErr( OPERAND_MUST_BE_RELOCATABLE ) );

	mov	ecx, 188				; 000000bcH
	call	QWORD PTR fnEmitErr
	jmp	$LN1@calculate
$LN73@calculate:

; 2878 :                 }

	jmp	SHORT $LN71@calculate
$LN70@calculate:

; 2879 :             else {
; 2880 :                 DebugMsg(("calculate(%s) error 3\n", oper->string_ptr ));

	mov	rax, QWORD PTR oper$[rsp]
	mov	rdx, QWORD PTR [rax+8]
	lea	rcx, OFFSET FLAT:$SG12211
	call	DoDebugMsg

; 2881 :                 return( fnEmitErr( CONSTANT_OR_RELOCATABLE_LABEL_EXPECTED ) );

	mov	ecx, 189				; 000000bdH
	call	QWORD PTR fnEmitErr
	jmp	$LN1@calculate
$LN71@calculate:

; 2882 :             }
; 2883 :         } else {

	jmp	SHORT $LN69@calculate
$LN68@calculate:

; 2884 :             DebugMsg(("calculate(%s) error 4\n", oper->string_ptr ));

	mov	rax, QWORD PTR oper$[rsp]
	mov	rdx, QWORD PTR [rax+8]
	lea	rcx, OFFSET FLAT:$SG12212
	call	DoDebugMsg

; 2885 :             return( ConstError( opnd1, opnd2 ) );

	mov	rdx, QWORD PTR opnd2$[rsp]
	mov	rcx, QWORD PTR opnd1$[rsp]
	call	ConstError
	jmp	$LN1@calculate
$LN69@calculate:
$LN67@calculate:

; 2886 :         }
; 2887 : 
; 2888 :         DebugMsg1(("calculate(%s): values=%" I64_SPEC "d/%" I64_SPEC "d is_type=%u/%u memtypes=%X/%X\n", oper->string_ptr,

	mov	rax, QWORD PTR opnd2$[rsp]
	mov	eax, DWORD PTR [rax+72]
	shr	eax, 3
	and	eax, 1
	mov	rcx, QWORD PTR opnd1$[rsp]
	mov	ecx, DWORD PTR [rcx+72]
	shr	ecx, 3
	and	ecx, 1
	mov	rdx, QWORD PTR opnd2$[rsp]
	mov	edx, DWORD PTR [rdx+64]
	mov	DWORD PTR [rsp+56], edx
	mov	rdx, QWORD PTR opnd1$[rsp]
	mov	edx, DWORD PTR [rdx+64]
	mov	DWORD PTR [rsp+48], edx
	mov	DWORD PTR [rsp+40], eax
	mov	DWORD PTR [rsp+32], ecx
	mov	rax, QWORD PTR opnd2$[rsp]
	mov	r9, QWORD PTR [rax]
	mov	rax, QWORD PTR opnd1$[rsp]
	mov	r8, QWORD PTR [rax]
	mov	rax, QWORD PTR oper$[rsp]
	mov	rdx, QWORD PTR [rax+8]
	lea	rcx, OFFSET FLAT:$SG12213
	call	DoDebugMsg1

; 2889 :                    opnd1->value64, opnd2->value64, opnd1->is_type, opnd2->is_type, opnd1->mem_type, opnd2->mem_type  ));
; 2890 :         switch( oper->tokval ) {

	mov	rax, QWORD PTR oper$[rsp]
	mov	eax, DWORD PTR [rax+16]
	mov	DWORD PTR tv545[rsp], eax
	cmp	DWORD PTR tv545[rsp], 506		; 000001faH
	ja	SHORT $LN163@calculate
	cmp	DWORD PTR tv545[rsp], 506		; 000001faH
	je	$LN100@calculate
	mov	eax, DWORD PTR tv545[rsp]
	sub	eax, 251				; 000000fbH
	mov	DWORD PTR tv545[rsp], eax
	cmp	DWORD PTR tv545[rsp], 6
	ja	$LN4@calculate
	mov	eax, DWORD PTR tv545[rsp]
	lea	rcx, OFFSET FLAT:__ImageBase
	mov	eax, DWORD PTR $LN178@calculate[rcx+rax*4]
	add	rax, rcx
	jmp	rax
$LN163@calculate:
	cmp	DWORD PTR tv545[rsp], 509		; 000001fdH
	je	$LN99@calculate
	cmp	DWORD PTR tv545[rsp], 511		; 000001ffH
	je	$LN101@calculate
	cmp	DWORD PTR tv545[rsp], 519		; 00000207H
	je	$LN88@calculate
	cmp	DWORD PTR tv545[rsp], 520		; 00000208H
	je	$LN94@calculate
	jmp	$LN4@calculate
$LN75@calculate:

; 2891 :         case T_EQ:
; 2892 : #if 1 /* v2.03: added */
; 2893 :             /* if both operands are types, do a more comprehensive comparison! */
; 2894 :             if ( opnd1->is_type && opnd2->is_type ) {

	mov	rax, QWORD PTR opnd1$[rsp]
	mov	eax, DWORD PTR [rax+72]
	shr	eax, 3
	and	eax, 1
	test	eax, eax
	je	SHORT $LN76@calculate
	mov	rax, QWORD PTR opnd2$[rsp]
	mov	eax, DWORD PTR [rax+72]
	shr	eax, 3
	and	eax, 1
	test	eax, eax
	je	SHORT $LN76@calculate

; 2895 :                 cmp_types( opnd1, opnd2, -1 );

	mov	r8d, -1
	mov	rdx, QWORD PTR opnd2$[rsp]
	mov	rcx, QWORD PTR opnd1$[rsp]
	call	cmp_types

; 2896 :             } else

	jmp	SHORT $LN77@calculate
$LN76@calculate:

; 2897 : #endif
; 2898 :             opnd1->value64 = ( opnd1->value64 == opnd2->value64 ? -1:0 );

	mov	rax, QWORD PTR opnd1$[rsp]
	mov	rcx, QWORD PTR opnd2$[rsp]
	mov	rcx, QWORD PTR [rcx]
	cmp	QWORD PTR [rax], rcx
	jne	SHORT $LN151@calculate
	mov	DWORD PTR tv561[rsp], -1
	jmp	SHORT $LN152@calculate
$LN151@calculate:
	mov	DWORD PTR tv561[rsp], 0
$LN152@calculate:
	movsxd	rax, DWORD PTR tv561[rsp]
	mov	rcx, QWORD PTR opnd1$[rsp]
	mov	QWORD PTR [rcx], rax
$LN77@calculate:

; 2899 :             break;

	jmp	$LN4@calculate
$LN78@calculate:

; 2900 :         case T_NE:
; 2901 : #if 1 /* v2.03: added */
; 2902 :             /* if both operands are types, do a more comprehensive comparison! */
; 2903 :             if ( opnd1->is_type && opnd2->is_type ) {

	mov	rax, QWORD PTR opnd1$[rsp]
	mov	eax, DWORD PTR [rax+72]
	shr	eax, 3
	and	eax, 1
	test	eax, eax
	je	SHORT $LN79@calculate
	mov	rax, QWORD PTR opnd2$[rsp]
	mov	eax, DWORD PTR [rax+72]
	shr	eax, 3
	and	eax, 1
	test	eax, eax
	je	SHORT $LN79@calculate

; 2904 :                 cmp_types( opnd1, opnd2, 0 );

	xor	r8d, r8d
	mov	rdx, QWORD PTR opnd2$[rsp]
	mov	rcx, QWORD PTR opnd1$[rsp]
	call	cmp_types

; 2905 :             } else

	jmp	SHORT $LN80@calculate
$LN79@calculate:

; 2906 : #endif
; 2907 :             opnd1->value64 = ( opnd1->value64 != opnd2->value64 ? -1:0 );

	mov	rax, QWORD PTR opnd1$[rsp]
	mov	rcx, QWORD PTR opnd2$[rsp]
	mov	rcx, QWORD PTR [rcx]
	cmp	QWORD PTR [rax], rcx
	je	SHORT $LN153@calculate
	mov	DWORD PTR tv578[rsp], -1
	jmp	SHORT $LN154@calculate
$LN153@calculate:
	mov	DWORD PTR tv578[rsp], 0
$LN154@calculate:
	movsxd	rax, DWORD PTR tv578[rsp]
	mov	rcx, QWORD PTR opnd1$[rsp]
	mov	QWORD PTR [rcx], rax
$LN80@calculate:

; 2908 :             break;

	jmp	$LN4@calculate
$LN81@calculate:

; 2909 :         case T_LT:
; 2910 :             opnd1->value64 = ( opnd1->value64 <  opnd2->value64 ? -1:0 );

	mov	rax, QWORD PTR opnd1$[rsp]
	mov	rcx, QWORD PTR opnd2$[rsp]
	mov	rcx, QWORD PTR [rcx]
	cmp	QWORD PTR [rax], rcx
	jge	SHORT $LN155@calculate
	mov	DWORD PTR tv584[rsp], -1
	jmp	SHORT $LN156@calculate
$LN155@calculate:
	mov	DWORD PTR tv584[rsp], 0
$LN156@calculate:
	movsxd	rax, DWORD PTR tv584[rsp]
	mov	rcx, QWORD PTR opnd1$[rsp]
	mov	QWORD PTR [rcx], rax

; 2911 :             break;

	jmp	$LN4@calculate
$LN82@calculate:

; 2912 :         case T_LE:
; 2913 :             opnd1->value64 = ( opnd1->value64 <= opnd2->value64 ? -1:0 );

	mov	rax, QWORD PTR opnd1$[rsp]
	mov	rcx, QWORD PTR opnd2$[rsp]
	mov	rcx, QWORD PTR [rcx]
	cmp	QWORD PTR [rax], rcx
	jg	SHORT $LN157@calculate
	mov	DWORD PTR tv590[rsp], -1
	jmp	SHORT $LN158@calculate
$LN157@calculate:
	mov	DWORD PTR tv590[rsp], 0
$LN158@calculate:
	movsxd	rax, DWORD PTR tv590[rsp]
	mov	rcx, QWORD PTR opnd1$[rsp]
	mov	QWORD PTR [rcx], rax

; 2914 :             break;

	jmp	$LN4@calculate
$LN83@calculate:

; 2915 :         case T_GT:
; 2916 :             opnd1->value64 = ( opnd1->value64 >  opnd2->value64 ? -1:0 );

	mov	rax, QWORD PTR opnd1$[rsp]
	mov	rcx, QWORD PTR opnd2$[rsp]
	mov	rcx, QWORD PTR [rcx]
	cmp	QWORD PTR [rax], rcx
	jle	SHORT $LN159@calculate
	mov	DWORD PTR tv596[rsp], -1
	jmp	SHORT $LN160@calculate
$LN159@calculate:
	mov	DWORD PTR tv596[rsp], 0
$LN160@calculate:
	movsxd	rax, DWORD PTR tv596[rsp]
	mov	rcx, QWORD PTR opnd1$[rsp]
	mov	QWORD PTR [rcx], rax

; 2917 :             break;

	jmp	$LN4@calculate
$LN84@calculate:

; 2918 :         case T_GE:
; 2919 :             opnd1->value64 = ( opnd1->value64 >= opnd2->value64 ? -1:0 );

	mov	rax, QWORD PTR opnd1$[rsp]
	mov	rcx, QWORD PTR opnd2$[rsp]
	mov	rcx, QWORD PTR [rcx]
	cmp	QWORD PTR [rax], rcx
	jl	SHORT $LN161@calculate
	mov	DWORD PTR tv602[rsp], -1
	jmp	SHORT $LN162@calculate
$LN161@calculate:
	mov	DWORD PTR tv602[rsp], 0
$LN162@calculate:
	movsxd	rax, DWORD PTR tv602[rsp]
	mov	rcx, QWORD PTR opnd1$[rsp]
	mov	QWORD PTR [rcx], rax

; 2920 :             break;

	jmp	$LN4@calculate
$LN85@calculate:

; 2921 :         case T_MOD:
; 2922 :             if ( opnd2->llvalue == 0 ) {

	mov	rax, QWORD PTR opnd2$[rsp]
	cmp	QWORD PTR [rax], 0
	jne	SHORT $LN86@calculate

; 2923 :                 return( fnEmitErr( DIVIDE_BY_ZERO_IN_EXPR ) );

	mov	ecx, 167				; 000000a7H
	call	QWORD PTR fnEmitErr
	jmp	$LN1@calculate

; 2924 :             } else

	jmp	SHORT $LN87@calculate
$LN86@calculate:

; 2925 :                 opnd1->llvalue %= opnd2->llvalue;

	xor	edx, edx
	mov	rax, QWORD PTR opnd1$[rsp]
	mov	rax, QWORD PTR [rax]
	mov	rcx, QWORD PTR opnd2$[rsp]
	div	QWORD PTR [rcx]
	mov	rax, rdx
	mov	rcx, QWORD PTR opnd1$[rsp]
	mov	QWORD PTR [rcx], rax
$LN87@calculate:

; 2926 :             break;

	jmp	$LN4@calculate
$LN88@calculate:

; 2927 :         case T_SHL:
; 2928 :             /* v2.04: check for shift count < 0 */
; 2929 :             DebugMsg1(("calculate(SHL): value=%" I64_SPEC "X << %" I32_SPEC "u (max=%u)\n", opnd1->llvalue, opnd2->value, 8 * sizeof( opnd1->llvalue ) ));

	mov	r9d, 64					; 00000040H
	mov	rax, QWORD PTR opnd2$[rsp]
	mov	r8d, DWORD PTR [rax]
	mov	rax, QWORD PTR opnd1$[rsp]
	mov	rdx, QWORD PTR [rax]
	lea	rcx, OFFSET FLAT:$SG12228
	call	DoDebugMsg1

; 2930 :             if ( opnd2->value < 0 )

	mov	rax, QWORD PTR opnd2$[rsp]
	cmp	DWORD PTR [rax], 0
	jge	SHORT $LN89@calculate

; 2931 :                 fnEmitErr( COUNT_MUST_BE_POSITIVE_OR_ZERO );

	mov	ecx, 208				; 000000d0H
	call	QWORD PTR fnEmitErr
	jmp	SHORT $LN90@calculate
$LN89@calculate:

; 2932 :             else if ( opnd2->value >= ( 8 * sizeof( opnd1->llvalue ) ) )

	mov	rax, QWORD PTR opnd2$[rsp]
	movsxd	rax, DWORD PTR [rax]
	cmp	rax, 64					; 00000040H
	jb	SHORT $LN91@calculate

; 2933 :                 opnd1->llvalue = 0;

	mov	rax, QWORD PTR opnd1$[rsp]
	mov	QWORD PTR [rax], 0
	jmp	SHORT $LN92@calculate
$LN91@calculate:

; 2934 :             else
; 2935 :                 opnd1->llvalue = opnd1->llvalue << opnd2->value;

	mov	rax, QWORD PTR opnd2$[rsp]
	mov	eax, DWORD PTR [rax]
	mov	rcx, QWORD PTR opnd1$[rsp]
	mov	QWORD PTR tv1355[rsp], rcx
	movzx	ecx, al
	mov	rax, QWORD PTR tv1355[rsp]
	mov	rax, QWORD PTR [rax]
	shl	rax, cl
	mov	rcx, QWORD PTR opnd1$[rsp]
	mov	QWORD PTR [rcx], rax
$LN92@calculate:
$LN90@calculate:

; 2936 :             /* v2.01: result is 64-bit only if mode is USE64 */
; 2937 :             /* v2.06: for -Zm only. This is not entirely correct,
; 2938 :              * since Masm v6x also does 32-bit shifts, but since v2.06
; 2939 :              * HJWasm intends to behave like Masm v8+.
; 2940 :              * Might be better to implement OPTION EXPR16|32|64.
; 2941 :              */
; 2942 :             //if ( ModuleInfo.Ofssize <= USE32 ) {
; 2943 :             if ( ModuleInfo.m510 ) {

	mov	eax, DWORD PTR ModuleInfo+408
	shr	eax, 6
	and	eax, 1
	test	eax, eax
	je	SHORT $LN93@calculate

; 2944 :                 opnd1->hvalue = 0;

	mov	rax, QWORD PTR opnd1$[rsp]
	mov	DWORD PTR [rax+4], 0

; 2945 :                 opnd1->hlvalue = 0;

	mov	rax, QWORD PTR opnd1$[rsp]
	mov	QWORD PTR [rax+8], 0
$LN93@calculate:

; 2946 :             }
; 2947 :             break;

	jmp	$LN4@calculate
$LN94@calculate:

; 2948 :         case T_SHR:
; 2949 :             /* Masm v8 works with unsigned 64-bit,
; 2950 :              * Masm v6 masks shift count with 0x3F.
; 2951 :              * v2.04: does behave like Masm v8+.
; 2952 :              * there is a problem with some compilers if shift
; 2953 :              * count is >= 64. So in this case the result is zeroed manually
; 2954 :              */
; 2955 : #if 0
; 2956 :             if ( opnd1->hvalue == -1 ) {
; 2957 :                 opnd1->hvalue = 0;
; 2958 :                 opnd1->hlvalue = 0;
; 2959 :             }
; 2960 : #endif
; 2961 :             /* v2.04: check for shift count < 0 */
; 2962 :             if ( opnd2->value < 0 )

	mov	rax, QWORD PTR opnd2$[rsp]
	cmp	DWORD PTR [rax], 0
	jge	SHORT $LN95@calculate

; 2963 :                 fnEmitErr( COUNT_MUST_BE_POSITIVE_OR_ZERO );

	mov	ecx, 208				; 000000d0H
	call	QWORD PTR fnEmitErr
	jmp	SHORT $LN96@calculate
$LN95@calculate:

; 2964 :             else if ( opnd2->value >= ( 8 * sizeof( opnd1->llvalue ) ) )

	mov	rax, QWORD PTR opnd2$[rsp]
	movsxd	rax, DWORD PTR [rax]
	cmp	rax, 64					; 00000040H
	jb	SHORT $LN97@calculate

; 2965 :                 opnd1->llvalue = 0;

	mov	rax, QWORD PTR opnd1$[rsp]
	mov	QWORD PTR [rax], 0
	jmp	SHORT $LN98@calculate
$LN97@calculate:

; 2966 :             else
; 2967 :                 opnd1->llvalue = opnd1->llvalue >> opnd2->value;

	mov	rax, QWORD PTR opnd2$[rsp]
	mov	eax, DWORD PTR [rax]
	mov	rcx, QWORD PTR opnd1$[rsp]
	mov	QWORD PTR tv1367[rsp], rcx
	movzx	ecx, al
	mov	rax, QWORD PTR tv1367[rsp]
	mov	rax, QWORD PTR [rax]
	shr	rax, cl
	mov	rcx, QWORD PTR opnd1$[rsp]
	mov	QWORD PTR [rcx], rax
$LN98@calculate:
$LN96@calculate:

; 2968 :             break;

	jmp	SHORT $LN4@calculate
$LN99@calculate:

; 2969 :         case T_AND:
; 2970 :             opnd1->llvalue &= opnd2->llvalue;

	mov	rax, QWORD PTR opnd1$[rsp]
	mov	rcx, QWORD PTR opnd2$[rsp]
	mov	rcx, QWORD PTR [rcx]
	mov	rax, QWORD PTR [rax]
	and	rax, rcx
	mov	rcx, QWORD PTR opnd1$[rsp]
	mov	QWORD PTR [rcx], rax

; 2971 :             break;

	jmp	SHORT $LN4@calculate
$LN100@calculate:

; 2972 :         case T_OR:
; 2973 :             opnd1->llvalue |= opnd2->llvalue;

	mov	rax, QWORD PTR opnd1$[rsp]
	mov	rcx, QWORD PTR opnd2$[rsp]
	mov	rcx, QWORD PTR [rcx]
	mov	rax, QWORD PTR [rax]
	or	rax, rcx
	mov	rcx, QWORD PTR opnd1$[rsp]
	mov	QWORD PTR [rcx], rax

; 2974 :             break;

	jmp	SHORT $LN4@calculate
$LN101@calculate:

; 2975 :         case T_XOR:
; 2976 :             opnd1->llvalue ^= opnd2->llvalue;

	mov	rax, QWORD PTR opnd1$[rsp]
	mov	rcx, QWORD PTR opnd2$[rsp]
	mov	rcx, QWORD PTR [rcx]
	mov	rax, QWORD PTR [rax]
	xor	rax, rcx
	mov	rcx, QWORD PTR opnd1$[rsp]
	mov	QWORD PTR [rcx], rax
$LN4@calculate:

; 2977 :             break;
; 2978 :         }
; 2979 :         break; /* end case T_BINARY_OPERATOR */

	jmp	$LN2@calculate
$LN102@calculate:

; 2980 :     case T_UNARY_OPERATOR:
; 2981 :         DebugMsg1(("calculate(%s [T_UNARY_OPERATOR]): opnd2 kind=%d sym=%s mbr=%s type=%s memtype=%X is_type=%u indirect=%u\n",

	mov	rax, QWORD PTR opnd2$[rsp]
	cmp	QWORD PTR [rax+96], 0
	je	SHORT $LN164@calculate
	mov	rax, QWORD PTR opnd2$[rsp]
	mov	rax, QWORD PTR [rax+96]
	mov	rax, QWORD PTR [rax+8]
	mov	QWORD PTR tv710[rsp], rax
	jmp	SHORT $LN165@calculate
$LN164@calculate:
	lea	rax, OFFSET FLAT:$SG12243
	mov	QWORD PTR tv710[rsp], rax
$LN165@calculate:
	mov	rax, QWORD PTR opnd2$[rsp]
	cmp	QWORD PTR [rax+88], 0
	je	SHORT $LN166@calculate
	mov	rax, QWORD PTR opnd2$[rsp]
	mov	rax, QWORD PTR [rax+88]
	mov	rax, QWORD PTR [rax+8]
	mov	QWORD PTR tv716[rsp], rax
	jmp	SHORT $LN167@calculate
$LN166@calculate:
	lea	rax, OFFSET FLAT:$SG12244
	mov	QWORD PTR tv716[rsp], rax
$LN167@calculate:
	mov	rax, QWORD PTR opnd2$[rsp]
	cmp	QWORD PTR [rax+80], 0
	je	SHORT $LN168@calculate
	mov	rax, QWORD PTR opnd2$[rsp]
	mov	rax, QWORD PTR [rax+80]
	mov	rax, QWORD PTR [rax+8]
	mov	QWORD PTR tv722[rsp], rax
	jmp	SHORT $LN169@calculate
$LN168@calculate:
	lea	rax, OFFSET FLAT:$SG12245
	mov	QWORD PTR tv722[rsp], rax
$LN169@calculate:
	mov	rax, QWORD PTR opnd2$[rsp]
	mov	eax, DWORD PTR [rax+72]
	and	eax, 1
	mov	rcx, QWORD PTR opnd2$[rsp]
	mov	ecx, DWORD PTR [rcx+72]
	shr	ecx, 3
	and	ecx, 1
	mov	DWORD PTR [rsp+64], eax
	mov	DWORD PTR [rsp+56], ecx
	mov	rax, QWORD PTR opnd2$[rsp]
	mov	eax, DWORD PTR [rax+64]
	mov	DWORD PTR [rsp+48], eax
	mov	rax, QWORD PTR tv710[rsp]
	mov	QWORD PTR [rsp+40], rax
	mov	rax, QWORD PTR tv716[rsp]
	mov	QWORD PTR [rsp+32], rax
	mov	r9, QWORD PTR tv722[rsp]
	mov	rax, QWORD PTR opnd2$[rsp]
	mov	r8d, DWORD PTR [rax+60]
	mov	rax, QWORD PTR oper$[rsp]
	mov	rdx, QWORD PTR [rax+8]
	lea	rcx, OFFSET FLAT:$SG12246
	call	DoDebugMsg1

; 2982 :                    oper->string_ptr,
; 2983 :                    opnd2->kind,
; 2984 :                    opnd2->sym ? opnd2->sym->name : "NULL",
; 2985 :                    opnd2->mbr ? opnd2->mbr->name : "NULL",
; 2986 :                    opnd2->type ? opnd2->type->name : "NULL",
; 2987 :                    opnd2->mem_type, opnd2->is_type, opnd2->indirect ));
; 2988 :         /* NOT is an instruction and hence has no valid
; 2989 :          * value to be returned by GetValueSp() or GetSflagsSp()!
; 2990 :          */
; 2991 :         if( oper->tokval == T_NOT ) {

	mov	rax, QWORD PTR oper$[rsp]
	cmp	DWORD PTR [rax+16], 581			; 00000245H
	jne	SHORT $LN103@calculate

; 2992 :             MakeConst( opnd2 );

	mov	rcx, QWORD PTR opnd2$[rsp]
	call	MakeConst

; 2993 :             if( opnd2->kind != EXPR_CONST ) {

	mov	rax, QWORD PTR opnd2$[rsp]
	cmp	DWORD PTR [rax+60], 0
	je	SHORT $LN104@calculate

; 2994 :                 DebugMsg(("calculate(%s) error 1\n", oper->string_ptr ));

	mov	rax, QWORD PTR oper$[rsp]
	mov	rdx, QWORD PTR [rax+8]
	lea	rcx, OFFSET FLAT:$SG12249
	call	DoDebugMsg

; 2995 :                 return( fnEmitErr( CONSTANT_OPERAND_EXPECTED ) );

	mov	ecx, 66					; 00000042H
	call	QWORD PTR fnEmitErr
	jmp	$LN1@calculate
$LN104@calculate:

; 2996 :             }
; 2997 :             TokenAssign( opnd1, opnd2 );

	mov	rdx, QWORD PTR opnd2$[rsp]
	mov	rcx, QWORD PTR opnd1$[rsp]
	call	TokenAssign

; 2998 :             opnd1->llvalue = ~(opnd2->llvalue);

	mov	rax, QWORD PTR opnd2$[rsp]
	mov	rax, QWORD PTR [rax]
	not	rax
	mov	rcx, QWORD PTR opnd1$[rsp]
	mov	QWORD PTR [rcx], rax

; 2999 :             break;

	jmp	$LN2@calculate
$LN103@calculate:

; 3000 :         }
; 3001 : 
; 3002 :         /* operator         accepts
; 3003 :          ----------------------------------------------
; 3004 :          SIZEOF/SIZE        label, type, struct field
; 3005 :          LENGTHOF/LENGTH    label, struct field
; 3006 :          TYPE               label, type, struct field, register, number
; 3007 :          LOW                constant, label (OMF+BIN only)
; 3008 :          HIGH               constant, label (OMF+BIN only)
; 3009 :          LOWWORD            constant, label
; 3010 :          HIGHWORD           constant
; 3011 :          LOW32              constant, label, float
; 3012 :          HIGH32             constant, float
; 3013 :          THIS               type
; 3014 :          OPATTR/.TYPE       label, type, struct field, register, number
; 3015 :          SHORT              label
; 3016 :          SEG                label
; 3017 :          OFFSET/LROFFSET    label, struct field, number
; 3018 :          IMAGEREL           label
; 3019 :          SECTIONREL         label
; 3020 :          WIDTH/MASK         bitfields or RECORD type
; 3021 :          */
; 3022 : 
; 3023 :         temp = GetValueSp( oper->tokval );

	mov	rax, QWORD PTR oper$[rsp]
	mov	eax, DWORD PTR [rax+16]
	imul	rax, rax, 12
	lea	rcx, OFFSET FLAT:SpecialTable
	mov	eax, DWORD PTR [rcx+rax]
	mov	DWORD PTR temp$[rsp], eax

; 3024 : 
; 3025 :         sym = opnd2->sym;

	mov	rax, QWORD PTR opnd2$[rsp]
	mov	rax, QWORD PTR [rax+80]
	mov	QWORD PTR sym$[rsp], rax

; 3026 :         if( opnd2->mbr != NULL )

	mov	rax, QWORD PTR opnd2$[rsp]
	cmp	QWORD PTR [rax+88], 0
	je	SHORT $LN105@calculate

; 3027 :             sym = opnd2->mbr;

	mov	rax, QWORD PTR opnd2$[rsp]
	mov	rax, QWORD PTR [rax+88]
	mov	QWORD PTR sym$[rsp], rax
$LN105@calculate:

; 3028 : 
; 3029 :         /* for error displays, get the position of the operand that
; 3030 :          * caused the trouble.
; 3031 :          */
; 3032 :         if ( opnd2->instr != EMPTY )

	mov	rax, QWORD PTR opnd2$[rsp]
	cmp	DWORD PTR [rax+56], -2
	je	SHORT $LN106@calculate

; 3033 :             name = oper->tokpos + strlen( oper->string_ptr ) + 1;

	mov	rax, QWORD PTR oper$[rsp]
	mov	rcx, QWORD PTR [rax+8]
	call	strlen
	mov	rcx, QWORD PTR oper$[rsp]
	mov	rcx, QWORD PTR [rcx+24]
	lea	rax, QWORD PTR [rcx+rax+1]
	mov	QWORD PTR name$[rsp], rax
	jmp	SHORT $LN107@calculate
$LN106@calculate:

; 3034 :         else if ( sym )

	cmp	QWORD PTR sym$[rsp], 0
	je	SHORT $LN108@calculate

; 3035 :             name = sym->name;

	mov	rax, QWORD PTR sym$[rsp]
	mov	rax, QWORD PTR [rax+8]
	mov	QWORD PTR name$[rsp], rax
	jmp	SHORT $LN109@calculate
$LN108@calculate:

; 3036 :         else if ( opnd2->base_reg != NULL && opnd2->indirect == FALSE )

	mov	rax, QWORD PTR opnd2$[rsp]
	cmp	QWORD PTR [rax+24], 0
	je	SHORT $LN110@calculate
	mov	rax, QWORD PTR opnd2$[rsp]
	mov	eax, DWORD PTR [rax+72]
	and	eax, 1
	test	eax, eax
	jne	SHORT $LN110@calculate

; 3037 :             name = opnd2->base_reg->string_ptr;

	mov	rax, QWORD PTR opnd2$[rsp]
	mov	rax, QWORD PTR [rax+24]
	mov	rax, QWORD PTR [rax+8]
	mov	QWORD PTR name$[rsp], rax
	jmp	SHORT $LN111@calculate
$LN110@calculate:

; 3038 :         else
; 3039 :             name = oper->tokpos + strlen( oper->string_ptr ) + 1;

	mov	rax, QWORD PTR oper$[rsp]
	mov	rcx, QWORD PTR [rax+8]
	call	strlen
	mov	rcx, QWORD PTR oper$[rsp]
	mov	rcx, QWORD PTR [rcx+24]
	lea	rax, QWORD PTR [rcx+rax+1]
	mov	QWORD PTR name$[rsp], rax
$LN111@calculate:
$LN109@calculate:
$LN107@calculate:

; 3040 : 
; 3041 :         switch ( opnd2->kind ) {

	mov	rax, QWORD PTR opnd2$[rsp]
	mov	eax, DWORD PTR [rax+60]
	mov	DWORD PTR tv777[rsp], eax
	cmp	DWORD PTR tv777[rsp], 0
	je	SHORT $LN112@calculate
	cmp	DWORD PTR tv777[rsp], 1
	je	$LN123@calculate
	cmp	DWORD PTR tv777[rsp], 2
	je	$LN128@calculate
	cmp	DWORD PTR tv777[rsp], 3
	je	$LN130@calculate
	jmp	$LN6@calculate
$LN112@calculate:

; 3042 :         case EXPR_CONST:
; 3043 :             /* v2.05: conditions "struct-field" and "istype" exchanged */
; 3044 :             /* is item a struct field? */
; 3045 :             /* v2.10: fixme: EXPR_CONST & mbr!=NULL - what's that supposed to be? */
; 3046 :             if ( opnd2->mbr != NULL && opnd2->mbr->state != SYM_TYPE ) {

	mov	rax, QWORD PTR opnd2$[rsp]
	cmp	QWORD PTR [rax+88], 0
	je	$LN113@calculate
	mov	rax, QWORD PTR opnd2$[rsp]
	mov	rax, QWORD PTR [rax+88]
	cmp	DWORD PTR [rax+32], 7
	je	SHORT $LN113@calculate

; 3047 :                 if ( opnd2->mbr->mem_type == MT_BITS ) { /* bitfield? */

	mov	rax, QWORD PTR opnd2$[rsp]
	mov	rax, QWORD PTR [rax+88]
	cmp	DWORD PTR [rax+36], 193			; 000000c1H
	jne	SHORT $LN115@calculate

; 3048 :                     if ( ( temp & AT_BF ) == 0 ) {

	mov	eax, DWORD PTR temp$[rsp]
	and	eax, 64					; 00000040H
	test	eax, eax
	jne	SHORT $LN117@calculate

; 3049 :                         return( invalid_operand( opnd2, oper->string_ptr, name ) );

	mov	r8, QWORD PTR name$[rsp]
	mov	rax, QWORD PTR oper$[rsp]
	mov	rdx, QWORD PTR [rax+8]
	mov	rcx, QWORD PTR opnd2$[rsp]
	call	invalid_operand
	jmp	$LN1@calculate
$LN117@calculate:

; 3050 :                     }
; 3051 :                 } else {

	jmp	SHORT $LN116@calculate
$LN115@calculate:

; 3052 :                     if ( ( temp & AT_FIELD ) == 0 ) {

	mov	eax, DWORD PTR temp$[rsp]
	and	eax, 16
	test	eax, eax
	jne	SHORT $LN118@calculate

; 3053 :                         return( invalid_operand( opnd2, oper->string_ptr, name ) );

	mov	r8, QWORD PTR name$[rsp]
	mov	rax, QWORD PTR oper$[rsp]
	mov	rdx, QWORD PTR [rax+8]
	mov	rcx, QWORD PTR opnd2$[rsp]
	call	invalid_operand
	jmp	$LN1@calculate
$LN118@calculate:
$LN116@calculate:

; 3054 :                     }
; 3055 :                 }

	jmp	SHORT $LN114@calculate
$LN113@calculate:

; 3056 :             } else if ( opnd2->is_type ) { /* is item a type? */

	mov	rax, QWORD PTR opnd2$[rsp]
	mov	eax, DWORD PTR [rax+72]
	shr	eax, 3
	and	eax, 1
	test	eax, eax
	je	SHORT $LN119@calculate

; 3057 :                 if ( ( temp & AT_TYPE ) == 0 ) {

	mov	eax, DWORD PTR temp$[rsp]
	and	eax, 1
	test	eax, eax
	jne	SHORT $LN121@calculate

; 3058 :                     return( invalid_operand( opnd2, oper->string_ptr, name ) );

	mov	r8, QWORD PTR name$[rsp]
	mov	rax, QWORD PTR oper$[rsp]
	mov	rdx, QWORD PTR [rax+8]
	mov	rcx, QWORD PTR opnd2$[rsp]
	call	invalid_operand
	jmp	$LN1@calculate
$LN121@calculate:

; 3059 :                 }
; 3060 :             } else { /*  or is it a number? */

	jmp	SHORT $LN120@calculate
$LN119@calculate:

; 3061 :                 if ( ( temp & AT_NUM ) == 0 ) {

	mov	eax, DWORD PTR temp$[rsp]
	and	eax, 32					; 00000020H
	test	eax, eax
	jne	SHORT $LN122@calculate

; 3062 :                     return( invalid_operand( opnd2, oper->string_ptr, name ) );

	mov	r8, QWORD PTR name$[rsp]
	mov	rax, QWORD PTR oper$[rsp]
	mov	rdx, QWORD PTR [rax+8]
	mov	rcx, QWORD PTR opnd2$[rsp]
	call	invalid_operand
	jmp	$LN1@calculate
$LN122@calculate:
$LN120@calculate:
$LN114@calculate:

; 3063 :                 }
; 3064 :             }
; 3065 :             break;

	jmp	$LN6@calculate
$LN123@calculate:

; 3066 :         case EXPR_ADDR:
; 3067 :             /* an indirect memory operand? (not an auto variable) */
; 3068 :             if ( opnd2->indirect == TRUE && opnd2->sym == NULL ) {

	mov	rax, QWORD PTR opnd2$[rsp]
	mov	eax, DWORD PTR [rax+72]
	and	eax, 1
	cmp	eax, 1
	jne	SHORT $LN124@calculate
	mov	rax, QWORD PTR opnd2$[rsp]
	cmp	QWORD PTR [rax+80], 0
	jne	SHORT $LN124@calculate

; 3069 :                 if ( ( temp & AT_IND ) == 0 ) {

	mov	eax, DWORD PTR temp$[rsp]
	and	eax, 4
	test	eax, eax
	jne	SHORT $LN126@calculate

; 3070 :                     return( invalid_operand( opnd2, oper->string_ptr, name ) );

	mov	r8, QWORD PTR name$[rsp]
	mov	rax, QWORD PTR oper$[rsp]
	mov	rdx, QWORD PTR [rax+8]
	mov	rcx, QWORD PTR opnd2$[rsp]
	call	invalid_operand
	jmp	$LN1@calculate
$LN126@calculate:

; 3071 :                 }
; 3072 :             } else {

	jmp	SHORT $LN125@calculate
$LN124@calculate:

; 3073 :                 if ( ( temp & AT_LABEL ) == 0 ) {

	mov	eax, DWORD PTR temp$[rsp]
	and	eax, 2
	test	eax, eax
	jne	SHORT $LN127@calculate

; 3074 :                     return( invalid_operand( opnd2, oper->string_ptr, name ) );

	mov	r8, QWORD PTR name$[rsp]
	mov	rax, QWORD PTR oper$[rsp]
	mov	rdx, QWORD PTR [rax+8]
	mov	rcx, QWORD PTR opnd2$[rsp]
	call	invalid_operand
	jmp	$LN1@calculate
$LN127@calculate:
$LN125@calculate:

; 3075 :                 }
; 3076 :             }
; 3077 : #if 0 /* v2.08: this if() obsolete? */
; 3078 :             if( opnd2->instr != EMPTY ) {
; 3079 :                 /* if instr is set, it's not a full address */
; 3080 :                 switch ( oper->tokval ) {
; 3081 :                 case T_LOW:
; 3082 :                 case T_HIGH:
; 3083 :                 case T_LOWWORD:
; 3084 :                 case T_HIGHWORD:
; 3085 : #if LOHI32
; 3086 :                 case T_LOW32:
; 3087 :                 case T_HIGH32:
; 3088 : #endif
; 3089 :                 case T_TYPE:
; 3090 :                 case T_OPATTR:
; 3091 :                 case T_DOT_TYPE:
; 3092 :                 case T_OFFSET: /* v2.08: added, to allow OFFSET OFFSET <addr> */
; 3093 :                     break;
; 3094 :                 default:
; 3095 :                     /* remaining: OFFSET, LROFFSET, IMAGEREL, SECTIONREL, SEG,
; 3096 :                      * SHORT
; 3097 :                      * THIS (won't set opnd.instr)
; 3098 :                      * (SIZE, SIZEOF, LENGTH, LENGHTOF, MASK, WIDTH) -> EXPR_CONST
; 3099 :                      *
; 3100 :                      */
; 3101 :                     DebugMsg(("calculate %s error 2\n", oper->string_ptr ));
; 3102 :                     return( fnEmitErr( LABEL_EXPECTED ) );
; 3103 :                 }
; 3104 :             }
; 3105 : #endif
; 3106 :             break;

	jmp	SHORT $LN6@calculate
$LN128@calculate:

; 3107 :         case EXPR_REG:
; 3108 :             if ( ( temp & AT_REG ) == 0 ) {

	mov	eax, DWORD PTR temp$[rsp]
	and	eax, 8
	test	eax, eax
	jne	SHORT $LN129@calculate

; 3109 :                 return( invalid_operand( opnd2, oper->string_ptr, name ) );

	mov	r8, QWORD PTR name$[rsp]
	mov	rax, QWORD PTR oper$[rsp]
	mov	rdx, QWORD PTR [rax+8]
	mov	rcx, QWORD PTR opnd2$[rsp]
	call	invalid_operand
	jmp	$LN1@calculate
$LN129@calculate:

; 3110 :             }
; 3111 :             break;

	jmp	SHORT $LN6@calculate
$LN130@calculate:

; 3112 :         case EXPR_FLOAT: /* v2.05: added */
; 3113 :             if ( ( temp & AT_FLOAT ) == 0 ) {

	mov	eax, DWORD PTR temp$[rsp]
	and	eax, 256				; 00000100H
	test	eax, eax
	jne	SHORT $LN131@calculate

; 3114 :                 DebugMsg(("calculate %s 'float' error\n", oper->string_ptr ));

	mov	rax, QWORD PTR oper$[rsp]
	mov	rdx, QWORD PTR [rax+8]
	lea	rcx, OFFSET FLAT:$SG12277
	call	DoDebugMsg

; 3115 :                 return( fnEmitErr( REAL_OR_BCD_NUMBER_NOT_ALLOWED ) );

	mov	ecx, 271				; 0000010fH
	call	QWORD PTR fnEmitErr
	jmp	$LN1@calculate
$LN131@calculate:
$LN6@calculate:

; 3116 :             }
; 3117 :             break;
; 3118 :         }
; 3119 : #ifdef DEBUG_OUT
; 3120 :         if ( unaryop[ GetSflagsSp( oper->tokval ) ]( oper->tokval, opnd1, opnd2, sym, name ) == ERROR )

	mov	rax, QWORD PTR oper$[rsp]
	mov	eax, DWORD PTR [rax+16]
	imul	rax, rax, 12
	lea	rcx, OFFSET FLAT:SpecialTable
	mov	eax, DWORD PTR [rcx+rax+4]
	lea	rcx, OFFSET FLAT:unaryop
	mov	QWORD PTR tv960[rsp], rcx
	mov	rdx, QWORD PTR name$[rsp]
	mov	QWORD PTR [rsp+32], rdx
	mov	r9, QWORD PTR sym$[rsp]
	mov	r8, QWORD PTR opnd2$[rsp]
	mov	rdx, QWORD PTR opnd1$[rsp]
	mov	r10, QWORD PTR oper$[rsp]
	mov	ecx, DWORD PTR [r10+16]
	mov	r10, QWORD PTR tv960[rsp]
	call	QWORD PTR [r10+rax*8]
	cmp	eax, -1
	jne	SHORT $LN132@calculate

; 3121 :             return( ERROR );

	mov	eax, -1
	jmp	$LN1@calculate
$LN132@calculate:

; 3122 :         break;

	jmp	SHORT $LN2@calculate
$LN133@calculate:

; 3123 : #else
; 3124 :         return( unaryop[ GetSflagsSp( oper->tokval ) ]( oper->tokval, opnd1, opnd2, sym, name ) );
; 3125 : #endif
; 3126 :     //case T_RES_ID:
; 3127 :     default: /* shouldn't happen */
; 3128 :         DebugMsg(("calculate(%s): unknown operator\n", oper->string_ptr ));

	mov	rax, QWORD PTR oper$[rsp]
	mov	rdx, QWORD PTR [rax+8]
	lea	rcx, OFFSET FLAT:$SG12280
	call	DoDebugMsg

; 3129 :         return( fnEmitErr( SYNTAX_ERROR_EX, oper->string_ptr ) );

	mov	rax, QWORD PTR oper$[rsp]
	mov	rdx, QWORD PTR [rax+8]
	mov	ecx, 209				; 000000d1H
	call	QWORD PTR fnEmitErr
	jmp	$LN1@calculate
$LN2@calculate:

; 3130 :     } /* end switch( oper->token ) */
; 3131 : 
; 3132 : #ifdef DEBUG_OUT
; 3133 :     if ( opnd1->hlvalue ) {

	mov	rax, QWORD PTR opnd1$[rsp]
	cmp	QWORD PTR [rax+8], 0
	je	$LN134@calculate

; 3134 :         DebugMsg1(("%u calculate(%s) exit, ok kind=%d value=0x%" I64_SPEC "X_%016" I64_SPEC "X memtype=0x%X indirect=%u type=>%s<\n",

	mov	rax, QWORD PTR opnd1$[rsp]
	cmp	QWORD PTR [rax+96], 0
	je	SHORT $LN170@calculate
	mov	rax, QWORD PTR opnd1$[rsp]
	mov	rax, QWORD PTR [rax+96]
	mov	rax, QWORD PTR [rax+8]
	mov	QWORD PTR tv886[rsp], rax
	jmp	SHORT $LN171@calculate
$LN170@calculate:
	lea	rax, OFFSET FLAT:$SG12283
	mov	QWORD PTR tv886[rsp], rax
$LN171@calculate:
	mov	rax, QWORD PTR opnd1$[rsp]
	mov	eax, DWORD PTR [rax+72]
	and	eax, 1
	mov	rcx, QWORD PTR tv886[rsp]
	mov	QWORD PTR [rsp+64], rcx
	mov	DWORD PTR [rsp+56], eax
	mov	rax, QWORD PTR opnd1$[rsp]
	mov	eax, DWORD PTR [rax+64]
	mov	DWORD PTR [rsp+48], eax
	mov	rax, QWORD PTR opnd1$[rsp]
	mov	rax, QWORD PTR [rax]
	mov	QWORD PTR [rsp+40], rax
	mov	rax, QWORD PTR opnd1$[rsp]
	mov	rax, QWORD PTR [rax+8]
	mov	QWORD PTR [rsp+32], rax
	mov	rax, QWORD PTR opnd1$[rsp]
	mov	r9d, DWORD PTR [rax+60]
	mov	rax, QWORD PTR oper$[rsp]
	mov	r8, QWORD PTR [rax+8]
	mov	edx, DWORD PTR evallvl
	lea	rcx, OFFSET FLAT:$SG12284
	call	DoDebugMsg1
	jmp	$LN135@calculate
$LN134@calculate:

; 3135 :                    evallvl,
; 3136 :                    oper->string_ptr,
; 3137 :                    opnd1->kind,
; 3138 :                    opnd1->hlvalue, opnd1->llvalue,
; 3139 :                    opnd1->mem_type,
; 3140 :                    opnd1->indirect, opnd1->type ? opnd1->type->name : "NULL" ));
; 3141 :     } else if ( opnd1->hvalue ) {

	mov	rax, QWORD PTR opnd1$[rsp]
	cmp	DWORD PTR [rax+4], 0
	je	$LN136@calculate

; 3142 :         DebugMsg1(("%u calculate(%s) exit, ok kind=%d value=%" I64_SPEC"d(0x%" I64_SPEC "X) memtype=0x%X indirect=%u type=>%s<\n",

	mov	rax, QWORD PTR opnd1$[rsp]
	cmp	QWORD PTR [rax+96], 0
	je	SHORT $LN172@calculate
	mov	rax, QWORD PTR opnd1$[rsp]
	mov	rax, QWORD PTR [rax+96]
	mov	rax, QWORD PTR [rax+8]
	mov	QWORD PTR tv909[rsp], rax
	jmp	SHORT $LN173@calculate
$LN172@calculate:
	lea	rax, OFFSET FLAT:$SG12287
	mov	QWORD PTR tv909[rsp], rax
$LN173@calculate:
	mov	rax, QWORD PTR opnd1$[rsp]
	mov	eax, DWORD PTR [rax+72]
	and	eax, 1
	mov	rcx, QWORD PTR tv909[rsp]
	mov	QWORD PTR [rsp+64], rcx
	mov	DWORD PTR [rsp+56], eax
	mov	rax, QWORD PTR opnd1$[rsp]
	mov	eax, DWORD PTR [rax+64]
	mov	DWORD PTR [rsp+48], eax
	mov	rax, QWORD PTR opnd1$[rsp]
	mov	rax, QWORD PTR [rax]
	mov	QWORD PTR [rsp+40], rax
	mov	rax, QWORD PTR opnd1$[rsp]
	mov	rax, QWORD PTR [rax]
	mov	QWORD PTR [rsp+32], rax
	mov	rax, QWORD PTR opnd1$[rsp]
	mov	r9d, DWORD PTR [rax+60]
	mov	rax, QWORD PTR oper$[rsp]
	mov	r8, QWORD PTR [rax+8]
	mov	edx, DWORD PTR evallvl
	lea	rcx, OFFSET FLAT:$SG12288
	call	DoDebugMsg1

; 3143 :                    evallvl,
; 3144 :                    oper->string_ptr,
; 3145 :                    opnd1->kind,
; 3146 :                    opnd1->llvalue, opnd1->llvalue,
; 3147 :                    opnd1->mem_type,
; 3148 :                    opnd1->indirect, opnd1->type ? opnd1->type->name : "NULL" ));
; 3149 :     } else {

	jmp	$LN137@calculate
$LN136@calculate:

; 3150 :         DebugMsg1(("%u calculate(%s) exit, ok kind=%d value=%d(0x%X) memtype=0x%X ind=%u exp=%u type=%s mbr=%s\n",

	mov	rax, QWORD PTR opnd1$[rsp]
	cmp	QWORD PTR [rax+88], 0
	je	SHORT $LN174@calculate
	mov	rax, QWORD PTR opnd1$[rsp]
	mov	rax, QWORD PTR [rax+88]
	mov	rax, QWORD PTR [rax+8]
	mov	QWORD PTR tv930[rsp], rax
	jmp	SHORT $LN175@calculate
$LN174@calculate:
	lea	rax, OFFSET FLAT:$SG12289
	mov	QWORD PTR tv930[rsp], rax
$LN175@calculate:
	mov	rax, QWORD PTR opnd1$[rsp]
	cmp	QWORD PTR [rax+96], 0
	je	SHORT $LN176@calculate
	mov	rax, QWORD PTR opnd1$[rsp]
	mov	rax, QWORD PTR [rax+96]
	mov	rax, QWORD PTR [rax+8]
	mov	QWORD PTR tv936[rsp], rax
	jmp	SHORT $LN177@calculate
$LN176@calculate:
	lea	rax, OFFSET FLAT:$SG12290
	mov	QWORD PTR tv936[rsp], rax
$LN177@calculate:
	mov	rax, QWORD PTR opnd1$[rsp]
	mov	eax, DWORD PTR [rax+72]
	shr	eax, 1
	and	eax, 1
	mov	rcx, QWORD PTR opnd1$[rsp]
	mov	ecx, DWORD PTR [rcx+72]
	and	ecx, 1
	mov	rdx, QWORD PTR tv930[rsp]
	mov	QWORD PTR [rsp+80], rdx
	mov	rdx, QWORD PTR tv936[rsp]
	mov	QWORD PTR [rsp+72], rdx
	mov	DWORD PTR [rsp+64], eax
	mov	DWORD PTR [rsp+56], ecx
	mov	rax, QWORD PTR opnd1$[rsp]
	mov	eax, DWORD PTR [rax+64]
	mov	DWORD PTR [rsp+48], eax
	mov	rax, QWORD PTR opnd1$[rsp]
	mov	eax, DWORD PTR [rax]
	mov	DWORD PTR [rsp+40], eax
	mov	rax, QWORD PTR opnd1$[rsp]
	mov	eax, DWORD PTR [rax]
	mov	DWORD PTR [rsp+32], eax
	mov	rax, QWORD PTR opnd1$[rsp]
	mov	r9d, DWORD PTR [rax+60]
	mov	rax, QWORD PTR oper$[rsp]
	mov	r8, QWORD PTR [rax+8]
	mov	edx, DWORD PTR evallvl
	lea	rcx, OFFSET FLAT:$SG12291
	call	DoDebugMsg1
$LN137@calculate:
$LN135@calculate:

; 3151 :                    evallvl,
; 3152 :                    oper->string_ptr,
; 3153 :                    opnd1->kind,
; 3154 :                    opnd1->value, opnd1->value,
; 3155 :                    opnd1->mem_type,
; 3156 :                    opnd1->indirect, opnd1->explicit,
; 3157 :                    opnd1->type ? opnd1->type->name : "NULL",
; 3158 :                    opnd1->mbr ? opnd1->mbr->name : "NULL" ));
; 3159 :     }
; 3160 : #endif
; 3161 :     return( NOT_ERROR );

	xor	eax, eax
$LN1@calculate:

; 3162 : }

	add	rsp, 296				; 00000128H
	ret	0
	npad	2
$LN180@calculate:
	DD	$LN102@calculate
	DD	$LN49@calculate
	DD	$LN22@calculate
	DD	$LN37@calculate
	DD	$LN27@calculate
	DD	$LN30@calculate
	DD	$LN33@calculate
	DD	$LN46@calculate
	DD	$LN35@calculate
	DD	$LN13@calculate
	DD	$LN133@calculate
$LN179@calculate:
	DB	0
	DB	1
	DB	10
	DB	10
	DB	10
	DB	10
	DB	10
	DB	10
	DB	10
	DB	10
	DB	10
	DB	10
	DB	10
	DB	10
	DB	10
	DB	10
	DB	10
	DB	10
	DB	10
	DB	10
	DB	10
	DB	10
	DB	10
	DB	10
	DB	10
	DB	10
	DB	10
	DB	10
	DB	10
	DB	10
	DB	10
	DB	10
	DB	10
	DB	10
	DB	10
	DB	10
	DB	2
	DB	10
	DB	3
	DB	4
	DB	10
	DB	5
	DB	6
	DB	7
	DB	10
	DB	10
	DB	10
	DB	10
	DB	10
	DB	10
	DB	10
	DB	10
	DB	10
	DB	10
	DB	8
	DB	10
	DB	10
	DB	10
	DB	10
	DB	10
	DB	10
	DB	10
	DB	10
	DB	10
	DB	10
	DB	10
	DB	10
	DB	10
	DB	10
	DB	10
	DB	10
	DB	10
	DB	10
	DB	10
	DB	10
	DB	10
	DB	10
	DB	10
	DB	10
	DB	10
	DB	10
	DB	10
	DB	10
	DB	10
	DB	10
	DB	10
	DB	10
	DB	9
$LN178@calculate:
	DD	$LN75@calculate
	DD	$LN78@calculate
	DD	$LN84@calculate
	DD	$LN83@calculate
	DD	$LN82@calculate
	DD	$LN81@calculate
	DD	$LN85@calculate
calculate ENDP
_TEXT	ENDS
; Function compile flags: /Odtp
; File d:\hjwasm\hjwasm2.13.1s\hjwasm2.13.1s\expreval.c
_TEXT	SEGMENT
tv143 = 64
tv201 = 68
tv79 = 72
tv159 = 76
type2$ = 80
type1$ = 88
tv87 = 96
tv95 = 104
opnd1$ = 128
opnd2$ = 136
trueval$ = 144
cmp_types PROC

; 2517 : {

	mov	DWORD PTR [rsp+24], r8d
	mov	QWORD PTR [rsp+16], rdx
	mov	QWORD PTR [rsp+8], rcx
	sub	rsp, 120				; 00000078H

; 2518 :     struct asym *type1;
; 2519 :     struct asym *type2;
; 2520 : 
; 2521 :     /* v2.10: special handling of pointer types. */
; 2522 :     //if ( opnd1->mem_type == MT_PTR && opnd2->mem_type == MT_PTR && opnd1->type && opnd2->type ) {
; 2523 :     if ( opnd1->mem_type == MT_PTR && opnd2->mem_type == MT_PTR ) {

	mov	rax, QWORD PTR opnd1$[rsp]
	cmp	DWORD PTR [rax+64], 195			; 000000c3H
	jne	$LN2@cmp_types
	mov	rax, QWORD PTR opnd2$[rsp]
	cmp	DWORD PTR [rax+64], 195			; 000000c3H
	jne	$LN2@cmp_types

; 2524 :         /**/myassert( ( opnd1->type || opnd1->type_tok ) && ( opnd2->type || opnd2->type_tok ) );

	mov	rax, QWORD PTR opnd1$[rsp]
	cmp	QWORD PTR [rax+96], 0
	jne	SHORT $LN7@cmp_types
	mov	rax, QWORD PTR opnd1$[rsp]
	cmp	QWORD PTR [rax+40], 0
	je	SHORT $LN9@cmp_types
$LN7@cmp_types:
	mov	rax, QWORD PTR opnd2$[rsp]
	cmp	QWORD PTR [rax+96], 0
	jne	SHORT $LN8@cmp_types
	mov	rax, QWORD PTR opnd2$[rsp]
	cmp	QWORD PTR [rax+40], 0
	je	SHORT $LN9@cmp_types
$LN8@cmp_types:
	mov	DWORD PTR tv79[rsp], 0
	jmp	SHORT $LN10@cmp_types
$LN9@cmp_types:
	mov	edx, 2524				; 000009dcH
	lea	rcx, OFFSET FLAT:$SG12086
	call	InternalError
	mov	DWORD PTR tv79[rsp], eax
$LN10@cmp_types:

; 2525 :         type1 = ( opnd1->type ? opnd1->type : SymSearch( opnd1->type_tok->string_ptr ) );

	mov	rax, QWORD PTR opnd1$[rsp]
	cmp	QWORD PTR [rax+96], 0
	je	SHORT $LN11@cmp_types
	mov	rax, QWORD PTR opnd1$[rsp]
	mov	rax, QWORD PTR [rax+96]
	mov	QWORD PTR tv87[rsp], rax
	jmp	SHORT $LN12@cmp_types
$LN11@cmp_types:
	mov	rax, QWORD PTR opnd1$[rsp]
	mov	rax, QWORD PTR [rax+40]
	mov	rcx, QWORD PTR [rax+8]
	call	SymFind
	mov	QWORD PTR tv87[rsp], rax
$LN12@cmp_types:
	mov	rax, QWORD PTR tv87[rsp]
	mov	QWORD PTR type1$[rsp], rax

; 2526 :         type2 = ( opnd2->type ? opnd2->type : SymSearch( opnd2->type_tok->string_ptr ) );

	mov	rax, QWORD PTR opnd2$[rsp]
	cmp	QWORD PTR [rax+96], 0
	je	SHORT $LN13@cmp_types
	mov	rax, QWORD PTR opnd2$[rsp]
	mov	rax, QWORD PTR [rax+96]
	mov	QWORD PTR tv95[rsp], rax
	jmp	SHORT $LN14@cmp_types
$LN13@cmp_types:
	mov	rax, QWORD PTR opnd2$[rsp]
	mov	rax, QWORD PTR [rax+40]
	mov	rcx, QWORD PTR [rax+8]
	call	SymFind
	mov	QWORD PTR tv95[rsp], rax
$LN14@cmp_types:
	mov	rax, QWORD PTR tv95[rsp]
	mov	QWORD PTR type2$[rsp], rax

; 2527 :         //opnd1->value64 = ( ( type1->is_ptr == type2->is_ptr &&
; 2528 :         opnd1->value64 = ( ( type1->is_ptr == type2->is_ptr &&

	mov	rax, QWORD PTR type1$[rsp]
	movzx	eax, BYTE PTR [rax+45]
	mov	rcx, QWORD PTR type2$[rsp]
	movzx	ecx, BYTE PTR [rcx+45]
	cmp	eax, ecx
	jne	SHORT $LN15@cmp_types
	mov	rax, QWORD PTR type1$[rsp]
	movzx	eax, BYTE PTR [rax+46]
	mov	rcx, QWORD PTR type2$[rsp]
	movzx	ecx, BYTE PTR [rcx+46]
	cmp	eax, ecx
	jne	SHORT $LN15@cmp_types
	mov	rax, QWORD PTR type1$[rsp]
	mov	rcx, QWORD PTR type2$[rsp]
	mov	rcx, QWORD PTR [rcx+48]
	cmp	QWORD PTR [rax+48], rcx
	jne	SHORT $LN15@cmp_types
	mov	eax, DWORD PTR trueval$[rsp]
	mov	DWORD PTR tv143[rsp], eax
	jmp	SHORT $LN16@cmp_types
$LN15@cmp_types:
	mov	eax, DWORD PTR trueval$[rsp]
	not	eax
	mov	DWORD PTR tv143[rsp], eax
$LN16@cmp_types:
	movsxd	rax, DWORD PTR tv143[rsp]
	mov	rcx, QWORD PTR opnd1$[rsp]
	mov	QWORD PTR [rcx], rax

; 2529 :                             type1->ptr_memtype == type2->ptr_memtype &&
; 2530 :                             type1->target_type == type2->target_type ) ? trueval : ~trueval );
; 2531 :         DebugMsg1(("cmp_types: MT_PTR-MT_PTR is_ptr=%u-%u ptr_memtype=%X-%X target_type=%X-%X\n",

	mov	rax, QWORD PTR type2$[rsp]
	movzx	eax, BYTE PTR [rax+46]
	mov	rcx, QWORD PTR type1$[rsp]
	movzx	ecx, BYTE PTR [rcx+46]
	mov	rdx, QWORD PTR type2$[rsp]
	movzx	edx, BYTE PTR [rdx+45]
	mov	r8, QWORD PTR type1$[rsp]
	movzx	r8d, BYTE PTR [r8+45]
	mov	DWORD PTR tv159[rsp], r8d
	mov	r9, QWORD PTR type2$[rsp]
	mov	r9, QWORD PTR [r9+48]
	mov	QWORD PTR [rsp+48], r9
	mov	r9, QWORD PTR type1$[rsp]
	mov	r9, QWORD PTR [r9+48]
	mov	QWORD PTR [rsp+40], r9
	mov	DWORD PTR [rsp+32], eax
	mov	r9d, ecx
	mov	r8d, edx
	mov	eax, DWORD PTR tv159[rsp]
	mov	edx, eax
	lea	rcx, OFFSET FLAT:$SG12087
	call	DoDebugMsg1

; 2532 :                    type1->is_ptr, type2->is_ptr,
; 2533 :                    type1->ptr_memtype, type2->ptr_memtype,
; 2534 :                    type1->target_type, type2->target_type ));
; 2535 :     } else {

	jmp	$LN3@cmp_types
$LN2@cmp_types:

; 2536 :         DebugMsg1(("cmp_types: memtype=%X-%X type=%X-%X\n",

	mov	rax, QWORD PTR opnd2$[rsp]
	mov	rax, QWORD PTR [rax+96]
	mov	QWORD PTR [rsp+32], rax
	mov	rax, QWORD PTR opnd1$[rsp]
	mov	r9, QWORD PTR [rax+96]
	mov	rax, QWORD PTR opnd2$[rsp]
	mov	r8d, DWORD PTR [rax+64]
	mov	rax, QWORD PTR opnd1$[rsp]
	mov	edx, DWORD PTR [rax+64]
	lea	rcx, OFFSET FLAT:$SG12088
	call	DoDebugMsg1

; 2537 :                    opnd1->mem_type, opnd2->mem_type, opnd1->type, opnd2->type ));
; 2538 :         /* v2.09: include type member in comparison, but ignore typedef types */
; 2539 :         if ( opnd1->type && opnd1->type->typekind == TYPE_TYPEDEF && opnd1->type->is_ptr == 0 )

	mov	rax, QWORD PTR opnd1$[rsp]
	cmp	QWORD PTR [rax+96], 0
	je	SHORT $LN4@cmp_types
	mov	rax, QWORD PTR opnd1$[rsp]
	mov	rax, QWORD PTR [rax+96]
	movzx	eax, BYTE PTR [rax+66]
	cmp	eax, 3
	jne	SHORT $LN4@cmp_types
	mov	rax, QWORD PTR opnd1$[rsp]
	mov	rax, QWORD PTR [rax+96]
	movzx	eax, BYTE PTR [rax+45]
	test	eax, eax
	jne	SHORT $LN4@cmp_types

; 2540 :             opnd1->type = NULL;

	mov	rax, QWORD PTR opnd1$[rsp]
	mov	QWORD PTR [rax+96], 0
$LN4@cmp_types:

; 2541 :         if ( opnd2->type && opnd2->type->typekind == TYPE_TYPEDEF && opnd2->type->is_ptr == 0 )

	mov	rax, QWORD PTR opnd2$[rsp]
	cmp	QWORD PTR [rax+96], 0
	je	SHORT $LN5@cmp_types
	mov	rax, QWORD PTR opnd2$[rsp]
	mov	rax, QWORD PTR [rax+96]
	movzx	eax, BYTE PTR [rax+66]
	cmp	eax, 3
	jne	SHORT $LN5@cmp_types
	mov	rax, QWORD PTR opnd2$[rsp]
	mov	rax, QWORD PTR [rax+96]
	movzx	eax, BYTE PTR [rax+45]
	test	eax, eax
	jne	SHORT $LN5@cmp_types

; 2542 :             opnd2->type = NULL;

	mov	rax, QWORD PTR opnd2$[rsp]
	mov	QWORD PTR [rax+96], 0
$LN5@cmp_types:

; 2543 :         opnd1->value64 = ( ( opnd1->mem_type == opnd2->mem_type &&

	mov	rax, QWORD PTR opnd1$[rsp]
	mov	rcx, QWORD PTR opnd2$[rsp]
	mov	ecx, DWORD PTR [rcx+64]
	cmp	DWORD PTR [rax+64], ecx
	jne	SHORT $LN17@cmp_types
	mov	rax, QWORD PTR opnd1$[rsp]
	mov	rcx, QWORD PTR opnd2$[rsp]
	mov	rcx, QWORD PTR [rcx+96]
	cmp	QWORD PTR [rax+96], rcx
	jne	SHORT $LN17@cmp_types
	mov	eax, DWORD PTR trueval$[rsp]
	mov	DWORD PTR tv201[rsp], eax
	jmp	SHORT $LN18@cmp_types
$LN17@cmp_types:
	mov	eax, DWORD PTR trueval$[rsp]
	not	eax
	mov	DWORD PTR tv201[rsp], eax
$LN18@cmp_types:
	movsxd	rax, DWORD PTR tv201[rsp]
	mov	rcx, QWORD PTR opnd1$[rsp]
	mov	QWORD PTR [rcx], rax
$LN3@cmp_types:

; 2544 :                             opnd1->type == opnd2->type ) ? trueval : ~trueval );
; 2545 :     }
; 2546 : }

	add	rsp, 120				; 00000078H
	ret	0
cmp_types ENDP
_TEXT	ENDS
; Function compile flags: /Odtp
; File d:\hjwasm\hjwasm2.13.1s\hjwasm2.13.1s\expreval.c
_TEXT	SEGMENT
opnd1$ = 48
opnd2$ = 56
check_streg PROC

; 2501 : {

	mov	QWORD PTR [rsp+16], rdx
	mov	QWORD PTR [rsp+8], rcx
	sub	rsp, 40					; 00000028H

; 2502 :     if ( opnd1->scale > 0 ) {

	mov	rax, QWORD PTR opnd1$[rsp]
	movzx	eax, BYTE PTR [rax+68]
	test	eax, eax
	jle	SHORT $LN2@check_stre

; 2503 :         return( fnEmitErr( INVALID_USE_OF_REGISTER ) );

	mov	ecx, 170				; 000000aaH
	call	QWORD PTR fnEmitErr
	jmp	SHORT $LN1@check_stre
$LN2@check_stre:

; 2504 :     }
; 2505 :     opnd1->scale++; /* make sure there's only ONE bracket pair */

	mov	rax, QWORD PTR opnd1$[rsp]
	movzx	eax, BYTE PTR [rax+68]
	inc	al
	mov	rcx, QWORD PTR opnd1$[rsp]
	mov	BYTE PTR [rcx+68], al

; 2506 :     if ( opnd2->kind != EXPR_CONST ) {

	mov	rax, QWORD PTR opnd2$[rsp]
	cmp	DWORD PTR [rax+60], 0
	je	SHORT $LN3@check_stre

; 2507 :         return( fnEmitErr( INVALID_COPROCESSOR_REGISTER ) );

	mov	ecx, 252				; 000000fcH
	call	QWORD PTR fnEmitErr
	jmp	SHORT $LN1@check_stre
$LN3@check_stre:

; 2508 :     }
; 2509 :     opnd1->st_idx = opnd2->value;

	mov	rax, QWORD PTR opnd1$[rsp]
	mov	rcx, QWORD PTR opnd2$[rsp]
	mov	ecx, DWORD PTR [rcx]
	mov	DWORD PTR [rax], ecx

; 2510 :     return( NOT_ERROR );

	xor	eax, eax
$LN1@check_stre:

; 2511 : }

	add	rsp, 40					; 00000028H
	ret	0
check_streg ENDP
_TEXT	ENDS
; Function compile flags: /Odtp
; File d:\hjwasm\hjwasm2.13.1s\hjwasm2.13.1s\expreval.c
_TEXT	SEGMENT
tv180 = 80
tv139 = 84
tv154 = 88
sym$ = 96
tv145 = 104
tv151 = 112
tv164 = 120
tv170 = 128
opnd$ = 160
CheckAssume PROC

; 2437 : {

	mov	QWORD PTR [rsp+8], rcx
	sub	rsp, 152				; 00000098H

; 2438 :     struct asym *sym = NULL;

	mov	QWORD PTR sym$[rsp], 0

; 2439 : 
; 2440 : #if 1 /* v2.10: see regression test ptr2.asm */
; 2441 :     if ( opnd->explicit ) { /* perhaps check mem_type instead of explicit */

	mov	rax, QWORD PTR opnd$[rsp]
	mov	eax, DWORD PTR [rax+72]
	shr	eax, 1
	and	eax, 1
	test	eax, eax
	je	$LN2@CheckAssum

; 2442 :         if ( opnd->type && opnd->type->mem_type == MT_PTR ) {

	mov	rax, QWORD PTR opnd$[rsp]
	cmp	QWORD PTR [rax+96], 0
	je	$LN3@CheckAssum
	mov	rax, QWORD PTR opnd$[rsp]
	mov	rax, QWORD PTR [rax+96]
	cmp	DWORD PTR [rax+36], 195			; 000000c3H
	jne	SHORT $LN3@CheckAssum

; 2443 :             DebugMsg1(( "CheckAssume(%s, MT_PTR type=>%s< )\n", opnd->type->name ));

	mov	rax, QWORD PTR opnd$[rsp]
	mov	rax, QWORD PTR [rax+96]
	mov	rdx, QWORD PTR [rax+8]
	lea	rcx, OFFSET FLAT:$SG12047
	call	DoDebugMsg1

; 2444 :             if ( opnd->type->is_ptr == 1 ) { /* dereference only if indirection is 1 */

	mov	rax, QWORD PTR opnd$[rsp]
	mov	rax, QWORD PTR [rax+96]
	movzx	eax, BYTE PTR [rax+45]
	cmp	eax, 1
	jne	SHORT $LN4@CheckAssum

; 2445 :                 opnd->mem_type = opnd->type->ptr_memtype;

	mov	rax, QWORD PTR opnd$[rsp]
	mov	rax, QWORD PTR [rax+96]
	movzx	eax, BYTE PTR [rax+46]
	mov	rcx, QWORD PTR opnd$[rsp]
	mov	DWORD PTR [rcx+64], eax

; 2446 :                 opnd->type = opnd->type->target_type;

	mov	rax, QWORD PTR opnd$[rsp]
	mov	rax, QWORD PTR [rax+96]
	mov	rcx, QWORD PTR opnd$[rsp]
	mov	rax, QWORD PTR [rax+48]
	mov	QWORD PTR [rcx+96], rax

; 2447 :                 return; /* ignore assumes in this case */

	jmp	$LN1@CheckAssum
$LN4@CheckAssum:
$LN3@CheckAssum:
$LN2@CheckAssum:

; 2448 :             }
; 2449 :         }
; 2450 :     }
; 2451 : #endif
; 2452 :     /* in jwasm < v2.10, the idx_reg had higher priority than base_reg.
; 2453 :      * However, the base reg is supposed to have a higher priority.
; 2454 :      * This wasn't fully clear, because in Masm 6, if no register has
; 2455 :      * a scaling factor, the second one becomes base - something that
; 2456 :      * HJWasm didn't do, unless -Zg was set.
; 2457 :      * Since v2.10, HJWasm behaves like Masm v6+: base and index registers
; 2458 :      * are swapped, and assume for base has higher priority than assume for
; 2459 :      * index.
; 2460 :      */
; 2461 :     if ( opnd->base_reg ) {

	mov	rax, QWORD PTR opnd$[rsp]
	cmp	QWORD PTR [rax+24], 0
	je	SHORT $LN5@CheckAssum

; 2462 :         sym = GetStdAssumeEx( opnd->base_reg->bytval );

	mov	rax, QWORD PTR opnd$[rsp]
	mov	rax, QWORD PTR [rax+24]
	movzx	eax, BYTE PTR [rax+1]
	mov	ecx, eax
	call	GetStdAssumeEx
	mov	QWORD PTR sym$[rsp], rax
$LN5@CheckAssum:

; 2463 :     }
; 2464 :     if (!sym && opnd->idx_reg ) {

	cmp	QWORD PTR sym$[rsp], 0
	jne	SHORT $LN6@CheckAssum
	mov	rax, QWORD PTR opnd$[rsp]
	cmp	QWORD PTR [rax+32], 0
	je	SHORT $LN6@CheckAssum

; 2465 :         sym = GetStdAssumeEx( opnd->idx_reg->bytval );

	mov	rax, QWORD PTR opnd$[rsp]
	mov	rax, QWORD PTR [rax+32]
	movzx	eax, BYTE PTR [rax+1]
	mov	ecx, eax
	call	GetStdAssumeEx
	mov	QWORD PTR sym$[rsp], rax
$LN6@CheckAssum:

; 2466 :     }
; 2467 :     if ( sym ) {

	cmp	QWORD PTR sym$[rsp], 0
	je	$LN7@CheckAssum

; 2468 :       if ( opnd->type != NULL ){ 

	mov	rax, QWORD PTR opnd$[rsp]
	cmp	QWORD PTR [rax+96], 0
	je	$LN8@CheckAssum

; 2469 :         DebugMsg1(( "CheckAssume(%s, type=>%s<, mbr=>%s<): assume=%s [memtype=%X isptr=%u type=%s target_type=%s ptr_memt=%X]\n",

	mov	rax, QWORD PTR sym$[rsp]
	cmp	QWORD PTR [rax+48], 0
	je	SHORT $LN15@CheckAssum
	mov	rax, QWORD PTR sym$[rsp]
	mov	rax, QWORD PTR [rax+48]
	mov	rax, QWORD PTR [rax+8]
	mov	QWORD PTR tv145[rsp], rax
	jmp	SHORT $LN16@CheckAssum
$LN15@CheckAssum:
	lea	rax, OFFSET FLAT:$SG12053
	mov	QWORD PTR tv145[rsp], rax
$LN16@CheckAssum:
	mov	rax, QWORD PTR sym$[rsp]
	cmp	QWORD PTR [rax+80], 0
	je	SHORT $LN17@CheckAssum
	mov	rax, QWORD PTR sym$[rsp]
	mov	rax, QWORD PTR [rax+80]
	mov	rax, QWORD PTR [rax+8]
	mov	QWORD PTR tv151[rsp], rax
	jmp	SHORT $LN18@CheckAssum
$LN17@CheckAssum:
	lea	rax, OFFSET FLAT:$SG12054
	mov	QWORD PTR tv151[rsp], rax
$LN18@CheckAssum:
	mov	rax, QWORD PTR opnd$[rsp]
	cmp	QWORD PTR [rax+88], 0
	je	SHORT $LN19@CheckAssum
	mov	rax, QWORD PTR opnd$[rsp]
	mov	rax, QWORD PTR [rax+88]
	mov	rax, QWORD PTR [rax+8]
	mov	QWORD PTR tv164[rsp], rax
	jmp	SHORT $LN20@CheckAssum
$LN19@CheckAssum:
	lea	rax, OFFSET FLAT:$SG12055
	mov	QWORD PTR tv164[rsp], rax
$LN20@CheckAssum:
	mov	rax, QWORD PTR opnd$[rsp]
	cmp	QWORD PTR [rax+96], 0
	je	SHORT $LN21@CheckAssum
	mov	rax, QWORD PTR opnd$[rsp]
	mov	rax, QWORD PTR [rax+96]
	mov	rax, QWORD PTR [rax+8]
	mov	QWORD PTR tv170[rsp], rax
	jmp	SHORT $LN22@CheckAssum
$LN21@CheckAssum:
	lea	rax, OFFSET FLAT:$SG12056
	mov	QWORD PTR tv170[rsp], rax
$LN22@CheckAssum:
	mov	rax, QWORD PTR opnd$[rsp]
	cmp	QWORD PTR [rax+32], 0
	je	SHORT $LN23@CheckAssum
	mov	rax, QWORD PTR opnd$[rsp]
	mov	rax, QWORD PTR [rax+32]
	mov	eax, DWORD PTR [rax+16]
	mov	DWORD PTR tv180[rsp], eax
	jmp	SHORT $LN24@CheckAssum
$LN23@CheckAssum:
	mov	rax, QWORD PTR opnd$[rsp]
	mov	rax, QWORD PTR [rax+24]
	mov	eax, DWORD PTR [rax+16]
	mov	DWORD PTR tv180[rsp], eax
$LN24@CheckAssum:
	mov	rax, QWORD PTR sym$[rsp]
	movzx	eax, BYTE PTR [rax+46]
	mov	DWORD PTR tv139[rsp], eax
	mov	rcx, QWORD PTR sym$[rsp]
	movzx	ecx, BYTE PTR [rcx+45]
	mov	DWORD PTR tv154[rsp], ecx
	xor	edx, edx
	mov	ecx, DWORD PTR tv180[rsp]
	call	GetResWName
	mov	ecx, DWORD PTR tv139[rsp]
	mov	DWORD PTR [rsp+72], ecx
	mov	rcx, QWORD PTR tv145[rsp]
	mov	QWORD PTR [rsp+64], rcx
	mov	rcx, QWORD PTR tv151[rsp]
	mov	QWORD PTR [rsp+56], rcx
	mov	ecx, DWORD PTR tv154[rsp]
	mov	DWORD PTR [rsp+48], ecx
	mov	rcx, QWORD PTR sym$[rsp]
	mov	ecx, DWORD PTR [rcx+36]
	mov	DWORD PTR [rsp+40], ecx
	mov	rcx, QWORD PTR sym$[rsp]
	mov	rcx, QWORD PTR [rcx+8]
	mov	QWORD PTR [rsp+32], rcx
	mov	r9, QWORD PTR tv164[rsp]
	mov	r8, QWORD PTR tv170[rsp]
	mov	rdx, rax
	lea	rcx, OFFSET FLAT:$SG12057
	call	DoDebugMsg1
$LN8@CheckAssum:

; 2470 :                    GetResWName( ( opnd->idx_reg ? opnd->idx_reg->tokval : opnd->base_reg->tokval ), NULL ),
; 2471 :                    opnd->type ? opnd->type->name : "NULL",
; 2472 :                    opnd->mbr ? opnd->mbr->name : "NULL",
; 2473 :                    sym->name, sym->mem_type, sym->is_ptr,
; 2474 :                    sym->type ? sym->type->name : "NULL",
; 2475 :                    sym->target_type ? sym->target_type->name : "NULL",
; 2476 :                    sym->ptr_memtype ));
; 2477 :       }
; 2478 :         /* v2.08: skip ASSUMEd type if type or mbr is set */
; 2479 :         //if ( opnd->type || opnd->mbr )
; 2480 :         //    return;
; 2481 :         /* skip "alias" types */
; 2482 :         /* v2.05: obsolete */
; 2483 :         //for ( ; sym->type; sym = sym->type );
; 2484 :         /* v2.05: new */
; 2485 :         if ( sym->mem_type == MT_TYPE )

	mov	rax, QWORD PTR sym$[rsp]
	cmp	DWORD PTR [rax+36], 196			; 000000c4H
	jne	SHORT $LN9@CheckAssum

; 2486 :             opnd->type = sym->type;

	mov	rax, QWORD PTR opnd$[rsp]
	mov	rcx, QWORD PTR sym$[rsp]
	mov	rcx, QWORD PTR [rcx+80]
	mov	QWORD PTR [rax+96], rcx
	jmp	SHORT $LN10@CheckAssum
$LN9@CheckAssum:

; 2487 :         else if ( sym->is_ptr == 1 ) { /* v2.10: only dereference if indirection is 1 */

	mov	rax, QWORD PTR sym$[rsp]
	movzx	eax, BYTE PTR [rax+45]
	cmp	eax, 1
	jne	SHORT $LN11@CheckAssum

; 2488 :             opnd->type = sym->target_type;

	mov	rax, QWORD PTR opnd$[rsp]
	mov	rcx, QWORD PTR sym$[rsp]
	mov	rcx, QWORD PTR [rcx+48]
	mov	QWORD PTR [rax+96], rcx

; 2489 :             if ( sym->target_type )

	mov	rax, QWORD PTR sym$[rsp]
	cmp	QWORD PTR [rax+48], 0
	je	SHORT $LN12@CheckAssum

; 2490 :                 opnd->mem_type = sym->target_type->mem_type;

	mov	rax, QWORD PTR sym$[rsp]
	mov	rax, QWORD PTR [rax+48]
	mov	rcx, QWORD PTR opnd$[rsp]
	mov	eax, DWORD PTR [rax+36]
	mov	DWORD PTR [rcx+64], eax
	jmp	SHORT $LN13@CheckAssum
$LN12@CheckAssum:

; 2491 :             else
; 2492 :                 opnd->mem_type = sym->ptr_memtype;

	mov	rax, QWORD PTR sym$[rsp]
	movzx	eax, BYTE PTR [rax+46]
	mov	rcx, QWORD PTR opnd$[rsp]
	mov	DWORD PTR [rcx+64], eax
$LN13@CheckAssum:
$LN11@CheckAssum:
$LN10@CheckAssum:
$LN7@CheckAssum:
$LN1@CheckAssum:

; 2493 :         }
; 2494 :     }
; 2495 : }

	add	rsp, 152				; 00000098H
	ret	0
CheckAssume ENDP
_TEXT	ENDS
; Function compile flags: /Odtp
; File d:\hjwasm\hjwasm2.13.1s\hjwasm2.13.1s\expreval.c
_TEXT	SEGMENT
opnd1$ = 48
opnd2$ = 56
negative_op PROC

; 2402 : {

	mov	QWORD PTR [rsp+16], rdx
	mov	QWORD PTR [rsp+8], rcx
	sub	rsp, 40					; 00000028H

; 2403 :     DebugMsg1(("negative_op: value=%" I64_SPEC "X high=%" I64_SPEC "X\n", opnd2->llvalue, opnd2->hlvalue ));

	mov	rax, QWORD PTR opnd2$[rsp]
	mov	r8, QWORD PTR [rax+8]
	mov	rax, QWORD PTR opnd2$[rsp]
	mov	rdx, QWORD PTR [rax]
	lea	rcx, OFFSET FLAT:$SG12030
	call	DoDebugMsg1

; 2404 :     /*
; 2405 :      * The formats allowed are:
; 2406 :      *        - constant
; 2407 :      *        - float
; 2408 :      */
; 2409 : 
; 2410 :     MakeConst( opnd2 );

	mov	rcx, QWORD PTR opnd2$[rsp]
	call	MakeConst

; 2411 :     if( opnd2->kind == EXPR_CONST ) {

	mov	rax, QWORD PTR opnd2$[rsp]
	cmp	DWORD PTR [rax+60], 0
	jne	SHORT $LN2@negative_o

; 2412 :         opnd1->kind = EXPR_CONST;

	mov	rax, QWORD PTR opnd1$[rsp]
	mov	DWORD PTR [rax+60], 0

; 2413 :         opnd1->llvalue = -opnd2->llvalue;

	mov	rax, QWORD PTR opnd2$[rsp]
	mov	rax, QWORD PTR [rax]
	neg	rax
	mov	rcx, QWORD PTR opnd1$[rsp]
	mov	QWORD PTR [rcx], rax

; 2414 :         /* v2.06: the unary '-' operator is to work with
; 2415 :          * magnitudes > 64-bit. Current implementation is
; 2416 :          * a bit hackish.
; 2417 :          */
; 2418 :         if ( opnd2->hlvalue )

	mov	rax, QWORD PTR opnd2$[rsp]
	cmp	QWORD PTR [rax+8], 0
	je	SHORT $LN4@negative_o

; 2419 :             opnd1->hlvalue = -opnd2->hlvalue - 1;

	mov	rax, QWORD PTR opnd2$[rsp]
	mov	rax, QWORD PTR [rax+8]
	neg	rax
	dec	rax
	mov	rcx, QWORD PTR opnd1$[rsp]
	mov	QWORD PTR [rcx+8], rax
$LN4@negative_o:

; 2420 :         opnd1->negative = 1 - opnd2->negative; /* ??? supposed to be used for EXPR_FLOAT only! */

	mov	rax, QWORD PTR opnd2$[rsp]
	mov	eax, DWORD PTR [rax+72]
	shr	eax, 5
	and	eax, 1
	mov	ecx, 1
	sub	ecx, eax
	mov	eax, ecx
	and	eax, 1
	shl	eax, 5
	mov	rcx, QWORD PTR opnd1$[rsp]
	mov	ecx, DWORD PTR [rcx+72]
	and	ecx, -33				; ffffffdfH
	or	ecx, eax
	mov	eax, ecx
	mov	rcx, QWORD PTR opnd1$[rsp]
	mov	DWORD PTR [rcx+72], eax
	jmp	$LN3@negative_o
$LN2@negative_o:

; 2421 :     } else if( opnd2->kind == EXPR_FLOAT ) {

	mov	rax, QWORD PTR opnd2$[rsp]
	cmp	DWORD PTR [rax+60], 3
	jne	SHORT $LN5@negative_o

; 2422 :         opnd1->kind = EXPR_FLOAT;

	mov	rax, QWORD PTR opnd1$[rsp]
	mov	DWORD PTR [rax+60], 3

; 2423 :         opnd1->float_tok = opnd2->float_tok;

	mov	rax, QWORD PTR opnd1$[rsp]
	mov	rcx, QWORD PTR opnd2$[rsp]
	mov	rcx, QWORD PTR [rcx+16]
	mov	QWORD PTR [rax+16], rcx

; 2424 :         opnd1->negative = 1 - opnd2->negative;

	mov	rax, QWORD PTR opnd2$[rsp]
	mov	eax, DWORD PTR [rax+72]
	shr	eax, 5
	and	eax, 1
	mov	ecx, 1
	sub	ecx, eax
	mov	eax, ecx
	and	eax, 1
	shl	eax, 5
	mov	rcx, QWORD PTR opnd1$[rsp]
	mov	ecx, DWORD PTR [rcx+72]
	and	ecx, -33				; ffffffdfH
	or	ecx, eax
	mov	eax, ecx
	mov	rcx, QWORD PTR opnd1$[rsp]
	mov	DWORD PTR [rcx+72], eax

; 2425 :     } else {

	jmp	SHORT $LN6@negative_o
$LN5@negative_o:

; 2426 :         DebugMsg(("negative_op: unexpected opnd2.kind=%d\n", opnd2->kind ));

	mov	rax, QWORD PTR opnd2$[rsp]
	mov	edx, DWORD PTR [rax+60]
	lea	rcx, OFFSET FLAT:$SG12036
	call	DoDebugMsg

; 2427 :         return( fnEmitErr( CONSTANT_EXPECTED ) );

	mov	ecx, 65					; 00000041H
	call	QWORD PTR fnEmitErr
	jmp	SHORT $LN1@negative_o
$LN6@negative_o:
$LN3@negative_o:

; 2428 :     }
; 2429 :     return( NOT_ERROR );

	xor	eax, eax
$LN1@negative_o:

; 2430 : }

	add	rsp, 40					; 00000028H
	ret	0
negative_op ENDP
_TEXT	ENDS
; Function compile flags: /Odtp
; File d:\hjwasm\hjwasm2.13.1s\hjwasm2.13.1s\expreval.c
_TEXT	SEGMENT
opnd1$ = 48
opnd2$ = 56
positive_op PROC

; 2374 : {

	mov	QWORD PTR [rsp+16], rdx
	mov	QWORD PTR [rsp+8], rcx
	sub	rsp, 40					; 00000028H

; 2375 :     DebugMsg1(("positive_op: value=%" I64_SPEC "X high=%" I64_SPEC "X\n", opnd2->llvalue, opnd2->hlvalue ));

	mov	rax, QWORD PTR opnd2$[rsp]
	mov	r8, QWORD PTR [rax+8]
	mov	rax, QWORD PTR opnd2$[rsp]
	mov	rdx, QWORD PTR [rax]
	lea	rcx, OFFSET FLAT:$SG12018
	call	DoDebugMsg1

; 2376 :     /*
; 2377 :      * The formats allowed are:
; 2378 :      *        + constant
; 2379 :      *        + float
; 2380 :      * v2.06: unlike the other operators unary + will
; 2381 :      * handle 128-bit values (needed for TBYTE integers)
; 2382 :      */
; 2383 : 
; 2384 :     MakeConst( opnd2 );

	mov	rcx, QWORD PTR opnd2$[rsp]
	call	MakeConst

; 2385 :     if( opnd2->kind == EXPR_CONST ) {

	mov	rax, QWORD PTR opnd2$[rsp]
	cmp	DWORD PTR [rax+60], 0
	jne	SHORT $LN2@positive_o

; 2386 :         opnd1->kind = EXPR_CONST;

	mov	rax, QWORD PTR opnd1$[rsp]
	mov	DWORD PTR [rax+60], 0

; 2387 :         opnd1->llvalue = opnd2->llvalue;

	mov	rax, QWORD PTR opnd1$[rsp]
	mov	rcx, QWORD PTR opnd2$[rsp]
	mov	rcx, QWORD PTR [rcx]
	mov	QWORD PTR [rax], rcx

; 2388 :         opnd1->hlvalue = opnd2->hlvalue; /* v2.06: added */

	mov	rax, QWORD PTR opnd1$[rsp]
	mov	rcx, QWORD PTR opnd2$[rsp]
	mov	rcx, QWORD PTR [rcx+8]
	mov	QWORD PTR [rax+8], rcx
	jmp	SHORT $LN3@positive_o
$LN2@positive_o:

; 2389 :     } else if( opnd2->kind == EXPR_FLOAT ) {

	mov	rax, QWORD PTR opnd2$[rsp]
	cmp	DWORD PTR [rax+60], 3
	jne	SHORT $LN4@positive_o

; 2390 :         opnd1->kind = EXPR_FLOAT;

	mov	rax, QWORD PTR opnd1$[rsp]
	mov	DWORD PTR [rax+60], 3

; 2391 :         opnd1->float_tok = opnd2->float_tok;

	mov	rax, QWORD PTR opnd1$[rsp]
	mov	rcx, QWORD PTR opnd2$[rsp]
	mov	rcx, QWORD PTR [rcx+16]
	mov	QWORD PTR [rax+16], rcx

; 2392 :         opnd1->negative = opnd2->negative;

	mov	rax, QWORD PTR opnd2$[rsp]
	mov	eax, DWORD PTR [rax+72]
	shr	eax, 5
	and	eax, 1
	and	eax, 1
	shl	eax, 5
	mov	rcx, QWORD PTR opnd1$[rsp]
	mov	ecx, DWORD PTR [rcx+72]
	and	ecx, -33				; ffffffdfH
	or	ecx, eax
	mov	eax, ecx
	mov	rcx, QWORD PTR opnd1$[rsp]
	mov	DWORD PTR [rcx+72], eax

; 2393 :     } else {

	jmp	SHORT $LN5@positive_o
$LN4@positive_o:

; 2394 :         DebugMsg(("positive_op: error 1\n"));

	lea	rcx, OFFSET FLAT:$SG12023
	call	DoDebugMsg

; 2395 :         return( fnEmitErr( CONSTANT_EXPECTED ) );

	mov	ecx, 65					; 00000041H
	call	QWORD PTR fnEmitErr
	jmp	SHORT $LN1@positive_o
$LN5@positive_o:
$LN3@positive_o:

; 2396 :     }
; 2397 :     return( NOT_ERROR );

	xor	eax, eax
$LN1@positive_o:

; 2398 : }

	add	rsp, 40					; 00000028H
	ret	0
positive_op ENDP
_TEXT	ENDS
; Function compile flags: /Odtp
; File d:\hjwasm\hjwasm2.13.1s\hjwasm2.13.1s\expreval.c
_TEXT	SEGMENT
tv142 = 64
temp$ = 68
sym$ = 72
tv76 = 80
tv82 = 88
opnd1$ = 112
opnd2$ = 120
colon_op PROC

; 2243 : {

	mov	QWORD PTR [rsp+16], rdx
	mov	QWORD PTR [rsp+8], rcx
	sub	rsp, 104				; 00000068H

; 2244 :     int_32              temp;
; 2245 :     struct asym         *sym;
; 2246 :     /*
; 2247 :      * The only formats allowed are:
; 2248 :      *     seg_reg : const
; 2249 :      *     seg_reg : address
; 2250 :      *     seg_label : const
; 2251 :      *     seg_label : address
; 2252 :      *     ( seg_label = segment or group symbol )
; 2253 :      *     inside square brackets, seg_reg : register is not accepted
; 2254 :      *     if Masm-syntax is on.
; 2255 :      */
; 2256 :     DebugMsg1(("colon_op: t1-t2 kind=%d/%d type=%s-%s is_type=%u-%u\n",

	mov	rax, QWORD PTR opnd2$[rsp]
	cmp	QWORD PTR [rax+96], 0
	je	SHORT $LN27@colon_op
	mov	rax, QWORD PTR opnd2$[rsp]
	mov	rax, QWORD PTR [rax+96]
	mov	rax, QWORD PTR [rax+8]
	mov	QWORD PTR tv76[rsp], rax
	jmp	SHORT $LN28@colon_op
$LN27@colon_op:
	lea	rax, OFFSET FLAT:$SG11982
	mov	QWORD PTR tv76[rsp], rax
$LN28@colon_op:
	mov	rax, QWORD PTR opnd1$[rsp]
	cmp	QWORD PTR [rax+96], 0
	je	SHORT $LN29@colon_op
	mov	rax, QWORD PTR opnd1$[rsp]
	mov	rax, QWORD PTR [rax+96]
	mov	rax, QWORD PTR [rax+8]
	mov	QWORD PTR tv82[rsp], rax
	jmp	SHORT $LN30@colon_op
$LN29@colon_op:
	lea	rax, OFFSET FLAT:$SG11983
	mov	QWORD PTR tv82[rsp], rax
$LN30@colon_op:
	mov	rax, QWORD PTR opnd2$[rsp]
	mov	eax, DWORD PTR [rax+72]
	shr	eax, 3
	and	eax, 1
	mov	rcx, QWORD PTR opnd1$[rsp]
	mov	ecx, DWORD PTR [rcx+72]
	shr	ecx, 3
	and	ecx, 1
	mov	DWORD PTR [rsp+48], eax
	mov	DWORD PTR [rsp+40], ecx
	mov	rax, QWORD PTR tv76[rsp]
	mov	QWORD PTR [rsp+32], rax
	mov	r9, QWORD PTR tv82[rsp]
	mov	rax, QWORD PTR opnd2$[rsp]
	mov	r8d, DWORD PTR [rax+60]
	mov	rax, QWORD PTR opnd1$[rsp]
	mov	edx, DWORD PTR [rax+60]
	lea	rcx, OFFSET FLAT:$SG11984
	call	DoDebugMsg1

; 2257 :                opnd1->kind, opnd2->kind,
; 2258 :                opnd1->type ? opnd1->type->name : "NULL",
; 2259 :                opnd2->type ? opnd2->type->name : "NULL",
; 2260 :                opnd1->is_type, opnd2->is_type ));
; 2261 :     if( opnd2->override != NULL ) {

	mov	rax, QWORD PTR opnd2$[rsp]
	cmp	QWORD PTR [rax+48], 0
	je	SHORT $LN4@colon_op

; 2262 :         /* v2.07a: was too rigid */
; 2263 :         if ( ( opnd1->kind == EXPR_REG && opnd2->override->token == T_REG ) ||

	mov	rax, QWORD PTR opnd1$[rsp]
	cmp	DWORD PTR [rax+60], 2
	jne	SHORT $LN7@colon_op
	mov	rax, QWORD PTR opnd2$[rsp]
	mov	rax, QWORD PTR [rax+48]
	movzx	eax, BYTE PTR [rax]
	cmp	eax, 2
	je	SHORT $LN6@colon_op
$LN7@colon_op:
	mov	rax, QWORD PTR opnd1$[rsp]
	cmp	DWORD PTR [rax+60], 1
	jne	SHORT $LN5@colon_op
	mov	rax, QWORD PTR opnd2$[rsp]
	mov	rax, QWORD PTR [rax+48]
	movzx	eax, BYTE PTR [rax]
	cmp	eax, 8
	jne	SHORT $LN5@colon_op
$LN6@colon_op:

; 2264 :             ( opnd1->kind == EXPR_ADDR && opnd2->override->token == T_ID ) ) {
; 2265 :             DebugMsg(("colon_op: multiple override=%s\n", opnd2->override->string_ptr ));

	mov	rax, QWORD PTR opnd2$[rsp]
	mov	rax, QWORD PTR [rax+48]
	mov	rdx, QWORD PTR [rax+8]
	lea	rcx, OFFSET FLAT:$SG11989
	call	DoDebugMsg

; 2266 :             return( fnEmitErr( MULTIPLE_OVERRIDES ) );

	mov	ecx, 68					; 00000044H
	call	QWORD PTR fnEmitErr
	jmp	$LN1@colon_op
$LN5@colon_op:
$LN4@colon_op:

; 2267 :         }
; 2268 :     }
; 2269 :     switch ( opnd2->kind ) {

	mov	rax, QWORD PTR opnd2$[rsp]
	mov	eax, DWORD PTR [rax+60]
	mov	DWORD PTR tv142[rsp], eax
	cmp	DWORD PTR tv142[rsp], 2
	je	SHORT $LN8@colon_op
	cmp	DWORD PTR tv142[rsp], 3
	je	SHORT $LN10@colon_op
	jmp	SHORT $LN2@colon_op
$LN8@colon_op:

; 2270 :     case EXPR_REG:
; 2271 :         /* v2.05: register as second operand must be enclosed in [] */
; 2272 :         if ( opnd2->indirect == FALSE ) {

	mov	rax, QWORD PTR opnd2$[rsp]
	mov	eax, DWORD PTR [rax+72]
	and	eax, 1
	test	eax, eax
	jne	SHORT $LN9@colon_op

; 2273 :             DebugMsg(("colon_op: register after : not enclosed in []\n" ));

	lea	rcx, OFFSET FLAT:$SG11992
	call	DoDebugMsg

; 2274 :             return( fnEmitErr( INVALID_USE_OF_REGISTER ) );

	mov	ecx, 170				; 000000aaH
	call	QWORD PTR fnEmitErr
	jmp	$LN1@colon_op
$LN9@colon_op:

; 2275 :         }
; 2276 :         break;

	jmp	SHORT $LN2@colon_op
$LN10@colon_op:

; 2277 :     case EXPR_FLOAT:
; 2278 :         return( fnEmitErr( REAL_OR_BCD_NUMBER_NOT_ALLOWED ) );

	mov	ecx, 271				; 0000010fH
	call	QWORD PTR fnEmitErr
	jmp	$LN1@colon_op
$LN2@colon_op:

; 2279 :     }
; 2280 : 
; 2281 :     if( opnd1->kind == EXPR_REG ) {

	mov	rax, QWORD PTR opnd1$[rsp]
	cmp	DWORD PTR [rax+60], 2
	jne	$LN11@colon_op

; 2282 : 
; 2283 :         /* the item before the ':' must be a single register */
; 2284 :         if( opnd1->idx_reg != NULL ) {

	mov	rax, QWORD PTR opnd1$[rsp]
	cmp	QWORD PTR [rax+32], 0
	je	SHORT $LN13@colon_op

; 2285 :             DebugMsg(("colon_op: register before ':' has idx_reg set!?\n"));

	lea	rcx, OFFSET FLAT:$SG11997
	call	DoDebugMsg

; 2286 :             return( fnEmitErr( INVALID_USE_OF_REGISTER ) );

	mov	ecx, 170				; 000000aaH
	call	QWORD PTR fnEmitErr
	jmp	$LN1@colon_op
$LN13@colon_op:

; 2287 :         }
; 2288 :         /* segment override inside bracket not allowed with -Zne.
; 2289 :          * [ds:0] is ok, but [ds:ebx] is rejected.
; 2290 :          */
; 2291 :         /* v2.08: test moved here from get_operand() */
; 2292 :         /* v2.10: regression in v2.08-2.09: check was way too simple.
; 2293 :          * problem: indirect-flag isn't set for segment regs (anymore?).
; 2294 :          * error check moved back to get_operand().
; 2295 :          */
; 2296 : #if 0
; 2297 :         if ( Options.strict_masm_compat ) {
; 2298 :             return( fnEmitErr( INVALID_USE_OF_REGISTER ) );
; 2299 :         }
; 2300 : #endif
; 2301 :         /* make sure first operand is a segment register */
; 2302 :         temp = opnd1->base_reg->tokval;

	mov	rax, QWORD PTR opnd1$[rsp]
	mov	rax, QWORD PTR [rax+24]
	mov	eax, DWORD PTR [rax+16]
	mov	DWORD PTR temp$[rsp], eax

; 2303 :         if ( ( GetValueSp( temp ) & OP_SR ) == 0 ) {

	movsxd	rax, DWORD PTR temp$[rsp]
	imul	rax, rax, 12
	lea	rcx, OFFSET FLAT:SpecialTable
	mov	eax, DWORD PTR [rcx+rax]
	and	eax, 24576				; 00006000H
	test	eax, eax
	jne	SHORT $LN14@colon_op

; 2304 :             return( fnEmitErr( SEGMENT_GROUP_OR_SEGREG_EXPECTED ) );

	mov	ecx, 69					; 00000045H
	call	QWORD PTR fnEmitErr
	jmp	$LN1@colon_op
$LN14@colon_op:

; 2305 :         }
; 2306 : 
; 2307 :         opnd2->override = opnd1->base_reg;

	mov	rax, QWORD PTR opnd2$[rsp]
	mov	rcx, QWORD PTR opnd1$[rsp]
	mov	rcx, QWORD PTR [rcx+24]
	mov	QWORD PTR [rax+48], rcx

; 2308 :         opnd2->indirect |= opnd1->indirect;

	mov	rax, QWORD PTR opnd2$[rsp]
	mov	eax, DWORD PTR [rax+72]
	and	eax, 1
	mov	rcx, QWORD PTR opnd1$[rsp]
	mov	ecx, DWORD PTR [rcx+72]
	and	ecx, 1
	or	eax, ecx
	and	eax, 1
	mov	rcx, QWORD PTR opnd2$[rsp]
	mov	ecx, DWORD PTR [rcx+72]
	and	ecx, -2					; fffffffeH
	or	ecx, eax
	mov	eax, ecx
	mov	rcx, QWORD PTR opnd2$[rsp]
	mov	DWORD PTR [rcx+72], eax

; 2309 : 
; 2310 :         if ( opnd2->kind == EXPR_CONST ) {

	mov	rax, QWORD PTR opnd2$[rsp]
	cmp	DWORD PTR [rax+60], 0
	jne	SHORT $LN15@colon_op

; 2311 :             opnd2->kind = EXPR_ADDR;

	mov	rax, QWORD PTR opnd2$[rsp]
	mov	DWORD PTR [rax+60], 1
$LN15@colon_op:

; 2312 :             /* v2.05: type flag cleared HERE, not in dot_op()
; 2313 :              * v2.05rc17 problem: mov es:byte ptr <var>,0
; 2314 :              * so the flag isn't cleared at all now.
; 2315 :              */
; 2316 :             //opnd2->is_type = FALSE;
; 2317 :         }
; 2318 : 
; 2319 :         if( opnd1->explicit ) {

	mov	rax, QWORD PTR opnd1$[rsp]
	mov	eax, DWORD PTR [rax+72]
	shr	eax, 1
	and	eax, 1
	test	eax, eax
	je	SHORT $LN16@colon_op

; 2320 :             opnd2->explicit = opnd1->explicit;

	mov	rax, QWORD PTR opnd1$[rsp]
	mov	eax, DWORD PTR [rax+72]
	shr	eax, 1
	and	eax, 1
	and	eax, 1
	shl	eax, 1
	mov	rcx, QWORD PTR opnd2$[rsp]
	mov	ecx, DWORD PTR [rcx+72]
	and	ecx, -3					; fffffffdH
	or	ecx, eax
	mov	eax, ecx
	mov	rcx, QWORD PTR opnd2$[rsp]
	mov	DWORD PTR [rcx+72], eax

; 2321 :             opnd2->mem_type = opnd1->mem_type;

	mov	rax, QWORD PTR opnd2$[rsp]
	mov	rcx, QWORD PTR opnd1$[rsp]
	mov	ecx, DWORD PTR [rcx+64]
	mov	DWORD PTR [rax+64], ecx

; 2322 :             opnd2->Ofssize  = opnd1->Ofssize;

	mov	rax, QWORD PTR opnd2$[rsp]
	mov	rcx, QWORD PTR opnd1$[rsp]
	movzx	ecx, BYTE PTR [rcx+69]
	mov	BYTE PTR [rax+69], cl
$LN16@colon_op:

; 2323 :         }
; 2324 :         TokenAssign( opnd1, opnd2 );

	mov	rdx, QWORD PTR opnd2$[rsp]
	mov	rcx, QWORD PTR opnd1$[rsp]
	call	TokenAssign

; 2325 : 
; 2326 :         /*
; 2327 :          * currently the <type> token isn't copied by
; 2328 :          * TokenAssign (which is probably just for historical reasons).
; 2329 :          * So copy it manually!
; 2330 :          * v1.95: only copy if it is != NULL!
; 2331 :          * Testcase: (<type> ptr DS:[0]).<struct_field> ...
; 2332 :          * In this case the DS:[] will clear the <type>, as a result
; 2333 :          * the dot operator won't have a valid assume and the code fails.
; 2334 :          */
; 2335 :         if ( opnd2->type )

	mov	rax, QWORD PTR opnd2$[rsp]
	cmp	QWORD PTR [rax+96], 0
	je	SHORT $LN17@colon_op

; 2336 :             opnd1->type = opnd2->type;

	mov	rax, QWORD PTR opnd1$[rsp]
	mov	rcx, QWORD PTR opnd2$[rsp]
	mov	rcx, QWORD PTR [rcx+96]
	mov	QWORD PTR [rax+96], rcx
$LN17@colon_op:

; 2337 : 
; 2338 :     } else if( opnd1->kind == EXPR_ADDR &&

	jmp	$LN12@colon_op
$LN11@colon_op:

; 2339 :               /* opnd2->kind == EXPR_ADDR && */
; 2340 :               opnd1->override == NULL &&
; 2341 :               opnd1->instr == EMPTY &&
; 2342 :               opnd1->value == 0 &&
; 2343 :               opnd1->sym &&
; 2344 :               opnd1->base_reg == NULL &&

	mov	rax, QWORD PTR opnd1$[rsp]
	cmp	DWORD PTR [rax+60], 1
	jne	$LN18@colon_op
	mov	rax, QWORD PTR opnd1$[rsp]
	cmp	QWORD PTR [rax+48], 0
	jne	$LN18@colon_op
	mov	rax, QWORD PTR opnd1$[rsp]
	cmp	DWORD PTR [rax+56], -2
	jne	$LN18@colon_op
	mov	rax, QWORD PTR opnd1$[rsp]
	cmp	DWORD PTR [rax], 0
	jne	$LN18@colon_op
	mov	rax, QWORD PTR opnd1$[rsp]
	cmp	QWORD PTR [rax+80], 0
	je	$LN18@colon_op
	mov	rax, QWORD PTR opnd1$[rsp]
	cmp	QWORD PTR [rax+24], 0
	jne	$LN18@colon_op
	mov	rax, QWORD PTR opnd1$[rsp]
	cmp	QWORD PTR [rax+32], 0
	jne	$LN18@colon_op

; 2345 :               opnd1->idx_reg == NULL ) {
; 2346 : 
; 2347 :         sym = opnd1->sym;

	mov	rax, QWORD PTR opnd1$[rsp]
	mov	rax, QWORD PTR [rax+80]
	mov	QWORD PTR sym$[rsp], rax

; 2348 : 
; 2349 :         if( sym->state == SYM_GRP || sym->state == SYM_SEG ) {

	mov	rax, QWORD PTR sym$[rsp]
	cmp	DWORD PTR [rax+32], 4
	je	SHORT $LN22@colon_op
	mov	rax, QWORD PTR sym$[rsp]
	cmp	DWORD PTR [rax+32], 3
	jne	$LN20@colon_op
$LN22@colon_op:

; 2350 :             opnd2->kind = EXPR_ADDR;

	mov	rax, QWORD PTR opnd2$[rsp]
	mov	DWORD PTR [rax+60], 1

; 2351 :             opnd2->override = opnd1->label_tok;

	mov	rax, QWORD PTR opnd2$[rsp]
	mov	rcx, QWORD PTR opnd1$[rsp]
	mov	rcx, QWORD PTR [rcx+40]
	mov	QWORD PTR [rax+48], rcx

; 2352 :             opnd2->indirect |= opnd1->indirect;

	mov	rax, QWORD PTR opnd2$[rsp]
	mov	eax, DWORD PTR [rax+72]
	and	eax, 1
	mov	rcx, QWORD PTR opnd1$[rsp]
	mov	ecx, DWORD PTR [rcx+72]
	and	ecx, 1
	or	eax, ecx
	and	eax, 1
	mov	rcx, QWORD PTR opnd2$[rsp]
	mov	ecx, DWORD PTR [rcx+72]
	and	ecx, -2					; fffffffeH
	or	ecx, eax
	mov	eax, ecx
	mov	rcx, QWORD PTR opnd2$[rsp]
	mov	DWORD PTR [rcx+72], eax

; 2353 :             if( opnd1->explicit ) {

	mov	rax, QWORD PTR opnd1$[rsp]
	mov	eax, DWORD PTR [rax+72]
	shr	eax, 1
	and	eax, 1
	test	eax, eax
	je	SHORT $LN23@colon_op

; 2354 :                 opnd2->explicit = opnd1->explicit;

	mov	rax, QWORD PTR opnd1$[rsp]
	mov	eax, DWORD PTR [rax+72]
	shr	eax, 1
	and	eax, 1
	and	eax, 1
	shl	eax, 1
	mov	rcx, QWORD PTR opnd2$[rsp]
	mov	ecx, DWORD PTR [rcx+72]
	and	ecx, -3					; fffffffdH
	or	ecx, eax
	mov	eax, ecx
	mov	rcx, QWORD PTR opnd2$[rsp]
	mov	DWORD PTR [rcx+72], eax

; 2355 :                 opnd2->mem_type = opnd1->mem_type;

	mov	rax, QWORD PTR opnd2$[rsp]
	mov	rcx, QWORD PTR opnd1$[rsp]
	mov	ecx, DWORD PTR [rcx+64]
	mov	DWORD PTR [rax+64], ecx

; 2356 :                 opnd2->Ofssize  = opnd1->Ofssize;

	mov	rax, QWORD PTR opnd2$[rsp]
	mov	rcx, QWORD PTR opnd1$[rsp]
	movzx	ecx, BYTE PTR [rcx+69]
	mov	BYTE PTR [rax+69], cl
$LN23@colon_op:

; 2357 :             }
; 2358 :             TokenAssign( opnd1, opnd2 );

	mov	rdx, QWORD PTR opnd2$[rsp]
	mov	rcx, QWORD PTR opnd1$[rsp]
	call	TokenAssign

; 2359 :             opnd1->type = opnd2->type;

	mov	rax, QWORD PTR opnd1$[rsp]
	mov	rcx, QWORD PTR opnd2$[rsp]
	mov	rcx, QWORD PTR [rcx+96]
	mov	QWORD PTR [rax+96], rcx
	jmp	SHORT $LN21@colon_op
$LN20@colon_op:

; 2360 : 
; 2361 :         } else if( Parse_Pass > PASS_1 || sym->state != SYM_UNDEFINED ) {

	cmp	DWORD PTR Parse_Pass, 0
	ja	SHORT $LN25@colon_op
	mov	rax, QWORD PTR sym$[rsp]
	cmp	DWORD PTR [rax+32], 0
	je	SHORT $LN24@colon_op
$LN25@colon_op:

; 2362 :             DebugMsg(("colon_op error 4\n"));

	lea	rcx, OFFSET FLAT:$SG12010
	call	DoDebugMsg

; 2363 :             return( fnEmitErr( SEGMENT_GROUP_OR_SEGREG_EXPECTED ) );

	mov	ecx, 69					; 00000045H
	call	QWORD PTR fnEmitErr
	jmp	SHORT $LN1@colon_op
$LN24@colon_op:
$LN21@colon_op:

; 2364 :         }
; 2365 :     } else {

	jmp	SHORT $LN19@colon_op
$LN18@colon_op:

; 2366 :         DebugMsg(("colon_op error 5\n"));

	lea	rcx, OFFSET FLAT:$SG12011
	call	DoDebugMsg

; 2367 :         return( fnEmitErr( SEGMENT_GROUP_OR_SEGREG_EXPECTED ) );

	mov	ecx, 69					; 00000045H
	call	QWORD PTR fnEmitErr
	jmp	SHORT $LN1@colon_op
$LN19@colon_op:
$LN12@colon_op:

; 2368 :     }
; 2369 :     return( NOT_ERROR );

	xor	eax, eax
$LN1@colon_op:

; 2370 : }

	add	rsp, 104				; 00000068H
	ret	0
colon_op ENDP
_TEXT	ENDS
; Function compile flags: /Odtp
; File d:\hjwasm\hjwasm2.13.1s\hjwasm2.13.1s\expreval.c
_TEXT	SEGMENT
tv68 = 80
tv74 = 88
tv80 = 96
tv86 = 104
tv92 = 112
tv130 = 120
tv179 = 128
tv185 = 136
tv310 = 144
tv318 = 152
tv389 = 160
tv397 = 168
opnd1$ = 192
opnd2$ = 200
dot_op	PROC

; 2039 : {

	mov	QWORD PTR [rsp+16], rdx
	mov	QWORD PTR [rsp+8], rcx
	sub	rsp, 184				; 000000b8H

; 2040 :     /* this code needs cleanup! some stuff is obsolete. */
; 2041 : 
; 2042 :     DebugMsg1(("dot_op: op1-op2 kind=%d/%d sym=%s-%s type=%s-%s mbr=%s-%s\n",

	mov	rax, QWORD PTR opnd2$[rsp]
	cmp	QWORD PTR [rax+88], 0
	je	SHORT $LN39@dot_op
	mov	rax, QWORD PTR opnd2$[rsp]
	mov	rax, QWORD PTR [rax+88]
	mov	rax, QWORD PTR [rax+8]
	mov	QWORD PTR tv68[rsp], rax
	jmp	SHORT $LN40@dot_op
$LN39@dot_op:
	lea	rax, OFFSET FLAT:$SG11904
	mov	QWORD PTR tv68[rsp], rax
$LN40@dot_op:
	mov	rax, QWORD PTR opnd1$[rsp]
	cmp	QWORD PTR [rax+88], 0
	je	SHORT $LN41@dot_op
	mov	rax, QWORD PTR opnd1$[rsp]
	mov	rax, QWORD PTR [rax+88]
	mov	rax, QWORD PTR [rax+8]
	mov	QWORD PTR tv74[rsp], rax
	jmp	SHORT $LN42@dot_op
$LN41@dot_op:
	lea	rax, OFFSET FLAT:$SG11905
	mov	QWORD PTR tv74[rsp], rax
$LN42@dot_op:
	mov	rax, QWORD PTR opnd2$[rsp]
	cmp	QWORD PTR [rax+96], 0
	je	SHORT $LN43@dot_op
	mov	rax, QWORD PTR opnd2$[rsp]
	mov	rax, QWORD PTR [rax+96]
	mov	rax, QWORD PTR [rax+8]
	mov	QWORD PTR tv80[rsp], rax
	jmp	SHORT $LN44@dot_op
$LN43@dot_op:
	lea	rax, OFFSET FLAT:$SG11906
	mov	QWORD PTR tv80[rsp], rax
$LN44@dot_op:
	mov	rax, QWORD PTR opnd1$[rsp]
	cmp	QWORD PTR [rax+96], 0
	je	SHORT $LN45@dot_op
	mov	rax, QWORD PTR opnd1$[rsp]
	mov	rax, QWORD PTR [rax+96]
	mov	rax, QWORD PTR [rax+8]
	mov	QWORD PTR tv86[rsp], rax
	jmp	SHORT $LN46@dot_op
$LN45@dot_op:
	lea	rax, OFFSET FLAT:$SG11907
	mov	QWORD PTR tv86[rsp], rax
$LN46@dot_op:
	mov	rax, QWORD PTR opnd2$[rsp]
	cmp	QWORD PTR [rax+80], 0
	je	SHORT $LN47@dot_op
	mov	rax, QWORD PTR opnd2$[rsp]
	mov	rax, QWORD PTR [rax+80]
	mov	rax, QWORD PTR [rax+8]
	mov	QWORD PTR tv92[rsp], rax
	jmp	SHORT $LN48@dot_op
$LN47@dot_op:
	lea	rax, OFFSET FLAT:$SG11908
	mov	QWORD PTR tv92[rsp], rax
$LN48@dot_op:
	mov	rax, QWORD PTR opnd1$[rsp]
	cmp	QWORD PTR [rax+80], 0
	je	SHORT $LN49@dot_op
	mov	rax, QWORD PTR opnd1$[rsp]
	mov	rax, QWORD PTR [rax+80]
	mov	rax, QWORD PTR [rax+8]
	mov	QWORD PTR tv130[rsp], rax
	jmp	SHORT $LN50@dot_op
$LN49@dot_op:
	lea	rax, OFFSET FLAT:$SG11909
	mov	QWORD PTR tv130[rsp], rax
$LN50@dot_op:
	mov	rax, QWORD PTR tv68[rsp]
	mov	QWORD PTR [rsp+64], rax
	mov	rax, QWORD PTR tv74[rsp]
	mov	QWORD PTR [rsp+56], rax
	mov	rax, QWORD PTR tv80[rsp]
	mov	QWORD PTR [rsp+48], rax
	mov	rax, QWORD PTR tv86[rsp]
	mov	QWORD PTR [rsp+40], rax
	mov	rax, QWORD PTR tv92[rsp]
	mov	QWORD PTR [rsp+32], rax
	mov	r9, QWORD PTR tv130[rsp]
	mov	rax, QWORD PTR opnd2$[rsp]
	mov	r8d, DWORD PTR [rax+60]
	mov	rax, QWORD PTR opnd1$[rsp]
	mov	edx, DWORD PTR [rax+60]
	lea	rcx, OFFSET FLAT:$SG11910
	call	DoDebugMsg1

; 2043 :                opnd1->kind, opnd2->kind,
; 2044 :                opnd1->sym  ? opnd1->sym->name  : "NULL",
; 2045 :                opnd2->sym  ? opnd2->sym->name  : "NULL",
; 2046 :                opnd1->type ? opnd1->type->name : "NULL",
; 2047 :                opnd2->type ? opnd2->type->name : "NULL",
; 2048 :                opnd1->mbr  ? opnd1->mbr->name  : "NULL",
; 2049 :                opnd2->mbr  ? opnd2->mbr->name  : "NULL" ));
; 2050 : 
; 2051 :     /*
; 2052 :      * The formats allowed are:
; 2053 :      *        [register]      . (type) constant
; 2054 :      *        label           . (type) constant
; 2055 :      *        (type) constant . (type) constant
; 2056 :      *
; 2057 :      * with OPTION OLDSTRUCTS:
; 2058 :      *        [register]      . address
; 2059 :      *        address         . address
; 2060 :      */
; 2061 : 
; 2062 :     if( check_direct_reg( opnd1, opnd2 ) == ERROR ) {

	mov	rdx, QWORD PTR opnd2$[rsp]
	mov	rcx, QWORD PTR opnd1$[rsp]
	call	check_direct_reg
	cmp	eax, -1
	jne	SHORT $LN2@dot_op

; 2063 :         DebugMsg(("dot_op: error direct register\n"));

	lea	rcx, OFFSET FLAT:$SG11912
	call	DoDebugMsg

; 2064 :         return( fnEmitErr( INVALID_USE_OF_REGISTER ) );

	mov	ecx, 170				; 000000aaH
	call	QWORD PTR fnEmitErr
	jmp	$LN1@dot_op
$LN2@dot_op:

; 2065 :     }
; 2066 : 
; 2067 :     /* v2.08: remove EXPR_REG variants */
; 2068 :     if ( opnd1->kind == EXPR_REG )

	mov	rax, QWORD PTR opnd1$[rsp]
	cmp	DWORD PTR [rax+60], 2
	jne	SHORT $LN3@dot_op

; 2069 :         opnd1->kind = EXPR_ADDR;

	mov	rax, QWORD PTR opnd1$[rsp]
	mov	DWORD PTR [rax+60], 1
$LN3@dot_op:

; 2070 :     if ( opnd2->kind == EXPR_REG )

	mov	rax, QWORD PTR opnd2$[rsp]
	cmp	DWORD PTR [rax+60], 2
	jne	SHORT $LN4@dot_op

; 2071 :         opnd2->kind = EXPR_ADDR;

	mov	rax, QWORD PTR opnd2$[rsp]
	mov	DWORD PTR [rax+60], 1
$LN4@dot_op:

; 2072 : 
; 2073 :     /* forward ref to a struct: [reg].<struct> */
; 2074 :     if ( opnd2->sym && opnd2->sym->state == SYM_UNDEFINED && Parse_Pass == PASS_1 ) {

	mov	rax, QWORD PTR opnd2$[rsp]
	cmp	QWORD PTR [rax+80], 0
	je	$LN5@dot_op
	mov	rax, QWORD PTR opnd2$[rsp]
	mov	rax, QWORD PTR [rax+80]
	cmp	DWORD PTR [rax+32], 0
	jne	$LN5@dot_op
	cmp	DWORD PTR Parse_Pass, 0
	jne	$LN5@dot_op

; 2075 :         DebugMsg(("dot_op: forward reference %s, replaced by null struct type\n", opnd2->sym->name ));

	mov	rax, QWORD PTR opnd2$[rsp]
	mov	rax, QWORD PTR [rax+80]
	mov	rdx, QWORD PTR [rax+8]
	lea	rcx, OFFSET FLAT:$SG11916
	call	DoDebugMsg

; 2076 :         if ( !nullstruct )

	cmp	QWORD PTR nullstruct, 0
	jne	SHORT $LN6@dot_op

; 2077 :             nullstruct = CreateTypeSymbol( NULL, "", FALSE );

	xor	r8d, r8d
	lea	rdx, OFFSET FLAT:$SG11918
	xor	ecx, ecx
	call	CreateTypeSymbol
	mov	QWORD PTR nullstruct, rax
$LN6@dot_op:

; 2078 :         opnd2->type = nullstruct;

	mov	rax, QWORD PTR opnd2$[rsp]
	mov	rcx, QWORD PTR nullstruct
	mov	QWORD PTR [rax+96], rcx

; 2079 :         opnd2->is_type = TRUE; /* v2.10: added */

	mov	rax, QWORD PTR opnd2$[rsp]
	mov	eax, DWORD PTR [rax+72]
	or	eax, 8
	mov	rcx, QWORD PTR opnd2$[rsp]
	mov	DWORD PTR [rcx+72], eax

; 2080 :         opnd2->sym = NULL;

	mov	rax, QWORD PTR opnd2$[rsp]
	mov	QWORD PTR [rax+80], 0

; 2081 :         opnd2->kind = EXPR_CONST;

	mov	rax, QWORD PTR opnd2$[rsp]
	mov	DWORD PTR [rax+60], 0
$LN5@dot_op:

; 2082 :     }
; 2083 : 
; 2084 :     if( check_same( opnd1, opnd2, EXPR_ADDR ) ) {

	mov	rax, QWORD PTR opnd1$[rsp]
	cmp	DWORD PTR [rax+60], 1
	jne	$LN7@dot_op
	mov	rax, QWORD PTR opnd2$[rsp]
	cmp	DWORD PTR [rax+60], 1
	jne	$LN7@dot_op

; 2085 : 
; 2086 :         DebugMsg1(("dot_op, ADDR - ADDR, t1-t2 memtype=%X-%X sym=%s-%s\n",

	mov	rax, QWORD PTR opnd2$[rsp]
	cmp	QWORD PTR [rax+80], 0
	je	SHORT $LN51@dot_op
	mov	rax, QWORD PTR opnd2$[rsp]
	mov	rax, QWORD PTR [rax+80]
	mov	rax, QWORD PTR [rax+8]
	mov	QWORD PTR tv179[rsp], rax
	jmp	SHORT $LN52@dot_op
$LN51@dot_op:
	lea	rax, OFFSET FLAT:$SG11921
	mov	QWORD PTR tv179[rsp], rax
$LN52@dot_op:
	mov	rax, QWORD PTR opnd1$[rsp]
	cmp	QWORD PTR [rax+80], 0
	je	SHORT $LN53@dot_op
	mov	rax, QWORD PTR opnd1$[rsp]
	mov	rax, QWORD PTR [rax+80]
	mov	rax, QWORD PTR [rax+8]
	mov	QWORD PTR tv185[rsp], rax
	jmp	SHORT $LN54@dot_op
$LN53@dot_op:
	lea	rax, OFFSET FLAT:$SG11922
	mov	QWORD PTR tv185[rsp], rax
$LN54@dot_op:
	mov	rax, QWORD PTR tv179[rsp]
	mov	QWORD PTR [rsp+32], rax
	mov	r9, QWORD PTR tv185[rsp]
	mov	rax, QWORD PTR opnd2$[rsp]
	mov	r8d, DWORD PTR [rax+64]
	mov	rax, QWORD PTR opnd1$[rsp]
	mov	edx, DWORD PTR [rax+64]
	lea	rcx, OFFSET FLAT:$SG11923
	call	DoDebugMsg1

; 2087 :                    opnd1->mem_type, opnd2->mem_type,
; 2088 :                    opnd1->sym  ? opnd1->sym->name  : "NULL",
; 2089 :                    opnd2->sym  ? opnd2->sym->name  : "NULL" ));
; 2090 : 
; 2091 : #if 1 /* v2.05: error */
; 2092 :         if ( opnd2->mbr == NULL && !ModuleInfo.oldstructs ) {

	mov	rax, QWORD PTR opnd2$[rsp]
	cmp	QWORD PTR [rax+88], 0
	jne	SHORT $LN9@dot_op
	mov	eax, DWORD PTR ModuleInfo+408
	shr	eax, 8
	and	eax, 1
	test	eax, eax
	jne	SHORT $LN9@dot_op

; 2093 :             DebugMsg(("dot_op: error, mbr 2 is NULL\n"));

	lea	rcx, OFFSET FLAT:$SG11925
	call	DoDebugMsg

; 2094 :             return( struct_field_error( opnd1 ) );

	mov	rcx, QWORD PTR opnd1$[rsp]
	call	struct_field_error
	jmp	$LN1@dot_op
$LN9@dot_op:

; 2095 :         }
; 2096 : #endif
; 2097 :         if ( index_connect( opnd1, opnd2 ) == ERROR )

	mov	rdx, QWORD PTR opnd2$[rsp]
	mov	rcx, QWORD PTR opnd1$[rsp]
	call	index_connect
	cmp	eax, -1
	jne	SHORT $LN10@dot_op

; 2098 :             return( ERROR );

	mov	eax, -1
	jmp	$LN1@dot_op
$LN10@dot_op:

; 2099 : 
; 2100 :         if( opnd2->sym != NULL ) {

	mov	rax, QWORD PTR opnd2$[rsp]
	cmp	QWORD PTR [rax+80], 0
	je	$LN11@dot_op

; 2101 :             if( opnd1->sym != NULL &&
; 2102 :                 opnd1->sym->state != SYM_UNDEFINED &&

	mov	rax, QWORD PTR opnd1$[rsp]
	cmp	QWORD PTR [rax+80], 0
	je	SHORT $LN12@dot_op
	mov	rax, QWORD PTR opnd1$[rsp]
	mov	rax, QWORD PTR [rax+80]
	cmp	DWORD PTR [rax+32], 0
	je	SHORT $LN12@dot_op
	mov	rax, QWORD PTR opnd2$[rsp]
	mov	rax, QWORD PTR [rax+80]
	cmp	DWORD PTR [rax+32], 0
	je	SHORT $LN12@dot_op

; 2103 :                 opnd2->sym->state != SYM_UNDEFINED ) {
; 2104 :                 DebugMsg(("dot_op: error, two relocatable labels: %s - %s \n", opnd1->sym->name, opnd2->sym->name ));

	mov	rax, QWORD PTR opnd2$[rsp]
	mov	rax, QWORD PTR [rax+80]
	mov	rcx, QWORD PTR opnd1$[rsp]
	mov	rcx, QWORD PTR [rcx+80]
	mov	r8, QWORD PTR [rax+8]
	mov	rdx, QWORD PTR [rcx+8]
	lea	rcx, OFFSET FLAT:$SG11929
	call	DoDebugMsg

; 2105 :                 return( fnEmitErr( CANNOT_ADD_TWO_RELOCATABLE_LABELS ) );

	mov	ecx, 173				; 000000adH
	call	QWORD PTR fnEmitErr
	jmp	$LN1@dot_op
$LN12@dot_op:

; 2106 :             }
; 2107 :             opnd1->label_tok = opnd2->label_tok;

	mov	rax, QWORD PTR opnd1$[rsp]
	mov	rcx, QWORD PTR opnd2$[rsp]
	mov	rcx, QWORD PTR [rcx+40]
	mov	QWORD PTR [rax+40], rcx

; 2108 :             opnd1->sym = opnd2->sym;

	mov	rax, QWORD PTR opnd1$[rsp]
	mov	rcx, QWORD PTR opnd2$[rsp]
	mov	rcx, QWORD PTR [rcx+80]
	mov	QWORD PTR [rax+80], rcx
$LN11@dot_op:

; 2109 :         }
; 2110 :         if( opnd2->mbr != NULL ) {

	mov	rax, QWORD PTR opnd2$[rsp]
	cmp	QWORD PTR [rax+88], 0
	je	SHORT $LN13@dot_op

; 2111 :             opnd1->mbr = opnd2->mbr;

	mov	rax, QWORD PTR opnd1$[rsp]
	mov	rcx, QWORD PTR opnd2$[rsp]
	mov	rcx, QWORD PTR [rcx+88]
	mov	QWORD PTR [rax+88], rcx
$LN13@dot_op:

; 2112 :         }
; 2113 :         opnd1->value += opnd2->value;

	mov	rax, QWORD PTR opnd1$[rsp]
	mov	eax, DWORD PTR [rax]
	mov	rcx, QWORD PTR opnd2$[rsp]
	add	eax, DWORD PTR [rcx]
	mov	rcx, QWORD PTR opnd1$[rsp]
	mov	DWORD PTR [rcx], eax

; 2114 :         if( opnd1->explicit == FALSE ) {

	mov	rax, QWORD PTR opnd1$[rsp]
	mov	eax, DWORD PTR [rax+72]
	shr	eax, 1
	and	eax, 1
	test	eax, eax
	jne	SHORT $LN14@dot_op

; 2115 :             opnd1->mem_type = opnd2->mem_type;

	mov	rax, QWORD PTR opnd1$[rsp]
	mov	rcx, QWORD PTR opnd2$[rsp]
	mov	ecx, DWORD PTR [rcx+64]
	mov	DWORD PTR [rax+64], ecx
$LN14@dot_op:

; 2116 :         }
; 2117 :         if ( opnd2->type )

	mov	rax, QWORD PTR opnd2$[rsp]
	cmp	QWORD PTR [rax+96], 0
	je	SHORT $LN15@dot_op

; 2118 :             opnd1->type = opnd2->type;

	mov	rax, QWORD PTR opnd1$[rsp]
	mov	rcx, QWORD PTR opnd2$[rsp]
	mov	rcx, QWORD PTR [rcx+96]
	mov	QWORD PTR [rax+96], rcx
$LN15@dot_op:

; 2119 : 
; 2120 :     } else if( ( opnd1->kind == EXPR_CONST ) && ( opnd2->kind == EXPR_ADDR ) ) {

	jmp	$LN8@dot_op
$LN7@dot_op:
	mov	rax, QWORD PTR opnd1$[rsp]
	cmp	DWORD PTR [rax+60], 0
	jne	$LN16@dot_op
	mov	rax, QWORD PTR opnd2$[rsp]
	cmp	DWORD PTR [rax+60], 1
	jne	$LN16@dot_op

; 2121 : 
; 2122 :         DebugMsg1(("dot_op, CONST - ADDR: t1-t2 memtype=%Xh-%Xh istype=%u-%u\n",

	mov	rax, QWORD PTR opnd2$[rsp]
	mov	eax, DWORD PTR [rax+72]
	shr	eax, 3
	and	eax, 1
	mov	rcx, QWORD PTR opnd1$[rsp]
	mov	ecx, DWORD PTR [rcx+72]
	shr	ecx, 3
	and	ecx, 1
	mov	DWORD PTR [rsp+32], eax
	mov	r9d, ecx
	mov	rax, QWORD PTR opnd2$[rsp]
	mov	r8d, DWORD PTR [rax+64]
	mov	rax, QWORD PTR opnd1$[rsp]
	mov	edx, DWORD PTR [rax+64]
	lea	rcx, OFFSET FLAT:$SG11935
	call	DoDebugMsg1

; 2123 :                    opnd1->mem_type, opnd2->mem_type, opnd1->is_type, opnd2->is_type ));
; 2124 :         /* v2.08 added (copied from branch EXPR_ADDR-EXPR_REG )*/
; 2125 :         if ( opnd1->is_type && opnd1->type ) {

	mov	rax, QWORD PTR opnd1$[rsp]
	mov	eax, DWORD PTR [rax+72]
	shr	eax, 3
	and	eax, 1
	test	eax, eax
	je	SHORT $LN18@dot_op
	mov	rax, QWORD PTR opnd1$[rsp]
	cmp	QWORD PTR [rax+96], 0
	je	SHORT $LN18@dot_op

; 2126 :             opnd2->assumecheck = FALSE;

	mov	rax, QWORD PTR opnd2$[rsp]
	mov	eax, DWORD PTR [rax+72]
	and	eax, -65				; ffffffbfH
	mov	rcx, QWORD PTR opnd2$[rsp]
	mov	DWORD PTR [rcx+72], eax

; 2127 :             opnd1->llvalue = 0;  /* v2.08: this was previously done in get_operand() */

	mov	rax, QWORD PTR opnd1$[rsp]
	mov	QWORD PTR [rax], 0
$LN18@dot_op:

; 2128 :         }
; 2129 : #if 1 /* v2.05: error */
; 2130 :         /* <structname>.<member>[<index_reg>] is ALWAYS ok! */
; 2131 :         if ( ( !ModuleInfo.oldstructs ) && ( opnd1->is_type == FALSE && opnd1->mbr == NULL ) )

	mov	eax, DWORD PTR ModuleInfo+408
	shr	eax, 8
	and	eax, 1
	test	eax, eax
	jne	SHORT $LN19@dot_op
	mov	rax, QWORD PTR opnd1$[rsp]
	mov	eax, DWORD PTR [rax+72]
	shr	eax, 3
	and	eax, 1
	test	eax, eax
	jne	SHORT $LN19@dot_op
	mov	rax, QWORD PTR opnd1$[rsp]
	cmp	QWORD PTR [rax+88], 0
	jne	SHORT $LN19@dot_op

; 2132 :             return( struct_field_error( opnd1 ) );

	mov	rcx, QWORD PTR opnd1$[rsp]
	call	struct_field_error
	jmp	$LN1@dot_op
$LN19@dot_op:

; 2133 : #endif
; 2134 :         /* for TYPE.xxx, return offset instead of size */
; 2135 :         if ( opnd1->mbr && opnd1->mbr->state == SYM_TYPE )

	mov	rax, QWORD PTR opnd1$[rsp]
	cmp	QWORD PTR [rax+88], 0
	je	SHORT $LN20@dot_op
	mov	rax, QWORD PTR opnd1$[rsp]
	mov	rax, QWORD PTR [rax+88]
	cmp	DWORD PTR [rax+32], 7
	jne	SHORT $LN20@dot_op

; 2136 :             opnd1->llvalue = opnd1->mbr->offset;

	mov	rax, QWORD PTR opnd1$[rsp]
	mov	rax, QWORD PTR [rax+88]
	movsxd	rax, DWORD PTR [rax+16]
	mov	rcx, QWORD PTR opnd1$[rsp]
	mov	QWORD PTR [rcx], rax
$LN20@dot_op:

; 2137 :         opnd2->indirect |= opnd1->indirect;

	mov	rax, QWORD PTR opnd2$[rsp]
	mov	eax, DWORD PTR [rax+72]
	and	eax, 1
	mov	rcx, QWORD PTR opnd1$[rsp]
	mov	ecx, DWORD PTR [rcx+72]
	and	ecx, 1
	or	eax, ecx
	and	eax, 1
	mov	rcx, QWORD PTR opnd2$[rsp]
	mov	ecx, DWORD PTR [rcx+72]
	and	ecx, -2					; fffffffeH
	or	ecx, eax
	mov	eax, ecx
	mov	rcx, QWORD PTR opnd2$[rsp]
	mov	DWORD PTR [rcx+72], eax

; 2138 :         opnd2->llvalue += opnd1->llvalue;

	mov	rax, QWORD PTR opnd2$[rsp]
	mov	rax, QWORD PTR [rax]
	mov	rcx, QWORD PTR opnd1$[rsp]
	add	rax, QWORD PTR [rcx]
	mov	rcx, QWORD PTR opnd2$[rsp]
	mov	QWORD PTR [rcx], rax

; 2139 :         DebugMsg1(("dot_op, CONST - ADDR, t1.type=%X (%s), t2.type=%X (%s)\n",

	mov	rax, QWORD PTR opnd2$[rsp]
	cmp	QWORD PTR [rax+96], 0
	je	SHORT $LN55@dot_op
	mov	rax, QWORD PTR opnd2$[rsp]
	mov	rax, QWORD PTR [rax+96]
	mov	rax, QWORD PTR [rax+8]
	mov	QWORD PTR tv310[rsp], rax
	jmp	SHORT $LN56@dot_op
$LN55@dot_op:
	lea	rax, OFFSET FLAT:$SG11939
	mov	QWORD PTR tv310[rsp], rax
$LN56@dot_op:
	mov	rax, QWORD PTR opnd1$[rsp]
	cmp	QWORD PTR [rax+96], 0
	je	SHORT $LN57@dot_op
	mov	rax, QWORD PTR opnd1$[rsp]
	mov	rax, QWORD PTR [rax+96]
	mov	rax, QWORD PTR [rax+8]
	mov	QWORD PTR tv318[rsp], rax
	jmp	SHORT $LN58@dot_op
$LN57@dot_op:
	lea	rax, OFFSET FLAT:$SG11940
	mov	QWORD PTR tv318[rsp], rax
$LN58@dot_op:
	mov	rax, QWORD PTR tv310[rsp]
	mov	QWORD PTR [rsp+32], rax
	mov	rax, QWORD PTR opnd2$[rsp]
	mov	r9, QWORD PTR [rax+96]
	mov	r8, QWORD PTR tv318[rsp]
	mov	rax, QWORD PTR opnd1$[rsp]
	mov	rdx, QWORD PTR [rax+96]
	lea	rcx, OFFSET FLAT:$SG11941
	call	DoDebugMsg1

; 2140 :                    opnd1->type,
; 2141 :                    opnd1->type ? opnd1->type->name : "",
; 2142 :                    opnd2->type,
; 2143 :                    opnd2->type ? opnd2->type->name : "" ));
; 2144 :         /* v2.06: added. test case: INVOKE struct.mbr[edx] ( mbr has a type ) */
; 2145 :         if ( opnd2->mbr )

	mov	rax, QWORD PTR opnd2$[rsp]
	cmp	QWORD PTR [rax+88], 0
	je	SHORT $LN21@dot_op

; 2146 :             opnd1->type = opnd2->type;

	mov	rax, QWORD PTR opnd1$[rsp]
	mov	rcx, QWORD PTR opnd2$[rsp]
	mov	rcx, QWORD PTR [rcx+96]
	mov	QWORD PTR [rax+96], rcx
$LN21@dot_op:

; 2147 :         TokenAssign( opnd1, opnd2 );

	mov	rdx, QWORD PTR opnd2$[rsp]
	mov	rcx, QWORD PTR opnd1$[rsp]
	call	TokenAssign
	jmp	$LN17@dot_op
$LN16@dot_op:

; 2148 : 
; 2149 :     } else if( ( opnd1->kind == EXPR_ADDR ) && ( opnd2->kind == EXPR_CONST ) ) {

	mov	rax, QWORD PTR opnd1$[rsp]
	cmp	DWORD PTR [rax+60], 1
	jne	$LN22@dot_op
	mov	rax, QWORD PTR opnd2$[rsp]
	cmp	DWORD PTR [rax+60], 0
	jne	$LN22@dot_op

; 2150 : 
; 2151 :         DebugMsg1(("dot_op, ADDR - CONST: t1-t2 memtype=%Xh-%Xh t1.explicit=%u\n",

	mov	rax, QWORD PTR opnd1$[rsp]
	mov	eax, DWORD PTR [rax+72]
	shr	eax, 1
	and	eax, 1
	mov	r9d, eax
	mov	rax, QWORD PTR opnd2$[rsp]
	mov	r8d, DWORD PTR [rax+64]
	mov	rax, QWORD PTR opnd1$[rsp]
	mov	edx, DWORD PTR [rax+64]
	lea	rcx, OFFSET FLAT:$SG11945
	call	DoDebugMsg1

; 2152 :                    opnd1->mem_type, opnd2->mem_type, opnd1->explicit ));
; 2153 : 
; 2154 :         /* v2.08: changed to catch [ebx].<num> or [ebx].<simple type> */
; 2155 :         //if ( (!ModuleInfo.oldstructs) && opnd2->type == NULL && opnd2->mbr == NULL ) {
; 2156 :         if ( (!ModuleInfo.oldstructs) && ( opnd2->type == NULL || opnd2->is_type == FALSE ) && opnd2->mbr == NULL ) {

	mov	eax, DWORD PTR ModuleInfo+408
	shr	eax, 8
	and	eax, 1
	test	eax, eax
	jne	SHORT $LN24@dot_op
	mov	rax, QWORD PTR opnd2$[rsp]
	cmp	QWORD PTR [rax+96], 0
	je	SHORT $LN25@dot_op
	mov	rax, QWORD PTR opnd2$[rsp]
	mov	eax, DWORD PTR [rax+72]
	shr	eax, 3
	and	eax, 1
	test	eax, eax
	jne	SHORT $LN24@dot_op
$LN25@dot_op:
	mov	rax, QWORD PTR opnd2$[rsp]
	cmp	QWORD PTR [rax+88], 0
	jne	SHORT $LN24@dot_op

; 2157 :             DebugMsg(("dot_op: error, constant or simple type after dot\n"));

	lea	rcx, OFFSET FLAT:$SG11948
	call	DoDebugMsg

; 2158 :             return( struct_field_error( opnd1 ) );

	mov	rcx, QWORD PTR opnd1$[rsp]
	call	struct_field_error
	jmp	$LN1@dot_op
$LN24@dot_op:

; 2159 :         }
; 2160 : 
; 2161 :         /* v2.08 added (copied from branch EXPR_ADDR-EXPR_REG )*/
; 2162 :         if ( opnd2->is_type && opnd2->type ) {

	mov	rax, QWORD PTR opnd2$[rsp]
	mov	eax, DWORD PTR [rax+72]
	shr	eax, 3
	and	eax, 1
	test	eax, eax
	je	SHORT $LN26@dot_op
	mov	rax, QWORD PTR opnd2$[rsp]
	cmp	QWORD PTR [rax+96], 0
	je	SHORT $LN26@dot_op

; 2163 :             opnd1->assumecheck = FALSE;

	mov	rax, QWORD PTR opnd1$[rsp]
	mov	eax, DWORD PTR [rax+72]
	and	eax, -65				; ffffffbfH
	mov	rcx, QWORD PTR opnd1$[rsp]
	mov	DWORD PTR [rcx+72], eax

; 2164 :             opnd2->llvalue = 0;  /* v2.08: this was previously done in get_operand() */

	mov	rax, QWORD PTR opnd2$[rsp]
	mov	QWORD PTR [rax], 0
$LN26@dot_op:

; 2165 :         }
; 2166 :         /* for [var].TYPE | STRUCT_FIELD, use offset instead of size */
; 2167 :         if ( opnd2->mbr && opnd2->mbr->state == SYM_TYPE )

	mov	rax, QWORD PTR opnd2$[rsp]
	cmp	QWORD PTR [rax+88], 0
	je	SHORT $LN27@dot_op
	mov	rax, QWORD PTR opnd2$[rsp]
	mov	rax, QWORD PTR [rax+88]
	cmp	DWORD PTR [rax+32], 7
	jne	SHORT $LN27@dot_op

; 2168 :             opnd2->llvalue = opnd2->mbr->offset;

	mov	rax, QWORD PTR opnd2$[rsp]
	mov	rax, QWORD PTR [rax+88]
	movsxd	rax, DWORD PTR [rax+16]
	mov	rcx, QWORD PTR opnd2$[rsp]
	mov	QWORD PTR [rcx], rax
$LN27@dot_op:

; 2169 :         opnd1->llvalue += opnd2->llvalue;

	mov	rax, QWORD PTR opnd1$[rsp]
	mov	rax, QWORD PTR [rax]
	mov	rcx, QWORD PTR opnd2$[rsp]
	add	rax, QWORD PTR [rcx]
	mov	rcx, QWORD PTR opnd1$[rsp]
	mov	QWORD PTR [rcx], rax

; 2170 :         opnd1->mem_type = opnd2->mem_type; /* v2.08: now always done */

	mov	rax, QWORD PTR opnd1$[rsp]
	mov	rcx, QWORD PTR opnd2$[rsp]
	mov	ecx, DWORD PTR [rcx+64]
	mov	DWORD PTR [rax+64], ecx

; 2171 :         if( opnd2->mbr != NULL ) {

	mov	rax, QWORD PTR opnd2$[rsp]
	cmp	QWORD PTR [rax+88], 0
	je	SHORT $LN28@dot_op

; 2172 :             opnd1->mbr = opnd2->mbr;

	mov	rax, QWORD PTR opnd1$[rsp]
	mov	rcx, QWORD PTR opnd2$[rsp]
	mov	rcx, QWORD PTR [rcx+88]
	mov	QWORD PTR [rax+88], rcx
$LN28@dot_op:

; 2173 : #if 0 /* v2.07 */
; 2174 :             /* temp. disabled in v1.95, test case:
; 2175 :              * mov eax,(<struct> ptr [ebx]).F1
; 2176 :              * however: mov ax, word ptr var[bx].F1 ???
; 2177 :              * the condition can't be disabled. Instead the PTR
; 2178 :              * operator must NOT set the explicit flag if the
; 2179 :              * first operand is a structure.
; 2180 :              */
; 2181 :             if( opnd1->explicit == FALSE )
; 2182 : #endif
; 2183 :                 //opnd1->mem_type = opnd2->mem_type; /* v2.08: obsolete */
; 2184 :         }
; 2185 : 
; 2186 :         DebugMsg1(("dot_op, ADDR - CONST, t1.type=%X (%s), t2.type=%X (%s)\n",

	mov	rax, QWORD PTR opnd2$[rsp]
	cmp	QWORD PTR [rax+96], 0
	je	SHORT $LN59@dot_op
	mov	rax, QWORD PTR opnd2$[rsp]
	mov	rax, QWORD PTR [rax+96]
	mov	rax, QWORD PTR [rax+8]
	mov	QWORD PTR tv389[rsp], rax
	jmp	SHORT $LN60@dot_op
$LN59@dot_op:
	lea	rax, OFFSET FLAT:$SG11952
	mov	QWORD PTR tv389[rsp], rax
$LN60@dot_op:
	mov	rax, QWORD PTR opnd1$[rsp]
	cmp	QWORD PTR [rax+96], 0
	je	SHORT $LN61@dot_op
	mov	rax, QWORD PTR opnd1$[rsp]
	mov	rax, QWORD PTR [rax+96]
	mov	rax, QWORD PTR [rax+8]
	mov	QWORD PTR tv397[rsp], rax
	jmp	SHORT $LN62@dot_op
$LN61@dot_op:
	lea	rax, OFFSET FLAT:$SG11953
	mov	QWORD PTR tv397[rsp], rax
$LN62@dot_op:
	mov	rax, QWORD PTR tv389[rsp]
	mov	QWORD PTR [rsp+32], rax
	mov	rax, QWORD PTR opnd2$[rsp]
	mov	r9, QWORD PTR [rax+96]
	mov	r8, QWORD PTR tv397[rsp]
	mov	rax, QWORD PTR opnd1$[rsp]
	mov	rdx, QWORD PTR [rax+96]
	lea	rcx, OFFSET FLAT:$SG11954
	call	DoDebugMsg1

; 2187 :                    opnd1->type,
; 2188 :                    opnd1->type ? opnd1->type->name : "",
; 2189 :                    opnd2->type,
; 2190 :                    opnd2->type ? opnd2->type->name : "" ));
; 2191 : #if 0 /* v1.96 */
; 2192 :         if ( opnd2->type )
; 2193 : #endif
; 2194 :             opnd1->type = opnd2->type;

	mov	rax, QWORD PTR opnd1$[rsp]
	mov	rcx, QWORD PTR opnd2$[rsp]
	mov	rcx, QWORD PTR [rcx+96]
	mov	QWORD PTR [rax+96], rcx
	jmp	$LN23@dot_op
$LN22@dot_op:

; 2195 : 
; 2196 :     } else if ( opnd1->kind == EXPR_CONST && opnd2->kind == EXPR_CONST ) {

	mov	rax, QWORD PTR opnd1$[rsp]
	cmp	DWORD PTR [rax+60], 0
	jne	$LN29@dot_op
	mov	rax, QWORD PTR opnd2$[rsp]
	cmp	DWORD PTR [rax+60], 0
	jne	$LN29@dot_op

; 2197 : 
; 2198 :         DebugMsg1(("dot_op, CONST - CONST, t1-t2 value=%u-%u, memtype=%Xh-%Xh istype=%u-%u\n",

	mov	rax, QWORD PTR opnd2$[rsp]
	mov	eax, DWORD PTR [rax+72]
	shr	eax, 3
	and	eax, 1
	mov	rcx, QWORD PTR opnd1$[rsp]
	mov	ecx, DWORD PTR [rcx+72]
	shr	ecx, 3
	and	ecx, 1
	mov	DWORD PTR [rsp+48], eax
	mov	DWORD PTR [rsp+40], ecx
	mov	rax, QWORD PTR opnd2$[rsp]
	mov	eax, DWORD PTR [rax+64]
	mov	DWORD PTR [rsp+32], eax
	mov	rax, QWORD PTR opnd1$[rsp]
	mov	r9d, DWORD PTR [rax+64]
	mov	rax, QWORD PTR opnd2$[rsp]
	mov	r8d, DWORD PTR [rax]
	mov	rax, QWORD PTR opnd1$[rsp]
	mov	edx, DWORD PTR [rax]
	lea	rcx, OFFSET FLAT:$SG11957
	call	DoDebugMsg1

; 2199 :                    opnd1->value, opnd2->value, opnd1->mem_type, opnd2->mem_type, opnd1->is_type, opnd2->is_type));
; 2200 :         if ( opnd2->mbr == NULL && !ModuleInfo.oldstructs ) {

	mov	rax, QWORD PTR opnd2$[rsp]
	cmp	QWORD PTR [rax+88], 0
	jne	SHORT $LN31@dot_op
	mov	eax, DWORD PTR ModuleInfo+408
	shr	eax, 8
	and	eax, 1
	test	eax, eax
	jne	SHORT $LN31@dot_op

; 2201 :             DebugMsg(("dot_op: error, opnd2.mbr=NULL\n" ));

	lea	rcx, OFFSET FLAT:$SG11959
	call	DoDebugMsg

; 2202 :             return( struct_field_error( opnd1 ) );

	mov	rcx, QWORD PTR opnd1$[rsp]
	call	struct_field_error
	jmp	$LN1@dot_op
$LN31@dot_op:

; 2203 :         }
; 2204 :         if ( opnd1->type != NULL ) {

	mov	rax, QWORD PTR opnd1$[rsp]
	cmp	QWORD PTR [rax+96], 0
	je	$LN32@dot_op

; 2205 :             /*
; 2206 :              * v2.06: the token1 value must NOT be ignored if the token is a
; 2207 :              * struct member: mov ax, [offset] <struct>.<mbr>.<mbr>
; 2208 :              */
; 2209 :             if ( opnd1->mbr != NULL )

	mov	rax, QWORD PTR opnd1$[rsp]
	cmp	QWORD PTR [rax+88], 0
	je	SHORT $LN34@dot_op

; 2210 :                 opnd1->llvalue += opnd2->llvalue;

	mov	rax, QWORD PTR opnd1$[rsp]
	mov	rax, QWORD PTR [rax]
	mov	rcx, QWORD PTR opnd2$[rsp]
	add	rax, QWORD PTR [rcx]
	mov	rcx, QWORD PTR opnd1$[rsp]
	mov	QWORD PTR [rcx], rax
	jmp	SHORT $LN35@dot_op
$LN34@dot_op:

; 2211 :             else {
; 2212 :                 /* old token is a type - the value (=size) is ignored then. */
; 2213 :                 opnd1->llvalue = opnd2->llvalue;

	mov	rax, QWORD PTR opnd1$[rsp]
	mov	rcx, QWORD PTR opnd2$[rsp]
	mov	rcx, QWORD PTR [rcx]
	mov	QWORD PTR [rax], rcx
$LN35@dot_op:

; 2214 :             }
; 2215 :             opnd1->mbr = opnd2->mbr;

	mov	rax, QWORD PTR opnd1$[rsp]
	mov	rcx, QWORD PTR opnd2$[rsp]
	mov	rcx, QWORD PTR [rcx+88]
	mov	QWORD PTR [rax+88], rcx

; 2216 :             /* v2.0: copy mem_type (test case: mov ds:[<struct>.<mbr>], 123) */
; 2217 :             opnd1->mem_type = opnd2->mem_type;

	mov	rax, QWORD PTR opnd1$[rsp]
	mov	rcx, QWORD PTR opnd2$[rsp]
	mov	ecx, DWORD PTR [rcx+64]
	mov	DWORD PTR [rax+64], ecx

; 2218 :             /* v2.05: removed, it's still a type constant */
; 2219 :             //opnd1->is_type = FALSE;
; 2220 :             opnd1->is_type = opnd2->is_type;

	mov	rax, QWORD PTR opnd2$[rsp]
	mov	eax, DWORD PTR [rax+72]
	shr	eax, 3
	and	eax, 1
	and	eax, 1
	shl	eax, 3
	mov	rcx, QWORD PTR opnd1$[rsp]
	mov	ecx, DWORD PTR [rcx+72]
	and	ecx, -9					; fffffff7H
	or	ecx, eax
	mov	eax, ecx
	mov	rcx, QWORD PTR opnd1$[rsp]
	mov	DWORD PTR [rcx+72], eax

; 2221 :             /* either clear <type> or use the renewed one */
; 2222 :             if ( opnd1->type != opnd2->type )

	mov	rax, QWORD PTR opnd1$[rsp]
	mov	rcx, QWORD PTR opnd2$[rsp]
	mov	rcx, QWORD PTR [rcx+96]
	cmp	QWORD PTR [rax+96], rcx
	je	SHORT $LN36@dot_op

; 2223 :                 opnd1->type = opnd2->type;

	mov	rax, QWORD PTR opnd1$[rsp]
	mov	rcx, QWORD PTR opnd2$[rsp]
	mov	rcx, QWORD PTR [rcx+96]
	mov	QWORD PTR [rax+96], rcx
	jmp	SHORT $LN37@dot_op
$LN36@dot_op:

; 2224 :             else
; 2225 :                 opnd1->type = NULL;

	mov	rax, QWORD PTR opnd1$[rsp]
	mov	QWORD PTR [rax+96], 0
$LN37@dot_op:

; 2226 :         } else {

	jmp	SHORT $LN33@dot_op
$LN32@dot_op:

; 2227 :             /* old token is NOT a type */
; 2228 :             /* most likely a number or an MT_ABS symbol! */
; 2229 :             /* so the TOTAL of both constants is required */
; 2230 :             opnd1->llvalue += opnd2->llvalue;

	mov	rax, QWORD PTR opnd1$[rsp]
	mov	rax, QWORD PTR [rax]
	mov	rcx, QWORD PTR opnd2$[rsp]
	add	rax, QWORD PTR [rcx]
	mov	rcx, QWORD PTR opnd1$[rsp]
	mov	QWORD PTR [rcx], rax

; 2231 :             opnd1->mbr = opnd2->mbr;

	mov	rax, QWORD PTR opnd1$[rsp]
	mov	rcx, QWORD PTR opnd2$[rsp]
	mov	rcx, QWORD PTR [rcx+88]
	mov	QWORD PTR [rax+88], rcx

; 2232 :             opnd1->mem_type = opnd2->mem_type;

	mov	rax, QWORD PTR opnd1$[rsp]
	mov	rcx, QWORD PTR opnd2$[rsp]
	mov	ecx, DWORD PTR [rcx+64]
	mov	DWORD PTR [rax+64], ecx
$LN33@dot_op:

; 2233 :         }
; 2234 :     } else {

	jmp	SHORT $LN30@dot_op
$LN29@dot_op:

; 2235 :         DebugMsg(("dot_op: error, unknown kind combination, opnd1->kind=%d, opnd2->kind=%d\n", opnd1->kind, opnd2->kind ));

	mov	rax, QWORD PTR opnd2$[rsp]
	mov	r8d, DWORD PTR [rax+60]
	mov	rax, QWORD PTR opnd1$[rsp]
	mov	edx, DWORD PTR [rax+60]
	lea	rcx, OFFSET FLAT:$SG11966
	call	DoDebugMsg

; 2236 :         return( struct_field_error( opnd1 ) );

	mov	rcx, QWORD PTR opnd1$[rsp]
	call	struct_field_error
	jmp	SHORT $LN1@dot_op
$LN30@dot_op:
$LN23@dot_op:
$LN17@dot_op:
$LN8@dot_op:

; 2237 :     }
; 2238 :     return( NOT_ERROR );

	xor	eax, eax
$LN1@dot_op:

; 2239 : }

	add	rsp, 184				; 000000b8H
	ret	0
dot_op	ENDP
_TEXT	ENDS
; Function compile flags: /Odtp
; File d:\hjwasm\hjwasm2.13.1s\hjwasm2.13.1s\expreval.c
_TEXT	SEGMENT
opnd$ = 48
struct_field_error PROC

; 2029 : {

	mov	QWORD PTR [rsp+8], rcx
	sub	rsp, 40					; 00000028H

; 2030 :     if ( opnd->is_opattr ) {

	mov	rax, QWORD PTR opnd$[rsp]
	mov	eax, DWORD PTR [rax+72]
	shr	eax, 4
	and	eax, 1
	test	eax, eax
	je	SHORT $LN2@struct_fie

; 2031 :         opnd->kind = EXPR_ERROR;

	mov	rax, QWORD PTR opnd$[rsp]
	mov	DWORD PTR [rax+60], -1

; 2032 :         return( NOT_ERROR );

	xor	eax, eax
	jmp	SHORT $LN1@struct_fie
$LN2@struct_fie:

; 2033 :     }
; 2034 :     return( fnEmitErr( STRUCTURE_FIELD_EXPECTED ) );

	mov	ecx, 272				; 00000110H
	call	QWORD PTR fnEmitErr
$LN1@struct_fie:

; 2035 : }

	add	rsp, 40					; 00000028H
	ret	0
struct_field_error ENDP
_TEXT	ENDS
; Function compile flags: /Odtp
; File d:\hjwasm\hjwasm2.13.1s\hjwasm2.13.1s\expreval.c
_TEXT	SEGMENT
sym$ = 32
opnd1$ = 64
opnd2$ = 72
minus_op PROC

; 1883 : {

	mov	QWORD PTR [rsp+16], rdx
	mov	QWORD PTR [rsp+8], rcx
	sub	rsp, 56					; 00000038H

; 1884 :     struct asym      *sym;
; 1885 :     /*
; 1886 :      * The only formats allowed are:
; 1887 :      *        constant - constant
; 1888 :      *         address - constant       ( only in this order )
; 1889 :      *         address - address
; 1890 :      *        register - constant       ( only inside [] and in this
; 1891 :      *                                    order )
; 1892 :      */
; 1893 : 
; 1894 :     DebugMsg1(("minus_op: kind tok1=%u, tok2=%u\n", opnd1->kind, opnd2->kind ));

	mov	rax, QWORD PTR opnd2$[rsp]
	mov	r8d, DWORD PTR [rax+60]
	mov	rax, QWORD PTR opnd1$[rsp]
	mov	edx, DWORD PTR [rax+60]
	lea	rcx, OFFSET FLAT:$SG11841
	call	DoDebugMsg1

; 1895 : 
; 1896 :     if( check_direct_reg( opnd1, opnd2 ) == ERROR ) {

	mov	rdx, QWORD PTR opnd2$[rsp]
	mov	rcx, QWORD PTR opnd1$[rsp]
	call	check_direct_reg
	cmp	eax, -1
	jne	SHORT $LN2@minus_op

; 1897 :         DebugMsg(("minus_op: error direct register\n"));

	lea	rcx, OFFSET FLAT:$SG11843
	call	DoDebugMsg

; 1898 :         return( fnEmitErr( INVALID_USE_OF_REGISTER ) );

	mov	ecx, 170				; 000000aaH
	call	QWORD PTR fnEmitErr
	jmp	$LN1@minus_op
$LN2@minus_op:

; 1899 :     }
; 1900 : 
; 1901 :     /* added for v1.94. It's related to the change done in MakeConst()!
; 1902 :      * todo: find out why flag no_error_msg was checked in v1.94-2.09.
; 1903 :      */
; 1904 :     if ( opnd1->kind == EXPR_ADDR &&
; 1905 :         opnd2->kind == EXPR_ADDR &&
; 1906 :         opnd2->sym &&

	mov	rax, QWORD PTR opnd1$[rsp]
	cmp	DWORD PTR [rax+60], 1
	jne	SHORT $LN3@minus_op
	mov	rax, QWORD PTR opnd2$[rsp]
	cmp	DWORD PTR [rax+60], 1
	jne	SHORT $LN3@minus_op
	mov	rax, QWORD PTR opnd2$[rsp]
	cmp	QWORD PTR [rax+80], 0
	je	SHORT $LN3@minus_op
	mov	rax, QWORD PTR opnd2$[rsp]
	mov	rax, QWORD PTR [rax+80]
	cmp	DWORD PTR [rax+32], 0
	jne	SHORT $LN3@minus_op

; 1907 :         opnd2->sym->state == SYM_UNDEFINED /* && !no_error_msg */ )
; 1908 :         ; /* don't convert token2 to a constant! */

	jmp	SHORT $LN4@minus_op
$LN3@minus_op:

; 1909 :     else
; 1910 :         MakeConst( opnd2 );

	mov	rcx, QWORD PTR opnd2$[rsp]
	call	MakeConst
$LN4@minus_op:

; 1911 : 
; 1912 :     if( check_same( opnd1, opnd2, EXPR_CONST ) ) {

	mov	rax, QWORD PTR opnd1$[rsp]
	cmp	DWORD PTR [rax+60], 0
	jne	SHORT $LN5@minus_op
	mov	rax, QWORD PTR opnd2$[rsp]
	cmp	DWORD PTR [rax+60], 0
	jne	SHORT $LN5@minus_op

; 1913 : 
; 1914 :         DebugMsg1(("minus_op: CONST-CONST\n" ));

	lea	rcx, OFFSET FLAT:$SG11848
	call	DoDebugMsg1

; 1915 :         opnd1->llvalue -= opnd2->llvalue;

	mov	rax, QWORD PTR opnd1$[rsp]
	mov	rcx, QWORD PTR opnd2$[rsp]
	mov	rcx, QWORD PTR [rcx]
	mov	rax, QWORD PTR [rax]
	sub	rax, rcx
	mov	rcx, QWORD PTR opnd1$[rsp]
	mov	QWORD PTR [rcx], rax
	jmp	$LN6@minus_op
$LN5@minus_op:

; 1916 : 
; 1917 :     } else if( opnd1->kind == EXPR_ADDR &&

	mov	rax, QWORD PTR opnd1$[rsp]
	cmp	DWORD PTR [rax+60], 1
	jne	SHORT $LN7@minus_op
	mov	rax, QWORD PTR opnd2$[rsp]
	cmp	DWORD PTR [rax+60], 0
	jne	SHORT $LN7@minus_op

; 1918 :               opnd2->kind == EXPR_CONST ) {
; 1919 : 
; 1920 :         DebugMsg1(("minus_op: ADDR-CONST\n" ));

	lea	rcx, OFFSET FLAT:$SG11851
	call	DoDebugMsg1

; 1921 :         opnd1->llvalue -= opnd2->llvalue;

	mov	rax, QWORD PTR opnd1$[rsp]
	mov	rcx, QWORD PTR opnd2$[rsp]
	mov	rcx, QWORD PTR [rcx]
	mov	rax, QWORD PTR [rax]
	sub	rax, rcx
	mov	rcx, QWORD PTR opnd1$[rsp]
	mov	QWORD PTR [rcx], rax

; 1922 :         fix_struct_value( opnd1 );

	mov	rcx, QWORD PTR opnd1$[rsp]
	call	fix_struct_value
	jmp	$LN8@minus_op
$LN7@minus_op:

; 1923 : 
; 1924 :     } else if( check_same( opnd1, opnd2, EXPR_ADDR ) ){

	mov	rax, QWORD PTR opnd1$[rsp]
	cmp	DWORD PTR [rax+60], 1
	jne	$LN9@minus_op
	mov	rax, QWORD PTR opnd2$[rsp]
	cmp	DWORD PTR [rax+60], 1
	jne	$LN9@minus_op

; 1925 : 
; 1926 :         DebugMsg1(("minus_op: ADDR-ADDR\n" ));

	lea	rcx, OFFSET FLAT:$SG11854
	call	DoDebugMsg1

; 1927 :         fix_struct_value( opnd1 );

	mov	rcx, QWORD PTR opnd1$[rsp]
	call	fix_struct_value

; 1928 :         fix_struct_value( opnd2 );

	mov	rcx, QWORD PTR opnd2$[rsp]
	call	fix_struct_value

; 1929 :         //if( opnd2->base_reg != NULL || opnd2->idx_reg != NULL ) { /* v2.09: just check 'indirect' */
; 1930 :         if( opnd2->indirect ) {

	mov	rax, QWORD PTR opnd2$[rsp]
	mov	eax, DWORD PTR [rax+72]
	and	eax, 1
	test	eax, eax
	je	SHORT $LN11@minus_op

; 1931 :             DebugMsg(("minus_op error, opnd2->indirect==TRUE\n"));

	lea	rcx, OFFSET FLAT:$SG11856
	call	DoDebugMsg

; 1932 :             return( fnEmitErr( INVALID_USE_OF_REGISTER ) );

	mov	ecx, 170				; 000000aaH
	call	QWORD PTR fnEmitErr
	jmp	$LN1@minus_op
$LN11@minus_op:

; 1933 :         }
; 1934 :         if( opnd2->label_tok == NULL ) {

	mov	rax, QWORD PTR opnd2$[rsp]
	cmp	QWORD PTR [rax+40], 0
	jne	SHORT $LN12@minus_op

; 1935 :             /* v2.06c: do 64-bit arithmetic (more rigid test in data.c) */
; 1936 :             //opnd1->value -= opnd2->value;
; 1937 :             opnd1->value64 -= opnd2->value64;

	mov	rax, QWORD PTR opnd1$[rsp]
	mov	rcx, QWORD PTR opnd2$[rsp]
	mov	rcx, QWORD PTR [rcx]
	mov	rax, QWORD PTR [rax]
	sub	rax, rcx
	mov	rcx, QWORD PTR opnd1$[rsp]
	mov	QWORD PTR [rcx], rax

; 1938 :             opnd1->indirect |= opnd2->indirect;

	mov	rax, QWORD PTR opnd1$[rsp]
	mov	eax, DWORD PTR [rax+72]
	and	eax, 1
	mov	rcx, QWORD PTR opnd2$[rsp]
	mov	ecx, DWORD PTR [rcx+72]
	and	ecx, 1
	or	eax, ecx
	and	eax, 1
	mov	rcx, QWORD PTR opnd1$[rsp]
	mov	ecx, DWORD PTR [rcx+72]
	and	ecx, -2					; fffffffeH
	or	ecx, eax
	mov	eax, ecx
	mov	rcx, QWORD PTR opnd1$[rsp]
	mov	DWORD PTR [rcx+72], eax

; 1939 :         } else {

	jmp	$LN13@minus_op
$LN12@minus_op:

; 1940 :             if( opnd1->label_tok == NULL || opnd1->sym == NULL || opnd2->sym == NULL ) {

	mov	rax, QWORD PTR opnd1$[rsp]
	cmp	QWORD PTR [rax+40], 0
	je	SHORT $LN15@minus_op
	mov	rax, QWORD PTR opnd1$[rsp]
	cmp	QWORD PTR [rax+80], 0
	je	SHORT $LN15@minus_op
	mov	rax, QWORD PTR opnd2$[rsp]
	cmp	QWORD PTR [rax+80], 0
	jne	SHORT $LN14@minus_op
$LN15@minus_op:

; 1941 :                 DebugMsg(("minus_op error, label_tok=%X opnd1.sym=%X opnd2.sym=%X\n", opnd1->label_tok, opnd1->sym, opnd2->sym ));

	mov	rax, QWORD PTR opnd2$[rsp]
	mov	r9, QWORD PTR [rax+80]
	mov	rax, QWORD PTR opnd1$[rsp]
	mov	r8, QWORD PTR [rax+80]
	mov	rax, QWORD PTR opnd1$[rsp]
	mov	rdx, QWORD PTR [rax+40]
	lea	rcx, OFFSET FLAT:$SG11861
	call	DoDebugMsg

; 1942 :                 /* v2.05: error msg changed */
; 1943 :                 //fnEmitErr( SYNTAX_ERROR );
; 1944 :                 return( fnEmitErr( OPERAND_MUST_BE_RELOCATABLE ) );

	mov	ecx, 188				; 000000bcH
	call	QWORD PTR fnEmitErr
	jmp	$LN1@minus_op
$LN14@minus_op:

; 1945 :             }
; 1946 :             /* handle first operand */
; 1947 :             sym = opnd1->sym;

	mov	rax, QWORD PTR opnd1$[rsp]
	mov	rax, QWORD PTR [rax+80]
	mov	QWORD PTR sym$[rsp], rax

; 1948 :             opnd1->value += sym->offset;

	mov	rax, QWORD PTR opnd1$[rsp]
	mov	eax, DWORD PTR [rax]
	mov	rcx, QWORD PTR sym$[rsp]
	add	eax, DWORD PTR [rcx+16]
	mov	rcx, QWORD PTR opnd1$[rsp]
	mov	DWORD PTR [rcx], eax

; 1949 : 
; 1950 :             /* handle second operand */
; 1951 :             sym = opnd2->sym;

	mov	rax, QWORD PTR opnd2$[rsp]
	mov	rax, QWORD PTR [rax+80]
	mov	QWORD PTR sym$[rsp], rax

; 1952 :             if( Parse_Pass > PASS_1 ) {

	cmp	DWORD PTR Parse_Pass, 0
	jbe	$LN16@minus_op

; 1953 :                 /* if symbol is external, error - unless it's the same symbol */
; 1954 :                 if ( ( sym->state == SYM_EXTERNAL ||
; 1955 :                      opnd1->sym->state == SYM_EXTERNAL) &&

	mov	rax, QWORD PTR sym$[rsp]
	cmp	DWORD PTR [rax+32], 2
	je	SHORT $LN18@minus_op
	mov	rax, QWORD PTR opnd1$[rsp]
	mov	rax, QWORD PTR [rax+80]
	cmp	DWORD PTR [rax+32], 2
	jne	SHORT $LN17@minus_op
$LN18@minus_op:
	mov	rax, QWORD PTR opnd1$[rsp]
	mov	rax, QWORD PTR [rax+80]
	cmp	QWORD PTR sym$[rsp], rax
	je	SHORT $LN17@minus_op

; 1956 :                     sym != opnd1->sym ) {
; 1957 :                     DebugMsg(("minus_op error 6\n"));

	lea	rcx, OFFSET FLAT:$SG11865
	call	DoDebugMsg

; 1958 :                     return( fnEmitErr(INVALID_USE_OF_EXTERNAL_SYMBOL, opnd1->sym->name ) );

	mov	rax, QWORD PTR opnd1$[rsp]
	mov	rax, QWORD PTR [rax+80]
	mov	rdx, QWORD PTR [rax+8]
	mov	ecx, 193				; 000000c1H
	call	QWORD PTR fnEmitErr
	jmp	$LN1@minus_op
$LN17@minus_op:

; 1959 :                 }
; 1960 :                 /* check if the 2 offsets belong to the same segment */
; 1961 :                 if ( sym->segment != opnd1->sym->segment ) {

	mov	rax, QWORD PTR opnd1$[rsp]
	mov	rax, QWORD PTR [rax+80]
	mov	rcx, QWORD PTR sym$[rsp]
	mov	rax, QWORD PTR [rax+24]
	cmp	QWORD PTR [rcx+24], rax
	je	SHORT $LN19@minus_op

; 1962 :                     DebugMsg(("minus_op error, sym.segm=%X opnd1->sym.segm=%X\n", sym->segment, opnd1->sym->segment ));

	mov	rax, QWORD PTR opnd1$[rsp]
	mov	rax, QWORD PTR [rax+80]
	mov	r8, QWORD PTR [rax+24]
	mov	rax, QWORD PTR sym$[rsp]
	mov	rdx, QWORD PTR [rax+24]
	lea	rcx, OFFSET FLAT:$SG11867
	call	DoDebugMsg

; 1963 :                     return( fnEmitErr( OPERANDS_MUST_BE_IN_SAME_SEGMENT ) );

	mov	ecx, 192				; 000000c0H
	call	QWORD PTR fnEmitErr
	jmp	$LN1@minus_op
$LN19@minus_op:
$LN16@minus_op:

; 1964 :                 }
; 1965 :             }
; 1966 : 
; 1967 :             /* the type changes from address to constant.
; 1968 :              * but only if both labels are defined and no indirect addressing.
; 1969 :              */
; 1970 :             opnd1->kind = EXPR_CONST;

	mov	rax, QWORD PTR opnd1$[rsp]
	mov	DWORD PTR [rax+60], 0

; 1971 : 
; 1972 :             /* v2.05: if at least one label is undefined, assume result=1 */
; 1973 :             if ( opnd1->sym->state == SYM_UNDEFINED ||

	mov	rax, QWORD PTR opnd1$[rsp]
	mov	rax, QWORD PTR [rax+80]
	cmp	DWORD PTR [rax+32], 0
	je	SHORT $LN22@minus_op
	mov	rax, QWORD PTR opnd2$[rsp]
	mov	rax, QWORD PTR [rax+80]
	cmp	DWORD PTR [rax+32], 0
	jne	SHORT $LN20@minus_op
$LN22@minus_op:

; 1974 :                 opnd2->sym->state == SYM_UNDEFINED ) {
; 1975 :                 opnd1->value = 1;

	mov	rax, QWORD PTR opnd1$[rsp]
	mov	DWORD PTR [rax], 1

; 1976 :                 /* 2.09: make sure an undefined label is returned in opnd.sym.
; 1977 :                  * expression type has to be ADDR then; see equate22.aso.
; 1978 :                  * 2.11: returning EXPR_ADDR may cause problems -
; 1979 :                  * it may make the code longer than necessary, thus
; 1980 :                  * triggering an unnecessary jump extension.
; 1981 :                  * so it is returned only if the expression is used to define an equate.
; 1982 :                  */
; 1983 :                 if ( opnd1->sym->state != SYM_UNDEFINED ) {

	mov	rax, QWORD PTR opnd1$[rsp]
	mov	rax, QWORD PTR [rax+80]
	cmp	DWORD PTR [rax+32], 0
	je	SHORT $LN23@minus_op

; 1984 :                     opnd1->sym = opnd2->sym;

	mov	rax, QWORD PTR opnd1$[rsp]
	mov	rcx, QWORD PTR opnd2$[rsp]
	mov	rcx, QWORD PTR [rcx+80]
	mov	QWORD PTR [rax+80], rcx

; 1985 :                     opnd1->label_tok = opnd2->label_tok;

	mov	rax, QWORD PTR opnd1$[rsp]
	mov	rcx, QWORD PTR opnd2$[rsp]
	mov	rcx, QWORD PTR [rcx+40]
	mov	QWORD PTR [rax+40], rcx
$LN23@minus_op:

; 1986 :                 }
; 1987 :                 opnd1->kind = EXPR_ADDR;

	mov	rax, QWORD PTR opnd1$[rsp]
	mov	DWORD PTR [rax+60], 1

; 1988 :             } else {

	jmp	SHORT $LN21@minus_op
$LN20@minus_op:

; 1989 :                 /* v2.06c: do 64-bit arithmetic (more rigid test in data.c) */
; 1990 :                 //opnd1->value -= sym->offset;
; 1991 :                 //opnd1->value -= opnd2->value;
; 1992 :                 opnd1->value64 -= sym->offset;

	mov	rax, QWORD PTR sym$[rsp]
	movsxd	rax, DWORD PTR [rax+16]
	mov	rcx, QWORD PTR opnd1$[rsp]
	mov	rcx, QWORD PTR [rcx]
	sub	rcx, rax
	mov	rax, rcx
	mov	rcx, QWORD PTR opnd1$[rsp]
	mov	QWORD PTR [rcx], rax

; 1993 :                 opnd1->value64 -= opnd2->value64;

	mov	rax, QWORD PTR opnd1$[rsp]
	mov	rcx, QWORD PTR opnd2$[rsp]
	mov	rcx, QWORD PTR [rcx]
	mov	rax, QWORD PTR [rax]
	sub	rax, rcx
	mov	rcx, QWORD PTR opnd1$[rsp]
	mov	QWORD PTR [rcx], rax

; 1994 :                 opnd1->label_tok = NULL;

	mov	rax, QWORD PTR opnd1$[rsp]
	mov	QWORD PTR [rax+40], 0

; 1995 :                 opnd1->sym = NULL;

	mov	rax, QWORD PTR opnd1$[rsp]
	mov	QWORD PTR [rax+80], 0
$LN21@minus_op:

; 1996 :             }
; 1997 :             //if( opnd1->base_reg == NULL && opnd1->idx_reg == NULL ) { /* v2.09: just check 'indirect' */
; 1998 :             if( opnd1->indirect == FALSE ) {

	mov	rax, QWORD PTR opnd1$[rsp]
	mov	eax, DWORD PTR [rax+72]
	and	eax, 1
	test	eax, eax
	jne	SHORT $LN24@minus_op

; 1999 :                 if( opnd1->instr == T_OFFSET && opnd2->instr == T_OFFSET )

	mov	rax, QWORD PTR opnd1$[rsp]
	cmp	DWORD PTR [rax+56], 241			; 000000f1H
	jne	SHORT $LN26@minus_op
	mov	rax, QWORD PTR opnd2$[rsp]
	cmp	DWORD PTR [rax+56], 241			; 000000f1H
	jne	SHORT $LN26@minus_op

; 2000 :                     opnd1->instr = EMPTY;

	mov	rax, QWORD PTR opnd1$[rsp]
	mov	DWORD PTR [rax+56], -2
$LN26@minus_op:

; 2001 :                 //opnd1->indirect = FALSE; /* v2.09: not needed */
; 2002 :             } else {

	jmp	SHORT $LN25@minus_op
$LN24@minus_op:

; 2003 :                 DebugMsg1(("minus_op, exit, ADDR, base=%X, idx=%X\n", opnd1->base_reg, opnd1->idx_reg ));

	mov	rax, QWORD PTR opnd1$[rsp]
	mov	r8, QWORD PTR [rax+32]
	mov	rax, QWORD PTR opnd1$[rsp]
	mov	rdx, QWORD PTR [rax+24]
	lea	rcx, OFFSET FLAT:$SG11875
	call	DoDebugMsg1

; 2004 :                 opnd1->kind = EXPR_ADDR;

	mov	rax, QWORD PTR opnd1$[rsp]
	mov	DWORD PTR [rax+60], 1
$LN25@minus_op:

; 2005 :                 //opnd1->indirect |= opnd2->indirect;  /* v2.09: op1->indirect is always 1, op2->indirect is always 0 */
; 2006 :             }
; 2007 :             opnd1->explicit = FALSE;

	mov	rax, QWORD PTR opnd1$[rsp]
	mov	eax, DWORD PTR [rax+72]
	and	eax, -3					; fffffffdH
	mov	rcx, QWORD PTR opnd1$[rsp]
	mov	DWORD PTR [rcx+72], eax

; 2008 :             opnd1->mem_type = MT_EMPTY;

	mov	rax, QWORD PTR opnd1$[rsp]
	mov	DWORD PTR [rax+64], 192			; 000000c0H
$LN13@minus_op:

; 2009 :         }

	jmp	$LN10@minus_op
$LN9@minus_op:

; 2010 : 
; 2011 :     } else if( opnd1->kind == EXPR_REG &&

	mov	rax, QWORD PTR opnd1$[rsp]
	cmp	DWORD PTR [rax+60], 2
	jne	SHORT $LN27@minus_op
	mov	rax, QWORD PTR opnd2$[rsp]
	cmp	DWORD PTR [rax+60], 0
	jne	SHORT $LN27@minus_op

; 2012 :               opnd2->kind == EXPR_CONST ) {
; 2013 : 
; 2014 :         opnd1->llvalue = -1 * opnd2->llvalue;

	mov	rax, QWORD PTR opnd2$[rsp]
	imul	rax, QWORD PTR [rax], -1
	mov	rcx, QWORD PTR opnd1$[rsp]
	mov	QWORD PTR [rcx], rax

; 2015 :         opnd1->indirect |= opnd2->indirect;

	mov	rax, QWORD PTR opnd1$[rsp]
	mov	eax, DWORD PTR [rax+72]
	and	eax, 1
	mov	rcx, QWORD PTR opnd2$[rsp]
	mov	ecx, DWORD PTR [rcx+72]
	and	ecx, 1
	or	eax, ecx
	and	eax, 1
	mov	rcx, QWORD PTR opnd1$[rsp]
	mov	ecx, DWORD PTR [rcx+72]
	and	ecx, -2					; fffffffeH
	or	ecx, eax
	mov	eax, ecx
	mov	rcx, QWORD PTR opnd1$[rsp]
	mov	DWORD PTR [rcx+72], eax

; 2016 :         opnd1->kind = EXPR_ADDR;

	mov	rax, QWORD PTR opnd1$[rsp]
	mov	DWORD PTR [rax+60], 1

; 2017 : 
; 2018 :     } else {

	jmp	SHORT $LN28@minus_op
$LN27@minus_op:

; 2019 :         DebugMsg(("minus_op, exit, error: kinds tok1=%u, tok2=%u\n", opnd1->kind, opnd2->kind ));

	mov	rax, QWORD PTR opnd2$[rsp]
	mov	r8d, DWORD PTR [rax+60]
	mov	rax, QWORD PTR opnd1$[rsp]
	mov	edx, DWORD PTR [rax+60]
	lea	rcx, OFFSET FLAT:$SG11878
	call	DoDebugMsg

; 2020 :         return( ConstError( opnd1, opnd2 ) );

	mov	rdx, QWORD PTR opnd2$[rsp]
	mov	rcx, QWORD PTR opnd1$[rsp]
	call	ConstError
	jmp	SHORT $LN1@minus_op
$LN28@minus_op:
$LN10@minus_op:
$LN8@minus_op:
$LN6@minus_op:

; 2021 :     }
; 2022 :     return( NOT_ERROR );

	xor	eax, eax
$LN1@minus_op:

; 2023 : }

	add	rsp, 56					; 00000038H
	ret	0
minus_op ENDP
_TEXT	ENDS
; Function compile flags: /Odtp
; File d:\hjwasm\hjwasm2.13.1s\hjwasm2.13.1s\expreval.c
_TEXT	SEGMENT
tv68 = 112
tv74 = 120
tv80 = 128
tv86 = 136
tv92 = 144
tv130 = 152
opnd1$ = 176
opnd2$ = 184
plus_op	PROC

; 1756 : {

	mov	QWORD PTR [rsp+16], rdx
	mov	QWORD PTR [rsp+8], rcx
	sub	rsp, 168				; 000000a8H

; 1757 :     DebugMsg1(("plus_op: kind=%d/%d memtype=%Xh-%Xh value=%d-%d sym=%s-%s mbr=%s-%s type=%s-%s\n",

	mov	rax, QWORD PTR opnd2$[rsp]
	cmp	QWORD PTR [rax+96], 0
	je	SHORT $LN31@plus_op
	mov	rax, QWORD PTR opnd2$[rsp]
	mov	rax, QWORD PTR [rax+96]
	mov	rax, QWORD PTR [rax+8]
	mov	QWORD PTR tv68[rsp], rax
	jmp	SHORT $LN32@plus_op
$LN31@plus_op:
	lea	rax, OFFSET FLAT:$SG11785
	mov	QWORD PTR tv68[rsp], rax
$LN32@plus_op:
	mov	rax, QWORD PTR opnd1$[rsp]
	cmp	QWORD PTR [rax+96], 0
	je	SHORT $LN33@plus_op
	mov	rax, QWORD PTR opnd1$[rsp]
	mov	rax, QWORD PTR [rax+96]
	mov	rax, QWORD PTR [rax+8]
	mov	QWORD PTR tv74[rsp], rax
	jmp	SHORT $LN34@plus_op
$LN33@plus_op:
	lea	rax, OFFSET FLAT:$SG11786
	mov	QWORD PTR tv74[rsp], rax
$LN34@plus_op:
	mov	rax, QWORD PTR opnd2$[rsp]
	cmp	QWORD PTR [rax+88], 0
	je	SHORT $LN35@plus_op
	mov	rax, QWORD PTR opnd2$[rsp]
	mov	rax, QWORD PTR [rax+88]
	mov	rax, QWORD PTR [rax+8]
	mov	QWORD PTR tv80[rsp], rax
	jmp	SHORT $LN36@plus_op
$LN35@plus_op:
	lea	rax, OFFSET FLAT:$SG11787
	mov	QWORD PTR tv80[rsp], rax
$LN36@plus_op:
	mov	rax, QWORD PTR opnd1$[rsp]
	cmp	QWORD PTR [rax+88], 0
	je	SHORT $LN37@plus_op
	mov	rax, QWORD PTR opnd1$[rsp]
	mov	rax, QWORD PTR [rax+88]
	mov	rax, QWORD PTR [rax+8]
	mov	QWORD PTR tv86[rsp], rax
	jmp	SHORT $LN38@plus_op
$LN37@plus_op:
	lea	rax, OFFSET FLAT:$SG11788
	mov	QWORD PTR tv86[rsp], rax
$LN38@plus_op:
	mov	rax, QWORD PTR opnd2$[rsp]
	cmp	QWORD PTR [rax+80], 0
	je	SHORT $LN39@plus_op
	mov	rax, QWORD PTR opnd2$[rsp]
	mov	rax, QWORD PTR [rax+80]
	mov	rax, QWORD PTR [rax+8]
	mov	QWORD PTR tv92[rsp], rax
	jmp	SHORT $LN40@plus_op
$LN39@plus_op:
	lea	rax, OFFSET FLAT:$SG11789
	mov	QWORD PTR tv92[rsp], rax
$LN40@plus_op:
	mov	rax, QWORD PTR opnd1$[rsp]
	cmp	QWORD PTR [rax+80], 0
	je	SHORT $LN41@plus_op
	mov	rax, QWORD PTR opnd1$[rsp]
	mov	rax, QWORD PTR [rax+80]
	mov	rax, QWORD PTR [rax+8]
	mov	QWORD PTR tv130[rsp], rax
	jmp	SHORT $LN42@plus_op
$LN41@plus_op:
	lea	rax, OFFSET FLAT:$SG11790
	mov	QWORD PTR tv130[rsp], rax
$LN42@plus_op:
	mov	rax, QWORD PTR tv68[rsp]
	mov	QWORD PTR [rsp+96], rax
	mov	rax, QWORD PTR tv74[rsp]
	mov	QWORD PTR [rsp+88], rax
	mov	rax, QWORD PTR tv80[rsp]
	mov	QWORD PTR [rsp+80], rax
	mov	rax, QWORD PTR tv86[rsp]
	mov	QWORD PTR [rsp+72], rax
	mov	rax, QWORD PTR tv92[rsp]
	mov	QWORD PTR [rsp+64], rax
	mov	rax, QWORD PTR tv130[rsp]
	mov	QWORD PTR [rsp+56], rax
	mov	rax, QWORD PTR opnd2$[rsp]
	mov	eax, DWORD PTR [rax]
	mov	DWORD PTR [rsp+48], eax
	mov	rax, QWORD PTR opnd1$[rsp]
	mov	eax, DWORD PTR [rax]
	mov	DWORD PTR [rsp+40], eax
	mov	rax, QWORD PTR opnd2$[rsp]
	mov	eax, DWORD PTR [rax+64]
	mov	DWORD PTR [rsp+32], eax
	mov	rax, QWORD PTR opnd1$[rsp]
	mov	r9d, DWORD PTR [rax+64]
	mov	rax, QWORD PTR opnd2$[rsp]
	mov	r8d, DWORD PTR [rax+60]
	mov	rax, QWORD PTR opnd1$[rsp]
	mov	edx, DWORD PTR [rax+60]
	lea	rcx, OFFSET FLAT:$SG11791
	call	DoDebugMsg1

; 1758 :                opnd1->kind, opnd2->kind,
; 1759 :                opnd1->mem_type, opnd2->mem_type, 
; 1760 :                opnd1->value, opnd2->value,
; 1761 :                opnd1->sym ? opnd1->sym->name : "NULL",
; 1762 :                opnd2->sym ? opnd2->sym->name : "NULL",
; 1763 :                opnd1->mbr ? opnd1->mbr->name : "NULL",
; 1764 :                opnd2->mbr ? opnd2->mbr->name : "NULL",
; 1765 :                opnd1->type ? opnd1->type->name : "NULL",
; 1766 :                opnd2->type ? opnd2->type->name : "NULL" ));
; 1767 :     /*
; 1768 :      * The formats allowed are (registers inside [] only!):
; 1769 :      *        constant + constant  CONST-CONST
; 1770 :      *        constant + address   CONST-ADDR
; 1771 :      *        register + constant  ADDR-CONST
; 1772 :      *        address + register   ADDR-ADDR
; 1773 :      *        register + register  ADDR-ADDR
; 1774 :      *        address  + address   ADDR-ADDR
; 1775 :      */
; 1776 : 
; 1777 :     if( check_direct_reg( opnd1, opnd2 ) == ERROR ) {

	mov	rdx, QWORD PTR opnd2$[rsp]
	mov	rcx, QWORD PTR opnd1$[rsp]
	call	check_direct_reg
	cmp	eax, -1
	jne	SHORT $LN2@plus_op

; 1778 :         DebugMsg(("plus_op: error direct register\n" ));

	lea	rcx, OFFSET FLAT:$SG11793
	call	DoDebugMsg

; 1779 :         return( fnEmitErr( INVALID_USE_OF_REGISTER ) );

	mov	ecx, 170				; 000000aaH
	call	QWORD PTR fnEmitErr
	jmp	$LN1@plus_op
$LN2@plus_op:

; 1780 :     }
; 1781 :     /* v2.08: remove EXPR_REG variants */
; 1782 :     if ( opnd1->kind == EXPR_REG )

	mov	rax, QWORD PTR opnd1$[rsp]
	cmp	DWORD PTR [rax+60], 2
	jne	SHORT $LN3@plus_op

; 1783 :         opnd1->kind = EXPR_ADDR;

	mov	rax, QWORD PTR opnd1$[rsp]
	mov	DWORD PTR [rax+60], 1
$LN3@plus_op:

; 1784 :     if ( opnd2->kind == EXPR_REG )

	mov	rax, QWORD PTR opnd2$[rsp]
	cmp	DWORD PTR [rax+60], 2
	jne	SHORT $LN4@plus_op

; 1785 :         opnd2->kind = EXPR_ADDR;

	mov	rax, QWORD PTR opnd2$[rsp]
	mov	DWORD PTR [rax+60], 1
$LN4@plus_op:

; 1786 : 
; 1787 :     /* v2.07: don't allow multiple overrides */
; 1788 :     if ( opnd2->override ) {

	mov	rax, QWORD PTR opnd2$[rsp]
	cmp	QWORD PTR [rax+48], 0
	je	SHORT $LN5@plus_op

; 1789 :         if ( opnd1->override ) {

	mov	rax, QWORD PTR opnd1$[rsp]
	cmp	QWORD PTR [rax+48], 0
	je	SHORT $LN6@plus_op

; 1790 :             /* v2.07a: both T_REG or both T_ID is rejected */
; 1791 :             if ( opnd1->override->token == opnd2->override->token ) {

	mov	rax, QWORD PTR opnd1$[rsp]
	mov	rax, QWORD PTR [rax+48]
	movzx	eax, BYTE PTR [rax]
	mov	rcx, QWORD PTR opnd2$[rsp]
	mov	rcx, QWORD PTR [rcx+48]
	movzx	ecx, BYTE PTR [rcx]
	cmp	eax, ecx
	jne	SHORT $LN7@plus_op

; 1792 :                 DebugMsg(("plus_op: multiple overrides\n" ));

	lea	rcx, OFFSET FLAT:$SG11799
	call	DoDebugMsg

; 1793 :                 return( fnEmitErr( MULTIPLE_OVERRIDES ) );

	mov	ecx, 68					; 00000044H
	call	QWORD PTR fnEmitErr
	jmp	$LN1@plus_op
$LN7@plus_op:
$LN6@plus_op:

; 1794 :             }
; 1795 :         }
; 1796 :         opnd1->override = opnd2->override;

	mov	rax, QWORD PTR opnd1$[rsp]
	mov	rcx, QWORD PTR opnd2$[rsp]
	mov	rcx, QWORD PTR [rcx+48]
	mov	QWORD PTR [rax+48], rcx
$LN5@plus_op:

; 1797 :     }
; 1798 : 
; 1799 :     if( check_same( opnd1, opnd2, EXPR_CONST ) ) {

	mov	rax, QWORD PTR opnd1$[rsp]
	cmp	DWORD PTR [rax+60], 0
	jne	SHORT $LN8@plus_op
	mov	rax, QWORD PTR opnd2$[rsp]
	cmp	DWORD PTR [rax+60], 0
	jne	SHORT $LN8@plus_op

; 1800 : 
; 1801 :         DebugMsg1(("plus_op: CONST - CONST\n" ));

	lea	rcx, OFFSET FLAT:$SG11802
	call	DoDebugMsg1

; 1802 :         opnd1->llvalue += opnd2->llvalue;

	mov	rax, QWORD PTR opnd1$[rsp]
	mov	rax, QWORD PTR [rax]
	mov	rcx, QWORD PTR opnd2$[rsp]
	add	rax, QWORD PTR [rcx]
	mov	rcx, QWORD PTR opnd1$[rsp]
	mov	QWORD PTR [rcx], rax
	jmp	$LN9@plus_op
$LN8@plus_op:

; 1803 : 
; 1804 :     } else if( check_same( opnd1, opnd2, EXPR_ADDR ) ) {

	mov	rax, QWORD PTR opnd1$[rsp]
	cmp	DWORD PTR [rax+60], 1
	jne	$LN10@plus_op
	mov	rax, QWORD PTR opnd2$[rsp]
	cmp	DWORD PTR [rax+60], 1
	jne	$LN10@plus_op

; 1805 : 
; 1806 :         DebugMsg1(("plus_op: ADDR - ADDR\n" ));

	lea	rcx, OFFSET FLAT:$SG11805
	call	DoDebugMsg1

; 1807 :         fix_struct_value( opnd1 );

	mov	rcx, QWORD PTR opnd1$[rsp]
	call	fix_struct_value

; 1808 :         fix_struct_value( opnd2 );

	mov	rcx, QWORD PTR opnd2$[rsp]
	call	fix_struct_value

; 1809 :         if ( index_connect( opnd1, opnd2 ) == ERROR )

	mov	rdx, QWORD PTR opnd2$[rsp]
	mov	rcx, QWORD PTR opnd1$[rsp]
	call	index_connect
	cmp	eax, -1
	jne	SHORT $LN12@plus_op

; 1810 :             return( ERROR );

	mov	eax, -1
	jmp	$LN1@plus_op
$LN12@plus_op:

; 1811 :         if( opnd2->sym != NULL ) {

	mov	rax, QWORD PTR opnd2$[rsp]
	cmp	QWORD PTR [rax+80], 0
	je	$LN13@plus_op

; 1812 :             /* two relocatable labels not allowed */
; 1813 :             /* v2.05: changed */
; 1814 :             //if ( ( opnd1->sym != NULL ) && ( Parse_Pass > PASS_1 || error_msg == FALSE ) ) {
; 1815 :             if ( opnd1->sym != NULL &&
; 1816 :                 opnd1->sym->state != SYM_UNDEFINED &&

	mov	rax, QWORD PTR opnd1$[rsp]
	cmp	QWORD PTR [rax+80], 0
	je	SHORT $LN14@plus_op
	mov	rax, QWORD PTR opnd1$[rsp]
	mov	rax, QWORD PTR [rax+80]
	cmp	DWORD PTR [rax+32], 0
	je	SHORT $LN14@plus_op
	mov	rax, QWORD PTR opnd2$[rsp]
	mov	rax, QWORD PTR [rax+80]
	cmp	DWORD PTR [rax+32], 0
	je	SHORT $LN14@plus_op

; 1817 :                 opnd2->sym->state != SYM_UNDEFINED ) {
; 1818 :                 DebugMsg(("plus_op: two relocatable labels: %s - %s \n", opnd1->sym->name, opnd2->sym->name ));

	mov	rax, QWORD PTR opnd2$[rsp]
	mov	rax, QWORD PTR [rax+80]
	mov	rcx, QWORD PTR opnd1$[rsp]
	mov	rcx, QWORD PTR [rcx+80]
	mov	r8, QWORD PTR [rax+8]
	mov	rdx, QWORD PTR [rcx+8]
	lea	rcx, OFFSET FLAT:$SG11809
	call	DoDebugMsg

; 1819 :                 return( fnEmitErr( CANNOT_ADD_TWO_RELOCATABLE_LABELS ) );

	mov	ecx, 173				; 000000adH
	call	QWORD PTR fnEmitErr
	jmp	$LN1@plus_op
$LN14@plus_op:

; 1820 :             }
; 1821 :             opnd1->label_tok = opnd2->label_tok;

	mov	rax, QWORD PTR opnd1$[rsp]
	mov	rcx, QWORD PTR opnd2$[rsp]
	mov	rcx, QWORD PTR [rcx+40]
	mov	QWORD PTR [rax+40], rcx

; 1822 :             opnd1->sym = opnd2->sym;

	mov	rax, QWORD PTR opnd1$[rsp]
	mov	rcx, QWORD PTR opnd2$[rsp]
	mov	rcx, QWORD PTR [rcx+80]
	mov	QWORD PTR [rax+80], rcx

; 1823 :             /* v2.05: added */
; 1824 :             if ( opnd1->mem_type == MT_EMPTY )

	mov	rax, QWORD PTR opnd1$[rsp]
	cmp	DWORD PTR [rax+64], 192			; 000000c0H
	jne	SHORT $LN15@plus_op

; 1825 :                 opnd1->mem_type = opnd2->mem_type;

	mov	rax, QWORD PTR opnd1$[rsp]
	mov	rcx, QWORD PTR opnd2$[rsp]
	mov	ecx, DWORD PTR [rcx+64]
	mov	DWORD PTR [rax+64], ecx
$LN15@plus_op:

; 1826 :             /* v2.10: copy qualifier ( [<reg>+imagerel xxx] */
; 1827 :             if ( opnd2->instr != EMPTY )

	mov	rax, QWORD PTR opnd2$[rsp]
	cmp	DWORD PTR [rax+56], -2
	je	SHORT $LN16@plus_op

; 1828 :                 opnd1->instr = opnd2->instr;

	mov	rax, QWORD PTR opnd1$[rsp]
	mov	rcx, QWORD PTR opnd2$[rsp]
	mov	ecx, DWORD PTR [rcx+56]
	mov	DWORD PTR [rax+56], ecx
$LN16@plus_op:
$LN13@plus_op:

; 1829 :         }
; 1830 :         opnd1->llvalue += opnd2->llvalue;

	mov	rax, QWORD PTR opnd1$[rsp]
	mov	rax, QWORD PTR [rax]
	mov	rcx, QWORD PTR opnd2$[rsp]
	add	rax, QWORD PTR [rcx]
	mov	rcx, QWORD PTR opnd1$[rsp]
	mov	QWORD PTR [rcx], rax

; 1831 :         /* v2.08: added, test case [ecx+ebx.<struc>].<mbr> */
; 1832 :         if ( opnd2->type )

	mov	rax, QWORD PTR opnd2$[rsp]
	cmp	QWORD PTR [rax+96], 0
	je	SHORT $LN17@plus_op

; 1833 :             opnd1->type = opnd2->type;

	mov	rax, QWORD PTR opnd1$[rsp]
	mov	rcx, QWORD PTR opnd2$[rsp]
	mov	rcx, QWORD PTR [rcx+96]
	mov	QWORD PTR [rax+96], rcx
$LN17@plus_op:

; 1834 : 
; 1835 :     } else if( check_both( opnd1, opnd2, EXPR_CONST, EXPR_ADDR ) ) {

	jmp	$LN11@plus_op
$LN10@plus_op:
	mov	r9d, 1
	xor	r8d, r8d
	mov	rdx, QWORD PTR opnd2$[rsp]
	mov	rcx, QWORD PTR opnd1$[rsp]
	call	check_both
	movzx	eax, al
	test	eax, eax
	je	$LN18@plus_op

; 1836 : 
; 1837 :         if( opnd1->kind == EXPR_CONST ) {

	mov	rax, QWORD PTR opnd1$[rsp]
	cmp	DWORD PTR [rax+60], 0
	jne	$LN20@plus_op

; 1838 :             DebugMsg1(("plus_op: CONST - ADDR\n" ));

	lea	rcx, OFFSET FLAT:$SG11817
	call	DoDebugMsg1

; 1839 :             opnd2->llvalue += opnd1->llvalue;

	mov	rax, QWORD PTR opnd2$[rsp]
	mov	rax, QWORD PTR [rax]
	mov	rcx, QWORD PTR opnd1$[rsp]
	add	rax, QWORD PTR [rcx]
	mov	rcx, QWORD PTR opnd2$[rsp]
	mov	QWORD PTR [rcx], rax

; 1840 :             opnd2->indirect |= opnd1->indirect;

	mov	rax, QWORD PTR opnd2$[rsp]
	mov	eax, DWORD PTR [rax+72]
	and	eax, 1
	mov	rcx, QWORD PTR opnd1$[rsp]
	mov	ecx, DWORD PTR [rcx+72]
	and	ecx, 1
	or	eax, ecx
	and	eax, 1
	mov	rcx, QWORD PTR opnd2$[rsp]
	mov	ecx, DWORD PTR [rcx+72]
	and	ecx, -2					; fffffffeH
	or	ecx, eax
	mov	eax, ecx
	mov	rcx, QWORD PTR opnd2$[rsp]
	mov	DWORD PTR [rcx+72], eax

; 1841 : 
; 1842 :             if( opnd1->explicit == TRUE ) {

	mov	rax, QWORD PTR opnd1$[rsp]
	mov	eax, DWORD PTR [rax+72]
	shr	eax, 1
	and	eax, 1
	cmp	eax, 1
	jne	SHORT $LN22@plus_op

; 1843 :                 opnd2->explicit = TRUE;

	mov	rax, QWORD PTR opnd2$[rsp]
	mov	eax, DWORD PTR [rax+72]
	or	eax, 2
	mov	rcx, QWORD PTR opnd2$[rsp]
	mov	DWORD PTR [rcx+72], eax

; 1844 :                 opnd2->mem_type = opnd1->mem_type;

	mov	rax, QWORD PTR opnd2$[rsp]
	mov	rcx, QWORD PTR opnd1$[rsp]
	mov	ecx, DWORD PTR [rcx+64]
	mov	DWORD PTR [rax+64], ecx
	jmp	SHORT $LN23@plus_op
$LN22@plus_op:

; 1845 :             } else if ( opnd2->mem_type == MT_EMPTY )

	mov	rax, QWORD PTR opnd2$[rsp]
	cmp	DWORD PTR [rax+64], 192			; 000000c0H
	jne	SHORT $LN24@plus_op

; 1846 :                 opnd2->mem_type = opnd1->mem_type;

	mov	rax, QWORD PTR opnd2$[rsp]
	mov	rcx, QWORD PTR opnd1$[rsp]
	mov	ecx, DWORD PTR [rcx+64]
	mov	DWORD PTR [rax+64], ecx
$LN24@plus_op:
$LN23@plus_op:

; 1847 : 
; 1848 :             /* v2.05: added. See dotop2.asm, "mov eax, v2.f1[ebx*2]" */
; 1849 :             if ( opnd2->mbr == NULL )

	mov	rax, QWORD PTR opnd2$[rsp]
	cmp	QWORD PTR [rax+88], 0
	jne	SHORT $LN25@plus_op

; 1850 :                 opnd2->mbr = opnd1->mbr;

	mov	rax, QWORD PTR opnd2$[rsp]
	mov	rcx, QWORD PTR opnd1$[rsp]
	mov	rcx, QWORD PTR [rcx+88]
	mov	QWORD PTR [rax+88], rcx
$LN25@plus_op:

; 1851 : 
; 1852 :             /* v2.08: added, test case [4+ebx.<struc>].<mbr> */
; 1853 :             if ( opnd2->type )

	mov	rax, QWORD PTR opnd2$[rsp]
	cmp	QWORD PTR [rax+96], 0
	je	SHORT $LN26@plus_op

; 1854 :                 opnd1->type = opnd2->type; /* set <type> in op1! */

	mov	rax, QWORD PTR opnd1$[rsp]
	mov	rcx, QWORD PTR opnd2$[rsp]
	mov	rcx, QWORD PTR [rcx+96]
	mov	QWORD PTR [rax+96], rcx
$LN26@plus_op:

; 1855 : 
; 1856 :             TokenAssign( opnd1, opnd2 );

	mov	rdx, QWORD PTR opnd2$[rsp]
	mov	rcx, QWORD PTR opnd1$[rsp]
	call	TokenAssign

; 1857 : 
; 1858 :         } else {

	jmp	$LN21@plus_op
$LN20@plus_op:

; 1859 :             DebugMsg1(("plus_op: ADDR - CONST\n" ));

	lea	rcx, OFFSET FLAT:$SG11823
	call	DoDebugMsg1

; 1860 :             opnd1->llvalue += opnd2->llvalue;

	mov	rax, QWORD PTR opnd1$[rsp]
	mov	rax, QWORD PTR [rax]
	mov	rcx, QWORD PTR opnd2$[rsp]
	add	rax, QWORD PTR [rcx]
	mov	rcx, QWORD PTR opnd1$[rsp]
	mov	QWORD PTR [rcx], rax

; 1861 :             /* v2.04: added. to make this case behave like
; 1862 :              * the CONST - REG case (see below).
; 1863 :              */
; 1864 :             /* v2.08: changed, test case [reg+struct] */
; 1865 :             //if ( opnd1->mem_type == MT_EMPTY )
; 1866 :             if ( opnd2->mbr ) { /* v2.10: added; regression test dotop5.asm */

	mov	rax, QWORD PTR opnd2$[rsp]
	cmp	QWORD PTR [rax+88], 0
	je	SHORT $LN27@plus_op

; 1867 :                 opnd1->mbr = opnd2->mbr;

	mov	rax, QWORD PTR opnd1$[rsp]
	mov	rcx, QWORD PTR opnd2$[rsp]
	mov	rcx, QWORD PTR [rcx+88]
	mov	QWORD PTR [rax+88], rcx

; 1868 :                 opnd1->mem_type = opnd2->mem_type;

	mov	rax, QWORD PTR opnd1$[rsp]
	mov	rcx, QWORD PTR opnd2$[rsp]
	mov	ecx, DWORD PTR [rcx+64]
	mov	DWORD PTR [rax+64], ecx

; 1869 :             } else

	jmp	SHORT $LN28@plus_op
$LN27@plus_op:

; 1870 :             if ( opnd1->mem_type == MT_EMPTY && opnd2->is_type == FALSE )

	mov	rax, QWORD PTR opnd1$[rsp]
	cmp	DWORD PTR [rax+64], 192			; 000000c0H
	jne	SHORT $LN29@plus_op
	mov	rax, QWORD PTR opnd2$[rsp]
	mov	eax, DWORD PTR [rax+72]
	shr	eax, 3
	and	eax, 1
	test	eax, eax
	jne	SHORT $LN29@plus_op

; 1871 :                 opnd1->mem_type = opnd2->mem_type;

	mov	rax, QWORD PTR opnd1$[rsp]
	mov	rcx, QWORD PTR opnd2$[rsp]
	mov	ecx, DWORD PTR [rcx+64]
	mov	DWORD PTR [rax+64], ecx
$LN29@plus_op:
$LN28@plus_op:
$LN21@plus_op:

; 1872 :         }
; 1873 :         fix_struct_value( opnd1 );

	mov	rcx, QWORD PTR opnd1$[rsp]
	call	fix_struct_value

; 1874 :     } else {

	jmp	SHORT $LN19@plus_op
$LN18@plus_op:

; 1875 :         DebugMsg(("plus_op: error, unexpected format: %u - %u\n", opnd1->kind, opnd2->kind ));

	mov	rax, QWORD PTR opnd2$[rsp]
	mov	r8d, DWORD PTR [rax+60]
	mov	rax, QWORD PTR opnd1$[rsp]
	mov	edx, DWORD PTR [rax+60]
	lea	rcx, OFFSET FLAT:$SG11827
	call	DoDebugMsg

; 1876 :         return( ConstError( opnd1, opnd2 ) );

	mov	rdx, QWORD PTR opnd2$[rsp]
	mov	rcx, QWORD PTR opnd1$[rsp]
	call	ConstError
	jmp	SHORT $LN1@plus_op
$LN19@plus_op:
$LN11@plus_op:
$LN9@plus_op:

; 1877 :     }
; 1878 :     return( NOT_ERROR );

	xor	eax, eax
$LN1@plus_op:

; 1879 : }

	add	rsp, 168				; 000000a8H
	ret	0
plus_op	ENDP
_TEXT	ENDS
; Function compile flags: /Odtp
; File d:\hjwasm\hjwasm2.13.1s\hjwasm2.13.1s\expreval.c
_TEXT	SEGMENT
i$1 = 32
fl$2 = 40
tv176 = 48
dir$3 = 56
oper$ = 80
opnd1$ = 88
opnd2$ = 96
sym$ = 104
name$ = 112
wimask_op PROC

; 1700 : {

	mov	QWORD PTR [rsp+32], r9
	mov	QWORD PTR [rsp+24], r8
	mov	QWORD PTR [rsp+16], rdx
	mov	DWORD PTR [rsp+8], ecx
	sub	rsp, 72					; 00000048H

; 1701 :     /* additional check needed if operand is a type */
; 1702 :     if ( opnd2->is_type ) {

	mov	rax, QWORD PTR opnd2$[rsp]
	mov	eax, DWORD PTR [rax+72]
	shr	eax, 3
	and	eax, 1
	test	eax, eax
	je	SHORT $LN8@wimask_op

; 1703 :         sym = opnd2->type;

	mov	rax, QWORD PTR opnd2$[rsp]
	mov	rax, QWORD PTR [rax+96]
	mov	QWORD PTR sym$[rsp], rax

; 1704 :         if (sym->typekind != TYPE_RECORD ) {

	mov	rax, QWORD PTR sym$[rsp]
	movzx	eax, BYTE PTR [rax+66]
	cmp	eax, 4
	je	SHORT $LN10@wimask_op

; 1705 :             return( fnEmitErr( OPERAND_MUST_BE_RECORD ) );

	mov	ecx, 161				; 000000a1H
	call	QWORD PTR fnEmitErr
	jmp	$LN1@wimask_op
$LN10@wimask_op:

; 1706 :         }

	jmp	SHORT $LN9@wimask_op
$LN8@wimask_op:

; 1707 :     } else if ( opnd2->kind == EXPR_CONST ) {

	mov	rax, QWORD PTR opnd2$[rsp]
	cmp	DWORD PTR [rax+60], 0
	jne	SHORT $LN11@wimask_op

; 1708 :         sym = opnd2->mbr;

	mov	rax, QWORD PTR opnd2$[rsp]
	mov	rax, QWORD PTR [rax+88]
	mov	QWORD PTR sym$[rsp], rax

; 1709 :     } else {

	jmp	SHORT $LN12@wimask_op
$LN11@wimask_op:

; 1710 :         sym = opnd2->sym;

	mov	rax, QWORD PTR opnd2$[rsp]
	mov	rax, QWORD PTR [rax+80]
	mov	QWORD PTR sym$[rsp], rax
$LN12@wimask_op:
$LN9@wimask_op:

; 1711 :     }
; 1712 :     if ( oper == T_MASK ) {

	cmp	DWORD PTR oper$[rsp], 240		; 000000f0H
	jne	$LN13@wimask_op

; 1713 :         int i;
; 1714 :         opnd1->value = 0;

	mov	rax, QWORD PTR opnd1$[rsp]
	mov	DWORD PTR [rax], 0

; 1715 :         if ( opnd2->is_type ) { /* get mask of the RECORD? */

	mov	rax, QWORD PTR opnd2$[rsp]
	mov	eax, DWORD PTR [rax+72]
	shr	eax, 3
	and	eax, 1
	test	eax, eax
	je	SHORT $LN15@wimask_op

; 1716 : #if AMD64_SUPPORT
; 1717 :             opnd1->llvalue = GetRecordMask( (struct dsym *)sym );

	mov	rcx, QWORD PTR sym$[rsp]
	call	GetRecordMask
	mov	rcx, QWORD PTR opnd1$[rsp]
	mov	QWORD PTR [rcx], rax

; 1718 : #else
; 1719 :             opnd1->value = GetRecordMask( (struct dsym *)sym );
; 1720 : #endif
; 1721 :         } else { /* get mask of the bitfield */

	jmp	SHORT $LN16@wimask_op
$LN15@wimask_op:

; 1722 :             for ( i = sym->offset ;i < sym->offset + sym->total_size; i++ )

	mov	rax, QWORD PTR sym$[rsp]
	mov	eax, DWORD PTR [rax+16]
	mov	DWORD PTR i$1[rsp], eax
	jmp	SHORT $LN4@wimask_op
$LN2@wimask_op:
	mov	eax, DWORD PTR i$1[rsp]
	inc	eax
	mov	DWORD PTR i$1[rsp], eax
$LN4@wimask_op:
	mov	rax, QWORD PTR sym$[rsp]
	mov	eax, DWORD PTR [rax+16]
	mov	rcx, QWORD PTR sym$[rsp]
	add	eax, DWORD PTR [rcx+56]
	cmp	DWORD PTR i$1[rsp], eax
	jae	SHORT $LN3@wimask_op

; 1723 : #if AMD64_SUPPORT
; 1724 : #if defined(LLONG_MAX) || defined(__GNUC__) || defined(__TINYC__)
; 1725 :                 opnd1->llvalue |= 1ULL << i;

	mov	eax, DWORD PTR i$1[rsp]
	mov	ecx, 1
	mov	QWORD PTR tv176[rsp], rcx
	movzx	ecx, al
	mov	rax, QWORD PTR tv176[rsp]
	shl	rax, cl
	mov	rcx, QWORD PTR opnd1$[rsp]
	mov	rcx, QWORD PTR [rcx]
	or	rcx, rax
	mov	rax, rcx
	mov	rcx, QWORD PTR opnd1$[rsp]
	mov	QWORD PTR [rcx], rax
	jmp	SHORT $LN2@wimask_op
$LN3@wimask_op:
$LN16@wimask_op:

; 1726 : #else
; 1727 :                 opnd1->llvalue |= 1i64 << i;
; 1728 : #endif
; 1729 : #else
; 1730 :                 opnd1->value |= 1 << i;
; 1731 : #endif
; 1732 :         }
; 1733 :     } else {

	jmp	SHORT $LN14@wimask_op
$LN13@wimask_op:

; 1734 :         if ( opnd2->is_type ) { /* get width of the RECORD? */

	mov	rax, QWORD PTR opnd2$[rsp]
	mov	eax, DWORD PTR [rax+72]
	shr	eax, 3
	and	eax, 1
	test	eax, eax
	je	SHORT $LN17@wimask_op

; 1735 :             struct dsym *dir = (struct dsym *)sym;

	mov	rax, QWORD PTR sym$[rsp]
	mov	QWORD PTR dir$3[rsp], rax

; 1736 :             struct sfield *fl;
; 1737 :             for ( fl = dir->e.structinfo->head; fl; fl = fl->next )

	mov	rax, QWORD PTR dir$3[rsp]
	mov	rax, QWORD PTR [rax+96]
	mov	rax, QWORD PTR [rax]
	mov	QWORD PTR fl$2[rsp], rax
	jmp	SHORT $LN7@wimask_op
$LN5@wimask_op:
	mov	rax, QWORD PTR fl$2[rsp]
	mov	rax, QWORD PTR [rax+96]
	mov	QWORD PTR fl$2[rsp], rax
$LN7@wimask_op:
	cmp	QWORD PTR fl$2[rsp], 0
	je	SHORT $LN6@wimask_op

; 1738 :                 opnd1->value += fl->sym.total_size;

	mov	rax, QWORD PTR opnd1$[rsp]
	mov	eax, DWORD PTR [rax]
	mov	rcx, QWORD PTR fl$2[rsp]
	add	eax, DWORD PTR [rcx+56]
	mov	rcx, QWORD PTR opnd1$[rsp]
	mov	DWORD PTR [rcx], eax
	jmp	SHORT $LN5@wimask_op
$LN6@wimask_op:

; 1739 :         } else

	jmp	SHORT $LN18@wimask_op
$LN17@wimask_op:

; 1740 :             opnd1->value = sym->total_size;

	mov	rax, QWORD PTR opnd1$[rsp]
	mov	rcx, QWORD PTR sym$[rsp]
	mov	ecx, DWORD PTR [rcx+56]
	mov	DWORD PTR [rax], ecx
$LN18@wimask_op:
$LN14@wimask_op:

; 1741 :     }
; 1742 :     opnd1->kind = EXPR_CONST;

	mov	rax, QWORD PTR opnd1$[rsp]
	mov	DWORD PTR [rax+60], 0

; 1743 :     return( NOT_ERROR );

	xor	eax, eax
$LN1@wimask_op:

; 1744 : }

	add	rsp, 72					; 00000048H
	ret	0
wimask_op ENDP
_TEXT	ENDS
; Function compile flags: /Odtp
; File d:\hjwasm\hjwasm2.13.1s\hjwasm2.13.1s\expreval.c
_TEXT	SEGMENT
tv87 = 32
oper$ = 64
opnd1$ = 72
opnd2$ = 80
sym$ = 88
name$ = 96
this_op	PROC

; 1657 : {

	mov	QWORD PTR [rsp+32], r9
	mov	QWORD PTR [rsp+24], r8
	mov	QWORD PTR [rsp+16], rdx
	mov	DWORD PTR [rsp+8], ecx
	sub	rsp, 56					; 00000038H

; 1658 :     if ( opnd2->is_type == FALSE ) {

	mov	rax, QWORD PTR opnd2$[rsp]
	mov	eax, DWORD PTR [rax+72]
	shr	eax, 3
	and	eax, 1
	test	eax, eax
	jne	SHORT $LN2@this_op

; 1659 :         return( fnEmitErr( INVALID_TYPE_EXPRESSION ) );

	mov	ecx, 179				; 000000b3H
	call	QWORD PTR fnEmitErr
	jmp	$LN1@this_op
$LN2@this_op:

; 1660 :     }
; 1661 :     /* v2.06: won't work inside structs */
; 1662 :     if ( CurrStruct ) {

	cmp	QWORD PTR CurrStruct, 0
	je	SHORT $LN3@this_op

; 1663 :         return( fnEmitErr( MUST_BE_IN_SEGMENT_BLOCK ) );

	mov	ecx, 82					; 00000052H
	call	QWORD PTR fnEmitErr
	jmp	$LN1@this_op
$LN3@this_op:

; 1664 :     }
; 1665 :     /* v2.06: won't work outside segments */
; 1666 :     if ( CurrSeg == NULL ) {

	cmp	QWORD PTR ModuleInfo+432, 0
	jne	SHORT $LN4@this_op

; 1667 :         return( EmitErr( MUST_BE_IN_SEGMENT_BLOCK ) ); /* error displayed even in EQU, hence EmitErr()! */

	mov	ecx, 82					; 00000052H
	call	EmitErr
	jmp	$LN1@this_op
$LN4@this_op:

; 1668 :     }
; 1669 : 
; 1670 :     if ( thissym == NULL ) {

	cmp	QWORD PTR thissym, 0
	jne	SHORT $LN5@this_op

; 1671 :         thissym = SymAlloc( "" );

	lea	rcx, OFFSET FLAT:$SG11730
	call	SymAlloc
	mov	QWORD PTR thissym, rax

; 1672 :         /* fixme: set thissym->variable? */
; 1673 :         thissym->state = SYM_INTERNAL;

	mov	rax, QWORD PTR thissym
	mov	DWORD PTR [rax+32], 1

; 1674 :         thissym->isdefined = TRUE;

	mov	rax, QWORD PTR thissym
	movzx	eax, BYTE PTR [rax+40]
	or	al, 2
	mov	rcx, QWORD PTR thissym
	mov	BYTE PTR [rcx+40], al
$LN5@this_op:

; 1675 :     }
; 1676 : 
; 1677 :     DebugMsg1(("this_op: memtype=%Xh type=%s\n", opnd2->mem_type, opnd2->type ? opnd2->type->name : "NULL" ));

	mov	rax, QWORD PTR opnd2$[rsp]
	cmp	QWORD PTR [rax+96], 0
	je	SHORT $LN9@this_op
	mov	rax, QWORD PTR opnd2$[rsp]
	mov	rax, QWORD PTR [rax+96]
	mov	rax, QWORD PTR [rax+8]
	mov	QWORD PTR tv87[rsp], rax
	jmp	SHORT $LN10@this_op
$LN9@this_op:
	lea	rax, OFFSET FLAT:$SG11731
	mov	QWORD PTR tv87[rsp], rax
$LN10@this_op:
	mov	r8, QWORD PTR tv87[rsp]
	mov	rax, QWORD PTR opnd2$[rsp]
	mov	edx, DWORD PTR [rax+64]
	lea	rcx, OFFSET FLAT:$SG11732
	call	DoDebugMsg1

; 1678 :     opnd1->kind = EXPR_ADDR;

	mov	rax, QWORD PTR opnd1$[rsp]
	mov	DWORD PTR [rax+60], 1

; 1679 : 
; 1680 :     /* v2.09: a label is not a valid argument */
; 1681 :     //if ( opnd2->sym && opnd2->sym->mem_type == MT_TYPE )
; 1682 :     //    thissym->type = opnd2->sym->type;
; 1683 :     /* v2.09: set structured type */
; 1684 :     thissym->type = opnd2->type;

	mov	rax, QWORD PTR thissym
	mov	rcx, QWORD PTR opnd2$[rsp]
	mov	rcx, QWORD PTR [rcx+96]
	mov	QWORD PTR [rax+80], rcx

; 1685 :     if ( opnd2->type ) {

	mov	rax, QWORD PTR opnd2$[rsp]
	cmp	QWORD PTR [rax+96], 0
	je	SHORT $LN6@this_op

; 1686 :         thissym->mem_type = MT_TYPE;

	mov	rax, QWORD PTR thissym
	mov	DWORD PTR [rax+36], 196			; 000000c4H

; 1687 :     } else

	jmp	SHORT $LN7@this_op
$LN6@this_op:

; 1688 :         thissym->mem_type = opnd2->mem_type;

	mov	rax, QWORD PTR thissym
	mov	rcx, QWORD PTR opnd2$[rsp]
	mov	ecx, DWORD PTR [rcx+64]
	mov	DWORD PTR [rax+36], ecx
$LN7@this_op:

; 1689 : 
; 1690 :     opnd1->sym  = thissym;

	mov	rax, QWORD PTR opnd1$[rsp]
	mov	rcx, QWORD PTR thissym
	mov	QWORD PTR [rax+80], rcx

; 1691 :     SetSymSegOfs( thissym );

	mov	rcx, QWORD PTR thissym
	call	SetSymSegOfs

; 1692 :     opnd1->mem_type = thissym->mem_type;

	mov	rax, QWORD PTR opnd1$[rsp]
	mov	rcx, QWORD PTR thissym
	mov	ecx, DWORD PTR [rcx+36]
	mov	DWORD PTR [rax+64], ecx

; 1693 :     return( NOT_ERROR );

	xor	eax, eax
$LN1@this_op:

; 1694 : }

	add	rsp, 56					; 00000038H
	ret	0
this_op	ENDP
_TEXT	ENDS
; Function compile flags: /Odtp
; File d:\hjwasm\hjwasm2.13.1s\hjwasm2.13.1s\expreval.c
_TEXT	SEGMENT
tv83 = 48
oper$ = 80
opnd1$ = 88
opnd2$ = 96
sym$ = 104
name$ = 112
high32_op PROC

; 1634 : {

	mov	QWORD PTR [rsp+32], r9
	mov	QWORD PTR [rsp+24], r8
	mov	QWORD PTR [rsp+16], rdx
	mov	DWORD PTR [rsp+8], ecx
	sub	rsp, 72					; 00000048H

; 1635 :     /* v2.06: added support for double constants */
; 1636 :     if ( opnd2->kind == EXPR_FLOAT ) {

	mov	rax, QWORD PTR opnd2$[rsp]
	cmp	DWORD PTR [rax+60], 3
	jne	$LN2@high32_op

; 1637 :         if ( Options.strict_masm_compat )

	movzx	eax, BYTE PTR Options+143
	test	eax, eax
	je	SHORT $LN3@high32_op

; 1638 :             return( ConstError( opnd1, opnd2 ) );

	mov	rdx, QWORD PTR opnd2$[rsp]
	mov	rcx, QWORD PTR opnd1$[rsp]
	call	ConstError
	jmp	$LN1@high32_op
$LN3@high32_op:

; 1639 :         atofloat( &opnd2->llvalue, opnd2->float_tok->string_ptr, sizeof( opnd2->llvalue), opnd2->negative, opnd2->float_tok->floattype );

	mov	rax, QWORD PTR opnd2$[rsp]
	mov	rax, QWORD PTR [rax+16]
	mov	rcx, QWORD PTR opnd2$[rsp]
	mov	ecx, DWORD PTR [rcx+72]
	shr	ecx, 5
	and	ecx, 1
	mov	rdx, QWORD PTR opnd2$[rsp]
	mov	rdx, QWORD PTR [rdx+16]
	mov	r8, QWORD PTR opnd2$[rsp]
	mov	QWORD PTR tv83[rsp], r8
	movzx	eax, BYTE PTR [rax+1]
	mov	BYTE PTR [rsp+32], al
	movzx	r9d, cl
	mov	r8d, 8
	mov	rdx, QWORD PTR [rdx+8]
	mov	rax, QWORD PTR tv83[rsp]
	mov	rcx, rax
	call	atofloat

; 1640 :         opnd2->kind = EXPR_CONST;

	mov	rax, QWORD PTR opnd2$[rsp]
	mov	DWORD PTR [rax+60], 0

; 1641 :         opnd2->float_tok = NULL;

	mov	rax, QWORD PTR opnd2$[rsp]
	mov	QWORD PTR [rax+16], 0
$LN2@high32_op:

; 1642 :     }
; 1643 :     TokenAssign( opnd1, opnd2 );

	mov	rdx, QWORD PTR opnd2$[rsp]
	mov	rcx, QWORD PTR opnd1$[rsp]
	call	TokenAssign

; 1644 :     if ( opnd2->kind == EXPR_ADDR && opnd2->instr != T_SEG ) {

	mov	rax, QWORD PTR opnd2$[rsp]
	cmp	DWORD PTR [rax+60], 1
	jne	SHORT $LN4@high32_op
	mov	rax, QWORD PTR opnd2$[rsp]
	cmp	DWORD PTR [rax+56], 244			; 000000f4H
	je	SHORT $LN4@high32_op

; 1645 :         opnd1->instr = T_HIGH32;

	mov	rax, QWORD PTR opnd1$[rsp]
	mov	DWORD PTR [rax+56], 231			; 000000e7H

; 1646 :         //opnd1->mem_type = MT_DWORD; /* v2.10: changed - also see change in parser.c, idata_fixup() */
; 1647 :         opnd1->mem_type = MT_EMPTY;

	mov	rax, QWORD PTR opnd1$[rsp]
	mov	DWORD PTR [rax+64], 192			; 000000c0H
$LN4@high32_op:

; 1648 :     }
; 1649 :     opnd1->llvalue = opnd1->llvalue >> 32;

	mov	rax, QWORD PTR opnd1$[rsp]
	mov	rax, QWORD PTR [rax]
	shr	rax, 32					; 00000020H
	mov	rcx, QWORD PTR opnd1$[rsp]
	mov	QWORD PTR [rcx], rax

; 1650 :     return( NOT_ERROR );

	xor	eax, eax
$LN1@high32_op:

; 1651 : }

	add	rsp, 72					; 00000048H
	ret	0
high32_op ENDP
_TEXT	ENDS
; Function compile flags: /Odtp
; File d:\hjwasm\hjwasm2.13.1s\hjwasm2.13.1s\expreval.c
_TEXT	SEGMENT
tv83 = 48
oper$ = 80
opnd1$ = 88
opnd2$ = 96
sym$ = 104
name$ = 112
low32_op PROC

; 1613 : {

	mov	QWORD PTR [rsp+32], r9
	mov	QWORD PTR [rsp+24], r8
	mov	QWORD PTR [rsp+16], rdx
	mov	DWORD PTR [rsp+8], ecx
	sub	rsp, 72					; 00000048H

; 1614 :     /* v2.06: added support for double constants */
; 1615 :     if ( opnd2->kind == EXPR_FLOAT ) {

	mov	rax, QWORD PTR opnd2$[rsp]
	cmp	DWORD PTR [rax+60], 3
	jne	$LN2@low32_op

; 1616 :         if ( Options.strict_masm_compat )

	movzx	eax, BYTE PTR Options+143
	test	eax, eax
	je	SHORT $LN3@low32_op

; 1617 :             return( ConstError( opnd1, opnd2 ) );

	mov	rdx, QWORD PTR opnd2$[rsp]
	mov	rcx, QWORD PTR opnd1$[rsp]
	call	ConstError
	jmp	$LN1@low32_op
$LN3@low32_op:

; 1618 :         atofloat( &opnd2->llvalue, opnd2->float_tok->string_ptr, sizeof( opnd2->llvalue), opnd2->negative, opnd2->float_tok->floattype );

	mov	rax, QWORD PTR opnd2$[rsp]
	mov	rax, QWORD PTR [rax+16]
	mov	rcx, QWORD PTR opnd2$[rsp]
	mov	ecx, DWORD PTR [rcx+72]
	shr	ecx, 5
	and	ecx, 1
	mov	rdx, QWORD PTR opnd2$[rsp]
	mov	rdx, QWORD PTR [rdx+16]
	mov	r8, QWORD PTR opnd2$[rsp]
	mov	QWORD PTR tv83[rsp], r8
	movzx	eax, BYTE PTR [rax+1]
	mov	BYTE PTR [rsp+32], al
	movzx	r9d, cl
	mov	r8d, 8
	mov	rdx, QWORD PTR [rdx+8]
	mov	rax, QWORD PTR tv83[rsp]
	mov	rcx, rax
	call	atofloat

; 1619 :         opnd2->kind = EXPR_CONST;

	mov	rax, QWORD PTR opnd2$[rsp]
	mov	DWORD PTR [rax+60], 0

; 1620 :         opnd2->float_tok = NULL;

	mov	rax, QWORD PTR opnd2$[rsp]
	mov	QWORD PTR [rax+16], 0
$LN2@low32_op:

; 1621 :     }
; 1622 :     TokenAssign( opnd1, opnd2 );

	mov	rdx, QWORD PTR opnd2$[rsp]
	mov	rcx, QWORD PTR opnd1$[rsp]
	call	TokenAssign

; 1623 :     if ( opnd2->kind == EXPR_ADDR && opnd2->instr != T_SEG ) {

	mov	rax, QWORD PTR opnd2$[rsp]
	cmp	DWORD PTR [rax+60], 1
	jne	SHORT $LN4@low32_op
	mov	rax, QWORD PTR opnd2$[rsp]
	cmp	DWORD PTR [rax+56], 244			; 000000f4H
	je	SHORT $LN4@low32_op

; 1624 :         opnd1->instr = T_LOW32;

	mov	rax, QWORD PTR opnd1$[rsp]
	mov	DWORD PTR [rax+56], 237			; 000000edH

; 1625 :         //opnd1->mem_type = MT_DWORD; /* v2.10: changed - also see change in parser.c, idata_fixup() */
; 1626 :         opnd1->mem_type = MT_EMPTY;

	mov	rax, QWORD PTR opnd1$[rsp]
	mov	DWORD PTR [rax+64], 192			; 000000c0H
$LN4@low32_op:

; 1627 :     }
; 1628 :     opnd1->llvalue &= 0xffffffff;

	mov	rax, QWORD PTR opnd1$[rsp]
	mov	ecx, -1					; ffffffffH
	mov	rax, QWORD PTR [rax]
	and	rax, rcx
	mov	rcx, QWORD PTR opnd1$[rsp]
	mov	QWORD PTR [rcx], rax

; 1629 :     return( NOT_ERROR );

	xor	eax, eax
$LN1@low32_op:

; 1630 : }

	add	rsp, 72					; 00000048H
	ret	0
low32_op ENDP
_TEXT	ENDS
; Function compile flags: /Odtp
; File d:\hjwasm\hjwasm2.13.1s\hjwasm2.13.1s\expreval.c
_TEXT	SEGMENT
oper$ = 48
opnd1$ = 56
opnd2$ = 64
sym$ = 72
name$ = 80
high_op	PROC

; 1589 : {

	mov	QWORD PTR [rsp+32], r9
	mov	QWORD PTR [rsp+24], r8
	mov	QWORD PTR [rsp+16], rdx
	mov	DWORD PTR [rsp+8], ecx
	sub	rsp, 40					; 00000028H

; 1590 :     TokenAssign( opnd1, opnd2 );

	mov	rdx, QWORD PTR opnd2$[rsp]
	mov	rcx, QWORD PTR opnd1$[rsp]
	call	TokenAssign

; 1591 :     if ( opnd2->kind == EXPR_ADDR && opnd2->instr != T_SEG ) {

	mov	rax, QWORD PTR opnd2$[rsp]
	cmp	DWORD PTR [rax+60], 1
	jne	SHORT $LN2@high_op
	mov	rax, QWORD PTR opnd2$[rsp]
	cmp	DWORD PTR [rax+56], 244			; 000000f4H
	je	SHORT $LN2@high_op

; 1592 :         /* v2.07: don't check any format-specific rules in the
; 1593 :          * expression evaluator!
; 1594 :          */
; 1595 : #if 0
; 1596 :         if ( Options.output_format != OFORMAT_OMF &&
; 1597 :             Options.output_format != OFORMAT_BIN && opnd2->sym ) {
; 1598 :             return( fnEmitErr( SYMBOL_TYPE_CONFLICT, opnd2->sym->name ) );
; 1599 :         }
; 1600 : #endif
; 1601 :         opnd1->instr = T_HIGH;

	mov	rax, QWORD PTR opnd1$[rsp]
	mov	DWORD PTR [rax+56], 230			; 000000e6H

; 1602 :         opnd1->mem_type = MT_EMPTY;

	mov	rax, QWORD PTR opnd1$[rsp]
	mov	DWORD PTR [rax+64], 192			; 000000c0H
$LN2@high_op:

; 1603 :     }
; 1604 :     opnd1->value = opnd1->value >> 8;

	mov	rax, QWORD PTR opnd1$[rsp]
	mov	eax, DWORD PTR [rax]
	sar	eax, 8
	mov	rcx, QWORD PTR opnd1$[rsp]
	mov	DWORD PTR [rcx], eax

; 1605 :     opnd1->llvalue &= 0xff;

	mov	rax, QWORD PTR opnd1$[rsp]
	mov	rax, QWORD PTR [rax]
	and	rax, 255				; 000000ffH
	mov	rcx, QWORD PTR opnd1$[rsp]
	mov	QWORD PTR [rcx], rax

; 1606 :     return( NOT_ERROR );

	xor	eax, eax

; 1607 : }

	add	rsp, 40					; 00000028H
	ret	0
high_op	ENDP
_TEXT	ENDS
; Function compile flags: /Odtp
; File d:\hjwasm\hjwasm2.13.1s\hjwasm2.13.1s\expreval.c
_TEXT	SEGMENT
oper$ = 48
opnd1$ = 56
opnd2$ = 64
sym$ = 72
name$ = 80
low_op	PROC

; 1567 : {

	mov	QWORD PTR [rsp+32], r9
	mov	QWORD PTR [rsp+24], r8
	mov	QWORD PTR [rsp+16], rdx
	mov	DWORD PTR [rsp+8], ecx
	sub	rsp, 40					; 00000028H

; 1568 :     TokenAssign( opnd1, opnd2 );

	mov	rdx, QWORD PTR opnd2$[rsp]
	mov	rcx, QWORD PTR opnd1$[rsp]
	call	TokenAssign

; 1569 :     if ( opnd2->kind == EXPR_ADDR && opnd2->instr != T_SEG ) {

	mov	rax, QWORD PTR opnd2$[rsp]
	cmp	DWORD PTR [rax+60], 1
	jne	SHORT $LN2@low_op
	mov	rax, QWORD PTR opnd2$[rsp]
	cmp	DWORD PTR [rax+56], 244			; 000000f4H
	je	SHORT $LN2@low_op

; 1570 : #if 0
; 1571 :         /* LOW works for OMF/BIN only */
; 1572 :         /* v2.07: don't check any format-specific rules in the
; 1573 :          * expression evaluator!
; 1574 :          */
; 1575 :         if ( Options.output_format != OFORMAT_OMF &&
; 1576 :             Options.output_format != OFORMAT_BIN && opnd2->sym ) {
; 1577 :             return( fnEmitErr( SYMBOL_TYPE_CONFLICT, opnd2->sym->name ) );
; 1578 :         }
; 1579 : #endif
; 1580 :         opnd1->instr = T_LOW;

	mov	rax, QWORD PTR opnd1$[rsp]
	mov	DWORD PTR [rax+56], 236			; 000000ecH

; 1581 :         opnd1->mem_type = MT_EMPTY;

	mov	rax, QWORD PTR opnd1$[rsp]
	mov	DWORD PTR [rax+64], 192			; 000000c0H
$LN2@low_op:

; 1582 :     }
; 1583 :     opnd1->llvalue &= 0xff;

	mov	rax, QWORD PTR opnd1$[rsp]
	mov	rax, QWORD PTR [rax]
	and	rax, 255				; 000000ffH
	mov	rcx, QWORD PTR opnd1$[rsp]
	mov	QWORD PTR [rcx], rax

; 1584 :     return( NOT_ERROR );

	xor	eax, eax

; 1585 : }

	add	rsp, 40					; 00000028H
	ret	0
low_op	ENDP
_TEXT	ENDS
; Function compile flags: /Odtp
; File d:\hjwasm\hjwasm2.13.1s\hjwasm2.13.1s\expreval.c
_TEXT	SEGMENT
oper$ = 48
opnd1$ = 56
opnd2$ = 64
sym$ = 72
name$ = 80
highword_op PROC

; 1554 : {

	mov	QWORD PTR [rsp+32], r9
	mov	QWORD PTR [rsp+24], r8
	mov	QWORD PTR [rsp+16], rdx
	mov	DWORD PTR [rsp+8], ecx
	sub	rsp, 40					; 00000028H

; 1555 :     TokenAssign( opnd1, opnd2 );

	mov	rdx, QWORD PTR opnd2$[rsp]
	mov	rcx, QWORD PTR opnd1$[rsp]
	call	TokenAssign

; 1556 :     if ( opnd2->kind == EXPR_ADDR && opnd2->instr != T_SEG ) {

	mov	rax, QWORD PTR opnd2$[rsp]
	cmp	DWORD PTR [rax+60], 1
	jne	SHORT $LN2@highword_o
	mov	rax, QWORD PTR opnd2$[rsp]
	cmp	DWORD PTR [rax+56], 244			; 000000f4H
	je	SHORT $LN2@highword_o

; 1557 :         opnd1->instr = T_HIGHWORD;

	mov	rax, QWORD PTR opnd1$[rsp]
	mov	DWORD PTR [rax+56], 232			; 000000e8H

; 1558 :         //opnd1->mem_type = MT_WORD; /* v2.05 */
; 1559 :         opnd1->mem_type = MT_EMPTY;

	mov	rax, QWORD PTR opnd1$[rsp]
	mov	DWORD PTR [rax+64], 192			; 000000c0H
$LN2@highword_o:

; 1560 :     }
; 1561 : 	opnd1->llvalue = (opnd1->value >> 16) & 0xFFFF; /* ASMC v2.14 (fix borrowed from nidud) */

	mov	rax, QWORD PTR opnd1$[rsp]
	mov	eax, DWORD PTR [rax]
	sar	eax, 16
	and	eax, 65535				; 0000ffffH
	cdqe
	mov	rcx, QWORD PTR opnd1$[rsp]
	mov	QWORD PTR [rcx], rax

; 1562 :     return( NOT_ERROR );

	xor	eax, eax

; 1563 : }

	add	rsp, 40					; 00000028H
	ret	0
highword_op ENDP
_TEXT	ENDS
; Function compile flags: /Odtp
; File d:\hjwasm\hjwasm2.13.1s\hjwasm2.13.1s\expreval.c
_TEXT	SEGMENT
oper$ = 48
opnd1$ = 56
opnd2$ = 64
sym$ = 72
name$ = 80
lowword_op PROC

; 1541 : {

	mov	QWORD PTR [rsp+32], r9
	mov	QWORD PTR [rsp+24], r8
	mov	QWORD PTR [rsp+16], rdx
	mov	DWORD PTR [rsp+8], ecx
	sub	rsp, 40					; 00000028H

; 1542 :     TokenAssign( opnd1, opnd2 );

	mov	rdx, QWORD PTR opnd2$[rsp]
	mov	rcx, QWORD PTR opnd1$[rsp]
	call	TokenAssign

; 1543 :     if ( opnd2->kind == EXPR_ADDR && opnd2->instr != T_SEG ) {

	mov	rax, QWORD PTR opnd2$[rsp]
	cmp	DWORD PTR [rax+60], 1
	jne	SHORT $LN2@lowword_op
	mov	rax, QWORD PTR opnd2$[rsp]
	cmp	DWORD PTR [rax+56], 244			; 000000f4H
	je	SHORT $LN2@lowword_op

; 1544 :         opnd1->instr = T_LOWWORD;

	mov	rax, QWORD PTR opnd1$[rsp]
	mov	DWORD PTR [rax+56], 238			; 000000eeH

; 1545 :         //opnd1->mem_type = MT_WORD; /* v2.05 */
; 1546 :         opnd1->mem_type = MT_EMPTY;

	mov	rax, QWORD PTR opnd1$[rsp]
	mov	DWORD PTR [rax+64], 192			; 000000c0H
$LN2@lowword_op:

; 1547 :     }
; 1548 :     opnd1->llvalue &= 0xffff;

	mov	rax, QWORD PTR opnd1$[rsp]
	mov	rax, QWORD PTR [rax]
	and	rax, 65535				; 0000ffffH
	mov	rcx, QWORD PTR opnd1$[rsp]
	mov	QWORD PTR [rcx], rax

; 1549 :     return( NOT_ERROR );

	xor	eax, eax

; 1550 : }

	add	rsp, 40					; 00000028H
	ret	0
lowword_op ENDP
_TEXT	ENDS
; Function compile flags: /Odtp
; File d:\hjwasm\hjwasm2.13.1s\hjwasm2.13.1s\expreval.c
_TEXT	SEGMENT
oper$ = 48
opnd1$ = 56
opnd2$ = 64
sym$ = 72
name$ = 80
offset_op PROC

; 1503 : {

	mov	QWORD PTR [rsp+32], r9
	mov	QWORD PTR [rsp+24], r8
	mov	QWORD PTR [rsp+16], rdx
	mov	DWORD PTR [rsp+8], ecx
	sub	rsp, 40					; 00000028H

; 1504 :     if ( oper == T_OFFSET ) {

	cmp	DWORD PTR oper$[rsp], 241		; 000000f1H
	jne	SHORT $LN2@offset_op

; 1505 :         /* if operand is a constant value, skip OFFSET operator */
; 1506 :         if ( opnd2->kind == EXPR_CONST ) {

	mov	rax, QWORD PTR opnd2$[rsp]
	cmp	DWORD PTR [rax+60], 0
	jne	SHORT $LN3@offset_op

; 1507 :             TokenAssign( opnd1, opnd2 );

	mov	rdx, QWORD PTR opnd2$[rsp]
	mov	rcx, QWORD PTR opnd1$[rsp]
	call	TokenAssign

; 1508 :             return( NOT_ERROR );

	xor	eax, eax
	jmp	$LN1@offset_op
$LN3@offset_op:
$LN2@offset_op:

; 1509 :         }
; 1510 :     }
; 1511 :     if ( (sym && sym->state == SYM_GRP) || opnd2->instr == T_SEG ) {

	cmp	QWORD PTR sym$[rsp], 0
	je	SHORT $LN6@offset_op
	mov	rax, QWORD PTR sym$[rsp]
	cmp	DWORD PTR [rax+32], 4
	je	SHORT $LN5@offset_op
$LN6@offset_op:
	mov	rax, QWORD PTR opnd2$[rsp]
	cmp	DWORD PTR [rax+56], 244			; 000000f4H
	jne	SHORT $LN4@offset_op
$LN5@offset_op:

; 1512 :         return( invalid_operand( opnd2, GetResWName( oper, NULL ), name ) );

	xor	edx, edx
	mov	ecx, DWORD PTR oper$[rsp]
	call	GetResWName
	mov	r8, QWORD PTR name$[rsp]
	mov	rdx, rax
	mov	rcx, QWORD PTR opnd2$[rsp]
	call	invalid_operand
	jmp	SHORT $LN1@offset_op
$LN4@offset_op:

; 1513 :     }
; 1514 :     /* offset operator accepts types, but returns always 0 */
; 1515 :     if ( opnd2->is_type )

	mov	rax, QWORD PTR opnd2$[rsp]
	mov	eax, DWORD PTR [rax+72]
	shr	eax, 3
	and	eax, 1
	test	eax, eax
	je	SHORT $LN7@offset_op

; 1516 :         opnd2->value = 0;

	mov	rax, QWORD PTR opnd2$[rsp]
	mov	DWORD PTR [rax], 0
$LN7@offset_op:

; 1517 : 
; 1518 :     TokenAssign( opnd1, opnd2 );

	mov	rdx, QWORD PTR opnd2$[rsp]
	mov	rcx, QWORD PTR opnd1$[rsp]
	call	TokenAssign

; 1519 :     opnd1->instr = oper;

	mov	rax, QWORD PTR opnd1$[rsp]
	mov	ecx, DWORD PTR oper$[rsp]
	mov	DWORD PTR [rax+56], ecx

; 1520 : 
; 1521 :     if ( opnd2->indirect ) {

	mov	rax, QWORD PTR opnd2$[rsp]
	mov	eax, DWORD PTR [rax+72]
	and	eax, 1
	test	eax, eax
	je	SHORT $LN8@offset_op

; 1522 :         /* Masm v5.1 allows indirect operands, but Masm v6 with -Zm
; 1523 :          * won't accept it.
; 1524 :          */
; 1525 :         return( invalid_operand( opnd2, GetResWName( oper, NULL ), name ) );

	xor	edx, edx
	mov	ecx, DWORD PTR oper$[rsp]
	call	GetResWName
	mov	r8, QWORD PTR name$[rsp]
	mov	rdx, rax
	mov	rcx, QWORD PTR opnd2$[rsp]
	call	invalid_operand
	jmp	SHORT $LN1@offset_op
$LN8@offset_op:

; 1526 :     }
; 1527 :     /* skip memory type of operand, just address is needed */
; 1528 :     //opnd1->mem_type = MT_NEAR;
; 1529 :     opnd1->mem_type = MT_EMPTY;

	mov	rax, QWORD PTR opnd1$[rsp]
	mov	DWORD PTR [rax+64], 192			; 000000c0H

; 1530 :     /* clear overrides ("offset SEG:xxx") */
; 1531 :     /* v2.01: override information is important for fixup creation!
; 1532 :      * the reason why it was cleared probably was to avoid creation
; 1533 :      * of a segment prefix. This case is now handled in the parser.
; 1534 :      */
; 1535 :     // opnd1->override = NULL;
; 1536 :     return( NOT_ERROR );

	xor	eax, eax
$LN1@offset_op:

; 1537 : }

	add	rsp, 40					; 00000028H
	ret	0
offset_op ENDP
_TEXT	ENDS
; Function compile flags: /Odtp
; File d:\hjwasm\hjwasm2.13.1s\hjwasm2.13.1s\expreval.c
_TEXT	SEGMENT
oper$ = 48
opnd1$ = 56
opnd2$ = 64
sym$ = 72
name$ = 80
seg_op	PROC

; 1484 : {

	mov	QWORD PTR [rsp+32], r9
	mov	QWORD PTR [rsp+24], r8
	mov	QWORD PTR [rsp+16], rdx
	mov	DWORD PTR [rsp+8], ecx
	sub	rsp, 40					; 00000028H

; 1485 :     /* v2.10: check for sym==NULL ( seg ds:[0] ) added */
; 1486 :     if ( opnd2->sym == NULL || opnd2->sym->state == SYM_STACK || opnd2->is_abs ) {

	mov	rax, QWORD PTR opnd2$[rsp]
	cmp	QWORD PTR [rax+80], 0
	je	SHORT $LN3@seg_op
	mov	rax, QWORD PTR opnd2$[rsp]
	mov	rax, QWORD PTR [rax+80]
	cmp	DWORD PTR [rax+32], 5
	je	SHORT $LN3@seg_op
	mov	rax, QWORD PTR opnd2$[rsp]
	mov	eax, DWORD PTR [rax+72]
	shr	eax, 2
	and	eax, 1
	test	eax, eax
	je	SHORT $LN2@seg_op
$LN3@seg_op:

; 1487 :         return( fnEmitErr( OPERAND_MUST_BE_RELOCATABLE ) );

	mov	ecx, 188				; 000000bcH
	call	QWORD PTR fnEmitErr
	jmp	SHORT $LN1@seg_op
$LN2@seg_op:

; 1488 :     }
; 1489 :     TokenAssign( opnd1, opnd2 );

	mov	rdx, QWORD PTR opnd2$[rsp]
	mov	rcx, QWORD PTR opnd1$[rsp]
	call	TokenAssign

; 1490 :     opnd1->instr = oper;

	mov	rax, QWORD PTR opnd1$[rsp]
	mov	ecx, DWORD PTR oper$[rsp]
	mov	DWORD PTR [rax+56], ecx

; 1491 :     if ( opnd1->mbr ) /* v2.08: set value more selectively */

	mov	rax, QWORD PTR opnd1$[rsp]
	cmp	QWORD PTR [rax+88], 0
	je	SHORT $LN4@seg_op

; 1492 :         opnd1->value = 0;    /* v2.07: added ( SEG <member> ) */

	mov	rax, QWORD PTR opnd1$[rsp]
	mov	DWORD PTR [rax], 0
$LN4@seg_op:

; 1493 :     opnd1->mem_type = MT_EMPTY; /* v2.04a */

	mov	rax, QWORD PTR opnd1$[rsp]
	mov	DWORD PTR [rax+64], 192			; 000000c0H

; 1494 :     return( NOT_ERROR );

	xor	eax, eax
$LN1@seg_op:

; 1495 : }

	add	rsp, 40					; 00000028H
	ret	0
seg_op	ENDP
_TEXT	ENDS
; Function compile flags: /Odtp
; File d:\hjwasm\hjwasm2.13.1s\hjwasm2.13.1s\expreval.c
_TEXT	SEGMENT
oper$ = 48
opnd1$ = 56
opnd2$ = 64
sym$ = 72
name$ = 80
short_op PROC

; 1470 : {

	mov	QWORD PTR [rsp+32], r9
	mov	QWORD PTR [rsp+24], r8
	mov	QWORD PTR [rsp+16], rdx
	mov	DWORD PTR [rsp+8], ecx
	sub	rsp, 40					; 00000028H

; 1471 :     if ( opnd2->kind != EXPR_ADDR ||

	mov	rax, QWORD PTR opnd2$[rsp]
	cmp	DWORD PTR [rax+60], 1
	jne	SHORT $LN3@short_op
	mov	rax, QWORD PTR opnd2$[rsp]
	cmp	DWORD PTR [rax+64], 192			; 000000c0H
	je	SHORT $LN2@short_op
	mov	rax, QWORD PTR opnd2$[rsp]
	cmp	DWORD PTR [rax+64], 129			; 00000081H
	je	SHORT $LN2@short_op
	mov	rax, QWORD PTR opnd2$[rsp]
	cmp	DWORD PTR [rax+64], 130			; 00000082H
	je	SHORT $LN2@short_op
$LN3@short_op:

; 1472 :         ( opnd2->mem_type != MT_EMPTY &&
; 1473 :          opnd2->mem_type != MT_NEAR &&
; 1474 :          opnd2->mem_type != MT_FAR ) ) {
; 1475 :         return( fnEmitErr( EXPRESSION_MUST_BE_A_CODE_ADDRESS ) );

	mov	ecx, 233				; 000000e9H
	call	QWORD PTR fnEmitErr
	jmp	SHORT $LN1@short_op
$LN2@short_op:

; 1476 :     }
; 1477 :     TokenAssign( opnd1, opnd2 );

	mov	rdx, QWORD PTR opnd2$[rsp]
	mov	rcx, QWORD PTR opnd1$[rsp]
	call	TokenAssign

; 1478 :     opnd1->instr = oper;

	mov	rax, QWORD PTR opnd1$[rsp]
	mov	ecx, DWORD PTR oper$[rsp]
	mov	DWORD PTR [rax+56], ecx

; 1479 :     return( NOT_ERROR );

	xor	eax, eax
$LN1@short_op:

; 1480 : }

	add	rsp, 40					; 00000028H
	ret	0
short_op ENDP
_TEXT	ENDS
; Function compile flags: /Odtp
; File d:\hjwasm\hjwasm2.13.1s\hjwasm2.13.1s\expreval.c
_TEXT	SEGMENT
tv68 = 32
oper$ = 64
opnd1$ = 72
opnd2$ = 80
sym$ = 88
name$ = 96
opattr_op PROC

; 1367 : {

	mov	QWORD PTR [rsp+32], r9
	mov	QWORD PTR [rsp+24], r8
	mov	QWORD PTR [rsp+16], rdx
	mov	DWORD PTR [rsp+8], ecx
	sub	rsp, 56					; 00000038H

; 1368 : 
; 1369 :     DebugMsg1(("opattr_op: arg kind=%d memtype=%X sym=%s\n",

	mov	rax, QWORD PTR opnd2$[rsp]
	cmp	QWORD PTR [rax+80], 0
	je	SHORT $LN32@opattr_op
	mov	rax, QWORD PTR opnd2$[rsp]
	mov	rax, QWORD PTR [rax+80]
	mov	rax, QWORD PTR [rax+8]
	mov	QWORD PTR tv68[rsp], rax
	jmp	SHORT $LN33@opattr_op
$LN32@opattr_op:
	lea	rax, OFFSET FLAT:$SG11545
	mov	QWORD PTR tv68[rsp], rax
$LN33@opattr_op:
	mov	r9, QWORD PTR tv68[rsp]
	mov	rax, QWORD PTR opnd2$[rsp]
	mov	r8d, DWORD PTR [rax+64]
	mov	rax, QWORD PTR opnd2$[rsp]
	mov	edx, DWORD PTR [rax+60]
	lea	rcx, OFFSET FLAT:$SG11546
	call	DoDebugMsg1

; 1370 :                opnd2->kind, opnd2->mem_type,
; 1371 :                opnd2->sym ? opnd2->sym->name : "NULL" ));
; 1372 :     opnd1->kind = EXPR_CONST;

	mov	rax, QWORD PTR opnd1$[rsp]
	mov	DWORD PTR [rax+60], 0

; 1373 :     opnd1->sym = NULL;  /* clear symbol in case it is undef */

	mov	rax, QWORD PTR opnd1$[rsp]
	mov	QWORD PTR [rax+80], 0

; 1374 :     opnd1->value = 0;

	mov	rax, QWORD PTR opnd1$[rsp]
	mov	DWORD PTR [rax], 0

; 1375 :     opnd1->mem_type = MT_EMPTY;

	mov	rax, QWORD PTR opnd1$[rsp]
	mov	DWORD PTR [rax+64], 192			; 000000c0H

; 1376 :     opnd1->is_opattr = FALSE; /* v2: added */

	mov	rax, QWORD PTR opnd1$[rsp]
	mov	eax, DWORD PTR [rax+72]
	and	eax, -17				; ffffffefH
	mov	rcx, QWORD PTR opnd1$[rsp]
	mov	DWORD PTR [rcx+72], eax

; 1377 : 
; 1378 :     if ( opnd2->kind == EXPR_EMPTY )

	mov	rax, QWORD PTR opnd2$[rsp]
	cmp	DWORD PTR [rax+60], -2
	jne	SHORT $LN2@opattr_op

; 1379 :         return( NOT_ERROR );

	xor	eax, eax
	jmp	$LN1@opattr_op
$LN2@opattr_op:

; 1380 : 
; 1381 :     /* bit 0: code label (near|far)? */
; 1382 :     if ( opnd2->kind == EXPR_ADDR ) {

	mov	rax, QWORD PTR opnd2$[rsp]
	cmp	DWORD PTR [rax+60], 1
	jne	$LN3@opattr_op

; 1383 :         if ( opnd2->sym && opnd2->sym->state != SYM_STACK &&

	mov	rax, QWORD PTR opnd2$[rsp]
	cmp	QWORD PTR [rax+80], 0
	je	SHORT $LN4@opattr_op
	mov	rax, QWORD PTR opnd2$[rsp]
	mov	rax, QWORD PTR [rax+80]
	cmp	DWORD PTR [rax+32], 5
	je	SHORT $LN4@opattr_op
	mov	rax, QWORD PTR opnd2$[rsp]
	mov	eax, DWORD PTR [rax+64]
	and	eax, 192				; 000000c0H
	cmp	eax, 128				; 00000080H
	jne	SHORT $LN4@opattr_op

; 1384 :             ( opnd2->mem_type & MT_SPECIAL_MASK ) == MT_ADDRESS )
; 1385 :             opnd1->value |= OPATTR_CODELABEL;

	mov	rax, QWORD PTR opnd1$[rsp]
	mov	eax, DWORD PTR [rax]
	or	eax, 1
	mov	rcx, QWORD PTR opnd1$[rsp]
	mov	DWORD PTR [rcx], eax
$LN4@opattr_op:

; 1386 : 
; 1387 :         if ( IsOffset( opnd2 ) &&
; 1388 :             opnd2->sym &&

	mov	rcx, QWORD PTR opnd2$[rsp]
	call	IsOffset
	test	eax, eax
	je	SHORT $LN5@opattr_op
	mov	rax, QWORD PTR opnd2$[rsp]
	cmp	QWORD PTR [rax+80], 0
	je	SHORT $LN5@opattr_op
	mov	rax, QWORD PTR opnd2$[rsp]
	mov	rax, QWORD PTR [rax+80]
	mov	eax, DWORD PTR [rax+36]
	and	eax, 192				; 000000c0H
	cmp	eax, 128				; 00000080H
	jne	SHORT $LN5@opattr_op

; 1389 :             ( opnd2->sym->mem_type & MT_SPECIAL_MASK ) == MT_ADDRESS )
; 1390 :             opnd1->value |= OPATTR_CODELABEL;

	mov	rax, QWORD PTR opnd1$[rsp]
	mov	eax, DWORD PTR [rax]
	or	eax, 1
	mov	rcx, QWORD PTR opnd1$[rsp]
	mov	DWORD PTR [rcx], eax
$LN5@opattr_op:

; 1391 : 
; 1392 :         /* bit 1: memory variable, relocatable data label? */
; 1393 :         if ( opnd2->sym &&

	mov	rax, QWORD PTR opnd2$[rsp]
	cmp	QWORD PTR [rax+80], 0
	je	SHORT $LN6@opattr_op
	mov	rax, QWORD PTR opnd2$[rsp]
	mov	rax, QWORD PTR [rax+80]
	cmp	DWORD PTR [rax+36], 196			; 000000c4H
	je	SHORT $LN7@opattr_op
	mov	rax, QWORD PTR opnd2$[rsp]
	mov	eax, DWORD PTR [rax+64]
	and	eax, 128				; 00000080H
	test	eax, eax
	je	SHORT $LN7@opattr_op
	mov	rax, QWORD PTR opnd2$[rsp]
	cmp	DWORD PTR [rax+64], 192			; 000000c0H
	jne	SHORT $LN6@opattr_op
	mov	rax, QWORD PTR opnd2$[rsp]
	mov	rax, QWORD PTR [rax+80]
	mov	eax, DWORD PTR [rax+36]
	and	eax, 128				; 00000080H
	test	eax, eax
	jne	SHORT $LN6@opattr_op
$LN7@opattr_op:

; 1394 :             (( opnd2->sym->mem_type == MT_TYPE ||
; 1395 :               ( opnd2->mem_type & MT_SPECIAL ) == 0 ) ||
; 1396 :              ( opnd2->mem_type == MT_EMPTY &&
; 1397 :               ( opnd2->sym->mem_type & MT_SPECIAL ) == 0 )))
; 1398 :             opnd1->value |= OPATTR_DATALABEL;

	mov	rax, QWORD PTR opnd1$[rsp]
	mov	eax, DWORD PTR [rax]
	or	eax, 2
	mov	rcx, QWORD PTR opnd1$[rsp]
	mov	DWORD PTR [rcx], eax
$LN6@opattr_op:
$LN3@opattr_op:

; 1399 :     }
; 1400 :     /* kind==EXPR_ADDR is not reliably set for indirect register addressing! */
; 1401 :     /* v2.12: check if operand is valid */
; 1402 :     //if ( opnd2->indirect )
; 1403 :     if ( opnd2->kind != EXPR_ERROR && opnd2->indirect )

	mov	rax, QWORD PTR opnd2$[rsp]
	cmp	DWORD PTR [rax+60], -1
	je	SHORT $LN8@opattr_op
	mov	rax, QWORD PTR opnd2$[rsp]
	mov	eax, DWORD PTR [rax+72]
	and	eax, 1
	test	eax, eax
	je	SHORT $LN8@opattr_op

; 1404 :         opnd1->value |= OPATTR_DATALABEL;

	mov	rax, QWORD PTR opnd1$[rsp]
	mov	eax, DWORD PTR [rax]
	or	eax, 2
	mov	rcx, QWORD PTR opnd1$[rsp]
	mov	DWORD PTR [rcx], eax
$LN8@opattr_op:

; 1405 : 
; 1406 : 
; 1407 :     /* bit 2: immediate value? */
; 1408 : 	/* John Hankinson modified here to allow -Zne switch to treat literal string macro argument with opattr type = 0 */
; 1409 : 	if (Options.strict_masm_compat && opnd2->kind == EXPR_CONST && opnd2->mem_type != MT_SQWORD && opnd2->quoted_string != NULL)

	movzx	eax, BYTE PTR Options+143
	test	eax, eax
	je	SHORT $LN9@opattr_op
	mov	rax, QWORD PTR opnd2$[rsp]
	cmp	DWORD PTR [rax+60], 0
	jne	SHORT $LN9@opattr_op
	mov	rax, QWORD PTR opnd2$[rsp]
	cmp	DWORD PTR [rax+64], 71			; 00000047H
	je	SHORT $LN9@opattr_op
	mov	rax, QWORD PTR opnd2$[rsp]
	cmp	QWORD PTR [rax+16], 0
	je	SHORT $LN9@opattr_op

; 1410 : 	{
; 1411 : 	}

	jmp	$LN10@opattr_op
$LN9@opattr_op:

; 1412 :     else if ( opnd2->kind == EXPR_CONST ||

	mov	rax, QWORD PTR opnd2$[rsp]
	cmp	DWORD PTR [rax+60], 0
	je	SHORT $LN12@opattr_op
	mov	rax, QWORD PTR opnd2$[rsp]
	cmp	DWORD PTR [rax+60], 1
	jne	SHORT $LN11@opattr_op
	mov	rax, QWORD PTR opnd2$[rsp]
	mov	eax, DWORD PTR [rax+72]
	and	eax, 1
	test	eax, eax
	jne	SHORT $LN11@opattr_op
	mov	rax, QWORD PTR opnd2$[rsp]
	cmp	DWORD PTR [rax+64], 192			; 000000c0H
	jne	SHORT $LN14@opattr_op
	mov	rcx, QWORD PTR opnd2$[rsp]
	call	IsOffset
	test	eax, eax
	jne	SHORT $LN13@opattr_op
$LN14@opattr_op:
	mov	rax, QWORD PTR opnd2$[rsp]
	cmp	DWORD PTR [rax+64], 192			; 000000c0H
	je	SHORT $LN13@opattr_op
	mov	rax, QWORD PTR opnd2$[rsp]
	mov	eax, DWORD PTR [rax+64]
	and	eax, 192				; 000000c0H
	cmp	eax, 128				; 00000080H
	jne	SHORT $LN11@opattr_op
$LN13@opattr_op:
	mov	rax, QWORD PTR opnd2$[rsp]
	mov	rax, QWORD PTR [rax+80]
	cmp	DWORD PTR [rax+32], 1
	je	SHORT $LN15@opattr_op
	mov	rax, QWORD PTR opnd2$[rsp]
	mov	rax, QWORD PTR [rax+80]
	cmp	DWORD PTR [rax+32], 2
	jne	SHORT $LN11@opattr_op
$LN15@opattr_op:
$LN12@opattr_op:

; 1413 :         ( opnd2->kind == EXPR_ADDR &&
; 1414 :          opnd2->indirect == FALSE &&
; 1415 :          (( opnd2->mem_type == MT_EMPTY && IsOffset(opnd2) ) ||
; 1416 :           //( opnd2->mem_type == MT_ABS ) ||  /* v2.06: added (abs. external) */
; 1417 :           ( opnd2->mem_type == MT_EMPTY ) ||  /* v2.06: added (abs. external) */
; 1418 :           (( opnd2->mem_type & MT_SPECIAL_MASK ) == MT_ADDRESS )) &&
; 1419 :          ( opnd2->sym->state == SYM_INTERNAL ||
; 1420 :           opnd2->sym->state == SYM_EXTERNAL ) ) )
; 1421 :         opnd1->value |= OPATTR_IMMEDIATE;

	mov	rax, QWORD PTR opnd1$[rsp]
	mov	eax, DWORD PTR [rax]
	or	eax, 4
	mov	rcx, QWORD PTR opnd1$[rsp]
	mov	DWORD PTR [rcx], eax
$LN11@opattr_op:
$LN10@opattr_op:

; 1422 : 
; 1423 :     /* bit 3: uses direct memory addressing?
; 1424 :      */
; 1425 :     if ( opnd2->kind == EXPR_ADDR &&
; 1426 :         opnd2->indirect == FALSE &&
; 1427 :         //opnd2->base_reg == NULL &&
; 1428 :         (( opnd2->mem_type == MT_EMPTY && opnd2->instr == EMPTY ) ||
; 1429 :          ( opnd2->mem_type == MT_TYPE ) || /* v2.05: added */
; 1430 :          (( opnd2->mem_type & MT_SPECIAL ) == 0 ) ||
; 1431 :          opnd2->mem_type == MT_PTR ) &&

	mov	rax, QWORD PTR opnd2$[rsp]
	cmp	DWORD PTR [rax+60], 1
	jne	$LN16@opattr_op
	mov	rax, QWORD PTR opnd2$[rsp]
	mov	eax, DWORD PTR [rax+72]
	and	eax, 1
	test	eax, eax
	jne	$LN16@opattr_op
	mov	rax, QWORD PTR opnd2$[rsp]
	cmp	DWORD PTR [rax+64], 192			; 000000c0H
	jne	SHORT $LN18@opattr_op
	mov	rax, QWORD PTR opnd2$[rsp]
	cmp	DWORD PTR [rax+56], -2
	je	SHORT $LN17@opattr_op
$LN18@opattr_op:
	mov	rax, QWORD PTR opnd2$[rsp]
	cmp	DWORD PTR [rax+64], 196			; 000000c4H
	je	SHORT $LN17@opattr_op
	mov	rax, QWORD PTR opnd2$[rsp]
	mov	eax, DWORD PTR [rax+64]
	and	eax, 128				; 00000080H
	test	eax, eax
	je	SHORT $LN17@opattr_op
	mov	rax, QWORD PTR opnd2$[rsp]
	cmp	DWORD PTR [rax+64], 195			; 000000c3H
	jne	SHORT $LN16@opattr_op
$LN17@opattr_op:
	mov	rax, QWORD PTR opnd2$[rsp]
	cmp	QWORD PTR [rax+80], 0
	je	SHORT $LN19@opattr_op
	mov	rax, QWORD PTR opnd2$[rsp]
	mov	rax, QWORD PTR [rax+80]
	cmp	DWORD PTR [rax+32], 1
	je	SHORT $LN19@opattr_op
	mov	rax, QWORD PTR opnd2$[rsp]
	mov	rax, QWORD PTR [rax+80]
	cmp	DWORD PTR [rax+32], 2
	jne	SHORT $LN16@opattr_op
$LN19@opattr_op:

; 1432 :         (opnd2->sym == NULL ||
; 1433 :          opnd2->sym->state == SYM_INTERNAL ||
; 1434 :          opnd2->sym->state == SYM_EXTERNAL ) )
; 1435 :         opnd1->value |= OPATTR_DIRECTMEM;

	mov	rax, QWORD PTR opnd1$[rsp]
	mov	eax, DWORD PTR [rax]
	or	eax, 8
	mov	rcx, QWORD PTR opnd1$[rsp]
	mov	DWORD PTR [rcx], eax
$LN16@opattr_op:

; 1436 : 
; 1437 :     if ( opnd2->kind == EXPR_REG && opnd2->indirect == FALSE )

	mov	rax, QWORD PTR opnd2$[rsp]
	cmp	DWORD PTR [rax+60], 2
	jne	SHORT $LN20@opattr_op
	mov	rax, QWORD PTR opnd2$[rsp]
	mov	eax, DWORD PTR [rax+72]
	and	eax, 1
	test	eax, eax
	jne	SHORT $LN20@opattr_op

; 1438 :         opnd1->value |= OPATTR_REGISTER;

	mov	rax, QWORD PTR opnd1$[rsp]
	mov	eax, DWORD PTR [rax]
	or	eax, 16
	mov	rcx, QWORD PTR opnd1$[rsp]
	mov	DWORD PTR [rcx], eax
$LN20@opattr_op:

; 1439 : 
; 1440 :     //if ( opnd2->kind != EXPR_ERROR && ( opnd2->sym == 0 || opnd2->sym->isdefined == TRUE ) )
; 1441 : 	/* John Hankinson modified here to allow -Zne switch to treat literal string macro argument with opattr type = 0 */
; 1442 : 	if (Options.strict_masm_compat && opnd2->kind == EXPR_CONST && opnd2->mem_type != MT_SQWORD && opnd2->quoted_string != NULL)

	movzx	eax, BYTE PTR Options+143
	test	eax, eax
	je	SHORT $LN21@opattr_op
	mov	rax, QWORD PTR opnd2$[rsp]
	cmp	DWORD PTR [rax+60], 0
	jne	SHORT $LN21@opattr_op
	mov	rax, QWORD PTR opnd2$[rsp]
	cmp	DWORD PTR [rax+64], 71			; 00000047H
	je	SHORT $LN21@opattr_op
	mov	rax, QWORD PTR opnd2$[rsp]
	cmp	QWORD PTR [rax+16], 0
	je	SHORT $LN21@opattr_op

; 1443 : 	{
; 1444 : 	}

	jmp	SHORT $LN22@opattr_op
$LN21@opattr_op:

; 1445 :     else if ( opnd2->kind != EXPR_ERROR && opnd2->kind != EXPR_FLOAT && ( opnd2->sym == NULL || opnd2->sym->isdefined == TRUE ) )

	mov	rax, QWORD PTR opnd2$[rsp]
	cmp	DWORD PTR [rax+60], -1
	je	SHORT $LN23@opattr_op
	mov	rax, QWORD PTR opnd2$[rsp]
	cmp	DWORD PTR [rax+60], 3
	je	SHORT $LN23@opattr_op
	mov	rax, QWORD PTR opnd2$[rsp]
	cmp	QWORD PTR [rax+80], 0
	je	SHORT $LN24@opattr_op
	mov	rax, QWORD PTR opnd2$[rsp]
	mov	rax, QWORD PTR [rax+80]
	movzx	eax, BYTE PTR [rax+40]
	shr	al, 1
	and	al, 1
	movzx	eax, al
	cmp	eax, 1
	jne	SHORT $LN23@opattr_op
$LN24@opattr_op:

; 1446 :         opnd1->value |= OPATTR_DEFINED; 

	mov	rax, QWORD PTR opnd1$[rsp]
	mov	eax, DWORD PTR [rax]
	or	eax, 32					; 00000020H
	mov	rcx, QWORD PTR opnd1$[rsp]
	mov	DWORD PTR [rcx], eax
$LN23@opattr_op:
$LN22@opattr_op:

; 1447 : 
; 1448 :     if ( ( opnd2->sym && opnd2->sym->state == SYM_STACK ) ||

	mov	rax, QWORD PTR opnd2$[rsp]
	cmp	QWORD PTR [rax+80], 0
	je	SHORT $LN27@opattr_op
	mov	rax, QWORD PTR opnd2$[rsp]
	mov	rax, QWORD PTR [rax+80]
	cmp	DWORD PTR [rax+32], 5
	je	SHORT $LN26@opattr_op
$LN27@opattr_op:
	mov	rax, QWORD PTR opnd2$[rsp]
	mov	eax, DWORD PTR [rax+72]
	and	eax, 1
	test	eax, eax
	je	SHORT $LN25@opattr_op
	mov	rax, QWORD PTR opnd2$[rsp]
	cmp	QWORD PTR [rax+24], 0
	je	SHORT $LN25@opattr_op
	mov	rax, QWORD PTR opnd2$[rsp]
	mov	rax, QWORD PTR [rax+24]
	mov	eax, DWORD PTR [rax+16]
	imul	rax, rax, 12
	lea	rcx, OFFSET FLAT:SpecialTable
	mov	eax, DWORD PTR [rcx+rax+4]
	and	eax, 64					; 00000040H
	test	eax, eax
	je	SHORT $LN25@opattr_op
$LN26@opattr_op:

; 1449 :         ( opnd2->indirect && opnd2->base_reg &&
; 1450 :          /* v2.11: use new flag SFR_SSBASED */
; 1451 :          //( opnd2->base_reg->tokval == T_ESP || opnd2->base_reg->tokval == T_EBP || opnd2->base_reg->tokval == T_BP ) ) )
; 1452 :          ( GetSflagsSp( opnd2->base_reg->tokval ) & SFR_SSBASED ) ) )
; 1453 :             opnd1->value |= OPATTR_SSREL;

	mov	rax, QWORD PTR opnd1$[rsp]
	mov	eax, DWORD PTR [rax]
	or	eax, 64					; 00000040H
	mov	rcx, QWORD PTR opnd1$[rsp]
	mov	DWORD PTR [rcx], eax
$LN25@opattr_op:

; 1454 :     
; 1455 :     if ( opnd2->sym && opnd2->sym->state == SYM_EXTERNAL )

	mov	rax, QWORD PTR opnd2$[rsp]
	cmp	QWORD PTR [rax+80], 0
	je	SHORT $LN28@opattr_op
	mov	rax, QWORD PTR opnd2$[rsp]
	mov	rax, QWORD PTR [rax+80]
	cmp	DWORD PTR [rax+32], 2
	jne	SHORT $LN28@opattr_op

; 1456 :         opnd1->value |= OPATTR_EXTRNREF;

	mov	rax, QWORD PTR opnd1$[rsp]
	mov	eax, DWORD PTR [rax]
	bts	eax, 7
	mov	rcx, QWORD PTR opnd1$[rsp]
	mov	DWORD PTR [rcx], eax
$LN28@opattr_op:

; 1457 : 
; 1458 :     if ( oper == T_OPATTR )

	cmp	DWORD PTR oper$[rsp], 242		; 000000f2H
	jne	SHORT $LN29@opattr_op

; 1459 :         /* v2.12: no language if symbol isn't defined properly */
; 1460 :         //if ( opnd2->sym )
; 1461 :         if ( opnd2->sym && opnd2->kind != EXPR_ERROR )

	mov	rax, QWORD PTR opnd2$[rsp]
	cmp	QWORD PTR [rax+80], 0
	je	SHORT $LN30@opattr_op
	mov	rax, QWORD PTR opnd2$[rsp]
	cmp	DWORD PTR [rax+60], -1
	je	SHORT $LN30@opattr_op

; 1462 :             opnd1->value |= opnd2->sym->langtype << 8;

	mov	rax, QWORD PTR opnd2$[rsp]
	mov	rax, QWORD PTR [rax+80]
	mov	eax, DWORD PTR [rax+76]
	shl	eax, 8
	mov	rcx, QWORD PTR opnd1$[rsp]
	mov	ecx, DWORD PTR [rcx]
	or	ecx, eax
	mov	eax, ecx
	mov	rcx, QWORD PTR opnd1$[rsp]
	mov	DWORD PTR [rcx], eax
$LN30@opattr_op:
$LN29@opattr_op:

; 1463 : 
; 1464 :     DebugMsg1(("opattr_op returns %Xh\n", opnd1->value));

	mov	rax, QWORD PTR opnd1$[rsp]
	mov	edx, DWORD PTR [rax]
	lea	rcx, OFFSET FLAT:$SG11576
	call	DoDebugMsg1

; 1465 :     return( NOT_ERROR );

	xor	eax, eax
$LN1@opattr_op:

; 1466 : }

	add	rsp, 56					; 00000038H
	ret	0
opattr_op ENDP
_TEXT	ENDS
; Function compile flags: /Odtp
; File d:\hjwasm\hjwasm2.13.1s\hjwasm2.13.1s\expreval.c
_TEXT	SEGMENT
tv132 = 64
tv307 = 68
tv322 = 72
tv413 = 76
tv540 = 80
tv78 = 88
tv82 = 96
tv336 = 104
oper$ = 128
opnd1$ = 136
opnd2$ = 144
sym$ = 152
name$ = 160
type_op	PROC

; 1186 : {

	mov	QWORD PTR [rsp+32], r9
	mov	QWORD PTR [rsp+24], r8
	mov	QWORD PTR [rsp+16], rdx
	mov	DWORD PTR [rsp+8], ecx
	sub	rsp, 120				; 00000078H

; 1187 :     DebugMsg1(("type_op: opnd2 kind=%d memtype=%X sym=%s type=%s instr=%d istype=%u explicit=%u\n",

	mov	rax, QWORD PTR opnd2$[rsp]
	cmp	QWORD PTR [rax+96], 0
	je	SHORT $LN42@type_op
	mov	rax, QWORD PTR opnd2$[rsp]
	mov	rax, QWORD PTR [rax+96]
	mov	rax, QWORD PTR [rax+8]
	mov	QWORD PTR tv78[rsp], rax
	jmp	SHORT $LN43@type_op
$LN42@type_op:
	lea	rax, OFFSET FLAT:$SG11475
	mov	QWORD PTR tv78[rsp], rax
$LN43@type_op:
	cmp	QWORD PTR sym$[rsp], 0
	je	SHORT $LN44@type_op
	mov	rax, QWORD PTR sym$[rsp]
	mov	rax, QWORD PTR [rax+8]
	mov	QWORD PTR tv82[rsp], rax
	jmp	SHORT $LN45@type_op
$LN44@type_op:
	lea	rax, OFFSET FLAT:$SG11476
	mov	QWORD PTR tv82[rsp], rax
$LN45@type_op:
	mov	rax, QWORD PTR opnd2$[rsp]
	mov	eax, DWORD PTR [rax+72]
	shr	eax, 1
	and	eax, 1
	mov	rcx, QWORD PTR opnd2$[rsp]
	mov	ecx, DWORD PTR [rcx+72]
	shr	ecx, 3
	and	ecx, 1
	mov	DWORD PTR [rsp+56], eax
	mov	DWORD PTR [rsp+48], ecx
	mov	rax, QWORD PTR opnd2$[rsp]
	mov	eax, DWORD PTR [rax+56]
	mov	DWORD PTR [rsp+40], eax
	mov	rax, QWORD PTR tv78[rsp]
	mov	QWORD PTR [rsp+32], rax
	mov	r9, QWORD PTR tv82[rsp]
	mov	rax, QWORD PTR opnd2$[rsp]
	mov	r8d, DWORD PTR [rax+64]
	mov	rax, QWORD PTR opnd2$[rsp]
	mov	edx, DWORD PTR [rax+60]
	lea	rcx, OFFSET FLAT:$SG11477
	call	DoDebugMsg1

; 1188 :                opnd2->kind,
; 1189 :                opnd2->mem_type,
; 1190 :                sym ? sym->name : "NULL",
; 1191 :                opnd2->type ? opnd2->type->name : "NULL",
; 1192 :                opnd2->instr,
; 1193 :                opnd2->is_type,
; 1194 :                opnd2->explicit ));
; 1195 :     opnd1->kind = EXPR_CONST;

	mov	rax, QWORD PTR opnd1$[rsp]
	mov	DWORD PTR [rax+60], 0

; 1196 :     /* TYPE accepts arrays/structs/unions */
; 1197 :     /* v2.11: if memtype isn't empty, ignore any unary operator
; 1198 :      * test cases:
; 1199 :      * - type qword ptr sym.
; 1200 :      * - type qword ptr offset sym
; 1201 :      * operators LOW, HIGH, LOWWORD, HIGHWORD, LOW32, HIGH32,
; 1202 :      * OFFSET, IMAGEREL, SECTIONREL and LROFFSET
; 1203 :      * will set opnd.memtype to MT_EMPTY.
; 1204 :      */
; 1205 :     if( opnd2->instr != EMPTY && opnd2->mem_type != MT_EMPTY ) {

	mov	rax, QWORD PTR opnd2$[rsp]
	cmp	DWORD PTR [rax+56], -2
	je	SHORT $LN4@type_op
	mov	rax, QWORD PTR opnd2$[rsp]
	cmp	DWORD PTR [rax+64], 192			; 000000c0H
	je	SHORT $LN4@type_op

; 1206 :         opnd2->instr = EMPTY;

	mov	rax, QWORD PTR opnd2$[rsp]
	mov	DWORD PTR [rax+56], -2

; 1207 :         sym = NULL;

	mov	QWORD PTR sym$[rsp], 0
$LN4@type_op:

; 1208 :     }
; 1209 :     if( opnd2->instr != EMPTY ) {

	mov	rax, QWORD PTR opnd2$[rsp]
	cmp	DWORD PTR [rax+56], -2
	je	$LN5@type_op

; 1210 :         if ( opnd2->sym ) {

	mov	rax, QWORD PTR opnd2$[rsp]
	cmp	QWORD PTR [rax+80], 0
	je	$LN7@type_op

; 1211 :             switch ( opnd2->instr ) {

	mov	rax, QWORD PTR opnd2$[rsp]
	mov	eax, DWORD PTR [rax+56]
	mov	DWORD PTR tv132[rsp], eax
	mov	eax, DWORD PTR tv132[rsp]
	sub	eax, 230				; 000000e6H
	mov	DWORD PTR tv132[rsp], eax
	cmp	DWORD PTR tv132[rsp], 13
	ja	$LN2@type_op
	movsxd	rax, DWORD PTR tv132[rsp]
	lea	rcx, OFFSET FLAT:__ImageBase
	mov	eax, DWORD PTR $LN52@type_op[rcx+rax*4]
	add	rax, rcx
	jmp	rax
$LN8@type_op:

; 1212 :             case T_LOW:
; 1213 :             case T_HIGH:
; 1214 :                 opnd1->value = 1;

	mov	rax, QWORD PTR opnd1$[rsp]
	mov	DWORD PTR [rax], 1

; 1215 :                 break;

	jmp	SHORT $LN2@type_op
$LN9@type_op:

; 1216 :             case T_LOWWORD:
; 1217 :             case T_HIGHWORD:
; 1218 :                 //case T_SEG: /* masm returns 0 for TYPE SEG <label>! */
; 1219 :                 opnd1->value = 2;

	mov	rax, QWORD PTR opnd1$[rsp]
	mov	DWORD PTR [rax], 2

; 1220 :                 break;

	jmp	SHORT $LN2@type_op
$LN10@type_op:

; 1221 : #if LOHI32
; 1222 :             case T_LOW32:
; 1223 :             case T_HIGH32:
; 1224 :                 opnd1->value = 4;

	mov	rax, QWORD PTR opnd1$[rsp]
	mov	DWORD PTR [rax], 4

; 1225 :                 break;

	jmp	SHORT $LN2@type_op
$LN11@type_op:

; 1226 : #endif
; 1227 :             case T_OFFSET:
; 1228 :             case T_LROFFSET:
; 1229 : #if SECTIONRELSUPP
; 1230 :             case T_SECTIONREL: /* masm returns 0 for TYPE SECTIONREL <label>! */
; 1231 : #endif
; 1232 : #if IMAGERELSUPP
; 1233 :             case T_IMAGEREL: /* masm returns 0 for TYPE IMAGEREL <label>! */
; 1234 : #endif
; 1235 :                 opnd1->value = 2 << GetSymOfssize( opnd2->sym );

	mov	rax, QWORD PTR opnd2$[rsp]
	mov	rcx, QWORD PTR [rax+80]
	call	GetSymOfssize
	mov	ecx, 2
	mov	DWORD PTR tv413[rsp], ecx
	movzx	ecx, al
	mov	eax, DWORD PTR tv413[rsp]
	shl	eax, cl
	mov	rcx, QWORD PTR opnd1$[rsp]
	mov	DWORD PTR [rcx], eax

; 1236 :                 opnd1->is_type = TRUE; /* v2.03: added */

	mov	rax, QWORD PTR opnd1$[rsp]
	mov	eax, DWORD PTR [rax+72]
	or	eax, 8
	mov	rcx, QWORD PTR opnd1$[rsp]
	mov	DWORD PTR [rcx+72], eax
$LN2@type_op:
$LN7@type_op:

; 1237 :                 break;
; 1238 :             }
; 1239 :         }

	jmp	$LN6@type_op
$LN5@type_op:

; 1240 :     } else if ( sym == NULL ) {

	cmp	QWORD PTR sym$[rsp], 0
	jne	$LN12@type_op

; 1241 :         //printf( "sym=NULL kind=%d mem_type=%X indirect=%u is_type=%u type=%s\n", opnd2->kind, opnd2->mem_type, opnd2->indirect, opnd2->is_type, opnd2->type ? opnd2->type->name : "NULL" );
; 1242 :         /* for types, return total_size */
; 1243 :         if ( opnd2->is_type == TRUE ) {

	mov	rax, QWORD PTR opnd2$[rsp]
	mov	eax, DWORD PTR [rax+72]
	shr	eax, 3
	and	eax, 1
	cmp	eax, 1
	jne	SHORT $LN14@type_op

; 1244 :             /* v2.06: default value of RECORD types is the mask! */
; 1245 :             if ( opnd2->type && opnd2->type->typekind == TYPE_RECORD )

	mov	rax, QWORD PTR opnd2$[rsp]
	cmp	QWORD PTR [rax+96], 0
	je	SHORT $LN16@type_op
	mov	rax, QWORD PTR opnd2$[rsp]
	mov	rax, QWORD PTR [rax+96]
	movzx	eax, BYTE PTR [rax+66]
	cmp	eax, 4
	jne	SHORT $LN16@type_op

; 1246 :                 opnd2->value = opnd2->type->total_size;

	mov	rax, QWORD PTR opnd2$[rsp]
	mov	rax, QWORD PTR [rax+96]
	mov	rcx, QWORD PTR opnd2$[rsp]
	mov	eax, DWORD PTR [rax+56]
	mov	DWORD PTR [rcx], eax
$LN16@type_op:

; 1247 :             //opnd1->value = opnd2->value;
; 1248 :             TokenAssign( opnd1, opnd2 );

	mov	rdx, QWORD PTR opnd2$[rsp]
	mov	rcx, QWORD PTR opnd1$[rsp]
	call	TokenAssign

; 1249 :             /* v2.05: added, (type procptr) ptr <reg>
; 1250 :              * the type probably should be set generally,
; 1251 :              * but this variant is the one used by INVOKE, other
; 1252 :              * usages are virtually irrelevant.
; 1253 :              * v2.10: opnd1->type now always set. Example:
; 1254 :              *   ( type x ) eq ( type y )
; 1255 :              * also see new function cmp_types()
; 1256 :              */
; 1257 :             //if ( opnd2->mem_type == MT_PROC )
; 1258 :             opnd1->type = opnd2->type;

	mov	rax, QWORD PTR opnd1$[rsp]
	mov	rcx, QWORD PTR opnd2$[rsp]
	mov	rcx, QWORD PTR [rcx+96]
	mov	QWORD PTR [rax+96], rcx
	jmp	$LN15@type_op
$LN14@type_op:

; 1259 : 
; 1260 :         } else if ( opnd2->kind == EXPR_REG && opnd2->indirect == FALSE ) {

	mov	rax, QWORD PTR opnd2$[rsp]
	cmp	DWORD PTR [rax+60], 2
	jne	$LN17@type_op
	mov	rax, QWORD PTR opnd2$[rsp]
	mov	eax, DWORD PTR [rax+72]
	and	eax, 1
	test	eax, eax
	jne	$LN17@type_op

; 1261 :             opnd1->value = SizeFromRegister( opnd2->base_reg->tokval );

	mov	rax, QWORD PTR opnd2$[rsp]
	mov	rax, QWORD PTR [rax+24]
	mov	ecx, DWORD PTR [rax+16]
	call	SizeFromRegister
	mov	rcx, QWORD PTR opnd1$[rsp]
	mov	DWORD PTR [rcx], eax

; 1262 :             opnd1->is_type = TRUE; /* v2.03: added */

	mov	rax, QWORD PTR opnd1$[rsp]
	mov	eax, DWORD PTR [rax+72]
	or	eax, 8
	mov	rcx, QWORD PTR opnd1$[rsp]
	mov	DWORD PTR [rcx+72], eax

; 1263 :             /* v2.10: check for assumes if it's a full size GPR */
; 1264 :             if ( opnd1->value == CurrWordSize &&
; 1265 :                 opnd1->mem_type == MT_EMPTY &&
; 1266 :                 ( GetValueSp( opnd2->base_reg->tokval ) & OP_RGT8 ) &&

	movzx	eax, BYTE PTR ModuleInfo+406
	mov	rcx, QWORD PTR opnd1$[rsp]
	cmp	DWORD PTR [rcx], eax
	jne	$LN19@type_op
	mov	rax, QWORD PTR opnd1$[rsp]
	cmp	DWORD PTR [rax+64], 192			; 000000c0H
	jne	$LN19@type_op
	mov	rax, QWORD PTR opnd2$[rsp]
	mov	rax, QWORD PTR [rax+24]
	mov	eax, DWORD PTR [rax+16]
	imul	rax, rax, 12
	lea	rcx, OFFSET FLAT:SpecialTable
	mov	eax, DWORD PTR [rcx+rax]
	and	eax, 14
	test	eax, eax
	je	$LN19@type_op
	mov	rax, QWORD PTR opnd2$[rsp]
	mov	rax, QWORD PTR [rax+24]
	movzx	eax, BYTE PTR [rax+1]
	mov	ecx, eax
	call	GetStdAssumeEx
	mov	QWORD PTR sym$[rsp], rax
	cmp	QWORD PTR sym$[rsp], 0
	je	SHORT $LN19@type_op

; 1267 :                 ( sym = GetStdAssumeEx( opnd2->base_reg->bytval ) ) ) {
; 1268 :                 DebugMsg1(("type_op: assume type=%X [name=>%s< memtype=%X]\n", sym, sym->name, sym->mem_type ));

	mov	rax, QWORD PTR sym$[rsp]
	mov	r9d, DWORD PTR [rax+36]
	mov	rax, QWORD PTR sym$[rsp]
	mov	r8, QWORD PTR [rax+8]
	mov	rdx, QWORD PTR sym$[rsp]
	lea	rcx, OFFSET FLAT:$SG11495
	call	DoDebugMsg1

; 1269 :                 opnd1->type = sym;

	mov	rax, QWORD PTR opnd1$[rsp]
	mov	rcx, QWORD PTR sym$[rsp]
	mov	QWORD PTR [rax+96], rcx

; 1270 :                 opnd1->mem_type = sym->mem_type;

	mov	rax, QWORD PTR opnd1$[rsp]
	mov	rcx, QWORD PTR sym$[rsp]
	mov	ecx, DWORD PTR [rcx+36]
	mov	DWORD PTR [rax+64], ecx

; 1271 :                 opnd1->value = sym->total_size;

	mov	rax, QWORD PTR opnd1$[rsp]
	mov	rcx, QWORD PTR sym$[rsp]
	mov	ecx, DWORD PTR [rcx+56]
	mov	DWORD PTR [rax], ecx

; 1272 :             } else {

	jmp	SHORT $LN20@type_op
$LN19@type_op:

; 1273 :                 opnd1->mem_type = opnd2->mem_type; /* v2.10: added */

	mov	rax, QWORD PTR opnd1$[rsp]
	mov	rcx, QWORD PTR opnd2$[rsp]
	mov	ecx, DWORD PTR [rcx+64]
	mov	DWORD PTR [rax+64], ecx

; 1274 :                 opnd1->type = opnd2->type; /* v2.10: added */

	mov	rax, QWORD PTR opnd1$[rsp]
	mov	rcx, QWORD PTR opnd2$[rsp]
	mov	rcx, QWORD PTR [rcx+96]
	mov	QWORD PTR [rax+96], rcx

; 1275 :                 if ( opnd1->mem_type == MT_EMPTY )

	mov	rax, QWORD PTR opnd1$[rsp]
	cmp	DWORD PTR [rax+64], 192			; 000000c0H
	jne	SHORT $LN21@type_op

; 1276 :                     MemtypeFromSize( opnd1->value, &opnd1->mem_type ); /* v2.03: added */

	mov	rax, QWORD PTR opnd1$[rsp]
	add	rax, 64					; 00000040H
	mov	rdx, rax
	mov	rax, QWORD PTR opnd1$[rsp]
	mov	ecx, DWORD PTR [rax]
	call	MemtypeFromSize
$LN21@type_op:
$LN20@type_op:

; 1277 :             }

	jmp	$LN18@type_op
$LN17@type_op:

; 1278 : 
; 1279 : #if 0 /* Masm returns 0 for TYPE <segment_register> */
; 1280 :             /* if it is a segment register, use default word size */
; 1281 :             if ( opnd1->value == 0 )
; 1282 :                 opnd1->value = Use32 ? 4 : 2;
; 1283 : #endif
; 1284 :         //} else if ( opnd2->explicit ) { /* v2.05: changed */
; 1285 :         //} else if ( opnd2->mem_type != MT_EMPTY ) { /* v2.10: changed */
; 1286 :         } else if ( opnd2->mem_type != MT_EMPTY || opnd2->explicit ) {

	mov	rax, QWORD PTR opnd2$[rsp]
	cmp	DWORD PTR [rax+64], 192			; 000000c0H
	jne	SHORT $LN24@type_op
	mov	rax, QWORD PTR opnd2$[rsp]
	mov	eax, DWORD PTR [rax+72]
	shr	eax, 1
	and	eax, 1
	test	eax, eax
	je	$LN22@type_op
$LN24@type_op:

; 1287 :             if ( opnd2->mem_type != MT_EMPTY ) {

	mov	rax, QWORD PTR opnd2$[rsp]
	cmp	DWORD PTR [rax+64], 192			; 000000c0H
	je	SHORT $LN25@type_op

; 1288 :                 opnd1->value = SizeFromMemtype( opnd2->mem_type, opnd2->Ofssize, opnd2->type );

	mov	rax, QWORD PTR opnd2$[rsp]
	movzx	eax, BYTE PTR [rax+69]
	mov	rcx, QWORD PTR opnd2$[rsp]
	mov	r8, QWORD PTR [rcx+96]
	mov	edx, eax
	mov	rax, QWORD PTR opnd2$[rsp]
	mov	ecx, DWORD PTR [rax+64]
	call	SizeFromMemtype
	mov	rcx, QWORD PTR opnd1$[rsp]
	mov	DWORD PTR [rcx], eax

; 1289 :                 opnd1->mem_type = opnd2->mem_type; /* v2.04: added */

	mov	rax, QWORD PTR opnd1$[rsp]
	mov	rcx, QWORD PTR opnd2$[rsp]
	mov	ecx, DWORD PTR [rcx+64]
	mov	DWORD PTR [rax+64], ecx

; 1290 :             } else {

	jmp	SHORT $LN26@type_op
$LN25@type_op:

; 1291 :                 if ( opnd2->type ) {

	mov	rax, QWORD PTR opnd2$[rsp]
	cmp	QWORD PTR [rax+96], 0
	je	SHORT $LN27@type_op

; 1292 :                     opnd1->value = opnd2->type->total_size;

	mov	rax, QWORD PTR opnd2$[rsp]
	mov	rax, QWORD PTR [rax+96]
	mov	rcx, QWORD PTR opnd1$[rsp]
	mov	eax, DWORD PTR [rax+56]
	mov	DWORD PTR [rcx], eax

; 1293 :                     opnd1->mem_type = opnd2->type->mem_type;

	mov	rax, QWORD PTR opnd2$[rsp]
	mov	rax, QWORD PTR [rax+96]
	mov	rcx, QWORD PTR opnd1$[rsp]
	mov	eax, DWORD PTR [rax+36]
	mov	DWORD PTR [rcx+64], eax
$LN27@type_op:
$LN26@type_op:

; 1294 :                 }
; 1295 :             }
; 1296 :             opnd1->is_type = TRUE; /* v2.04: added */

	mov	rax, QWORD PTR opnd1$[rsp]
	mov	eax, DWORD PTR [rax+72]
	or	eax, 8
	mov	rcx, QWORD PTR opnd1$[rsp]
	mov	DWORD PTR [rcx+72], eax

; 1297 :             opnd1->type = opnd2->type; /* v2.09: added */

	mov	rax, QWORD PTR opnd1$[rsp]
	mov	rcx, QWORD PTR opnd2$[rsp]
	mov	rcx, QWORD PTR [rcx+96]
	mov	QWORD PTR [rax+96], rcx

; 1298 :         } else /* it is a number or EXPR_REG + indirect */

	jmp	SHORT $LN23@type_op
$LN22@type_op:

; 1299 :             opnd1->value = 0;

	mov	rax, QWORD PTR opnd1$[rsp]
	mov	DWORD PTR [rax], 0
$LN23@type_op:
$LN18@type_op:
$LN15@type_op:

; 1300 : #if 0
; 1301 :     } else if ( sym->state == SYM_TYPE ) {
; 1302 :         TokenAssign( opnd1, opnd2 );
; 1303 :         opnd1->type = sym;
; 1304 : #endif
; 1305 :     } else if ( sym->state == SYM_UNDEFINED ) { /* v2.10: added */

	jmp	$LN13@type_op
$LN12@type_op:
	mov	rax, QWORD PTR sym$[rsp]
	cmp	DWORD PTR [rax+32], 0
	jne	SHORT $LN28@type_op

; 1306 :         opnd1->kind = EXPR_ADDR;

	mov	rax, QWORD PTR opnd1$[rsp]
	mov	DWORD PTR [rax+60], 1

; 1307 :         opnd1->sym = sym;

	mov	rax, QWORD PTR opnd1$[rsp]
	mov	rcx, QWORD PTR sym$[rsp]
	mov	QWORD PTR [rax+80], rcx

; 1308 :         /* is_type must be set, to avoid the forward referenced symbol be changed
; 1309 :          * to a type if the type expression is the left operand of PTR
; 1310 :          */
; 1311 :         opnd1->is_type = TRUE;

	mov	rax, QWORD PTR opnd1$[rsp]
	mov	eax, DWORD PTR [rax+72]
	or	eax, 8
	mov	rcx, QWORD PTR opnd1$[rsp]
	mov	DWORD PTR [rcx+72], eax
	jmp	$LN29@type_op
$LN28@type_op:

; 1312 :         //} else if( sym->mem_type == MT_TYPE ) { /* v2.04: check for explicit */
; 1313 :     } else if( sym->mem_type == MT_TYPE && opnd2->explicit == FALSE ) {

	mov	rax, QWORD PTR sym$[rsp]
	cmp	DWORD PTR [rax+36], 196			; 000000c4H
	jne	SHORT $LN30@type_op
	mov	rax, QWORD PTR opnd2$[rsp]
	mov	eax, DWORD PTR [rax+72]
	shr	eax, 1
	and	eax, 1
	test	eax, eax
	jne	SHORT $LN30@type_op

; 1314 :         opnd1->value = sym->type->total_size;

	mov	rax, QWORD PTR sym$[rsp]
	mov	rax, QWORD PTR [rax+80]
	mov	rcx, QWORD PTR opnd1$[rsp]
	mov	eax, DWORD PTR [rax+56]
	mov	DWORD PTR [rcx], eax

; 1315 :         opnd1->is_type = TRUE; /* v2.03: added */

	mov	rax, QWORD PTR opnd1$[rsp]
	mov	eax, DWORD PTR [rax+72]
	or	eax, 8
	mov	rcx, QWORD PTR opnd1$[rsp]
	mov	DWORD PTR [rcx+72], eax

; 1316 :         //if ( opnd1->mem_type == MT_EMPTY ) /* v2.09 */
; 1317 :         opnd1->mem_type = sym->type->mem_type; /* v2.09 */

	mov	rax, QWORD PTR sym$[rsp]
	mov	rax, QWORD PTR [rax+80]
	mov	rcx, QWORD PTR opnd1$[rsp]
	mov	eax, DWORD PTR [rax+36]
	mov	DWORD PTR [rcx+64], eax

; 1318 :         opnd1->type = sym->type; /* v2.09 */

	mov	rax, QWORD PTR opnd1$[rsp]
	mov	rcx, QWORD PTR sym$[rsp]
	mov	rcx, QWORD PTR [rcx+80]
	mov	QWORD PTR [rax+96], rcx

; 1319 :         //printf( "sym=%s MT_TYPE type=%s type->memt=%X\n", sym->name, sym->type->name, sym->type->mem_type );
; 1320 :     } else {

	jmp	$LN31@type_op
$LN30@type_op:

; 1321 : #if 1 /* v2.03: added */
; 1322 :         opnd1->is_type = TRUE;

	mov	rax, QWORD PTR opnd1$[rsp]
	mov	eax, DWORD PTR [rax+72]
	or	eax, 8
	mov	rcx, QWORD PTR opnd1$[rsp]
	mov	DWORD PTR [rcx+72], eax

; 1323 :         if ( opnd1->mem_type == MT_EMPTY )

	mov	rax, QWORD PTR opnd1$[rsp]
	cmp	DWORD PTR [rax+64], 192			; 000000c0H
	jne	SHORT $LN32@type_op

; 1324 :             opnd1->mem_type = opnd2->mem_type;

	mov	rax, QWORD PTR opnd1$[rsp]
	mov	rcx, QWORD PTR opnd2$[rsp]
	mov	ecx, DWORD PTR [rcx+64]
	mov	DWORD PTR [rax+64], ecx
$LN32@type_op:

; 1325 : #endif
; 1326 :         //if ( opnd2->type ) { /* v2.10a: see types14.asm */
; 1327 :         if ( opnd2->type && opnd2->mbr == NULL ) {

	mov	rax, QWORD PTR opnd2$[rsp]
	cmp	QWORD PTR [rax+96], 0
	je	SHORT $LN33@type_op
	mov	rax, QWORD PTR opnd2$[rsp]
	cmp	QWORD PTR [rax+88], 0
	jne	SHORT $LN33@type_op

; 1328 :             opnd1->type_tok = opnd2->type_tok;

	mov	rax, QWORD PTR opnd1$[rsp]
	mov	rcx, QWORD PTR opnd2$[rsp]
	mov	rcx, QWORD PTR [rcx+40]
	mov	QWORD PTR [rax+40], rcx

; 1329 :             opnd1->type = opnd2->type;

	mov	rax, QWORD PTR opnd1$[rsp]
	mov	rcx, QWORD PTR opnd2$[rsp]
	mov	rcx, QWORD PTR [rcx+96]
	mov	QWORD PTR [rax+96], rcx

; 1330 :             opnd1->value = opnd1->type->total_size;

	mov	rax, QWORD PTR opnd1$[rsp]
	mov	rax, QWORD PTR [rax+96]
	mov	rcx, QWORD PTR opnd1$[rsp]
	mov	eax, DWORD PTR [rax+56]
	mov	DWORD PTR [rcx], eax
	jmp	$LN34@type_op
$LN33@type_op:

; 1331 :         } else if ( sym->mem_type == MT_PTR ) {

	mov	rax, QWORD PTR sym$[rsp]
	cmp	DWORD PTR [rax+36], 195			; 000000c3H
	jne	SHORT $LN35@type_op

; 1332 :             //printf( "sym=%s MT_PTR target_memt=%X target=%s\n", sym->name, sym->ptr_memtype, sym->target_type ? sym->target_type->name : "NULL" );
; 1333 :             opnd1->type_tok = opnd2->type_tok; /* v2.10: added */

	mov	rax, QWORD PTR opnd1$[rsp]
	mov	rcx, QWORD PTR opnd2$[rsp]
	mov	rcx, QWORD PTR [rcx+40]
	mov	QWORD PTR [rax+40], rcx

; 1334 :             opnd1->value = SizeFromMemtype( sym->isfar ? MT_FAR : MT_NEAR, sym->Ofssize, NULL );

	mov	rax, QWORD PTR sym$[rsp]
	movzx	eax, BYTE PTR [rax+47]
	shr	al, 4
	and	al, 1
	movzx	eax, al
	test	eax, eax
	je	SHORT $LN46@type_op
	mov	DWORD PTR tv307[rsp], 130		; 00000082H
	jmp	SHORT $LN47@type_op
$LN46@type_op:
	mov	DWORD PTR tv307[rsp], 129		; 00000081H
$LN47@type_op:
	mov	rax, QWORD PTR sym$[rsp]
	movzx	eax, BYTE PTR [rax+44]
	xor	r8d, r8d
	mov	edx, eax
	mov	ecx, DWORD PTR tv307[rsp]
	call	SizeFromMemtype
	mov	rcx, QWORD PTR opnd1$[rsp]
	mov	DWORD PTR [rcx], eax
	jmp	$LN36@type_op
$LN35@type_op:

; 1335 :         } else if( sym->mem_type == MT_NEAR ) {

	mov	rax, QWORD PTR sym$[rsp]
	cmp	DWORD PTR [rax+36], 129			; 00000081H
	jne	SHORT $LN37@type_op

; 1336 :             /* v2.09: also handle 64-bit */
; 1337 :             //opnd1->value = GetSymOfssize( sym ) ? LS_NEAR32 : LS_NEAR16;
; 1338 :             opnd1->value = 0xFF00 | ( 2 << GetSymOfssize( sym ) );

	mov	rcx, QWORD PTR sym$[rsp]
	call	GetSymOfssize
	mov	ecx, 2
	mov	DWORD PTR tv540[rsp], ecx
	movzx	ecx, al
	mov	eax, DWORD PTR tv540[rsp]
	shl	eax, cl
	or	eax, 65280				; 0000ff00H
	mov	rcx, QWORD PTR opnd1$[rsp]
	mov	DWORD PTR [rcx], eax
	jmp	SHORT $LN38@type_op
$LN37@type_op:

; 1339 :         } else if( sym->mem_type == MT_FAR ) {

	mov	rax, QWORD PTR sym$[rsp]
	cmp	DWORD PTR [rax+36], 130			; 00000082H
	jne	SHORT $LN39@type_op

; 1340 :             opnd1->value = GetSymOfssize( sym ) ? LS_FAR32 : LS_FAR16;

	mov	rcx, QWORD PTR sym$[rsp]
	call	GetSymOfssize
	test	eax, eax
	je	SHORT $LN48@type_op
	mov	DWORD PTR tv322[rsp], 65286		; 0000ff06H
	jmp	SHORT $LN49@type_op
$LN48@type_op:
	mov	DWORD PTR tv322[rsp], 65285		; 0000ff05H
$LN49@type_op:
	mov	rax, QWORD PTR opnd1$[rsp]
	mov	ecx, DWORD PTR tv322[rsp]
	mov	DWORD PTR [rax], ecx

; 1341 :         } else

	jmp	SHORT $LN40@type_op
$LN39@type_op:

; 1342 :             opnd1->value = SizeFromMemtype( opnd2->mem_type, GetSymOfssize( sym ), sym->type );

	mov	rcx, QWORD PTR sym$[rsp]
	call	GetSymOfssize
	mov	rcx, QWORD PTR sym$[rsp]
	mov	r8, QWORD PTR [rcx+80]
	mov	edx, eax
	mov	rax, QWORD PTR opnd2$[rsp]
	mov	ecx, DWORD PTR [rax+64]
	call	SizeFromMemtype
	mov	rcx, QWORD PTR opnd1$[rsp]
	mov	DWORD PTR [rcx], eax
$LN40@type_op:
$LN38@type_op:
$LN36@type_op:
$LN34@type_op:
$LN31@type_op:
$LN29@type_op:
$LN13@type_op:
$LN6@type_op:

; 1343 :     }
; 1344 :     DebugMsg1(("type_op: result value=%u is_type=%u type=%s\n", opnd1->value, opnd1->is_type, opnd1->type ? opnd1->type->name : "NULL" ));

	mov	rax, QWORD PTR opnd1$[rsp]
	cmp	QWORD PTR [rax+96], 0
	je	SHORT $LN50@type_op
	mov	rax, QWORD PTR opnd1$[rsp]
	mov	rax, QWORD PTR [rax+96]
	mov	rax, QWORD PTR [rax+8]
	mov	QWORD PTR tv336[rsp], rax
	jmp	SHORT $LN51@type_op
$LN50@type_op:
	lea	rax, OFFSET FLAT:$SG11516
	mov	QWORD PTR tv336[rsp], rax
$LN51@type_op:
	mov	rax, QWORD PTR opnd1$[rsp]
	mov	eax, DWORD PTR [rax+72]
	shr	eax, 3
	and	eax, 1
	mov	r9, QWORD PTR tv336[rsp]
	mov	r8d, eax
	mov	rax, QWORD PTR opnd1$[rsp]
	mov	edx, DWORD PTR [rax]
	lea	rcx, OFFSET FLAT:$SG11517
	call	DoDebugMsg1

; 1345 :     return( NOT_ERROR );

	xor	eax, eax

; 1346 : }

	add	rsp, 120				; 00000078H
	ret	0
	npad	2
$LN52@type_op:
	DD	$LN8@type_op
	DD	$LN10@type_op
	DD	$LN9@type_op
	DD	$LN11@type_op
	DD	$LN2@type_op
	DD	$LN2@type_op
	DD	$LN8@type_op
	DD	$LN10@type_op
	DD	$LN9@type_op
	DD	$LN11@type_op
	DD	$LN2@type_op
	DD	$LN11@type_op
	DD	$LN2@type_op
	DD	$LN11@type_op
type_op	ENDP
_TEXT	ENDS
; Function compile flags: /Odtp
; File d:\hjwasm\hjwasm2.13.1s\hjwasm2.13.1s\expreval.c
_TEXT	SEGMENT
tv141 = 48
tv149 = 52
tv199 = 56
tv205 = 60
tv349 = 64
tv69 = 72
tv209 = 80
oper$ = 112
opnd1$ = 120
opnd2$ = 128
sym$ = 136
name$ = 144
sizlen_op PROC

; 1071 : {

	mov	QWORD PTR [rsp+32], r9
	mov	QWORD PTR [rsp+24], r8
	mov	QWORD PTR [rsp+16], rdx
	mov	DWORD PTR [rsp+8], ecx
	sub	rsp, 104				; 00000068H

; 1072 :     opnd1->kind = EXPR_CONST;

	mov	rax, QWORD PTR opnd1$[rsp]
	mov	DWORD PTR [rax+60], 0

; 1073 : 
; 1074 :     DebugMsg1(("sizlen_op(%s): sym=%X, mbr=%X, type=>%s<\n", GetResWName( oper, NULL ),

	mov	rax, QWORD PTR opnd2$[rsp]
	cmp	QWORD PTR [rax+96], 0
	je	SHORT $LN50@sizlen_op
	mov	rax, QWORD PTR opnd2$[rsp]
	mov	rax, QWORD PTR [rax+96]
	mov	rax, QWORD PTR [rax+8]
	mov	QWORD PTR tv69[rsp], rax
	jmp	SHORT $LN51@sizlen_op
$LN50@sizlen_op:
	lea	rax, OFFSET FLAT:$SG11405
	mov	QWORD PTR tv69[rsp], rax
$LN51@sizlen_op:
	xor	edx, edx
	mov	ecx, DWORD PTR oper$[rsp]
	call	GetResWName
	mov	rcx, QWORD PTR tv69[rsp]
	mov	QWORD PTR [rsp+32], rcx
	mov	rcx, QWORD PTR opnd2$[rsp]
	mov	r9, QWORD PTR [rcx+88]
	mov	rcx, QWORD PTR opnd2$[rsp]
	mov	r8, QWORD PTR [rcx+80]
	mov	rdx, rax
	lea	rcx, OFFSET FLAT:$SG11406
	call	DoDebugMsg1

; 1075 :                opnd2->sym, opnd2->mbr, opnd2->type ? opnd2->type->name : "NULL" ));
; 1076 : 
; 1077 :     if ( sym ) {

	cmp	QWORD PTR sym$[rsp], 0
	je	$LN4@sizlen_op

; 1078 :         if ( sym->state == SYM_STRUCT_FIELD || sym->state == SYM_STACK )

	mov	rax, QWORD PTR sym$[rsp]
	cmp	DWORD PTR [rax+32], 6
	je	SHORT $LN7@sizlen_op
	mov	rax, QWORD PTR sym$[rsp]
	cmp	DWORD PTR [rax+32], 5
	jne	SHORT $LN5@sizlen_op
$LN7@sizlen_op:

; 1079 :             ;

	jmp	$LN6@sizlen_op
$LN5@sizlen_op:

; 1080 :         else if ( sym->state == SYM_UNDEFINED ) {

	mov	rax, QWORD PTR sym$[rsp]
	cmp	DWORD PTR [rax+32], 0
	jne	SHORT $LN8@sizlen_op

; 1081 :             /* v2.10: forward references should have attributes EXPR_ADDR + sym.state=SYM_UNDEFINED */
; 1082 :             opnd1->kind = EXPR_ADDR;

	mov	rax, QWORD PTR opnd1$[rsp]
	mov	DWORD PTR [rax+60], 1

; 1083 :             opnd1->sym = sym;

	mov	rax, QWORD PTR opnd1$[rsp]
	mov	rcx, QWORD PTR sym$[rsp]
	mov	QWORD PTR [rax+80], rcx

; 1084 :         } else if ( ( sym->state == SYM_EXTERNAL ||

	jmp	$LN9@sizlen_op
$LN8@sizlen_op:

; 1085 :                  sym->state == SYM_INTERNAL) &&
; 1086 :                  //sym->mem_type != MT_ABS &&
; 1087 :                  sym->mem_type != MT_EMPTY &&
; 1088 :                  //sym->mem_type != MT_PROC && /* MT_PROC probably obsolete */
; 1089 :                  sym->mem_type != MT_FAR &&

	mov	rax, QWORD PTR sym$[rsp]
	cmp	DWORD PTR [rax+32], 2
	je	SHORT $LN12@sizlen_op
	mov	rax, QWORD PTR sym$[rsp]
	cmp	DWORD PTR [rax+32], 1
	jne	SHORT $LN10@sizlen_op
$LN12@sizlen_op:
	mov	rax, QWORD PTR sym$[rsp]
	cmp	DWORD PTR [rax+36], 192			; 000000c0H
	je	SHORT $LN10@sizlen_op
	mov	rax, QWORD PTR sym$[rsp]
	cmp	DWORD PTR [rax+36], 130			; 00000082H
	je	SHORT $LN10@sizlen_op
	mov	rax, QWORD PTR sym$[rsp]
	cmp	DWORD PTR [rax+36], 129			; 00000081H
	je	SHORT $LN10@sizlen_op

; 1090 :                  sym->mem_type != MT_NEAR )
; 1091 :             ;

	jmp	SHORT $LN11@sizlen_op
$LN10@sizlen_op:

; 1092 :         else if ( sym->state == SYM_GRP || sym->state == SYM_SEG ) {

	mov	rax, QWORD PTR sym$[rsp]
	cmp	DWORD PTR [rax+32], 4
	je	SHORT $LN15@sizlen_op
	mov	rax, QWORD PTR sym$[rsp]
	cmp	DWORD PTR [rax+32], 3
	jne	SHORT $LN13@sizlen_op
$LN15@sizlen_op:

; 1093 :             return( fnEmitErr( EXPECTED_DATA_LABEL ) );

	mov	ecx, 232				; 000000e8H
	call	QWORD PTR fnEmitErr
	jmp	$LN1@sizlen_op
	jmp	SHORT $LN14@sizlen_op
$LN13@sizlen_op:

; 1094 :         } else if ( oper == T_SIZE || oper == T_LENGTH )

	cmp	DWORD PTR oper$[rsp], 246		; 000000f6H
	je	SHORT $LN18@sizlen_op
	cmp	DWORD PTR oper$[rsp], 234		; 000000eaH
	jne	SHORT $LN16@sizlen_op
$LN18@sizlen_op:

; 1095 :             ;

	jmp	SHORT $LN17@sizlen_op
$LN16@sizlen_op:

; 1096 :         else {
; 1097 :             return( fnEmitErr( EXPECTED_DATA_LABEL ) );

	mov	ecx, 232				; 000000e8H
	call	QWORD PTR fnEmitErr
	jmp	$LN1@sizlen_op
$LN17@sizlen_op:
$LN14@sizlen_op:
$LN11@sizlen_op:
$LN9@sizlen_op:
$LN6@sizlen_op:
$LN4@sizlen_op:

; 1098 :         }
; 1099 :     }
; 1100 : 
; 1101 :     switch( oper ) {

	mov	eax, DWORD PTR oper$[rsp]
	mov	DWORD PTR tv141[rsp], eax
	cmp	DWORD PTR tv141[rsp], 234		; 000000eaH
	je	SHORT $LN19@sizlen_op
	cmp	DWORD PTR tv141[rsp], 235		; 000000ebH
	je	SHORT $LN20@sizlen_op
	cmp	DWORD PTR tv141[rsp], 246		; 000000f6H
	je	$LN25@sizlen_op
	cmp	DWORD PTR tv141[rsp], 247		; 000000f7H
	je	$LN38@sizlen_op
	jmp	$LN2@sizlen_op
$LN19@sizlen_op:

; 1102 :     case T_LENGTH:
; 1103 :         /* data items and struct fields have a "first" count.
; 1104 :          * for procedure locals (+arguments) and code labels, always 1 is returned.
; 1105 :          */
; 1106 :         /* v2.09: first_length is valid if isdata is set */
; 1107 :         //opnd1->value = ( sym->state != SYM_STACK && sym->isarray ) ? sym->first_length : 1;
; 1108 :         opnd1->value = sym->isdata ? sym->first_length : 1;

	mov	rax, QWORD PTR sym$[rsp]
	movzx	eax, BYTE PTR [rax+41]
	shr	al, 2
	and	al, 1
	movzx	eax, al
	test	eax, eax
	je	SHORT $LN52@sizlen_op
	mov	rax, QWORD PTR sym$[rsp]
	mov	eax, DWORD PTR [rax+48]
	mov	DWORD PTR tv149[rsp], eax
	jmp	SHORT $LN53@sizlen_op
$LN52@sizlen_op:
	mov	DWORD PTR tv149[rsp], 1
$LN53@sizlen_op:
	mov	rax, QWORD PTR opnd1$[rsp]
	mov	ecx, DWORD PTR tv149[rsp]
	mov	DWORD PTR [rax], ecx

; 1109 :         break;

	jmp	$LN2@sizlen_op
$LN20@sizlen_op:

; 1110 :     case T_LENGTHOF:
; 1111 :         /* LENGTHOF needs either a data label or a structure field */
; 1112 :         /* a TYPE (structure, typedef) is invalid */
; 1113 :         if( opnd2->kind == EXPR_CONST ) {

	mov	rax, QWORD PTR opnd2$[rsp]
	cmp	DWORD PTR [rax+60], 0
	jne	SHORT $LN21@sizlen_op

; 1114 :             opnd1->value = opnd2->mbr->total_length;

	mov	rax, QWORD PTR opnd2$[rsp]
	mov	rax, QWORD PTR [rax+88]
	mov	rcx, QWORD PTR opnd1$[rsp]
	mov	eax, DWORD PTR [rax+64]
	mov	DWORD PTR [rcx], eax
	jmp	SHORT $LN22@sizlen_op
$LN21@sizlen_op:

; 1115 : #if 0 /* v2.09: unnecessary */
; 1116 :         } else if( sym->state == SYM_UNDEFINED && Parse_Pass == PASS_1 ) {
; 1117 :             opnd1->value = sym->total_length;
; 1118 : #endif
; 1119 :         } else if ( sym->state == SYM_EXTERNAL && sym->iscomm == FALSE ) {

	mov	rax, QWORD PTR sym$[rsp]
	cmp	DWORD PTR [rax+32], 2
	jne	SHORT $LN23@sizlen_op
	mov	rax, QWORD PTR sym$[rsp]
	movzx	eax, BYTE PTR [rax+47]
	shr	al, 2
	and	al, 1
	movzx	eax, al
	test	eax, eax
	jne	SHORT $LN23@sizlen_op

; 1120 :             /* for externals other than COMM, total_length field is used otherwise */
; 1121 :             opnd1->value = 1;

	mov	rax, QWORD PTR opnd1$[rsp]
	mov	DWORD PTR [rax], 1

; 1122 :         } else {

	jmp	SHORT $LN24@sizlen_op
$LN23@sizlen_op:

; 1123 :             opnd1->value = sym->total_length;

	mov	rax, QWORD PTR opnd1$[rsp]
	mov	rcx, QWORD PTR sym$[rsp]
	mov	ecx, DWORD PTR [rcx+64]
	mov	DWORD PTR [rax], ecx
$LN24@sizlen_op:
$LN22@sizlen_op:

; 1124 :         }
; 1125 :         break;

	jmp	$LN2@sizlen_op
$LN25@sizlen_op:

; 1126 :     case T_SIZE:
; 1127 :         /* v2.04: first_size is no longer set for SYM_STACK. */
; 1128 :         if( sym == NULL ) {

	cmp	QWORD PTR sym$[rsp], 0
	jne	SHORT $LN26@sizlen_op

; 1129 :             /* v2.09: check memtype */
; 1130 :             if ( ( opnd2->mem_type & MT_SPECIAL_MASK ) == MT_ADDRESS )

	mov	rax, QWORD PTR opnd2$[rsp]
	mov	eax, DWORD PTR [rax+64]
	and	eax, 192				; 000000c0H
	cmp	eax, 128				; 00000080H
	jne	SHORT $LN28@sizlen_op

; 1131 :                 opnd1->value = 0xFF00 | opnd2->value;

	mov	rax, QWORD PTR opnd2$[rsp]
	mov	eax, DWORD PTR [rax]
	or	eax, 65280				; 0000ff00H
	mov	rcx, QWORD PTR opnd1$[rsp]
	mov	DWORD PTR [rcx], eax
	jmp	SHORT $LN29@sizlen_op
$LN28@sizlen_op:

; 1132 :             else
; 1133 :                 opnd1->value = opnd2->value;

	mov	rax, QWORD PTR opnd1$[rsp]
	mov	rcx, QWORD PTR opnd2$[rsp]
	mov	ecx, DWORD PTR [rcx]
	mov	DWORD PTR [rax], ecx
$LN29@sizlen_op:

; 1134 :         } else if ( sym->isdata ) {

	jmp	$LN27@sizlen_op
$LN26@sizlen_op:
	mov	rax, QWORD PTR sym$[rsp]
	movzx	eax, BYTE PTR [rax+41]
	shr	al, 2
	and	al, 1
	movzx	eax, al
	test	eax, eax
	je	SHORT $LN30@sizlen_op

; 1135 :             opnd1->value = sym->first_size;

	mov	rax, QWORD PTR opnd1$[rsp]
	mov	rcx, QWORD PTR sym$[rsp]
	mov	ecx, DWORD PTR [rcx+44]
	mov	DWORD PTR [rax], ecx
	jmp	$LN31@sizlen_op
$LN30@sizlen_op:

; 1136 : #if 0 /* v2.09: can't happen, since for a type, sym is NULL */
; 1137 :         } else if( sym->state == SYM_TYPE ) {
; 1138 :             opnd1->value = sym->total_size;
; 1139 : #endif
; 1140 :         } else if( sym->state == SYM_STACK ) {

	mov	rax, QWORD PTR sym$[rsp]
	cmp	DWORD PTR [rax+32], 5
	jne	SHORT $LN32@sizlen_op

; 1141 :             opnd1->value = GetSizeValue( sym );

	mov	rcx, QWORD PTR sym$[rsp]
	call	GetSizeValue
	mov	rcx, QWORD PTR opnd1$[rsp]
	mov	DWORD PTR [rcx], eax
	jmp	$LN33@sizlen_op
$LN32@sizlen_op:

; 1142 :         } else if( sym->mem_type == MT_NEAR ) {

	mov	rax, QWORD PTR sym$[rsp]
	cmp	DWORD PTR [rax+36], 129			; 00000081H
	jne	SHORT $LN34@sizlen_op

; 1143 :             /* v2.09: also handle 64-bit */
; 1144 :             //opnd1->value = GetSymOfssize( sym ) ? LS_NEAR32 : LS_NEAR16;
; 1145 :             opnd1->value = 0xFF00 | ( 2 << GetSymOfssize( sym ) );

	mov	rcx, QWORD PTR sym$[rsp]
	call	GetSymOfssize
	mov	ecx, 2
	mov	DWORD PTR tv349[rsp], ecx
	movzx	ecx, al
	mov	eax, DWORD PTR tv349[rsp]
	shl	eax, cl
	or	eax, 65280				; 0000ff00H
	mov	rcx, QWORD PTR opnd1$[rsp]
	mov	DWORD PTR [rcx], eax
	jmp	SHORT $LN35@sizlen_op
$LN34@sizlen_op:

; 1146 :         } else if( sym->mem_type == MT_FAR ) {

	mov	rax, QWORD PTR sym$[rsp]
	cmp	DWORD PTR [rax+36], 130			; 00000082H
	jne	SHORT $LN36@sizlen_op

; 1147 :             opnd1->value = GetSymOfssize( sym ) ? LS_FAR32 : LS_FAR16;

	mov	rcx, QWORD PTR sym$[rsp]
	call	GetSymOfssize
	test	eax, eax
	je	SHORT $LN54@sizlen_op
	mov	DWORD PTR tv199[rsp], 65286		; 0000ff06H
	jmp	SHORT $LN55@sizlen_op
$LN54@sizlen_op:
	mov	DWORD PTR tv199[rsp], 65285		; 0000ff05H
$LN55@sizlen_op:
	mov	rax, QWORD PTR opnd1$[rsp]
	mov	ecx, DWORD PTR tv199[rsp]
	mov	DWORD PTR [rax], ecx

; 1148 :         } else {

	jmp	SHORT $LN37@sizlen_op
$LN36@sizlen_op:

; 1149 :             opnd1->value = GetSizeValue( sym );

	mov	rcx, QWORD PTR sym$[rsp]
	call	GetSizeValue
	mov	rcx, QWORD PTR opnd1$[rsp]
	mov	DWORD PTR [rcx], eax
$LN37@sizlen_op:
$LN35@sizlen_op:
$LN33@sizlen_op:
$LN31@sizlen_op:
$LN27@sizlen_op:

; 1150 :         }
; 1151 :         DebugMsg1(("sizlen_op(SIZE): result=%u [symbol %s, first_size=%u]\n", opnd1->value, sym ? sym->name : "NULL", sym ? sym->first_size : 0 ));

	cmp	QWORD PTR sym$[rsp], 0
	je	SHORT $LN56@sizlen_op
	mov	rax, QWORD PTR sym$[rsp]
	mov	eax, DWORD PTR [rax+44]
	mov	DWORD PTR tv205[rsp], eax
	jmp	SHORT $LN57@sizlen_op
$LN56@sizlen_op:
	mov	DWORD PTR tv205[rsp], 0
$LN57@sizlen_op:
	cmp	QWORD PTR sym$[rsp], 0
	je	SHORT $LN58@sizlen_op
	mov	rax, QWORD PTR sym$[rsp]
	mov	rax, QWORD PTR [rax+8]
	mov	QWORD PTR tv209[rsp], rax
	jmp	SHORT $LN59@sizlen_op
$LN58@sizlen_op:
	lea	rax, OFFSET FLAT:$SG11441
	mov	QWORD PTR tv209[rsp], rax
$LN59@sizlen_op:
	mov	r9d, DWORD PTR tv205[rsp]
	mov	r8, QWORD PTR tv209[rsp]
	mov	rax, QWORD PTR opnd1$[rsp]
	mov	edx, DWORD PTR [rax]
	lea	rcx, OFFSET FLAT:$SG11442
	call	DoDebugMsg1

; 1152 :         break;

	jmp	$LN2@sizlen_op
$LN38@sizlen_op:

; 1153 :     case T_SIZEOF:
; 1154 : #ifdef DEBUG_OUT
; 1155 :         if (sym)

	cmp	QWORD PTR sym$[rsp], 0
	je	SHORT $LN39@sizlen_op

; 1156 :             DebugMsg1(("sizlen_op(sizeof): symbol %s, state=%u, size=%u\n", sym->name, sym->state, sym->total_size ));

	mov	rax, QWORD PTR sym$[rsp]
	mov	r9d, DWORD PTR [rax+56]
	mov	rax, QWORD PTR sym$[rsp]
	mov	r8d, DWORD PTR [rax+32]
	mov	rax, QWORD PTR sym$[rsp]
	mov	rdx, QWORD PTR [rax+8]
	lea	rcx, OFFSET FLAT:$SG11446
	call	DoDebugMsg1
	jmp	SHORT $LN40@sizlen_op
$LN39@sizlen_op:

; 1157 :         else if ( opnd2->is_type && opnd2->type )

	mov	rax, QWORD PTR opnd2$[rsp]
	mov	eax, DWORD PTR [rax+72]
	shr	eax, 3
	and	eax, 1
	test	eax, eax
	je	SHORT $LN41@sizlen_op
	mov	rax, QWORD PTR opnd2$[rsp]
	cmp	QWORD PTR [rax+96], 0
	je	SHORT $LN41@sizlen_op

; 1158 :             DebugMsg1(("sizlen_op(sizeof): symbol %s (TYPE), opnd2.value=%u\n", opnd2->type->name, opnd2->value ));

	mov	rax, QWORD PTR opnd2$[rsp]
	mov	rax, QWORD PTR [rax+96]
	mov	rcx, QWORD PTR opnd2$[rsp]
	mov	r8d, DWORD PTR [rcx]
	mov	rdx, QWORD PTR [rax+8]
	lea	rcx, OFFSET FLAT:$SG11449
	call	DoDebugMsg1
	jmp	SHORT $LN42@sizlen_op
$LN41@sizlen_op:

; 1159 :         else
; 1160 :             DebugMsg1(("sizlen_op(sizeof): symbol NULL, opnd2.value=%u\n", opnd2->value ));

	mov	rax, QWORD PTR opnd2$[rsp]
	mov	edx, DWORD PTR [rax]
	lea	rcx, OFFSET FLAT:$SG11450
	call	DoDebugMsg1
$LN42@sizlen_op:
$LN40@sizlen_op:

; 1161 : #endif
; 1162 :         /* if sym is NULL, then operand is a type constant */
; 1163 :         if ( sym == NULL ) {

	cmp	QWORD PTR sym$[rsp], 0
	jne	SHORT $LN43@sizlen_op

; 1164 :             /* v2.06: default value of RECORD types is the mask! */
; 1165 :             if ( opnd2->is_type && opnd2->type && opnd2->type->typekind == TYPE_RECORD )

	mov	rax, QWORD PTR opnd2$[rsp]
	mov	eax, DWORD PTR [rax+72]
	shr	eax, 3
	and	eax, 1
	test	eax, eax
	je	SHORT $LN45@sizlen_op
	mov	rax, QWORD PTR opnd2$[rsp]
	cmp	QWORD PTR [rax+96], 0
	je	SHORT $LN45@sizlen_op
	mov	rax, QWORD PTR opnd2$[rsp]
	mov	rax, QWORD PTR [rax+96]
	movzx	eax, BYTE PTR [rax+66]
	cmp	eax, 4
	jne	SHORT $LN45@sizlen_op

; 1166 :                 opnd1->value = opnd2->type->total_size;

	mov	rax, QWORD PTR opnd2$[rsp]
	mov	rax, QWORD PTR [rax+96]
	mov	rcx, QWORD PTR opnd1$[rsp]
	mov	eax, DWORD PTR [rax+56]
	mov	DWORD PTR [rcx], eax
	jmp	SHORT $LN46@sizlen_op
$LN45@sizlen_op:

; 1167 :             else
; 1168 :                 opnd1->value = opnd2->value;

	mov	rax, QWORD PTR opnd1$[rsp]
	mov	rcx, QWORD PTR opnd2$[rsp]
	mov	ecx, DWORD PTR [rcx]
	mov	DWORD PTR [rax], ecx
$LN46@sizlen_op:

; 1169 : #if 1 /* v2.05: don't use total_size for externals anymore! */
; 1170 :         } else if ( sym->state == SYM_EXTERNAL && sym->iscomm == FALSE ) {

	jmp	SHORT $LN44@sizlen_op
$LN43@sizlen_op:
	mov	rax, QWORD PTR sym$[rsp]
	cmp	DWORD PTR [rax+32], 2
	jne	SHORT $LN47@sizlen_op
	mov	rax, QWORD PTR sym$[rsp]
	movzx	eax, BYTE PTR [rax+47]
	shr	al, 2
	and	al, 1
	movzx	eax, al
	test	eax, eax
	jne	SHORT $LN47@sizlen_op

; 1171 :             opnd1->value = GetSizeValue( sym );

	mov	rcx, QWORD PTR sym$[rsp]
	call	GetSizeValue
	mov	rcx, QWORD PTR opnd1$[rsp]
	mov	DWORD PTR [rcx], eax

; 1172 :             //if ( sym->iscomm == TRUE )
; 1173 :             //    opnd1->value *= sym->total_length;
; 1174 : #endif
; 1175 :         } else

	jmp	SHORT $LN48@sizlen_op
$LN47@sizlen_op:

; 1176 :             opnd1->value = sym->total_size;

	mov	rax, QWORD PTR opnd1$[rsp]
	mov	rcx, QWORD PTR sym$[rsp]
	mov	ecx, DWORD PTR [rcx+56]
	mov	DWORD PTR [rax], ecx
$LN48@sizlen_op:
$LN44@sizlen_op:
$LN2@sizlen_op:

; 1177 :         break;
; 1178 :     }
; 1179 :     return( NOT_ERROR );

	xor	eax, eax
$LN1@sizlen_op:

; 1180 : }

	add	rsp, 104				; 00000068H
	ret	0
sizlen_op ENDP
_TEXT	ENDS
; Function compile flags: /Odtp
; File d:\hjwasm\hjwasm2.13.1s\hjwasm2.13.1s\expreval.c
_TEXT	SEGMENT
opnd$ = 48
oprtr$ = 56
operand$ = 64
invalid_operand PROC

; 1051 : {

	mov	QWORD PTR [rsp+24], r8
	mov	QWORD PTR [rsp+16], rdx
	mov	QWORD PTR [rsp+8], rcx
	sub	rsp, 40					; 00000028H

; 1052 :     if ( !opnd->is_opattr )

	mov	rax, QWORD PTR opnd$[rsp]
	mov	eax, DWORD PTR [rax+72]
	shr	eax, 4
	and	eax, 1
	test	eax, eax
	jne	SHORT $LN2@invalid_op

; 1053 :         fnEmitErr( INVALID_OPERAND_FOR_OPERATOR, _strupr( oprtr), operand );

	mov	rcx, QWORD PTR oprtr$[rsp]
	call	_strupr
	mov	r8, QWORD PTR operand$[rsp]
	mov	rdx, rax
	mov	ecx, 228				; 000000e4H
	call	QWORD PTR fnEmitErr
$LN2@invalid_op:

; 1054 :     return( ERROR );

	mov	eax, -1

; 1055 : }

	add	rsp, 40					; 00000028H
	ret	0
invalid_operand ENDP
_TEXT	ENDS
; Function compile flags: /Odtp
; File d:\hjwasm\hjwasm2.13.1s\hjwasm2.13.1s\expreval.c
_TEXT	SEGMENT
opnd$ = 8
IsOffset PROC

; 1035 : {

	mov	QWORD PTR [rsp+8], rcx

; 1036 :     if ( opnd->mem_type == MT_EMPTY )

	mov	rax, QWORD PTR opnd$[rsp]
	cmp	DWORD PTR [rax+64], 192			; 000000c0H
	jne	SHORT $LN2@IsOffset

; 1037 :         if ( opnd->instr == T_OFFSET ||
; 1038 : #if IMAGERELSUPP
; 1039 :             opnd->instr == T_IMAGEREL ||
; 1040 : #endif
; 1041 : #if SECTIONRELSUPP
; 1042 :             opnd->instr == T_SECTIONREL ||

	mov	rax, QWORD PTR opnd$[rsp]
	cmp	DWORD PTR [rax+56], 241			; 000000f1H
	je	SHORT $LN4@IsOffset
	mov	rax, QWORD PTR opnd$[rsp]
	cmp	DWORD PTR [rax+56], 233			; 000000e9H
	je	SHORT $LN4@IsOffset
	mov	rax, QWORD PTR opnd$[rsp]
	cmp	DWORD PTR [rax+56], 243			; 000000f3H
	je	SHORT $LN4@IsOffset
	mov	rax, QWORD PTR opnd$[rsp]
	cmp	DWORD PTR [rax+56], 239			; 000000efH
	jne	SHORT $LN3@IsOffset
$LN4@IsOffset:

; 1043 : #endif
; 1044 :             opnd->instr == T_LROFFSET )
; 1045 :             return( 1 );

	mov	eax, 1
	jmp	SHORT $LN1@IsOffset
$LN3@IsOffset:
$LN2@IsOffset:

; 1046 :     return( 0 );

	xor	eax, eax
$LN1@IsOffset:

; 1047 : }

	ret	0
IsOffset ENDP
_TEXT	ENDS
; Function compile flags: /Odtp
; File d:\hjwasm\hjwasm2.13.1s\hjwasm2.13.1s\expreval.c
_TEXT	SEGMENT
tv77 = 32
sym$ = 64
GetSizeValue PROC

; 1027 : {

	mov	QWORD PTR [rsp+8], rcx
	sub	rsp, 56					; 00000038H

; 1028 :     if ( sym->mem_type == MT_PTR )

	mov	rax, QWORD PTR sym$[rsp]
	cmp	DWORD PTR [rax+36], 195			; 000000c3H
	jne	SHORT $LN2@GetSizeVal

; 1029 :         return( SizeFromMemtype( sym->isfar ? MT_FAR : MT_NEAR, sym->Ofssize, sym->type ) );

	mov	rax, QWORD PTR sym$[rsp]
	movzx	eax, BYTE PTR [rax+47]
	shr	al, 4
	and	al, 1
	movzx	eax, al
	test	eax, eax
	je	SHORT $LN4@GetSizeVal
	mov	DWORD PTR tv77[rsp], 130		; 00000082H
	jmp	SHORT $LN5@GetSizeVal
$LN4@GetSizeVal:
	mov	DWORD PTR tv77[rsp], 129		; 00000081H
$LN5@GetSizeVal:
	mov	rax, QWORD PTR sym$[rsp]
	movzx	eax, BYTE PTR [rax+44]
	mov	rcx, QWORD PTR sym$[rsp]
	mov	r8, QWORD PTR [rcx+80]
	mov	edx, eax
	mov	ecx, DWORD PTR tv77[rsp]
	call	SizeFromMemtype
	jmp	SHORT $LN1@GetSizeVal
$LN2@GetSizeVal:

; 1030 :     return( SizeFromMemtype( sym->mem_type, sym->Ofssize, sym->type ) );

	mov	rax, QWORD PTR sym$[rsp]
	movzx	eax, BYTE PTR [rax+44]
	mov	rcx, QWORD PTR sym$[rsp]
	mov	r8, QWORD PTR [rcx+80]
	mov	edx, eax
	mov	rax, QWORD PTR sym$[rsp]
	mov	ecx, DWORD PTR [rax+36]
	call	SizeFromMemtype
$LN1@GetSizeVal:

; 1031 : }

	add	rsp, 56					; 00000038H
	ret	0
GetSizeValue ENDP
_TEXT	ENDS
; Function compile flags: /Odtp
; File d:\hjwasm\hjwasm2.13.1s\hjwasm2.13.1s\expreval.c
_TEXT	SEGMENT
opnd1$ = 8
opnd2$ = 16
check_direct_reg PROC

; 1017 : {

	mov	QWORD PTR [rsp+16], rdx
	mov	QWORD PTR [rsp+8], rcx

; 1018 :     if( ( opnd1->kind == EXPR_REG ) && ( opnd1->indirect == FALSE )
; 1019 :         || ( opnd2->kind == EXPR_REG ) && ( opnd2->indirect == FALSE ) ) {

	mov	rax, QWORD PTR opnd1$[rsp]
	cmp	DWORD PTR [rax+60], 2
	jne	SHORT $LN4@check_dire
	mov	rax, QWORD PTR opnd1$[rsp]
	mov	eax, DWORD PTR [rax+72]
	and	eax, 1
	test	eax, eax
	je	SHORT $LN3@check_dire
$LN4@check_dire:
	mov	rax, QWORD PTR opnd2$[rsp]
	cmp	DWORD PTR [rax+60], 2
	jne	SHORT $LN2@check_dire
	mov	rax, QWORD PTR opnd2$[rsp]
	mov	eax, DWORD PTR [rax+72]
	and	eax, 1
	test	eax, eax
	jne	SHORT $LN2@check_dire
$LN3@check_dire:

; 1020 :         return( ERROR );

	mov	eax, -1
	jmp	SHORT $LN1@check_dire
$LN2@check_dire:

; 1021 :     }
; 1022 :     return( NOT_ERROR );

	xor	eax, eax
$LN1@check_dire:

; 1023 : }

	ret	0
check_direct_reg ENDP
_TEXT	ENDS
; Function compile flags: /Odtp
; File d:\hjwasm\hjwasm2.13.1s\hjwasm2.13.1s\expreval.c
_TEXT	SEGMENT
opnd$ = 8
fix_struct_value PROC

; 1008 : {

	mov	QWORD PTR [rsp+8], rcx

; 1009 :     if( opnd->mbr && ( opnd->mbr->state == SYM_TYPE ) ) {

	mov	rax, QWORD PTR opnd$[rsp]
	cmp	QWORD PTR [rax+88], 0
	je	SHORT $LN2@fix_struct
	mov	rax, QWORD PTR opnd$[rsp]
	mov	rax, QWORD PTR [rax+88]
	cmp	DWORD PTR [rax+32], 7
	jne	SHORT $LN2@fix_struct

; 1010 :         opnd->value += opnd->mbr->total_size;

	mov	rax, QWORD PTR opnd$[rsp]
	mov	rax, QWORD PTR [rax+88]
	mov	rcx, QWORD PTR opnd$[rsp]
	mov	ecx, DWORD PTR [rcx]
	add	ecx, DWORD PTR [rax+56]
	mov	eax, ecx
	mov	rcx, QWORD PTR opnd$[rsp]
	mov	DWORD PTR [rcx], eax

; 1011 :         opnd->mbr = NULL;

	mov	rax, QWORD PTR opnd$[rsp]
	mov	QWORD PTR [rax+88], 0
$LN2@fix_struct:

; 1012 :     }
; 1013 : }

	ret	0
fix_struct_value ENDP
_TEXT	ENDS
; Function compile flags: /Odtp
; File d:\hjwasm\hjwasm2.13.1s\hjwasm2.13.1s\expreval.c
_TEXT	SEGMENT
opnd1$ = 48
opnd2$ = 56
ConstError PROC

; 994  : {

	mov	QWORD PTR [rsp+16], rdx
	mov	QWORD PTR [rsp+8], rcx
	sub	rsp, 40					; 00000028H

; 995  :     if ( opnd1->is_opattr )

	mov	rax, QWORD PTR opnd1$[rsp]
	mov	eax, DWORD PTR [rax+72]
	shr	eax, 4
	and	eax, 1
	test	eax, eax
	je	SHORT $LN2@ConstError

; 996  :         return( NOT_ERROR );

	xor	eax, eax
	jmp	SHORT $LN1@ConstError
$LN2@ConstError:

; 997  :     if ( opnd1->kind == EXPR_FLOAT || opnd2->kind == EXPR_FLOAT )

	mov	rax, QWORD PTR opnd1$[rsp]
	cmp	DWORD PTR [rax+60], 3
	je	SHORT $LN5@ConstError
	mov	rax, QWORD PTR opnd2$[rsp]
	cmp	DWORD PTR [rax+60], 3
	jne	SHORT $LN3@ConstError
$LN5@ConstError:

; 998  :         fnEmitErr( REAL_OR_BCD_NUMBER_NOT_ALLOWED );

	mov	ecx, 271				; 0000010fH
	call	QWORD PTR fnEmitErr
	jmp	SHORT $LN4@ConstError
$LN3@ConstError:

; 999  :     else
; 1000 :         fnEmitErr( CONSTANT_EXPECTED );

	mov	ecx, 65					; 00000041H
	call	QWORD PTR fnEmitErr
$LN4@ConstError:

; 1001 :     return( ERROR );

	mov	eax, -1
$LN1@ConstError:

; 1002 : }

	add	rsp, 40					; 00000028H
	ret	0
ConstError ENDP
_TEXT	ENDS
; Function compile flags: /Odtp
; File d:\hjwasm\hjwasm2.13.1s\hjwasm2.13.1s\expreval.c
_TEXT	SEGMENT
opnd1$ = 48
opnd2$ = 56
MakeConst2 PROC

; 974  : {

	mov	QWORD PTR [rsp+16], rdx
	mov	QWORD PTR [rsp+8], rcx
	sub	rsp, 40					; 00000028H

; 975  : 
; 976  :     if ( opnd1->sym->state == SYM_EXTERNAL ) {

	mov	rax, QWORD PTR opnd1$[rsp]
	mov	rax, QWORD PTR [rax+80]
	cmp	DWORD PTR [rax+32], 2
	jne	SHORT $LN2@MakeConst2

; 977  :         return( fnEmitErr( INVALID_USE_OF_EXTERNAL_SYMBOL, opnd1->sym->name ) );

	mov	rax, QWORD PTR opnd1$[rsp]
	mov	rax, QWORD PTR [rax+80]
	mov	rdx, QWORD PTR [rax+8]
	mov	ecx, 193				; 000000c1H
	call	QWORD PTR fnEmitErr
	jmp	$LN1@MakeConst2

; 978  :     } else if ( ( opnd1->sym->segment != opnd2->sym->segment &&

	jmp	SHORT $LN3@MakeConst2
$LN2@MakeConst2:

; 979  :                  /* v2.07: ignore segments if at least one label is a fwd ref */
; 980  :                  opnd1->sym->state != SYM_UNDEFINED &&
; 981  :                  opnd2->sym->state != SYM_UNDEFINED ) ||

	mov	rax, QWORD PTR opnd1$[rsp]
	mov	rax, QWORD PTR [rax+80]
	mov	rcx, QWORD PTR opnd2$[rsp]
	mov	rcx, QWORD PTR [rcx+80]
	mov	rcx, QWORD PTR [rcx+24]
	cmp	QWORD PTR [rax+24], rcx
	je	SHORT $LN6@MakeConst2
	mov	rax, QWORD PTR opnd1$[rsp]
	mov	rax, QWORD PTR [rax+80]
	cmp	DWORD PTR [rax+32], 0
	je	SHORT $LN6@MakeConst2
	mov	rax, QWORD PTR opnd2$[rsp]
	mov	rax, QWORD PTR [rax+80]
	cmp	DWORD PTR [rax+32], 0
	jne	SHORT $LN5@MakeConst2
$LN6@MakeConst2:
	mov	rax, QWORD PTR opnd2$[rsp]
	mov	rax, QWORD PTR [rax+80]
	cmp	DWORD PTR [rax+32], 2
	jne	SHORT $LN4@MakeConst2
$LN5@MakeConst2:

; 982  :                opnd2->sym->state == SYM_EXTERNAL ) {
; 983  :         return( fnEmitErr( OPERANDS_MUST_BE_IN_SAME_SEGMENT ) );

	mov	ecx, 192				; 000000c0H
	call	QWORD PTR fnEmitErr
	jmp	SHORT $LN1@MakeConst2
$LN4@MakeConst2:
$LN3@MakeConst2:

; 984  :     }
; 985  :     opnd1->kind = EXPR_CONST;

	mov	rax, QWORD PTR opnd1$[rsp]
	mov	DWORD PTR [rax+60], 0

; 986  :     opnd1->value += opnd1->sym->offset;

	mov	rax, QWORD PTR opnd1$[rsp]
	mov	rax, QWORD PTR [rax+80]
	mov	rcx, QWORD PTR opnd1$[rsp]
	mov	ecx, DWORD PTR [rcx]
	add	ecx, DWORD PTR [rax+16]
	mov	eax, ecx
	mov	rcx, QWORD PTR opnd1$[rsp]
	mov	DWORD PTR [rcx], eax

; 987  :     opnd2->kind = EXPR_CONST;

	mov	rax, QWORD PTR opnd2$[rsp]
	mov	DWORD PTR [rax+60], 0

; 988  :     opnd2->value += opnd2->sym->offset;

	mov	rax, QWORD PTR opnd2$[rsp]
	mov	rax, QWORD PTR [rax+80]
	mov	rcx, QWORD PTR opnd2$[rsp]
	mov	ecx, DWORD PTR [rcx]
	add	ecx, DWORD PTR [rax+16]
	mov	eax, ecx
	mov	rcx, QWORD PTR opnd2$[rsp]
	mov	DWORD PTR [rcx], eax

; 989  :     return( NOT_ERROR );

	xor	eax, eax
$LN1@MakeConst2:

; 990  : }

	add	rsp, 40					; 00000028H
	ret	0
MakeConst2 ENDP
_TEXT	ENDS
; Function compile flags: /Odtp
; File d:\hjwasm\hjwasm2.13.1s\hjwasm2.13.1s\expreval.c
_TEXT	SEGMENT
opnd$ = 8
MakeConst PROC

; 920  : {

	mov	QWORD PTR [rsp+8], rcx

; 921  :     if( ( opnd->kind != EXPR_ADDR ) || opnd->indirect ) /* v2.09: check for indirect added */

	mov	rax, QWORD PTR opnd$[rsp]
	cmp	DWORD PTR [rax+60], 1
	jne	SHORT $LN3@MakeConst
	mov	rax, QWORD PTR opnd$[rsp]
	mov	eax, DWORD PTR [rax+72]
	and	eax, 1
	test	eax, eax
	je	SHORT $LN2@MakeConst
$LN3@MakeConst:

; 922  :         return;

	jmp	$LN1@MakeConst
$LN2@MakeConst:

; 923  : 
; 924  :     if( opnd->sym ) {

	mov	rax, QWORD PTR opnd$[rsp]
	cmp	QWORD PTR [rax+80], 0
	je	SHORT $LN4@MakeConst

; 925  :         if ( Parse_Pass > PASS_1 )

	cmp	DWORD PTR Parse_Pass, 0
	jbe	SHORT $LN5@MakeConst

; 926  :             return;

	jmp	$LN1@MakeConst
$LN5@MakeConst:

; 927  :         /* added for v1.94: if the evaluator assumed an address because
; 928  :          * the label wasn't defined yet, then negate this. Also, an
; 929  :          * EXTERNDEF:ABS is to be accepted.
; 930  :          * v2.07: if the "not yet defined" label was an argument of
; 931  :          * an (OFFSET) operator, do NOT change the type!
; 932  :          */
; 933  :         if ( ( opnd->sym->state == SYM_UNDEFINED && opnd->instr == EMPTY ) ||

	mov	rax, QWORD PTR opnd$[rsp]
	mov	rax, QWORD PTR [rax+80]
	cmp	DWORD PTR [rax+32], 0
	jne	SHORT $LN9@MakeConst
	mov	rax, QWORD PTR opnd$[rsp]
	cmp	DWORD PTR [rax+56], -2
	je	SHORT $LN8@MakeConst
$LN9@MakeConst:
	mov	rax, QWORD PTR opnd$[rsp]
	mov	rax, QWORD PTR [rax+80]
	cmp	DWORD PTR [rax+32], 2
	jne	SHORT $LN6@MakeConst
	mov	rax, QWORD PTR opnd$[rsp]
	mov	rax, QWORD PTR [rax+80]
	movzx	eax, BYTE PTR [rax+47]
	shr	al, 3
	and	al, 1
	movzx	eax, al
	cmp	eax, 1
	jne	SHORT $LN6@MakeConst
	mov	rax, QWORD PTR opnd$[rsp]
	mov	eax, DWORD PTR [rax+72]
	shr	eax, 2
	and	eax, 1
	cmp	eax, 1
	jne	SHORT $LN6@MakeConst
$LN8@MakeConst:

; 934  :             ( opnd->sym->state == SYM_EXTERNAL && opnd->sym->weak == TRUE && opnd->is_abs == TRUE ) )
; 935  :             ;

	jmp	SHORT $LN7@MakeConst
$LN6@MakeConst:

; 936  :         else
; 937  :             return;

	jmp	SHORT $LN1@MakeConst
$LN7@MakeConst:

; 938  :         /* assume a value != 0 to avoid problems with div */
; 939  :         opnd->value = 1;

	mov	rax, QWORD PTR opnd$[rsp]
	mov	DWORD PTR [rax], 1
$LN4@MakeConst:

; 940  :     }
; 941  : 
; 942  :     opnd->label_tok = NULL;

	mov	rax, QWORD PTR opnd$[rsp]
	mov	QWORD PTR [rax+40], 0

; 943  :     if( opnd->mbr != NULL ) {

	mov	rax, QWORD PTR opnd$[rsp]
	cmp	QWORD PTR [rax+88], 0
	je	SHORT $LN10@MakeConst

; 944  :         if( opnd->mbr->state == SYM_STRUCT_FIELD ) {

	mov	rax, QWORD PTR opnd$[rsp]
	mov	rax, QWORD PTR [rax+88]
	cmp	DWORD PTR [rax+32], 6
	jne	SHORT $LN11@MakeConst

; 945  : #if 0 /* v2.09: mbr can only be SYM_STRUCT_FIELD or SYM_UNDEFINED (if nullmbr) */
; 946  :         } else if( opnd->mbr->state == SYM_TYPE ) {
; 947  :             opnd->value += opnd->mbr->total_size;
; 948  :             opnd->mbr = NULL;
; 949  : #endif
; 950  :         } else {

	jmp	SHORT $LN12@MakeConst
$LN11@MakeConst:

; 951  :             return;

	jmp	SHORT $LN1@MakeConst
$LN12@MakeConst:
$LN10@MakeConst:

; 952  :         }
; 953  :     }
; 954  : #if 0 /* v2.09: obsolete */
; 955  :     if( opnd->base_reg != NULL )
; 956  :         return;
; 957  :     if( opnd->idx_reg  != NULL )
; 958  :         return;
; 959  : #endif
; 960  :     if( opnd->override != NULL )

	mov	rax, QWORD PTR opnd$[rsp]
	cmp	QWORD PTR [rax+48], 0
	je	SHORT $LN13@MakeConst

; 961  :         return;

	jmp	SHORT $LN1@MakeConst
$LN13@MakeConst:

; 962  :     opnd->instr = EMPTY;

	mov	rax, QWORD PTR opnd$[rsp]
	mov	DWORD PTR [rax+56], -2

; 963  :     opnd->kind = EXPR_CONST;

	mov	rax, QWORD PTR opnd$[rsp]
	mov	DWORD PTR [rax+60], 0

; 964  :     //opnd->indirect = FALSE; /* not needed */
; 965  :     opnd->explicit = FALSE;

	mov	rax, QWORD PTR opnd$[rsp]
	mov	eax, DWORD PTR [rax+72]
	and	eax, -3					; fffffffdH
	mov	rcx, QWORD PTR opnd$[rsp]
	mov	DWORD PTR [rcx+72], eax

; 966  :     opnd->mem_type = MT_EMPTY;

	mov	rax, QWORD PTR opnd$[rsp]
	mov	DWORD PTR [rax+64], 192			; 000000c0H
$LN1@MakeConst:

; 967  : }

	ret	0
MakeConst ENDP
_TEXT	ENDS
; Function compile flags: /Odtp
; File d:\hjwasm\hjwasm2.13.1s\hjwasm2.13.1s\expreval.c
_TEXT	SEGMENT
opnd1$ = 48
opnd2$ = 56
index_connect PROC

; 875  : {

	mov	QWORD PTR [rsp+16], rdx
	mov	QWORD PTR [rsp+8], rcx
	sub	rsp, 40					; 00000028H

; 876  :     /* move opnd2.base to either opnd1.base or opnd1.idx */
; 877  :     if ( opnd2->base_reg != NULL ) {

	mov	rax, QWORD PTR opnd2$[rsp]
	cmp	QWORD PTR [rax+24], 0
	je	$LN2@index_conn

; 878  :         if ( opnd1->base_reg == NULL )

	mov	rax, QWORD PTR opnd1$[rsp]
	cmp	QWORD PTR [rax+24], 0
	jne	SHORT $LN3@index_conn

; 879  :             opnd1->base_reg = opnd2->base_reg;

	mov	rax, QWORD PTR opnd1$[rsp]
	mov	rcx, QWORD PTR opnd2$[rsp]
	mov	rcx, QWORD PTR [rcx+24]
	mov	QWORD PTR [rax+24], rcx
	jmp	SHORT $LN4@index_conn
$LN3@index_conn:

; 880  :         else if ( opnd1->idx_reg == NULL ) {

	mov	rax, QWORD PTR opnd1$[rsp]
	cmp	QWORD PTR [rax+32], 0
	jne	SHORT $LN5@index_conn

; 881  :             /* v2.10: exchange base and index register.
; 882  :              * was previously in parser.c, and only done
; 883  :              * if -Zg was active.
; 884  :              */
; 885  :             if ( opnd1->base_reg->bytval != 4 ) {   /* if base isn't [E|R]SP, exchange regs */

	mov	rax, QWORD PTR opnd1$[rsp]
	mov	rax, QWORD PTR [rax+24]
	movzx	eax, BYTE PTR [rax+1]
	cmp	eax, 4
	je	SHORT $LN7@index_conn

; 886  :                 opnd1->idx_reg = opnd1->base_reg;

	mov	rax, QWORD PTR opnd1$[rsp]
	mov	rcx, QWORD PTR opnd1$[rsp]
	mov	rcx, QWORD PTR [rcx+24]
	mov	QWORD PTR [rax+32], rcx

; 887  :                 opnd1->base_reg = opnd2->base_reg;

	mov	rax, QWORD PTR opnd1$[rsp]
	mov	rcx, QWORD PTR opnd2$[rsp]
	mov	rcx, QWORD PTR [rcx+24]
	mov	QWORD PTR [rax+24], rcx

; 888  :             } else {

	jmp	SHORT $LN8@index_conn
$LN7@index_conn:

; 889  :                 opnd1->idx_reg = opnd2->base_reg;

	mov	rax, QWORD PTR opnd1$[rsp]
	mov	rcx, QWORD PTR opnd2$[rsp]
	mov	rcx, QWORD PTR [rcx+24]
	mov	QWORD PTR [rax+32], rcx
$LN8@index_conn:

; 890  :             }
; 891  :         } else {

	jmp	SHORT $LN6@index_conn
$LN5@index_conn:

; 892  :             return( fnEmitErr( MULTIPLE_INDEX_REGISTERS_NOT_ALLOWED ) );

	mov	ecx, 34					; 00000022H
	call	QWORD PTR fnEmitErr
	jmp	SHORT $LN1@index_conn
$LN6@index_conn:
$LN4@index_conn:

; 893  :         }
; 894  :         opnd1->indirect = TRUE;

	mov	rax, QWORD PTR opnd1$[rsp]
	mov	eax, DWORD PTR [rax+72]
	or	eax, 1
	mov	rcx, QWORD PTR opnd1$[rsp]
	mov	DWORD PTR [rcx+72], eax
$LN2@index_conn:

; 895  :     }
; 896  :     /* move opnd2.idx to opnd1.index - if it is free */
; 897  :     if( opnd2->idx_reg != NULL ) {

	mov	rax, QWORD PTR opnd2$[rsp]
	cmp	QWORD PTR [rax+32], 0
	je	SHORT $LN9@index_conn

; 898  :         //if ( opnd2->scale == 0 && opnd1->base_reg == NULL ) {
; 899  :         //    opnd1->base_reg = opnd2->idx_reg;
; 900  :         //} else if ( opnd1->idx_reg == NULL ) {
; 901  :         if ( opnd1->idx_reg == NULL ) {

	mov	rax, QWORD PTR opnd1$[rsp]
	cmp	QWORD PTR [rax+32], 0
	jne	SHORT $LN10@index_conn

; 902  :             opnd1->idx_reg = opnd2->idx_reg;

	mov	rax, QWORD PTR opnd1$[rsp]
	mov	rcx, QWORD PTR opnd2$[rsp]
	mov	rcx, QWORD PTR [rcx+32]
	mov	QWORD PTR [rax+32], rcx

; 903  :             opnd1->scale = opnd2->scale;

	mov	rax, QWORD PTR opnd1$[rsp]
	mov	rcx, QWORD PTR opnd2$[rsp]
	movzx	ecx, BYTE PTR [rcx+68]
	mov	BYTE PTR [rax+68], cl

; 904  :         } else {

	jmp	SHORT $LN11@index_conn
$LN10@index_conn:

; 905  :             return( fnEmitErr( MULTIPLE_INDEX_REGISTERS_NOT_ALLOWED ) );

	mov	ecx, 34					; 00000022H
	call	QWORD PTR fnEmitErr
	jmp	SHORT $LN1@index_conn
$LN11@index_conn:

; 906  :         }
; 907  :         opnd1->indirect = TRUE;

	mov	rax, QWORD PTR opnd1$[rsp]
	mov	eax, DWORD PTR [rax+72]
	or	eax, 1
	mov	rcx, QWORD PTR opnd1$[rsp]
	mov	DWORD PTR [rcx+72], eax
$LN9@index_conn:

; 908  :     }
; 909  :     return( NOT_ERROR );

	xor	eax, eax
$LN1@index_conn:

; 910  : }

	add	rsp, 40					; 00000028H
	ret	0
index_connect ENDP
_TEXT	ENDS
; Function compile flags: /Odtp
; File d:\hjwasm\hjwasm2.13.1s\hjwasm2.13.1s\expreval.c
_TEXT	SEGMENT
opnd1$ = 8
opnd2$ = 16
type1$ = 24
type2$ = 32
check_both PROC

; 864  : {

	mov	DWORD PTR [rsp+32], r9d
	mov	DWORD PTR [rsp+24], r8d
	mov	QWORD PTR [rsp+16], rdx
	mov	QWORD PTR [rsp+8], rcx

; 865  :     if( opnd1->kind == type1 && opnd2->kind == type2 )

	mov	rax, QWORD PTR opnd1$[rsp]
	mov	ecx, DWORD PTR type1$[rsp]
	cmp	DWORD PTR [rax+60], ecx
	jne	SHORT $LN2@check_both
	mov	rax, QWORD PTR opnd2$[rsp]
	mov	ecx, DWORD PTR type2$[rsp]
	cmp	DWORD PTR [rax+60], ecx
	jne	SHORT $LN2@check_both

; 866  :         return( TRUE );

	mov	al, 1
	jmp	SHORT $LN1@check_both
$LN2@check_both:

; 867  :     if( opnd1->kind == type2 && opnd2->kind == type1 )

	mov	rax, QWORD PTR opnd1$[rsp]
	mov	ecx, DWORD PTR type2$[rsp]
	cmp	DWORD PTR [rax+60], ecx
	jne	SHORT $LN3@check_both
	mov	rax, QWORD PTR opnd2$[rsp]
	mov	ecx, DWORD PTR type1$[rsp]
	cmp	DWORD PTR [rax+60], ecx
	jne	SHORT $LN3@check_both

; 868  :         return( TRUE );

	mov	al, 1
	jmp	SHORT $LN1@check_both
$LN3@check_both:

; 869  :     return( FALSE );

	xor	al, al
$LN1@check_both:

; 870  : }

	ret	0
check_both ENDP
_TEXT	ENDS
; Function compile flags: /Odtp
; File d:\hjwasm\hjwasm2.13.1s\hjwasm2.13.1s\expreval.c
_TEXT	SEGMENT
i$ = 96
sym$ = 104
tmp$ = 112
cnt$1 = 120
j$ = 124
tv79 = 128
tv605 = 132
tv727 = 136
tv325 = 144
tv451 = 152
tv470 = 160
tv475 = 168
tv592 = 176
tv643 = 184
tv668 = 192
tv693 = 200
tv716 = 208
tv803 = 216
tv808 = 224
tv941 = 232
tv1011 = 240
tv1119 = 248
tv1125 = 256
tv1131 = 264
tv1141 = 272
tv145 = 280
labelbuff$ = 288
__$ArrayPad$ = 304
opnd$ = 336
idx$ = 344
tokenarray$ = 352
flags$ = 360
get_operand PROC

; 353  : {

	mov	BYTE PTR [rsp+32], r9b
	mov	QWORD PTR [rsp+24], r8
	mov	QWORD PTR [rsp+16], rdx
	mov	QWORD PTR [rsp+8], rcx
	sub	rsp, 328				; 00000148H
	mov	rax, QWORD PTR __security_cookie
	xor	rax, rsp
	mov	QWORD PTR __$ArrayPad$[rsp], rax

; 354  :     char        *tmp;
; 355  :     struct asym *sym;
; 356  :     int         i = *idx;

	mov	rax, QWORD PTR idx$[rsp]
	mov	eax, DWORD PTR [rax]
	mov	DWORD PTR i$[rsp], eax

; 357  :     int         j;
; 358  :     char        labelbuff[16];/* for anonymous labels */
; 359  : 
; 360  :     DebugMsg1(("%u get_operand(idx=%u >%s<) enter [memtype=%Xh]\n", evallvl, i, tokenarray[i].tokpos, opnd->mem_type ));

	movsxd	rax, DWORD PTR i$[rsp]
	imul	rax, rax, 32				; 00000020H
	mov	rcx, QWORD PTR opnd$[rsp]
	mov	ecx, DWORD PTR [rcx+64]
	mov	DWORD PTR [rsp+32], ecx
	mov	rcx, QWORD PTR tokenarray$[rsp]
	mov	r9, QWORD PTR [rcx+rax+24]
	mov	r8d, DWORD PTR i$[rsp]
	mov	edx, DWORD PTR evallvl
	lea	rcx, OFFSET FLAT:$SG11121
	call	DoDebugMsg1

; 361  :     switch( tokenarray[i].token ) {

	movsxd	rax, DWORD PTR i$[rsp]
	imul	rax, rax, 32				; 00000020H
	mov	rcx, QWORD PTR tokenarray$[rsp]
	movzx	eax, BYTE PTR [rcx+rax]
	mov	DWORD PTR tv79[rsp], eax
	mov	eax, DWORD PTR tv79[rsp]
	sub	eax, 2
	mov	DWORD PTR tv79[rsp], eax
	cmp	DWORD PTR tv79[rsp], 9
	ja	$LN124@get_operan
	movsxd	rax, DWORD PTR tv79[rsp]
	lea	rcx, OFFSET FLAT:__ImageBase
	mov	eax, DWORD PTR $LN169@get_operan[rcx+rax*4]
	add	rax, rcx
	jmp	rax
$LN18@get_operan:

; 362  :     case T_NUM:
; 363  :         DebugMsg1(("%u get_operand: T_NUM, %s, base=%u, len=%u\n", evallvl, tokenarray[i].string_ptr, tokenarray[i].numbase, tokenarray[i].itemlen ));

	movsxd	rax, DWORD PTR i$[rsp]
	imul	rax, rax, 32				; 00000020H
	movsxd	rcx, DWORD PTR i$[rsp]
	imul	rcx, rcx, 32				; 00000020H
	mov	rdx, QWORD PTR tokenarray$[rsp]
	movsx	ecx, BYTE PTR [rdx+rcx+1]
	movsxd	rdx, DWORD PTR i$[rsp]
	imul	rdx, rdx, 32				; 00000020H
	mov	r8, QWORD PTR tokenarray$[rsp]
	mov	eax, DWORD PTR [r8+rax+16]
	mov	DWORD PTR [rsp+32], eax
	mov	r9d, ecx
	mov	rax, QWORD PTR tokenarray$[rsp]
	mov	r8, QWORD PTR [rax+rdx+8]
	mov	edx, DWORD PTR evallvl
	lea	rcx, OFFSET FLAT:$SG11123
	call	DoDebugMsg1

; 364  :         opnd->kind = EXPR_CONST;

	mov	rax, QWORD PTR opnd$[rsp]
	mov	DWORD PTR [rax+60], 0

; 365  :         myatoi128( tokenarray[i].string_ptr, &opnd->llvalue, tokenarray[i].numbase, tokenarray[i].itemlen );

	movsxd	rax, DWORD PTR i$[rsp]
	imul	rax, rax, 32				; 00000020H
	movsxd	rcx, DWORD PTR i$[rsp]
	imul	rcx, rcx, 32				; 00000020H
	mov	rdx, QWORD PTR tokenarray$[rsp]
	movsx	ecx, BYTE PTR [rdx+rcx+1]
	mov	rdx, QWORD PTR opnd$[rsp]
	movsxd	r8, DWORD PTR i$[rsp]
	imul	r8, r8, 32				; 00000020H
	mov	QWORD PTR tv145[rsp], r8
	mov	r9, QWORD PTR tokenarray$[rsp]
	mov	r9d, DWORD PTR [r9+rax+16]
	mov	r8d, ecx
	mov	rax, QWORD PTR tokenarray$[rsp]
	mov	rcx, QWORD PTR tv145[rsp]
	mov	rcx, QWORD PTR [rax+rcx+8]
	call	myatoi128

; 366  :         //opnd->llvalue = tokenarray[i].value64;
; 367  :         //opnd->hlvalue = ( tokenarray[i].numflg == NF_NULL ? 0 : *(uint_64 *)( tokenarray[i].string_ptr - sizeof(uint_64) ) );
; 368  :         break;

	jmp	$LN2@get_operan
$LN19@get_operan:

; 369  :     case T_STRING:
; 370  :         DebugMsg1(("%u get_operand: T_STRING, %s, size=%u\n", evallvl, tokenarray[i].string_ptr, tokenarray[i].stringlen ));

	movsxd	rax, DWORD PTR i$[rsp]
	imul	rax, rax, 32				; 00000020H
	movsxd	rcx, DWORD PTR i$[rsp]
	imul	rcx, rcx, 32				; 00000020H
	mov	rdx, QWORD PTR tokenarray$[rsp]
	mov	r9d, DWORD PTR [rdx+rax+16]
	mov	rax, QWORD PTR tokenarray$[rsp]
	mov	r8, QWORD PTR [rax+rcx+8]
	mov	edx, DWORD PTR evallvl
	lea	rcx, OFFSET FLAT:$SG11125
	call	DoDebugMsg1

; 371  :         /* string enclosed in <> or {} are rejected since v1.94! */
; 372  : 		if (tokenarray[i].string_delim != '"' && tokenarray[i].string_delim != '\'') {

	movsxd	rax, DWORD PTR i$[rsp]
	imul	rax, rax, 32				; 00000020H
	mov	rcx, QWORD PTR tokenarray$[rsp]
	movsx	eax, BYTE PTR [rcx+rax+1]
	cmp	eax, 34					; 00000022H
	je	$LN20@get_operan
	movsxd	rax, DWORD PTR i$[rsp]
	imul	rax, rax, 32				; 00000020H
	mov	rcx, QWORD PTR tokenarray$[rsp]
	movsx	eax, BYTE PTR [rcx+rax+1]
	cmp	eax, 39					; 00000027H
	je	$LN20@get_operan

; 373  : 			/* here is handled EVEX Static Rounding Mode
; 374  : 			* {sae},   {rn-sae},{rd-sae},{ru-sae} {rz-sae}
; 375  : 			* ZLLBVAAA ZLLBVAAA ZLLBVAAA ZLLBVAAA ZLLBVAAA
; 376  : 			* 00010000 00010000 00110000 01010000 01110000
; 377  : 			* to destinguish between SAE and RN  I added 0x10
; 378  : 			* to all 4 other decorators
; 379  : 			* which will be subtracted in codegen.c
; 380  : 			*/
; 381  : 			if ((tokenarray[i].string_delim == '{') &&

	movsxd	rax, DWORD PTR i$[rsp]
	imul	rax, rax, 32				; 00000020H
	mov	rcx, QWORD PTR tokenarray$[rsp]
	movsx	eax, BYTE PTR [rcx+rax+1]
	cmp	eax, 123				; 0000007bH
	jne	SHORT $LN21@get_operan
	movsxd	rax, DWORD PTR i$[rsp]
	imul	rax, rax, 32				; 00000020H
	mov	r8d, 6
	lea	rdx, OFFSET FLAT:$SG11129
	mov	rcx, QWORD PTR tokenarray$[rsp]
	mov	rcx, QWORD PTR [rcx+rax+8]
	call	memcmp
	test	eax, eax
	jne	SHORT $LN21@get_operan

; 382  : 				(0 == memcmp(tokenarray[i].string_ptr, "rn-sae", 6))) {
; 383  : 				if (!evex) EmitError(UNAUTHORISED_USE_OF_EVEX_ENCODING);

	movzx	eax, BYTE PTR evex
	test	eax, eax
	jne	SHORT $LN23@get_operan
	mov	ecx, 278				; 00000116H
	call	EmitError
$LN23@get_operan:

; 384  : 				opnd->kind = EXPR_DECORATOR;

	mov	rax, QWORD PTR opnd$[rsp]
	mov	DWORD PTR [rax+60], 4

; 385  : 				opnd->saeflags = 0x20;

	mov	rax, QWORD PTR opnd$[rsp]
	mov	BYTE PTR [rax+70], 32			; 00000020H

; 386  : 				break;

	jmp	$LN2@get_operan

; 387  : 			}

	jmp	$LN22@get_operan
$LN21@get_operan:

; 388  : 			else if ((tokenarray[i].string_delim == '{') &&

	movsxd	rax, DWORD PTR i$[rsp]
	imul	rax, rax, 32				; 00000020H
	mov	rcx, QWORD PTR tokenarray$[rsp]
	movsx	eax, BYTE PTR [rcx+rax+1]
	cmp	eax, 123				; 0000007bH
	jne	SHORT $LN24@get_operan
	movsxd	rax, DWORD PTR i$[rsp]
	imul	rax, rax, 32				; 00000020H
	mov	r8d, 6
	lea	rdx, OFFSET FLAT:$SG11133
	mov	rcx, QWORD PTR tokenarray$[rsp]
	mov	rcx, QWORD PTR [rcx+rax+8]
	call	memcmp
	test	eax, eax
	jne	SHORT $LN24@get_operan

; 389  : 				(0 == memcmp(tokenarray[i].string_ptr, "rd-sae", 6))) {
; 390  : 				if (!evex) EmitError(UNAUTHORISED_USE_OF_EVEX_ENCODING);

	movzx	eax, BYTE PTR evex
	test	eax, eax
	jne	SHORT $LN26@get_operan
	mov	ecx, 278				; 00000116H
	call	EmitError
$LN26@get_operan:

; 391  : 				opnd->kind = EXPR_DECORATOR;

	mov	rax, QWORD PTR opnd$[rsp]
	mov	DWORD PTR [rax+60], 4

; 392  : 				opnd->saeflags = 0x40;

	mov	rax, QWORD PTR opnd$[rsp]
	mov	BYTE PTR [rax+70], 64			; 00000040H

; 393  : 				break;

	jmp	$LN2@get_operan

; 394  : 			}

	jmp	$LN25@get_operan
$LN24@get_operan:

; 395  : 			else if ((tokenarray[i].string_delim == '{') &&

	movsxd	rax, DWORD PTR i$[rsp]
	imul	rax, rax, 32				; 00000020H
	mov	rcx, QWORD PTR tokenarray$[rsp]
	movsx	eax, BYTE PTR [rcx+rax+1]
	cmp	eax, 123				; 0000007bH
	jne	SHORT $LN27@get_operan
	movsxd	rax, DWORD PTR i$[rsp]
	imul	rax, rax, 32				; 00000020H
	mov	r8d, 6
	lea	rdx, OFFSET FLAT:$SG11137
	mov	rcx, QWORD PTR tokenarray$[rsp]
	mov	rcx, QWORD PTR [rcx+rax+8]
	call	memcmp
	test	eax, eax
	jne	SHORT $LN27@get_operan

; 396  : 				(0 == memcmp(tokenarray[i].string_ptr, "ru-sae", 6))) {
; 397  : 				if (!evex) EmitError(UNAUTHORISED_USE_OF_EVEX_ENCODING);

	movzx	eax, BYTE PTR evex
	test	eax, eax
	jne	SHORT $LN29@get_operan
	mov	ecx, 278				; 00000116H
	call	EmitError
$LN29@get_operan:

; 398  : 				opnd->kind = EXPR_DECORATOR;

	mov	rax, QWORD PTR opnd$[rsp]
	mov	DWORD PTR [rax+60], 4

; 399  : 				opnd->saeflags = 0x60;

	mov	rax, QWORD PTR opnd$[rsp]
	mov	BYTE PTR [rax+70], 96			; 00000060H

; 400  : 				break;

	jmp	$LN2@get_operan

; 401  : 			}

	jmp	$LN28@get_operan
$LN27@get_operan:

; 402  : 			else if ((tokenarray[i].string_delim == '{') &&

	movsxd	rax, DWORD PTR i$[rsp]
	imul	rax, rax, 32				; 00000020H
	mov	rcx, QWORD PTR tokenarray$[rsp]
	movsx	eax, BYTE PTR [rcx+rax+1]
	cmp	eax, 123				; 0000007bH
	jne	SHORT $LN30@get_operan
	movsxd	rax, DWORD PTR i$[rsp]
	imul	rax, rax, 32				; 00000020H
	mov	r8d, 6
	lea	rdx, OFFSET FLAT:$SG11141
	mov	rcx, QWORD PTR tokenarray$[rsp]
	mov	rcx, QWORD PTR [rcx+rax+8]
	call	memcmp
	test	eax, eax
	jne	SHORT $LN30@get_operan

; 403  : 				(0 == memcmp(tokenarray[i].string_ptr, "rz-sae", 6))) {
; 404  : 				if (!evex) EmitError(UNAUTHORISED_USE_OF_EVEX_ENCODING);

	movzx	eax, BYTE PTR evex
	test	eax, eax
	jne	SHORT $LN32@get_operan
	mov	ecx, 278				; 00000116H
	call	EmitError
$LN32@get_operan:

; 405  : 				opnd->kind = EXPR_DECORATOR;

	mov	rax, QWORD PTR opnd$[rsp]
	mov	DWORD PTR [rax+60], 4

; 406  : 				opnd->saeflags = 0x80;

	mov	rax, QWORD PTR opnd$[rsp]
	mov	BYTE PTR [rax+70], 128			; 00000080H

; 407  : 				break;

	jmp	$LN2@get_operan

; 408  : 			}

	jmp	$LN31@get_operan
$LN30@get_operan:

; 409  : 			else if ((tokenarray[i].string_delim == '{') &&

	movsxd	rax, DWORD PTR i$[rsp]
	imul	rax, rax, 32				; 00000020H
	mov	rcx, QWORD PTR tokenarray$[rsp]
	movsx	eax, BYTE PTR [rcx+rax+1]
	cmp	eax, 123				; 0000007bH
	jne	SHORT $LN33@get_operan
	movsxd	rax, DWORD PTR i$[rsp]
	imul	rax, rax, 32				; 00000020H
	mov	r8d, 3
	lea	rdx, OFFSET FLAT:$SG11145
	mov	rcx, QWORD PTR tokenarray$[rsp]
	mov	rcx, QWORD PTR [rcx+rax+8]
	call	memcmp
	test	eax, eax
	jne	SHORT $LN33@get_operan

; 410  : 				(0 == memcmp(tokenarray[i].string_ptr, "sae", 3))) {
; 411  : 				if (!evex) EmitError(UNAUTHORISED_USE_OF_EVEX_ENCODING);

	movzx	eax, BYTE PTR evex
	test	eax, eax
	jne	SHORT $LN35@get_operan
	mov	ecx, 278				; 00000116H
	call	EmitError
$LN35@get_operan:

; 412  : 				opnd->kind = EXPR_DECORATOR;

	mov	rax, QWORD PTR opnd$[rsp]
	mov	DWORD PTR [rax+60], 4

; 413  : 				opnd->saeflags = 0x10;

	mov	rax, QWORD PTR opnd$[rsp]
	mov	BYTE PTR [rax+70], 16

; 414  : 				break;

	jmp	$LN2@get_operan

; 415  : 			}

	jmp	SHORT $LN34@get_operan
$LN33@get_operan:

; 416  : 			else if (opnd->is_opattr) /* OPATTR operator accepts anything! */

	mov	rax, QWORD PTR opnd$[rsp]
	mov	eax, DWORD PTR [rax+72]
	shr	eax, 4
	and	eax, 1
	test	eax, eax
	je	SHORT $LN36@get_operan

; 417  : 				break;

	jmp	$LN2@get_operan
$LN36@get_operan:
$LN34@get_operan:
$LN31@get_operan:
$LN28@get_operan:
$LN25@get_operan:
$LN22@get_operan:

; 418  : 			/* v2.0: display a comprehensible error msg if a quote is missing */
; 419  : 			if (tokenarray[i].string_delim == NULLC &&

	movsxd	rax, DWORD PTR i$[rsp]
	imul	rax, rax, 32				; 00000020H
	mov	rcx, QWORD PTR tokenarray$[rsp]
	movsx	eax, BYTE PTR [rcx+rax+1]
	test	eax, eax
	jne	SHORT $LN37@get_operan
	movsxd	rax, DWORD PTR i$[rsp]
	imul	rax, rax, 32				; 00000020H
	mov	rcx, QWORD PTR tokenarray$[rsp]
	mov	rax, QWORD PTR [rcx+rax+8]
	movsx	eax, BYTE PTR [rax]
	cmp	eax, 34					; 00000022H
	je	SHORT $LN39@get_operan
	movsxd	rax, DWORD PTR i$[rsp]
	imul	rax, rax, 32				; 00000020H
	mov	rcx, QWORD PTR tokenarray$[rsp]
	mov	rax, QWORD PTR [rcx+rax+8]
	movsx	eax, BYTE PTR [rax]
	cmp	eax, 39					; 00000027H
	jne	SHORT $LN37@get_operan
$LN39@get_operan:

; 420  : 				(*tokenarray[i].string_ptr == '"' || *tokenarray[i].string_ptr == '\''))
; 421  : 				fnEmitErr(MISSING_QUOTATION_MARK_IN_STRING);

	mov	ecx, 166				; 000000a6H
	call	QWORD PTR fnEmitErr
	jmp	SHORT $LN38@get_operan
$LN37@get_operan:

; 422  : 			else
; 423  : 				fnEmitErr(MISSING_QUOTATION_MARK_IN_STRING, tokenarray[i].tokpos);

	movsxd	rax, DWORD PTR i$[rsp]
	imul	rax, rax, 32				; 00000020H
	mov	rcx, QWORD PTR tokenarray$[rsp]
	mov	rdx, QWORD PTR [rcx+rax+24]
	mov	ecx, 166				; 000000a6H
	call	QWORD PTR fnEmitErr
$LN38@get_operan:

; 424  : 			return(ERROR);

	mov	eax, -1
	jmp	$LN1@get_operan
$LN20@get_operan:

; 425  : 		}
; 426  :         opnd->kind = EXPR_CONST;

	mov	rax, QWORD PTR opnd$[rsp]
	mov	DWORD PTR [rax+60], 0

; 427  :         opnd->quoted_string = &tokenarray[i];

	movsxd	rax, DWORD PTR i$[rsp]
	imul	rax, rax, 32				; 00000020H
	mov	rcx, QWORD PTR tokenarray$[rsp]
	add	rcx, rax
	mov	rax, rcx
	mov	rcx, QWORD PTR opnd$[rsp]
	mov	QWORD PTR [rcx+16], rax

; 428  :         //opnd->value = 0;
; 429  :         tmp = tokenarray[i].string_ptr + 1; /* skip the quote */

	movsxd	rax, DWORD PTR i$[rsp]
	imul	rax, rax, 32				; 00000020H
	mov	rcx, QWORD PTR tokenarray$[rsp]
	mov	rax, QWORD PTR [rcx+rax+8]
	inc	rax
	mov	QWORD PTR tmp$[rsp], rax

; 430  : 
; 431  :         /* v2.06: use max. 16 bytes to create the "value".
; 432  :          * Prior to 2.06, max 8 bytes were used for 64-bit and
; 433  :          * max 4 bytes were used for 16-/32-bit.
; 434  :          */
; 435  :         j = ( tokenarray[i].stringlen > sizeof( opnd->chararray ) ? sizeof( opnd->chararray ) : tokenarray[i].stringlen );

	movsxd	rax, DWORD PTR i$[rsp]
	imul	rax, rax, 32				; 00000020H
	mov	rcx, QWORD PTR tokenarray$[rsp]
	mov	eax, DWORD PTR [rcx+rax+16]
	cmp	rax, 16
	jbe	SHORT $LN135@get_operan
	mov	QWORD PTR tv325[rsp], 16
	jmp	SHORT $LN136@get_operan
$LN135@get_operan:
	movsxd	rax, DWORD PTR i$[rsp]
	imul	rax, rax, 32				; 00000020H
	mov	rcx, QWORD PTR tokenarray$[rsp]
	mov	eax, DWORD PTR [rcx+rax+16]
	mov	QWORD PTR tv325[rsp], rax
$LN136@get_operan:
	mov	eax, DWORD PTR tv325[rsp]
	mov	DWORD PTR j$[rsp], eax

; 436  :         for( ; j; j-- )

	jmp	SHORT $LN6@get_operan
$LN4@get_operan:
	mov	eax, DWORD PTR j$[rsp]
	dec	eax
	mov	DWORD PTR j$[rsp], eax
$LN6@get_operan:
	cmp	DWORD PTR j$[rsp], 0
	je	SHORT $LN5@get_operan

; 437  :             opnd->chararray[j-1] = *tmp++;

	mov	eax, DWORD PTR j$[rsp]
	dec	eax
	cdqe
	mov	rcx, QWORD PTR opnd$[rsp]
	mov	rdx, QWORD PTR tmp$[rsp]
	movzx	edx, BYTE PTR [rdx]
	mov	BYTE PTR [rcx+rax], dl
	mov	rax, QWORD PTR tmp$[rsp]
	inc	rax
	mov	QWORD PTR tmp$[rsp], rax
	jmp	SHORT $LN4@get_operan
$LN5@get_operan:

; 438  :         break;

	jmp	$LN2@get_operan
$LN40@get_operan:

; 439  :     case T_REG:
; 440  :         DebugMsg1(( "%u get_operand: T_REG, string=%s, tokval=%u, regno=%u\n", evallvl, tokenarray[i].string_ptr, tokenarray[i].tokval, tokenarray[i].bytval ));        

	movsxd	rax, DWORD PTR i$[rsp]
	imul	rax, rax, 32				; 00000020H
	mov	rcx, QWORD PTR tokenarray$[rsp]
	movzx	eax, BYTE PTR [rcx+rax+1]
	movsxd	rcx, DWORD PTR i$[rsp]
	imul	rcx, rcx, 32				; 00000020H
	movsxd	rdx, DWORD PTR i$[rsp]
	imul	rdx, rdx, 32				; 00000020H
	mov	DWORD PTR [rsp+32], eax
	mov	rax, QWORD PTR tokenarray$[rsp]
	mov	r9d, DWORD PTR [rax+rcx+16]
	mov	rax, QWORD PTR tokenarray$[rsp]
	mov	r8, QWORD PTR [rax+rdx+8]
	mov	edx, DWORD PTR evallvl
	lea	rcx, OFFSET FLAT:$SG11152
	call	DoDebugMsg1

; 441  :         opnd->kind = EXPR_REG;

	mov	rax, QWORD PTR opnd$[rsp]
	mov	DWORD PTR [rax+60], 2

; 442  :         opnd->base_reg = &tokenarray[i];

	movsxd	rax, DWORD PTR i$[rsp]
	imul	rax, rax, 32				; 00000020H
	mov	rcx, QWORD PTR tokenarray$[rsp]
	add	rcx, rax
	mov	rax, rcx
	mov	rcx, QWORD PTR opnd$[rsp]
	mov	QWORD PTR [rcx+24], rax

; 443  :         j = tokenarray[i].tokval;

	movsxd	rax, DWORD PTR i$[rsp]
	imul	rax, rax, 32				; 00000020H
	mov	rcx, QWORD PTR tokenarray$[rsp]
	mov	eax, DWORD PTR [rcx+rax+16]
	mov	DWORD PTR j$[rsp], eax

; 444  :         
; 445  :         /* check if cpu is sufficient for register */
; 446  :         if( ( ( GetCpuSp( j ) & P_EXT_MASK ) &&
; 447  :              (( GetCpuSp( j ) & ModuleInfo.curr_cpu & P_EXT_MASK) == 0) ||

	movsxd	rax, DWORD PTR j$[rsp]
	imul	rax, rax, 12
	lea	rcx, OFFSET FLAT:SpecialTable
	movzx	eax, WORD PTR [rcx+rax+8]
	and	eax, 65280				; 0000ff00H
	test	eax, eax
	je	SHORT $LN43@get_operan
	movsxd	rax, DWORD PTR j$[rsp]
	imul	rax, rax, 12
	lea	rcx, OFFSET FLAT:SpecialTable
	movzx	eax, WORD PTR [rcx+rax+8]
	and	eax, DWORD PTR ModuleInfo+392
	and	eax, 65280				; 0000ff00H
	test	eax, eax
	je	SHORT $LN42@get_operan
$LN43@get_operan:
	mov	eax, DWORD PTR ModuleInfo+392
	and	eax, 240				; 000000f0H
	movsxd	rcx, DWORD PTR j$[rsp]
	imul	rcx, rcx, 12
	lea	rdx, OFFSET FLAT:SpecialTable
	movzx	ecx, WORD PTR [rdx+rcx+8]
	and	ecx, 240				; 000000f0H
	cmp	eax, ecx
	jge	SHORT $LN41@get_operan
$LN42@get_operan:

; 448  :              ( ModuleInfo.curr_cpu & P_CPU_MASK ) < ( GetCpuSp( j ) & P_CPU_MASK ) ) ) {
; 449  :             /* v2.11: do not exit in indirect mode; avoids additional syntax error caused by ']' */
; 450  :             if ( flags & EXPF_IN_SQBR ) {

	movzx	eax, BYTE PTR flags$[rsp]
	and	eax, 8
	test	eax, eax
	je	SHORT $LN44@get_operan

; 451  :                 opnd->kind = EXPR_ERROR;

	mov	rax, QWORD PTR opnd$[rsp]
	mov	DWORD PTR [rax+60], -1

; 452  :                 fnEmitErr( INSTRUCTION_OR_REGISTER_NOT_ACCEPTED_IN_CURRENT_CPU_MODE );

	mov	ecx, 30
	call	QWORD PTR fnEmitErr

; 453  :             } else

	jmp	SHORT $LN45@get_operan
$LN44@get_operan:

; 454  :                 return( fnEmitErr( INSTRUCTION_OR_REGISTER_NOT_ACCEPTED_IN_CURRENT_CPU_MODE ) );

	mov	ecx, 30
	call	QWORD PTR fnEmitErr
	jmp	$LN1@get_operan
$LN45@get_operan:
$LN41@get_operan:

; 455  :         }
; 456  : 
; 457  :         if( flags & EXPF_IN_SQBR ) {

	movzx	eax, BYTE PTR flags$[rsp]
	and	eax, 8
	test	eax, eax
	je	$LN46@get_operan

; 458  :             /* a valid index register? */
; 459  :             if ( GetSflagsSp( j ) & SFR_IREG ) {

	movsxd	rax, DWORD PTR j$[rsp]
	imul	rax, rax, 12
	lea	rcx, OFFSET FLAT:SpecialTable
	mov	eax, DWORD PTR [rcx+rax+4]
	and	eax, 32					; 00000020H
	test	eax, eax
	je	SHORT $LN47@get_operan

; 460  :                 opnd->indirect = TRUE;

	mov	rax, QWORD PTR opnd$[rsp]
	mov	eax, DWORD PTR [rax+72]
	or	eax, 1
	mov	rcx, QWORD PTR opnd$[rsp]
	mov	DWORD PTR [rcx+72], eax

; 461  :                 opnd->assumecheck = TRUE;

	mov	rax, QWORD PTR opnd$[rsp]
	mov	eax, DWORD PTR [rax+72]
	or	eax, 64					; 00000040H
	mov	rcx, QWORD PTR opnd$[rsp]
	mov	DWORD PTR [rcx+72], eax
	jmp	$LN48@get_operan
$LN47@get_operan:

; 462  :             } else if ( GetValueSp( j ) & OP_SR ) {

	movsxd	rax, DWORD PTR j$[rsp]
	imul	rax, rax, 12
	lea	rcx, OFFSET FLAT:SpecialTable
	mov	eax, DWORD PTR [rcx+rax]
	and	eax, 24576				; 00006000H
	test	eax, eax
	je	SHORT $LN49@get_operan

; 463  :                 /* a segment register inside square brackets is only
; 464  :                  * accepted by Masm if it is the segment part of an
; 465  :                  * address (mov ax,[bx+cs:label])!
; 466  :                  */
; 467  :                 /* v2.10: check moved here avain. regression v2.08-2.09, where
; 468  :                  * it was in colon_op(). see regression test OVERRID3.ASC.
; 469  :                  */
; 470  :                 //if( tokenarray[i+1].token != T_COLON ) {
; 471  :                 if( tokenarray[i+1].token != T_COLON ||

	mov	eax, DWORD PTR i$[rsp]
	inc	eax
	cdqe
	imul	rax, rax, 32				; 00000020H
	mov	rcx, QWORD PTR tokenarray$[rsp]
	movzx	eax, BYTE PTR [rcx+rax]
	cmp	eax, 58					; 0000003aH
	jne	SHORT $LN52@get_operan
	movzx	eax, BYTE PTR Options+143
	test	eax, eax
	je	SHORT $LN51@get_operan
	mov	eax, DWORD PTR i$[rsp]
	add	eax, 2
	cdqe
	imul	rax, rax, 32				; 00000020H
	mov	rcx, QWORD PTR tokenarray$[rsp]
	movzx	eax, BYTE PTR [rcx+rax]
	cmp	eax, 2
	jne	SHORT $LN51@get_operan
$LN52@get_operan:

; 472  :                    ( Options.strict_masm_compat && tokenarray[i+2].token == T_REG ) ) {
; 473  :                     return( fnEmitErr( INVALID_USE_OF_REGISTER ) );

	mov	ecx, 170				; 000000aaH
	call	QWORD PTR fnEmitErr
	jmp	$LN1@get_operan
$LN51@get_operan:

; 474  :                 }
; 475  :             } else {

	jmp	SHORT $LN50@get_operan
$LN49@get_operan:

; 476  :                 if ( opnd->is_opattr ) /* v2.11: just set error for opattr */

	mov	rax, QWORD PTR opnd$[rsp]
	mov	eax, DWORD PTR [rax+72]
	shr	eax, 4
	and	eax, 1
	test	eax, eax
	je	SHORT $LN53@get_operan

; 477  :                     opnd->kind = EXPR_ERROR;

	mov	rax, QWORD PTR opnd$[rsp]
	mov	DWORD PTR [rax+60], -1
	jmp	SHORT $LN54@get_operan
$LN53@get_operan:

; 478  :                 else
; 479  :                   opnd->indirect = TRUE;

	mov	rax, QWORD PTR opnd$[rsp]
	mov	eax, DWORD PTR [rax+72]
	or	eax, 1
	mov	rcx, QWORD PTR opnd$[rsp]
	mov	DWORD PTR [rcx+72], eax
$LN54@get_operan:
$LN50@get_operan:
$LN48@get_operan:
$LN46@get_operan:

; 480  :                     //return( fnEmitErr( MUST_BE_INDEX_OR_BASE_REGISTER ) );
; 481  :             }
; 482  :         }
; 483  :         break;

	jmp	$LN2@get_operan
$LN55@get_operan:

; 484  :     case T_ID:
; 485  :         tmp = tokenarray[i].string_ptr;

	movsxd	rax, DWORD PTR i$[rsp]
	imul	rax, rax, 32				; 00000020H
	mov	rcx, QWORD PTR tokenarray$[rsp]
	mov	rax, QWORD PTR [rcx+rax+8]
	mov	QWORD PTR tmp$[rsp], rax

; 486  :         //if ( opnd->type ) { /* v2.11 */
; 487  :         if ( opnd->is_dot ) {

	mov	rax, QWORD PTR opnd$[rsp]
	mov	eax, DWORD PTR [rax+72]
	shr	eax, 7
	and	eax, 1
	test	eax, eax
	je	$LN56@get_operan

; 488  :             DebugMsg1(("%u get_operand: T_ID, is_dot=1, id=%s, opnd.type=%s\n", evallvl, tokenarray[i].string_ptr, opnd->type ? opnd->type->name : "NULL" ));

	mov	rax, QWORD PTR opnd$[rsp]
	cmp	QWORD PTR [rax+96], 0
	je	SHORT $LN137@get_operan
	mov	rax, QWORD PTR opnd$[rsp]
	mov	rax, QWORD PTR [rax+96]
	mov	rax, QWORD PTR [rax+8]
	mov	QWORD PTR tv451[rsp], rax
	jmp	SHORT $LN138@get_operan
$LN137@get_operan:
	lea	rax, OFFSET FLAT:$SG11170
	mov	QWORD PTR tv451[rsp], rax
$LN138@get_operan:
	movsxd	rax, DWORD PTR i$[rsp]
	imul	rax, rax, 32				; 00000020H
	mov	r9, QWORD PTR tv451[rsp]
	mov	rcx, QWORD PTR tokenarray$[rsp]
	mov	r8, QWORD PTR [rcx+rax+8]
	mov	edx, DWORD PTR evallvl
	lea	rcx, OFFSET FLAT:$SG11171
	call	DoDebugMsg1

; 489  :             //__debugbreak();
; 490  :             opnd->value = 0;

	mov	rax, QWORD PTR opnd$[rsp]
	mov	DWORD PTR [rax], 0

; 491  :             sym = ( opnd->type ? SearchNameInStruct( opnd->type, tmp, &opnd->uvalue, 0 ) : NULL );

	mov	rax, QWORD PTR opnd$[rsp]
	cmp	QWORD PTR [rax+96], 0
	je	SHORT $LN139@get_operan
	mov	rax, QWORD PTR opnd$[rsp]
	xor	r9d, r9d
	mov	r8, rax
	mov	rdx, QWORD PTR tmp$[rsp]
	mov	rax, QWORD PTR opnd$[rsp]
	mov	rcx, QWORD PTR [rax+96]
	call	SearchNameInStruct
	mov	QWORD PTR tv470[rsp], rax
	jmp	SHORT $LN140@get_operan
$LN139@get_operan:
	mov	QWORD PTR tv470[rsp], 0
$LN140@get_operan:
	mov	rax, QWORD PTR tv470[rsp]
	mov	QWORD PTR sym$[rsp], rax

; 492  :             DebugMsg1(("get_operand(%s): is_dot, sym=%s, offset=%" I32_SPEC "Xh\n",

	cmp	QWORD PTR sym$[rsp], 0
	je	SHORT $LN141@get_operan
	mov	rax, QWORD PTR sym$[rsp]
	mov	rax, QWORD PTR [rax+8]
	mov	QWORD PTR tv475[rsp], rax
	jmp	SHORT $LN142@get_operan
$LN141@get_operan:
	lea	rax, OFFSET FLAT:$SG11172
	mov	QWORD PTR tv475[rsp], rax
$LN142@get_operan:
	mov	rax, QWORD PTR opnd$[rsp]
	mov	r9d, DWORD PTR [rax]
	mov	r8, QWORD PTR tv475[rsp]
	mov	rdx, QWORD PTR tmp$[rsp]
	lea	rcx, OFFSET FLAT:$SG11173
	call	DoDebugMsg1

; 493  :                        tmp, sym ? sym->name : "NULL", opnd->uvalue ));
; 494  :             if ( sym == NULL ) {

	cmp	QWORD PTR sym$[rsp], 0
	jne	$LN58@get_operan

; 495  :                 sym = SymSearch( tmp );

	mov	rcx, QWORD PTR tmp$[rsp]
	call	SymFind
	mov	QWORD PTR sym$[rsp], rax

; 496  :                 if ( sym ) {

	cmp	QWORD PTR sym$[rsp], 0
	je	$LN59@get_operan

; 497  :                     /*
; 498  :                      * skip a type specifier matching the data item's type
; 499  :                      * that's something like "<item>.<type>.<member>"
; 500  :                      */
; 501  :                     if ( sym->state == SYM_TYPE ) {

	mov	rax, QWORD PTR sym$[rsp]
	cmp	DWORD PTR [rax+32], 7
	jne	SHORT $LN60@get_operan

; 502  :                         /*
; 503  :                          * v2.07: "if" added.
; 504  :                          * Masm accepts a different type spec if the "assumed"
; 505  :                          * type is undefined
; 506  :                          * v2.09: the change in v2.07 is a regression. if it's a type,
; 507  :                          * then "usually" assume a type coercion and "switch" to the
; 508  :                          * new type - but not for register assume. This isn't fixed
; 509  :                          * yet, because there's no way to find out if a register assume
; 510  :                          * did set field 'type'.
; 511  :                          * v2.09: oldstructs condition added, see regression test dotop4.asm.
; 512  :                          * v2.11: fixme? opnd->type may be NULL here?
; 513  :                          * v2.12: for opnd->type==NULL test case, see expr5.aso.
; 514  :                          */
; 515  :                         //if ( sym == opnd->type || opnd->type->isdefined == FALSE )
; 516  :                         //if ( sym == opnd->type || opnd->type->isdefined == FALSE || ModuleInfo.oldstructs )
; 517  :                         if ( sym == opnd->type || ( opnd->type && opnd->type->isdefined == FALSE ) || ModuleInfo.oldstructs )

	mov	rax, QWORD PTR opnd$[rsp]
	mov	rax, QWORD PTR [rax+96]
	cmp	QWORD PTR sym$[rsp], rax
	je	SHORT $LN64@get_operan
	mov	rax, QWORD PTR opnd$[rsp]
	cmp	QWORD PTR [rax+96], 0
	je	SHORT $LN65@get_operan
	mov	rax, QWORD PTR opnd$[rsp]
	mov	rax, QWORD PTR [rax+96]
	movzx	eax, BYTE PTR [rax+40]
	shr	al, 1
	and	al, 1
	movzx	eax, al
	test	eax, eax
	je	SHORT $LN64@get_operan
$LN65@get_operan:
	mov	eax, DWORD PTR ModuleInfo+408
	shr	eax, 8
	and	eax, 1
	test	eax, eax
	je	SHORT $LN62@get_operan
$LN64@get_operan:

; 518  :                             ; //opnd->sym = sym;

	jmp	SHORT $LN63@get_operan
$LN62@get_operan:

; 519  :                         else {
; 520  :                             sym = NULL;

	mov	QWORD PTR sym$[rsp], 0
$LN63@get_operan:

; 521  :                         }

	jmp	SHORT $LN61@get_operan
$LN60@get_operan:

; 522  :                     } else if ( ModuleInfo.oldstructs &&

	mov	eax, DWORD PTR ModuleInfo+408
	shr	eax, 8
	and	eax, 1
	test	eax, eax
	je	SHORT $LN66@get_operan
	mov	rax, QWORD PTR sym$[rsp]
	cmp	DWORD PTR [rax+32], 6
	je	SHORT $LN68@get_operan
	mov	rax, QWORD PTR sym$[rsp]
	cmp	DWORD PTR [rax+32], 2
	je	SHORT $LN68@get_operan
	mov	rax, QWORD PTR sym$[rsp]
	cmp	DWORD PTR [rax+32], 1
	jne	SHORT $LN66@get_operan
$LN68@get_operan:

; 523  :                                ( sym->state == SYM_STRUCT_FIELD ||
; 524  :                                 sym->state == SYM_EXTERNAL || /* v2.01: added */
; 525  :                                 /* v2.05: changed */
; 526  :                                 //( sym->state == SYM_INTERNAL && sym->mem_type == MT_ABS ) ) )
; 527  :                                 sym->state == SYM_INTERNAL ) )
; 528  :                         //opnd->sym = sym;
; 529  :                         ;

	jmp	SHORT $LN67@get_operan
$LN66@get_operan:

; 530  :                     else {
; 531  :                         /* fixme: clear sym?
; 532  :                          * if the symbol is not a type, it's an error which can
; 533  :                          * be detected in pass 1 already. dot_op() will emit
; 534  :                          * 'struct field expected' if sym isn't cleared.
; 535  :                          * v2.11: always clear sym.
; 536  :                          */
; 537  :                         //if ( opnd->type != nullstruct )
; 538  :                         sym = NULL;

	mov	QWORD PTR sym$[rsp], 0
$LN67@get_operan:
$LN61@get_operan:
$LN59@get_operan:
$LN58@get_operan:

; 539  :                     }
; 540  :                 }
; 541  :             }
; 542  :         } else {

	jmp	$LN57@get_operan
$LN56@get_operan:

; 543  :             DebugMsg1(("%u get_operand: T_ID, id=%s\n", evallvl, tokenarray[i].string_ptr ));

	movsxd	rax, DWORD PTR i$[rsp]
	imul	rax, rax, 32				; 00000020H
	mov	rcx, QWORD PTR tokenarray$[rsp]
	mov	r8, QWORD PTR [rcx+rax+8]
	mov	edx, DWORD PTR evallvl
	lea	rcx, OFFSET FLAT:$SG11185
	call	DoDebugMsg1

; 544  :             /* ensure anonym labels are uppercase */
; 545  :             /* v2.06: changed. Previously member 'string_ptr' was used to
; 546  :              * store the anonymous label, but one cannot safely assume that
; 547  :              * there's enough free space for a larger symbol name! It (partly)
; 548  :              * worked by accident, because @F/@B usually are the last tokens
; 549  :              * in a line [ but see: .if ( eax == @F && ecx == 2 ) ].
; 550  :              */
; 551  :             if ( *tmp == '@' && *(tmp+2 ) == NULLC ) {

	mov	rax, QWORD PTR tmp$[rsp]
	movsx	eax, BYTE PTR [rax]
	cmp	eax, 64					; 00000040H
	jne	SHORT $LN69@get_operan
	mov	rax, QWORD PTR tmp$[rsp]
	movsx	eax, BYTE PTR [rax+2]
	test	eax, eax
	jne	SHORT $LN69@get_operan

; 552  :                 if ( *(tmp+1) == 'b' || *(tmp+1 ) == 'B' )

	mov	rax, QWORD PTR tmp$[rsp]
	movsx	eax, BYTE PTR [rax+1]
	cmp	eax, 98					; 00000062H
	je	SHORT $LN72@get_operan
	mov	rax, QWORD PTR tmp$[rsp]
	movsx	eax, BYTE PTR [rax+1]
	cmp	eax, 66					; 00000042H
	jne	SHORT $LN70@get_operan
$LN72@get_operan:

; 553  :                     tmp = GetAnonymousLabel( labelbuff, 0 );

	xor	edx, edx
	lea	rcx, QWORD PTR labelbuff$[rsp]
	call	GetAnonymousLabel
	mov	QWORD PTR tmp$[rsp], rax
	jmp	SHORT $LN71@get_operan
$LN70@get_operan:

; 554  :                 else if (*(tmp+1) == 'f' || *(tmp+1 ) == 'F' )

	mov	rax, QWORD PTR tmp$[rsp]
	movsx	eax, BYTE PTR [rax+1]
	cmp	eax, 102				; 00000066H
	je	SHORT $LN74@get_operan
	mov	rax, QWORD PTR tmp$[rsp]
	movsx	eax, BYTE PTR [rax+1]
	cmp	eax, 70					; 00000046H
	jne	SHORT $LN73@get_operan
$LN74@get_operan:

; 555  :                     tmp = GetAnonymousLabel( labelbuff, 1 );

	mov	edx, 1
	lea	rcx, QWORD PTR labelbuff$[rsp]
	call	GetAnonymousLabel
	mov	QWORD PTR tmp$[rsp], rax
$LN73@get_operan:
$LN71@get_operan:
$LN69@get_operan:

; 556  :             }
; 557  :             sym = SymSearch( tmp );

	mov	rcx, QWORD PTR tmp$[rsp]
	call	SymFind
	mov	QWORD PTR sym$[rsp], rax
$LN57@get_operan:

; 558  :         }
; 559  :         if ( sym == NULL ||
; 560  :             sym->state == SYM_UNDEFINED ||
; 561  :             ( sym->state == SYM_TYPE && sym->typekind == TYPE_NONE ) ||  /* v2.10: added */
; 562  : #if ALIAS_IN_EXPR == 0
; 563  :             sym->state == SYM_ALIAS || /* v2.04: added */
; 564  : #endif
; 565  :             sym->state == SYM_MACRO ||

	cmp	QWORD PTR sym$[rsp], 0
	je	SHORT $LN77@get_operan
	mov	rax, QWORD PTR sym$[rsp]
	cmp	DWORD PTR [rax+32], 0
	je	SHORT $LN77@get_operan
	mov	rax, QWORD PTR sym$[rsp]
	cmp	DWORD PTR [rax+32], 7
	jne	SHORT $LN78@get_operan
	mov	rax, QWORD PTR sym$[rsp]
	movzx	eax, BYTE PTR [rax+66]
	test	eax, eax
	je	SHORT $LN77@get_operan
$LN78@get_operan:
	mov	rax, QWORD PTR sym$[rsp]
	cmp	DWORD PTR [rax+32], 9
	je	SHORT $LN77@get_operan
	mov	rax, QWORD PTR sym$[rsp]
	cmp	DWORD PTR [rax+32], 10
	jne	$LN75@get_operan
$LN77@get_operan:

; 566  :             sym->state == SYM_TMACRO ) {
; 567  : 
; 568  :             /* for OPATTR, anything is ok */
; 569  :             if ( opnd->is_opattr ) {

	mov	rax, QWORD PTR opnd$[rsp]
	mov	eax, DWORD PTR [rax+72]
	shr	eax, 4
	and	eax, 1
	test	eax, eax
	je	SHORT $LN79@get_operan

; 570  :                 DebugMsg1(( "get_operand(%s): OPATTR, symbol invalid\n", tokenarray[i].string_ptr ));

	movsxd	rax, DWORD PTR i$[rsp]
	imul	rax, rax, 32				; 00000020H
	mov	rcx, QWORD PTR tokenarray$[rsp]
	mov	rdx, QWORD PTR [rcx+rax+8]
	lea	rcx, OFFSET FLAT:$SG11197
	call	DoDebugMsg1

; 571  :                 opnd->kind = EXPR_ERROR;

	mov	rax, QWORD PTR opnd$[rsp]
	mov	DWORD PTR [rax+60], -1

; 572  :                 break;

	jmp	$LN2@get_operan
$LN79@get_operan:

; 573  :             }
; 574  : #if 0 /* v2.10: obsolete, since fnEmitErr() won't display anything in "EQU" mode */
; 575  :             /* if it is EQU, don't display an error, but return ERROR */
; 576  :             if ( flags & EXPF_NOERRMSG ) {
; 577  :                 DebugMsg1(("get_operand(%s): EQU, symbol invalid\n", tokenarray[i].string_ptr));
; 578  :                 return( ERROR );
; 579  :             }
; 580  : #endif
; 581  :             if ( sym && ( sym->state == SYM_MACRO ||

	cmp	QWORD PTR sym$[rsp], 0
	je	SHORT $LN80@get_operan
	mov	rax, QWORD PTR sym$[rsp]
	cmp	DWORD PTR [rax+32], 9
	je	SHORT $LN81@get_operan
	mov	rax, QWORD PTR sym$[rsp]
	cmp	DWORD PTR [rax+32], 10
	jne	SHORT $LN80@get_operan
$LN81@get_operan:

; 582  : #if ALIAS_IN_EXPR == 0
; 583  :                          sym->state == SYM_ALIAS || /* v2.04: added */
; 584  : #endif
; 585  :                          sym->state == SYM_TMACRO ) ) {
; 586  :                 DebugMsg1(("get_operand(%s): symbol is macro/textmacro/alias!\n", tokenarray[i].string_ptr));

	movsxd	rax, DWORD PTR i$[rsp]
	imul	rax, rax, 32				; 00000020H
	mov	rcx, QWORD PTR tokenarray$[rsp]
	mov	rdx, QWORD PTR [rcx+rax+8]
	lea	rcx, OFFSET FLAT:$SG11200
	call	DoDebugMsg1

; 587  :                 fnEmitErr( INVALID_SYMBOL_TYPE_IN_EXPRESSION, sym->name );

	mov	rax, QWORD PTR sym$[rsp]
	mov	rdx, QWORD PTR [rax+8]
	mov	ecx, 243				; 000000f3H
	call	QWORD PTR fnEmitErr

; 588  :                 return( ERROR );

	mov	eax, -1
	jmp	$LN1@get_operan
$LN80@get_operan:

; 589  :             }
; 590  :             /* v2.11: flag EXPF_NOUNDEF won't accept undefined symbols anymore.
; 591  :              * previously, it did just avoid to create a label with state SYM_UNDEFINED -
; 592  :              * hence the old name, EXPF_NOLCREATE
; 593  :              */
; 594  :             //if( Parse_Pass == PASS_1 ) {
; 595  :             if( Parse_Pass == PASS_1 && !( flags & EXPF_NOUNDEF ) ) {

	cmp	DWORD PTR Parse_Pass, 0
	jne	$LN82@get_operan
	movzx	eax, BYTE PTR flags$[rsp]
	and	eax, 2
	test	eax, eax
	jne	$LN82@get_operan

; 596  :                 /* if symbol wasn't found, assume it is a forward ref! */
; 597  :                 if ( sym == NULL ) {

	cmp	QWORD PTR sym$[rsp], 0
	jne	$LN84@get_operan

; 598  :                     /* v2.11: flag EXPF_NOLCREATE has got another meaning */
; 599  :                     //if ( opnd->type == NULL && !( flags & EXPF_NOLCREATE ) ) { /* added v1.95 */
; 600  :                     if ( opnd->type == NULL ) {

	mov	rax, QWORD PTR opnd$[rsp]
	cmp	QWORD PTR [rax+96], 0
	jne	$LN85@get_operan

; 601  :                         sym = SymLookup( tmp );

	mov	rcx, QWORD PTR tmp$[rsp]
	call	SymLookup
	mov	QWORD PTR sym$[rsp], rax

; 602  :                         sym->state = SYM_UNDEFINED;

	mov	rax, QWORD PTR sym$[rsp]
	mov	DWORD PTR [rax+32], 0

; 603  :                         sym_add_table( &SymTables[TAB_UNDEF], (struct dsym *)sym ); /* add UNDEFINED */

	mov	eax, 16
	imul	rax, rax, 0
	lea	rcx, OFFSET FLAT:SymTables
	add	rcx, rax
	mov	rax, rcx
	mov	rdx, QWORD PTR sym$[rsp]
	mov	rcx, rax
	call	sym_add_table

; 604  :                         DebugMsg1(("get_operand(%s): symbol not (yet) defined, CurrProc=%s\n", tmp, CurrProc ? CurrProc->sym.name : "NULL" ));

	cmp	QWORD PTR CurrProc, 0
	je	SHORT $LN143@get_operan
	mov	rax, QWORD PTR CurrProc
	mov	rax, QWORD PTR [rax+8]
	mov	QWORD PTR tv592[rsp], rax
	jmp	SHORT $LN144@get_operan
$LN143@get_operan:
	lea	rax, OFFSET FLAT:$SG11206
	mov	QWORD PTR tv592[rsp], rax
$LN144@get_operan:
	mov	r8, QWORD PTR tv592[rsp]
	mov	rdx, QWORD PTR tmp$[rsp]
	lea	rcx, OFFSET FLAT:$SG11207
	call	DoDebugMsg1
	jmp	$LN86@get_operan
$LN85@get_operan:

; 605  :                     
; 606  :                     // } else if ( opnd->type == NULL || opnd->type != nullstruct ) { /* v2.08: if changed */
; 607  :                     // } else if ( opnd->type == NULL || opnd->type->typekind != TYPE_NONE ) { /* v2.11: if changed */
; 608  :                     } else if ( opnd->type->typekind != TYPE_NONE ) {

	mov	rax, QWORD PTR opnd$[rsp]
	mov	rax, QWORD PTR [rax+96]
	movzx	eax, BYTE PTR [rax+66]
	test	eax, eax
	je	$LN87@get_operan

; 609  :                         /* no struct or struct is known and defined */
; 610  :                         DebugMsg(("get_operand(%s): symbol error (type=%s typekind=%u)\n", tmp, opnd->type ? opnd->type->name : "NULL", opnd->type ? opnd->type->typekind : 0 ));

	mov	rax, QWORD PTR opnd$[rsp]
	cmp	QWORD PTR [rax+96], 0
	je	SHORT $LN145@get_operan
	mov	rax, QWORD PTR opnd$[rsp]
	mov	rax, QWORD PTR [rax+96]
	movzx	eax, BYTE PTR [rax+66]
	mov	DWORD PTR tv605[rsp], eax
	jmp	SHORT $LN146@get_operan
$LN145@get_operan:
	mov	DWORD PTR tv605[rsp], 0
$LN146@get_operan:
	mov	rax, QWORD PTR opnd$[rsp]
	cmp	QWORD PTR [rax+96], 0
	je	SHORT $LN147@get_operan
	mov	rax, QWORD PTR opnd$[rsp]
	mov	rax, QWORD PTR [rax+96]
	mov	rax, QWORD PTR [rax+8]
	mov	QWORD PTR tv643[rsp], rax
	jmp	SHORT $LN148@get_operan
$LN147@get_operan:
	lea	rax, OFFSET FLAT:$SG11210
	mov	QWORD PTR tv643[rsp], rax
$LN148@get_operan:
	mov	r9d, DWORD PTR tv605[rsp]
	mov	r8, QWORD PTR tv643[rsp]
	mov	rdx, QWORD PTR tmp$[rsp]
	lea	rcx, OFFSET FLAT:$SG11211
	call	DoDebugMsg

; 611  :                         if ( *opnd->type->name )

	mov	rax, QWORD PTR opnd$[rsp]
	mov	rax, QWORD PTR [rax+96]
	mov	rax, QWORD PTR [rax+8]
	movsx	eax, BYTE PTR [rax]
	test	eax, eax
	je	SHORT $LN89@get_operan

; 612  :                             fnEmitErr( MEMBER_NOT_DEFINED, opnd->type->name, tmp );

	mov	rax, QWORD PTR opnd$[rsp]
	mov	rax, QWORD PTR [rax+96]
	mov	r8, QWORD PTR tmp$[rsp]
	mov	rdx, QWORD PTR [rax+8]
	mov	ecx, 63					; 0000003fH
	call	QWORD PTR fnEmitErr
	jmp	SHORT $LN90@get_operan
$LN89@get_operan:

; 613  :                         else
; 614  :                             fnEmitErr( SYMBOL_NOT_DEFINED, tmp );

	mov	rdx, QWORD PTR tmp$[rsp]
	mov	ecx, 102				; 00000066H
	call	QWORD PTR fnEmitErr
$LN90@get_operan:

; 615  :                         return( ERROR );

	mov	eax, -1
	jmp	$LN1@get_operan

; 616  :                     } else {

	jmp	SHORT $LN88@get_operan
$LN87@get_operan:

; 617  :                         /* forward reference to a struct.
; 618  :                          * In these cases, assume everything is ok.
; 619  :                          */
; 620  :                         if ( !nullmbr ) {

	cmp	QWORD PTR nullmbr, 0
	jne	SHORT $LN91@get_operan

; 621  :                             nullmbr = SymAlloc( "" );

	lea	rcx, OFFSET FLAT:$SG11215
	call	SymAlloc
	mov	QWORD PTR nullmbr, rax
$LN91@get_operan:

; 622  :                         }
; 623  :                         DebugMsg(("get_operand(%s): forward reference to a struct (using nullmbr)\n", tmp ));

	mov	rdx, QWORD PTR tmp$[rsp]
	lea	rcx, OFFSET FLAT:$SG11216
	call	DoDebugMsg

; 624  :                         /* "break" because nullmbr has state SYM_UNDEFINED */
; 625  :                         opnd->mbr = nullmbr;

	mov	rax, QWORD PTR opnd$[rsp]
	mov	rcx, QWORD PTR nullmbr
	mov	QWORD PTR [rax+88], rcx

; 626  :                         opnd->kind = EXPR_CONST;

	mov	rax, QWORD PTR opnd$[rsp]
	mov	DWORD PTR [rax+60], 0

; 627  :                         break;

	jmp	$LN2@get_operan
$LN88@get_operan:
$LN86@get_operan:
$LN84@get_operan:

; 628  :                     }
; 629  :                 }
; 630  :             } else {

	jmp	$LN83@get_operan
$LN82@get_operan:

; 631  :                 DebugMsg1(("get_operand(%s): symbol %s not defined, pass > 1, curr proc=>%s<, \n", tokenarray[i].string_ptr, tmp, CurrProc ? CurrProc->sym.name : "NULL" ));

	cmp	QWORD PTR CurrProc, 0
	je	SHORT $LN149@get_operan
	mov	rax, QWORD PTR CurrProc
	mov	rax, QWORD PTR [rax+8]
	mov	QWORD PTR tv668[rsp], rax
	jmp	SHORT $LN150@get_operan
$LN149@get_operan:
	lea	rax, OFFSET FLAT:$SG11217
	mov	QWORD PTR tv668[rsp], rax
$LN150@get_operan:
	movsxd	rax, DWORD PTR i$[rsp]
	imul	rax, rax, 32				; 00000020H
	mov	r9, QWORD PTR tv668[rsp]
	mov	r8, QWORD PTR tmp$[rsp]
	mov	rcx, QWORD PTR tokenarray$[rsp]
	mov	rdx, QWORD PTR [rcx+rax+8]
	lea	rcx, OFFSET FLAT:$SG11218
	call	DoDebugMsg1

; 632  :                 if ( opnd->type && *opnd->type->name ) {

	mov	rax, QWORD PTR opnd$[rsp]
	cmp	QWORD PTR [rax+96], 0
	je	SHORT $LN92@get_operan
	mov	rax, QWORD PTR opnd$[rsp]
	mov	rax, QWORD PTR [rax+96]
	mov	rax, QWORD PTR [rax+8]
	movsx	eax, BYTE PTR [rax]
	test	eax, eax
	je	SHORT $LN92@get_operan

; 633  :                     fnEmitErr( MEMBER_NOT_DEFINED, opnd->type->name, tmp );

	mov	rax, QWORD PTR opnd$[rsp]
	mov	rax, QWORD PTR [rax+96]
	mov	r8, QWORD PTR tmp$[rsp]
	mov	rdx, QWORD PTR [rax+8]
	mov	ecx, 63					; 0000003fH
	call	QWORD PTR fnEmitErr

; 634  :                 } else {

	jmp	SHORT $LN93@get_operan
$LN92@get_operan:

; 635  :                     fnEmitErr( SYMBOL_NOT_DEFINED, *(tmp+1) == '&' ? "@@" : tmp );

	mov	rax, QWORD PTR tmp$[rsp]
	movsx	eax, BYTE PTR [rax+1]
	cmp	eax, 38					; 00000026H
	jne	SHORT $LN151@get_operan
	lea	rax, OFFSET FLAT:$SG11221
	mov	QWORD PTR tv693[rsp], rax
	jmp	SHORT $LN152@get_operan
$LN151@get_operan:
	mov	rax, QWORD PTR tmp$[rsp]
	mov	QWORD PTR tv693[rsp], rax
$LN152@get_operan:
	mov	rdx, QWORD PTR tv693[rsp]
	mov	ecx, 102				; 00000066H
	call	QWORD PTR fnEmitErr
$LN93@get_operan:

; 636  :                 }
; 637  :                 return( ERROR );

	mov	eax, -1
	jmp	$LN1@get_operan
$LN83@get_operan:

; 638  :             }

	jmp	SHORT $LN76@get_operan
$LN75@get_operan:

; 639  : #if ALIAS_IN_EXPR /* v2.04b: added */
; 640  :         } else if ( sym->state == SYM_ALIAS ) {

	mov	rax, QWORD PTR sym$[rsp]
	cmp	DWORD PTR [rax+32], 8
	jne	SHORT $LN94@get_operan

; 641  :             /* ALIAS symbols are not really useable in expressions.
; 642  :              * The alias' substitute symbol is, however.
; 643  :              */
; 644  :             sym = sym->substitute; /* can't be NULL */

	mov	rax, QWORD PTR sym$[rsp]
	mov	rax, QWORD PTR [rax+16]
	mov	QWORD PTR sym$[rsp], rax
$LN94@get_operan:
$LN76@get_operan:

; 645  : #endif
; 646  :         }
; 647  :         /* set default values */
; 648  :         sym->used = TRUE;

	mov	rax, QWORD PTR sym$[rsp]
	movzx	eax, BYTE PTR [rax+40]
	or	al, 1
	mov	rcx, QWORD PTR sym$[rsp]
	mov	BYTE PTR [rcx+40], al

; 649  :         DebugMsg1(("get_operand(%s): sym->state=%u type=>%s< ofs=%X memtype=%Xh total_size=%u defined=%u\n",

	mov	rax, QWORD PTR sym$[rsp]
	cmp	QWORD PTR [rax+80], 0
	je	SHORT $LN153@get_operan
	mov	rax, QWORD PTR sym$[rsp]
	mov	rax, QWORD PTR [rax+80]
	mov	rax, QWORD PTR [rax+8]
	mov	QWORD PTR tv716[rsp], rax
	jmp	SHORT $LN154@get_operan
$LN153@get_operan:
	lea	rax, OFFSET FLAT:$SG11223
	mov	QWORD PTR tv716[rsp], rax
$LN154@get_operan:
	mov	rax, QWORD PTR sym$[rsp]
	movzx	eax, BYTE PTR [rax+40]
	shr	al, 1
	and	al, 1
	movzx	eax, al
	movsxd	rcx, DWORD PTR i$[rsp]
	imul	rcx, rcx, 32				; 00000020H
	mov	DWORD PTR [rsp+56], eax
	mov	rax, QWORD PTR sym$[rsp]
	mov	eax, DWORD PTR [rax+56]
	mov	DWORD PTR [rsp+48], eax
	mov	rax, QWORD PTR sym$[rsp]
	mov	eax, DWORD PTR [rax+36]
	mov	DWORD PTR [rsp+40], eax
	mov	rax, QWORD PTR sym$[rsp]
	mov	eax, DWORD PTR [rax+16]
	mov	DWORD PTR [rsp+32], eax
	mov	r9, QWORD PTR tv716[rsp]
	mov	rax, QWORD PTR sym$[rsp]
	mov	r8d, DWORD PTR [rax+32]
	mov	rax, QWORD PTR tokenarray$[rsp]
	mov	rdx, QWORD PTR [rax+rcx+8]
	lea	rcx, OFFSET FLAT:$SG11224
	call	DoDebugMsg1

; 650  :                 tokenarray[i].string_ptr, sym->state, sym->type ? sym->type->name : "NULL", sym->offset, sym->mem_type, sym->total_size, sym->isdefined ));
; 651  :         switch ( sym->state ) {

	mov	rax, QWORD PTR sym$[rsp]
	mov	eax, DWORD PTR [rax+32]
	mov	DWORD PTR tv727[rsp], eax
	cmp	DWORD PTR tv727[rsp], 6
	je	$LN103@get_operan
	cmp	DWORD PTR tv727[rsp], 7
	je	SHORT $LN95@get_operan
	jmp	$LN104@get_operan
$LN95@get_operan:

; 652  :         case SYM_TYPE: /* STRUCT, UNION, RECORD, TYPEDEF */
; 653  :             /* v2.09: no structinfo data for typedefs */
; 654  :             if ( sym->typekind != TYPE_TYPEDEF && ((struct dsym *)sym)->e.structinfo->isOpen ) {

	mov	rax, QWORD PTR sym$[rsp]
	movzx	eax, BYTE PTR [rax+66]
	cmp	eax, 3
	je	SHORT $LN96@get_operan
	mov	rax, QWORD PTR sym$[rsp]
	mov	rax, QWORD PTR [rax+96]
	movzx	eax, BYTE PTR [rax+29]
	shr	al, 1
	and	al, 1
	movzx	eax, al
	test	eax, eax
	je	SHORT $LN96@get_operan

; 655  :                 DebugMsg1(("get_operand(%s): struct/union definition isn't closed!\n", sym->name ));

	mov	rax, QWORD PTR sym$[rsp]
	mov	rdx, QWORD PTR [rax+8]
	lea	rcx, OFFSET FLAT:$SG11227
	call	DoDebugMsg1

; 656  :                 opnd->kind = EXPR_ERROR;

	mov	rax, QWORD PTR opnd$[rsp]
	mov	DWORD PTR [rax+60], -1

; 657  :                 break;

	jmp	$LN7@get_operan
$LN96@get_operan:

; 658  :             }

	jmp	SHORT $LN11@get_operan
$LN9@get_operan:

; 659  :             /* skip "alias" types */
; 660  :             for ( ; sym->type; sym = sym->type );

	mov	rax, QWORD PTR sym$[rsp]
	mov	rax, QWORD PTR [rax+80]
	mov	QWORD PTR sym$[rsp], rax
$LN11@get_operan:
	mov	rax, QWORD PTR sym$[rsp]
	cmp	QWORD PTR [rax+80], 0
	je	SHORT $LN10@get_operan
	jmp	SHORT $LN9@get_operan
$LN10@get_operan:

; 661  :             opnd->kind = EXPR_CONST;

	mov	rax, QWORD PTR opnd$[rsp]
	mov	DWORD PTR [rax+60], 0

; 662  :             opnd->mem_type = sym->mem_type;

	mov	rax, QWORD PTR opnd$[rsp]
	mov	rcx, QWORD PTR sym$[rsp]
	mov	ecx, DWORD PTR [rcx+36]
	mov	DWORD PTR [rax+64], ecx

; 663  :             opnd->is_type = TRUE;

	mov	rax, QWORD PTR opnd$[rsp]
	mov	eax, DWORD PTR [rax+72]
	or	eax, 8
	mov	rcx, QWORD PTR opnd$[rsp]
	mov	DWORD PTR [rcx+72], eax

; 664  :             opnd->type = sym;

	mov	rax, QWORD PTR opnd$[rsp]
	mov	rcx, QWORD PTR sym$[rsp]
	mov	QWORD PTR [rax+96], rcx

; 665  :             DebugMsg1(("get_operand(%s): symbol.typekind=%u (STRUCT/UNION/TYPEDEF/RECORD)\n", sym->name, sym->typekind ));

	mov	rax, QWORD PTR sym$[rsp]
	movzx	eax, BYTE PTR [rax+66]
	mov	r8d, eax
	mov	rax, QWORD PTR sym$[rsp]
	mov	rdx, QWORD PTR [rax+8]
	lea	rcx, OFFSET FLAT:$SG11228
	call	DoDebugMsg1

; 666  : 
; 667  :             /* v2.08: if() removed. This was an old hack. */
; 668  :             //if ( tokenarray[i-1].token != T_DOT && tokenarray[i+1].token != T_DOT )
; 669  :             /* v2.06: the default value for RECORD types is the mask value */
; 670  :             if ( sym->typekind == TYPE_RECORD ) {

	mov	rax, QWORD PTR sym$[rsp]
	movzx	eax, BYTE PTR [rax+66]
	cmp	eax, 4
	jne	SHORT $LN97@get_operan

; 671  : #if AMD64_SUPPORT
; 672  :                 opnd->llvalue = GetRecordMask( (struct dsym *)sym );

	mov	rcx, QWORD PTR sym$[rsp]
	call	GetRecordMask
	mov	rcx, QWORD PTR opnd$[rsp]
	mov	QWORD PTR [rcx], rax
	jmp	$LN98@get_operan
$LN97@get_operan:

; 673  : #else
; 674  :                 opnd->value = GetRecordMask( (struct dsym *)sym );
; 675  : #endif
; 676  :             } else if ( ( sym->mem_type & MT_SPECIAL_MASK ) == MT_ADDRESS ) { /* v2.09: added */

	mov	rax, QWORD PTR sym$[rsp]
	mov	eax, DWORD PTR [rax+36]
	and	eax, 192				; 000000c0H
	cmp	eax, 128				; 00000080H
	jne	SHORT $LN99@get_operan

; 677  :                 if ( sym->mem_type == MT_PROC ) {

	mov	rax, QWORD PTR sym$[rsp]
	cmp	DWORD PTR [rax+36], 128			; 00000080H
	jne	SHORT $LN101@get_operan

; 678  :                     opnd->value = sym->total_size;

	mov	rax, QWORD PTR opnd$[rsp]
	mov	rcx, QWORD PTR sym$[rsp]
	mov	ecx, DWORD PTR [rcx+56]
	mov	DWORD PTR [rax], ecx

; 679  :                     opnd->Ofssize = sym->Ofssize;

	mov	rax, QWORD PTR opnd$[rsp]
	mov	rcx, QWORD PTR sym$[rsp]
	movzx	ecx, BYTE PTR [rcx+44]
	mov	BYTE PTR [rax+69], cl

; 680  :                 } else

	jmp	SHORT $LN102@get_operan
$LN101@get_operan:

; 681  :                     opnd->value = GetTypeSize( sym->mem_type, sym->Ofssize );

	mov	rax, QWORD PTR sym$[rsp]
	movzx	eax, BYTE PTR [rax+44]
	mov	edx, eax
	mov	rax, QWORD PTR sym$[rsp]
	mov	ecx, DWORD PTR [rax+36]
	call	GetTypeSize
	mov	rcx, QWORD PTR opnd$[rsp]
	mov	DWORD PTR [rcx], eax
$LN102@get_operan:

; 682  :             } else

	jmp	SHORT $LN100@get_operan
$LN99@get_operan:

; 683  :                 opnd->value = sym->total_size;

	mov	rax, QWORD PTR opnd$[rsp]
	mov	rcx, QWORD PTR sym$[rsp]
	mov	ecx, DWORD PTR [rcx+56]
	mov	DWORD PTR [rax], ecx
$LN100@get_operan:
$LN98@get_operan:

; 684  : 
; 685  :             break;

	jmp	$LN7@get_operan
$LN103@get_operan:

; 686  :         case SYM_STRUCT_FIELD:
; 687  :             DebugMsg1(("get_operand(%s): structure field, ofs=%Xh\n", sym->name, sym->offset ));

	mov	rax, QWORD PTR sym$[rsp]
	mov	r8d, DWORD PTR [rax+16]
	mov	rax, QWORD PTR sym$[rsp]
	mov	rdx, QWORD PTR [rax+8]
	lea	rcx, OFFSET FLAT:$SG11236
	call	DoDebugMsg1

; 688  : 
; 689  :             /* opnd->value might have been set by SearchNameInStruct() already! */
; 690  :             opnd->value += sym->offset;

	mov	rax, QWORD PTR opnd$[rsp]
	mov	eax, DWORD PTR [rax]
	mov	rcx, QWORD PTR sym$[rsp]
	add	eax, DWORD PTR [rcx+16]
	mov	rcx, QWORD PTR opnd$[rsp]
	mov	DWORD PTR [rcx], eax

; 691  :             opnd->kind = EXPR_CONST;

	mov	rax, QWORD PTR opnd$[rsp]
	mov	DWORD PTR [rax+60], 0

; 692  :             opnd->mbr = sym;

	mov	rax, QWORD PTR opnd$[rsp]
	mov	rcx, QWORD PTR sym$[rsp]
	mov	QWORD PTR [rax+88], rcx
	jmp	SHORT $LN14@get_operan
$LN12@get_operan:

; 693  :             /* skip "alias" types (probably obsolete by now!) */
; 694  :             for ( ; sym->type; sym = sym->type );

	mov	rax, QWORD PTR sym$[rsp]
	mov	rax, QWORD PTR [rax+80]
	mov	QWORD PTR sym$[rsp], rax
$LN14@get_operan:
	mov	rax, QWORD PTR sym$[rsp]
	cmp	QWORD PTR [rax+80], 0
	je	SHORT $LN13@get_operan
	jmp	SHORT $LN12@get_operan
$LN13@get_operan:

; 695  :             opnd->mem_type = sym->mem_type;

	mov	rax, QWORD PTR opnd$[rsp]
	mov	rcx, QWORD PTR sym$[rsp]
	mov	ecx, DWORD PTR [rcx+36]
	mov	DWORD PTR [rax+64], ecx

; 696  :             /*
; 697  :              * check if the member field is a type (struct or union).
; 698  :              * If yes, set the <type> member!
; 699  :              * this cannot be done in PrepareOp()
; 700  :              */
; 701  :             opnd->type = ( sym->state == SYM_TYPE && sym->typekind != TYPE_TYPEDEF ) ? sym : NULL;

	mov	rax, QWORD PTR sym$[rsp]
	cmp	DWORD PTR [rax+32], 7
	jne	SHORT $LN155@get_operan
	mov	rax, QWORD PTR sym$[rsp]
	movzx	eax, BYTE PTR [rax+66]
	cmp	eax, 3
	je	SHORT $LN155@get_operan
	mov	rax, QWORD PTR sym$[rsp]
	mov	QWORD PTR tv803[rsp], rax
	jmp	SHORT $LN156@get_operan
$LN155@get_operan:
	mov	QWORD PTR tv803[rsp], 0
$LN156@get_operan:
	mov	rax, QWORD PTR opnd$[rsp]
	mov	rcx, QWORD PTR tv803[rsp]
	mov	QWORD PTR [rax+96], rcx

; 702  :             DebugMsg1(("get_operand: mem_type=%Xh type=%s\n", opnd->mem_type, opnd->type ? opnd->type->name : "NULL" ));

	mov	rax, QWORD PTR opnd$[rsp]
	cmp	QWORD PTR [rax+96], 0
	je	SHORT $LN157@get_operan
	mov	rax, QWORD PTR opnd$[rsp]
	mov	rax, QWORD PTR [rax+96]
	mov	rax, QWORD PTR [rax+8]
	mov	QWORD PTR tv808[rsp], rax
	jmp	SHORT $LN158@get_operan
$LN157@get_operan:
	lea	rax, OFFSET FLAT:$SG11237
	mov	QWORD PTR tv808[rsp], rax
$LN158@get_operan:
	mov	r8, QWORD PTR tv808[rsp]
	mov	rax, QWORD PTR opnd$[rsp]
	mov	edx, DWORD PTR [rax+64]
	lea	rcx, OFFSET FLAT:$SG11238
	call	DoDebugMsg1

; 703  :             break;

	jmp	$LN7@get_operan
$LN104@get_operan:

; 704  :         default: /* SYM_INTERNAL, SYM_EXTERNAL, SYM_SEG, SYM_GRP, SYM_STACK */
; 705  :             opnd->kind = EXPR_ADDR;

	mov	rax, QWORD PTR opnd$[rsp]
	mov	DWORD PTR [rax+60], 1

; 706  :             /* call internal function (@Line, ... ) */
; 707  :             if ( sym->predefined && sym->sfunc_ptr )

	mov	rax, QWORD PTR sym$[rsp]
	movzx	eax, BYTE PTR [rax+40]
	shr	al, 5
	and	al, 1
	movzx	eax, al
	test	eax, eax
	je	SHORT $LN105@get_operan
	mov	rax, QWORD PTR sym$[rsp]
	cmp	QWORD PTR [rax+64], 0
	je	SHORT $LN105@get_operan

; 708  :                 sym->sfunc_ptr( sym, NULL );

	xor	edx, edx
	mov	rcx, QWORD PTR sym$[rsp]
	mov	rax, QWORD PTR sym$[rsp]
	call	QWORD PTR [rax+64]
$LN105@get_operan:

; 709  :             //if( opnd->sym->mem_type == MT_ABS ) {
; 710  :             if( sym->state == SYM_INTERNAL && sym->segment == NULL ) {

	mov	rax, QWORD PTR sym$[rsp]
	cmp	DWORD PTR [rax+32], 1
	jne	$LN106@get_operan
	mov	rax, QWORD PTR sym$[rsp]
	cmp	QWORD PTR [rax+24], 0
	jne	SHORT $LN106@get_operan

; 711  :                 opnd->kind = EXPR_CONST;

	mov	rax, QWORD PTR opnd$[rsp]
	mov	DWORD PTR [rax+60], 0

; 712  :                 opnd->uvalue = sym->uvalue;

	mov	rax, QWORD PTR opnd$[rsp]
	mov	rcx, QWORD PTR sym$[rsp]
	mov	ecx, DWORD PTR [rcx+16]
	mov	DWORD PTR [rax], ecx

; 713  :                 opnd->hvalue = sym->value3264;

	mov	rax, QWORD PTR opnd$[rsp]
	mov	rcx, QWORD PTR sym$[rsp]
	mov	ecx, DWORD PTR [rcx+56]
	mov	DWORD PTR [rax+4], ecx

; 714  :                 DebugMsg1(("get_operand(%s): equate hval=%Xh, lval=%Xh\n", sym->name, opnd->hvalue, opnd->uvalue ));

	mov	rax, QWORD PTR opnd$[rsp]
	mov	r9d, DWORD PTR [rax]
	mov	rax, QWORD PTR opnd$[rsp]
	mov	r8d, DWORD PTR [rax+4]
	mov	rax, QWORD PTR sym$[rsp]
	mov	rdx, QWORD PTR [rax+8]
	lea	rcx, OFFSET FLAT:$SG11243
	call	DoDebugMsg1

; 715  :                 opnd->mem_type = sym->mem_type;

	mov	rax, QWORD PTR opnd$[rsp]
	mov	rcx, QWORD PTR sym$[rsp]
	mov	ecx, DWORD PTR [rcx+36]
	mov	DWORD PTR [rax+64], ecx

; 716  :                 /* don't set the symbol reference, it isn't a label */
; 717  :             } else if( sym->state == SYM_EXTERNAL &&

	jmp	$LN107@get_operan
$LN106@get_operan:

; 718  :                       sym->mem_type == MT_EMPTY &&

	mov	rax, QWORD PTR sym$[rsp]
	cmp	DWORD PTR [rax+32], 2
	jne	SHORT $LN108@get_operan
	mov	rax, QWORD PTR sym$[rsp]
	cmp	DWORD PTR [rax+36], 192			; 000000c0H
	jne	SHORT $LN108@get_operan
	mov	rax, QWORD PTR sym$[rsp]
	movzx	eax, BYTE PTR [rax+47]
	shr	al, 2
	and	al, 1
	movzx	eax, al
	test	eax, eax
	jne	SHORT $LN108@get_operan

; 719  :                       sym->iscomm == FALSE ) {
; 720  :                 /* type remains EXPR_ADDR, to force fixup creation */
; 721  :                 //opnd->mem_type = sym->mem_type; /* v2.10: unnecessary, init value IS MT_EMPTY */
; 722  :                 opnd->is_abs = TRUE;

	mov	rax, QWORD PTR opnd$[rsp]
	mov	eax, DWORD PTR [rax+72]
	or	eax, 4
	mov	rcx, QWORD PTR opnd$[rsp]
	mov	DWORD PTR [rcx+72], eax

; 723  :                 opnd->sym = sym;

	mov	rax, QWORD PTR opnd$[rsp]
	mov	rcx, QWORD PTR sym$[rsp]
	mov	QWORD PTR [rax+80], rcx

; 724  :             } else {

	jmp	$LN109@get_operan
$LN108@get_operan:

; 725  :                 opnd->label_tok = &tokenarray[i];

	movsxd	rax, DWORD PTR i$[rsp]
	imul	rax, rax, 32				; 00000020H
	mov	rcx, QWORD PTR tokenarray$[rsp]
	add	rcx, rax
	mov	rax, rcx
	mov	rcx, QWORD PTR opnd$[rsp]
	mov	QWORD PTR [rcx+40], rax

; 726  : 
; 727  :                 /* a variable with arbitrary type? */
; 728  :                 /* v2.05: added check for MT_EMPTY */
; 729  :                 //if( opnd->sym->type ) { 
; 730  :                 if( sym->type && sym->type->mem_type != MT_EMPTY ) {

	mov	rax, QWORD PTR sym$[rsp]
	cmp	QWORD PTR [rax+80], 0
	je	SHORT $LN110@get_operan
	mov	rax, QWORD PTR sym$[rsp]
	mov	rax, QWORD PTR [rax+80]
	cmp	DWORD PTR [rax+36], 192			; 000000c0H
	je	SHORT $LN110@get_operan

; 731  :                     /* skip "alias" types */
; 732  :                     /* v2.05: obsolete */
; 733  :                     //for ( sym2 = opnd->sym; sym2->type; sym2 = sym2->type );
; 734  :                     //opnd->mem_type = sym2->mem_type;
; 735  :                     opnd->mem_type = sym->type->mem_type;

	mov	rax, QWORD PTR sym$[rsp]
	mov	rax, QWORD PTR [rax+80]
	mov	rcx, QWORD PTR opnd$[rsp]
	mov	eax, DWORD PTR [rax+36]
	mov	DWORD PTR [rcx+64], eax

; 736  :                 } else {

	jmp	SHORT $LN111@get_operan
$LN110@get_operan:

; 737  :                     opnd->mem_type = sym->mem_type;

	mov	rax, QWORD PTR opnd$[rsp]
	mov	rcx, QWORD PTR sym$[rsp]
	mov	ecx, DWORD PTR [rcx+36]
	mov	DWORD PTR [rax+64], ecx
$LN111@get_operan:

; 738  :                 }
; 739  :                 /* since there is no fixup for auto variables, the "offset"
; 740  :                  must be stored in the <value> field */
; 741  :                 if ( sym->state == SYM_STACK ) {

	mov	rax, QWORD PTR sym$[rsp]
	cmp	DWORD PTR [rax+32], 5
	jne	$LN112@get_operan

; 742  : #if STACKBASESUPP
; 743  :                   opnd->llvalue = sym->offset;// +StackAdj;

	mov	rax, QWORD PTR sym$[rsp]
	movsxd	rax, DWORD PTR [rax+16]
	mov	rcx, QWORD PTR opnd$[rsp]
	mov	QWORD PTR [rcx], rax

; 744  :                     if ((ModuleInfo.win64_flags & W64F_HABRAN) && sym->isparam){

	movzx	eax, BYTE PTR ModuleInfo+413
	and	eax, 11
	test	eax, eax
	je	$LN113@get_operan
	mov	rax, QWORD PTR sym$[rsp]
	movzx	eax, BYTE PTR [rax+41]
	shr	al, 7
	and	al, 1
	movzx	eax, al
	test	eax, eax
	je	$LN113@get_operan

; 745  :                       int cnt = CurrProc->e.procinfo->pushed_reg;

	mov	rax, QWORD PTR CurrProc
	mov	rax, QWORD PTR [rax+96]
	mov	eax, DWORD PTR [rax+104]
	mov	DWORD PTR cnt$1[rsp], eax

; 746  :                       cnt = cnt * 8;

	mov	eax, DWORD PTR cnt$1[rsp]
	shl	eax, 3
	mov	DWORD PTR cnt$1[rsp], eax

; 747  :                       cnt += sym->offset + CurrProc->e.procinfo->localsize + CurrProc->e.procinfo->xmmsize; //pointing to RSP

	mov	rax, QWORD PTR CurrProc
	mov	rax, QWORD PTR [rax+96]
	mov	rcx, QWORD PTR sym$[rsp]
	mov	ecx, DWORD PTR [rcx+16]
	add	ecx, DWORD PTR [rax+36]
	mov	eax, ecx
	mov	rcx, QWORD PTR CurrProc
	mov	rcx, QWORD PTR [rcx+96]
	add	eax, DWORD PTR [rcx+112]
	mov	ecx, DWORD PTR cnt$1[rsp]
	add	ecx, eax
	mov	eax, ecx
	mov	DWORD PTR cnt$1[rsp], eax

; 748  :                       if (CurrProc->sym.langtype == LANG_VECTORCALL)

	mov	rax, QWORD PTR CurrProc
	cmp	DWORD PTR [rax+76], 8
	jne	SHORT $LN114@get_operan

; 749  :                         cnt += CurrProc->e.procinfo->vsize ;     //pointing abowe RSP to the shadow space off RCX RDX R8 R9                      

	mov	rax, QWORD PTR CurrProc
	mov	rax, QWORD PTR [rax+96]
	mov	eax, DWORD PTR [rax+44]
	mov	ecx, DWORD PTR cnt$1[rsp]
	add	ecx, eax
	mov	eax, ecx
	mov	DWORD PTR cnt$1[rsp], eax
$LN114@get_operan:

; 750  :                       //else 
; 751  :                         cnt -= 8;

	mov	eax, DWORD PTR cnt$1[rsp]
	sub	eax, 8
	mov	DWORD PTR cnt$1[rsp], eax

; 752  :                         if ((cnt & 7) != 0) cnt = (cnt + 7)&(-8);

	mov	eax, DWORD PTR cnt$1[rsp]
	and	eax, 7
	test	eax, eax
	je	SHORT $LN115@get_operan
	mov	eax, DWORD PTR cnt$1[rsp]
	add	eax, 7
	and	eax, -8
	mov	DWORD PTR cnt$1[rsp], eax
$LN115@get_operan:

; 753  :                       opnd->llvalue = cnt;

	movsxd	rax, DWORD PTR cnt$1[rsp]
	mov	rcx, QWORD PTR opnd$[rsp]
	mov	QWORD PTR [rcx], rax
$LN113@get_operan:

; 754  :                     }
; 755  : #else
; 756  :                     opnd->llvalue = sym->offset;
; 757  : #endif
; 758  :                     opnd->indirect = TRUE;

	mov	rax, QWORD PTR opnd$[rsp]
	mov	eax, DWORD PTR [rax+72]
	or	eax, 1
	mov	rcx, QWORD PTR opnd$[rsp]
	mov	DWORD PTR [rcx+72], eax

; 759  :                     /* v2.10: base register values now set here */
; 760  :                     opnd->base_reg = &tokenarray[i];

	movsxd	rax, DWORD PTR i$[rsp]
	imul	rax, rax, 32				; 00000020H
	mov	rcx, QWORD PTR tokenarray$[rsp]
	add	rcx, rax
	mov	rax, rcx
	mov	rcx, QWORD PTR opnd$[rsp]
	mov	QWORD PTR [rcx+24], rax

; 761  : #if STACKBASESUPP
; 762  :                     tokenarray[i].tokval = CurrProc->e.procinfo->basereg;

	mov	rax, QWORD PTR CurrProc
	mov	rax, QWORD PTR [rax+96]
	movsxd	rcx, DWORD PTR i$[rsp]
	imul	rcx, rcx, 32				; 00000020H
	movzx	eax, WORD PTR [rax+130]
	mov	rdx, QWORD PTR tokenarray$[rsp]
	mov	DWORD PTR [rdx+rcx+16], eax

; 763  : #else
; 764  :                     tokenarray[i].tokval = basereg[ModuleInfo.Ofssize];
; 765  : #endif
; 766  :                     tokenarray[i].bytval = GetRegNo( tokenarray[i].tokval );

	movsxd	rax, DWORD PTR i$[rsp]
	imul	rax, rax, 32				; 00000020H
	mov	rcx, QWORD PTR tokenarray$[rsp]
	mov	eax, DWORD PTR [rcx+rax+16]
	imul	rax, rax, 12
	lea	rcx, OFFSET FLAT:SpecialTable
	movsxd	rdx, DWORD PTR i$[rsp]
	imul	rdx, rdx, 32				; 00000020H
	mov	r8, QWORD PTR tokenarray$[rsp]
	movzx	eax, BYTE PTR [rcx+rax+10]
	mov	BYTE PTR [r8+rdx+1], al
$LN112@get_operan:

; 767  :                 }
; 768  :                 opnd->sym = sym;

	mov	rax, QWORD PTR opnd$[rsp]
	mov	rcx, QWORD PTR sym$[rsp]
	mov	QWORD PTR [rax+80], rcx
	jmp	SHORT $LN17@get_operan
$LN15@get_operan:

; 769  :                 /* v2.09: added (also see change in PrepareOp() )
; 770  :                  * and see case SYM_STRUCT_FIELD.
; 771  :                  */
; 772  :                 for ( ; sym->type; sym = sym->type );

	mov	rax, QWORD PTR sym$[rsp]
	mov	rax, QWORD PTR [rax+80]
	mov	QWORD PTR sym$[rsp], rax
$LN17@get_operan:
	mov	rax, QWORD PTR sym$[rsp]
	cmp	QWORD PTR [rax+80], 0
	je	SHORT $LN16@get_operan
	jmp	SHORT $LN15@get_operan
$LN16@get_operan:

; 773  :                 opnd->type = ( sym->state == SYM_TYPE && sym->typekind != TYPE_TYPEDEF ) ? sym : NULL;

	mov	rax, QWORD PTR sym$[rsp]
	cmp	DWORD PTR [rax+32], 7
	jne	SHORT $LN159@get_operan
	mov	rax, QWORD PTR sym$[rsp]
	movzx	eax, BYTE PTR [rax+66]
	cmp	eax, 3
	je	SHORT $LN159@get_operan
	mov	rax, QWORD PTR sym$[rsp]
	mov	QWORD PTR tv941[rsp], rax
	jmp	SHORT $LN160@get_operan
$LN159@get_operan:
	mov	QWORD PTR tv941[rsp], 0
$LN160@get_operan:
	mov	rax, QWORD PTR opnd$[rsp]
	mov	rcx, QWORD PTR tv941[rsp]
	mov	QWORD PTR [rax+96], rcx
$LN109@get_operan:
$LN107@get_operan:
$LN7@get_operan:

; 774  :             }
; 775  :             break;
; 776  :         }
; 777  :         break;

	jmp	$LN2@get_operan
$LN116@get_operan:

; 778  :     case T_STYPE:
; 779  :         DebugMsg1(("%u get_operand: T_STYPE (>%s<, value=%X)\n", evallvl, tokenarray[i].string_ptr, tokenarray[i].tokval));

	movsxd	rax, DWORD PTR i$[rsp]
	imul	rax, rax, 32				; 00000020H
	movsxd	rcx, DWORD PTR i$[rsp]
	imul	rcx, rcx, 32				; 00000020H
	mov	rdx, QWORD PTR tokenarray$[rsp]
	mov	r9d, DWORD PTR [rdx+rax+16]
	mov	rax, QWORD PTR tokenarray$[rsp]
	mov	r8, QWORD PTR [rax+rcx+8]
	mov	edx, DWORD PTR evallvl
	lea	rcx, OFFSET FLAT:$SG11253
	call	DoDebugMsg1

; 780  :         opnd->kind = EXPR_CONST;

	mov	rax, QWORD PTR opnd$[rsp]
	mov	DWORD PTR [rax+60], 0

; 781  :         /* for types, return the size as numeric constant */
; 782  :         /* fixme: mem_type should be set only when used as first arg of PTR op! */
; 783  :         opnd->mem_type = GetMemtypeSp( tokenarray[i].tokval );

	movsxd	rax, DWORD PTR i$[rsp]
	imul	rax, rax, 32				; 00000020H
	mov	rcx, QWORD PTR tokenarray$[rsp]
	mov	eax, DWORD PTR [rcx+rax+16]
	imul	rax, rax, 12
	lea	rcx, OFFSET FLAT:SpecialTable
	movzx	eax, BYTE PTR [rcx+rax+10]
	mov	rcx, QWORD PTR opnd$[rsp]
	mov	DWORD PTR [rcx+64], eax

; 784  :         opnd->Ofssize = GetSflagsSp( tokenarray[i].tokval );

	movsxd	rax, DWORD PTR i$[rsp]
	imul	rax, rax, 32				; 00000020H
	mov	rcx, QWORD PTR tokenarray$[rsp]
	mov	eax, DWORD PTR [rcx+rax+16]
	imul	rax, rax, 12
	lea	rcx, OFFSET FLAT:SpecialTable
	mov	rdx, QWORD PTR opnd$[rsp]
	movzx	eax, BYTE PTR [rcx+rax+4]
	mov	BYTE PTR [rdx+69], al

; 785  :         opnd->value = GetTypeSize( opnd->mem_type, opnd->Ofssize );

	mov	rax, QWORD PTR opnd$[rsp]
	movzx	eax, BYTE PTR [rax+69]
	mov	edx, eax
	mov	rax, QWORD PTR opnd$[rsp]
	mov	ecx, DWORD PTR [rax+64]
	call	GetTypeSize
	mov	rcx, QWORD PTR opnd$[rsp]
	mov	DWORD PTR [rcx], eax

; 786  :         opnd->is_type = TRUE;

	mov	rax, QWORD PTR opnd$[rsp]
	mov	eax, DWORD PTR [rax+72]
	or	eax, 8
	mov	rcx, QWORD PTR opnd$[rsp]
	mov	DWORD PTR [rcx+72], eax

; 787  :         opnd->type = NULL; /* v2.08: added */

	mov	rax, QWORD PTR opnd$[rsp]
	mov	QWORD PTR [rax+96], 0

; 788  :         break;

	jmp	$LN2@get_operan
$LN117@get_operan:

; 789  :     case T_RES_ID:
; 790  :         DebugMsg1(("%u get_operand: T_RES_ID (>%s<, value=%X)\n", evallvl, tokenarray[i].string_ptr, tokenarray[i].tokval));

	movsxd	rax, DWORD PTR i$[rsp]
	imul	rax, rax, 32				; 00000020H
	movsxd	rcx, DWORD PTR i$[rsp]
	imul	rcx, rcx, 32				; 00000020H
	mov	rdx, QWORD PTR tokenarray$[rsp]
	mov	r9d, DWORD PTR [rdx+rax+16]
	mov	rax, QWORD PTR tokenarray$[rsp]
	mov	r8, QWORD PTR [rax+rcx+8]
	mov	edx, DWORD PTR evallvl
	lea	rcx, OFFSET FLAT:$SG11255
	call	DoDebugMsg1

; 791  :         if ( tokenarray[i].tokval == T_FLAT ) {

	movsxd	rax, DWORD PTR i$[rsp]
	imul	rax, rax, 32				; 00000020H
	mov	rcx, QWORD PTR tokenarray$[rsp]
	cmp	DWORD PTR [rcx+rax+16], 261		; 00000105H
	jne	$LN118@get_operan

; 792  :             /* v2.09: query NOUNDEF flag */
; 793  :             //if ( error_msg ) { /* don't define FLAT group in EQU expression! */
; 794  :             if ( ( flags & EXPF_NOUNDEF ) == 0 ) {

	movzx	eax, BYTE PTR flags$[rsp]
	and	eax, 2
	test	eax, eax
	jne	SHORT $LN120@get_operan

; 795  :                 /* v2.08 cpu check added */
; 796  :                 if( ( ModuleInfo.curr_cpu & P_CPU_MASK ) < P_386 ) {

	mov	eax, DWORD PTR ModuleInfo+392
	and	eax, 240				; 000000f0H
	cmp	eax, 48					; 00000030H
	jge	SHORT $LN121@get_operan

; 797  :                     fnEmitErr( INSTRUCTION_OR_REGISTER_NOT_ACCEPTED_IN_CURRENT_CPU_MODE );

	mov	ecx, 30
	call	QWORD PTR fnEmitErr

; 798  :                     return( ERROR );

	mov	eax, -1
	jmp	$LN1@get_operan
$LN121@get_operan:

; 799  :                 }
; 800  :                 DefineFlatGroup();

	call	DefineFlatGroup
$LN120@get_operan:

; 801  :             }
; 802  :             if ( !( opnd->sym = &ModuleInfo.flat_grp->sym ) )

	mov	rax, QWORD PTR ModuleInfo+440
	mov	QWORD PTR tv1011[rsp], rax
	mov	rax, QWORD PTR opnd$[rsp]
	mov	rcx, QWORD PTR tv1011[rsp]
	mov	QWORD PTR [rax+80], rcx
	cmp	QWORD PTR tv1011[rsp], 0
	jne	SHORT $LN122@get_operan

; 803  :                 return( ERROR );

	mov	eax, -1
	jmp	$LN1@get_operan
$LN122@get_operan:

; 804  : 
; 805  :             opnd->label_tok = &tokenarray[i];

	movsxd	rax, DWORD PTR i$[rsp]
	imul	rax, rax, 32				; 00000020H
	mov	rcx, QWORD PTR tokenarray$[rsp]
	add	rcx, rax
	mov	rax, rcx
	mov	rcx, QWORD PTR opnd$[rsp]
	mov	QWORD PTR [rcx+40], rax

; 806  :             opnd->kind = EXPR_ADDR;

	mov	rax, QWORD PTR opnd$[rsp]
	mov	DWORD PTR [rax+60], 1

; 807  : 
; 808  :         } else {

	jmp	SHORT $LN119@get_operan
$LN118@get_operan:

; 809  :             return( fnEmitErr( SYNTAX_ERROR_EX, tokenarray[i].string_ptr ) );

	movsxd	rax, DWORD PTR i$[rsp]
	imul	rax, rax, 32				; 00000020H
	mov	rcx, QWORD PTR tokenarray$[rsp]
	mov	rdx, QWORD PTR [rcx+rax+8]
	mov	ecx, 209				; 000000d1H
	call	QWORD PTR fnEmitErr
	jmp	$LN1@get_operan
$LN119@get_operan:

; 810  :         }
; 811  :         break;

	jmp	$LN2@get_operan
$LN123@get_operan:

; 812  :     case T_FLOAT: /* v2.05 */
; 813  :         DebugMsg1(("%u get_operand: T_FLOAT (>%s<)\n", evallvl, tokenarray[i].string_ptr ));

	movsxd	rax, DWORD PTR i$[rsp]
	imul	rax, rax, 32				; 00000020H
	mov	rcx, QWORD PTR tokenarray$[rsp]
	mov	r8, QWORD PTR [rcx+rax+8]
	mov	edx, DWORD PTR evallvl
	lea	rcx, OFFSET FLAT:$SG11262
	call	DoDebugMsg1

; 814  :         opnd->kind = EXPR_FLOAT;

	mov	rax, QWORD PTR opnd$[rsp]
	mov	DWORD PTR [rax+60], 3

; 815  :         opnd->float_tok = &tokenarray[i];

	movsxd	rax, DWORD PTR i$[rsp]
	imul	rax, rax, 32				; 00000020H
	mov	rcx, QWORD PTR tokenarray$[rsp]
	add	rcx, rax
	mov	rax, rcx
	mov	rcx, QWORD PTR opnd$[rsp]
	mov	QWORD PTR [rcx+16], rax

; 816  :         //opnd->ftype = ( tokenarray[i].floattype != 0 );
; 817  :         break;

	jmp	$LN2@get_operan
$LN124@get_operan:

; 818  :     //case T_CL_BRACKET:
; 819  :     //case T_CL_SQ_BRACKET:
; 820  :     default:
; 821  :         DebugMsg1(("%u get_operand: default (token=%u, string=%s)\n", evallvl, tokenarray[i].token, tokenarray[i].string_ptr));

	movsxd	rax, DWORD PTR i$[rsp]
	imul	rax, rax, 32				; 00000020H
	movsxd	rcx, DWORD PTR i$[rsp]
	imul	rcx, rcx, 32				; 00000020H
	mov	rdx, QWORD PTR tokenarray$[rsp]
	movzx	ecx, BYTE PTR [rdx+rcx]
	mov	rdx, QWORD PTR tokenarray$[rsp]
	mov	r9, QWORD PTR [rdx+rax+8]
	mov	r8d, ecx
	mov	edx, DWORD PTR evallvl
	lea	rcx, OFFSET FLAT:$SG11264
	call	DoDebugMsg1

; 822  :         if ( opnd->is_opattr ) {    /* for OPATTR, allow any operand */

	mov	rax, QWORD PTR opnd$[rsp]
	mov	eax, DWORD PTR [rax+72]
	shr	eax, 4
	and	eax, 1
	test	eax, eax
	je	SHORT $LN125@get_operan

; 823  :             if ( tokenarray[i].token == T_FINAL ||
; 824  :                 tokenarray[i].token == T_CL_BRACKET ||

	movsxd	rax, DWORD PTR i$[rsp]
	imul	rax, rax, 32				; 00000020H
	mov	rcx, QWORD PTR tokenarray$[rsp]
	movzx	eax, BYTE PTR [rcx+rax]
	test	eax, eax
	je	SHORT $LN127@get_operan
	movsxd	rax, DWORD PTR i$[rsp]
	imul	rax, rax, 32				; 00000020H
	mov	rcx, QWORD PTR tokenarray$[rsp]
	movzx	eax, BYTE PTR [rcx+rax]
	cmp	eax, 41					; 00000029H
	je	SHORT $LN127@get_operan
	movsxd	rax, DWORD PTR i$[rsp]
	imul	rax, rax, 32				; 00000020H
	mov	rcx, QWORD PTR tokenarray$[rsp]
	movzx	eax, BYTE PTR [rcx+rax]
	cmp	eax, 93					; 0000005dH
	jne	SHORT $LN126@get_operan
$LN127@get_operan:

; 825  :                 tokenarray[i].token == T_CL_SQ_BRACKET ) /* don't go beyond T_FINAL, ) or ] ! */
; 826  :                 return( NOT_ERROR );

	xor	eax, eax
	jmp	$LN1@get_operan
$LN126@get_operan:

; 827  :             break;

	jmp	$LN2@get_operan
$LN125@get_operan:

; 828  :         }
; 829  :         if ( tokenarray[i].token == T_BAD_NUM )

	movsxd	rax, DWORD PTR i$[rsp]
	imul	rax, rax, 32				; 00000020H
	mov	rcx, QWORD PTR tokenarray$[rsp]
	movzx	eax, BYTE PTR [rcx+rax]
	cmp	eax, 12
	jne	SHORT $LN128@get_operan

; 830  :             /* Masm complains even if in EQU-mode */
; 831  :             fnEmitErr( NONDIGIT_IN_NUMBER, tokenarray[i].string_ptr );

	movsxd	rax, DWORD PTR i$[rsp]
	imul	rax, rax, 32				; 00000020H
	mov	rcx, QWORD PTR tokenarray$[rsp]
	mov	rdx, QWORD PTR [rcx+rax+8]
	mov	ecx, 217				; 000000d9H
	call	QWORD PTR fnEmitErr
	jmp	$LN129@get_operan
$LN128@get_operan:

; 832  :         else if ( tokenarray[i].token == T_COLON )

	movsxd	rax, DWORD PTR i$[rsp]
	imul	rax, rax, 32				; 00000020H
	mov	rcx, QWORD PTR tokenarray$[rsp]
	movzx	eax, BYTE PTR [rcx+rax]
	cmp	eax, 58					; 0000003aH
	jne	SHORT $LN130@get_operan

; 833  :             fnEmitErr( SYNTAX_ERROR_UNEXPECTED_COLON );

	mov	ecx, 47					; 0000002fH
	call	QWORD PTR fnEmitErr
	jmp	SHORT $LN131@get_operan
$LN130@get_operan:

; 834  :         else if ( isalpha( *tokenarray[i].string_ptr ) )

	movsxd	rax, DWORD PTR i$[rsp]
	imul	rax, rax, 32				; 00000020H
	mov	rcx, QWORD PTR tokenarray$[rsp]
	mov	rax, QWORD PTR [rcx+rax+8]
	movsx	eax, BYTE PTR [rax]
	mov	ecx, eax
	call	isalpha
	test	eax, eax
	je	SHORT $LN132@get_operan

; 835  :             fnEmitErr( EXPRESSION_EXPECTED, tokenarray[i].tokpos ); /* better error msg */

	movsxd	rax, DWORD PTR i$[rsp]
	imul	rax, rax, 32				; 00000020H
	mov	rcx, QWORD PTR tokenarray$[rsp]
	mov	rdx, QWORD PTR [rcx+rax+24]
	mov	ecx, 64					; 00000040H
	call	QWORD PTR fnEmitErr
	jmp	SHORT $LN133@get_operan
$LN132@get_operan:

; 836  :         else
; 837  :             fnEmitErr( SYNTAX_ERROR_EX, tokenarray[i].tokpos );

	movsxd	rax, DWORD PTR i$[rsp]
	imul	rax, rax, 32				; 00000020H
	mov	rcx, QWORD PTR tokenarray$[rsp]
	mov	rdx, QWORD PTR [rcx+rax+24]
	mov	ecx, 209				; 000000d1H
	call	QWORD PTR fnEmitErr
$LN133@get_operan:
$LN131@get_operan:
$LN129@get_operan:

; 838  :         return( ERROR );

	mov	eax, -1
	jmp	$LN1@get_operan
$LN2@get_operan:

; 839  :     }
; 840  :     (*idx)++;

	mov	rax, QWORD PTR idx$[rsp]
	mov	eax, DWORD PTR [rax]
	inc	eax
	mov	rcx, QWORD PTR idx$[rsp]
	mov	DWORD PTR [rcx], eax

; 841  :     DebugMsg1(("%u get_operand exit, ok, kind=%d value=%" I64_SPEC "X hvalue=%" I64_SPEC "X mem_type=%Xh abs=%u string=%s is_type=%u type=>%s< sym=%s mbr=%s\n",

	mov	rax, QWORD PTR opnd$[rsp]
	cmp	QWORD PTR [rax+88], 0
	je	SHORT $LN161@get_operan
	mov	rax, QWORD PTR opnd$[rsp]
	mov	rax, QWORD PTR [rax+88]
	mov	rax, QWORD PTR [rax+8]
	mov	QWORD PTR tv1119[rsp], rax
	jmp	SHORT $LN162@get_operan
$LN161@get_operan:
	lea	rax, OFFSET FLAT:$SG11274
	mov	QWORD PTR tv1119[rsp], rax
$LN162@get_operan:
	mov	rax, QWORD PTR opnd$[rsp]
	cmp	QWORD PTR [rax+80], 0
	je	SHORT $LN163@get_operan
	mov	rax, QWORD PTR opnd$[rsp]
	mov	rax, QWORD PTR [rax+80]
	mov	rax, QWORD PTR [rax+8]
	mov	QWORD PTR tv1125[rsp], rax
	jmp	SHORT $LN164@get_operan
$LN163@get_operan:
	lea	rax, OFFSET FLAT:$SG11275
	mov	QWORD PTR tv1125[rsp], rax
$LN164@get_operan:
	mov	rax, QWORD PTR opnd$[rsp]
	cmp	QWORD PTR [rax+96], 0
	je	SHORT $LN165@get_operan
	mov	rax, QWORD PTR opnd$[rsp]
	mov	rax, QWORD PTR [rax+96]
	mov	rax, QWORD PTR [rax+8]
	mov	QWORD PTR tv1131[rsp], rax
	jmp	SHORT $LN166@get_operan
$LN165@get_operan:
	lea	rax, OFFSET FLAT:$SG11276
	mov	QWORD PTR tv1131[rsp], rax
$LN166@get_operan:
	mov	rax, QWORD PTR opnd$[rsp]
	cmp	QWORD PTR [rax+16], 0
	je	SHORT $LN167@get_operan
	mov	rax, QWORD PTR opnd$[rsp]
	mov	rax, QWORD PTR [rax+16]
	mov	rax, QWORD PTR [rax+8]
	mov	QWORD PTR tv1141[rsp], rax
	jmp	SHORT $LN168@get_operan
$LN167@get_operan:
	lea	rax, OFFSET FLAT:$SG11277
	mov	QWORD PTR tv1141[rsp], rax
$LN168@get_operan:
	mov	rax, QWORD PTR opnd$[rsp]
	mov	eax, DWORD PTR [rax+72]
	shr	eax, 3
	and	eax, 1
	mov	rcx, QWORD PTR opnd$[rsp]
	mov	ecx, DWORD PTR [rcx+72]
	shr	ecx, 2
	and	ecx, 1
	mov	rdx, QWORD PTR tv1119[rsp]
	mov	QWORD PTR [rsp+88], rdx
	mov	rdx, QWORD PTR tv1125[rsp]
	mov	QWORD PTR [rsp+80], rdx
	mov	rdx, QWORD PTR tv1131[rsp]
	mov	QWORD PTR [rsp+72], rdx
	mov	DWORD PTR [rsp+64], eax
	mov	rax, QWORD PTR tv1141[rsp]
	mov	QWORD PTR [rsp+56], rax
	mov	DWORD PTR [rsp+48], ecx
	mov	rax, QWORD PTR opnd$[rsp]
	mov	eax, DWORD PTR [rax+64]
	mov	DWORD PTR [rsp+40], eax
	mov	rax, QWORD PTR opnd$[rsp]
	mov	rax, QWORD PTR [rax+8]
	mov	QWORD PTR [rsp+32], rax
	mov	rax, QWORD PTR opnd$[rsp]
	mov	r9, QWORD PTR [rax]
	mov	rax, QWORD PTR opnd$[rsp]
	mov	r8d, DWORD PTR [rax+60]
	mov	edx, DWORD PTR evallvl
	lea	rcx, OFFSET FLAT:$SG11278
	call	DoDebugMsg1

; 842  :                evallvl, opnd->kind, opnd->llvalue, opnd->hlvalue, opnd->mem_type, opnd->is_abs,
; 843  :                opnd->quoted_string ? opnd->quoted_string->string_ptr : "NULL",
; 844  :                opnd->is_type, opnd->type ? opnd->type->name : "NULL",
; 845  :                opnd->sym ? opnd->sym->name : "NULL",
; 846  :                opnd->mbr ? opnd->mbr->name : "NULL" ));
; 847  :     return( NOT_ERROR );

	xor	eax, eax
$LN1@get_operan:

; 848  : }

	mov	rcx, QWORD PTR __$ArrayPad$[rsp]
	xor	rcx, rsp
	call	__security_check_cookie
	add	rsp, 328				; 00000148H
	ret	0
	npad	1
$LN169@get_operan:
	DD	$LN40@get_operan
	DD	$LN124@get_operan
	DD	$LN124@get_operan
	DD	$LN124@get_operan
	DD	$LN116@get_operan
	DD	$LN117@get_operan
	DD	$LN55@get_operan
	DD	$LN19@get_operan
	DD	$LN18@get_operan
	DD	$LN123@get_operan
get_operand ENDP
_TEXT	ENDS
; Function compile flags: /Odtp
; File d:\hjwasm\hjwasm2.13.1s\hjwasm2.13.1s\expreval.c
_TEXT	SEGMENT
val$ = 0
len$ = 4
tv87 = 8
px$ = 16
end$ = 24
src$ = 48
dst$ = 56
base$ = 64
size$ = 72
myatoi128 PROC

; 309  : {

$LN12:
	mov	DWORD PTR [rsp+32], r9d
	mov	DWORD PTR [rsp+24], r8d
	mov	QWORD PTR [rsp+16], rdx
	mov	QWORD PTR [rsp+8], rcx
	sub	rsp, 40					; 00000028H

; 310  :     uint_32             val;
; 311  :     unsigned            len;
; 312  :     const char          *end = src + size;

	movsxd	rax, DWORD PTR size$[rsp]
	mov	rcx, QWORD PTR src$[rsp]
	add	rcx, rax
	mov	rax, rcx
	mov	QWORD PTR end$[rsp], rax

; 313  :     uint_16             *px;
; 314  : 
; 315  :     dst[0] = 0;

	mov	eax, 8
	imul	rax, rax, 0
	mov	rcx, QWORD PTR dst$[rsp]
	mov	QWORD PTR [rcx+rax], 0

; 316  :     dst[1] = 0;

	mov	eax, 8
	imul	rax, rax, 1
	mov	rcx, QWORD PTR dst$[rsp]
	mov	QWORD PTR [rcx+rax], 0

; 317  : #if CHEXPREFIX
; 318  :     if (((src[1] | 0x20) == 'x') && (*src == '0')){

	mov	eax, 1
	imul	rax, rax, 1
	mov	rcx, QWORD PTR src$[rsp]
	movsx	eax, BYTE PTR [rcx+rax]
	or	eax, 32					; 00000020H
	cmp	eax, 120				; 00000078H
	jne	SHORT $LN8@myatoi128
	mov	rax, QWORD PTR src$[rsp]
	movsx	eax, BYTE PTR [rax]
	cmp	eax, 48					; 00000030H
	jne	SHORT $LN8@myatoi128

; 319  :       src += 2;

	mov	rax, QWORD PTR src$[rsp]
	add	rax, 2
	mov	QWORD PTR src$[rsp], rax

; 320  :       end += 2;

	mov	rax, QWORD PTR end$[rsp]
	add	rax, 2
	mov	QWORD PTR end$[rsp], rax
$LN8@myatoi128:
$LN4@myatoi128:

; 321  :     }
; 322  : #endif
; 323  :     do {
; 324  :         val = ( *src <= '9' ? *src - '0' : ( *src | 0x20 ) - 'a' + 10 );

	mov	rax, QWORD PTR src$[rsp]
	movsx	eax, BYTE PTR [rax]
	cmp	eax, 57					; 00000039H
	jg	SHORT $LN10@myatoi128
	mov	rax, QWORD PTR src$[rsp]
	movsx	eax, BYTE PTR [rax]
	sub	eax, 48					; 00000030H
	mov	DWORD PTR tv87[rsp], eax
	jmp	SHORT $LN11@myatoi128
$LN10@myatoi128:
	mov	rax, QWORD PTR src$[rsp]
	movsx	eax, BYTE PTR [rax]
	or	eax, 32					; 00000020H
	sub	eax, 87					; 00000057H
	mov	DWORD PTR tv87[rsp], eax
$LN11@myatoi128:
	mov	eax, DWORD PTR tv87[rsp]
	mov	DWORD PTR val$[rsp], eax

; 325  :         px = (uint_16 *)dst;

	mov	rax, QWORD PTR dst$[rsp]
	mov	QWORD PTR px$[rsp], rax

; 326  :         for ( len = ( 2 * sizeof( uint_64 ) ) >> 1; len; len-- ) {

	mov	DWORD PTR len$[rsp], 8
	jmp	SHORT $LN7@myatoi128
$LN5@myatoi128:
	mov	eax, DWORD PTR len$[rsp]
	dec	eax
	mov	DWORD PTR len$[rsp], eax
$LN7@myatoi128:
	cmp	DWORD PTR len$[rsp], 0
	je	SHORT $LN6@myatoi128

; 327  :             val += (uint_32)*px * base;

	mov	rax, QWORD PTR px$[rsp]
	movzx	eax, WORD PTR [rax]
	imul	eax, DWORD PTR base$[rsp]
	mov	ecx, DWORD PTR val$[rsp]
	add	ecx, eax
	mov	eax, ecx
	mov	DWORD PTR val$[rsp], eax

; 328  :             *(px++) = val;

	mov	rax, QWORD PTR px$[rsp]
	movzx	ecx, WORD PTR val$[rsp]
	mov	WORD PTR [rax], cx
	mov	rax, QWORD PTR px$[rsp]
	add	rax, 2
	mov	QWORD PTR px$[rsp], rax

; 329  :             val >>= 16;

	mov	eax, DWORD PTR val$[rsp]
	shr	eax, 16
	mov	DWORD PTR val$[rsp], eax

; 330  :         };

	jmp	SHORT $LN5@myatoi128
$LN6@myatoi128:

; 331  :         //myassert( val == 0 ); /* if number doesn't fit in 128 bits */
; 332  :         src++;

	mov	rax, QWORD PTR src$[rsp]
	inc	rax
	mov	QWORD PTR src$[rsp], rax

; 333  :     } while( src < end );

	mov	rax, QWORD PTR end$[rsp]
	cmp	QWORD PTR src$[rsp], rax
	jb	$LN4@myatoi128

; 334  :     return;
; 335  : }

	add	rsp, 40					; 00000028H
	ret	0
myatoi128 ENDP
_TEXT	ENDS
; Function compile flags: /Odtp
; File d:\hjwasm\hjwasm2.13.1s\hjwasm2.13.1s\expreval.c
_TEXT	SEGMENT
i$ = 0
tv93 = 4
fl$ = 8
sym$1 = 16
mask$ = 24
record$ = 48
GetRecordMask PROC

; 283  : {

	mov	QWORD PTR [rsp+8], rcx
	sub	rsp, 40					; 00000028H

; 284  : #if AMD64_SUPPORT
; 285  :     uint_64 mask = 0;

	mov	QWORD PTR mask$[rsp], 0

; 286  : #else
; 287  :     uint_32 mask = 0;
; 288  : #endif
; 289  :     int i;
; 290  :     struct sfield *fl;
; 291  : 
; 292  :     for ( fl = record->e.structinfo->head; fl; fl = fl->next ) {

	mov	rax, QWORD PTR record$[rsp]
	mov	rax, QWORD PTR [rax+96]
	mov	rax, QWORD PTR [rax]
	mov	QWORD PTR fl$[rsp], rax
	jmp	SHORT $LN4@GetRecordM
$LN2@GetRecordM:
	mov	rax, QWORD PTR fl$[rsp]
	mov	rax, QWORD PTR [rax+96]
	mov	QWORD PTR fl$[rsp], rax
$LN4@GetRecordM:
	cmp	QWORD PTR fl$[rsp], 0
	je	SHORT $LN3@GetRecordM

; 293  :         struct asym *sym = &fl->sym;

	mov	rax, QWORD PTR fl$[rsp]
	mov	QWORD PTR sym$1[rsp], rax

; 294  :         for ( i = sym->offset ;i < sym->offset + sym->total_size; i++ )

	mov	rax, QWORD PTR sym$1[rsp]
	mov	eax, DWORD PTR [rax+16]
	mov	DWORD PTR i$[rsp], eax
	jmp	SHORT $LN7@GetRecordM
$LN5@GetRecordM:
	mov	eax, DWORD PTR i$[rsp]
	inc	eax
	mov	DWORD PTR i$[rsp], eax
$LN7@GetRecordM:
	mov	rax, QWORD PTR sym$1[rsp]
	mov	eax, DWORD PTR [rax+16]
	mov	rcx, QWORD PTR sym$1[rsp]
	add	eax, DWORD PTR [rcx+56]
	cmp	DWORD PTR i$[rsp], eax
	jae	SHORT $LN6@GetRecordM

; 295  :             mask |= 1 << i;

	mov	eax, DWORD PTR i$[rsp]
	mov	ecx, 1
	mov	DWORD PTR tv93[rsp], ecx
	movzx	ecx, al
	mov	eax, DWORD PTR tv93[rsp]
	shl	eax, cl
	cdqe
	mov	rcx, QWORD PTR mask$[rsp]
	or	rcx, rax
	mov	rax, rcx
	mov	QWORD PTR mask$[rsp], rax
	jmp	SHORT $LN5@GetRecordM
$LN6@GetRecordM:

; 296  :     }

	jmp	SHORT $LN2@GetRecordM
$LN3@GetRecordM:

; 297  :     return( mask );

	mov	rax, QWORD PTR mask$[rsp]

; 298  : }

	add	rsp, 40					; 00000028H
	ret	0
GetRecordMask ENDP
_TEXT	ENDS
; Function compile flags: /Odtp
; File d:\hjwasm\hjwasm2.13.1s\hjwasm2.13.1s\expreval.c
_TEXT	SEGMENT
tv70 = 0
tv77 = 4
tv88 = 8
tv92 = 12
mem_type$ = 32
Ofssize$ = 40
GetTypeSize PROC

; 264  : {

	mov	DWORD PTR [rsp+16], edx
	mov	DWORD PTR [rsp+8], ecx
	sub	rsp, 24

; 265  :     if ( (mem_type & MT_SPECIAL) == 0 )

	mov	eax, DWORD PTR mem_type$[rsp]
	and	eax, 128				; 00000080H
	test	eax, eax
	jne	SHORT $LN4@GetTypeSiz

; 266  :         return( ( mem_type & MT_SIZE_MASK ) + 1 );

	mov	eax, DWORD PTR mem_type$[rsp]
	and	eax, 31
	inc	eax
	jmp	$LN1@GetTypeSiz
$LN4@GetTypeSiz:

; 267  :     if ( Ofssize == USE_EMPTY )

	cmp	DWORD PTR Ofssize$[rsp], 254		; 000000feH
	jne	SHORT $LN5@GetTypeSiz

; 268  :         Ofssize = ModuleInfo.Ofssize;

	movzx	eax, BYTE PTR ModuleInfo+404
	mov	DWORD PTR Ofssize$[rsp], eax
$LN5@GetTypeSiz:

; 269  :     switch ( mem_type ) {

	mov	eax, DWORD PTR mem_type$[rsp]
	mov	DWORD PTR tv70[rsp], eax
	cmp	DWORD PTR tv70[rsp], 129		; 00000081H
	je	SHORT $LN6@GetTypeSiz
	cmp	DWORD PTR tv70[rsp], 130		; 00000082H
	je	SHORT $LN7@GetTypeSiz
	jmp	SHORT $LN2@GetTypeSiz
$LN6@GetTypeSiz:

; 270  :     case MT_NEAR: return ( 0xFF00 | ( 2 << Ofssize ) ) ;

	mov	eax, DWORD PTR Ofssize$[rsp]
	mov	ecx, 2
	mov	DWORD PTR tv88[rsp], ecx
	movzx	ecx, al
	mov	eax, DWORD PTR tv88[rsp]
	shl	eax, cl
	or	eax, 65280				; 0000ff00H
	jmp	SHORT $LN1@GetTypeSiz
$LN7@GetTypeSiz:

; 271  :     case MT_FAR:  return ( ( Ofssize == USE16 ) ? LS_FAR16 : 0xFF00 | ( ( 2 << Ofssize ) + 2 ) );

	cmp	DWORD PTR Ofssize$[rsp], 0
	jne	SHORT $LN9@GetTypeSiz
	mov	DWORD PTR tv77[rsp], 65285		; 0000ff05H
	jmp	SHORT $LN10@GetTypeSiz
$LN9@GetTypeSiz:
	mov	eax, DWORD PTR Ofssize$[rsp]
	mov	ecx, 2
	mov	DWORD PTR tv92[rsp], ecx
	movzx	ecx, al
	mov	eax, DWORD PTR tv92[rsp]
	shl	eax, cl
	add	eax, 2
	or	eax, 65280				; 0000ff00H
	mov	DWORD PTR tv77[rsp], eax
$LN10@GetTypeSiz:
	mov	eax, DWORD PTR tv77[rsp]
	jmp	SHORT $LN1@GetTypeSiz
$LN2@GetTypeSiz:

; 272  :     }
; 273  :     /* shouldn't happen */
; 274  :     return( 0 );

	xor	eax, eax
$LN1@GetTypeSiz:

; 275  : }

	add	rsp, 24
	ret	0
GetTypeSize ENDP
_TEXT	ENDS
; Function compile flags: /Odtp
; File d:\hjwasm\hjwasm2.13.1s\hjwasm2.13.1s\expreval.c
_TEXT	SEGMENT
tv66 = 32
tv72 = 36
tv76 = 40
item$ = 64
get_precedence PROC

; 144  : {

	mov	QWORD PTR [rsp+8], rcx
	sub	rsp, 56					; 00000038H

; 145  :     /* The following table is taken verbatim from MASM 6.1 Programmer's Guide,
; 146  :      * page 14, Table 1.3.
; 147  : 
; 148  :      * 1            (), []
; 149  :      * 2            LENGTH, SIZE, WIDTH, MASK, LENGTHOF, SIZEOF
; 150  :      * 3            . (structure-field-name operator)
; 151  :      * 4            : (segment override operator), PTR
; 152  :      * 5            LROFFSET, OFFSET, SEG, THIS, TYPE
; 153  :      * 6            HIGH, HIGHWORD, LOW, LOWWORD
; 154  :      * 7            +, - (unary)
; 155  :      * 8            *, /, MOD, SHL, SHR
; 156  :      * 9            +, - (binary)
; 157  :      * 10           EQ, NE, LT, LE, GT, GE
; 158  :      * 11           NOT
; 159  :      * 12           AND
; 160  :      * 13           OR, XOR
; 161  :      * 14           OPATTR, SHORT, .TYPE
; 162  : 
; 163  :      * The following table appears in QuickHelp online documentation for
; 164  :      * both MASM 6.0 and 6.1. It's slightly different!
; 165  : 
; 166  :      * 1            LENGTH, SIZE, WIDTH, MASK
; 167  :      * 2            (), []
; 168  :      * 3            . (structure-field-name operator)
; 169  :      * 4            : (segment override operator), PTR
; 170  :      * 5            THIS, OFFSET, SEG, TYPE
; 171  :      * 6            HIGH, LOW
; 172  :      * 7            +, - (unary)
; 173  :      * 8            *, /, MOD, SHL, SHR
; 174  :      * 9            +, - (binary)
; 175  :      * 10           EQ, NE, LT, LE, GT, GE
; 176  :      * 11           NOT
; 177  :      * 12           AND
; 178  :      * 13           OR, XOR
; 179  :      * 14           SHORT, OPATTR, .TYPE, ADDR
; 180  : 
; 181  :      * japheth: the first table is the prefered one. Reasons:
; 182  :      * - () and [] must be first.
; 183  :      * - it contains operators SIZEOF, LENGTHOF, HIGHWORD, LOWWORD, LROFFSET
; 184  :      * - ADDR is no operator for expressions. It's exclusively used inside
; 185  :      *   INVOKE directive.
; 186  : 
; 187  :      * However, what's wrong in both tables is the precedence of
; 188  :      * the dot operator: Actually for both HJWasm and Wasm the dot precedence
; 189  :      * is 2 and LENGTH, SIZE, ... have precedence 3 instead.
; 190  : 
; 191  :      * Precedence of operator TYPE was 5 in original Wasm source. It has
; 192  :      * been changed to 4, as described in the Masm docs. This allows syntax
; 193  :      * "TYPE DWORD ptr xxx"
; 194  : 
; 195  :      * v2.02: another case which is problematic:
; 196  :      *     mov al,BYTE PTR CS:[]
; 197  :      * Since PTR and ':' have the very same priority, the evaluator will
; 198  :      * first calculate 'BYTE PTR CS'. This is invalid, but didn't matter
; 199  :      * prior to v2.02 because register coercion was never checked for
; 200  :      * plausibility. Solution: priority of ':' is changed from 4 to 3.
; 201  :      */
; 202  : 
; 203  :     switch( item->token ) {

	mov	rax, QWORD PTR item$[rsp]
	movzx	eax, BYTE PTR [rax]
	mov	DWORD PTR tv66[rsp], eax
	mov	eax, DWORD PTR tv66[rsp]
	sub	eax, 4
	mov	DWORD PTR tv66[rsp], eax
	cmp	DWORD PTR tv66[rsp], 87			; 00000057H
	ja	$LN2@get_preced
	movsxd	rax, DWORD PTR tv66[rsp]
	lea	rcx, OFFSET FLAT:__ImageBase
	movzx	eax, BYTE PTR $LN15@get_preced[rcx+rax]
	mov	eax, DWORD PTR $LN16@get_preced[rcx+rax*4]
	add	rax, rcx
	jmp	rax
$LN4@get_preced:

; 204  :     case T_UNARY_OPERATOR:
; 205  :     case T_BINARY_OPERATOR:
; 206  :         return( item->precedence );

	mov	rax, QWORD PTR item$[rsp]
	movzx	eax, BYTE PTR [rax+1]
	jmp	$LN1@get_preced
$LN5@get_preced:

; 207  :     case T_OP_BRACKET:
; 208  :     case T_OP_SQ_BRACKET:
; 209  :         /* v2.08: with -Zm, the priority of [] and (), if
; 210  :          * used as binary operator, is 9 (like binary +/-).
; 211  :          * test cases: mov ax,+5[bx]
; 212  :          *             mov ax,-5[bx]
; 213  :          */
; 214  :         //return( 1 );
; 215  :         return( ModuleInfo.m510 ? 9 : 1 );

	mov	eax, DWORD PTR ModuleInfo+408
	shr	eax, 6
	and	eax, 1
	test	eax, eax
	je	SHORT $LN11@get_preced
	mov	DWORD PTR tv72[rsp], 9
	jmp	SHORT $LN12@get_preced
$LN11@get_preced:
	mov	DWORD PTR tv72[rsp], 1
$LN12@get_preced:
	mov	eax, DWORD PTR tv72[rsp]
	jmp	SHORT $LN1@get_preced
$LN6@get_preced:

; 216  :     case T_DOT:
; 217  :         return( 2 );

	mov	eax, 2
	jmp	SHORT $LN1@get_preced
$LN7@get_preced:

; 218  :     case T_COLON:
; 219  :         //return( 4 );
; 220  :         return( 3 ); /* changed for v2.02 */

	mov	eax, 3
	jmp	SHORT $LN1@get_preced
$LN8@get_preced:

; 221  :     case '*':
; 222  :     case '/':
; 223  :         return( 8 );

	mov	eax, 8
	jmp	SHORT $LN1@get_preced
$LN9@get_preced:

; 224  :     case '+':
; 225  :     case '-':
; 226  :         return( item->specval ? 9 : 7 );

	mov	rax, QWORD PTR item$[rsp]
	movsx	eax, BYTE PTR [rax+1]
	test	eax, eax
	je	SHORT $LN13@get_preced
	mov	DWORD PTR tv76[rsp], 9
	jmp	SHORT $LN14@get_preced
$LN13@get_preced:
	mov	DWORD PTR tv76[rsp], 7
$LN14@get_preced:
	mov	eax, DWORD PTR tv76[rsp]
	jmp	SHORT $LN1@get_preced
$LN2@get_preced:

; 227  :     }
; 228  :     /* shouldn't happen! */
; 229  :     DebugMsg(("get_precedence: unexpected operator=%s\n", item->string_ptr));

	mov	rax, QWORD PTR item$[rsp]
	mov	rdx, QWORD PTR [rax+8]
	lea	rcx, OFFSET FLAT:$SG11023
	call	DoDebugMsg

; 230  :     fnEmitErr( SYNTAX_ERROR_EX, item->string_ptr );

	mov	rax, QWORD PTR item$[rsp]
	mov	rdx, QWORD PTR [rax+8]
	mov	ecx, 209				; 000000d1H
	call	QWORD PTR fnEmitErr

; 231  :     return( ERROR );

	mov	eax, -1
$LN1@get_preced:

; 232  : }

	add	rsp, 56					; 00000038H
	ret	0
	npad	2
$LN16@get_preced:
	DD	$LN4@get_preced
	DD	$LN5@get_preced
	DD	$LN8@get_preced
	DD	$LN9@get_preced
	DD	$LN6@get_preced
	DD	$LN7@get_preced
	DD	$LN2@get_preced
$LN15@get_preced:
	DB	0
	DB	0
	DB	6
	DB	6
	DB	6
	DB	6
	DB	6
	DB	6
	DB	6
	DB	6
	DB	6
	DB	6
	DB	6
	DB	6
	DB	6
	DB	6
	DB	6
	DB	6
	DB	6
	DB	6
	DB	6
	DB	6
	DB	6
	DB	6
	DB	6
	DB	6
	DB	6
	DB	6
	DB	6
	DB	6
	DB	6
	DB	6
	DB	6
	DB	6
	DB	6
	DB	6
	DB	1
	DB	6
	DB	2
	DB	3
	DB	6
	DB	3
	DB	4
	DB	2
	DB	6
	DB	6
	DB	6
	DB	6
	DB	6
	DB	6
	DB	6
	DB	6
	DB	6
	DB	6
	DB	5
	DB	6
	DB	6
	DB	6
	DB	6
	DB	6
	DB	6
	DB	6
	DB	6
	DB	6
	DB	6
	DB	6
	DB	6
	DB	6
	DB	6
	DB	6
	DB	6
	DB	6
	DB	6
	DB	6
	DB	6
	DB	6
	DB	6
	DB	6
	DB	6
	DB	6
	DB	6
	DB	6
	DB	6
	DB	6
	DB	6
	DB	6
	DB	6
	DB	1
get_precedence ENDP
_TEXT	ENDS
; Function compile flags: /Odtp
; File d:\hjwasm\hjwasm2.13.1s\hjwasm2.13.1s\expreval.c
_TEXT	SEGMENT
opnd1$ = 48
opnd2$ = 56
TokenAssign PROC

; 112  : {

	mov	QWORD PTR [rsp+16], rdx
	mov	QWORD PTR [rsp+8], rcx
	sub	rsp, 40					; 00000028H

; 113  : #if 1
; 114  :     /* note that offsetof() is used. This means, don't change position
; 115  :      of field <type> in expr! */
; 116  :     memcpy( opnd1, opnd2, offsetof( struct expr, type ) );

	mov	r8d, 96					; 00000060H
	mov	rdx, QWORD PTR opnd2$[rsp]
	mov	rcx, QWORD PTR opnd1$[rsp]
	call	memcpy

; 117  : #else
; 118  :     opnd1->llvalue  = opnd2->llvalue;
; 119  :     opnd1->hlvalue  = opnd2->hlvalue;
; 120  :     opnd1->quoted_string   = opnd2->quoted_string; /* probably useless */
; 121  :     opnd1->base_reg = opnd2->base_reg;
; 122  :     opnd1->idx_reg  = opnd2->idx_reg;
; 123  :     opnd1->label_tok = opnd2->label_tok;
; 124  :     opnd1->override = opnd2->override;
; 125  :     opnd1->instr    = opnd2->instr;
; 126  :     opnd1->kind     = opnd2->kind;
; 127  :     opnd1->mem_type = opnd2->mem_type;
; 128  :     opnd1->scale    = opnd2->scale;
; 129  :     opnd1->Ofssize  = opnd2->Ofssize;
; 130  :     opnd1->flags1   = opnd2->flags1;
; 131  :     opnd1->sym      = opnd2->sym;
; 132  :     opnd1->mbr      = opnd2->mbr;
; 133  : //  opnd1->type     = opnd2->type;
; 134  : #endif
; 135  : }

	add	rsp, 40					; 00000028H
	ret	0
TokenAssign ENDP
_TEXT	ENDS
; Function compile flags: /Odtp
; File d:\hjwasm\hjwasm2.13.1s\hjwasm2.13.1s\expreval.c
_TEXT	SEGMENT
opnd$ = 8
init_expr PROC

; 90   : {

	mov	QWORD PTR [rsp+8], rcx

; 91   :     opnd->value    = 0;

	mov	rax, QWORD PTR opnd$[rsp]
	mov	DWORD PTR [rax], 0

; 92   :     opnd->hvalue   = 0;

	mov	rax, QWORD PTR opnd$[rsp]
	mov	DWORD PTR [rax+4], 0

; 93   :     opnd->hlvalue  = 0;

	mov	rax, QWORD PTR opnd$[rsp]
	mov	QWORD PTR [rax+8], 0

; 94   :     opnd->quoted_string   = NULL;

	mov	rax, QWORD PTR opnd$[rsp]
	mov	QWORD PTR [rax+16], 0

; 95   :     opnd->base_reg = NULL;

	mov	rax, QWORD PTR opnd$[rsp]
	mov	QWORD PTR [rax+24], 0

; 96   :     opnd->idx_reg  = NULL;

	mov	rax, QWORD PTR opnd$[rsp]
	mov	QWORD PTR [rax+32], 0

; 97   :     opnd->label_tok = NULL;

	mov	rax, QWORD PTR opnd$[rsp]
	mov	QWORD PTR [rax+40], 0

; 98   :     opnd->override = NULL;

	mov	rax, QWORD PTR opnd$[rsp]
	mov	QWORD PTR [rax+48], 0

; 99   :     opnd->instr    = EMPTY;

	mov	rax, QWORD PTR opnd$[rsp]
	mov	DWORD PTR [rax+56], -2

; 100  :     opnd->kind     = EXPR_EMPTY;

	mov	rax, QWORD PTR opnd$[rsp]
	mov	DWORD PTR [rax+60], -2

; 101  :     opnd->mem_type = MT_EMPTY;

	mov	rax, QWORD PTR opnd$[rsp]
	mov	DWORD PTR [rax+64], 192			; 000000c0H

; 102  :     opnd->scale    = 0;

	mov	rax, QWORD PTR opnd$[rsp]
	mov	BYTE PTR [rax+68], 0

; 103  :     opnd->Ofssize  = USE_EMPTY;

	mov	rax, QWORD PTR opnd$[rsp]
	mov	BYTE PTR [rax+69], 254			; 000000feH

; 104  :     opnd->flags1   = 0;

	mov	rax, QWORD PTR opnd$[rsp]
	mov	BYTE PTR [rax+72], 0

; 105  :     opnd->sym      = NULL;

	mov	rax, QWORD PTR opnd$[rsp]
	mov	QWORD PTR [rax+80], 0

; 106  :     opnd->mbr      = NULL;

	mov	rax, QWORD PTR opnd$[rsp]
	mov	QWORD PTR [rax+88], 0

; 107  :     opnd->type     = NULL;

	mov	rax, QWORD PTR opnd$[rsp]
	mov	QWORD PTR [rax+96], 0

; 108  : }

	ret	0
init_expr ENDP
_TEXT	ENDS
; Function compile flags: /Odtp
; File d:\hjwasm\hjwasm2.13.1s\hjwasm2.13.1s\expreval.c
_TEXT	SEGMENT
msg$ = 8
noEmitErr PROC

; 3442 : {

	mov	DWORD PTR [rsp+8], ecx
	mov	QWORD PTR [rsp+16], rdx
	mov	QWORD PTR [rsp+24], r8
	mov	QWORD PTR [rsp+32], r9

; 3443 :     return( ERROR );

	mov	eax, -1

; 3444 : }

	ret	0
noEmitErr ENDP
_TEXT	ENDS
; Function compile flags: /Odtp
; File d:\hjwasm\hjwasm2.13.1s\hjwasm2.13.1s\expreval.c
_TEXT	SEGMENT
opnd$ = 48
EmitConstError PROC

; 3470 : {

$LN5:
	mov	QWORD PTR [rsp+8], rcx
	sub	rsp, 40					; 00000028H

; 3471 :     if ( opnd->hlvalue != 0 )

	mov	rax, QWORD PTR opnd$[rsp]
	cmp	QWORD PTR [rax+8], 0
	je	SHORT $LN2@EmitConstE

; 3472 :         EmitErr( CONSTANT_VALUE_TOO_LARGE_EX, opnd->hlvalue, opnd->value64 );

	mov	rax, QWORD PTR opnd$[rsp]
	mov	r8, QWORD PTR [rax]
	mov	rax, QWORD PTR opnd$[rsp]
	mov	rdx, QWORD PTR [rax+8]
	mov	ecx, 273				; 00000111H
	call	EmitErr
	jmp	SHORT $LN3@EmitConstE
$LN2@EmitConstE:

; 3473 :     else
; 3474 :         EmitErr( CONSTANT_VALUE_TOO_LARGE, opnd->value64 );

	mov	rax, QWORD PTR opnd$[rsp]
	mov	rdx, QWORD PTR [rax]
	mov	ecx, 235				; 000000ebH
	call	EmitErr
$LN3@EmitConstE:

; 3475 :     return( ERROR );

	mov	eax, -1

; 3476 : }

	add	rsp, 40					; 00000028H
	ret	0
EmitConstError ENDP
_TEXT	ENDS
; Function compile flags: /Odtp
; File d:\hjwasm\hjwasm2.13.1s\hjwasm2.13.1s\expreval.c
_TEXT	SEGMENT
ExprEvalInit PROC

; 3483 :     thissym = NULL;

	mov	QWORD PTR thissym, 0

; 3484 :     nullstruct = NULL;

	mov	QWORD PTR nullstruct, 0

; 3485 :     nullmbr = NULL;

	mov	QWORD PTR nullmbr, 0

; 3486 : }

	ret	0
ExprEvalInit ENDP
_TEXT	ENDS
; Function compile flags: /Odtp
; File d:\hjwasm\hjwasm2.13.1s\hjwasm2.13.1s\expreval.c
_TEXT	SEGMENT
i$ = 48
tv88 = 56
start_tok$ = 80
tokenarray$ = 88
end_tok$ = 96
result$ = 104
flags$ = 112
EvalOperand PROC

; 3452 : {

$LN9:
	mov	QWORD PTR [rsp+32], r9
	mov	DWORD PTR [rsp+24], r8d
	mov	QWORD PTR [rsp+16], rdx
	mov	QWORD PTR [rsp+8], rcx
	sub	rsp, 72					; 00000048H

; 3453 :     int         i;
; 3454 : 
; 3455 :     DebugMsg1(("EvalOperand(start=%u, end=%u, flags=%X) enter: >%s<\n", *start_tok, end_tok, flags, tokenarray[*start_tok].tokpos ));

	mov	rax, QWORD PTR start_tok$[rsp]
	movsxd	rax, DWORD PTR [rax]
	imul	rax, rax, 32				; 00000020H
	movzx	ecx, BYTE PTR flags$[rsp]
	mov	rdx, QWORD PTR tokenarray$[rsp]
	mov	rax, QWORD PTR [rdx+rax+24]
	mov	QWORD PTR [rsp+32], rax
	mov	r9d, ecx
	mov	r8d, DWORD PTR end_tok$[rsp]
	mov	rax, QWORD PTR start_tok$[rsp]
	mov	edx, DWORD PTR [rax]
	lea	rcx, OFFSET FLAT:$SG12435
	call	DoDebugMsg1

; 3456 : 
; 3457 :     init_expr( result );

	mov	rcx, QWORD PTR result$[rsp]
	call	init_expr

; 3458 : 
; 3459 :     for( i = *start_tok; ( i < end_tok ) && is_expr_item( &tokenarray[i] ); i++ );

	mov	rax, QWORD PTR start_tok$[rsp]
	mov	eax, DWORD PTR [rax]
	mov	DWORD PTR i$[rsp], eax
	jmp	SHORT $LN4@EvalOperan
$LN2@EvalOperan:
	mov	eax, DWORD PTR i$[rsp]
	inc	eax
	mov	DWORD PTR i$[rsp], eax
$LN4@EvalOperan:
	mov	eax, DWORD PTR end_tok$[rsp]
	cmp	DWORD PTR i$[rsp], eax
	jge	SHORT $LN3@EvalOperan
	movsxd	rax, DWORD PTR i$[rsp]
	imul	rax, rax, 32				; 00000020H
	mov	rcx, QWORD PTR tokenarray$[rsp]
	add	rcx, rax
	mov	rax, rcx
	mov	rcx, rax
	call	is_expr_item
	movzx	eax, al
	test	eax, eax
	je	SHORT $LN3@EvalOperan
	jmp	SHORT $LN2@EvalOperan
$LN3@EvalOperan:

; 3460 :     if ( i == *start_tok )

	mov	rax, QWORD PTR start_tok$[rsp]
	mov	eax, DWORD PTR [rax]
	cmp	DWORD PTR i$[rsp], eax
	jne	SHORT $LN5@EvalOperan

; 3461 :         return( NOT_ERROR );

	xor	eax, eax
	jmp	SHORT $LN1@EvalOperan
$LN5@EvalOperan:

; 3462 : 
; 3463 :     /* v2.10: global flag 'error_msg' replaced by 'fnEmitErr()' */
; 3464 :     fnEmitErr = ( ( flags & EXPF_NOERRMSG ) ? noEmitErr : EmitErr );

	movzx	eax, BYTE PTR flags$[rsp]
	and	eax, 1
	test	eax, eax
	je	SHORT $LN7@EvalOperan
	lea	rax, OFFSET FLAT:noEmitErr
	mov	QWORD PTR tv88[rsp], rax
	jmp	SHORT $LN8@EvalOperan
$LN7@EvalOperan:
	lea	rax, OFFSET FLAT:EmitErr
	mov	QWORD PTR tv88[rsp], rax
$LN8@EvalOperan:
	mov	rax, QWORD PTR tv88[rsp]
	mov	QWORD PTR fnEmitErr, rax

; 3465 :     return ( evaluate( result, start_tok, tokenarray, i, flags ) );

	movzx	eax, BYTE PTR flags$[rsp]
	mov	BYTE PTR [rsp+32], al
	mov	r9d, DWORD PTR i$[rsp]
	mov	r8, QWORD PTR tokenarray$[rsp]
	mov	rdx, QWORD PTR start_tok$[rsp]
	mov	rcx, QWORD PTR result$[rsp]
	call	evaluate
$LN1@EvalOperan:

; 3466 : }

	add	rsp, 72					; 00000048H
	ret	0
EvalOperand ENDP
_TEXT	ENDS
END
