; Listing generated by Microsoft (R) Optimizing Compiler Version 19.00.23026.0 

include listing.inc

INCLUDELIB MSVCRTD
INCLUDELIB OLDNAMES

_BSS	SEGMENT
$SG11643 DB	01H DUP (?)
	ALIGN	4

$SG11651 DB	01H DUP (?)
	ALIGN	4

$SG11654 DB	02H DUP (?)
	ALIGN	4

$SG11659 DB	01H DUP (?)
_BSS	ENDS
_DATA	SEGMENT
COMM	decoflags:BYTE
COMM	broadflags:BYTE
COMM	evex:BYTE
COMM	ZEROLOCALS:BYTE
_DATA	ENDS
CONST	SEGMENT
reax	DB	'rax', 00H, 00H
	ORG $+3
recx	DB	'rcx', 00H, 00H
	ORG $+3
redx	DB	'rdx', 00H, 00H
	ORG $+3
flaginstr DB	07aH
	DB	063H
	DB	073H
	DB	070H
	DB	06fH
	DB	06cH
	DB	067H
	DB	061H
	DB	065H
	DB	062H
	ORG $+2
unsigned_cjmptype DB 07aH
	DB	07aH
	DB	061H
	DB	062H
	DB	062H
	DB	061H
	ORG $+2
signed_cjmptype DB 07aH
	DB	07aH
	DB	067H
	DB	06cH
	DB	06cH
	DB	067H
	ORG $+2
neg_cjmptype DB	00H
	DB	01H
	DB	00H
	DB	00H
	DB	01H
	DB	01H
CONST	ENDS
_DATA	SEGMENT
$SG11265 DB	'^', 00H
	ORG $+6
$SG11267 DB	'%u GetExpression: jmp inverted, dest changed >%s<', 0aH, 00H
	ORG $+1
$SG11270 DB	'%s:^', 00H
	ORG $+3
$SG11271 DB	'%s:^', 00H
	ORG $+3
$SG11278 DB	':^', 00H
	ORG $+1
$SG11272 DB	'%u GetExpression: dest changed, label added >%s<', 0aH, 00H
	ORG $+2
$SG11353 DB	', ', 00H
	ORG $+1
$SG11274 DB	'%u GetExpression exit, error', 0aH, 00H
	ORG $+2
$SG11279 DB	'%u GetExpression: label added >%s<', 0aH, 00H
	ORG $+4
$SG11277 DB	'%u GetExpression: suppressed ReplaceLabel %u -> %u, last'
	DB	'jmp=%s', 0aH, 00H
$SG11280 DB	'%u GetExpression exit', 0aH, 00H
	ORG $+1
$SG11288 DB	'NULL', 00H
	ORG $+3
$SG11289 DB	'QueueTestLines("%s") enter', 0aH, 00H
$SG11660 DB	'%s:', 00H
$SG11292 DB	'QueueTestLines exit', 0aH, 00H
	ORG $+3
$SG11309 DB	'EvaluateHllExpression enter', 0aH, 00H
	ORG $+3
$SG11312 DB	'EvaluateHllExpression: unexpected tokens >%s<', 0aH, 00H
	ORG $+1
$SG11328 DB	'CheckCXZLines enter, p=>%s<', 0aH, 00H
	ORG $+3
$SG11335 DB	'loope', 00H
	ORG $+2
$SG11339 DB	'loop', 00H
	ORG $+3
$SG11398 DB	'=!<>&|-+*^%/', 00H
	ORG $+3
$SG11406 DB	' inc ', 00H
	ORG $+2
$SG11408 DB	' dec ', 00H
	ORG $+2
$SG11426 DB	' mov  ', 00H
	ORG $+1
$SG11429 DB	' cdq ', 00H
	ORG $+2
$SG11432 DB	' mov  ', 00H
	ORG $+1
$SG11436 DB	' idiv ', 00H
	ORG $+1
$SG11437 DB	' imul ', 00H
	ORG $+1
$SG11441 DB	' idiv ', 00H
	ORG $+1
$SG11442 DB	' imul ', 00H
	ORG $+1
$SG11444 DB	' mov  ', 00H
	ORG $+1
$SG11445 DB	' mov  ', 00H
	ORG $+1
$SG11449 DB	' cdq ', 00H
	ORG $+2
$SG11450 DB	' idiv ', 00H
	ORG $+1
$SG11451 DB	' imul ', 00H
	ORG $+1
$SG11454 DB	' mov  ', 00H
	ORG $+1
$SG11455 DB	' mov  ', 00H
	ORG $+1
$SG11461 DB	' cdq ', 00H
	ORG $+2
$SG11462 DB	' idiv ', 00H
	ORG $+1
$SG11463 DB	' imul ', 00H
	ORG $+1
$SG11465 DB	' mov  ', 00H
	ORG $+1
$SG11471 DB	' cdq ', 00H
	ORG $+2
$SG11472 DB	' idiv ', 00H
	ORG $+1
$SG11473 DB	' imul ', 00H
	ORG $+1
$SG11475 DB	' mov  ', 00H
	ORG $+1
$SG11478 DB	' mov  ', 00H
	ORG $+1
$SG11482 DB	' cdq ', 00H
	ORG $+2
$SG11483 DB	' idiv ', 00H
	ORG $+1
$SG11484 DB	' imul ', 00H
	ORG $+1
$SG11486 DB	' mov  ', 00H
	ORG $+1
$SG11489 DB	' sub ', 00H
	ORG $+2
$SG11492 DB	' add ', 00H
	ORG $+2
$SG11495 DB	' and ', 00H
	ORG $+2
$SG11498 DB	' or ', 00H
	ORG $+3
$SG11501 DB	' xor ', 00H
	ORG $+2
$SG11504 DB	' shl ', 00H
	ORG $+2
$SG11506 DB	' shr ', 00H
	ORG $+2
$SG11513 DB	' xor  ', 00H
	ORG $+1
$SG11520 DB	'BYTE PTR', 00H
	ORG $+3
$SG11521 DB	'BPTR', 00H
	ORG $+3
$SG11522 DB	'WPTR', 00H
	ORG $+3
$SG11528 DB	' lea  ', 00H
	ORG $+1
$SG11668 DB	'jmp', 00H
$SG11523 DB	'WORD PTR', 00H
	ORG $+3
$SG11529 DB	' mov  ', 00H
	ORG $+1
$SG11670 DB	'%s:', 00H
$SG11524 DB	' movzx  ', 00H
	ORG $+3
$SG11527 DB	'ADDR', 00H
	ORG $+3
$SG11535 DB	'OFFSET', 00H
	ORG $+1
$SG11536 DB	' lea  ', 00H
	ORG $+1
$SG11537 DB	' mov  ', 00H
	ORG $+1
$SG11702 DB	'%s:', 00H
$SG11544 DB	'DWORD PTR', 00H
	ORG $+2
$SG11545 DB	'DPTR', 00H
	ORG $+3
$SG11548 DB	' mov  ', 00H
	ORG $+1
$SG11707 DB	'%s:', 00H
$SG11547 DB	' movsxd  ', 00H
	ORG $+2
$SG11555 DB	' mov  ', 00H
	ORG $+1
$SG11713 DB	'%s:', 00H
$SG11554 DB	' invoke  ', 00H
	ORG $+2
$SG11558 DB	' mov  ', 00H
	ORG $+1
$SG11715 DB	'%s:', 00H
$SG11561 DB	' mov  byte ptr ', 00H
$SG11562 DB	' mov  ', 00H
	ORG $+1
$SG11622 DB	'HllStartDir(%s) enter', 0aH, 00H
	ORG $+1
$SG11635 DB	'(::)', 00H
	ORG $+3
$SG11650 DB	' jmp %s', 00H
$SG11653 DB	'.for ', 00H
	ORG $+2
$SG11655 DB	'.for', 00H, 00H
	ORG $+2
$SG11669 DB	'jmp %s', 00H
	ORG $+1
$SG11672 DB	'hll.c', 00H
	ORG $+2
$SG11674 DB	'HllStartDir: unexpected token [%s]', 0aH, 00H
$SG11723 DB	'%s:', 00H
$SG11695 DB	'HllEndDir(%s) enter', 0aH, 00H
	ORG $+3
$SG11697 DB	'HllEndDir: hll stack is empty', 0aH, 00H
	ORG $+1
$SG11700 DB	'HllEndDir: no .IF on the hll stack', 0aH, 00H
$SG11728 DB	'%s:', 00H
$SG11705 DB	'HllEndDir: no .FOR on the hll stack', 0aH, 00H
	ORG $+3
$SG11716 DB	' jmp %s', 00H
$SG11718 DB	' jmp %s', 00H
$SG11721 DB	'HllEndDir: no .WHILE on the hll stack', 0aH, 00H
	ORG $+1
$SG11726 DB	'HllEndDir: no .REPEAT on the hll stack', 0aH, 00H
$SG11734 DB	'loop %s', 00H
$SG11737 DB	'HllEndDir: no .REPEAT on the hll stack', 0aH, 00H
$SG11739 DB	'%s:', 00H
$SG11743 DB	'hll.c', 00H
	ORG $+2
$SG11745 DB	'%s:', 00H
$SG11771 DB	'HllExitDir(%s) enter', 0aH, 00H
	ORG $+2
$SG11773 DB	'HllExitDir stack error', 0aH, 00H
$SG11776 DB	'HllExitDir(%s): labels[LTEST]=%X', 0aH, 00H
	ORG $+2
$SG11779 DB	'jmp %s', 00H
	ORG $+1
$SG11781 DB	'%s:', 00H
$SG11798 DB	'jmp %s', 00H
	ORG $+1
$SG11800 DB	'hll.c', 00H
	ORG $+2
$SG11807 DB	'.if-.repeat-.while', 00H
	ORG $+1
$SG10967 DB	'ZERO', 00H
	ORG $+7
$SG11808 DB	'HllCheckOpen: allocated items:%u, reused items:%u, .whil'
	DB	'e cond-blocks/bytes:%u/%u', 0aH, 00H
	ORG $+1
$SG10970 DB	'CARRY', 00H
	ORG $+2
$SG10973 DB	'SIGN', 00H
	ORG $+3
$SG10976 DB	'PARITY', 00H
	ORG $+1
$SG11134 DB	'cmp', 00H
$SG10979 DB	'OVERFLOW', 00H
	ORG $+3
$SG10982 DB	'LESS', 00H
	ORG $+3
$SG10988 DB	'ABOVE', 00H
	ORG $+2
$SG11024 DB	'@C%04X', 00H
	ORG $+1
$SG11156 DB	'or', 00H
	ORG $+1
$SG10985 DB	'GREATER', 00H
$SG10991 DB	'EQUAL', 00H
	ORG $+2
$SG10994 DB	'BELOW', 00H
	ORG $+2
$SG11016 DB	', %d', 00H
	ORG $+3
$SG11017 DB	'%u RenderInstr(%s)=>%s<', 0aH, 00H
	ORG $+3
$SG11064 DB	'hll.c', 00H
	ORG $+2
$SG11157 DB	'cmp', 00H
$SG11038 DB	'%u RenderJcc()=>%s<', 0aH, 00H
	ORG $+3
$SG11103 DB	'%u GetSimpleExpression(>%.32s< buf=>%s<) enter', 0aH, 00H
$SG11112 DB	'%u GetSimpleExpression: calling GetExpression, i=%u', 0aH
	DB	00H
	ORG $+3
$SG11115 DB	'GetSimpleExpression: expected '')'', found: %s', 0aH, 00H
	ORG $+2
$SG11121 DB	'%u GetSimpleExpression: EvalOperand ok, kind=%X, i=%u [%'
	DB	's]', 0aH, 00H
$SG11226 DB	'^', 00H
	ORG $+2
$SG11124 DB	'GetSimpleExpression: non-empty expression rejected: %s', 0aH
	DB	00H
$SG11126 DB	'GetSimpleExpression: empty expression rejected', 0aH, 00H
$SG11128 DB	'GetSimpleExpression: float expression rejected: %s', 0aH
	DB	00H
$SG11132 DB	'test', 00H
	ORG $+3
$SG11143 DB	'hll.c', 00H
	ORG $+2
$SG11230 DB	':^', 00H
	ORG $+1
$SG11141 DB	'jmp @C%04X^', 00H
	ORG $+4
$SG11145 DB	'%u GetSimpleExpression: EvalOperand 2 ok, type=%X, i=%u '
	DB	'[%s]', 0aH, 00H
	ORG $+2
$SG11147 DB	'GetSimpleExpression: syntax error, op2.kind=%u', 0aH, 00H
$SG11150 DB	'test', 00H
	ORG $+3
$SG11158 DB	'GetSimpleExpression: unexpected operator %s', 0aH, 00H
	ORG $+3
$SG11164 DB	'jmp ', 00H
	ORG $+3
$SG11194 DB	'%u ReplaceLabel(%s->%s, >%s<)', 0aH, 00H
	ORG $+1
$SG11218 DB	'%u GetAndExpression(>%.32s< buf=>%s<) enter', 0aH, 00H
	ORG $+3
$SG11220 DB	'NULL', 00H
	ORG $+3
$SG11227 DB	'%u GetAndExpression: jmp inverted >%s<', 0aH, 00H
$SG11221 DB	'%u GetAndExpression: &&-operator found, is_true=%u, last'
	DB	'jmp=%s', 0aH, 00H
$SG11231 DB	'%u GetAndExpression: label added >%s<', 0aH, 00H
	ORG $+1
$SG11256 DB	'%u GetExpression(>%.32s< buf=>%s<) enter', 0aH, 00H
	ORG $+6
$SG11258 DB	'%u GetExpression exit, error', 0aH, 00H
	ORG $+2
$SG11259 DB	'NULL', 00H
	ORG $+3
$SG11260 DB	'%u GetExpression: ||-operator found, is_true=%u, lastjmp'
	DB	'=%s', 0aH, 00H
_DATA	ENDS
PUBLIC	__local_stdio_printf_options
PUBLIC	_vsnprintf_l
PUBLIC	_vsprintf_l
PUBLIC	sprintf
PUBLIC	HllInit
PUBLIC	HllCheckOpen
PUBLIC	HllStartDir
PUBLIC	HllEndDir
PUBLIC	HllExitDir
EXTRN	__report_rangecheckfailure:PROC
EXTRN	__imp_tolower:PROC
EXTRN	__imp___stdio_common_vsprintf:PROC
EXTRN	memcpy:PROC
EXTRN	__imp_strchr:PROC
EXTRN	__imp_strstr:PROC
EXTRN	__imp__memicmp:PROC
EXTRN	strcat:PROC
EXTRN	strcmp:PROC
EXTRN	strcpy:PROC
EXTRN	__imp__stricmp:PROC
EXTRN	strlen:PROC
EXTRN	DoDebugMsg:PROC
EXTRN	DoDebugMsg1:PROC
EXTRN	EmitError:PROC
EXTRN	EmitErr:PROC
EXTRN	LclAlloc:PROC
EXTRN	EvalOperand:PROC
EXTRN	EmitConstError:PROC
EXTRN	GetCurrOffset:PROC
EXTRN	LstWrite:PROC
EXTRN	AddLineQueue:PROC
EXTRN	AddLineQueueX:PROC
EXTRN	RunLineQueue:PROC
EXTRN	InternalError:PROC
EXTRN	Tokenize:PROC
EXTRN	_RTC_CheckStackVars:PROC
EXTRN	_RTC_InitBase:PROC
EXTRN	_RTC_Shutdown:PROC
EXTRN	__GSHandlerCheck:PROC
EXTRN	__chkstk:PROC
EXTRN	__security_check_cookie:PROC
EXTRN	Options:BYTE
EXTRN	ModuleInfo:BYTE
EXTRN	__security_cookie:QWORD
_DATA	SEGMENT
COMM	?_OptionsStorage@?1??__local_stdio_printf_options@@9@9:QWORD							; `__local_stdio_printf_options'::`2'::_OptionsStorage
_DATA	ENDS
_BSS	SEGMENT
	ALIGN	4

evallvl	DD	01H DUP (?)
cntAlloc DD	01H DUP (?)
cntReused DD	01H DUP (?)
cntCond	DD	01H DUP (?)
cntCondBytes DD	01H DUP (?)
_BSS	ENDS
;	COMDAT pdata
pdata	SEGMENT
$pdata$__local_stdio_printf_options DD imagerel $LN3
	DD	imagerel $LN3+11
	DD	imagerel $unwind$__local_stdio_printf_options
pdata	ENDS
;	COMDAT pdata
pdata	SEGMENT
$pdata$_vsnprintf_l DD imagerel $LN5
	DD	imagerel $LN5+140
	DD	imagerel $unwind$_vsnprintf_l
pdata	ENDS
;	COMDAT pdata
pdata	SEGMENT
$pdata$_vsprintf_l DD imagerel $LN3
	DD	imagerel $LN3+88
	DD	imagerel $unwind$_vsprintf_l
pdata	ENDS
;	COMDAT pdata
pdata	SEGMENT
$pdata$sprintf DD imagerel $LN3
	DD	imagerel $LN3+120
	DD	imagerel $unwind$sprintf
pdata	ENDS
pdata	SEGMENT
$pdata$HllInit DD imagerel $LN4
	DD	imagerel $LN4+74
	DD	imagerel $unwind$HllInit
$pdata$HllCheckOpen DD imagerel $LN4
	DD	imagerel $LN4+96
	DD	imagerel $unwind$HllCheckOpen
$pdata$GetExpression DD imagerel GetExpression
	DD	imagerel GetExpression+1442
	DD	imagerel $unwind$GetExpression
$pdata$GetHllLabel DD imagerel GetHllLabel
	DD	imagerel GetHllLabel+24
	DD	imagerel $unwind$GetHllLabel
$pdata$GetCOp DD imagerel GetCOp
	DD	imagerel GetCOp+903
	DD	imagerel $unwind$GetCOp
$pdata$RenderInstr DD imagerel RenderInstr
	DD	imagerel RenderInstr+510
	DD	imagerel $unwind$RenderInstr
$pdata$GetLabelStr DD imagerel GetLabelStr
	DD	imagerel GetLabelStr+66
	DD	imagerel $unwind$GetLabelStr
$pdata$RenderJcc DD imagerel RenderJcc
	DD	imagerel RenderJcc+280
	DD	imagerel $unwind$RenderJcc
$pdata$GetToken DD imagerel GetToken
	DD	imagerel GetToken+220
	DD	imagerel $unwind$GetToken
$pdata$GetLabel DD imagerel GetLabel
	DD	imagerel GetLabel+102
	DD	imagerel $unwind$GetLabel
$pdata$GetSimpleExpression DD imagerel GetSimpleExpression
	DD	imagerel GetSimpleExpression+2686
	DD	imagerel $unwind$GetSimpleExpression
$pdata$InvertJump DD imagerel InvertJump
	DD	imagerel InvertJump+457
	DD	imagerel $unwind$InvertJump
$pdata$ReplaceLabel DD imagerel ReplaceLabel
	DD	imagerel ReplaceLabel+294
	DD	imagerel $unwind$ReplaceLabel
$pdata$GetAndExpression DD imagerel GetAndExpression
	DD	imagerel GetAndExpression+799
	DD	imagerel $unwind$GetAndExpression
$pdata$QueueTestLines DD imagerel QueueTestLines
	DD	imagerel QueueTestLines+191
	DD	imagerel $unwind$QueueTestLines
$pdata$EvaluateHllExpression DD imagerel EvaluateHllExpression
	DD	imagerel EvaluateHllExpression+284
	DD	imagerel $unwind$EvaluateHllExpression
$pdata$CheckCXZLines DD imagerel CheckCXZLines
	DD	imagerel CheckCXZLines+435
	DD	imagerel $unwind$CheckCXZLines
$pdata$WriteAsmLine DD imagerel WriteAsmLine
	DD	imagerel WriteAsmLine+185
	DD	imagerel $unwind$WriteAsmLine
$pdata$ForInitAndNext DD imagerel ForInitAndNext
	DD	imagerel ForInitAndNext+5315
	DD	imagerel $unwind$ForInitAndNext
$pdata$HllStartDir DD imagerel $LN76
	DD	imagerel $LN76+3858
	DD	imagerel $unwind$HllStartDir
$pdata$HllEndDir DD imagerel $LN40
	DD	imagerel $LN40+1958
	DD	imagerel $unwind$HllEndDir
$pdata$HllExitDir DD imagerel $LN38
	DD	imagerel $LN38+1548
	DD	imagerel $unwind$HllExitDir
pdata	ENDS
;	COMDAT rtc$TMZ
rtc$TMZ	SEGMENT
_RTC_Shutdown.rtc$TMZ DQ FLAT:_RTC_Shutdown
rtc$TMZ	ENDS
;	COMDAT rtc$IMZ
rtc$IMZ	SEGMENT
_RTC_InitBase.rtc$IMZ DQ FLAT:_RTC_InitBase
rtc$IMZ	ENDS
CONST	SEGMENT
	ORG $+2
GetExpression$rtcName$0 DB 062H
	DB	075H
	DB	066H
	DB	066H
	DB	00H
	ORG $+7
GetExpression$rtcFrameData DD 01H
	DD	00H
	DQ	FLAT:GetExpression$rtcVarDesc
GetSimpleExpression$rtcName$0 DB 06fH
	DB	070H
	DB	031H
	DB	00H
	ORG $+4
GetExpression$rtcVarDesc DD 068H
	DD	010H
	DQ	FLAT:GetExpression$rtcName$0
	ORG $+48
GetSimpleExpression$rtcName$1 DB 06fH
	DB	070H
	DB	032H
	DB	00H
ReplaceLabel$rtcName$0 DB 06fH
	DB	06cH
	DB	064H
	DB	06cH
	DB	062H
	DB	06cH
	DB	00H
	ORG $+5
GetSimpleExpression$rtcVarDesc DD 0100H
	DD	068H
	DQ	FLAT:GetSimpleExpression$rtcName$1
	DD	070H
	DD	068H
	DQ	FLAT:GetSimpleExpression$rtcName$0
	ORG $+96
GetSimpleExpression$rtcFrameData DD 02H
	DD	00H
	DQ	FLAT:GetSimpleExpression$rtcVarDesc
ReplaceLabel$rtcName$1 DB 06eH
	DB	065H
	DB	077H
	DB	06cH
	DB	062H
	DB	06cH
	DB	00H
	ORG $+1
ReplaceLabel$rtcFrameData DD 02H
	DD	00H
	DQ	FLAT:ReplaceLabel$rtcVarDesc
EvaluateHllExpression$rtcName$0 DB 068H
	DB	06cH
	DB	06cH
	DB	06fH
	DB	070H
	DB	00H
	ORG $+2
ReplaceLabel$rtcVarDesc DD 068H
	DD	010H
	DQ	FLAT:ReplaceLabel$rtcName$1
	DD	038H
	DD	010H
	DQ	FLAT:ReplaceLabel$rtcName$0
	ORG $+96
EvaluateHllExpression$rtcVarDesc DD 048H
	DD	010H
	DQ	FLAT:EvaluateHllExpression$rtcName$0
	ORG $+48
EvaluateHllExpression$rtcFrameData DD 01H
	DD	00H
	DQ	FLAT:EvaluateHllExpression$rtcVarDesc
WriteAsmLine$rtcName$0 DB 063H
	DB	06fH
	DB	064H
	DB	065H
	DB	062H
	DB	075H
	DB	066H
	DB	066H
	DB	00H
	ORG $+7
WriteAsmLine$rtcVarDesc DD 030H
	DD	0100H
	DQ	FLAT:WriteAsmLine$rtcName$0
	ORG $+48
WriteAsmLine$rtcFrameData DD 01H
	DD	00H
	DQ	FLAT:WriteAsmLine$rtcVarDesc
ForInitAndNext$rtcName$0 DB 063H
	DB	06fH
	DB	064H
	DB	065H
	DB	062H
	DB	075H
	DB	066H
	DB	066H
	DB	00H
	ORG $+3
ForInitAndNext$rtcName$1 DB 070H
	DB	061H
	DB	072H
	DB	061H
	DB	06dH
	DB	00H
	ORG $+2
ForInitAndNext$rtcName$2 DB 069H
	DB	06eH
	DB	069H
	DB	074H
	DB	00H
	ORG $+3
ForInitAndNext$rtcName$3 DB 06fH
	DB	070H
	DB	00H
	ORG $+1
ForInitAndNext$rtcVarDesc DD 0394H
	DD	04H
	DQ	FLAT:ForInitAndNext$rtcName$3
	DD	0280H
	DD	0100H
	DQ	FLAT:ForInitAndNext$rtcName$2
	DD	0160H
	DD	0100H
	DQ	FLAT:ForInitAndNext$rtcName$1
	DD	040H
	DD	0100H
	DQ	FLAT:ForInitAndNext$rtcName$0
	ORG $+192
ForInitAndNext$rtcFrameData DD 04H
	DD	00H
	DQ	FLAT:ForInitAndNext$rtcVarDesc
HllStartDir$rtcName$0 DB 062H
	DB	075H
	DB	066H
	DB	066H
	DB	00H
	ORG $+3
HllStartDir$rtcName$1 DB 062H
	DB	075H
	DB	066H
	DB	066H
	DB	065H
	DB	072H
	DB	00H
	ORG $+1
HllStartDir$rtcName$2 DB 063H
	DB	06fH
	DB	064H
	DB	065H
	DB	062H
	DB	075H
	DB	066H
	DB	066H
	DB	00H
	ORG $+3
HllStartDir$rtcName$3 DB 070H
	DB	061H
	DB	072H
	DB	061H
	DB	06dH
	DB	00H
	ORG $+2
HllStartDir$rtcName$4 DB 069H
	DB	06eH
	DB	069H
	DB	074H
	DB	00H
	ORG $+3
HllStartDir$rtcName$5 DB 06cH
	DB	069H
	DB	06dH
	DB	069H
	DB	074H
	DB	00H
	ORG $+2
HllStartDir$rtcName$6 DB 06fH
	DB	070H
	DB	00H
	ORG $+1
HllStartDir$rtcName$7 DB 066H
	DB	06fH
	DB	072H
	DB	062H
	DB	075H
	DB	066H
	DB	066H
	DB	00H
HllStartDir$rtcName$8 DB 066H
	DB	06fH
	DB	072H
	DB	062H
	DB	075H
	DB	066H
	DB	066H
	DB	069H
	DB	06eH
	DB	069H
	DB	074H
	DB	00H
	ORG $+4
HllStartDir$rtcName$9 DB 066H
	DB	06fH
	DB	072H
	DB	062H
	DB	075H
	DB	066H
	DB	066H
	DB	063H
	DB	06fH
	DB	06eH
	DB	064H
	DB	00H
	ORG $+4
HllStartDir$rtcName$10 DB 066H
	DB	06fH
	DB	072H
	DB	062H
	DB	075H
	DB	066H
	DB	066H
	DB	063H
	DB	06eH
	DB	074H
	DB	00H
	ORG $+5
HllStartDir$rtcName$11 DB 074H
	DB	072H
	DB	061H
	DB	06eH
	DB	073H
	DB	066H
	DB	06fH
	DB	072H
	DB	06dH
	DB	065H
	DB	064H
	DB	00H
	ORG $+4
HllStartDir$rtcVarDesc DD 01550H
	DD	0258H
	DQ	FLAT:HllStartDir$rtcName$11
	DD	012d0H
	DD	0258H
	DQ	FLAT:HllStartDir$rtcName$10
	DD	01050H
	DD	0258H
	DQ	FLAT:HllStartDir$rtcName$9
	DD	0dd0H
	DD	0258H
	DQ	FLAT:HllStartDir$rtcName$8
	DD	0b50H
	DD	0258H
	DQ	FLAT:HllStartDir$rtcName$7
	DD	0b24H
	DD	04H
	DQ	FLAT:HllStartDir$rtcName$6
	DD	08b0H
	DD	0258H
	DQ	FLAT:HllStartDir$rtcName$5
	DD	0790H
	DD	0100H
	DQ	FLAT:HllStartDir$rtcName$4
	DD	0670H
	DD	0100H
	DQ	FLAT:HllStartDir$rtcName$3
	DD	0550H
	DD	0100H
	DQ	FLAT:HllStartDir$rtcName$2
	DD	080H
	DD	04b0H
	DQ	FLAT:HllStartDir$rtcName$1
	DD	048H
	DD	010H
	DQ	FLAT:HllStartDir$rtcName$0
	ORG $+576
HllStartDir$rtcFrameData DD 0cH
	DD	00H
	DQ	FLAT:HllStartDir$rtcVarDesc
HllEndDir$rtcName$0 DB 062H
	DB	075H
	DB	066H
	DB	066H
	DB	00H
	ORG $+3
HllEndDir$rtcName$1 DB 062H
	DB	075H
	DB	066H
	DB	066H
	DB	065H
	DB	072H
	DB	00H
	ORG $+1
HllEndDir$rtcVarDesc DD 080H
	DD	04b0H
	DQ	FLAT:HllEndDir$rtcName$1
	DD	048H
	DD	010H
	DQ	FLAT:HllEndDir$rtcName$0
	ORG $+96
HllEndDir$rtcFrameData DD 02H
	DD	00H
	DQ	FLAT:HllEndDir$rtcVarDesc
HllExitDir$rtcName$0 DB 062H
	DB	075H
	DB	066H
	DB	066H
	DB	00H
	ORG $+3
HllExitDir$rtcName$1 DB 062H
	DB	075H
	DB	066H
	DB	066H
	DB	065H
	DB	072H
	DB	00H
	ORG $+1
HllExitDir$rtcVarDesc DD 090H
	DD	04b0H
	DQ	FLAT:HllExitDir$rtcName$1
	DD	058H
	DD	010H
	DQ	FLAT:HllExitDir$rtcName$0
	ORG $+96
HllExitDir$rtcFrameData DD 02H
	DD	00H
	DQ	FLAT:HllExitDir$rtcVarDesc
CONST	ENDS
xdata	SEGMENT
$unwind$HllInit DD 010501H
	DD	07005H
$unwind$HllCheckOpen DD 021501H
	DD	070025206H
$unwind$GetExpression DD 034519H
	DD	01a011cH
	DD	07015H
	DD	imagerel __GSHandlerCheck
	DD	0c0H
$unwind$GetHllLabel DD 010201H
	DD	07002H
$unwind$GetCOp DD 021e01H
	DD	07006720aH
$unwind$RenderInstr DD 022d01H
	DD	070155219H
$unwind$GetLabelStr DD 022101H
	DD	0700a320eH
$unwind$RenderJcc DD 022c01H
	DD	070145218H
$unwind$GetToken DD 022d01H
	DD	070157219H
$unwind$GetLabel DD 022201H
	DD	0700a520eH
$unwind$GetSimpleExpression DD 033301H
	DD	034011cH
	DD	07015H
$unwind$InvertJump DD 021e01H
	DD	07006320aH
$unwind$ReplaceLabel DD 033f19H
	DD	0140116H
	DD	0700fH
	DD	imagerel __GSHandlerCheck
	DD	090H
$unwind$GetAndExpression DD 022d01H
	DD	07015b219H
$unwind$QueueTestLines DD 021e01H
	DD	07006520aH
$unwind$EvaluateHllExpression DD 023001H
	DD	07015d219H
$unwind$CheckCXZLines DD 021e01H
	DD	07006720aH
$unwind$WriteAsmLine DD 034019H
	DD	02a0117H
	DD	07010H
	DD	imagerel __GSHandlerCheck
	DD	0140H
$unwind$ForInitAndNext DD 033f19H
	DD	0800116H
	DD	0700fH
	DD	imagerel __GSHandlerCheck
	DD	03f0H
$unwind$HllStartDir DD 033f19H
	DD	03080117H
	DD	0700aH
	DD	imagerel __GSHandlerCheck
	DD	01838H
$unwind$HllEndDir DD 033919H
	DD	0aa0111H
	DD	0700aH
	DD	imagerel __GSHandlerCheck
	DD	0548H
$unwind$HllExitDir DD 033919H
	DD	0ae0111H
	DD	0700aH
	DD	imagerel __GSHandlerCheck
	DD	0560H
xdata	ENDS
;	COMDAT xdata
xdata	SEGMENT
$unwind$sprintf DD 022d01H
	DD	070159219H
xdata	ENDS
;	COMDAT CONST
CONST	SEGMENT
sprintf$rtcName$0 DB 05fH
	DB	041H
	DB	072H
	DB	067H
	DB	04cH
	DB	069H
	DB	073H
	DB	074H
	DB	00H
	ORG $+7
sprintf$rtcVarDesc DD 038H
	DD	08H
	DQ	FLAT:sprintf$rtcName$0
	ORG $+48
sprintf$rtcFrameData DD 01H
	DD	00H
	DQ	FLAT:sprintf$rtcVarDesc
CONST	ENDS
;	COMDAT xdata
xdata	SEGMENT
$unwind$_vsprintf_l DD 022d01H
	DD	070155219H
xdata	ENDS
;	COMDAT xdata
xdata	SEGMENT
$unwind$_vsnprintf_l DD 022d01H
	DD	070157219H
xdata	ENDS
;	COMDAT xdata
xdata	SEGMENT
$unwind$__local_stdio_printf_options DD 010201H
	DD	07002H
xdata	ENDS
; Function compile flags: /Odtp /RTCsu
; File d:\hjwasm\hjwasm2.13.1s\hjwasm2.13.1s\hll.c
_TEXT	SEGMENT
hll$ = 48
rc$ = 56
idx$ = 60
cmd$ = 64
buff$ = 88
buffer$ = 144
savedcmd$5 = 1348
tv78 = 1360
tv214 = 1364
tv229 = 1368
__$ArrayPad$ = 1376
i$ = 1408
tokenarray$ = 1416
HllExitDir PROC

; 1590 : {

$LN38:
	mov	QWORD PTR [rsp+16], rdx
	mov	DWORD PTR [rsp+8], ecx
	push	rdi
	sub	rsp, 1392				; 00000570H
	mov	rdi, rsp
	mov	ecx, 348				; 0000015cH
	mov	eax, -858993460				; ccccccccH
	rep stosd
	mov	ecx, DWORD PTR [rsp+1408]
	mov	rax, QWORD PTR __security_cookie
	xor	rax, rsp
	mov	QWORD PTR __$ArrayPad$[rsp], rax

; 1591 :   //int               level;
; 1592 :   //struct asym       *sym;
; 1593 :   struct hll_item     *hll;
; 1594 :   ret_code            rc = NOT_ERROR;

	mov	DWORD PTR rc$[rsp], 0

; 1595 :   int                 idx;
; 1596 :   int                 cmd = tokenarray[i].tokval;

	movsxd	rax, DWORD PTR i$[rsp]
	imul	rax, rax, 32				; 00000020H
	mov	rcx, QWORD PTR tokenarray$[rsp]
	mov	eax, DWORD PTR [rcx+rax+16]
	mov	DWORD PTR cmd$[rsp], eax

; 1597 :   char buff[16];
; 1598 :   char buffer[MAX_LINE_LEN * 2];
; 1599 : 
; 1600 :   DebugMsg1(("HllExitDir(%s) enter\n", tokenarray[i].string_ptr));

	movsxd	rax, DWORD PTR i$[rsp]
	imul	rax, rax, 32				; 00000020H
	mov	rcx, QWORD PTR tokenarray$[rsp]
	mov	rdx, QWORD PTR [rcx+rax+8]
	lea	rcx, OFFSET FLAT:$SG11771
	call	DoDebugMsg1

; 1601 : 
; 1602 :   hll = HllStack;

	mov	rax, QWORD PTR ModuleInfo+224
	mov	QWORD PTR hll$[rsp], rax

; 1603 : 
; 1604 :   if (hll == NULL) {

	cmp	QWORD PTR hll$[rsp], 0
	jne	SHORT $LN7@HllExitDir

; 1605 :     DebugMsg(("HllExitDir stack error\n"));

	lea	rcx, OFFSET FLAT:$SG11773
	call	DoDebugMsg

; 1606 :     return(EmitError(DIRECTIVE_MUST_BE_IN_CONTROL_BLOCK));

	mov	ecx, 245				; 000000f5H
	call	EmitError
	jmp	$LN1@HllExitDir
$LN7@HllExitDir:

; 1607 :   }
; 1608 : 
; 1609 :   switch (cmd) {

	mov	eax, DWORD PTR cmd$[rsp]
	mov	DWORD PTR tv78[rsp], eax
	cmp	DWORD PTR tv78[rsp], 331		; 0000014bH
	jl	$LN29@HllExitDir
	cmp	DWORD PTR tv78[rsp], 332		; 0000014cH
	jle	$LN16@HllExitDir
	cmp	DWORD PTR tv78[rsp], 332		; 0000014cH
	jle	$LN29@HllExitDir
	cmp	DWORD PTR tv78[rsp], 334		; 0000014eH
	jle	SHORT $LN8@HllExitDir
	jmp	$LN29@HllExitDir
$LN8@HllExitDir:

; 1610 :   case T_DOT_ELSE:
; 1611 :   case T_DOT_ELSEIF:
; 1612 :     if (hll->cmd != HLL_IF) {

	mov	rax, QWORD PTR hll$[rsp]
	cmp	DWORD PTR [rax+52], 0
	je	SHORT $LN9@HllExitDir

; 1613 :       DebugMsg(("HllExitDir(%s): labels[LTEST]=%X\n", tokenarray[i].string_ptr, hll->labels[LTEST]));

	mov	eax, 4
	imul	rax, rax, 0
	movsxd	rcx, DWORD PTR i$[rsp]
	imul	rcx, rcx, 32				; 00000020H
	mov	rdx, QWORD PTR hll$[rsp]
	mov	r8d, DWORD PTR [rdx+rax+8]
	mov	rax, QWORD PTR tokenarray$[rsp]
	mov	rdx, QWORD PTR [rax+rcx+8]
	lea	rcx, OFFSET FLAT:$SG11776
	call	DoDebugMsg

; 1614 :       return(EmitErr(BLOCK_NESTING_ERROR, tokenarray[i].string_ptr));

	movsxd	rax, DWORD PTR i$[rsp]
	imul	rax, rax, 32				; 00000020H
	mov	rcx, QWORD PTR tokenarray$[rsp]
	mov	rdx, QWORD PTR [rcx+rax+8]
	mov	ecx, 80					; 00000050H
	call	EmitErr
	jmp	$LN1@HllExitDir
$LN9@HllExitDir:

; 1615 :     }
; 1616 :     /* v2.08: check for multiple ELSE clauses */
; 1617 :     if (hll->flags & HLLF_ELSEOCCURED) {

	mov	rax, QWORD PTR hll$[rsp]
	mov	eax, DWORD PTR [rax+60]
	and	eax, 1
	test	eax, eax
	je	SHORT $LN10@HllExitDir

; 1618 :       return(EmitError(DOT_ELSE_CLAUSE_ALREADY_OCCURED_IN_THIS_DOT_IF_BLOCK));

	mov	ecx, 67					; 00000043H
	call	EmitError
	jmp	$LN1@HllExitDir
$LN10@HllExitDir:

; 1619 :     }
; 1620 : 
; 1621 :     /* the 'exit'-label is only needed if an .ELSE branch exists.
; 1622 :     * That's why it is created delayed.
; 1623 :     */
; 1624 :     if (hll->labels[LEXIT] == 0)

	mov	eax, 4
	imul	rax, rax, 1
	mov	rcx, QWORD PTR hll$[rsp]
	cmp	DWORD PTR [rcx+rax+8], 0
	jne	SHORT $LN11@HllExitDir

; 1625 :       hll->labels[LEXIT] = GetHllLabel();

	call	GetHllLabel
	mov	ecx, 4
	imul	rcx, rcx, 1
	mov	rdx, QWORD PTR hll$[rsp]
	mov	DWORD PTR [rdx+rcx+8], eax
$LN11@HllExitDir:

; 1626 :     AddLineQueueX(JMPPREFIX "jmp %s", GetLabelStr(hll->labels[LEXIT], buff));

	mov	eax, 4
	imul	rax, rax, 1
	lea	rdx, QWORD PTR buff$[rsp]
	mov	rcx, QWORD PTR hll$[rsp]
	mov	ecx, DWORD PTR [rcx+rax+8]
	call	GetLabelStr
	mov	rdx, rax
	lea	rcx, OFFSET FLAT:$SG11779
	call	AddLineQueueX

; 1627 : 
; 1628 :     if (hll->labels[LTEST] > 0) {

	mov	eax, 4
	imul	rax, rax, 0
	mov	rcx, QWORD PTR hll$[rsp]
	cmp	DWORD PTR [rcx+rax+8], 0
	jbe	SHORT $LN12@HllExitDir

; 1629 :       AddLineQueueX("%s" LABELQUAL, GetLabelStr(hll->labels[LTEST], buff));

	mov	eax, 4
	imul	rax, rax, 0
	lea	rdx, QWORD PTR buff$[rsp]
	mov	rcx, QWORD PTR hll$[rsp]
	mov	ecx, DWORD PTR [rcx+rax+8]
	call	GetLabelStr
	mov	rdx, rax
	lea	rcx, OFFSET FLAT:$SG11781
	call	AddLineQueueX

; 1630 :       hll->labels[LTEST] = 0;

	mov	eax, 4
	imul	rax, rax, 0
	mov	rcx, QWORD PTR hll$[rsp]
	mov	DWORD PTR [rcx+rax+8], 0
$LN12@HllExitDir:

; 1631 :     }
; 1632 :     i++;

	mov	eax, DWORD PTR i$[rsp]
	inc	eax
	mov	DWORD PTR i$[rsp], eax

; 1633 :     if (cmd == T_DOT_ELSEIF) {

	cmp	DWORD PTR cmd$[rsp], 334		; 0000014eH
	jne	SHORT $LN13@HllExitDir

; 1634 :       /* create new labels[LTEST] label */
; 1635 :       hll->labels[LTEST] = GetHllLabel();

	call	GetHllLabel
	mov	ecx, 4
	imul	rcx, rcx, 0
	mov	rdx, QWORD PTR hll$[rsp]
	mov	DWORD PTR [rdx+rcx+8], eax

; 1636 :       rc = EvaluateHllExpression(hll, &i, tokenarray, LTEST, FALSE, buffer);

	lea	rax, QWORD PTR buffer$[rsp]
	mov	QWORD PTR [rsp+40], rax
	mov	BYTE PTR [rsp+32], 0
	xor	r9d, r9d
	mov	r8, QWORD PTR tokenarray$[rsp]
	lea	rdx, QWORD PTR i$[rsp]
	mov	rcx, QWORD PTR hll$[rsp]
	call	EvaluateHllExpression
	mov	DWORD PTR rc$[rsp], eax

; 1637 :       if (rc == NOT_ERROR)

	cmp	DWORD PTR rc$[rsp], 0
	jne	SHORT $LN15@HllExitDir

; 1638 :         QueueTestLines(buffer);

	lea	rcx, QWORD PTR buffer$[rsp]
	call	QueueTestLines
$LN15@HllExitDir:

; 1639 :     }

	jmp	SHORT $LN14@HllExitDir
$LN13@HllExitDir:

; 1640 :     else
; 1641 :       hll->flags |= HLLF_ELSEOCCURED;

	mov	rax, QWORD PTR hll$[rsp]
	mov	eax, DWORD PTR [rax+60]
	or	eax, 1
	mov	rcx, QWORD PTR hll$[rsp]
	mov	DWORD PTR [rcx+60], eax
$LN14@HllExitDir:

; 1642 : 
; 1643 :     break;

	jmp	$LN2@HllExitDir
$LN16@HllExitDir:

; 1644 :   case T_DOT_BREAK:
; 1645 :   case T_DOT_CONTINUE:
; 1646 :     for (; hll && hll->cmd == HLL_IF; hll = hll->next);

	jmp	SHORT $LN6@HllExitDir
$LN4@HllExitDir:
	mov	rax, QWORD PTR hll$[rsp]
	mov	rax, QWORD PTR [rax]
	mov	QWORD PTR hll$[rsp], rax
$LN6@HllExitDir:
	cmp	QWORD PTR hll$[rsp], 0
	je	SHORT $LN5@HllExitDir
	mov	rax, QWORD PTR hll$[rsp]
	cmp	DWORD PTR [rax+52], 0
	jne	SHORT $LN5@HllExitDir
	jmp	SHORT $LN4@HllExitDir
$LN5@HllExitDir:

; 1647 :     if (hll == NULL) {

	cmp	QWORD PTR hll$[rsp], 0
	jne	SHORT $LN17@HllExitDir

; 1648 :       return(EmitError(DIRECTIVE_MUST_BE_IN_CONTROL_BLOCK));

	mov	ecx, 245				; 000000f5H
	call	EmitError
	jmp	$LN1@HllExitDir
$LN17@HllExitDir:

; 1649 :     }
; 1650 :     /* v2.11: create 'exit' and 'test' labels delayed.
; 1651 :     */
; 1652 :     if (cmd == T_DOT_BREAK) {

	cmp	DWORD PTR cmd$[rsp], 331		; 0000014bH
	jne	SHORT $LN18@HllExitDir

; 1653 :       if (hll->labels[LEXIT] == 0)

	mov	eax, 4
	imul	rax, rax, 1
	mov	rcx, QWORD PTR hll$[rsp]
	cmp	DWORD PTR [rcx+rax+8], 0
	jne	SHORT $LN20@HllExitDir

; 1654 :         hll->labels[LEXIT] = GetHllLabel();

	call	GetHllLabel
	mov	ecx, 4
	imul	rcx, rcx, 1
	mov	rdx, QWORD PTR hll$[rsp]
	mov	DWORD PTR [rdx+rcx+8], eax
$LN20@HllExitDir:

; 1655 :       idx = LEXIT;

	mov	DWORD PTR idx$[rsp], 1

; 1656 :     }

	jmp	$LN19@HllExitDir
$LN18@HllExitDir:

; 1657 :     else if (hll->cmd == HLL_FOR) {

	mov	rax, QWORD PTR hll$[rsp]
	cmp	DWORD PTR [rax+52], 4
	jne	SHORT $LN21@HllExitDir

; 1658 :       /* added by habran 
; 1659 :          .CONTINUE label is created here for .FOR loops only if it exists.
; 1660 :          It is different than .WHILE because it has to first alter counters
; 1661 :       */
; 1662 :         if (hll->labels[LCONT] == 0) hll->labels[LCONT] = GetHllLabel();

	mov	eax, 4
	imul	rax, rax, 4
	mov	rcx, QWORD PTR hll$[rsp]
	cmp	DWORD PTR [rcx+rax+8], 0
	jne	SHORT $LN23@HllExitDir
	call	GetHllLabel
	mov	ecx, 4
	imul	rcx, rcx, 4
	mov	rdx, QWORD PTR hll$[rsp]
	mov	DWORD PTR [rdx+rcx+8], eax
$LN23@HllExitDir:

; 1663 :         idx = (hll->labels[LCONT] ? LCONT : LSTART);

	mov	eax, 4
	imul	rax, rax, 4
	mov	rcx, QWORD PTR hll$[rsp]
	cmp	DWORD PTR [rcx+rax+8], 0
	je	SHORT $LN34@HllExitDir
	mov	DWORD PTR tv214[rsp], 4
	jmp	SHORT $LN35@HllExitDir
$LN34@HllExitDir:
	mov	DWORD PTR tv214[rsp], 2
$LN35@HllExitDir:
	mov	eax, DWORD PTR tv214[rsp]
	mov	DWORD PTR idx$[rsp], eax

; 1664 :       }else {

	jmp	SHORT $LN22@HllExitDir
$LN21@HllExitDir:

; 1665 :             /* 'test' is not created for .WHILE loops here; because
; 1666 :              * if it doesn't exist, there's no condition to test.
; 1667 :              */
; 1668 :             if ( hll->cmd == HLL_REPEAT && hll->labels[LTEST] == 0 )

	mov	rax, QWORD PTR hll$[rsp]
	cmp	DWORD PTR [rax+52], 2
	jne	SHORT $LN24@HllExitDir
	mov	eax, 4
	imul	rax, rax, 0
	mov	rcx, QWORD PTR hll$[rsp]
	cmp	DWORD PTR [rcx+rax+8], 0
	jne	SHORT $LN24@HllExitDir

; 1669 :                 hll->labels[LTEST] = GetHllLabel();

	call	GetHllLabel
	mov	ecx, 4
	imul	rcx, rcx, 0
	mov	rdx, QWORD PTR hll$[rsp]
	mov	DWORD PTR [rdx+rcx+8], eax
$LN24@HllExitDir:

; 1670 :             idx = ( hll->labels[LTEST] ? LTEST : LSTART );

	mov	eax, 4
	imul	rax, rax, 0
	mov	rcx, QWORD PTR hll$[rsp]
	cmp	DWORD PTR [rcx+rax+8], 0
	je	SHORT $LN36@HllExitDir
	mov	DWORD PTR tv229[rsp], 0
	jmp	SHORT $LN37@HllExitDir
$LN36@HllExitDir:
	mov	DWORD PTR tv229[rsp], 2
$LN37@HllExitDir:
	mov	eax, DWORD PTR tv229[rsp]
	mov	DWORD PTR idx$[rsp], eax
$LN22@HllExitDir:
$LN19@HllExitDir:

; 1671 :         }
; 1672 : 
; 1673 :     /* .BREAK .IF ... or .CONTINUE .IF ? */
; 1674 :     i++;

	mov	eax, DWORD PTR i$[rsp]
	inc	eax
	mov	DWORD PTR i$[rsp], eax

; 1675 :     if (tokenarray[i].token != T_FINAL) {

	movsxd	rax, DWORD PTR i$[rsp]
	imul	rax, rax, 32				; 00000020H
	mov	rcx, QWORD PTR tokenarray$[rsp]
	movzx	eax, BYTE PTR [rcx+rax]
	test	eax, eax
	je	$LN25@HllExitDir

; 1676 :       if (tokenarray[i].token == T_DIRECTIVE && tokenarray[i].tokval == T_DOT_IF) {

	movsxd	rax, DWORD PTR i$[rsp]
	imul	rax, rax, 32				; 00000020H
	mov	rcx, QWORD PTR tokenarray$[rsp]
	movzx	eax, BYTE PTR [rcx+rax]
	cmp	eax, 3
	jne	$LN27@HllExitDir
	movsxd	rax, DWORD PTR i$[rsp]
	imul	rax, rax, 32				; 00000020H
	mov	rcx, QWORD PTR tokenarray$[rsp]
	cmp	DWORD PTR [rcx+rax+16], 327		; 00000147H
	jne	$LN27@HllExitDir

; 1677 :         enum hll_cmd savedcmd = hll->cmd;

	mov	rax, QWORD PTR hll$[rsp]
	mov	eax, DWORD PTR [rax+52]
	mov	DWORD PTR savedcmd$5[rsp], eax

; 1678 :         hll->cmd = HLL_BREAK;

	mov	rax, QWORD PTR hll$[rsp]
	mov	DWORD PTR [rax+52], 3

; 1679 :         i++;

	mov	eax, DWORD PTR i$[rsp]
	inc	eax
	mov	DWORD PTR i$[rsp], eax

; 1680 :         /* v2.11: set rc and don't exit if an error occurs; see hll3.aso */
; 1681 :         rc = EvaluateHllExpression(hll, &i, tokenarray, idx, TRUE, buffer);

	lea	rax, QWORD PTR buffer$[rsp]
	mov	QWORD PTR [rsp+40], rax
	mov	BYTE PTR [rsp+32], 1
	mov	r9d, DWORD PTR idx$[rsp]
	mov	r8, QWORD PTR tokenarray$[rsp]
	lea	rdx, QWORD PTR i$[rsp]
	mov	rcx, QWORD PTR hll$[rsp]
	call	EvaluateHllExpression
	mov	DWORD PTR rc$[rsp], eax

; 1682 :         if (rc == NOT_ERROR)

	cmp	DWORD PTR rc$[rsp], 0
	jne	SHORT $LN28@HllExitDir

; 1683 :           QueueTestLines(buffer);

	lea	rcx, QWORD PTR buffer$[rsp]
	call	QueueTestLines
$LN28@HllExitDir:

; 1684 :         hll->cmd = savedcmd;

	mov	rax, QWORD PTR hll$[rsp]
	mov	ecx, DWORD PTR savedcmd$5[rsp]
	mov	DWORD PTR [rax+52], ecx
$LN27@HllExitDir:

; 1685 :       }
; 1686 :     }

	jmp	SHORT $LN26@HllExitDir
$LN25@HllExitDir:

; 1687 :     else {
; 1688 :       AddLineQueueX(JMPPREFIX "jmp %s", GetLabelStr(hll->labels[idx], buff));

	movsxd	rax, DWORD PTR idx$[rsp]
	lea	rdx, QWORD PTR buff$[rsp]
	mov	rcx, QWORD PTR hll$[rsp]
	mov	ecx, DWORD PTR [rcx+rax*4+8]
	call	GetLabelStr
	mov	rdx, rax
	lea	rcx, OFFSET FLAT:$SG11798
	call	AddLineQueueX
$LN26@HllExitDir:

; 1689 :     }
; 1690 :     break;

	jmp	SHORT $LN2@HllExitDir
$LN29@HllExitDir:

; 1691 : #ifdef DEBUG_OUT
; 1692 :   default: /**/myassert(0); break;

	mov	edx, 1692				; 0000069cH
	lea	rcx, OFFSET FLAT:$SG11800
	call	InternalError
$LN2@HllExitDir:

; 1693 : #endif
; 1694 :   }
; 1695 :   if (tokenarray[i].token != T_FINAL && rc == NOT_ERROR) {

	movsxd	rax, DWORD PTR i$[rsp]
	imul	rax, rax, 32				; 00000020H
	mov	rcx, QWORD PTR tokenarray$[rsp]
	movzx	eax, BYTE PTR [rcx+rax]
	test	eax, eax
	je	SHORT $LN30@HllExitDir
	cmp	DWORD PTR rc$[rsp], 0
	jne	SHORT $LN30@HllExitDir

; 1696 :     EmitErr(SYNTAX_ERROR_EX, tokenarray[i].tokpos);

	movsxd	rax, DWORD PTR i$[rsp]
	imul	rax, rax, 32				; 00000020H
	mov	rcx, QWORD PTR tokenarray$[rsp]
	mov	rdx, QWORD PTR [rcx+rax+24]
	mov	ecx, 209				; 000000d1H
	call	EmitErr

; 1697 :     rc = ERROR;

	mov	DWORD PTR rc$[rsp], -1
$LN30@HllExitDir:

; 1698 :   }
; 1699 : 
; 1700 :   if (ModuleInfo.list)

	mov	eax, DWORD PTR ModuleInfo+408
	shr	eax, 11
	and	eax, 1
	test	eax, eax
	je	SHORT $LN31@HllExitDir

; 1701 :     LstWrite(LSTTYPE_DIRECTIVE, GetCurrOffset(), NULL);

	call	GetCurrOffset
	xor	r8d, r8d
	mov	edx, eax
	mov	ecx, 4
	call	LstWrite
$LN31@HllExitDir:

; 1702 : 
; 1703 :   /* v2.11: always run line-queue if it's not empty. */
; 1704 :   if (is_linequeue_populated())

	cmp	QWORD PTR ModuleInfo+184, 0
	je	SHORT $LN32@HllExitDir

; 1705 :     RunLineQueue();

	call	RunLineQueue
$LN32@HllExitDir:

; 1706 : 
; 1707 :   return(rc);

	mov	eax, DWORD PTR rc$[rsp]
$LN1@HllExitDir:

; 1708 : }

	mov	rdi, rax
	mov	rcx, rsp
	lea	rdx, OFFSET FLAT:HllExitDir$rtcFrameData
	call	_RTC_CheckStackVars
	mov	rax, rdi
	mov	rcx, QWORD PTR __$ArrayPad$[rsp]
	xor	rcx, rsp
	call	__security_check_cookie
	add	rsp, 1392				; 00000570H
	pop	rdi
	ret	0
HllExitDir ENDP
_TEXT	ENDS
; Function compile flags: /Odtp /RTCsu
; File d:\hjwasm\hjwasm2.13.1s\hjwasm2.13.1s\hll.c
_TEXT	SEGMENT
hll$ = 48
rc$ = 56
cmd$ = 60
buff$ = 72
buffer$ = 128
tv80 = 1344
__$ArrayPad$ = 1352
i$ = 1376
tokenarray$ = 1384
HllEndDir PROC

; 1428 : {

$LN40:
	mov	QWORD PTR [rsp+16], rdx
	mov	DWORD PTR [rsp+8], ecx
	push	rdi
	sub	rsp, 1360				; 00000550H
	mov	rdi, rsp
	mov	ecx, 340				; 00000154H
	mov	eax, -858993460				; ccccccccH
	rep stosd
	mov	ecx, DWORD PTR [rsp+1376]
	mov	rax, QWORD PTR __security_cookie
	xor	rax, rsp
	mov	QWORD PTR __$ArrayPad$[rsp], rax

; 1429 :   //struct asym       *sym;
; 1430 :   struct hll_item     *hll;
; 1431 :   ret_code            rc = NOT_ERROR;

	mov	DWORD PTR rc$[rsp], 0

; 1432 :   int                 cmd = tokenarray[i].tokval;

	movsxd	rax, DWORD PTR i$[rsp]
	imul	rax, rax, 32				; 00000020H
	mov	rcx, QWORD PTR tokenarray$[rsp]
	mov	eax, DWORD PTR [rcx+rax+16]
	mov	DWORD PTR cmd$[rsp], eax

; 1433 :   char buff[16];
; 1434 :   //char buffer[MAX_LINE_LEN*2];
; 1435 : 
; 1436 : 
; 1437 :   char buffer[MAX_LINE_LEN * 2];
; 1438 : 
; 1439 :   DebugMsg1(("HllEndDir(%s) enter\n", tokenarray[i].string_ptr));

	movsxd	rax, DWORD PTR i$[rsp]
	imul	rax, rax, 32				; 00000020H
	mov	rcx, QWORD PTR tokenarray$[rsp]
	mov	rdx, QWORD PTR [rcx+rax+8]
	lea	rcx, OFFSET FLAT:$SG11695
	call	DoDebugMsg1

; 1440 : 
; 1441 :   if (HllStack == NULL) {

	cmp	QWORD PTR ModuleInfo+224, 0
	jne	SHORT $LN4@HllEndDir

; 1442 :     DebugMsg(("HllEndDir: hll stack is empty\n"));

	lea	rcx, OFFSET FLAT:$SG11697
	call	DoDebugMsg

; 1443 :     return(EmitError(DIRECTIVE_MUST_BE_IN_CONTROL_BLOCK));

	mov	ecx, 245				; 000000f5H
	call	EmitError
	jmp	$LN1@HllEndDir
$LN4@HllEndDir:

; 1444 :   }
; 1445 : 
; 1446 :   hll = HllStack;

	mov	rax, QWORD PTR ModuleInfo+224
	mov	QWORD PTR hll$[rsp], rax

; 1447 :   HllStack = hll->next;

	mov	rax, QWORD PTR hll$[rsp]
	mov	rax, QWORD PTR [rax]
	mov	QWORD PTR ModuleInfo+224, rax

; 1448 :   /* v2.06: move the item to the free stack */
; 1449 :   hll->next = HllFree;

	mov	rax, QWORD PTR hll$[rsp]
	mov	rcx, QWORD PTR ModuleInfo+232
	mov	QWORD PTR [rax], rcx

; 1450 :   HllFree = hll;

	mov	rax, QWORD PTR hll$[rsp]
	mov	QWORD PTR ModuleInfo+232, rax

; 1451 : 
; 1452 :   switch (cmd) {

	mov	eax, DWORD PTR cmd$[rsp]
	mov	DWORD PTR tv80[rsp], eax
	cmp	DWORD PTR tv80[rsp], 335		; 0000014fH
	je	SHORT $LN5@HllEndDir
	cmp	DWORD PTR tv80[rsp], 336		; 00000150H
	je	$LN18@HllEndDir
	cmp	DWORD PTR tv80[rsp], 337		; 00000151H
	je	$LN29@HllEndDir
	cmp	DWORD PTR tv80[rsp], 338		; 00000152H
	je	$LN21@HllEndDir
	cmp	DWORD PTR tv80[rsp], 339		; 00000153H
	je	$LN8@HllEndDir
	jmp	$LN34@HllEndDir
$LN5@HllEndDir:

; 1453 :   case T_DOT_ENDIF:
; 1454 :     if (hll->cmd != HLL_IF) {

	mov	rax, QWORD PTR hll$[rsp]
	cmp	DWORD PTR [rax+52], 0
	je	SHORT $LN6@HllEndDir

; 1455 :       DebugMsg(("HllEndDir: no .IF on the hll stack\n"));

	lea	rcx, OFFSET FLAT:$SG11700
	call	DoDebugMsg

; 1456 :       return(EmitErr(BLOCK_NESTING_ERROR, tokenarray[i].string_ptr));

	movsxd	rax, DWORD PTR i$[rsp]
	imul	rax, rax, 32				; 00000020H
	mov	rcx, QWORD PTR tokenarray$[rsp]
	mov	rdx, QWORD PTR [rcx+rax+8]
	mov	ecx, 80					; 00000050H
	call	EmitErr
	jmp	$LN1@HllEndDir
$LN6@HllEndDir:

; 1457 :     }
; 1458 :     i++;

	mov	eax, DWORD PTR i$[rsp]
	inc	eax
	mov	DWORD PTR i$[rsp], eax

; 1459 :     /* if a test label isn't created yet, create it */
; 1460 :     if (hll->labels[LTEST]) {

	mov	eax, 4
	imul	rax, rax, 0
	mov	rcx, QWORD PTR hll$[rsp]
	cmp	DWORD PTR [rcx+rax+8], 0
	je	SHORT $LN7@HllEndDir

; 1461 :       AddLineQueueX("%s" LABELQUAL, GetLabelStr(hll->labels[LTEST], buff));

	mov	eax, 4
	imul	rax, rax, 0
	lea	rdx, QWORD PTR buff$[rsp]
	mov	rcx, QWORD PTR hll$[rsp]
	mov	ecx, DWORD PTR [rcx+rax+8]
	call	GetLabelStr
	mov	rdx, rax
	lea	rcx, OFFSET FLAT:$SG11702
	call	AddLineQueueX
$LN7@HllEndDir:

; 1462 :     }
; 1463 :     break;

	jmp	$LN2@HllEndDir
$LN8@HllEndDir:

; 1464 :     // added by habran
; 1465 :   case T_DOT_ENDFOR:
; 1466 :     if (hll->cmd != HLL_FOR) {

	mov	rax, QWORD PTR hll$[rsp]
	cmp	DWORD PTR [rax+52], 4
	je	SHORT $LN9@HllEndDir

; 1467 :       DebugMsg(("HllEndDir: no .FOR on the hll stack\n"));

	lea	rcx, OFFSET FLAT:$SG11705
	call	DoDebugMsg

; 1468 :       EmitErr(BLOCK_NESTING_ERROR, tokenarray[i].string_ptr);

	movsxd	rax, DWORD PTR i$[rsp]
	imul	rax, rax, 32				; 00000020H
	mov	rcx, QWORD PTR tokenarray$[rsp]
	mov	rdx, QWORD PTR [rcx+rax+8]
	mov	ecx, 80					; 00000050H
	call	EmitErr

; 1469 :       return(ERROR);

	mov	eax, -1
	jmp	$LN1@HllEndDir
$LN9@HllEndDir:

; 1470 :     }
; 1471 :     i++;

	mov	eax, DWORD PTR i$[rsp]
	inc	eax
	mov	DWORD PTR i$[rsp], eax

; 1472 :     //Insert .CONTINUE label here if there is any 
; 1473 :     if (hll->labels[LCONT])

	mov	eax, 4
	imul	rax, rax, 4
	mov	rcx, QWORD PTR hll$[rsp]
	cmp	DWORD PTR [rcx+rax+8], 0
	je	SHORT $LN10@HllEndDir

; 1474 :       AddLineQueueX("%s" LABELQUAL, GetLabelStr(hll->labels[LCONT], buff));

	mov	eax, 4
	imul	rax, rax, 4
	lea	rdx, QWORD PTR buff$[rsp]
	mov	rcx, QWORD PTR hll$[rsp]
	mov	ecx, DWORD PTR [rcx+rax+8]
	call	GetLabelStr
	mov	rdx, rax
	lea	rcx, OFFSET FLAT:$SG11707
	call	AddLineQueueX
$LN10@HllEndDir:

; 1475 :     //forever loop '.for (::)'
; 1476 :     if (hll->cmcnt == 0) goto adlabel;

	mov	rax, QWORD PTR hll$[rsp]
	cmp	DWORD PTR [rax+48], 0
	jne	SHORT $LN11@HllEndDir
	jmp	$adlabel$41
	jmp	$LN12@HllEndDir
$LN11@HllEndDir:

; 1477 :     //If counters exist  
; 1478 :     else if (hll->counterlines[0]){

	mov	eax, 1
	imul	rax, rax, 0
	mov	rcx, QWORD PTR hll$[rsp]
	mov	rcx, QWORD PTR [rcx+40]
	movsx	eax, BYTE PTR [rcx+rax]
	test	eax, eax
	je	$LN13@HllEndDir

; 1479 :       //here we write counters
; 1480 :       if (hll->counterlines) {      //if there is something after second ':' expand it here

	mov	rax, QWORD PTR hll$[rsp]
	cmp	QWORD PTR [rax+40], 0
	je	SHORT $LN15@HllEndDir

; 1481 :         ForInitAndNext(tokenarray, hll->cmcnt, hll->counterlines);

	mov	rax, QWORD PTR hll$[rsp]
	mov	r8, QWORD PTR [rax+40]
	mov	rax, QWORD PTR hll$[rsp]
	mov	edx, DWORD PTR [rax+48]
	mov	rcx, QWORD PTR tokenarray$[rsp]
	call	ForInitAndNext
$LN15@HllEndDir:

; 1482 :         LclFree(hll->counterlines);
; 1483 :       } 
; 1484 :       //first jump from the top happens here after the counters
; 1485 :       AddLineQueueX("%s" LABELQUAL, GetLabelStr(hll->labels[LSKIP], buff));

	mov	eax, 4
	imul	rax, rax, 3
	lea	rdx, QWORD PTR buff$[rsp]
	mov	rcx, QWORD PTR hll$[rsp]
	mov	ecx, DWORD PTR [rcx+rax+8]
	call	GetLabelStr
	mov	rdx, rax
	lea	rcx, OFFSET FLAT:$SG11713
	call	AddLineQueueX

; 1486 :       /* create test label */
; 1487 :       if (hll->labels[LTEST]) {

	mov	eax, 4
	imul	rax, rax, 0
	mov	rcx, QWORD PTR hll$[rsp]
	cmp	DWORD PTR [rcx+rax+8], 0
	je	SHORT $LN16@HllEndDir

; 1488 :         AddLineQueueX("%s" LABELQUAL, GetLabelStr(hll->labels[LTEST], buff));

	mov	eax, 4
	imul	rax, rax, 0
	lea	rdx, QWORD PTR buff$[rsp]
	mov	rcx, QWORD PTR hll$[rsp]
	mov	ecx, DWORD PTR [rcx+rax+8]
	call	GetLabelStr
	mov	rdx, rax
	lea	rcx, OFFSET FLAT:$SG11715
	call	AddLineQueueX
$LN16@HllEndDir:

; 1489 :       }
; 1490 :       QueueTestLines(hll->condlines);

	mov	rax, QWORD PTR hll$[rsp]
	mov	rcx, QWORD PTR [rax+32]
	call	QueueTestLines

; 1491 :       LclFree(hll->condlines);
; 1492 :     }

	jmp	SHORT $LN14@HllEndDir
$LN13@HllEndDir:

; 1493 :     else
; 1494 :       AddLineQueueX(" jmp %s", GetLabelStr(hll->labels[LSTART], buff));

	mov	eax, 4
	imul	rax, rax, 2
	lea	rdx, QWORD PTR buff$[rsp]
	mov	rcx, QWORD PTR hll$[rsp]
	mov	ecx, DWORD PTR [rcx+rax+8]
	call	GetLabelStr
	mov	rdx, rax
	lea	rcx, OFFSET FLAT:$SG11716
	call	AddLineQueueX
$LN14@HllEndDir:
$LN12@HllEndDir:

; 1495 :     if (!hll->cond)

	mov	rax, QWORD PTR hll$[rsp]
	movzx	eax, BYTE PTR [rax+56]
	test	eax, eax
	jne	SHORT $LN17@HllEndDir
$adlabel$41:

; 1496 :  adlabel:
; 1497 :       AddLineQueueX(" jmp %s", GetLabelStr(hll->labels[LSTART], buff));

	mov	eax, 4
	imul	rax, rax, 2
	lea	rdx, QWORD PTR buff$[rsp]
	mov	rcx, QWORD PTR hll$[rsp]
	mov	ecx, DWORD PTR [rcx+rax+8]
	call	GetLabelStr
	mov	rdx, rax
	lea	rcx, OFFSET FLAT:$SG11718
	call	AddLineQueueX
$LN17@HllEndDir:

; 1498 :     tokenarray[i].token = T_FINAL;

	movsxd	rax, DWORD PTR i$[rsp]
	imul	rax, rax, 32				; 00000020H
	mov	rcx, QWORD PTR tokenarray$[rsp]
	mov	BYTE PTR [rcx+rax], 0

; 1499 :     break;

	jmp	$LN2@HllEndDir
$LN18@HllEndDir:

; 1500 :     //end of .ENDFOR
; 1501 :   case T_DOT_ENDW:
; 1502 :     if (hll->cmd != HLL_WHILE) {

	mov	rax, QWORD PTR hll$[rsp]
	cmp	DWORD PTR [rax+52], 1
	je	SHORT $LN19@HllEndDir

; 1503 :       DebugMsg(("HllEndDir: no .WHILE on the hll stack\n"));

	lea	rcx, OFFSET FLAT:$SG11721
	call	DoDebugMsg

; 1504 :       return(EmitErr(BLOCK_NESTING_ERROR, tokenarray[i].string_ptr));

	movsxd	rax, DWORD PTR i$[rsp]
	imul	rax, rax, 32				; 00000020H
	mov	rcx, QWORD PTR tokenarray$[rsp]
	mov	rdx, QWORD PTR [rcx+rax+8]
	mov	ecx, 80					; 00000050H
	call	EmitErr
	jmp	$LN1@HllEndDir
$LN19@HllEndDir:

; 1505 :     }
; 1506 :     i++;

	mov	eax, DWORD PTR i$[rsp]
	inc	eax
	mov	DWORD PTR i$[rsp], eax

; 1507 :     /* create test label */
; 1508 :     if (hll->labels[LTEST]) {

	mov	eax, 4
	imul	rax, rax, 0
	mov	rcx, QWORD PTR hll$[rsp]
	cmp	DWORD PTR [rcx+rax+8], 0
	je	SHORT $LN20@HllEndDir

; 1509 :       AddLineQueueX("%s" LABELQUAL, GetLabelStr(hll->labels[LTEST], buff));

	mov	eax, 4
	imul	rax, rax, 0
	lea	rdx, QWORD PTR buff$[rsp]
	mov	rcx, QWORD PTR hll$[rsp]
	mov	ecx, DWORD PTR [rcx+rax+8]
	call	GetLabelStr
	mov	rdx, rax
	lea	rcx, OFFSET FLAT:$SG11723
	call	AddLineQueueX
$LN20@HllEndDir:

; 1510 :     }
; 1511 :     QueueTestLines(hll->condlines);

	mov	rax, QWORD PTR hll$[rsp]
	mov	rcx, QWORD PTR [rax+32]
	call	QueueTestLines

; 1512 :     LclFree(hll->condlines);
; 1513 :     break;

	jmp	$LN2@HllEndDir
$LN21@HllEndDir:

; 1514 :   case T_DOT_UNTILCXZ:
; 1515 :     if (hll->cmd != HLL_REPEAT) {

	mov	rax, QWORD PTR hll$[rsp]
	cmp	DWORD PTR [rax+52], 2
	je	SHORT $LN22@HllEndDir

; 1516 :       DebugMsg(("HllEndDir: no .REPEAT on the hll stack\n"));

	lea	rcx, OFFSET FLAT:$SG11726
	call	DoDebugMsg

; 1517 :       return(EmitErr(BLOCK_NESTING_ERROR, tokenarray[i].string_ptr));

	movsxd	rax, DWORD PTR i$[rsp]
	imul	rax, rax, 32				; 00000020H
	mov	rcx, QWORD PTR tokenarray$[rsp]
	mov	rdx, QWORD PTR [rcx+rax+8]
	mov	ecx, 80					; 00000050H
	call	EmitErr
	jmp	$LN1@HllEndDir
$LN22@HllEndDir:

; 1518 :     }
; 1519 :     i++;

	mov	eax, DWORD PTR i$[rsp]
	inc	eax
	mov	DWORD PTR i$[rsp], eax

; 1520 :     if (hll->labels[LTEST]) /* v2.11: LTEST only needed if .CONTINUE has occured */

	mov	eax, 4
	imul	rax, rax, 0
	mov	rcx, QWORD PTR hll$[rsp]
	cmp	DWORD PTR [rcx+rax+8], 0
	je	SHORT $LN23@HllEndDir

; 1521 :       AddLineQueueX("%s" LABELQUAL, GetLabelStr(hll->labels[LTEST], buff));

	mov	eax, 4
	imul	rax, rax, 0
	lea	rdx, QWORD PTR buff$[rsp]
	mov	rcx, QWORD PTR hll$[rsp]
	mov	ecx, DWORD PTR [rcx+rax+8]
	call	GetLabelStr
	mov	rdx, rax
	lea	rcx, OFFSET FLAT:$SG11728
	call	AddLineQueueX
$LN23@HllEndDir:

; 1522 : 
; 1523 :     /* read in optional (simple) expression */
; 1524 :     if (tokenarray[i].token != T_FINAL) {

	movsxd	rax, DWORD PTR i$[rsp]
	imul	rax, rax, 32				; 00000020H
	mov	rcx, QWORD PTR tokenarray$[rsp]
	movzx	eax, BYTE PTR [rcx+rax]
	test	eax, eax
	je	SHORT $LN24@HllEndDir

; 1525 :       rc = EvaluateHllExpression(hll, &i, tokenarray, LSTART, FALSE, buffer);

	lea	rax, QWORD PTR buffer$[rsp]
	mov	QWORD PTR [rsp+40], rax
	mov	BYTE PTR [rsp+32], 0
	mov	r9d, 2
	mov	r8, QWORD PTR tokenarray$[rsp]
	lea	rdx, QWORD PTR i$[rsp]
	mov	rcx, QWORD PTR hll$[rsp]
	call	EvaluateHllExpression
	mov	DWORD PTR rc$[rsp], eax

; 1526 :       if (rc == NOT_ERROR) {

	cmp	DWORD PTR rc$[rsp], 0
	jne	SHORT $LN26@HllEndDir

; 1527 :         rc = CheckCXZLines(buffer);

	lea	rcx, QWORD PTR buffer$[rsp]
	call	CheckCXZLines
	mov	DWORD PTR rc$[rsp], eax

; 1528 :         if (rc == NOT_ERROR)

	cmp	DWORD PTR rc$[rsp], 0
	jne	SHORT $LN27@HllEndDir

; 1529 :           QueueTestLines(buffer); /* write condition lines */

	lea	rcx, QWORD PTR buffer$[rsp]
	call	QueueTestLines
	jmp	SHORT $LN28@HllEndDir
$LN27@HllEndDir:

; 1530 :         else
; 1531 :           EmitError(EXPR_TOO_COMPLEX_FOR_UNTILCXZ);

	mov	ecx, 191				; 000000bfH
	call	EmitError
$LN28@HllEndDir:
$LN26@HllEndDir:

; 1532 :       }
; 1533 :     }

	jmp	SHORT $LN25@HllEndDir
$LN24@HllEndDir:

; 1534 :     else {
; 1535 :       AddLineQueueX(JMPPREFIX "loop %s", GetLabelStr(hll->labels[LSTART], buff));

	mov	eax, 4
	imul	rax, rax, 2
	lea	rdx, QWORD PTR buff$[rsp]
	mov	rcx, QWORD PTR hll$[rsp]
	mov	ecx, DWORD PTR [rcx+rax+8]
	call	GetLabelStr
	mov	rdx, rax
	lea	rcx, OFFSET FLAT:$SG11734
	call	AddLineQueueX
$LN25@HllEndDir:

; 1536 :     }
; 1537 :     break;

	jmp	$LN2@HllEndDir
$LN29@HllEndDir:

; 1538 :   case T_DOT_UNTIL:
; 1539 :     if (hll->cmd != HLL_REPEAT) {

	mov	rax, QWORD PTR hll$[rsp]
	cmp	DWORD PTR [rax+52], 2
	je	SHORT $LN30@HllEndDir

; 1540 :       DebugMsg(("HllEndDir: no .REPEAT on the hll stack\n"));

	lea	rcx, OFFSET FLAT:$SG11737
	call	DoDebugMsg

; 1541 :       return(EmitErr(BLOCK_NESTING_ERROR, tokenarray[i].string_ptr));

	movsxd	rax, DWORD PTR i$[rsp]
	imul	rax, rax, 32				; 00000020H
	mov	rcx, QWORD PTR tokenarray$[rsp]
	mov	rdx, QWORD PTR [rcx+rax+8]
	mov	ecx, 80					; 00000050H
	call	EmitErr
	jmp	$LN1@HllEndDir
$LN30@HllEndDir:

; 1542 :     }
; 1543 :     i++;

	mov	eax, DWORD PTR i$[rsp]
	inc	eax
	mov	DWORD PTR i$[rsp], eax

; 1544 :     if (hll->labels[LTEST]) /* v2.11: LTEST only needed if .CONTINUE has occured */

	mov	eax, 4
	imul	rax, rax, 0
	mov	rcx, QWORD PTR hll$[rsp]
	cmp	DWORD PTR [rcx+rax+8], 0
	je	SHORT $LN31@HllEndDir

; 1545 :       AddLineQueueX("%s" LABELQUAL, GetLabelStr(hll->labels[LTEST], buff));

	mov	eax, 4
	imul	rax, rax, 0
	lea	rdx, QWORD PTR buff$[rsp]
	mov	rcx, QWORD PTR hll$[rsp]
	mov	ecx, DWORD PTR [rcx+rax+8]
	call	GetLabelStr
	mov	rdx, rax
	lea	rcx, OFFSET FLAT:$SG11739
	call	AddLineQueueX
$LN31@HllEndDir:

; 1546 : 
; 1547 :     /* read in (optional) expression */
; 1548 :     /* if expression is missing, just generate nothing */
; 1549 :     if (tokenarray[i].token != T_FINAL) {

	movsxd	rax, DWORD PTR i$[rsp]
	imul	rax, rax, 32				; 00000020H
	mov	rcx, QWORD PTR tokenarray$[rsp]
	movzx	eax, BYTE PTR [rcx+rax]
	test	eax, eax
	je	SHORT $LN32@HllEndDir

; 1550 :       rc = EvaluateHllExpression(hll, &i, tokenarray, LSTART, FALSE, buffer);

	lea	rax, QWORD PTR buffer$[rsp]
	mov	QWORD PTR [rsp+40], rax
	mov	BYTE PTR [rsp+32], 0
	mov	r9d, 2
	mov	r8, QWORD PTR tokenarray$[rsp]
	lea	rdx, QWORD PTR i$[rsp]
	mov	rcx, QWORD PTR hll$[rsp]
	call	EvaluateHllExpression
	mov	DWORD PTR rc$[rsp], eax

; 1551 :       if (rc == NOT_ERROR)

	cmp	DWORD PTR rc$[rsp], 0
	jne	SHORT $LN33@HllEndDir

; 1552 :         QueueTestLines(buffer); /* write condition lines */

	lea	rcx, QWORD PTR buffer$[rsp]
	call	QueueTestLines
$LN33@HllEndDir:
$LN32@HllEndDir:

; 1553 :     }
; 1554 :     break;

	jmp	SHORT $LN2@HllEndDir
$LN34@HllEndDir:

; 1555 : #ifdef DEBUG_OUT
; 1556 :   default: /**/myassert(0); break;

	mov	edx, 1556				; 00000614H
	lea	rcx, OFFSET FLAT:$SG11743
	call	InternalError
$LN2@HllEndDir:

; 1557 : #endif
; 1558 :   }
; 1559 : 
; 1560 :   /* create the exit label if it has been referenced */
; 1561 :   if (hll->labels[LEXIT])

	mov	eax, 4
	imul	rax, rax, 1
	mov	rcx, QWORD PTR hll$[rsp]
	cmp	DWORD PTR [rcx+rax+8], 0
	je	SHORT $LN35@HllEndDir

; 1562 :     AddLineQueueX("%s" LABELQUAL, GetLabelStr(hll->labels[LEXIT], buff));

	mov	eax, 4
	imul	rax, rax, 1
	lea	rdx, QWORD PTR buff$[rsp]
	mov	rcx, QWORD PTR hll$[rsp]
	mov	ecx, DWORD PTR [rcx+rax+8]
	call	GetLabelStr
	mov	rdx, rax
	lea	rcx, OFFSET FLAT:$SG11745
	call	AddLineQueueX
$LN35@HllEndDir:

; 1563 : 
; 1564 :   if (tokenarray[i].token != T_FINAL && rc == NOT_ERROR) {

	movsxd	rax, DWORD PTR i$[rsp]
	imul	rax, rax, 32				; 00000020H
	mov	rcx, QWORD PTR tokenarray$[rsp]
	movzx	eax, BYTE PTR [rcx+rax]
	test	eax, eax
	je	SHORT $LN36@HllEndDir
	cmp	DWORD PTR rc$[rsp], 0
	jne	SHORT $LN36@HllEndDir

; 1565 :     EmitErr(SYNTAX_ERROR_EX, tokenarray[i].tokpos);

	movsxd	rax, DWORD PTR i$[rsp]
	imul	rax, rax, 32				; 00000020H
	mov	rcx, QWORD PTR tokenarray$[rsp]
	mov	rdx, QWORD PTR [rcx+rax+24]
	mov	ecx, 209				; 000000d1H
	call	EmitErr

; 1566 :     rc = ERROR;

	mov	DWORD PTR rc$[rsp], -1
$LN36@HllEndDir:

; 1567 :   }
; 1568 :   if (ModuleInfo.list)

	mov	eax, DWORD PTR ModuleInfo+408
	shr	eax, 11
	and	eax, 1
	test	eax, eax
	je	SHORT $LN37@HllEndDir

; 1569 :     LstWrite(LSTTYPE_DIRECTIVE, GetCurrOffset(), NULL);

	call	GetCurrOffset
	xor	r8d, r8d
	mov	edx, eax
	mov	ecx, 4
	call	LstWrite
$LN37@HllEndDir:

; 1570 : 
; 1571 :   /* v2.11: always run line-queue if it's not empty. */
; 1572 :   if (is_linequeue_populated())

	cmp	QWORD PTR ModuleInfo+184, 0
	je	SHORT $LN38@HllEndDir

; 1573 :     RunLineQueue();

	call	RunLineQueue
$LN38@HllEndDir:

; 1574 : 
; 1575 :   return(rc);

	mov	eax, DWORD PTR rc$[rsp]
$LN1@HllEndDir:

; 1576 : }

	mov	rdi, rax
	mov	rcx, rsp
	lea	rdx, OFFSET FLAT:HllEndDir$rtcFrameData
	call	_RTC_CheckStackVars
	mov	rax, rdi
	mov	rcx, QWORD PTR __$ArrayPad$[rsp]
	xor	rcx, rsp
	call	__security_check_cookie
	add	rsp, 1360				; 00000550H
	pop	rdi
	ret	0
HllEndDir ENDP
_TEXT	ENDS
; Function compile flags: /Odtp /RTCsu
; File d:\hjwasm\hjwasm2.13.1s\hjwasm2.13.1s\hll.c
_TEXT	SEGMENT
hll$ = 48
rc$ = 56
cmd$ = 60
buff$ = 72
buffer$ = 128
forbuff$ = 2896
forbuffinit$ = 3536
forbuffcond$ = 4176
forbuffcnt$ = 4816
transformed$ = 5456
j$ = 6072
b$ = 6076
size$ = 6084
eqcnt$ = 6088
cmcnt$ = 6092
p$ = 6096
c$ = 6104
size$15 = 6108
$T16 = 6120
$T17 = 6128
$T18 = 6136
$T19 = 6144
$T20 = 6152
$T21 = 6160
$T22 = 6168
$T23 = 6176
$T24 = 6184
tv83 = 6192
__$ArrayPad$ = 6200
i$ = 6224
tokenarray$ = 6232
HllStartDir PROC

; 1158 : {

$LN76:
	mov	QWORD PTR [rsp+16], rdx
	mov	DWORD PTR [rsp+8], ecx
	push	rdi
	mov	eax, 6208				; 00001840H
	call	__chkstk
	sub	rsp, rax
	mov	rdi, rsp
	mov	ecx, 1552				; 00000610H
	mov	eax, -858993460				; ccccccccH
	rep stosd
	mov	ecx, DWORD PTR [rsp+6224]
	mov	rax, QWORD PTR __security_cookie
	xor	rax, rsp
	mov	QWORD PTR __$ArrayPad$[rsp], rax

; 1159 :   struct hll_item      *hll;
; 1160 :   ret_code             rc = NOT_ERROR;

	mov	DWORD PTR rc$[rsp], 0

; 1161 :   int                  cmd = tokenarray[i].tokval;

	movsxd	rax, DWORD PTR i$[rsp]
	imul	rax, rax, 32				; 00000020H
	mov	rcx, QWORD PTR tokenarray$[rsp]
	mov	eax, DWORD PTR [rcx+rax+16]
	mov	DWORD PTR cmd$[rsp], eax

; 1162 :   char buff[16];
; 1163 :   char buffer[MAX_LINE_LEN * 2];
; 1164 :   char codebuff[256];
; 1165 :   char param[256];
; 1166 :   char init[256];
; 1167 :   char limit[MAX_LINE_LEN];
; 1168 :   char op[4];
; 1169 :   char forbuff[MAX_LINE_LEN];
; 1170 :   char forbuffinit[MAX_LINE_LEN];
; 1171 :   char forbuffcond[MAX_LINE_LEN];
; 1172 :   char forbuffcnt[MAX_LINE_LEN];
; 1173 :   char transformed[MAX_LINE_LEN];
; 1174 :   int a;
; 1175 :   int j;
; 1176 :   int b;
; 1177 :   int e;
; 1178 :   int size;
; 1179 :   int eqcnt;
; 1180 :   int cmcnt;
; 1181 :   char *p;
; 1182 :   char c;
; 1183 : 
; 1184 :   DebugMsg1(("HllStartDir(%s) enter\n", tokenarray[i].string_ptr));

	movsxd	rax, DWORD PTR i$[rsp]
	imul	rax, rax, 32				; 00000020H
	mov	rcx, QWORD PTR tokenarray$[rsp]
	mov	rdx, QWORD PTR [rcx+rax+8]
	lea	rcx, OFFSET FLAT:$SG11622
	call	DoDebugMsg1

; 1185 : 
; 1186 :   i++; /* skip directive */

	mov	eax, DWORD PTR i$[rsp]
	inc	eax
	mov	DWORD PTR i$[rsp], eax

; 1187 : 
; 1188 :   /* v2.06: is there an item on the free stack? */
; 1189 :   if (HllFree) {

	cmp	QWORD PTR ModuleInfo+232, 0
	je	SHORT $LN16@HllStartDi

; 1190 :     hll = HllFree;

	mov	rax, QWORD PTR ModuleInfo+232
	mov	QWORD PTR hll$[rsp], rax

; 1191 :     DebugCmd(cntReused++);

	mov	eax, DWORD PTR cntReused
	inc	eax
	mov	DWORD PTR cntReused, eax

; 1192 :   }

	jmp	SHORT $LN17@HllStartDi
$LN16@HllStartDi:

; 1193 :   else {
; 1194 :     hll = LclAlloc(sizeof(struct hll_item));

	mov	ecx, 64					; 00000040H
	call	LclAlloc
	mov	QWORD PTR hll$[rsp], rax

; 1195 :     DebugCmd(cntAlloc++);

	mov	eax, DWORD PTR cntAlloc
	inc	eax
	mov	DWORD PTR cntAlloc, eax
$LN17@HllStartDi:

; 1196 :   }
; 1197 : 
; 1198 :   /* structure for .IF .ELSE .ENDIF
; 1199 :   *    cond jump to LTEST-label
; 1200 :   *    ...
; 1201 :   *    jmp LEXIT
; 1202 :   *  LTEST:
; 1203 :   *    ...
; 1204 :   *  LEXIT:
; 1205 : 
; 1206 :   * structure for .IF .ELSEIF
; 1207 :   *    cond jump to LTEST
; 1208 :   *    ...
; 1209 :   *    jmp LEXIT
; 1210 :   *  LTEST:
; 1211 :   *    cond jump to (new) LTEST
; 1212 :   *    ...
; 1213 :   *    jmp LEXIT
; 1214 :   *  LTEST:
; 1215 :   *    ...
; 1216 : 
; 1217 :   * structure for .WHILE and .REPEAT:
; 1218 :   *   jmp LTEST (for .WHILE only)
; 1219 :   * LSTART:
; 1220 :   *   ...
; 1221 :   * LTEST: (jumped to by .continue)
; 1222 :   *   a) test end condition, cond jump to LSTART label
; 1223 :   *   b) unconditional jump to LSTART label
; 1224 :   * LEXIT: (jumped to by .BREAK)
; 1225 :   */
; 1226 : 
; 1227 :   hll->labels[LEXIT] = 0;

	mov	eax, 4
	imul	rax, rax, 1
	mov	rcx, QWORD PTR hll$[rsp]
	mov	DWORD PTR [rcx+rax+8], 0

; 1228 : 
; 1229 :   switch (cmd) {

	mov	eax, DWORD PTR cmd$[rsp]
	mov	DWORD PTR tv83[rsp], eax
	cmp	DWORD PTR tv83[rsp], 327		; 00000147H
	je	SHORT $LN18@HllStartDi
	cmp	DWORD PTR tv83[rsp], 327		; 00000147H
	jle	$LN52@HllStartDi
	cmp	DWORD PTR tv83[rsp], 329		; 00000149H
	jle	$LN45@HllStartDi
	cmp	DWORD PTR tv83[rsp], 330		; 0000014aH
	je	$LN21@HllStartDi
	jmp	$LN52@HllStartDi
$LN18@HllStartDi:

; 1230 :   case T_DOT_IF:
; 1231 :     hll->labels[LSTART] = 0; /* not used by .IF */

	mov	eax, 4
	imul	rax, rax, 2
	mov	rcx, QWORD PTR hll$[rsp]
	mov	DWORD PTR [rcx+rax+8], 0

; 1232 :     hll->labels[LTEST] = GetHllLabel();

	call	GetHllLabel
	mov	ecx, 4
	imul	rcx, rcx, 0
	mov	rdx, QWORD PTR hll$[rsp]
	mov	DWORD PTR [rdx+rcx+8], eax

; 1233 :     hll->cmd = HLL_IF;

	mov	rax, QWORD PTR hll$[rsp]
	mov	DWORD PTR [rax+52], 0

; 1234 :     hll->flags = 0;

	mov	rax, QWORD PTR hll$[rsp]
	mov	DWORD PTR [rax+60], 0

; 1235 :     /* get the C-style expression, convert to ASM code lines */
; 1236 :     rc = EvaluateHllExpression(hll, &i, tokenarray, LTEST, FALSE, buffer);

	lea	rax, QWORD PTR buffer$[rsp]
	mov	QWORD PTR [rsp+40], rax
	mov	BYTE PTR [rsp+32], 0
	xor	r9d, r9d
	mov	r8, QWORD PTR tokenarray$[rsp]
	lea	rdx, QWORD PTR i$[rsp]
	mov	rcx, QWORD PTR hll$[rsp]
	call	EvaluateHllExpression
	mov	DWORD PTR rc$[rsp], eax

; 1237 :     if (rc == NOT_ERROR) {

	cmp	DWORD PTR rc$[rsp], 0
	jne	SHORT $LN19@HllStartDi

; 1238 :       QueueTestLines(buffer);

	lea	rcx, QWORD PTR buffer$[rsp]
	call	QueueTestLines

; 1239 :       /* if no lines have been created, the LTEST label isn't needed */
; 1240 :       //if ( !is_linequeue_populated() ) {
; 1241 :       if (buffer[0] == NULLC) {

	mov	eax, 1
	imul	rax, rax, 0
	movsx	eax, BYTE PTR buffer$[rsp+rax]
	test	eax, eax
	jne	SHORT $LN20@HllStartDi

; 1242 :         hll->labels[LTEST] = 0;

	mov	eax, 4
	imul	rax, rax, 0
	mov	rcx, QWORD PTR hll$[rsp]
	mov	DWORD PTR [rcx+rax+8], 0
$LN20@HllStartDi:
$LN19@HllStartDi:

; 1243 :       }
; 1244 :     }
; 1245 :     break;

	jmp	$LN2@HllStartDi
$LN21@HllStartDi:

; 1246 :     // added by habran
; 1247 :   case T_DOT_FOR:
; 1248 :     /* create the label to loop start */
; 1249 :     hll->labels[LEXIT] = 0; //this is needed for .FOR loop

	mov	eax, 4
	imul	rax, rax, 1
	mov	rcx, QWORD PTR hll$[rsp]
	mov	DWORD PTR [rcx+rax+8], 0

; 1250 :     hll->labels[LSTART] = GetHllLabel();

	call	GetHllLabel
	mov	ecx, 4
	imul	rcx, rcx, 2
	mov	rdx, QWORD PTR hll$[rsp]
	mov	DWORD PTR [rdx+rcx+8], eax

; 1251 :     hll->labels[LSKIP] = GetHllLabel();

	call	GetHllLabel
	mov	ecx, 4
	imul	rcx, rcx, 3
	mov	rdx, QWORD PTR hll$[rsp]
	mov	DWORD PTR [rdx+rcx+8], eax

; 1252 :     hll->labels[LCONT] = 0;

	mov	eax, 4
	imul	rax, rax, 4
	mov	rcx, QWORD PTR hll$[rsp]
	mov	DWORD PTR [rcx+rax+8], 0

; 1253 :     hll->labels[LTEST] = 0;

	mov	eax, 4
	imul	rax, rax, 0
	mov	rcx, QWORD PTR hll$[rsp]
	mov	DWORD PTR [rcx+rax+8], 0

; 1254 :     hll->flags = 0;

	mov	rax, QWORD PTR hll$[rsp]
	mov	DWORD PTR [rax+60], 0

; 1255 :     hll->cmd = HLL_FOR;

	mov	rax, QWORD PTR hll$[rsp]
	mov	DWORD PTR [rax+52], 4

; 1256 :     //copy string to the buffer and get read of spaces
; 1257 :     p = tokenarray[i].tokpos;

	movsxd	rax, DWORD PTR i$[rsp]
	imul	rax, rax, 32				; 00000020H
	mov	rcx, QWORD PTR tokenarray$[rsp]
	mov	rax, QWORD PTR [rcx+rax+24]
	mov	QWORD PTR p$[rsp], rax

; 1258 :     for (b = 0; *p; p++)

	mov	DWORD PTR b$[rsp], 0
	jmp	SHORT $LN6@HllStartDi
$LN4@HllStartDi:
	mov	rax, QWORD PTR p$[rsp]
	inc	rax
	mov	QWORD PTR p$[rsp], rax
$LN6@HllStartDi:
	mov	rax, QWORD PTR p$[rsp]
	movsx	eax, BYTE PTR [rax]
	test	eax, eax
	je	$LN5@HllStartDi

; 1259 :     {
; 1260 :       if ((*p == ' ') || (*p == '\t')) {

	mov	rax, QWORD PTR p$[rsp]
	movsx	eax, BYTE PTR [rax]
	cmp	eax, 32					; 00000020H
	je	SHORT $LN24@HllStartDi
	mov	rax, QWORD PTR p$[rsp]
	movsx	eax, BYTE PTR [rax]
	cmp	eax, 9
	jne	SHORT $LN22@HllStartDi
$LN24@HllStartDi:

; 1261 :         //if there is QWORD PTR, DWORD PTR, WORD PTR, BYTE PTR, OFFSET or ADDR leave a space between
; 1262 :         c = tolower(*(p + 1));

	mov	rax, QWORD PTR p$[rsp]
	movsx	eax, BYTE PTR [rax+1]
	mov	ecx, eax
	call	QWORD PTR __imp_tolower
	mov	BYTE PTR c$[rsp], al

; 1263 :         if ((c >= 'a') && (c <= 'z')){

	movsx	eax, BYTE PTR c$[rsp]
	cmp	eax, 97					; 00000061H
	jl	SHORT $LN25@HllStartDi
	movsx	eax, BYTE PTR c$[rsp]
	cmp	eax, 122				; 0000007aH
	jg	SHORT $LN25@HllStartDi

; 1264 :           forbuff[b] = *p;

	movsxd	rax, DWORD PTR b$[rsp]
	mov	rcx, QWORD PTR p$[rsp]
	movzx	ecx, BYTE PTR [rcx]
	mov	BYTE PTR forbuff$[rsp+rax], cl

; 1265 :           b++;

	mov	eax, DWORD PTR b$[rsp]
	inc	eax
	mov	DWORD PTR b$[rsp], eax
$LN25@HllStartDi:

; 1266 :         }
; 1267 :       }

	jmp	SHORT $LN23@HllStartDi
$LN22@HllStartDi:

; 1268 :       else {
; 1269 :         forbuff[b] = *p;

	movsxd	rax, DWORD PTR b$[rsp]
	mov	rcx, QWORD PTR p$[rsp]
	movzx	ecx, BYTE PTR [rcx]
	mov	BYTE PTR forbuff$[rsp+rax], cl

; 1270 :         b++;

	mov	eax, DWORD PTR b$[rsp]
	inc	eax
	mov	DWORD PTR b$[rsp], eax
$LN23@HllStartDi:

; 1271 :       }
; 1272 :     }

	jmp	$LN4@HllStartDi
$LN5@HllStartDi:

; 1273 :     forbuff[b] = NULLC;

	movsxd	rax, DWORD PTR b$[rsp]
	mov	QWORD PTR $T16[rsp], rax
	cmp	QWORD PTR $T16[rsp], 600		; 00000258H
	jae	SHORT $LN58@HllStartDi
	jmp	SHORT $LN59@HllStartDi
$LN58@HllStartDi:
	call	__report_rangecheckfailure
$LN59@HllStartDi:
	mov	rax, QWORD PTR $T16[rsp]
	mov	BYTE PTR forbuff$[rsp+rax], 0

; 1274 :     if (0 == _memicmp(forbuff, "(::)", 4)){

	mov	r8d, 4
	lea	rdx, OFFSET FLAT:$SG11635
	lea	rcx, QWORD PTR forbuff$[rsp]
	call	QWORD PTR __imp__memicmp
	test	eax, eax
	jne	SHORT $LN26@HllStartDi

; 1275 :       hll->cmcnt = 0;

	mov	rax, QWORD PTR hll$[rsp]
	mov	DWORD PTR [rax+48], 0

; 1276 :     }

	jmp	$LN27@HllStartDi
$LN26@HllStartDi:

; 1277 :     else {
; 1278 :       //count initializers
; 1279 :       eqcnt = 1;

	mov	DWORD PTR eqcnt$[rsp], 1

; 1280 :       forbuffinit[0] = NULLC;

	mov	eax, 1
	imul	rax, rax, 0
	mov	QWORD PTR $T17[rsp], rax
	cmp	QWORD PTR $T17[rsp], 600		; 00000258H
	jae	SHORT $LN60@HllStartDi
	jmp	SHORT $LN61@HllStartDi
$LN60@HllStartDi:
	call	__report_rangecheckfailure
$LN61@HllStartDi:
	mov	rax, QWORD PTR $T17[rsp]
	mov	BYTE PTR forbuffinit$[rsp+rax], 0

; 1281 :       for (j = 1, b = 0; forbuff[j];){

	mov	DWORD PTR j$[rsp], 1
	mov	DWORD PTR b$[rsp], 0
$LN7@HllStartDi:
	movsxd	rax, DWORD PTR j$[rsp]
	movsx	eax, BYTE PTR forbuff$[rsp+rax]
	test	eax, eax
	je	$LN8@HllStartDi

; 1282 :         c = forbuff[j];

	movsxd	rax, DWORD PTR j$[rsp]
	movzx	eax, BYTE PTR forbuff$[rsp+rax]
	mov	BYTE PTR c$[rsp], al

; 1283 :         if (c == ':') {

	movsx	eax, BYTE PTR c$[rsp]
	cmp	eax, 58					; 0000003aH
	jne	SHORT $LN28@HllStartDi

; 1284 :           if (forbuff[j - 1] != 39 && forbuff[j + 1] != 39) break;

	mov	eax, DWORD PTR j$[rsp]
	dec	eax
	cdqe
	movsx	eax, BYTE PTR forbuff$[rsp+rax]
	cmp	eax, 39					; 00000027H
	je	SHORT $LN29@HllStartDi
	mov	eax, DWORD PTR j$[rsp]
	inc	eax
	cdqe
	movsx	eax, BYTE PTR forbuff$[rsp+rax]
	cmp	eax, 39					; 00000027H
	je	SHORT $LN29@HllStartDi
	jmp	$LN8@HllStartDi
$LN29@HllStartDi:
$LN28@HllStartDi:

; 1285 :         }
; 1286 :         if (c == ',' && forbuff[j - 1] != 39 && forbuff[j + 1] != 39) eqcnt++;

	movsx	eax, BYTE PTR c$[rsp]
	cmp	eax, 44					; 0000002cH
	jne	SHORT $LN30@HllStartDi
	mov	eax, DWORD PTR j$[rsp]
	dec	eax
	cdqe
	movsx	eax, BYTE PTR forbuff$[rsp+rax]
	cmp	eax, 39					; 00000027H
	je	SHORT $LN30@HllStartDi
	mov	eax, DWORD PTR j$[rsp]
	inc	eax
	cdqe
	movsx	eax, BYTE PTR forbuff$[rsp+rax]
	cmp	eax, 39					; 00000027H
	je	SHORT $LN30@HllStartDi
	mov	eax, DWORD PTR eqcnt$[rsp]
	inc	eax
	mov	DWORD PTR eqcnt$[rsp], eax
$LN30@HllStartDi:

; 1287 :         forbuffinit[b] = c;

	movsxd	rax, DWORD PTR b$[rsp]
	movzx	ecx, BYTE PTR c$[rsp]
	mov	BYTE PTR forbuffinit$[rsp+rax], cl

; 1288 :         if (c == 39 && forbuffinit[b - 2] == 39){

	movsx	eax, BYTE PTR c$[rsp]
	cmp	eax, 39					; 00000027H
	jne	SHORT $LN31@HllStartDi
	mov	eax, DWORD PTR b$[rsp]
	sub	eax, 2
	cdqe
	movsx	eax, BYTE PTR forbuffinit$[rsp+rax]
	cmp	eax, 39					; 00000027H
	jne	SHORT $LN31@HllStartDi

; 1289 :           b++;

	mov	eax, DWORD PTR b$[rsp]
	inc	eax
	mov	DWORD PTR b$[rsp], eax

; 1290 :           forbuffinit[b] = ' ';

	movsxd	rax, DWORD PTR b$[rsp]
	mov	BYTE PTR forbuffinit$[rsp+rax], 32	; 00000020H
$LN31@HllStartDi:

; 1291 :         }
; 1292 :         j++;

	mov	eax, DWORD PTR j$[rsp]
	inc	eax
	mov	DWORD PTR j$[rsp], eax

; 1293 :         b++;

	mov	eax, DWORD PTR b$[rsp]
	inc	eax
	mov	DWORD PTR b$[rsp], eax

; 1294 :       }

	jmp	$LN7@HllStartDi
$LN8@HllStartDi:

; 1295 :       forbuffinit[b] = NULLC;

	movsxd	rax, DWORD PTR b$[rsp]
	mov	QWORD PTR $T18[rsp], rax
	cmp	QWORD PTR $T18[rsp], 600		; 00000258H
	jae	SHORT $LN62@HllStartDi
	jmp	SHORT $LN63@HllStartDi
$LN62@HllStartDi:
	call	__report_rangecheckfailure
$LN63@HllStartDi:
	mov	rax, QWORD PTR $T18[rsp]
	mov	BYTE PTR forbuffinit$[rsp+rax], 0

; 1296 :       j++;

	mov	eax, DWORD PTR j$[rsp]
	inc	eax
	mov	DWORD PTR j$[rsp], eax

; 1297 :       //coppy the condition to the buffer
; 1298 :       forbuffcond[0] = NULLC;

	mov	eax, 1
	imul	rax, rax, 0
	mov	QWORD PTR $T19[rsp], rax
	cmp	QWORD PTR $T19[rsp], 600		; 00000258H
	jae	SHORT $LN64@HllStartDi
	jmp	SHORT $LN65@HllStartDi
$LN64@HllStartDi:
	call	__report_rangecheckfailure
$LN65@HllStartDi:
	mov	rax, QWORD PTR $T19[rsp]
	mov	BYTE PTR forbuffcond$[rsp+rax], 0

; 1299 :       hll->labels[LTEST] = 0;

	mov	eax, 4
	imul	rax, rax, 0
	mov	rcx, QWORD PTR hll$[rsp]
	mov	DWORD PTR [rcx+rax+8], 0

; 1300 :       for (b = 0; forbuff[j] && forbuff[j] != ':'; forbuffcond[b] = forbuff[j], j++, b++);

	mov	DWORD PTR b$[rsp], 0
	jmp	SHORT $LN12@HllStartDi
$LN10@HllStartDi:
	movsxd	rax, DWORD PTR j$[rsp]
	movsxd	rcx, DWORD PTR b$[rsp]
	movzx	eax, BYTE PTR forbuff$[rsp+rax]
	mov	BYTE PTR forbuffcond$[rsp+rcx], al
	mov	eax, DWORD PTR j$[rsp]
	inc	eax
	mov	DWORD PTR j$[rsp], eax
	mov	eax, DWORD PTR b$[rsp]
	inc	eax
	mov	DWORD PTR b$[rsp], eax
$LN12@HllStartDi:
	movsxd	rax, DWORD PTR j$[rsp]
	movsx	eax, BYTE PTR forbuff$[rsp+rax]
	test	eax, eax
	je	SHORT $LN11@HllStartDi
	movsxd	rax, DWORD PTR j$[rsp]
	movsx	eax, BYTE PTR forbuff$[rsp+rax]
	cmp	eax, 58					; 0000003aH
	je	SHORT $LN11@HllStartDi
	jmp	SHORT $LN10@HllStartDi
$LN11@HllStartDi:

; 1301 :       if (forbuffcond[b - 2] == '>' && forbuffcond[b - 1] == '0') forbuffcond[b - 2] = NULLC;

	mov	eax, DWORD PTR b$[rsp]
	sub	eax, 2
	cdqe
	movsx	eax, BYTE PTR forbuffcond$[rsp+rax]
	cmp	eax, 62					; 0000003eH
	jne	SHORT $LN32@HllStartDi
	mov	eax, DWORD PTR b$[rsp]
	dec	eax
	cdqe
	movsx	eax, BYTE PTR forbuffcond$[rsp+rax]
	cmp	eax, 48					; 00000030H
	jne	SHORT $LN32@HllStartDi
	mov	eax, DWORD PTR b$[rsp]
	sub	eax, 2
	cdqe
	mov	QWORD PTR $T20[rsp], rax
	cmp	QWORD PTR $T20[rsp], 600		; 00000258H
	jae	SHORT $LN66@HllStartDi
	jmp	SHORT $LN67@HllStartDi
$LN66@HllStartDi:
	call	__report_rangecheckfailure
$LN67@HllStartDi:
	mov	rax, QWORD PTR $T20[rsp]
	mov	BYTE PTR forbuffcond$[rsp+rax], 0
$LN32@HllStartDi:

; 1302 :       forbuffcond[b] = NULLC;

	movsxd	rax, DWORD PTR b$[rsp]
	mov	QWORD PTR $T21[rsp], rax
	cmp	QWORD PTR $T21[rsp], 600		; 00000258H
	jae	SHORT $LN68@HllStartDi
	jmp	SHORT $LN69@HllStartDi
$LN68@HllStartDi:
	call	__report_rangecheckfailure
$LN69@HllStartDi:
	mov	rax, QWORD PTR $T21[rsp]
	mov	BYTE PTR forbuffcond$[rsp+rax], 0

; 1303 :       if (!b) hll->cond = FALSE;

	cmp	DWORD PTR b$[rsp], 0
	jne	SHORT $LN33@HllStartDi
	mov	rax, QWORD PTR hll$[rsp]
	mov	BYTE PTR [rax+56], 0
	jmp	SHORT $LN34@HllStartDi
$LN33@HllStartDi:

; 1304 :       else    hll->cond = TRUE;

	mov	rax, QWORD PTR hll$[rsp]
	mov	BYTE PTR [rax+56], 1
$LN34@HllStartDi:

; 1305 :       j++;

	mov	eax, DWORD PTR j$[rsp]
	inc	eax
	mov	DWORD PTR j$[rsp], eax

; 1306 :       //copy the counter to the buffer
; 1307 :       cmcnt = 0;

	mov	DWORD PTR cmcnt$[rsp], 0

; 1308 :       forbuffcnt[0] = NULLC;

	mov	eax, 1
	imul	rax, rax, 0
	mov	QWORD PTR $T22[rsp], rax
	cmp	QWORD PTR $T22[rsp], 600		; 00000258H
	jae	SHORT $LN70@HllStartDi
	jmp	SHORT $LN71@HllStartDi
$LN70@HllStartDi:
	call	__report_rangecheckfailure
$LN71@HllStartDi:
	mov	rax, QWORD PTR $T22[rsp]
	mov	BYTE PTR forbuffcnt$[rsp+rax], 0

; 1309 :       hll->condlines = "";

	mov	rax, QWORD PTR hll$[rsp]
	lea	rcx, OFFSET FLAT:$SG11643
	mov	QWORD PTR [rax+32], rcx

; 1310 :       for (b = 0; forbuff[j] != ')';b++,j++){

	mov	DWORD PTR b$[rsp], 0
	jmp	SHORT $LN15@HllStartDi
$LN13@HllStartDi:
	mov	eax, DWORD PTR b$[rsp]
	inc	eax
	mov	DWORD PTR b$[rsp], eax
	mov	eax, DWORD PTR j$[rsp]
	inc	eax
	mov	DWORD PTR j$[rsp], eax
$LN15@HllStartDi:
	movsxd	rax, DWORD PTR j$[rsp]
	movsx	eax, BYTE PTR forbuff$[rsp+rax]
	cmp	eax, 41					; 00000029H
	je	$LN14@HllStartDi

; 1311 :         forbuffcnt[b] = forbuff[j];

	movsxd	rax, DWORD PTR j$[rsp]
	movsxd	rcx, DWORD PTR b$[rsp]
	movzx	eax, BYTE PTR forbuff$[rsp+rax]
	mov	BYTE PTR forbuffcnt$[rsp+rcx], al

; 1312 :         if (forbuffcnt[b] == ',' && forbuff[j - 1] != 39 && forbuff[j + 1] != 39) ++cmcnt;

	movsxd	rax, DWORD PTR b$[rsp]
	movsx	eax, BYTE PTR forbuffcnt$[rsp+rax]
	cmp	eax, 44					; 0000002cH
	jne	SHORT $LN35@HllStartDi
	mov	eax, DWORD PTR j$[rsp]
	dec	eax
	cdqe
	movsx	eax, BYTE PTR forbuff$[rsp+rax]
	cmp	eax, 39					; 00000027H
	je	SHORT $LN35@HllStartDi
	mov	eax, DWORD PTR j$[rsp]
	inc	eax
	cdqe
	movsx	eax, BYTE PTR forbuff$[rsp+rax]
	cmp	eax, 39					; 00000027H
	je	SHORT $LN35@HllStartDi
	mov	eax, DWORD PTR cmcnt$[rsp]
	inc	eax
	mov	DWORD PTR cmcnt$[rsp], eax
$LN35@HllStartDi:

; 1313 :         if (forbuffcnt[b] == 39 && forbuffcnt[b - 2] == 39){

	movsxd	rax, DWORD PTR b$[rsp]
	movsx	eax, BYTE PTR forbuffcnt$[rsp+rax]
	cmp	eax, 39					; 00000027H
	jne	SHORT $LN36@HllStartDi
	mov	eax, DWORD PTR b$[rsp]
	sub	eax, 2
	cdqe
	movsx	eax, BYTE PTR forbuffcnt$[rsp+rax]
	cmp	eax, 39					; 00000027H
	jne	SHORT $LN36@HllStartDi

; 1314 :           b++;

	mov	eax, DWORD PTR b$[rsp]
	inc	eax
	mov	DWORD PTR b$[rsp], eax

; 1315 :           forbuffcnt[b] = ' ';

	movsxd	rax, DWORD PTR b$[rsp]
	mov	BYTE PTR forbuffcnt$[rsp+rax], 32	; 00000020H
$LN36@HllStartDi:

; 1316 :         }
; 1317 :       }

	jmp	$LN13@HllStartDi
$LN14@HllStartDi:

; 1318 :       if (forbuffcnt[b - 1] == ')') b--;

	mov	eax, DWORD PTR b$[rsp]
	dec	eax
	cdqe
	movsx	eax, BYTE PTR forbuffcnt$[rsp+rax]
	cmp	eax, 41					; 00000029H
	jne	SHORT $LN37@HllStartDi
	mov	eax, DWORD PTR b$[rsp]
	dec	eax
	mov	DWORD PTR b$[rsp], eax
$LN37@HllStartDi:

; 1319 :       forbuffcnt[b] = NULLC;

	movsxd	rax, DWORD PTR b$[rsp]
	mov	QWORD PTR $T23[rsp], rax
	cmp	QWORD PTR $T23[rsp], 600		; 00000258H
	jae	SHORT $LN72@HllStartDi
	jmp	SHORT $LN73@HllStartDi
$LN72@HllStartDi:
	call	__report_rangecheckfailure
$LN73@HllStartDi:
	mov	rax, QWORD PTR $T23[rsp]
	mov	BYTE PTR forbuffcnt$[rsp+rax], 0

; 1320 :       //create valid command and add to LineQueue to initiate .for loop vars
; 1321 :       //anything that is before the first ':'
; 1322 :       if (forbuffinit[0]) ForInitAndNext(tokenarray, eqcnt, forbuffinit);

	mov	eax, 1
	imul	rax, rax, 0
	movsx	eax, BYTE PTR forbuffinit$[rsp+rax]
	test	eax, eax
	je	SHORT $LN38@HllStartDi
	lea	r8, QWORD PTR forbuffinit$[rsp]
	mov	edx, DWORD PTR eqcnt$[rsp]
	mov	rcx, QWORD PTR tokenarray$[rsp]
	call	ForInitAndNext
$LN38@HllStartDi:

; 1323 :       //note hll->counterlines is new var in the struct hll_item for store of forbuffcnt used in .ENDFOR
; 1324 :       //hll->cmcnt is also new var in the struct hll_item for commas counter used in .ENDFOR
; 1325 :       //copy forbuffcnt context to hll->counterlines 
; 1326 :       //forbuffcnt contains anything that is written after the second ':'
; 1327 :       hll->cmcnt = 0;

	mov	rax, QWORD PTR hll$[rsp]
	mov	DWORD PTR [rax+48], 0

; 1328 :       if (forbuffcnt[0])

	mov	eax, 1
	imul	rax, rax, 0
	movsx	eax, BYTE PTR forbuffcnt$[rsp+rax]
	test	eax, eax
	je	$LN39@HllStartDi

; 1329 :       {
; 1330 :       //skip altering conditions the first time
; 1331 :         AddLineQueueX(" jmp %s", GetLabelStr(hll->labels[LSKIP], buff));

	mov	eax, 4
	imul	rax, rax, 3
	lea	rdx, QWORD PTR buff$[rsp]
	mov	rcx, QWORD PTR hll$[rsp]
	mov	ecx, DWORD PTR [rcx+rax+8]
	call	GetLabelStr
	mov	rdx, rax
	lea	rcx, OFFSET FLAT:$SG11650
	call	AddLineQueueX

; 1332 :         size = strlen(forbuffcnt) + 1;

	lea	rcx, QWORD PTR forbuffcnt$[rsp]
	call	strlen
	inc	rax
	mov	DWORD PTR size$[rsp], eax

; 1333 :         hll->counterlines = LclAlloc(size);

	movsxd	rax, DWORD PTR size$[rsp]
	mov	rcx, rax
	call	LclAlloc
	mov	rcx, QWORD PTR hll$[rsp]
	mov	QWORD PTR [rcx+40], rax

; 1334 :         memcpy(hll->counterlines, forbuffcnt, size);

	movsxd	rax, DWORD PTR size$[rsp]
	mov	r8, rax
	lea	rdx, QWORD PTR forbuffcnt$[rsp]
	mov	rax, QWORD PTR hll$[rsp]
	mov	rcx, QWORD PTR [rax+40]
	call	memcpy

; 1335 :         hll->cmcnt = cmcnt + 1;

	mov	eax, DWORD PTR cmcnt$[rsp]
	inc	eax
	mov	rcx, QWORD PTR hll$[rsp]
	mov	DWORD PTR [rcx+48], eax

; 1336 :       }

	jmp	SHORT $LN40@HllStartDi
$LN39@HllStartDi:

; 1337 :       else hll->counterlines = "";    //there is nothing after the second ':'

	mov	rax, QWORD PTR hll$[rsp]
	lea	rcx, OFFSET FLAT:$SG11651
	mov	QWORD PTR [rax+40], rcx
$LN40@HllStartDi:

; 1338 :       if (forbuffcond[0]){

	mov	eax, 1
	imul	rax, rax, 0
	movsx	eax, BYTE PTR forbuffcond$[rsp+rax]
	test	eax, eax
	je	$LN41@HllStartDi

; 1339 :         strcpy(transformed, ".for ");

	lea	rdx, OFFSET FLAT:$SG11653
	lea	rcx, QWORD PTR transformed$[rsp]
	call	strcpy

; 1340 :         strcat(transformed, forbuffcond);

	lea	rdx, QWORD PTR forbuffcond$[rsp]
	lea	rcx, QWORD PTR transformed$[rsp]
	call	strcat

; 1341 :         strcat(transformed, "\0");

	lea	rdx, OFFSET FLAT:$SG11654
	lea	rcx, QWORD PTR transformed$[rsp]
	call	strcat

; 1342 :         tokenarray[0].string_ptr = ".for\0";

	mov	eax, 32					; 00000020H
	imul	rax, rax, 0
	mov	rcx, QWORD PTR tokenarray$[rsp]
	lea	rdx, OFFSET FLAT:$SG11655
	mov	QWORD PTR [rcx+rax+8], rdx

; 1343 :         tokenarray[0].tokpos = transformed;

	mov	eax, 32					; 00000020H
	imul	rax, rax, 0
	mov	rcx, QWORD PTR tokenarray$[rsp]
	lea	rdx, QWORD PTR transformed$[rsp]
	mov	QWORD PTR [rcx+rax+24], rdx

; 1344 :         Token_Count = Tokenize(tokenarray[0].tokpos, 0, tokenarray, 0);

	mov	eax, 32					; 00000020H
	imul	rax, rax, 0
	xor	r9d, r9d
	mov	r8, QWORD PTR tokenarray$[rsp]
	xor	edx, edx
	mov	rcx, QWORD PTR tokenarray$[rsp]
	mov	rcx, QWORD PTR [rcx+rax+24]
	call	Tokenize
	mov	DWORD PTR ModuleInfo+496, eax

; 1345 :         if (tokenarray[i].token != T_FINAL) {

	movsxd	rax, DWORD PTR i$[rsp]
	imul	rax, rax, 32				; 00000020H
	mov	rcx, QWORD PTR tokenarray$[rsp]
	movzx	eax, BYTE PTR [rcx+rax]
	test	eax, eax
	je	$LN42@HllStartDi

; 1346 :           rc = EvaluateHllExpression(hll, &i, tokenarray, LSTART, TRUE, buffer);

	lea	rax, QWORD PTR buffer$[rsp]
	mov	QWORD PTR [rsp+40], rax
	mov	BYTE PTR [rsp+32], 1
	mov	r9d, 2
	mov	r8, QWORD PTR tokenarray$[rsp]
	lea	rdx, QWORD PTR i$[rsp]
	mov	rcx, QWORD PTR hll$[rsp]
	call	EvaluateHllExpression
	mov	DWORD PTR rc$[rsp], eax

; 1347 :           if (rc == NOT_ERROR) {

	cmp	DWORD PTR rc$[rsp], 0
	jne	SHORT $LN44@HllStartDi

; 1348 :             size = strlen(buffer) + 1;

	lea	rcx, QWORD PTR buffer$[rsp]
	call	strlen
	inc	rax
	mov	DWORD PTR size$[rsp], eax

; 1349 :             hll->condlines = LclAlloc(size);

	movsxd	rax, DWORD PTR size$[rsp]
	mov	rcx, rax
	call	LclAlloc
	mov	rcx, QWORD PTR hll$[rsp]
	mov	QWORD PTR [rcx+32], rax

; 1350 :             memcpy(hll->condlines, buffer, size);

	movsxd	rax, DWORD PTR size$[rsp]
	mov	r8, rax
	lea	rdx, QWORD PTR buffer$[rsp]
	mov	rax, QWORD PTR hll$[rsp]
	mov	rcx, QWORD PTR [rax+32]
	call	memcpy

; 1351 :             DebugCmd(cntCond++); DebugCmd(cntCondBytes += size);

	mov	eax, DWORD PTR cntCond
	inc	eax
	mov	DWORD PTR cntCond, eax
	mov	eax, DWORD PTR size$[rsp]
	mov	ecx, DWORD PTR cntCondBytes
	add	ecx, eax
	mov	eax, ecx
	mov	DWORD PTR cntCondBytes, eax
$LN44@HllStartDi:

; 1352 :           }
; 1353 :         }

	jmp	SHORT $LN43@HllStartDi
$LN42@HllStartDi:

; 1354 :         else
; 1355 :           hll->condlines = "";

	mov	rax, QWORD PTR hll$[rsp]
	lea	rcx, OFFSET FLAT:$SG11659
	mov	QWORD PTR [rax+32], rcx
$LN43@HllStartDi:
$LN41@HllStartDi:
$LN27@HllStartDi:

; 1356 :       }
; 1357 :     }
; 1358 :     AddLineQueueX("%s" LABELQUAL, GetLabelStr(hll->labels[LSTART], buff));

	mov	eax, 4
	imul	rax, rax, 2
	lea	rdx, QWORD PTR buff$[rsp]
	mov	rcx, QWORD PTR hll$[rsp]
	mov	ecx, DWORD PTR [rcx+rax+8]
	call	GetLabelStr
	mov	rdx, rax
	lea	rcx, OFFSET FLAT:$SG11660
	call	AddLineQueueX

; 1359 :     tokenarray[i].token = T_FINAL;

	movsxd	rax, DWORD PTR i$[rsp]
	imul	rax, rax, 32				; 00000020H
	mov	rcx, QWORD PTR tokenarray$[rsp]
	mov	BYTE PTR [rcx+rax], 0

; 1360 :     break;

	jmp	$LN2@HllStartDi
$LN45@HllStartDi:

; 1361 :     //end of .FOR
; 1362 :   case T_DOT_WHILE:
; 1363 :   case T_DOT_REPEAT:
; 1364 :     /* create the label to start of loop */
; 1365 :     hll->labels[LSTART] = GetHllLabel();

	call	GetHllLabel
	mov	ecx, 4
	imul	rcx, rcx, 2
	mov	rdx, QWORD PTR hll$[rsp]
	mov	DWORD PTR [rdx+rcx+8], eax

; 1366 :     hll->labels[LTEST] = 0; /* v2.11: test label is created only if needed */

	mov	eax, 4
	imul	rax, rax, 0
	mov	rcx, QWORD PTR hll$[rsp]
	mov	DWORD PTR [rcx+rax+8], 0

; 1367 :     //hll->labels[LEXIT] = GetHllLabel(); /* v2.11: LEXIT is only needed for .BREAK */
; 1368 :     if (cmd == T_DOT_WHILE) {

	cmp	DWORD PTR cmd$[rsp], 329		; 00000149H
	jne	$LN46@HllStartDi

; 1369 :       hll->cmd = HLL_WHILE;

	mov	rax, QWORD PTR hll$[rsp]
	mov	DWORD PTR [rax+52], 1

; 1370 :       hll->condlines = NULL;

	mov	rax, QWORD PTR hll$[rsp]
	mov	QWORD PTR [rax+32], 0

; 1371 :       if (tokenarray[i].token != T_FINAL) {

	movsxd	rax, DWORD PTR i$[rsp]
	imul	rax, rax, 32				; 00000020H
	mov	rcx, QWORD PTR tokenarray$[rsp]
	movzx	eax, BYTE PTR [rcx+rax]
	test	eax, eax
	je	$LN48@HllStartDi

; 1372 :         rc = EvaluateHllExpression(hll, &i, tokenarray, LSTART, TRUE, buffer);

	lea	rax, QWORD PTR buffer$[rsp]
	mov	QWORD PTR [rsp+40], rax
	mov	BYTE PTR [rsp+32], 1
	mov	r9d, 2
	mov	r8, QWORD PTR tokenarray$[rsp]
	lea	rdx, QWORD PTR i$[rsp]
	mov	rcx, QWORD PTR hll$[rsp]
	call	EvaluateHllExpression
	mov	DWORD PTR rc$[rsp], eax

; 1373 :         if (rc == NOT_ERROR) {

	cmp	DWORD PTR rc$[rsp], 0
	jne	SHORT $LN50@HllStartDi

; 1374 :           int size;
; 1375 :           size = strlen(buffer) + 1;

	lea	rcx, QWORD PTR buffer$[rsp]
	call	strlen
	inc	rax
	mov	DWORD PTR size$15[rsp], eax

; 1376 :           hll->condlines = LclAlloc(size);

	movsxd	rax, DWORD PTR size$15[rsp]
	mov	rcx, rax
	call	LclAlloc
	mov	rcx, QWORD PTR hll$[rsp]
	mov	QWORD PTR [rcx+32], rax

; 1377 :           memcpy(hll->condlines, buffer, size);

	movsxd	rax, DWORD PTR size$15[rsp]
	mov	r8, rax
	lea	rdx, QWORD PTR buffer$[rsp]
	mov	rax, QWORD PTR hll$[rsp]
	mov	rcx, QWORD PTR [rax+32]
	call	memcpy

; 1378 :           DebugCmd(cntCond++); DebugCmd(cntCondBytes += size);

	mov	eax, DWORD PTR cntCond
	inc	eax
	mov	DWORD PTR cntCond, eax
	mov	eax, DWORD PTR size$15[rsp]
	mov	ecx, DWORD PTR cntCondBytes
	add	ecx, eax
	mov	eax, ecx
	mov	DWORD PTR cntCondBytes, eax
$LN50@HllStartDi:

; 1379 :         }
; 1380 :       }

	jmp	SHORT $LN49@HllStartDi
$LN48@HllStartDi:

; 1381 :       else
; 1382 :         buffer[0] = NULLC;  /* just ".while" without expression is accepted */

	mov	eax, 1
	imul	rax, rax, 0
	mov	QWORD PTR $T24[rsp], rax
	cmp	QWORD PTR $T24[rsp], 1200		; 000004b0H
	jae	SHORT $LN74@HllStartDi
	jmp	SHORT $LN75@HllStartDi
$LN74@HllStartDi:
	call	__report_rangecheckfailure
$LN75@HllStartDi:
	mov	rax, QWORD PTR $T24[rsp]
	mov	BYTE PTR buffer$[rsp+rax], 0
$LN49@HllStartDi:

; 1383 : 
; 1384 :       /* create a jump to test label */
; 1385 :       /* optimisation: if line at 'test' label is just a jump, dont create label and don't jump! */
; 1386 :       if (_memicmp(buffer, "jmp", 3)) {

	mov	r8d, 3
	lea	rdx, OFFSET FLAT:$SG11668
	lea	rcx, QWORD PTR buffer$[rsp]
	call	QWORD PTR __imp__memicmp
	test	eax, eax
	je	SHORT $LN51@HllStartDi

; 1387 :         hll->labels[LTEST] = GetHllLabel();

	call	GetHllLabel
	mov	ecx, 4
	imul	rcx, rcx, 0
	mov	rdx, QWORD PTR hll$[rsp]
	mov	DWORD PTR [rdx+rcx+8], eax

; 1388 :         AddLineQueueX(JMPPREFIX "jmp %s", GetLabelStr(hll->labels[LTEST], buff));

	mov	eax, 4
	imul	rax, rax, 0
	lea	rdx, QWORD PTR buff$[rsp]
	mov	rcx, QWORD PTR hll$[rsp]
	mov	ecx, DWORD PTR [rcx+rax+8]
	call	GetLabelStr
	mov	rdx, rax
	lea	rcx, OFFSET FLAT:$SG11669
	call	AddLineQueueX
$LN51@HllStartDi:

; 1389 :       }
; 1390 :     }

	jmp	SHORT $LN47@HllStartDi
$LN46@HllStartDi:

; 1391 :     else {
; 1392 :       hll->cmd = HLL_REPEAT;

	mov	rax, QWORD PTR hll$[rsp]
	mov	DWORD PTR [rax+52], 2
$LN47@HllStartDi:

; 1393 :     }
; 1394 :     AddLineQueueX("%s" LABELQUAL, GetLabelStr(hll->labels[LSTART], buff));

	mov	eax, 4
	imul	rax, rax, 2
	lea	rdx, QWORD PTR buff$[rsp]
	mov	rcx, QWORD PTR hll$[rsp]
	mov	ecx, DWORD PTR [rcx+rax+8]
	call	GetLabelStr
	mov	rdx, rax
	lea	rcx, OFFSET FLAT:$SG11670
	call	AddLineQueueX

; 1395 :     break;

	jmp	SHORT $LN2@HllStartDi
$LN52@HllStartDi:

; 1396 : #ifdef DEBUG_OUT
; 1397 :   default: /**/myassert(0); break;

	mov	edx, 1397				; 00000575H
	lea	rcx, OFFSET FLAT:$SG11672
	call	InternalError
$LN2@HllStartDi:

; 1398 : #endif
; 1399 :   }
; 1400 : 
; 1401 :   if (tokenarray[i].token != T_FINAL && rc == NOT_ERROR) {

	movsxd	rax, DWORD PTR i$[rsp]
	imul	rax, rax, 32				; 00000020H
	mov	rcx, QWORD PTR tokenarray$[rsp]
	movzx	eax, BYTE PTR [rcx+rax]
	test	eax, eax
	je	SHORT $LN53@HllStartDi
	cmp	DWORD PTR rc$[rsp], 0
	jne	SHORT $LN53@HllStartDi

; 1402 :     DebugMsg(("HllStartDir: unexpected token [%s]\n", tokenarray[i].tokpos));

	movsxd	rax, DWORD PTR i$[rsp]
	imul	rax, rax, 32				; 00000020H
	mov	rcx, QWORD PTR tokenarray$[rsp]
	mov	rdx, QWORD PTR [rcx+rax+24]
	lea	rcx, OFFSET FLAT:$SG11674
	call	DoDebugMsg

; 1403 :     EmitErr(SYNTAX_ERROR_EX, tokenarray[i].tokpos);

	movsxd	rax, DWORD PTR i$[rsp]
	imul	rax, rax, 32				; 00000020H
	mov	rcx, QWORD PTR tokenarray$[rsp]
	mov	rdx, QWORD PTR [rcx+rax+24]
	mov	ecx, 209				; 000000d1H
	call	EmitErr

; 1404 :     rc = ERROR;

	mov	DWORD PTR rc$[rsp], -1
$LN53@HllStartDi:

; 1405 :     //return( ERROR ); /* v2.08: continue and parse the line queue */
; 1406 :   }
; 1407 :   /* v2.06: remove the item from the free stack */
; 1408 :   if (hll == HllFree)

	mov	rax, QWORD PTR ModuleInfo+232
	cmp	QWORD PTR hll$[rsp], rax
	jne	SHORT $LN54@HllStartDi

; 1409 :     HllFree = hll->next;

	mov	rax, QWORD PTR hll$[rsp]
	mov	rax, QWORD PTR [rax]
	mov	QWORD PTR ModuleInfo+232, rax
$LN54@HllStartDi:

; 1410 :   hll->next = HllStack;

	mov	rax, QWORD PTR hll$[rsp]
	mov	rcx, QWORD PTR ModuleInfo+224
	mov	QWORD PTR [rax], rcx

; 1411 :   HllStack = hll;

	mov	rax, QWORD PTR hll$[rsp]
	mov	QWORD PTR ModuleInfo+224, rax

; 1412 : 
; 1413 :   if (ModuleInfo.list)

	mov	eax, DWORD PTR ModuleInfo+408
	shr	eax, 11
	and	eax, 1
	test	eax, eax
	je	SHORT $LN55@HllStartDi

; 1414 :     LstWrite(LSTTYPE_DIRECTIVE, GetCurrOffset(), NULL);

	call	GetCurrOffset
	xor	r8d, r8d
	mov	edx, eax
	mov	ecx, 4
	call	LstWrite
$LN55@HllStartDi:

; 1415 : 
; 1416 :   if (is_linequeue_populated()) /* might be NULL! (".if 1") */

	cmp	QWORD PTR ModuleInfo+184, 0
	je	SHORT $LN56@HllStartDi

; 1417 :     RunLineQueue();

	call	RunLineQueue
$LN56@HllStartDi:

; 1418 : 
; 1419 :   return(rc);

	mov	eax, DWORD PTR rc$[rsp]
$LN57@HllStartDi:

; 1420 : }

	mov	rdi, rax
	mov	rcx, rsp
	lea	rdx, OFFSET FLAT:HllStartDir$rtcFrameData
	call	_RTC_CheckStackVars
	mov	rax, rdi
	mov	rcx, QWORD PTR __$ArrayPad$[rsp]
	xor	rcx, rsp
	call	__security_check_cookie
	add	rsp, 6208				; 00001840H
	pop	rdi
	ret	0
HllStartDir ENDP
_TEXT	ENDS
; Function compile flags: /Odtp /RTCsu
; File d:\hjwasm\hjwasm2.13.1s\hjwasm2.13.1s\hll.c
_TEXT	SEGMENT
a$ = 32
j$ = 36
b$ = 40
brct$ = 44
codebuff$ = 64
param$ = 352
init$ = 640
op$ = 916
p$ = 936
$T7 = 952
$T8 = 960
$T9 = 968
$T10 = 976
$T11 = 984
$T12 = 992
$T13 = 1000
__$ArrayPad$ = 1008
tokenarray$ = 1040
cnt$ = 1048
buff$ = 1056
ForInitAndNext PROC

; 907  : static ret_code ForInitAndNext(struct asm_tok tokenarray[], int cnt, char *buff){

	mov	QWORD PTR [rsp+24], r8
	mov	DWORD PTR [rsp+16], edx
	mov	QWORD PTR [rsp+8], rcx
	push	rdi
	sub	rsp, 1024				; 00000400H
	mov	rdi, rsp
	mov	ecx, 256				; 00000100H
	mov	eax, -858993460				; ccccccccH
	rep stosd
	mov	rcx, QWORD PTR [rsp+1040]
	mov	rax, QWORD PTR __security_cookie
	xor	rax, rsp
	mov	QWORD PTR __$ArrayPad$[rsp], rax

; 908  :   int a;
; 909  :   int j;
; 910  :   int	b = 0;

	mov	DWORD PTR b$[rsp], 0

; 911  :   bool brct = 0;

	mov	BYTE PTR brct$[rsp], 0
$LN4@ForInitAnd:

; 912  :   char codebuff[256];
; 913  :   char param[256];
; 914  :   char init[256];
; 915  :   char op[4];
; 916  :   char *p;
; 917  :   //create valid command and add to LineQueue
; 918  :   do {
; 919  :     //extracting the first parameter "param" before the operator
; 920  :     a = 0;

	mov	DWORD PTR a$[rsp], 0
$LN5@ForInitAnd:

; 921  :     while (buff[b] && !strchr("=!<>&|-+*^%/", buff[b]))

	movsxd	rax, DWORD PTR b$[rsp]
	mov	rcx, QWORD PTR buff$[rsp]
	movsx	eax, BYTE PTR [rcx+rax]
	test	eax, eax
	je	$LN6@ForInitAnd
	movsxd	rax, DWORD PTR b$[rsp]
	mov	rcx, QWORD PTR buff$[rsp]
	movsx	eax, BYTE PTR [rcx+rax]
	mov	edx, eax
	lea	rcx, OFFSET FLAT:$SG11398
	call	QWORD PTR __imp_strchr
	test	rax, rax
	jne	SHORT $LN6@ForInitAnd

; 922  :     {
; 923  :       if (buff[b] == '-' || buff[b] == '+') break;

	movsxd	rax, DWORD PTR b$[rsp]
	mov	rcx, QWORD PTR buff$[rsp]
	movsx	eax, BYTE PTR [rcx+rax]
	cmp	eax, 45					; 0000002dH
	je	SHORT $LN20@ForInitAnd
	movsxd	rax, DWORD PTR b$[rsp]
	mov	rcx, QWORD PTR buff$[rsp]
	movsx	eax, BYTE PTR [rcx+rax]
	cmp	eax, 43					; 0000002bH
	jne	SHORT $LN19@ForInitAnd
$LN20@ForInitAnd:
	jmp	SHORT $LN6@ForInitAnd
$LN19@ForInitAnd:

; 924  :       param[a] = buff[b];

	movsxd	rax, DWORD PTR b$[rsp]
	movsxd	rcx, DWORD PTR a$[rsp]
	mov	rdx, QWORD PTR buff$[rsp]
	movzx	eax, BYTE PTR [rdx+rax]
	mov	BYTE PTR param$[rsp+rcx], al

; 925  :       b++;

	mov	eax, DWORD PTR b$[rsp]
	inc	eax
	mov	DWORD PTR b$[rsp], eax

; 926  :       a++;

	mov	eax, DWORD PTR a$[rsp]
	inc	eax
	mov	DWORD PTR a$[rsp], eax

; 927  :     }

	jmp	$LN5@ForInitAnd
$LN6@ForInitAnd:

; 928  :     param[a] = '\0';

	movsxd	rax, DWORD PTR a$[rsp]
	mov	QWORD PTR $T7[rsp], rax
	cmp	QWORD PTR $T7[rsp], 256			; 00000100H
	jae	SHORT $LN128@ForInitAnd
	jmp	SHORT $LN129@ForInitAnd
$LN128@ForInitAnd:
	call	__report_rangecheckfailure
$LN129@ForInitAnd:
	mov	rax, QWORD PTR $T7[rsp]
	mov	BYTE PTR param$[rsp+rax], 0

; 929  :     //end of param
; 930  :     //is it simple operator
; 931  :     if ((buff[b + 1] == '+') || (buff[b + 1] == '-')){            //if ++ or -- finish it here

	mov	eax, DWORD PTR b$[rsp]
	inc	eax
	cdqe
	mov	rcx, QWORD PTR buff$[rsp]
	movsx	eax, BYTE PTR [rcx+rax]
	cmp	eax, 43					; 0000002bH
	je	SHORT $LN23@ForInitAnd
	mov	eax, DWORD PTR b$[rsp]
	inc	eax
	cdqe
	mov	rcx, QWORD PTR buff$[rsp]
	movsx	eax, BYTE PTR [rcx+rax]
	cmp	eax, 45					; 0000002dH
	jne	$LN21@ForInitAnd
$LN23@ForInitAnd:

; 932  :       param[a] = '\0';

	movsxd	rax, DWORD PTR a$[rsp]
	mov	QWORD PTR $T8[rsp], rax
	cmp	QWORD PTR $T8[rsp], 256			; 00000100H
	jae	SHORT $LN130@ForInitAnd
	jmp	SHORT $LN131@ForInitAnd
$LN130@ForInitAnd:
	call	__report_rangecheckfailure
$LN131@ForInitAnd:
	mov	rax, QWORD PTR $T8[rsp]
	mov	BYTE PTR param$[rsp+rax], 0

; 933  :       if ((buff[b] == '+') && (buff[b + 1] == '+')) strcpy(codebuff, " inc ");

	movsxd	rax, DWORD PTR b$[rsp]
	mov	rcx, QWORD PTR buff$[rsp]
	movsx	eax, BYTE PTR [rcx+rax]
	cmp	eax, 43					; 0000002bH
	jne	SHORT $LN24@ForInitAnd
	mov	eax, DWORD PTR b$[rsp]
	inc	eax
	cdqe
	mov	rcx, QWORD PTR buff$[rsp]
	movsx	eax, BYTE PTR [rcx+rax]
	cmp	eax, 43					; 0000002bH
	jne	SHORT $LN24@ForInitAnd
	lea	rdx, OFFSET FLAT:$SG11406
	lea	rcx, QWORD PTR codebuff$[rsp]
	call	strcpy
	jmp	SHORT $LN25@ForInitAnd
$LN24@ForInitAnd:

; 934  :       else if ((buff[b] == '-') && (buff[b + 1] == '-')) strcpy(codebuff, " dec ");

	movsxd	rax, DWORD PTR b$[rsp]
	mov	rcx, QWORD PTR buff$[rsp]
	movsx	eax, BYTE PTR [rcx+rax]
	cmp	eax, 45					; 0000002dH
	jne	SHORT $LN26@ForInitAnd
	mov	eax, DWORD PTR b$[rsp]
	inc	eax
	cdqe
	mov	rcx, QWORD PTR buff$[rsp]
	movsx	eax, BYTE PTR [rcx+rax]
	cmp	eax, 45					; 0000002dH
	jne	SHORT $LN26@ForInitAnd
	lea	rdx, OFFSET FLAT:$SG11408
	lea	rcx, QWORD PTR codebuff$[rsp]
	call	strcpy
$LN26@ForInitAnd:
$LN25@ForInitAnd:

; 935  :       strcat(codebuff, param);

	lea	rdx, QWORD PTR param$[rsp]
	lea	rcx, QWORD PTR codebuff$[rsp]
	call	strcat

; 936  :       AddLineQueue(codebuff);

	lea	rcx, QWORD PTR codebuff$[rsp]
	call	AddLineQueue

; 937  :       b += 3;

	mov	eax, DWORD PTR b$[rsp]
	add	eax, 3
	mov	DWORD PTR b$[rsp], eax

; 938  :     }

	jmp	$LN22@ForInitAnd
$LN21@ForInitAnd:

; 939  : 
; 940  :     //we finis here "inc REX" or  "dec REX" or "inc mem" or "dec mem"
; 941  :     else						//if not ++ or -- 
; 942  :     {							//extracting the operator
; 943  :       op[0] = buff[b];

	movsxd	rax, DWORD PTR b$[rsp]
	mov	ecx, 1
	imul	rcx, rcx, 0
	mov	rdx, QWORD PTR buff$[rsp]
	movzx	eax, BYTE PTR [rdx+rax]
	mov	BYTE PTR op$[rsp+rcx], al

; 944  :       b++;

	mov	eax, DWORD PTR b$[rsp]
	inc	eax
	mov	DWORD PTR b$[rsp], eax

; 945  :       if (op[0] == '='){     //if operator is only '='

	mov	eax, 1
	imul	rax, rax, 0
	movsx	eax, BYTE PTR op$[rsp+rax]
	cmp	eax, 61					; 0000003dH
	jne	SHORT $LN27@ForInitAnd

; 946  :         op[1] = '\0';       //finish here

	mov	QWORD PTR $T9[rsp], 1
	cmp	QWORD PTR $T9[rsp], 4
	jae	SHORT $LN132@ForInitAnd
	jmp	SHORT $LN133@ForInitAnd
$LN132@ForInitAnd:
	call	__report_rangecheckfailure
$LN133@ForInitAnd:
	mov	rax, QWORD PTR $T9[rsp]
	mov	BYTE PTR op$[rsp+rax], 0

; 947  :       }

	jmp	$LN28@ForInitAnd
$LN27@ForInitAnd:

; 948  :       else {                 //extract next operator
; 949  :         op[1] = buff[b];

	movsxd	rax, DWORD PTR b$[rsp]
	mov	ecx, 1
	imul	rcx, rcx, 1
	mov	rdx, QWORD PTR buff$[rsp]
	movzx	eax, BYTE PTR [rdx+rax]
	mov	BYTE PTR op$[rsp+rcx], al

; 950  :         b++;

	mov	eax, DWORD PTR b$[rsp]
	inc	eax
	mov	DWORD PTR b$[rsp], eax

; 951  :         if ((op[1] == '<' || op[1] == '>') && (buff[b] == '=')){

	mov	eax, 1
	imul	rax, rax, 1
	movsx	eax, BYTE PTR op$[rsp+rax]
	cmp	eax, 60					; 0000003cH
	je	SHORT $LN31@ForInitAnd
	mov	eax, 1
	imul	rax, rax, 1
	movsx	eax, BYTE PTR op$[rsp+rax]
	cmp	eax, 62					; 0000003eH
	jne	SHORT $LN29@ForInitAnd
$LN31@ForInitAnd:
	movsxd	rax, DWORD PTR b$[rsp]
	mov	rcx, QWORD PTR buff$[rsp]
	movsx	eax, BYTE PTR [rcx+rax]
	cmp	eax, 61					; 0000003dH
	jne	SHORT $LN29@ForInitAnd

; 952  :           op[2] = buff[b]; //if a second operator is shift sign "<<=" or ">>="

	movsxd	rax, DWORD PTR b$[rsp]
	mov	ecx, 1
	imul	rcx, rcx, 2
	mov	rdx, QWORD PTR buff$[rsp]
	movzx	eax, BYTE PTR [rdx+rax]
	mov	BYTE PTR op$[rsp+rcx], al

; 953  :           op[3] = NULLC;

	mov	eax, 1
	imul	rax, rax, 3
	mov	QWORD PTR $T10[rsp], rax
	cmp	QWORD PTR $T10[rsp], 4
	jae	SHORT $LN134@ForInitAnd
	jmp	SHORT $LN135@ForInitAnd
$LN134@ForInitAnd:
	call	__report_rangecheckfailure
$LN135@ForInitAnd:
	mov	rax, QWORD PTR $T10[rsp]
	mov	BYTE PTR op$[rsp+rax], 0

; 954  :           b++;

	mov	eax, DWORD PTR b$[rsp]
	inc	eax
	mov	DWORD PTR b$[rsp], eax

; 955  :         }

	jmp	SHORT $LN30@ForInitAnd
$LN29@ForInitAnd:

; 956  :         else op[2] = NULLC; //not shift so we have two operands

	mov	eax, 1
	imul	rax, rax, 2
	mov	QWORD PTR $T11[rsp], rax
	cmp	QWORD PTR $T11[rsp], 4
	jae	SHORT $LN136@ForInitAnd
	jmp	SHORT $LN137@ForInitAnd
$LN136@ForInitAnd:
	call	__report_rangecheckfailure
$LN137@ForInitAnd:
	mov	rax, QWORD PTR $T11[rsp]
	mov	BYTE PTR op$[rsp+rax], 0
$LN30@ForInitAnd:
$LN28@ForInitAnd:

; 957  : 
; 958  :       }
; 959  :       //we finished with param and op
; 960  :       //now extracting the second parameter "init" after the operator
; 961  :       for (a = 0; buff[b];){ //checking if we have a char in a single ' '

	mov	DWORD PTR a$[rsp], 0
$LN7@ForInitAnd:
	movsxd	rax, DWORD PTR b$[rsp]
	mov	rcx, QWORD PTR buff$[rsp]
	movsx	eax, BYTE PTR [rcx+rax]
	test	eax, eax
	je	$LN8@ForInitAnd

; 962  :         if (buff[b] == '(' && buff[b - 1] != 39 && buff[b + 1] != 39 && b) break;

	movsxd	rax, DWORD PTR b$[rsp]
	mov	rcx, QWORD PTR buff$[rsp]
	movsx	eax, BYTE PTR [rcx+rax]
	cmp	eax, 40					; 00000028H
	jne	SHORT $LN32@ForInitAnd
	mov	eax, DWORD PTR b$[rsp]
	dec	eax
	cdqe
	mov	rcx, QWORD PTR buff$[rsp]
	movsx	eax, BYTE PTR [rcx+rax]
	cmp	eax, 39					; 00000027H
	je	SHORT $LN32@ForInitAnd
	mov	eax, DWORD PTR b$[rsp]
	inc	eax
	cdqe
	mov	rcx, QWORD PTR buff$[rsp]
	movsx	eax, BYTE PTR [rcx+rax]
	cmp	eax, 39					; 00000027H
	je	SHORT $LN32@ForInitAnd
	cmp	DWORD PTR b$[rsp], 0
	je	SHORT $LN32@ForInitAnd
	jmp	$LN8@ForInitAnd
$LN32@ForInitAnd:

; 963  :         if (buff[b] == ',' && buff[b - 1] != 39 && buff[b + 1] != 39 && b) break;

	movsxd	rax, DWORD PTR b$[rsp]
	mov	rcx, QWORD PTR buff$[rsp]
	movsx	eax, BYTE PTR [rcx+rax]
	cmp	eax, 44					; 0000002cH
	jne	SHORT $LN33@ForInitAnd
	mov	eax, DWORD PTR b$[rsp]
	dec	eax
	cdqe
	mov	rcx, QWORD PTR buff$[rsp]
	movsx	eax, BYTE PTR [rcx+rax]
	cmp	eax, 39					; 00000027H
	je	SHORT $LN33@ForInitAnd
	mov	eax, DWORD PTR b$[rsp]
	inc	eax
	cdqe
	mov	rcx, QWORD PTR buff$[rsp]
	movsx	eax, BYTE PTR [rcx+rax]
	cmp	eax, 39					; 00000027H
	je	SHORT $LN33@ForInitAnd
	cmp	DWORD PTR b$[rsp], 0
	je	SHORT $LN33@ForInitAnd
	jmp	SHORT $LN8@ForInitAnd
$LN33@ForInitAnd:

; 964  :         init[a] = buff[b];

	movsxd	rax, DWORD PTR b$[rsp]
	movsxd	rcx, DWORD PTR a$[rsp]
	mov	rdx, QWORD PTR buff$[rsp]
	movzx	eax, BYTE PTR [rdx+rax]
	mov	BYTE PTR init$[rsp+rcx], al

; 965  :         b++;

	mov	eax, DWORD PTR b$[rsp]
	inc	eax
	mov	DWORD PTR b$[rsp], eax

; 966  :         a++;

	mov	eax, DWORD PTR a$[rsp]
	inc	eax
	mov	DWORD PTR a$[rsp], eax

; 967  :       }

	jmp	$LN7@ForInitAnd
$LN8@ForInitAnd:

; 968  :       if (buff[b] == '(' && buff[b - 1] != 39 && buff[b + 1] != 39 && b){

	movsxd	rax, DWORD PTR b$[rsp]
	mov	rcx, QWORD PTR buff$[rsp]
	movsx	eax, BYTE PTR [rcx+rax]
	cmp	eax, 40					; 00000028H
	jne	$LN34@ForInitAnd
	mov	eax, DWORD PTR b$[rsp]
	dec	eax
	cdqe
	mov	rcx, QWORD PTR buff$[rsp]
	movsx	eax, BYTE PTR [rcx+rax]
	cmp	eax, 39					; 00000027H
	je	$LN34@ForInitAnd
	mov	eax, DWORD PTR b$[rsp]
	inc	eax
	cdqe
	mov	rcx, QWORD PTR buff$[rsp]
	movsx	eax, BYTE PTR [rcx+rax]
	cmp	eax, 39					; 00000027H
	je	$LN34@ForInitAnd
	cmp	DWORD PTR b$[rsp], 0
	je	$LN34@ForInitAnd

; 969  :         for (; buff[b] && buff[b] != ')'; b++, a++){

	jmp	SHORT $LN12@ForInitAnd
$LN10@ForInitAnd:
	mov	eax, DWORD PTR b$[rsp]
	inc	eax
	mov	DWORD PTR b$[rsp], eax
	mov	eax, DWORD PTR a$[rsp]
	inc	eax
	mov	DWORD PTR a$[rsp], eax
$LN12@ForInitAnd:
	movsxd	rax, DWORD PTR b$[rsp]
	mov	rcx, QWORD PTR buff$[rsp]
	movsx	eax, BYTE PTR [rcx+rax]
	test	eax, eax
	je	SHORT $LN11@ForInitAnd
	movsxd	rax, DWORD PTR b$[rsp]
	mov	rcx, QWORD PTR buff$[rsp]
	movsx	eax, BYTE PTR [rcx+rax]
	cmp	eax, 41					; 00000029H
	je	SHORT $LN11@ForInitAnd

; 970  :           init[a] = buff[b];

	movsxd	rax, DWORD PTR b$[rsp]
	movsxd	rcx, DWORD PTR a$[rsp]
	mov	rdx, QWORD PTR buff$[rsp]
	movzx	eax, BYTE PTR [rdx+rax]
	mov	BYTE PTR init$[rsp+rcx], al

; 971  :         }

	jmp	SHORT $LN10@ForInitAnd
$LN11@ForInitAnd:

; 972  :         if (buff[b] == ')' && buff[b - 1] != 39 && buff[b + 1] != 39){

	movsxd	rax, DWORD PTR b$[rsp]
	mov	rcx, QWORD PTR buff$[rsp]
	movsx	eax, BYTE PTR [rcx+rax]
	cmp	eax, 41					; 00000029H
	jne	SHORT $LN35@ForInitAnd
	mov	eax, DWORD PTR b$[rsp]
	dec	eax
	cdqe
	mov	rcx, QWORD PTR buff$[rsp]
	movsx	eax, BYTE PTR [rcx+rax]
	cmp	eax, 39					; 00000027H
	je	SHORT $LN35@ForInitAnd
	mov	eax, DWORD PTR b$[rsp]
	inc	eax
	cdqe
	mov	rcx, QWORD PTR buff$[rsp]
	movsx	eax, BYTE PTR [rcx+rax]
	cmp	eax, 39					; 00000027H
	je	SHORT $LN35@ForInitAnd

; 973  :           init[a] = buff[b];

	movsxd	rax, DWORD PTR b$[rsp]
	movsxd	rcx, DWORD PTR a$[rsp]
	mov	rdx, QWORD PTR buff$[rsp]
	movzx	eax, BYTE PTR [rdx+rax]
	mov	BYTE PTR init$[rsp+rcx], al

; 974  :           b++;

	mov	eax, DWORD PTR b$[rsp]
	inc	eax
	mov	DWORD PTR b$[rsp], eax

; 975  :           a++;

	mov	eax, DWORD PTR a$[rsp]
	inc	eax
	mov	DWORD PTR a$[rsp], eax
$LN35@ForInitAnd:

; 976  :         }
; 977  :         brct = TRUE;

	mov	BYTE PTR brct$[rsp], 1
$LN34@ForInitAnd:

; 978  :       }
; 979  :       init[a] = NULLC;

	movsxd	rax, DWORD PTR a$[rsp]
	mov	QWORD PTR $T12[rsp], rax
	cmp	QWORD PTR $T12[rsp], 256		; 00000100H
	jae	SHORT $LN138@ForInitAnd
	jmp	SHORT $LN139@ForInitAnd
$LN138@ForInitAnd:
	call	__report_rangecheckfailure
$LN139@ForInitAnd:
	mov	rax, QWORD PTR $T12[rsp]
	mov	BYTE PTR init$[rsp+rax], 0

; 980  :       b++;

	mov	eax, DWORD PTR b$[rsp]
	inc	eax
	mov	DWORD PTR b$[rsp], eax

; 981  :       //we finished with init
; 982  :       //is operator devision, multiplication or mod
; 983  :       if (op[0] == '/' || op[0] == '*' || op[0] == '%') {

	mov	eax, 1
	imul	rax, rax, 0
	movsx	eax, BYTE PTR op$[rsp+rax]
	cmp	eax, 47					; 0000002fH
	je	SHORT $LN38@ForInitAnd
	mov	eax, 1
	imul	rax, rax, 0
	movsx	eax, BYTE PTR op$[rsp+rax]
	cmp	eax, 42					; 0000002aH
	je	SHORT $LN38@ForInitAnd
	mov	eax, 1
	imul	rax, rax, 0
	movsx	eax, BYTE PTR op$[rsp+rax]
	cmp	eax, 37					; 00000025H
	jne	$LN36@ForInitAnd
$LN38@ForInitAnd:

; 984  :         Tokenize(param, 0, tokenarray, 0);

	xor	r9d, r9d
	mov	r8, QWORD PTR tokenarray$[rsp]
	xor	edx, edx
	lea	rcx, QWORD PTR param$[rsp]
	call	Tokenize

; 985  :         if (strcasecmp(param, reax) && strcasecmp(init, reax)){ //param not rax init not rax?    

	lea	rdx, OFFSET FLAT:reax
	lea	rcx, QWORD PTR param$[rsp]
	call	QWORD PTR __imp__stricmp
	test	eax, eax
	je	$LN39@ForInitAnd
	lea	rdx, OFFSET FLAT:reax
	lea	rcx, QWORD PTR init$[rsp]
	call	QWORD PTR __imp__stricmp
	test	eax, eax
	je	$LN39@ForInitAnd

; 986  :           if (tokenarray[0].token == T_REG){			//is param register              

	mov	eax, 32					; 00000020H
	imul	rax, rax, 0
	mov	rcx, QWORD PTR tokenarray$[rsp]
	movzx	eax, BYTE PTR [rcx+rax]
	cmp	eax, 2
	jne	$LN41@ForInitAnd

; 987  :             if (strcasecmp(param, recx)){				//make sure that param is not rcx

	lea	rdx, OFFSET FLAT:recx
	lea	rcx, QWORD PTR param$[rsp]
	call	QWORD PTR __imp__stricmp
	test	eax, eax
	je	SHORT $LN43@ForInitAnd

; 988  :               WriteAsmLine(" mov  ", reax, param);				// MOV RAX,param

	lea	r8, QWORD PTR param$[rsp]
	lea	rdx, OFFSET FLAT:reax
	lea	rcx, OFFSET FLAT:$SG11426
	call	WriteAsmLine
$LN43@ForInitAnd:

; 989  :             }						if (op[0] == '/' || op[0] == '%'){

	mov	eax, 1
	imul	rax, rax, 0
	movsx	eax, BYTE PTR op$[rsp+rax]
	cmp	eax, 47					; 0000002fH
	je	SHORT $LN45@ForInitAnd
	mov	eax, 1
	imul	rax, rax, 0
	movsx	eax, BYTE PTR op$[rsp+rax]
	cmp	eax, 37					; 00000025H
	jne	SHORT $LN44@ForInitAnd
$LN45@ForInitAnd:

; 990  :               strcpy(codebuff, " cdq ");			//extend to RDX if division	

	lea	rdx, OFFSET FLAT:$SG11429
	lea	rcx, QWORD PTR codebuff$[rsp]
	call	strcpy

; 991  :               AddLineQueue(codebuff);

	lea	rcx, QWORD PTR codebuff$[rsp]
	call	AddLineQueue
$LN44@ForInitAnd:

; 992  :             }
; 993  :             Tokenize(init, 0, tokenarray, 0);

	xor	r9d, r9d
	mov	r8, QWORD PTR tokenarray$[rsp]
	xor	edx, edx
	lea	rcx, QWORD PTR init$[rsp]
	call	Tokenize

; 994  :             if (tokenarray[0].token == T_NUM){      //is init number? 

	mov	eax, 32					; 00000020H
	imul	rax, rax, 0
	mov	rcx, QWORD PTR tokenarray$[rsp]
	movzx	eax, BYTE PTR [rcx+rax]
	cmp	eax, 10
	jne	$LN46@ForInitAnd

; 995  :               WriteAsmLine(" mov  ", recx, init);        //MOV RCX,init

	lea	r8, QWORD PTR init$[rsp]
	lea	rdx, OFFSET FLAT:recx
	lea	rcx, OFFSET FLAT:$SG11432
	call	WriteAsmLine

; 996  :               if (op[0] == '/' || op[0] == '%')

	mov	eax, 1
	imul	rax, rax, 0
	movsx	eax, BYTE PTR op$[rsp+rax]
	cmp	eax, 47					; 0000002fH
	je	SHORT $LN50@ForInitAnd
	mov	eax, 1
	imul	rax, rax, 0
	movsx	eax, BYTE PTR op$[rsp+rax]
	cmp	eax, 37					; 00000025H
	jne	SHORT $LN48@ForInitAnd
$LN50@ForInitAnd:

; 997  :                 strcpy(codebuff, " idiv ");		//IDIV RCX        

	lea	rdx, OFFSET FLAT:$SG11436
	lea	rcx, QWORD PTR codebuff$[rsp]
	call	strcpy
	jmp	SHORT $LN49@ForInitAnd
$LN48@ForInitAnd:

; 998  :               else strcpy(codebuff, " imul ");		//IMUL RCX        

	lea	rdx, OFFSET FLAT:$SG11437
	lea	rcx, QWORD PTR codebuff$[rsp]
	call	strcpy
$LN49@ForInitAnd:

; 999  :               strcat(codebuff, recx);

	lea	rdx, OFFSET FLAT:recx
	lea	rcx, QWORD PTR codebuff$[rsp]
	call	strcat

; 1000 :               AddLineQueue(codebuff);

	lea	rcx, QWORD PTR codebuff$[rsp]
	call	AddLineQueue

; 1001 :               goto cont;

	jmp	$cont$142

; 1002 :             }

	jmp	SHORT $LN47@ForInitAnd
$LN46@ForInitAnd:

; 1003 :             else {
; 1004 :               if (op[0] == '/' || op[0] == '%') //it is a variable

	mov	eax, 1
	imul	rax, rax, 0
	movsx	eax, BYTE PTR op$[rsp+rax]
	cmp	eax, 47					; 0000002fH
	je	SHORT $LN53@ForInitAnd
	mov	eax, 1
	imul	rax, rax, 0
	movsx	eax, BYTE PTR op$[rsp+rax]
	cmp	eax, 37					; 00000025H
	jne	SHORT $LN51@ForInitAnd
$LN53@ForInitAnd:

; 1005 :                 strcpy(codebuff, " idiv ");

	lea	rdx, OFFSET FLAT:$SG11441
	lea	rcx, QWORD PTR codebuff$[rsp]
	call	strcpy
	jmp	SHORT $LN52@ForInitAnd
$LN51@ForInitAnd:

; 1006 :               else strcpy(codebuff, " imul ");

	lea	rdx, OFFSET FLAT:$SG11442
	lea	rcx, QWORD PTR codebuff$[rsp]
	call	strcpy
$LN52@ForInitAnd:

; 1007 :               strcat(codebuff, init);

	lea	rdx, QWORD PTR init$[rsp]
	lea	rcx, QWORD PTR codebuff$[rsp]
	call	strcat

; 1008 :               AddLineQueue(codebuff);

	lea	rcx, QWORD PTR codebuff$[rsp]
	call	AddLineQueue

; 1009 :               goto cont;

	jmp	$cont$142
$LN47@ForInitAnd:

; 1010 :             }
; 1011 :           }

	jmp	$LN42@ForInitAnd
$LN41@ForInitAnd:

; 1012 :           //if param is a variable
; 1013 :           else if (tokenarray[0].token == T_ID){		 //YES             

	mov	eax, 32					; 00000020H
	imul	rax, rax, 0
	mov	rcx, QWORD PTR tokenarray$[rsp]
	movzx	eax, BYTE PTR [rcx+rax]
	cmp	eax, 8
	jne	$LN54@ForInitAnd

; 1014 :             WriteAsmLine(" mov  ", recx, init);        //MOV RCX,init

	lea	r8, QWORD PTR init$[rsp]
	lea	rdx, OFFSET FLAT:recx
	lea	rcx, OFFSET FLAT:$SG11444
	call	WriteAsmLine

; 1015 :             WriteAsmLine(" mov  ", reax, param);		// MOV RAX,param

	lea	r8, QWORD PTR param$[rsp]
	lea	rdx, OFFSET FLAT:reax
	lea	rcx, OFFSET FLAT:$SG11445
	call	WriteAsmLine

; 1016 :             if (op[0] == '/' || op[0] == '%'){

	mov	eax, 1
	imul	rax, rax, 0
	movsx	eax, BYTE PTR op$[rsp+rax]
	cmp	eax, 47					; 0000002fH
	je	SHORT $LN57@ForInitAnd
	mov	eax, 1
	imul	rax, rax, 0
	movsx	eax, BYTE PTR op$[rsp+rax]
	cmp	eax, 37					; 00000025H
	jne	SHORT $LN55@ForInitAnd
$LN57@ForInitAnd:

; 1017 :               strcpy(codebuff, " cdq ");

	lea	rdx, OFFSET FLAT:$SG11449
	lea	rcx, QWORD PTR codebuff$[rsp]
	call	strcpy

; 1018 :               AddLineQueue(codebuff);

	lea	rcx, QWORD PTR codebuff$[rsp]
	call	AddLineQueue

; 1019 :               strcpy(codebuff, " idiv ");

	lea	rdx, OFFSET FLAT:$SG11450
	lea	rcx, QWORD PTR codebuff$[rsp]
	call	strcpy

; 1020 :             }

	jmp	SHORT $LN56@ForInitAnd
$LN55@ForInitAnd:

; 1021 :             else strcpy(codebuff, " imul ");

	lea	rdx, OFFSET FLAT:$SG11451
	lea	rcx, QWORD PTR codebuff$[rsp]
	call	strcpy
$LN56@ForInitAnd:

; 1022 :             strcat(codebuff, recx);

	lea	rdx, OFFSET FLAT:recx
	lea	rcx, QWORD PTR codebuff$[rsp]
	call	strcat

; 1023 :             AddLineQueue(codebuff);

	lea	rcx, QWORD PTR codebuff$[rsp]
	call	AddLineQueue
$cont$142:

; 1024 :           cont:
; 1025 :             if (op[0] == '%') {

	mov	eax, 1
	imul	rax, rax, 0
	movsx	eax, BYTE PTR op$[rsp+rax]
	cmp	eax, 37					; 00000025H
	jne	SHORT $LN58@ForInitAnd

; 1026 :               WriteAsmLine(" mov  ", param, redx);

	lea	r8, OFFSET FLAT:redx
	lea	rdx, QWORD PTR param$[rsp]
	lea	rcx, OFFSET FLAT:$SG11454
	call	WriteAsmLine

; 1027 :               goto skip;

	jmp	$skip$143

; 1028 :             }

	jmp	SHORT $LN59@ForInitAnd
$LN58@ForInitAnd:

; 1029 :             else {
; 1030 :               WriteAsmLine(" mov  ", param, reax);

	lea	r8, OFFSET FLAT:reax
	lea	rdx, QWORD PTR param$[rsp]
	lea	rcx, OFFSET FLAT:$SG11455
	call	WriteAsmLine

; 1031 :               goto skip;

	jmp	$skip$143
$LN59@ForInitAnd:
$LN54@ForInitAnd:
$LN42@ForInitAnd:

; 1032 :             }
; 1033 :           }
; 1034 :         }

	jmp	$LN40@ForInitAnd
$LN39@ForInitAnd:

; 1035 :         // if param is not RAX and init is RCX
; 1036 :         else if ((strcasecmp(param, reax) && !(strcasecmp(init, recx)))){

	lea	rdx, OFFSET FLAT:reax
	lea	rcx, QWORD PTR param$[rsp]
	call	QWORD PTR __imp__stricmp
	test	eax, eax
	je	$LN60@ForInitAnd
	lea	rdx, OFFSET FLAT:recx
	lea	rcx, QWORD PTR init$[rsp]
	call	QWORD PTR __imp__stricmp
	test	eax, eax
	jne	$LN60@ForInitAnd

; 1037 :           if (op[0] == '/' || op[0] == '%'){

	mov	eax, 1
	imul	rax, rax, 0
	movsx	eax, BYTE PTR op$[rsp+rax]
	cmp	eax, 47					; 0000002fH
	je	SHORT $LN64@ForInitAnd
	mov	eax, 1
	imul	rax, rax, 0
	movsx	eax, BYTE PTR op$[rsp+rax]
	cmp	eax, 37					; 00000025H
	jne	SHORT $LN62@ForInitAnd
$LN64@ForInitAnd:

; 1038 :             strcpy(codebuff, " cdq ");

	lea	rdx, OFFSET FLAT:$SG11461
	lea	rcx, QWORD PTR codebuff$[rsp]
	call	strcpy

; 1039 :             AddLineQueue(codebuff);

	lea	rcx, QWORD PTR codebuff$[rsp]
	call	AddLineQueue

; 1040 :             strcpy(codebuff, " idiv ");

	lea	rdx, OFFSET FLAT:$SG11462
	lea	rcx, QWORD PTR codebuff$[rsp]
	call	strcpy

; 1041 :           }

	jmp	SHORT $LN63@ForInitAnd
$LN62@ForInitAnd:

; 1042 :           else strcpy(codebuff, " imul ");

	lea	rdx, OFFSET FLAT:$SG11463
	lea	rcx, QWORD PTR codebuff$[rsp]
	call	strcpy
$LN63@ForInitAnd:

; 1043 :           strcat(codebuff, recx);

	lea	rdx, OFFSET FLAT:recx
	lea	rcx, QWORD PTR codebuff$[rsp]
	call	strcat

; 1044 :           AddLineQueue(codebuff);

	lea	rcx, QWORD PTR codebuff$[rsp]
	call	AddLineQueue

; 1045 :           if (op[0] == '%') WriteAsmLine(" mov  ", param, redx);

	mov	eax, 1
	imul	rax, rax, 0
	movsx	eax, BYTE PTR op$[rsp+rax]
	cmp	eax, 37					; 00000025H
	jne	SHORT $LN65@ForInitAnd
	lea	r8, OFFSET FLAT:redx
	lea	rdx, QWORD PTR param$[rsp]
	lea	rcx, OFFSET FLAT:$SG11465
	call	WriteAsmLine
$LN65@ForInitAnd:

; 1046 :           goto skip;

	jmp	$skip$143

; 1047 :         }

	jmp	$LN61@ForInitAnd
$LN60@ForInitAnd:

; 1048 :         // if param is RAX and init is RCX
; 1049 :         else if ((!(strcasecmp(param, reax)) && (!(strcmp(init, recx))))){

	lea	rdx, OFFSET FLAT:reax
	lea	rcx, QWORD PTR param$[rsp]
	call	QWORD PTR __imp__stricmp
	test	eax, eax
	jne	$LN66@ForInitAnd
	lea	rdx, OFFSET FLAT:recx
	lea	rcx, QWORD PTR init$[rsp]
	call	strcmp
	test	eax, eax
	jne	$LN66@ForInitAnd

; 1050 :           if (op[0] == '/' || op[0] == '%'){

	mov	eax, 1
	imul	rax, rax, 0
	movsx	eax, BYTE PTR op$[rsp+rax]
	cmp	eax, 47					; 0000002fH
	je	SHORT $LN70@ForInitAnd
	mov	eax, 1
	imul	rax, rax, 0
	movsx	eax, BYTE PTR op$[rsp+rax]
	cmp	eax, 37					; 00000025H
	jne	SHORT $LN68@ForInitAnd
$LN70@ForInitAnd:

; 1051 :             strcpy(codebuff, " cdq ");

	lea	rdx, OFFSET FLAT:$SG11471
	lea	rcx, QWORD PTR codebuff$[rsp]
	call	strcpy

; 1052 :             AddLineQueue(codebuff);

	lea	rcx, QWORD PTR codebuff$[rsp]
	call	AddLineQueue

; 1053 :             strcpy(codebuff, " idiv ");

	lea	rdx, OFFSET FLAT:$SG11472
	lea	rcx, QWORD PTR codebuff$[rsp]
	call	strcpy

; 1054 :           }

	jmp	SHORT $LN69@ForInitAnd
$LN68@ForInitAnd:

; 1055 :           else strcpy(codebuff, " imul ");

	lea	rdx, OFFSET FLAT:$SG11473
	lea	rcx, QWORD PTR codebuff$[rsp]
	call	strcpy
$LN69@ForInitAnd:

; 1056 :           strcat(codebuff, recx);

	lea	rdx, OFFSET FLAT:recx
	lea	rcx, QWORD PTR codebuff$[rsp]
	call	strcat

; 1057 :           AddLineQueue(codebuff);

	lea	rcx, QWORD PTR codebuff$[rsp]
	call	AddLineQueue

; 1058 :           if (op[0] == '%') WriteAsmLine(" mov  ", param, redx);

	mov	eax, 1
	imul	rax, rax, 0
	movsx	eax, BYTE PTR op$[rsp+rax]
	cmp	eax, 37					; 00000025H
	jne	SHORT $LN71@ForInitAnd
	lea	r8, OFFSET FLAT:redx
	lea	rdx, QWORD PTR param$[rsp]
	lea	rcx, OFFSET FLAT:$SG11475
	call	WriteAsmLine
$LN71@ForInitAnd:

; 1059 :           goto skip;

	jmp	$skip$143

; 1060 :         }

	jmp	$LN67@ForInitAnd
$LN66@ForInitAnd:

; 1061 :         // if param is RAX and init is not RCX
; 1062 :         else if (!(strcasecmp(param, reax) && (strcasecmp(init, recx)))){

	lea	rdx, OFFSET FLAT:reax
	lea	rcx, QWORD PTR param$[rsp]
	call	QWORD PTR __imp__stricmp
	test	eax, eax
	je	SHORT $LN73@ForInitAnd
	lea	rdx, OFFSET FLAT:recx
	lea	rcx, QWORD PTR init$[rsp]
	call	QWORD PTR __imp__stricmp
	test	eax, eax
	jne	$LN72@ForInitAnd
$LN73@ForInitAnd:

; 1063 :           WriteAsmLine(" mov  ", recx, init);        //MOV RCX,init

	lea	r8, QWORD PTR init$[rsp]
	lea	rdx, OFFSET FLAT:recx
	lea	rcx, OFFSET FLAT:$SG11478
	call	WriteAsmLine

; 1064 :           if (op[0] == '/' || op[0] == '%'){

	mov	eax, 1
	imul	rax, rax, 0
	movsx	eax, BYTE PTR op$[rsp+rax]
	cmp	eax, 47					; 0000002fH
	je	SHORT $LN76@ForInitAnd
	mov	eax, 1
	imul	rax, rax, 0
	movsx	eax, BYTE PTR op$[rsp+rax]
	cmp	eax, 37					; 00000025H
	jne	SHORT $LN74@ForInitAnd
$LN76@ForInitAnd:

; 1065 :             strcpy(codebuff, " cdq ");

	lea	rdx, OFFSET FLAT:$SG11482
	lea	rcx, QWORD PTR codebuff$[rsp]
	call	strcpy

; 1066 :             AddLineQueue(codebuff);

	lea	rcx, QWORD PTR codebuff$[rsp]
	call	AddLineQueue

; 1067 :             strcpy(codebuff, " idiv ");

	lea	rdx, OFFSET FLAT:$SG11483
	lea	rcx, QWORD PTR codebuff$[rsp]
	call	strcpy

; 1068 :           }

	jmp	SHORT $LN75@ForInitAnd
$LN74@ForInitAnd:

; 1069 :           else strcpy(codebuff, " imul ");

	lea	rdx, OFFSET FLAT:$SG11484
	lea	rcx, QWORD PTR codebuff$[rsp]
	call	strcpy
$LN75@ForInitAnd:

; 1070 :           strcat(codebuff, recx);

	lea	rdx, OFFSET FLAT:recx
	lea	rcx, QWORD PTR codebuff$[rsp]
	call	strcat

; 1071 :           AddLineQueue(codebuff);

	lea	rcx, QWORD PTR codebuff$[rsp]
	call	AddLineQueue

; 1072 :           if (op[0] == '%') WriteAsmLine(" mov  ", param, redx);

	mov	eax, 1
	imul	rax, rax, 0
	movsx	eax, BYTE PTR op$[rsp+rax]
	cmp	eax, 37					; 00000025H
	jne	SHORT $LN77@ForInitAnd
	lea	r8, OFFSET FLAT:redx
	lea	rdx, QWORD PTR param$[rsp]
	lea	rcx, OFFSET FLAT:$SG11486
	call	WriteAsmLine
$LN77@ForInitAnd:

; 1073 :           goto skip;

	jmp	$skip$143
$LN72@ForInitAnd:
$LN67@ForInitAnd:
$LN61@ForInitAnd:
$LN40@ForInitAnd:

; 1074 :         }
; 1075 :       }

	jmp	$LN37@ForInitAnd
$LN36@ForInitAnd:

; 1076 :       //if operator not devision, multiplication or mod
; 1077 :       else if (op[0] == '-') strcpy(codebuff, " sub ");

	mov	eax, 1
	imul	rax, rax, 0
	movsx	eax, BYTE PTR op$[rsp+rax]
	cmp	eax, 45					; 0000002dH
	jne	SHORT $LN78@ForInitAnd
	lea	rdx, OFFSET FLAT:$SG11489
	lea	rcx, QWORD PTR codebuff$[rsp]
	call	strcpy
	jmp	$LN79@ForInitAnd
$LN78@ForInitAnd:

; 1078 :       else if (op[0] == '+') strcpy(codebuff, " add ");

	mov	eax, 1
	imul	rax, rax, 0
	movsx	eax, BYTE PTR op$[rsp+rax]
	cmp	eax, 43					; 0000002bH
	jne	SHORT $LN80@ForInitAnd
	lea	rdx, OFFSET FLAT:$SG11492
	lea	rcx, QWORD PTR codebuff$[rsp]
	call	strcpy
	jmp	$LN81@ForInitAnd
$LN80@ForInitAnd:

; 1079 :       else if (op[0] == '&') strcpy(codebuff, " and ");

	mov	eax, 1
	imul	rax, rax, 0
	movsx	eax, BYTE PTR op$[rsp+rax]
	cmp	eax, 38					; 00000026H
	jne	SHORT $LN82@ForInitAnd
	lea	rdx, OFFSET FLAT:$SG11495
	lea	rcx, QWORD PTR codebuff$[rsp]
	call	strcpy
	jmp	$LN83@ForInitAnd
$LN82@ForInitAnd:

; 1080 :       else if (op[0] == '|') strcpy(codebuff, " or ");

	mov	eax, 1
	imul	rax, rax, 0
	movsx	eax, BYTE PTR op$[rsp+rax]
	cmp	eax, 124				; 0000007cH
	jne	SHORT $LN84@ForInitAnd
	lea	rdx, OFFSET FLAT:$SG11498
	lea	rcx, QWORD PTR codebuff$[rsp]
	call	strcpy
	jmp	$LN85@ForInitAnd
$LN84@ForInitAnd:

; 1081 :       else if (op[0] == '^') strcpy(codebuff, " xor ");

	mov	eax, 1
	imul	rax, rax, 0
	movsx	eax, BYTE PTR op$[rsp+rax]
	cmp	eax, 94					; 0000005eH
	jne	SHORT $LN86@ForInitAnd
	lea	rdx, OFFSET FLAT:$SG11501
	lea	rcx, QWORD PTR codebuff$[rsp]
	call	strcpy
	jmp	SHORT $LN87@ForInitAnd
$LN86@ForInitAnd:

; 1082 :       else if (op[0] == '<' && op[1] == '<') strcpy(codebuff, " shl ");

	mov	eax, 1
	imul	rax, rax, 0
	movsx	eax, BYTE PTR op$[rsp+rax]
	cmp	eax, 60					; 0000003cH
	jne	SHORT $LN88@ForInitAnd
	mov	eax, 1
	imul	rax, rax, 1
	movsx	eax, BYTE PTR op$[rsp+rax]
	cmp	eax, 60					; 0000003cH
	jne	SHORT $LN88@ForInitAnd
	lea	rdx, OFFSET FLAT:$SG11504
	lea	rcx, QWORD PTR codebuff$[rsp]
	call	strcpy
	jmp	SHORT $LN89@ForInitAnd
$LN88@ForInitAnd:

; 1083 :       else if (op[0] == '>' && op[1] == '>') strcpy(codebuff, " shr ");

	mov	eax, 1
	imul	rax, rax, 0
	movsx	eax, BYTE PTR op$[rsp+rax]
	cmp	eax, 62					; 0000003eH
	jne	SHORT $LN90@ForInitAnd
	mov	eax, 1
	imul	rax, rax, 1
	movsx	eax, BYTE PTR op$[rsp+rax]
	cmp	eax, 62					; 0000003eH
	jne	SHORT $LN90@ForInitAnd
	lea	rdx, OFFSET FLAT:$SG11506
	lea	rcx, QWORD PTR codebuff$[rsp]
	call	strcpy
$LN90@ForInitAnd:
$LN89@ForInitAnd:
$LN87@ForInitAnd:
$LN85@ForInitAnd:
$LN83@ForInitAnd:
$LN81@ForInitAnd:
$LN79@ForInitAnd:
$LN37@ForInitAnd:

; 1084 :       Tokenize(init, 0, tokenarray, 0);

	xor	r9d, r9d
	mov	r8, QWORD PTR tokenarray$[rsp]
	xor	edx, edx
	lea	rcx, QWORD PTR init$[rsp]
	call	Tokenize

; 1085 :       if (tokenarray[0].token == T_REG || tokenarray[0].token == T_NUM || tokenarray[0].token == T_FLOAT || tokenarray[0].token == T_DIRECTIVE)

	mov	eax, 32					; 00000020H
	imul	rax, rax, 0
	mov	rcx, QWORD PTR tokenarray$[rsp]
	movzx	eax, BYTE PTR [rcx+rax]
	cmp	eax, 2
	je	SHORT $LN92@ForInitAnd
	mov	eax, 32					; 00000020H
	imul	rax, rax, 0
	mov	rcx, QWORD PTR tokenarray$[rsp]
	movzx	eax, BYTE PTR [rcx+rax]
	cmp	eax, 10
	je	SHORT $LN92@ForInitAnd
	mov	eax, 32					; 00000020H
	imul	rax, rax, 0
	mov	rcx, QWORD PTR tokenarray$[rsp]
	movzx	eax, BYTE PTR [rcx+rax]
	cmp	eax, 11
	je	SHORT $LN92@ForInitAnd
	mov	eax, 32					; 00000020H
	imul	rax, rax, 0
	mov	rcx, QWORD PTR tokenarray$[rsp]
	movzx	eax, BYTE PTR [rcx+rax]
	cmp	eax, 3
	jne	SHORT $LN91@ForInitAnd
$LN92@ForInitAnd:

; 1086 :         goto simple;

	jmp	SHORT $simple$144
$LN91@ForInitAnd:

; 1087 :       Tokenize(param, 0, tokenarray, 0);

	xor	r9d, r9d
	mov	r8, QWORD PTR tokenarray$[rsp]
	xor	edx, edx
	lea	rcx, QWORD PTR param$[rsp]
	call	Tokenize

; 1088 :       if (tokenarray[0].token == T_REG){

	mov	eax, 32					; 00000020H
	imul	rax, rax, 0
	mov	rcx, QWORD PTR tokenarray$[rsp]
	movzx	eax, BYTE PTR [rcx+rax]
	cmp	eax, 2
	jne	$LN93@ForInitAnd
$simple$144:

; 1089 :       simple:			Tokenize(param, 0, tokenarray, 0);

	xor	r9d, r9d
	mov	r8, QWORD PTR tokenarray$[rsp]
	xor	edx, edx
	lea	rcx, QWORD PTR param$[rsp]
	call	Tokenize

; 1090 : 
; 1091 :         if (strlen(init) == 1 && init[0] == '0')                        //REX=0?

	lea	rcx, QWORD PTR init$[rsp]
	call	strlen
	cmp	rax, 1
	jne	SHORT $LN95@ForInitAnd
	mov	eax, 1
	imul	rax, rax, 0
	movsx	eax, BYTE PTR init$[rsp+rax]
	cmp	eax, 48					; 00000030H
	jne	SHORT $LN95@ForInitAnd

; 1092 :           WriteAsmLine(" xor  ", param, param);							            //XOR REX,REX //instead MOV REX,0				

	lea	r8, QWORD PTR param$[rsp]
	lea	rdx, QWORD PTR param$[rsp]
	lea	rcx, OFFSET FLAT:$SG11513
	call	WriteAsmLine
	jmp	$LN96@ForInitAnd
$LN95@ForInitAnd:

; 1093 :         else if ((strlen(op) == 1) && ((init[4] == ' ') || (init[4] == '\t'))){  //op is '='

	lea	rcx, QWORD PTR op$[rsp]
	call	strlen
	cmp	rax, 1
	jne	$LN97@ForInitAnd
	mov	eax, 1
	imul	rax, rax, 4
	movsx	eax, BYTE PTR init$[rsp+rax]
	cmp	eax, 32					; 00000020H
	je	SHORT $LN99@ForInitAnd
	mov	eax, 1
	imul	rax, rax, 4
	movsx	eax, BYTE PTR init$[rsp+rax]
	cmp	eax, 9
	jne	$LN97@ForInitAnd
$LN99@ForInitAnd:

; 1094 :           if ((0 == _memicmp(init, "BYTE PTR", 8)) ||                   //reax=BYTE PTR al 
; 1095 :             (0 == _memicmp(init, "BPTR", 4)) ||
; 1096 :             (0 == _memicmp(init, "WPTR", 4)) ||

	mov	r8d, 8
	lea	rdx, OFFSET FLAT:$SG11520
	lea	rcx, QWORD PTR init$[rsp]
	call	QWORD PTR __imp__memicmp
	test	eax, eax
	je	SHORT $LN102@ForInitAnd
	mov	r8d, 4
	lea	rdx, OFFSET FLAT:$SG11521
	lea	rcx, QWORD PTR init$[rsp]
	call	QWORD PTR __imp__memicmp
	test	eax, eax
	je	SHORT $LN102@ForInitAnd
	mov	r8d, 4
	lea	rdx, OFFSET FLAT:$SG11522
	lea	rcx, QWORD PTR init$[rsp]
	call	QWORD PTR __imp__memicmp
	test	eax, eax
	je	SHORT $LN102@ForInitAnd
	mov	r8d, 8
	lea	rdx, OFFSET FLAT:$SG11523
	lea	rcx, QWORD PTR init$[rsp]
	call	QWORD PTR __imp__memicmp
	test	eax, eax
	jne	SHORT $LN100@ForInitAnd
$LN102@ForInitAnd:

; 1097 :             (0 == _memicmp(init, "WORD PTR", 8)))                     //reax=WORD PTR ax 
; 1098 : 
; 1099 :             WriteAsmLine(" movzx  ", param, init);                      //movzx reax,ax					    

	lea	r8, QWORD PTR init$[rsp]
	lea	rdx, QWORD PTR param$[rsp]
	lea	rcx, OFFSET FLAT:$SG11524
	call	WriteAsmLine
	jmp	SHORT $LN101@ForInitAnd
$LN100@ForInitAnd:

; 1100 :           else if (0 == _memicmp(init, "ADDR", 4))

	mov	r8d, 4
	lea	rdx, OFFSET FLAT:$SG11527
	lea	rcx, QWORD PTR init$[rsp]
	call	QWORD PTR __imp__memicmp
	test	eax, eax
	jne	SHORT $LN103@ForInitAnd

; 1101 :             WriteAsmLine(" lea  ", param, init + 5);

	lea	rax, QWORD PTR init$[rsp+5]
	mov	r8, rax
	lea	rdx, QWORD PTR param$[rsp]
	lea	rcx, OFFSET FLAT:$SG11528
	call	WriteAsmLine
	jmp	SHORT $LN104@ForInitAnd
$LN103@ForInitAnd:

; 1102 :           else WriteAsmLine(" mov  ", param, init);

	lea	r8, QWORD PTR init$[rsp]
	lea	rdx, QWORD PTR param$[rsp]
	lea	rcx, OFFSET FLAT:$SG11529
	call	WriteAsmLine
$LN104@ForInitAnd:
$LN101@ForInitAnd:

; 1103 :         }

	jmp	$LN98@ForInitAnd
$LN97@ForInitAnd:

; 1104 :         else if ((strlen(op) == 1) && ((init[6] == ' ') || (init[6] == '\t'))){

	lea	rcx, QWORD PTR op$[rsp]
	call	strlen
	cmp	rax, 1
	jne	$LN105@ForInitAnd
	mov	eax, 1
	imul	rax, rax, 6
	movsx	eax, BYTE PTR init$[rsp+rax]
	cmp	eax, 32					; 00000020H
	je	SHORT $LN107@ForInitAnd
	mov	eax, 1
	imul	rax, rax, 6
	movsx	eax, BYTE PTR init$[rsp+rax]
	cmp	eax, 9
	jne	SHORT $LN105@ForInitAnd
$LN107@ForInitAnd:

; 1105 :           if (0 == _memicmp(init, "OFFSET", 6))

	mov	r8d, 6
	lea	rdx, OFFSET FLAT:$SG11535
	lea	rcx, QWORD PTR init$[rsp]
	call	QWORD PTR __imp__memicmp
	test	eax, eax
	jne	SHORT $LN108@ForInitAnd

; 1106 :             WriteAsmLine(" lea  ", param, init + 7);

	lea	rax, QWORD PTR init$[rsp+7]
	mov	r8, rax
	lea	rdx, QWORD PTR param$[rsp]
	lea	rcx, OFFSET FLAT:$SG11536
	call	WriteAsmLine
	jmp	SHORT $LN109@ForInitAnd
$LN108@ForInitAnd:

; 1107 :           else WriteAsmLine(" mov  ", param, init);

	lea	r8, QWORD PTR init$[rsp]
	lea	rdx, QWORD PTR param$[rsp]
	lea	rcx, OFFSET FLAT:$SG11537
	call	WriteAsmLine
$LN109@ForInitAnd:

; 1108 :         }

	jmp	$LN106@ForInitAnd
$LN105@ForInitAnd:

; 1109 :         else if ((strlen(op) == 1) && ((init[5] == ' ') || (init[5] == '\t'))){            //op is '='

	lea	rcx, QWORD PTR op$[rsp]
	call	strlen
	cmp	rax, 1
	jne	$LN110@ForInitAnd
	mov	eax, 1
	imul	rax, rax, 5
	movsx	eax, BYTE PTR init$[rsp+rax]
	cmp	eax, 32					; 00000020H
	je	SHORT $LN112@ForInitAnd
	mov	eax, 1
	imul	rax, rax, 5
	movsx	eax, BYTE PTR init$[rsp+rax]
	cmp	eax, 9
	jne	$LN110@ForInitAnd
$LN112@ForInitAnd:

; 1110 :           if ((0 == _memicmp(init, "DWORD PTR", 9) || 0 == _memicmp(init, "DPTR", 4)

	mov	r8d, 9
	lea	rdx, OFFSET FLAT:$SG11544
	lea	rcx, QWORD PTR init$[rsp]
	call	QWORD PTR __imp__memicmp
	test	eax, eax
	je	SHORT $LN115@ForInitAnd
	mov	r8d, 4
	lea	rdx, OFFSET FLAT:$SG11545
	lea	rcx, QWORD PTR init$[rsp]
	call	QWORD PTR __imp__memicmp
	test	eax, eax
	jne	SHORT $LN113@ForInitAnd
	mov	eax, 1
	imul	rax, rax, 0
	movsx	eax, BYTE PTR param$[rsp+rax]
	cmp	eax, 114				; 00000072H
	je	SHORT $LN116@ForInitAnd
	mov	eax, 1
	imul	rax, rax, 0
	movsx	eax, BYTE PTR param$[rsp+rax]
	cmp	eax, 82					; 00000052H
	jne	SHORT $LN113@ForInitAnd
$LN116@ForInitAnd:
$LN115@ForInitAnd:

; 1111 :             && (param[0] == 'r' || param[0] == 'R'))) 							   //rax=DWORD PTR eax
; 1112 :             WriteAsmLine(" movsxd  ", param, init);								     //movsxd rax,eax

	lea	r8, QWORD PTR init$[rsp]
	lea	rdx, QWORD PTR param$[rsp]
	lea	rcx, OFFSET FLAT:$SG11547
	call	WriteAsmLine
	jmp	SHORT $LN114@ForInitAnd
$LN113@ForInitAnd:

; 1113 :           else WriteAsmLine(" mov  ", param, init);

	lea	r8, QWORD PTR init$[rsp]
	lea	rdx, QWORD PTR param$[rsp]
	lea	rcx, OFFSET FLAT:$SG11548
	call	WriteAsmLine
$LN114@ForInitAnd:

; 1114 :         }

	jmp	$LN111@ForInitAnd
$LN110@ForInitAnd:

; 1115 :         else if ((strlen(op) == 1) && brct){											    //op is '='

	lea	rcx, QWORD PTR op$[rsp]
	call	strlen
	cmp	rax, 1
	jne	$LN117@ForInitAnd
	movzx	eax, BYTE PTR brct$[rsp]
	test	eax, eax
	je	$LN117@ForInitAnd

; 1116 :           for (j = strlen(init); j; j--){

	lea	rcx, QWORD PTR init$[rsp]
	call	strlen
	mov	DWORD PTR j$[rsp], eax
	jmp	SHORT $LN15@ForInitAnd
$LN13@ForInitAnd:
	mov	eax, DWORD PTR j$[rsp]
	dec	eax
	mov	DWORD PTR j$[rsp], eax
$LN15@ForInitAnd:
	cmp	DWORD PTR j$[rsp], 0
	je	$LN14@ForInitAnd

; 1117 :             if (init[j] == ')') init[j] = NULLC;

	movsxd	rax, DWORD PTR j$[rsp]
	movsx	eax, BYTE PTR init$[rsp+rax]
	cmp	eax, 41					; 00000029H
	jne	SHORT $LN119@ForInitAnd
	movsxd	rax, DWORD PTR j$[rsp]
	mov	QWORD PTR $T13[rsp], rax
	cmp	QWORD PTR $T13[rsp], 256		; 00000100H
	jae	SHORT $LN140@ForInitAnd
	jmp	SHORT $LN141@ForInitAnd
$LN140@ForInitAnd:
	call	__report_rangecheckfailure
$LN141@ForInitAnd:
	mov	rax, QWORD PTR $T13[rsp]
	mov	BYTE PTR init$[rsp+rax], 0
$LN119@ForInitAnd:

; 1118 :             if (init[j] == '('){

	movsxd	rax, DWORD PTR j$[rsp]
	movsx	eax, BYTE PTR init$[rsp+rax]
	cmp	eax, 40					; 00000028H
	jne	$LN120@ForInitAnd

; 1119 :               for (p = init, p += j; *p; p++){

	lea	rax, QWORD PTR init$[rsp]
	mov	QWORD PTR p$[rsp], rax
	movsxd	rax, DWORD PTR j$[rsp]
	mov	rcx, QWORD PTR p$[rsp]
	add	rcx, rax
	mov	rax, rcx
	mov	QWORD PTR p$[rsp], rax
	jmp	SHORT $LN18@ForInitAnd
$LN16@ForInitAnd:
	mov	rax, QWORD PTR p$[rsp]
	inc	rax
	mov	QWORD PTR p$[rsp], rax
$LN18@ForInitAnd:
	mov	rax, QWORD PTR p$[rsp]
	movsx	eax, BYTE PTR [rax]
	test	eax, eax
	je	SHORT $LN17@ForInitAnd

; 1120 :                 if (*p == ',' && cnt) --cnt;

	mov	rax, QWORD PTR p$[rsp]
	movsx	eax, BYTE PTR [rax]
	cmp	eax, 44					; 0000002cH
	jne	SHORT $LN121@ForInitAnd
	cmp	DWORD PTR cnt$[rsp], 0
	je	SHORT $LN121@ForInitAnd
	mov	eax, DWORD PTR cnt$[rsp]
	dec	eax
	mov	DWORD PTR cnt$[rsp], eax
$LN121@ForInitAnd:

; 1121 :               }

	jmp	SHORT $LN16@ForInitAnd
$LN17@ForInitAnd:

; 1122 :               init[j] = ',';

	movsxd	rax, DWORD PTR j$[rsp]
	mov	BYTE PTR init$[rsp+rax], 44		; 0000002cH
$LN120@ForInitAnd:

; 1123 :             }
; 1124 :           }

	jmp	$LN13@ForInitAnd
$LN14@ForInitAnd:

; 1125 :           strcpy(codebuff, " invoke  ");

	lea	rdx, OFFSET FLAT:$SG11554
	lea	rcx, QWORD PTR codebuff$[rsp]
	call	strcpy

; 1126 :           strcat(codebuff, init);

	lea	rdx, QWORD PTR init$[rsp]
	lea	rcx, QWORD PTR codebuff$[rsp]
	call	strcat

; 1127 :           AddLineQueue(codebuff);

	lea	rcx, QWORD PTR codebuff$[rsp]
	call	AddLineQueue

; 1128 :           WriteAsmLine(" mov  ", param, reax);

	lea	r8, OFFSET FLAT:reax
	lea	rdx, QWORD PTR param$[rsp]
	lea	rcx, OFFSET FLAT:$SG11555
	call	WriteAsmLine

; 1129 :           brct = FALSE;

	mov	BYTE PTR brct$[rsp], 0

; 1130 :         }

	jmp	SHORT $LN118@ForInitAnd
$LN117@ForInitAnd:

; 1131 :         else {
; 1132 :           if (strlen(op) == 1)

	lea	rcx, QWORD PTR op$[rsp]
	call	strlen
	cmp	rax, 1
	jne	SHORT $LN122@ForInitAnd

; 1133 :             WriteAsmLine(" mov  ", param, init);

	lea	r8, QWORD PTR init$[rsp]
	lea	rdx, QWORD PTR param$[rsp]
	lea	rcx, OFFSET FLAT:$SG11558
	call	WriteAsmLine
	jmp	SHORT $LN123@ForInitAnd
$LN122@ForInitAnd:

; 1134 :           else
; 1135 :             WriteAsmLine(codebuff, param, init);

	lea	r8, QWORD PTR init$[rsp]
	lea	rdx, QWORD PTR param$[rsp]
	lea	rcx, QWORD PTR codebuff$[rsp]
	call	WriteAsmLine
$LN123@ForInitAnd:
$LN118@ForInitAnd:
$LN111@ForInitAnd:
$LN106@ForInitAnd:
$LN98@ForInitAnd:
$LN96@ForInitAnd:

; 1136 :         }
; 1137 :       }

	jmp	SHORT $LN94@ForInitAnd
$LN93@ForInitAnd:

; 1138 :       else
; 1139 :       {
; 1140 :         if (init[0] == 39 && init[2] == 39)

	mov	eax, 1
	imul	rax, rax, 0
	movsx	eax, BYTE PTR init$[rsp+rax]
	cmp	eax, 39					; 00000027H
	jne	SHORT $LN124@ForInitAnd
	mov	eax, 1
	imul	rax, rax, 2
	movsx	eax, BYTE PTR init$[rsp+rax]
	cmp	eax, 39					; 00000027H
	jne	SHORT $LN124@ForInitAnd

; 1141 :           WriteAsmLine(" mov  byte ptr ", param, init);

	lea	r8, QWORD PTR init$[rsp]
	lea	rdx, QWORD PTR param$[rsp]
	lea	rcx, OFFSET FLAT:$SG11561
	call	WriteAsmLine
	jmp	SHORT $LN125@ForInitAnd
$LN124@ForInitAnd:

; 1142 :         else {
; 1143 :           WriteAsmLine(" mov  ", reax, init);

	lea	r8, QWORD PTR init$[rsp]
	lea	rdx, OFFSET FLAT:reax
	lea	rcx, OFFSET FLAT:$SG11562
	call	WriteAsmLine

; 1144 :           WriteAsmLine(codebuff, param, reax);

	lea	r8, OFFSET FLAT:reax
	lea	rdx, QWORD PTR param$[rsp]
	lea	rcx, QWORD PTR codebuff$[rsp]
	call	WriteAsmLine
$LN125@ForInitAnd:
$LN94@ForInitAnd:
$LN22@ForInitAnd:
$skip$143:

; 1145 :         }
; 1146 :       }
; 1147 :     }
; 1148 :   skip:
; 1149 :     if (cnt) cnt--;

	cmp	DWORD PTR cnt$[rsp], 0
	je	SHORT $LN126@ForInitAnd
	mov	eax, DWORD PTR cnt$[rsp]
	dec	eax
	mov	DWORD PTR cnt$[rsp], eax
$LN126@ForInitAnd:

; 1150 :   } while (cnt);

	cmp	DWORD PTR cnt$[rsp], 0
	jne	$LN4@ForInitAnd

; 1151 :   return(NOT_ERROR);

	xor	eax, eax
$LN127@ForInitAnd:

; 1152 : }

	mov	rdi, rax
	mov	rcx, rsp
	lea	rdx, OFFSET FLAT:ForInitAndNext$rtcFrameData
	call	_RTC_CheckStackVars
	mov	rax, rdi
	mov	rcx, QWORD PTR __$ArrayPad$[rsp]
	xor	rcx, rsp
	call	__security_check_cookie
	add	rsp, 1024				; 00000400H
	pop	rdi
	ret	0
ForInitAndNext ENDP
_TEXT	ENDS
; Function compile flags: /Odtp /RTCsu
; File d:\hjwasm\hjwasm2.13.1s\hjwasm2.13.1s\hll.c
_TEXT	SEGMENT
codebuff$ = 48
__$ArrayPad$ = 320
cmd$ = 352
s1$ = 360
s2$ = 368
WriteAsmLine PROC

; 898  : static void WriteAsmLine(const char *cmd, const char *s1, const char *s2){

	mov	QWORD PTR [rsp+24], r8
	mov	QWORD PTR [rsp+16], rdx
	mov	QWORD PTR [rsp+8], rcx
	push	rdi
	sub	rsp, 336				; 00000150H
	mov	rdi, rsp
	mov	ecx, 84					; 00000054H
	mov	eax, -858993460				; ccccccccH
	rep stosd
	mov	rcx, QWORD PTR [rsp+352]
	mov	rax, QWORD PTR __security_cookie
	xor	rax, rsp
	mov	QWORD PTR __$ArrayPad$[rsp], rax

; 899  :   char codebuff[256];
; 900  :   strcpy(codebuff, cmd);

	mov	rdx, QWORD PTR cmd$[rsp]
	lea	rcx, QWORD PTR codebuff$[rsp]
	call	strcpy

; 901  :   strcat(codebuff, s1);

	mov	rdx, QWORD PTR s1$[rsp]
	lea	rcx, QWORD PTR codebuff$[rsp]
	call	strcat

; 902  :   strcat(codebuff, ", ");

	lea	rdx, OFFSET FLAT:$SG11353
	lea	rcx, QWORD PTR codebuff$[rsp]
	call	strcat

; 903  :   strcat(codebuff, s2);

	mov	rdx, QWORD PTR s2$[rsp]
	lea	rcx, QWORD PTR codebuff$[rsp]
	call	strcat

; 904  :   AddLineQueue(codebuff);				// MOV RAX,param

	lea	rcx, QWORD PTR codebuff$[rsp]
	call	AddLineQueue

; 905  :   return;
; 906  : }

	mov	rcx, rsp
	lea	rdx, OFFSET FLAT:WriteAsmLine$rtcFrameData
	call	_RTC_CheckStackVars
	mov	rcx, QWORD PTR __$ArrayPad$[rsp]
	xor	rcx, rsp
	call	__security_check_cookie
	add	rsp, 336				; 00000150H
	pop	rdi
	ret	0
WriteAsmLine ENDP
_TEXT	ENDS
; Function compile flags: /Odtp /RTCsu
; File d:\hjwasm\hjwasm2.13.1s\hjwasm2.13.1s\hll.c
_TEXT	SEGMENT
lines$ = 32
i$ = 36
addchars$ = 40
px$ = 48
NL$ = 56
p$ = 80
CheckCXZLines PROC

; 836  : {

	mov	QWORD PTR [rsp+8], rcx
	push	rdi
	sub	rsp, 64					; 00000040H
	mov	rdi, rsp
	mov	ecx, 16
	mov	eax, -858993460				; ccccccccH
	rep stosd
	mov	rcx, QWORD PTR [rsp+80]

; 837  :   int lines = 0;

	mov	DWORD PTR lines$[rsp], 0

; 838  :   int i;
; 839  :   int addchars;
; 840  :   char *px;
; 841  :   bool NL = TRUE;

	mov	BYTE PTR NL$[rsp], 1

; 842  : 
; 843  :   DebugMsg1(("CheckCXZLines enter, p=>%s<\n", p));

	mov	rdx, QWORD PTR p$[rsp]
	lea	rcx, OFFSET FLAT:$SG11328
	call	DoDebugMsg1

; 844  :   /* syntax ".untilcxz 1" has a problem: there's no "jmp" generated at all.
; 845  :   * if this syntax is to be supported, activate the #if below.
; 846  :   */
; 847  :   for (; *p; p++) {

	jmp	SHORT $LN4@CheckCXZLi
$LN2@CheckCXZLi:
	mov	rax, QWORD PTR p$[rsp]
	inc	rax
	mov	QWORD PTR p$[rsp], rax
$LN4@CheckCXZLi:
	mov	rax, QWORD PTR p$[rsp]
	movsx	eax, BYTE PTR [rax]
	test	eax, eax
	je	$LN3@CheckCXZLi

; 848  :     if (*p == EOLCHAR) {

	mov	rax, QWORD PTR p$[rsp]
	movsx	eax, BYTE PTR [rax]
	cmp	eax, 94					; 0000005eH
	jne	SHORT $LN8@CheckCXZLi

; 849  :       NL = TRUE;

	mov	BYTE PTR NL$[rsp], 1

; 850  :       lines++;

	mov	eax, DWORD PTR lines$[rsp]
	inc	eax
	mov	DWORD PTR lines$[rsp], eax

; 851  :     }

	jmp	$LN9@CheckCXZLi
$LN8@CheckCXZLi:

; 852  :     else if (NL) {

	movzx	eax, BYTE PTR NL$[rsp]
	test	eax, eax
	je	$LN10@CheckCXZLi

; 853  :       NL = FALSE;

	mov	BYTE PTR NL$[rsp], 0

; 854  :       if (*p == 'j') {

	mov	rax, QWORD PTR p$[rsp]
	movsx	eax, BYTE PTR [rax]
	cmp	eax, 106				; 0000006aH
	jne	$LN11@CheckCXZLi

; 855  :         p++;

	mov	rax, QWORD PTR p$[rsp]
	inc	rax
	mov	QWORD PTR p$[rsp], rax

; 856  :         /* v2.06: rewritten */
; 857  :         if (*p == 'm' && lines == 0) {

	mov	rax, QWORD PTR p$[rsp]
	movsx	eax, BYTE PTR [rax]
	cmp	eax, 109				; 0000006dH
	jne	SHORT $LN12@CheckCXZLi
	cmp	DWORD PTR lines$[rsp], 0
	jne	SHORT $LN12@CheckCXZLi

; 858  :           addchars = 2; /* make room for 2 chars, to replace "jmp" by "loope" */

	mov	DWORD PTR addchars$[rsp], 2

; 859  :           px = "loope";

	lea	rax, OFFSET FLAT:$SG11335
	mov	QWORD PTR px$[rsp], rax

; 860  :         }

	jmp	SHORT $LN13@CheckCXZLi
$LN12@CheckCXZLi:

; 861  :         else if (lines == 1 && (*p == 'z' || (*p == 'n' && *(p + 1) == 'z'))) {

	cmp	DWORD PTR lines$[rsp], 1
	jne	SHORT $LN14@CheckCXZLi
	mov	rax, QWORD PTR p$[rsp]
	movsx	eax, BYTE PTR [rax]
	cmp	eax, 122				; 0000007aH
	je	SHORT $LN16@CheckCXZLi
	mov	rax, QWORD PTR p$[rsp]
	movsx	eax, BYTE PTR [rax]
	cmp	eax, 110				; 0000006eH
	jne	SHORT $LN14@CheckCXZLi
	mov	rax, QWORD PTR p$[rsp]
	movsx	eax, BYTE PTR [rax+1]
	cmp	eax, 122				; 0000007aH
	jne	SHORT $LN14@CheckCXZLi
$LN16@CheckCXZLi:

; 862  :           addchars = 3; /* make room for 3 chars, to replace "jz"/"jnz" by "loopz"/"loopnz" */

	mov	DWORD PTR addchars$[rsp], 3

; 863  :           px = "loop";

	lea	rax, OFFSET FLAT:$SG11339
	mov	QWORD PTR px$[rsp], rax

; 864  :         }

	jmp	SHORT $LN15@CheckCXZLi
$LN14@CheckCXZLi:

; 865  :         else
; 866  :           return(ERROR); /* anything else is "too complex" */

	mov	eax, -1
	jmp	$LN1@CheckCXZLi
$LN15@CheckCXZLi:
$LN13@CheckCXZLi:

; 867  :         //replace_instr:
; 868  :         for (p--, i = strlen(p); i >= 0; i--) {

	mov	rax, QWORD PTR p$[rsp]
	dec	rax
	mov	QWORD PTR p$[rsp], rax
	mov	rcx, QWORD PTR p$[rsp]
	call	strlen
	mov	DWORD PTR i$[rsp], eax
	jmp	SHORT $LN7@CheckCXZLi
$LN5@CheckCXZLi:
	mov	eax, DWORD PTR i$[rsp]
	dec	eax
	mov	DWORD PTR i$[rsp], eax
$LN7@CheckCXZLi:
	cmp	DWORD PTR i$[rsp], 0
	jl	SHORT $LN6@CheckCXZLi

; 869  :           *(p + addchars + i) = *(p + i);

	movsxd	rax, DWORD PTR i$[rsp]
	movsxd	rcx, DWORD PTR addchars$[rsp]
	mov	rdx, QWORD PTR p$[rsp]
	add	rdx, rcx
	mov	rcx, rdx
	movsxd	rdx, DWORD PTR i$[rsp]
	mov	r8, QWORD PTR p$[rsp]
	movzx	eax, BYTE PTR [r8+rax]
	mov	BYTE PTR [rcx+rdx], al

; 870  :         }

	jmp	SHORT $LN5@CheckCXZLi
$LN6@CheckCXZLi:

; 871  :         memcpy(p, px, strlen(px));

	mov	rcx, QWORD PTR px$[rsp]
	call	strlen
	mov	r8, rax
	mov	rdx, QWORD PTR px$[rsp]
	mov	rcx, QWORD PTR p$[rsp]
	call	memcpy
$LN11@CheckCXZLi:
$LN10@CheckCXZLi:
$LN9@CheckCXZLi:

; 872  :       }
; 873  : #if 0 /* handle ".untilcxz 1" like masm does */
; 874  :       else if (*p == ' ' && *(p + 1) == EOLCHAR && lines == 0) {
; 875  :         p++;
; 876  :         GetLabelStr(hll->labels[LSTART], p);
; 877  :         strcat(p, EOLSTR);
; 878  :         addchars = 5;
; 879  :         px = "loope";
; 880  :         goto replace_instr;
; 881  :       }
; 882  : #endif
; 883  :     }
; 884  :   }

	jmp	$LN2@CheckCXZLi
$LN3@CheckCXZLi:

; 885  :   if (lines > 2)

	cmp	DWORD PTR lines$[rsp], 2
	jle	SHORT $LN17@CheckCXZLi

; 886  :     return(ERROR);

	mov	eax, -1
	jmp	SHORT $LN1@CheckCXZLi
$LN17@CheckCXZLi:

; 887  :   return(NOT_ERROR);

	xor	eax, eax
$LN1@CheckCXZLi:

; 888  : }

	add	rsp, 64					; 00000040H
	pop	rdi
	ret	0
CheckCXZLines ENDP
_TEXT	ENDS
; Function compile flags: /Odtp /RTCsu
; File d:\hjwasm\hjwasm2.13.1s\hjwasm2.13.1s\hll.c
_TEXT	SEGMENT
hllop$ = 72
hll$ = 128
i$ = 136
tokenarray$ = 144
ilabel$ = 152
is_true$ = 160
buffer$ = 168
EvaluateHllExpression PROC

; 811  : {

	mov	DWORD PTR [rsp+32], r9d
	mov	QWORD PTR [rsp+24], r8
	mov	QWORD PTR [rsp+16], rdx
	mov	QWORD PTR [rsp+8], rcx
	push	rdi
	sub	rsp, 112				; 00000070H
	mov	rdi, rsp
	mov	ecx, 28
	mov	eax, -858993460				; ccccccccH
	rep stosd
	mov	rcx, QWORD PTR [rsp+128]

; 812  :   struct hll_opnd hllop = { NULL, 0 };

	mov	QWORD PTR hllop$[rsp], 0
	mov	DWORD PTR hllop$[rsp+8], 0

; 813  : 
; 814  :   DebugMsg1(("EvaluateHllExpression enter\n"));

	lea	rcx, OFFSET FLAT:$SG11309
	call	DoDebugMsg1

; 815  : 
; 816  :   *buffer = NULLC;

	mov	rax, QWORD PTR buffer$[rsp]
	mov	BYTE PTR [rax], 0

; 817  :   if (ERROR == GetExpression(hll, i, tokenarray, ilabel, is_true, buffer, &hllop))

	lea	rax, QWORD PTR hllop$[rsp]
	mov	QWORD PTR [rsp+48], rax
	mov	rax, QWORD PTR buffer$[rsp]
	mov	QWORD PTR [rsp+40], rax
	movzx	eax, BYTE PTR is_true$[rsp]
	mov	BYTE PTR [rsp+32], al
	mov	r9d, DWORD PTR ilabel$[rsp]
	mov	r8, QWORD PTR tokenarray$[rsp]
	mov	rdx, QWORD PTR i$[rsp]
	mov	rcx, QWORD PTR hll$[rsp]
	call	GetExpression
	cmp	eax, -1
	jne	SHORT $LN2@EvaluateHl

; 818  :     return(ERROR);

	mov	eax, -1
	jmp	SHORT $LN1@EvaluateHl
$LN2@EvaluateHl:

; 819  :   /* v2.11: changed */
; 820  :   //if ( *buffer == EOLCHAR ) {
; 821  :   //DebugMsg(( "EvaluateHllExpression: EOL at pos 0 in line buffer\n" ));
; 822  :   if (tokenarray[*i].token != T_FINAL) {

	mov	rax, QWORD PTR i$[rsp]
	movsxd	rax, DWORD PTR [rax]
	imul	rax, rax, 32				; 00000020H
	mov	rcx, QWORD PTR tokenarray$[rsp]
	movzx	eax, BYTE PTR [rcx+rax]
	test	eax, eax
	je	SHORT $LN3@EvaluateHl

; 823  :     DebugMsg(("EvaluateHllExpression: unexpected tokens >%s<\n", tokenarray[*i].tokpos));

	mov	rax, QWORD PTR i$[rsp]
	movsxd	rax, DWORD PTR [rax]
	imul	rax, rax, 32				; 00000020H
	mov	rcx, QWORD PTR tokenarray$[rsp]
	mov	rdx, QWORD PTR [rcx+rax+24]
	lea	rcx, OFFSET FLAT:$SG11312
	call	DoDebugMsg

; 824  :     return(EmitError(SYNTAX_ERROR_IN_CONTROL_FLOW_DIRECTIVE));

	mov	ecx, 199				; 000000c7H
	call	EmitError
	jmp	SHORT $LN1@EvaluateHl
$LN3@EvaluateHl:

; 825  :   }
; 826  :   return(NOT_ERROR);

	xor	eax, eax
$LN1@EvaluateHl:

; 827  : }

	mov	rdi, rax
	mov	rcx, rsp
	lea	rdx, OFFSET FLAT:EvaluateHllExpression$rtcFrameData
	call	_RTC_CheckStackVars
	mov	rax, rdi
	add	rsp, 112				; 00000070H
	pop	rdi
	ret	0
EvaluateHllExpression ENDP
_TEXT	ENDS
; Function compile flags: /Odtp /RTCsu
; File d:\hjwasm\hjwasm2.13.1s\hjwasm2.13.1s\hll.c
_TEXT	SEGMENT
start$ = 32
tv65 = 40
src$ = 64
QueueTestLines PROC

; 774  : {

	mov	QWORD PTR [rsp+8], rcx
	push	rdi
	sub	rsp, 48					; 00000030H
	mov	rdi, rsp
	mov	ecx, 12
	mov	eax, -858993460				; ccccccccH
	rep stosd
	mov	rcx, QWORD PTR [rsp+64]

; 775  :   char *start;
; 776  : 
; 777  :   DebugMsg1(("QueueTestLines(\"%s\") enter\n", src ? src : "NULL"));

	cmp	QWORD PTR src$[rsp], 0
	je	SHORT $LN7@QueueTestL
	mov	rax, QWORD PTR src$[rsp]
	mov	QWORD PTR tv65[rsp], rax
	jmp	SHORT $LN8@QueueTestL
$LN7@QueueTestL:
	lea	rax, OFFSET FLAT:$SG11288
	mov	QWORD PTR tv65[rsp], rax
$LN8@QueueTestL:
	mov	rdx, QWORD PTR tv65[rsp]
	lea	rcx, OFFSET FLAT:$SG11289
	call	DoDebugMsg1
$LN2@QueueTestL:

; 778  :   while (src) {

	cmp	QWORD PTR src$[rsp], 0
	je	SHORT $LN3@QueueTestL

; 779  :     //if (*src == ' ') src++; /* v2.11: obsolete */
; 780  :     start = src;

	mov	rax, QWORD PTR src$[rsp]
	mov	QWORD PTR start$[rsp], rax

; 781  :     if (src = strchr(src, EOLCHAR))

	mov	edx, 94					; 0000005eH
	mov	rcx, QWORD PTR src$[rsp]
	call	QWORD PTR __imp_strchr
	mov	QWORD PTR src$[rsp], rax
	cmp	QWORD PTR src$[rsp], 0
	je	SHORT $LN4@QueueTestL

; 782  :       *src++ = NULLC;

	mov	rax, QWORD PTR src$[rsp]
	mov	BYTE PTR [rax], 0
	mov	rax, QWORD PTR src$[rsp]
	inc	rax
	mov	QWORD PTR src$[rsp], rax
$LN4@QueueTestL:

; 783  :     if (*start)

	mov	rax, QWORD PTR start$[rsp]
	movsx	eax, BYTE PTR [rax]
	test	eax, eax
	je	SHORT $LN5@QueueTestL

; 784  :       AddLineQueue(start);

	mov	rcx, QWORD PTR start$[rsp]
	call	AddLineQueue
$LN5@QueueTestL:

; 785  :   }

	jmp	SHORT $LN2@QueueTestL
$LN3@QueueTestL:

; 786  : 
; 787  :   DebugMsg1(("QueueTestLines exit\n"));

	lea	rcx, OFFSET FLAT:$SG11292
	call	DoDebugMsg1

; 788  :   return(NOT_ERROR);

	xor	eax, eax

; 789  : }

	add	rsp, 48					; 00000030H
	pop	rdi
	ret	0
QueueTestLines ENDP
_TEXT	ENDS
; Function compile flags: /Odtp /RTCsu
; File d:\hjwasm\hjwasm2.13.1s\hjwasm2.13.1s\hll.c
_TEXT	SEGMENT
ptr$ = 64
truelabel$ = 72
p$1 = 80
tv91 = 88
hll$ = 112
i$ = 120
tokenarray$ = 128
ilabel$ = 136
is_true$ = 144
buffer$ = 152
hllop$ = 160
GetAndExpression PROC

; 622  : {

	mov	DWORD PTR [rsp+32], r9d
	mov	QWORD PTR [rsp+24], r8
	mov	QWORD PTR [rsp+16], rdx
	mov	QWORD PTR [rsp+8], rcx
	push	rdi
	sub	rsp, 96					; 00000060H
	mov	rdi, rsp
	mov	ecx, 24
	mov	eax, -858993460				; ccccccccH
	rep stosd
	mov	rcx, QWORD PTR [rsp+112]

; 623  :   char *ptr = buffer;

	mov	rax, QWORD PTR buffer$[rsp]
	mov	QWORD PTR ptr$[rsp], rax

; 624  :   uint_32 truelabel = 0;

	mov	DWORD PTR truelabel$[rsp], 0

; 625  :   //char buff[16];
; 626  :   //char *nlabel;
; 627  :   //char *olabel;
; 628  : 
; 629  :   DebugMsg1(("%u GetAndExpression(>%.32s< buf=>%s<) enter\n", evallvl, tokenarray[*i].tokpos, buffer));

	mov	rax, QWORD PTR i$[rsp]
	movsxd	rax, DWORD PTR [rax]
	imul	rax, rax, 32				; 00000020H
	mov	r9, QWORD PTR buffer$[rsp]
	mov	rcx, QWORD PTR tokenarray$[rsp]
	mov	r8, QWORD PTR [rcx+rax+24]
	mov	edx, DWORD PTR evallvl
	lea	rcx, OFFSET FLAT:$SG11218
	call	DoDebugMsg1

; 630  : 
; 631  :   if (ERROR == GetSimpleExpression(hll, i, tokenarray, ilabel, is_true, ptr, hllop))

	mov	rax, QWORD PTR hllop$[rsp]
	mov	QWORD PTR [rsp+48], rax
	mov	rax, QWORD PTR ptr$[rsp]
	mov	QWORD PTR [rsp+40], rax
	movzx	eax, BYTE PTR is_true$[rsp]
	mov	BYTE PTR [rsp+32], al
	mov	r9d, DWORD PTR ilabel$[rsp]
	mov	r8, QWORD PTR tokenarray$[rsp]
	mov	rdx, QWORD PTR i$[rsp]
	mov	rcx, QWORD PTR hll$[rsp]
	call	GetSimpleExpression
	cmp	eax, -1
	jne	SHORT $LN4@GetAndExpr

; 632  :     return(ERROR);

	mov	eax, -1
	jmp	$LN1@GetAndExpr
$LN4@GetAndExpr:
$LN2@GetAndExpr:

; 633  :   while (COP_AND == GetCOp(&tokenarray[*i])) {

	mov	rax, QWORD PTR i$[rsp]
	movsxd	rax, DWORD PTR [rax]
	imul	rax, rax, 32				; 00000020H
	mov	rcx, QWORD PTR tokenarray$[rsp]
	add	rcx, rax
	mov	rax, rcx
	mov	rcx, rax
	call	GetCOp
	cmp	eax, 7
	jne	$LN3@GetAndExpr

; 634  : 
; 635  :     (*i)++;

	mov	rax, QWORD PTR i$[rsp]
	mov	eax, DWORD PTR [rax]
	inc	eax
	mov	rcx, QWORD PTR i$[rsp]
	mov	DWORD PTR [rcx], eax

; 636  :     DebugMsg1(("%u GetAndExpression: &&-operator found, is_true=%u, lastjmp=%s\n", evallvl, is_true, hllop->lastjmp ? hllop->lastjmp : "NULL"));

	mov	rax, QWORD PTR hllop$[rsp]
	cmp	QWORD PTR [rax], 0
	je	SHORT $LN12@GetAndExpr
	mov	rax, QWORD PTR hllop$[rsp]
	mov	rax, QWORD PTR [rax]
	mov	QWORD PTR tv91[rsp], rax
	jmp	SHORT $LN13@GetAndExpr
$LN12@GetAndExpr:
	lea	rax, OFFSET FLAT:$SG11220
	mov	QWORD PTR tv91[rsp], rax
$LN13@GetAndExpr:
	movzx	eax, BYTE PTR is_true$[rsp]
	mov	r9, QWORD PTR tv91[rsp]
	mov	r8d, eax
	mov	edx, DWORD PTR evallvl
	lea	rcx, OFFSET FLAT:$SG11221
	call	DoDebugMsg1

; 637  : 
; 638  :     if (is_true) {

	movzx	eax, BYTE PTR is_true$[rsp]
	test	eax, eax
	je	$LN5@GetAndExpr

; 639  :       /* todo: please describe what's done here and why! */
; 640  :       if (hllop->lastjmp) {

	mov	rax, QWORD PTR hllop$[rsp]
	cmp	QWORD PTR [rax], 0
	je	$LN6@GetAndExpr

; 641  :         char *p = hllop->lastjmp;

	mov	rax, QWORD PTR hllop$[rsp]
	mov	rax, QWORD PTR [rax]
	mov	QWORD PTR p$1[rsp], rax

; 642  :         InvertJump(p);          /* step 1 */

	mov	rcx, QWORD PTR p$1[rsp]
	call	InvertJump

; 643  :         if (truelabel == 0)     /* step 2 */

	cmp	DWORD PTR truelabel$[rsp], 0
	jne	SHORT $LN7@GetAndExpr

; 644  :           truelabel = GetHllLabel();

	call	GetHllLabel
	mov	DWORD PTR truelabel$[rsp], eax
$LN7@GetAndExpr:

; 645  : 
; 646  : 		if (*p && strlen(p) < 11) {/* v2.11: there might be a 0 at lastjmp */

	mov	rax, QWORD PTR p$1[rsp]
	movsx	eax, BYTE PTR [rax]
	test	eax, eax
	je	SHORT $LN8@GetAndExpr
	mov	rcx, QWORD PTR p$1[rsp]
	call	strlen
	cmp	rax, 11
	jae	SHORT $LN8@GetAndExpr

; 647  :           p += 4;               /* skip 'jcc ' or 'jmp ' */

	mov	rax, QWORD PTR p$1[rsp]
	add	rax, 4
	mov	QWORD PTR p$1[rsp], rax

; 648  :           GetLabelStr(truelabel, p);

	mov	rdx, QWORD PTR p$1[rsp]
	mov	ecx, DWORD PTR truelabel$[rsp]
	call	GetLabelStr

; 649  :           strcat(p, EOLSTR);

	lea	rdx, OFFSET FLAT:$SG11226
	mov	rcx, QWORD PTR p$1[rsp]
	call	strcat
$LN8@GetAndExpr:

; 650  :         }
; 651  : 
; 652  :         DebugMsg1(("%u GetAndExpression: jmp inverted >%s<\n", evallvl, hllop->lastjmp));

	mov	rax, QWORD PTR hllop$[rsp]
	mov	r8, QWORD PTR [rax]
	mov	edx, DWORD PTR evallvl
	lea	rcx, OFFSET FLAT:$SG11227
	call	DoDebugMsg1

; 653  :         ReplaceLabel(buffer, GetLabel(hll, ilabel), truelabel);

	mov	edx, DWORD PTR ilabel$[rsp]
	mov	rcx, QWORD PTR hll$[rsp]
	call	GetLabel
	mov	r8d, DWORD PTR truelabel$[rsp]
	mov	edx, eax
	mov	rcx, QWORD PTR buffer$[rsp]
	call	ReplaceLabel

; 654  :         hllop->lastjmp = NULL;

	mov	rax, QWORD PTR hllop$[rsp]
	mov	QWORD PTR [rax], 0
$LN6@GetAndExpr:
$LN5@GetAndExpr:

; 655  :       }
; 656  :     }
; 657  :     ptr += strlen(ptr);

	mov	rcx, QWORD PTR ptr$[rsp]
	call	strlen
	mov	rcx, QWORD PTR ptr$[rsp]
	add	rcx, rax
	mov	rax, rcx
	mov	QWORD PTR ptr$[rsp], rax

; 658  :     hllop->lasttruelabel = 0; /* v2.08 */

	mov	rax, QWORD PTR hllop$[rsp]
	mov	DWORD PTR [rax+8], 0

; 659  :     if (ERROR == GetSimpleExpression(hll, i, tokenarray, ilabel, is_true, ptr, hllop))

	mov	rax, QWORD PTR hllop$[rsp]
	mov	QWORD PTR [rsp+48], rax
	mov	rax, QWORD PTR ptr$[rsp]
	mov	QWORD PTR [rsp+40], rax
	movzx	eax, BYTE PTR is_true$[rsp]
	mov	BYTE PTR [rsp+32], al
	mov	r9d, DWORD PTR ilabel$[rsp]
	mov	r8, QWORD PTR tokenarray$[rsp]
	mov	rdx, QWORD PTR i$[rsp]
	mov	rcx, QWORD PTR hll$[rsp]
	call	GetSimpleExpression
	cmp	eax, -1
	jne	SHORT $LN9@GetAndExpr

; 660  :       return(ERROR);

	mov	eax, -1
	jmp	SHORT $LN1@GetAndExpr
$LN9@GetAndExpr:

; 661  :   };

	jmp	$LN2@GetAndExpr
$LN3@GetAndExpr:

; 662  : 
; 663  :   if (truelabel > 0) {

	cmp	DWORD PTR truelabel$[rsp], 0
	jbe	SHORT $LN10@GetAndExpr

; 664  :     ptr += strlen(ptr);

	mov	rcx, QWORD PTR ptr$[rsp]
	call	strlen
	mov	rcx, QWORD PTR ptr$[rsp]
	add	rcx, rax
	mov	rax, rcx
	mov	QWORD PTR ptr$[rsp], rax

; 665  :     GetLabelStr(truelabel, ptr);

	mov	rdx, QWORD PTR ptr$[rsp]
	mov	ecx, DWORD PTR truelabel$[rsp]
	call	GetLabelStr

; 666  :     strcat(ptr, LABELQUAL EOLSTR);

	lea	rdx, OFFSET FLAT:$SG11230
	mov	rcx, QWORD PTR ptr$[rsp]
	call	strcat

; 667  :     DebugMsg1(("%u GetAndExpression: label added >%s<\n", evallvl, ptr));

	mov	r8, QWORD PTR ptr$[rsp]
	mov	edx, DWORD PTR evallvl
	lea	rcx, OFFSET FLAT:$SG11231
	call	DoDebugMsg1

; 668  :     hllop->lastjmp = NULL;

	mov	rax, QWORD PTR hllop$[rsp]
	mov	QWORD PTR [rax], 0
$LN10@GetAndExpr:

; 669  :   }
; 670  :   return(NOT_ERROR);

	xor	eax, eax
$LN1@GetAndExpr:

; 671  : }

	add	rsp, 96					; 00000060H
	pop	rdi
	ret	0
GetAndExpression ENDP
_TEXT	ENDS
; Function compile flags: /Odtp /RTCsu
; File d:\hjwasm\hjwasm2.13.1s\hjwasm2.13.1s\hll.c
_TEXT	SEGMENT
oldlbl$ = 56
newlbl$ = 104
i$ = 132
__$ArrayPad$ = 144
p$ = 176
olabel$ = 184
nlabel$ = 192
ReplaceLabel PROC

; 601  : {

	mov	DWORD PTR [rsp+24], r8d
	mov	DWORD PTR [rsp+16], edx
	mov	QWORD PTR [rsp+8], rcx
	push	rdi
	sub	rsp, 160				; 000000a0H
	mov	rdi, rsp
	mov	ecx, 40					; 00000028H
	mov	eax, -858993460				; ccccccccH
	rep stosd
	mov	rcx, QWORD PTR [rsp+176]
	mov	rax, QWORD PTR __security_cookie
	xor	rax, rsp
	mov	QWORD PTR __$ArrayPad$[rsp], rax

; 602  :   char oldlbl[16];
; 603  :   char newlbl[16];
; 604  :   int i;
; 605  : 
; 606  :   GetLabelStr(olabel, oldlbl);

	lea	rdx, QWORD PTR oldlbl$[rsp]
	mov	ecx, DWORD PTR olabel$[rsp]
	call	GetLabelStr

; 607  :   GetLabelStr(nlabel, newlbl);

	lea	rdx, QWORD PTR newlbl$[rsp]
	mov	ecx, DWORD PTR nlabel$[rsp]
	call	GetLabelStr

; 608  : 
; 609  :   i = strlen(newlbl);

	lea	rcx, QWORD PTR newlbl$[rsp]
	call	strlen
	mov	DWORD PTR i$[rsp], eax

; 610  : 
; 611  :   DebugMsg1(("%u ReplaceLabel(%s->%s, >%s<)\n", evallvl, oldlbl, newlbl, p));

	mov	rax, QWORD PTR p$[rsp]
	mov	QWORD PTR [rsp+32], rax
	lea	r9, QWORD PTR newlbl$[rsp]
	lea	r8, QWORD PTR oldlbl$[rsp]
	mov	edx, DWORD PTR evallvl
	lea	rcx, OFFSET FLAT:$SG11194
	call	DoDebugMsg1
$LN2@ReplaceLab:

; 612  :   while (p = strstr(p, oldlbl)) {

	lea	rdx, QWORD PTR oldlbl$[rsp]
	mov	rcx, QWORD PTR p$[rsp]
	call	QWORD PTR __imp_strstr
	mov	QWORD PTR p$[rsp], rax
	cmp	QWORD PTR p$[rsp], 0
	je	SHORT $LN3@ReplaceLab

; 613  :     memcpy(p, newlbl, i);

	movsxd	rax, DWORD PTR i$[rsp]
	mov	r8, rax
	lea	rdx, QWORD PTR newlbl$[rsp]
	mov	rcx, QWORD PTR p$[rsp]
	call	memcpy

; 614  :     p += i;

	movsxd	rax, DWORD PTR i$[rsp]
	mov	rcx, QWORD PTR p$[rsp]
	add	rcx, rax
	mov	rax, rcx
	mov	QWORD PTR p$[rsp], rax

; 615  :   }

	jmp	SHORT $LN2@ReplaceLab
$LN3@ReplaceLab:

; 616  : }

	mov	rcx, rsp
	lea	rdx, OFFSET FLAT:ReplaceLabel$rtcFrameData
	call	_RTC_CheckStackVars
	mov	rcx, QWORD PTR __$ArrayPad$[rsp]
	xor	rcx, rsp
	call	__security_check_cookie
	add	rsp, 160				; 000000a0H
	pop	rdi
	ret	0
ReplaceLabel ENDP
_TEXT	ENDS
; Function compile flags: /Odtp /RTCsu
; File d:\hjwasm\hjwasm2.13.1s\hjwasm2.13.1s\hll.c
_TEXT	SEGMENT
p$ = 48
InvertJump PROC

; 549  : {

	mov	QWORD PTR [rsp+8], rcx
	push	rdi
	sub	rsp, 32					; 00000020H
	mov	rdi, rsp
	mov	ecx, 8
	mov	eax, -858993460				; ccccccccH
	rep stosd
	mov	rcx, QWORD PTR [rsp+48]

; 550  :   if (*p == NULLC) { /* v2.11: convert 0 to "jmp" */

	mov	rax, QWORD PTR p$[rsp]
	movsx	eax, BYTE PTR [rax]
	test	eax, eax
	jne	SHORT $LN2@InvertJump

; 551  :     strcpy(p, "jmp ");

	lea	rdx, OFFSET FLAT:$SG11164
	mov	rcx, QWORD PTR p$[rsp]
	call	strcpy

; 552  :     return;

	jmp	$LN1@InvertJump
$LN2@InvertJump:

; 553  :   }
; 554  : 
; 555  :   p++;

	mov	rax, QWORD PTR p$[rsp]
	inc	rax
	mov	QWORD PTR p$[rsp], rax

; 556  :   if (*p == 'e' || *p == 'z' || *p == 'c' || *p == 's' || *p == 'p' || *p == 'o') {

	mov	rax, QWORD PTR p$[rsp]
	movsx	eax, BYTE PTR [rax]
	cmp	eax, 101				; 00000065H
	je	SHORT $LN5@InvertJump
	mov	rax, QWORD PTR p$[rsp]
	movsx	eax, BYTE PTR [rax]
	cmp	eax, 122				; 0000007aH
	je	SHORT $LN5@InvertJump
	mov	rax, QWORD PTR p$[rsp]
	movsx	eax, BYTE PTR [rax]
	cmp	eax, 99					; 00000063H
	je	SHORT $LN5@InvertJump
	mov	rax, QWORD PTR p$[rsp]
	movsx	eax, BYTE PTR [rax]
	cmp	eax, 115				; 00000073H
	je	SHORT $LN5@InvertJump
	mov	rax, QWORD PTR p$[rsp]
	movsx	eax, BYTE PTR [rax]
	cmp	eax, 112				; 00000070H
	je	SHORT $LN5@InvertJump
	mov	rax, QWORD PTR p$[rsp]
	movsx	eax, BYTE PTR [rax]
	cmp	eax, 111				; 0000006fH
	jne	SHORT $LN3@InvertJump
$LN5@InvertJump:

; 557  :     *(p + 1) = *p;

	mov	rax, QWORD PTR p$[rsp]
	mov	rcx, QWORD PTR p$[rsp]
	movzx	ecx, BYTE PTR [rcx]
	mov	BYTE PTR [rax+1], cl

; 558  :     *p = 'n';

	mov	rax, QWORD PTR p$[rsp]
	mov	BYTE PTR [rax], 110			; 0000006eH

; 559  :     return;

	jmp	$LN1@InvertJump

; 560  :   }

	jmp	$LN4@InvertJump
$LN3@InvertJump:

; 561  :   else if (*p == 'n') {

	mov	rax, QWORD PTR p$[rsp]
	movsx	eax, BYTE PTR [rax]
	cmp	eax, 110				; 0000006eH
	jne	SHORT $LN6@InvertJump

; 562  :     *p = *(p + 1);

	mov	rax, QWORD PTR p$[rsp]
	mov	rcx, QWORD PTR p$[rsp]
	movzx	ecx, BYTE PTR [rcx+1]
	mov	BYTE PTR [rax], cl

; 563  :     *(p + 1) = ' ';

	mov	rax, QWORD PTR p$[rsp]
	mov	BYTE PTR [rax+1], 32			; 00000020H

; 564  :     return;

	jmp	$LN1@InvertJump

; 565  :   }

	jmp	$LN7@InvertJump
$LN6@InvertJump:

; 566  :   else if (*p == 'a') {

	mov	rax, QWORD PTR p$[rsp]
	movsx	eax, BYTE PTR [rax]
	cmp	eax, 97					; 00000061H
	jne	SHORT $LN8@InvertJump

; 567  :     *p++ = 'b';

	mov	rax, QWORD PTR p$[rsp]
	mov	BYTE PTR [rax], 98			; 00000062H
	mov	rax, QWORD PTR p$[rsp]
	inc	rax
	mov	QWORD PTR p$[rsp], rax

; 568  :   }

	jmp	$LN9@InvertJump
$LN8@InvertJump:

; 569  :   else if (*p == 'b') {

	mov	rax, QWORD PTR p$[rsp]
	movsx	eax, BYTE PTR [rax]
	cmp	eax, 98					; 00000062H
	jne	SHORT $LN10@InvertJump

; 570  :     *p++ = 'a';

	mov	rax, QWORD PTR p$[rsp]
	mov	BYTE PTR [rax], 97			; 00000061H
	mov	rax, QWORD PTR p$[rsp]
	inc	rax
	mov	QWORD PTR p$[rsp], rax

; 571  :   }

	jmp	SHORT $LN11@InvertJump
$LN10@InvertJump:

; 572  :   else if (*p == 'g') {

	mov	rax, QWORD PTR p$[rsp]
	movsx	eax, BYTE PTR [rax]
	cmp	eax, 103				; 00000067H
	jne	SHORT $LN12@InvertJump

; 573  :     *p++ = 'l';

	mov	rax, QWORD PTR p$[rsp]
	mov	BYTE PTR [rax], 108			; 0000006cH
	mov	rax, QWORD PTR p$[rsp]
	inc	rax
	mov	QWORD PTR p$[rsp], rax

; 574  :   }

	jmp	SHORT $LN13@InvertJump
$LN12@InvertJump:

; 575  :   else if (*p == 'l') {

	mov	rax, QWORD PTR p$[rsp]
	movsx	eax, BYTE PTR [rax]
	cmp	eax, 108				; 0000006cH
	jne	SHORT $LN14@InvertJump

; 576  :     *p++ = 'g';

	mov	rax, QWORD PTR p$[rsp]
	mov	BYTE PTR [rax], 103			; 00000067H
	mov	rax, QWORD PTR p$[rsp]
	inc	rax
	mov	QWORD PTR p$[rsp], rax

; 577  :   }

	jmp	SHORT $LN15@InvertJump
$LN14@InvertJump:

; 578  :   else {
; 579  :     /* v2.11: convert "jmp" to 0 */
; 580  :     if (*p == 'm') {

	mov	rax, QWORD PTR p$[rsp]
	movsx	eax, BYTE PTR [rax]
	cmp	eax, 109				; 0000006dH
	jne	SHORT $LN16@InvertJump

; 581  :       p--;

	mov	rax, QWORD PTR p$[rsp]
	dec	rax
	mov	QWORD PTR p$[rsp], rax

; 582  :       *p = NULLC;

	mov	rax, QWORD PTR p$[rsp]
	mov	BYTE PTR [rax], 0
$LN16@InvertJump:

; 583  :     }
; 584  :     return;

	jmp	SHORT $LN1@InvertJump
$LN15@InvertJump:
$LN13@InvertJump:
$LN11@InvertJump:
$LN9@InvertJump:
$LN7@InvertJump:
$LN4@InvertJump:

; 585  :   }
; 586  :   if (*p == 'e')

	mov	rax, QWORD PTR p$[rsp]
	movsx	eax, BYTE PTR [rax]
	cmp	eax, 101				; 00000065H
	jne	SHORT $LN17@InvertJump

; 587  :     *p = ' ';

	mov	rax, QWORD PTR p$[rsp]
	mov	BYTE PTR [rax], 32			; 00000020H
	jmp	SHORT $LN18@InvertJump
$LN17@InvertJump:

; 588  :   else
; 589  :     *p = 'e';

	mov	rax, QWORD PTR p$[rsp]
	mov	BYTE PTR [rax], 101			; 00000065H
$LN18@InvertJump:
$LN1@InvertJump:

; 590  :   return;
; 591  : }

	add	rsp, 32					; 00000020H
	pop	rdi
	ret	0
InvertJump ENDP
_TEXT	ENDS
; Function compile flags: /Odtp /RTCsu
; File d:\hjwasm\hjwasm2.13.1s\hjwasm2.13.1s\hll.c
_TEXT	SEGMENT
op$ = 64
instr$ = 68
op1_pos$ = 72
op1_end$ = 76
op2_pos$ = 80
op2_end$ = 84
p$ = 88
op1$ = 112
op2$ = 256
label$ = 372
brcnt$5 = 376
j$6 = 380
tv230 = 384
tv226 = 388
tv252 = 392
tv379 = 396
tv426 = 400
tv424 = 404
hll$ = 432
i$ = 440
tokenarray$ = 448
ilabel$ = 456
is_true$ = 464
buffer$ = 472
hllop$ = 480
GetSimpleExpression PROC

; 348  : {

	mov	DWORD PTR [rsp+32], r9d
	mov	QWORD PTR [rsp+24], r8
	mov	QWORD PTR [rsp+16], rdx
	mov	QWORD PTR [rsp+8], rcx
	push	rdi
	sub	rsp, 416				; 000001a0H
	mov	rdi, rsp
	mov	ecx, 104				; 00000068H
	mov	eax, -858993460				; ccccccccH
	rep stosd
	mov	rcx, QWORD PTR [rsp+432]

; 349  :   enum c_bop op;
; 350  :   char instr;
; 351  :   int op1_pos;
; 352  :   int op1_end;
; 353  :   int op2_pos;
; 354  :   int op2_end;
; 355  :   char *p;
; 356  :   struct expr op1;
; 357  :   struct expr op2;
; 358  :   uint_32 label;
; 359  : 
; 360  :   DebugMsg1(("%u GetSimpleExpression(>%.32s< buf=>%s<) enter\n", evallvl, tokenarray[*i].tokpos, buffer));

	mov	rax, QWORD PTR i$[rsp]
	movsxd	rax, DWORD PTR [rax]
	imul	rax, rax, 32				; 00000020H
	mov	r9, QWORD PTR buffer$[rsp]
	mov	rcx, QWORD PTR tokenarray$[rsp]
	mov	r8, QWORD PTR [rcx+rax+24]
	mov	edx, DWORD PTR evallvl
	lea	rcx, OFFSET FLAT:$SG11103
	call	DoDebugMsg1
$LN2@GetSimpleE:

; 361  : 
; 362  :   while (tokenarray[*i].string_ptr[0] == '!' && tokenarray[*i].string_ptr[1] == '\0') {

	mov	rax, QWORD PTR i$[rsp]
	movsxd	rax, DWORD PTR [rax]
	imul	rax, rax, 32				; 00000020H
	mov	ecx, 1
	imul	rcx, rcx, 0
	mov	rdx, QWORD PTR tokenarray$[rsp]
	mov	rax, QWORD PTR [rdx+rax+8]
	movsx	eax, BYTE PTR [rax+rcx]
	cmp	eax, 33					; 00000021H
	jne	SHORT $LN3@GetSimpleE
	mov	rax, QWORD PTR i$[rsp]
	movsxd	rax, DWORD PTR [rax]
	imul	rax, rax, 32				; 00000020H
	mov	ecx, 1
	imul	rcx, rcx, 1
	mov	rdx, QWORD PTR tokenarray$[rsp]
	mov	rax, QWORD PTR [rdx+rax+8]
	movsx	eax, BYTE PTR [rax+rcx]
	test	eax, eax
	jne	SHORT $LN3@GetSimpleE

; 363  :     (*i)++; //GetCOp( i );

	mov	rax, QWORD PTR i$[rsp]
	mov	eax, DWORD PTR [rax]
	inc	eax
	mov	rcx, QWORD PTR i$[rsp]
	mov	DWORD PTR [rcx], eax

; 364  :     is_true = 1 - is_true;

	movzx	eax, BYTE PTR is_true$[rsp]
	mov	ecx, 1
	sub	ecx, eax
	mov	eax, ecx
	mov	BYTE PTR is_true$[rsp], al

; 365  :   }

	jmp	$LN2@GetSimpleE
$LN3@GetSimpleE:

; 366  : 
; 367  :   /* the problem with '()' is that is might enclose just a standard Masm
; 368  :   * expression or a "hll" expression. The first case is to be handled
; 369  :   * entirely by the expression evaluator, while the latter case is to be
; 370  :   * handled HERE!
; 371  :   */
; 372  :   if (tokenarray[*i].token == T_OP_BRACKET) {

	mov	rax, QWORD PTR i$[rsp]
	movsxd	rax, DWORD PTR [rax]
	imul	rax, rax, 32				; 00000020H
	mov	rcx, QWORD PTR tokenarray$[rsp]
	movzx	eax, BYTE PTR [rcx+rax]
	cmp	eax, 40					; 00000028H
	jne	$LN11@GetSimpleE

; 373  :     int brcnt;
; 374  :     int j;
; 375  :     for (brcnt = 1, j = *i + 1; tokenarray[j].token != T_FINAL; j++) {

	mov	DWORD PTR brcnt$5[rsp], 1
	mov	rax, QWORD PTR i$[rsp]
	mov	eax, DWORD PTR [rax]
	inc	eax
	mov	DWORD PTR j$6[rsp], eax
	jmp	SHORT $LN6@GetSimpleE
$LN4@GetSimpleE:
	mov	eax, DWORD PTR j$6[rsp]
	inc	eax
	mov	DWORD PTR j$6[rsp], eax
$LN6@GetSimpleE:
	movsxd	rax, DWORD PTR j$6[rsp]
	imul	rax, rax, 32				; 00000020H
	mov	rcx, QWORD PTR tokenarray$[rsp]
	movzx	eax, BYTE PTR [rcx+rax]
	test	eax, eax
	je	$LN5@GetSimpleE

; 376  :       if (tokenarray[j].token == T_OP_BRACKET)

	movsxd	rax, DWORD PTR j$6[rsp]
	imul	rax, rax, 32				; 00000020H
	mov	rcx, QWORD PTR tokenarray$[rsp]
	movzx	eax, BYTE PTR [rcx+rax]
	cmp	eax, 40					; 00000028H
	jne	SHORT $LN12@GetSimpleE

; 377  :         brcnt++;

	mov	eax, DWORD PTR brcnt$5[rsp]
	inc	eax
	mov	DWORD PTR brcnt$5[rsp], eax
	jmp	SHORT $LN13@GetSimpleE
$LN12@GetSimpleE:

; 378  :       else if (tokenarray[j].token == T_CL_BRACKET) {

	movsxd	rax, DWORD PTR j$6[rsp]
	imul	rax, rax, 32				; 00000020H
	mov	rcx, QWORD PTR tokenarray$[rsp]
	movzx	eax, BYTE PTR [rcx+rax]
	cmp	eax, 41					; 00000029H
	jne	SHORT $LN14@GetSimpleE

; 379  :         brcnt--;

	mov	eax, DWORD PTR brcnt$5[rsp]
	dec	eax
	mov	DWORD PTR brcnt$5[rsp], eax

; 380  :         if (brcnt == 0) /* a standard Masm expression? */

	cmp	DWORD PTR brcnt$5[rsp], 0
	jne	SHORT $LN16@GetSimpleE

; 381  :           break;

	jmp	SHORT $LN5@GetSimpleE
$LN16@GetSimpleE:

; 382  :       }

	jmp	SHORT $LN15@GetSimpleE
$LN14@GetSimpleE:

; 383  :       else if ((GetCOp(&tokenarray[j])) != COP_NONE)

	movsxd	rax, DWORD PTR j$6[rsp]
	imul	rax, rax, 32				; 00000020H
	mov	rcx, QWORD PTR tokenarray$[rsp]
	add	rcx, rax
	mov	rax, rcx
	mov	rcx, rax
	call	GetCOp
	test	eax, eax
	je	SHORT $LN17@GetSimpleE

; 384  :         break;

	jmp	SHORT $LN5@GetSimpleE
$LN17@GetSimpleE:
$LN15@GetSimpleE:
$LN13@GetSimpleE:

; 385  :     }

	jmp	$LN4@GetSimpleE
$LN5@GetSimpleE:

; 386  :     if (brcnt) {

	cmp	DWORD PTR brcnt$5[rsp], 0
	je	$LN18@GetSimpleE

; 387  :       (*i)++;

	mov	rax, QWORD PTR i$[rsp]
	mov	eax, DWORD PTR [rax]
	inc	eax
	mov	rcx, QWORD PTR i$[rsp]
	mov	DWORD PTR [rcx], eax

; 388  :       DebugMsg1(("%u GetSimpleExpression: calling GetExpression, i=%u\n", evallvl, *i));

	mov	rax, QWORD PTR i$[rsp]
	mov	r8d, DWORD PTR [rax]
	mov	edx, DWORD PTR evallvl
	lea	rcx, OFFSET FLAT:$SG11112
	call	DoDebugMsg1

; 389  :       if (ERROR == GetExpression(hll, i, tokenarray, ilabel, is_true, buffer, hllop))

	mov	rax, QWORD PTR hllop$[rsp]
	mov	QWORD PTR [rsp+48], rax
	mov	rax, QWORD PTR buffer$[rsp]
	mov	QWORD PTR [rsp+40], rax
	movzx	eax, BYTE PTR is_true$[rsp]
	mov	BYTE PTR [rsp+32], al
	mov	r9d, DWORD PTR ilabel$[rsp]
	mov	r8, QWORD PTR tokenarray$[rsp]
	mov	rdx, QWORD PTR i$[rsp]
	mov	rcx, QWORD PTR hll$[rsp]
	call	GetExpression
	cmp	eax, -1
	jne	SHORT $LN19@GetSimpleE

; 390  :         return(ERROR);

	mov	eax, -1
	jmp	$LN1@GetSimpleE
$LN19@GetSimpleE:

; 391  : 
; 392  :       if (tokenarray[*i].token != T_CL_BRACKET) {

	mov	rax, QWORD PTR i$[rsp]
	movsxd	rax, DWORD PTR [rax]
	imul	rax, rax, 32				; 00000020H
	mov	rcx, QWORD PTR tokenarray$[rsp]
	movzx	eax, BYTE PTR [rcx+rax]
	cmp	eax, 41					; 00000029H
	je	SHORT $LN20@GetSimpleE

; 393  :         //if (( tokenarray[*i].token == T_FINAL ) || ( tokenarray[*i].token == T_CL_BRACKET ))
; 394  :         DebugMsg(("GetSimpleExpression: expected ')', found: %s\n", tokenarray[*i].string_ptr));

	mov	rax, QWORD PTR i$[rsp]
	movsxd	rax, DWORD PTR [rax]
	imul	rax, rax, 32				; 00000020H
	mov	rcx, QWORD PTR tokenarray$[rsp]
	mov	rdx, QWORD PTR [rcx+rax+8]
	lea	rcx, OFFSET FLAT:$SG11115
	call	DoDebugMsg

; 395  :         return(EmitError(SYNTAX_ERROR_IN_CONTROL_FLOW_DIRECTIVE));

	mov	ecx, 199				; 000000c7H
	call	EmitError
	jmp	$LN1@GetSimpleE
$LN20@GetSimpleE:

; 396  :       }
; 397  :       (*i)++;

	mov	rax, QWORD PTR i$[rsp]
	mov	eax, DWORD PTR [rax]
	inc	eax
	mov	rcx, QWORD PTR i$[rsp]
	mov	DWORD PTR [rcx], eax

; 398  :       return(NOT_ERROR);

	xor	eax, eax
	jmp	$LN1@GetSimpleE
$LN18@GetSimpleE:
$LN11@GetSimpleE:

; 399  :     }
; 400  :   }
; 401  : 
; 402  :   /* get (first) operand */
; 403  :   op1_pos = *i;

	mov	rax, QWORD PTR i$[rsp]
	mov	eax, DWORD PTR [rax]
	mov	DWORD PTR op1_pos$[rsp], eax

; 404  :   if (ERROR == GetToken(hll, i, tokenarray, &op1))

	lea	r9, QWORD PTR op1$[rsp]
	mov	r8, QWORD PTR tokenarray$[rsp]
	mov	rdx, QWORD PTR i$[rsp]
	mov	rcx, QWORD PTR hll$[rsp]
	call	GetToken
	cmp	eax, -1
	jne	SHORT $LN21@GetSimpleE

; 405  :     return (ERROR);

	mov	eax, -1
	jmp	$LN1@GetSimpleE
$LN21@GetSimpleE:

; 406  :   op1_end = *i;

	mov	rax, QWORD PTR i$[rsp]
	mov	eax, DWORD PTR [rax]
	mov	DWORD PTR op1_end$[rsp], eax

; 407  : 
; 408  :   op = GetCOp(&tokenarray[*i]); /* get operator */

	mov	rax, QWORD PTR i$[rsp]
	movsxd	rax, DWORD PTR [rax]
	imul	rax, rax, 32				; 00000020H
	mov	rcx, QWORD PTR tokenarray$[rsp]
	add	rcx, rax
	mov	rax, rcx
	mov	rcx, rax
	call	GetCOp
	mov	DWORD PTR op$[rsp], eax

; 409  : 
; 410  :   /* lower precedence operator ( && or || ) detected? */
; 411  :   if (op == COP_AND || op == COP_OR) {

	cmp	DWORD PTR op$[rsp], 7
	je	SHORT $LN24@GetSimpleE
	cmp	DWORD PTR op$[rsp], 8
	jne	SHORT $LN22@GetSimpleE
$LN24@GetSimpleE:

; 412  :     /* v2.11: next 2 lines removed - && and || operators need a valid first operand */
; 413  :     //if ( op1.kind == EXPR_EMPTY )
; 414  :     //    return( NOT_ERROR );
; 415  :     op = COP_NONE;

	mov	DWORD PTR op$[rsp], 0

; 416  :   }

	jmp	SHORT $LN23@GetSimpleE
$LN22@GetSimpleE:

; 417  :   else if (op != COP_NONE)

	cmp	DWORD PTR op$[rsp], 0
	je	SHORT $LN25@GetSimpleE

; 418  :     (*i)++;

	mov	rax, QWORD PTR i$[rsp]
	mov	eax, DWORD PTR [rax]
	inc	eax
	mov	rcx, QWORD PTR i$[rsp]
	mov	DWORD PTR [rcx], eax
$LN25@GetSimpleE:
$LN23@GetSimpleE:

; 419  : 
; 420  :   label = GetLabel(hll, ilabel);

	mov	edx, DWORD PTR ilabel$[rsp]
	mov	rcx, QWORD PTR hll$[rsp]
	call	GetLabel
	mov	DWORD PTR label$[rsp], eax

; 421  : 
; 422  :   DebugMsg1(("%u GetSimpleExpression: EvalOperand ok, kind=%X, i=%u [%s]\n", evallvl, op1.kind, *i, tokenarray[*i].tokpos));

	mov	rax, QWORD PTR i$[rsp]
	movsxd	rax, DWORD PTR [rax]
	imul	rax, rax, 32				; 00000020H
	mov	rcx, QWORD PTR tokenarray$[rsp]
	mov	rax, QWORD PTR [rcx+rax+24]
	mov	QWORD PTR [rsp+32], rax
	mov	rax, QWORD PTR i$[rsp]
	mov	r9d, DWORD PTR [rax]
	mov	r8d, DWORD PTR op1$[rsp+60]
	mov	edx, DWORD PTR evallvl
	lea	rcx, OFFSET FLAT:$SG11121
	call	DoDebugMsg1

; 423  : 
; 424  :   /* check for special operators with implicite operand:
; 425  :   * COP_ZERO, COP_CARRY, COP_SIGN, COP_PARITY, COP_OVERFLOW
; 426  :   */
; 427  :   if (op >= COP_ZERO) {

	cmp	DWORD PTR op$[rsp], 11
	jl	$LN26@GetSimpleE

; 428  :     if (op1.kind != EXPR_EMPTY) {

	cmp	DWORD PTR op1$[rsp+60], -2
	je	SHORT $LN27@GetSimpleE

; 429  :       DebugMsg(("GetSimpleExpression: non-empty expression rejected: %s\n", tokenarray[op1_pos].tokpos));

	movsxd	rax, DWORD PTR op1_pos$[rsp]
	imul	rax, rax, 32				; 00000020H
	mov	rcx, QWORD PTR tokenarray$[rsp]
	mov	rdx, QWORD PTR [rcx+rax+24]
	lea	rcx, OFFSET FLAT:$SG11124
	call	DoDebugMsg

; 430  :       return(EmitError(SYNTAX_ERROR_IN_CONTROL_FLOW_DIRECTIVE));

	mov	ecx, 199				; 000000c7H
	call	EmitError
	jmp	$LN1@GetSimpleE
$LN27@GetSimpleE:

; 431  :     }
; 432  :     p = buffer;

	mov	rax, QWORD PTR buffer$[rsp]
	mov	QWORD PTR p$[rsp], rax

; 433  :     hllop->lastjmp = p;

	mov	rax, QWORD PTR hllop$[rsp]
	mov	rcx, QWORD PTR p$[rsp]
	mov	QWORD PTR [rax], rcx

; 434  :        RenderJcc(p, flaginstr[op - COP_ZERO], !is_true, label);

	movzx	eax, BYTE PTR is_true$[rsp]
	test	eax, eax
	jne	SHORT $LN51@GetSimpleE
	mov	DWORD PTR tv230[rsp], 1
	jmp	SHORT $LN52@GetSimpleE
$LN51@GetSimpleE:
	mov	DWORD PTR tv230[rsp], 0
$LN52@GetSimpleE:
	mov	eax, DWORD PTR op$[rsp]
	sub	eax, 11
	cdqe
	lea	rcx, OFFSET FLAT:flaginstr
	mov	r9d, DWORD PTR label$[rsp]
	mov	r8d, DWORD PTR tv230[rsp]
	movzx	edx, BYTE PTR [rcx+rax]
	mov	rcx, QWORD PTR p$[rsp]
	call	RenderJcc

; 435  :     return(NOT_ERROR);

	xor	eax, eax
	jmp	$LN1@GetSimpleE
$LN26@GetSimpleE:

; 436  :   }
; 437  : 
; 438  :   switch (op1.kind) {

	mov	eax, DWORD PTR op1$[rsp+60]
	mov	DWORD PTR tv226[rsp], eax
	cmp	DWORD PTR tv226[rsp], -2
	je	SHORT $LN28@GetSimpleE
	cmp	DWORD PTR tv226[rsp], 3
	je	SHORT $LN29@GetSimpleE
	jmp	SHORT $LN7@GetSimpleE
$LN28@GetSimpleE:

; 439  :   case EXPR_EMPTY:
; 440  :     DebugMsg(("GetSimpleExpression: empty expression rejected\n"));

	lea	rcx, OFFSET FLAT:$SG11126
	call	DoDebugMsg

; 441  :     return(EmitError(SYNTAX_ERROR_IN_CONTROL_FLOW_DIRECTIVE)); /* v2.09: changed from NOT_ERROR to ERROR */

	mov	ecx, 199				; 000000c7H
	call	EmitError
	jmp	$LN1@GetSimpleE
$LN29@GetSimpleE:

; 442  :   case EXPR_FLOAT:
; 443  :     DebugMsg(("GetSimpleExpression: float expression rejected: %s\n", tokenarray[op1_pos].tokpos));

	movsxd	rax, DWORD PTR op1_pos$[rsp]
	imul	rax, rax, 32				; 00000020H
	mov	rcx, QWORD PTR tokenarray$[rsp]
	mov	rdx, QWORD PTR [rcx+rax+24]
	lea	rcx, OFFSET FLAT:$SG11128
	call	DoDebugMsg

; 444  :     return(EmitError(REAL_OR_BCD_NUMBER_NOT_ALLOWED)); /* v2.10: added */

	mov	ecx, 270				; 0000010eH
	call	EmitError
	jmp	$LN1@GetSimpleE
$LN7@GetSimpleE:

; 445  :   }
; 446  : 
; 447  :   if (op == COP_NONE) {

	cmp	DWORD PTR op$[rsp], 0
	jne	$LN30@GetSimpleE

; 448  :     switch (op1.kind) {

	mov	eax, DWORD PTR op1$[rsp+60]
	mov	DWORD PTR tv252[rsp], eax
	cmp	DWORD PTR tv252[rsp], 0
	je	$LN34@GetSimpleE
	cmp	DWORD PTR tv252[rsp], 1
	je	$LN33@GetSimpleE
	cmp	DWORD PTR tv252[rsp], 2
	je	SHORT $LN31@GetSimpleE
	jmp	$LN40@GetSimpleE
$LN31@GetSimpleE:

; 449  :     case EXPR_REG:
; 450  :       if (op1.indirect == FALSE) {

	mov	eax, DWORD PTR op1$[rsp+72]
	and	eax, 1
	test	eax, eax
	jne	SHORT $LN32@GetSimpleE

; 451  :         p = RenderInstr(buffer, "test", op1_pos, op1_end, op1_pos, op1_end, tokenarray);

	mov	rax, QWORD PTR tokenarray$[rsp]
	mov	QWORD PTR [rsp+48], rax
	mov	eax, DWORD PTR op1_end$[rsp]
	mov	DWORD PTR [rsp+40], eax
	mov	eax, DWORD PTR op1_pos$[rsp]
	mov	DWORD PTR [rsp+32], eax
	mov	r9d, DWORD PTR op1_end$[rsp]
	mov	r8d, DWORD PTR op1_pos$[rsp]
	lea	rdx, OFFSET FLAT:$SG11132
	mov	rcx, QWORD PTR buffer$[rsp]
	call	RenderInstr
	mov	QWORD PTR p$[rsp], rax

; 452  :         hllop->lastjmp = p;

	mov	rax, QWORD PTR hllop$[rsp]
	mov	rcx, QWORD PTR p$[rsp]
	mov	QWORD PTR [rax], rcx

; 453  :         RenderJcc(p, 'z', is_true, label);

	movzx	eax, BYTE PTR is_true$[rsp]
	mov	r9d, DWORD PTR label$[rsp]
	mov	r8d, eax
	mov	dl, 122					; 0000007aH
	mov	rcx, QWORD PTR p$[rsp]
	call	RenderJcc

; 454  :         break;

	jmp	$LN9@GetSimpleE
$LN32@GetSimpleE:
$LN33@GetSimpleE:

; 455  :       }
; 456  :       /* no break */
; 457  :     case EXPR_ADDR:
; 458  :       p = RenderInstr(buffer, "cmp", op1_pos, op1_end, EMPTY, 0, tokenarray);

	mov	rax, QWORD PTR tokenarray$[rsp]
	mov	QWORD PTR [rsp+48], rax
	mov	DWORD PTR [rsp+40], 0
	mov	DWORD PTR [rsp+32], -2
	mov	r9d, DWORD PTR op1_end$[rsp]
	mov	r8d, DWORD PTR op1_pos$[rsp]
	lea	rdx, OFFSET FLAT:$SG11134
	mov	rcx, QWORD PTR buffer$[rsp]
	call	RenderInstr
	mov	QWORD PTR p$[rsp], rax

; 459  :       hllop->lastjmp = p;

	mov	rax, QWORD PTR hllop$[rsp]
	mov	rcx, QWORD PTR p$[rsp]
	mov	QWORD PTR [rax], rcx

; 460  :       RenderJcc(p, 'z', is_true, label);

	movzx	eax, BYTE PTR is_true$[rsp]
	mov	r9d, DWORD PTR label$[rsp]
	mov	r8d, eax
	mov	dl, 122					; 0000007aH
	mov	rcx, QWORD PTR p$[rsp]
	call	RenderJcc

; 461  :       break;

	jmp	$LN9@GetSimpleE
$LN34@GetSimpleE:

; 462  :     case EXPR_CONST:
; 463  : #if 0
; 464  :       /* v2.05: string constant is allowed! */
; 465  :       if (op1.string != NULL) {
; 466  :         return(EmitError(SYNTAX_ERROR_IN_CONTROL_FLOW_DIRECTIVE));
; 467  :       }
; 468  : #endif
; 469  :       /* v2.11: error if constant doesn't fit in 32-bits */
; 470  :       if (op1.hvalue != 0 && op1.hvalue != -1)

	cmp	DWORD PTR op1$[rsp+4], 0
	je	SHORT $LN35@GetSimpleE
	cmp	DWORD PTR op1$[rsp+4], -1
	je	SHORT $LN35@GetSimpleE

; 471  :         return(EmitConstError(&op1));

	lea	rcx, QWORD PTR op1$[rsp]
	call	EmitConstError
	jmp	$LN1@GetSimpleE
$LN35@GetSimpleE:

; 472  : 
; 473  :       hllop->lastjmp = buffer;

	mov	rax, QWORD PTR hllop$[rsp]
	mov	rcx, QWORD PTR buffer$[rsp]
	mov	QWORD PTR [rax], rcx

; 474  : 
; 475  :       if ((is_true == TRUE && op1.value) ||

	movzx	eax, BYTE PTR is_true$[rsp]
	cmp	eax, 1
	jne	SHORT $LN39@GetSimpleE
	cmp	DWORD PTR op1$[rsp], 0
	jne	SHORT $LN38@GetSimpleE
$LN39@GetSimpleE:
	movzx	eax, BYTE PTR is_true$[rsp]
	test	eax, eax
	jne	SHORT $LN36@GetSimpleE
	cmp	DWORD PTR op1$[rsp], 0
	jne	SHORT $LN36@GetSimpleE
$LN38@GetSimpleE:

; 476  :         (is_true == FALSE && op1.value == 0)) {
; 477  :         sprintf(buffer, "jmp " LABELFMT EOLSTR, label);

	mov	r8d, DWORD PTR label$[rsp]
	lea	rdx, OFFSET FLAT:$SG11141
	mov	rcx, QWORD PTR buffer$[rsp]
	call	sprintf

; 478  :       }

	jmp	SHORT $LN37@GetSimpleE
$LN36@GetSimpleE:

; 479  :       else {
; 480  :         //strcpy( buffer, " " EOLSTR ); /* v2.11: obsolete */
; 481  :         *buffer = NULLC;

	mov	rax, QWORD PTR buffer$[rsp]
	mov	BYTE PTR [rax], 0
$LN37@GetSimpleE:

; 482  :       }
; 483  :       break;

	jmp	SHORT $LN9@GetSimpleE
$LN40@GetSimpleE:

; 484  : #ifdef DEBUG_OUT
; 485  :     default: /**/myassert(0); break;

	mov	edx, 485				; 000001e5H
	lea	rcx, OFFSET FLAT:$SG11143
	call	InternalError
$LN9@GetSimpleE:

; 486  : #endif
; 487  :     }
; 488  :     return(NOT_ERROR);

	xor	eax, eax
	jmp	$LN1@GetSimpleE
$LN30@GetSimpleE:

; 489  :   }
; 490  : 
; 491  :   /* get second operand for binary operator */
; 492  :   op2_pos = *i;

	mov	rax, QWORD PTR i$[rsp]
	mov	eax, DWORD PTR [rax]
	mov	DWORD PTR op2_pos$[rsp], eax

; 493  :   if (ERROR == GetToken(hll, i, tokenarray, &op2)) {

	lea	r9, QWORD PTR op2$[rsp]
	mov	r8, QWORD PTR tokenarray$[rsp]
	mov	rdx, QWORD PTR i$[rsp]
	mov	rcx, QWORD PTR hll$[rsp]
	call	GetToken
	cmp	eax, -1
	jne	SHORT $LN41@GetSimpleE

; 494  :     return(ERROR);

	mov	eax, -1
	jmp	$LN1@GetSimpleE
$LN41@GetSimpleE:

; 495  :   }
; 496  :   DebugMsg1(("%u GetSimpleExpression: EvalOperand 2 ok, type=%X, i=%u [%s]\n", evallvl, op2.type, *i, tokenarray[*i].tokpos));

	mov	rax, QWORD PTR i$[rsp]
	movsxd	rax, DWORD PTR [rax]
	imul	rax, rax, 32				; 00000020H
	mov	rcx, QWORD PTR tokenarray$[rsp]
	mov	rax, QWORD PTR [rcx+rax+24]
	mov	QWORD PTR [rsp+32], rax
	mov	rax, QWORD PTR i$[rsp]
	mov	r9d, DWORD PTR [rax]
	mov	r8, QWORD PTR op2$[rsp+96]
	mov	edx, DWORD PTR evallvl
	lea	rcx, OFFSET FLAT:$SG11145
	call	DoDebugMsg1

; 497  :   if (op2.kind != EXPR_CONST && op2.kind != EXPR_ADDR && op2.kind != EXPR_REG) {

	cmp	DWORD PTR op2$[rsp+60], 0
	je	SHORT $LN42@GetSimpleE
	cmp	DWORD PTR op2$[rsp+60], 1
	je	SHORT $LN42@GetSimpleE
	cmp	DWORD PTR op2$[rsp+60], 2
	je	SHORT $LN42@GetSimpleE

; 498  :     DebugMsg(("GetSimpleExpression: syntax error, op2.kind=%u\n", op2.kind));

	mov	edx, DWORD PTR op2$[rsp+60]
	lea	rcx, OFFSET FLAT:$SG11147
	call	DoDebugMsg

; 499  :     return(EmitError(SYNTAX_ERROR_IN_CONTROL_FLOW_DIRECTIVE));

	mov	ecx, 199				; 000000c7H
	call	EmitError
	jmp	$LN1@GetSimpleE
$LN42@GetSimpleE:

; 500  :   }
; 501  :   op2_end = *i;

	mov	rax, QWORD PTR i$[rsp]
	mov	eax, DWORD PTR [rax]
	mov	DWORD PTR op2_end$[rsp], eax

; 502  : 
; 503  :   /* now generate ASM code for expression */
; 504  : 
; 505  :   if (op == COP_ANDB) {

	cmp	DWORD PTR op$[rsp], 9
	jne	SHORT $LN43@GetSimpleE

; 506  :     p = RenderInstr(buffer, "test", op1_pos, op1_end, op2_pos, op2_end, tokenarray);

	mov	rax, QWORD PTR tokenarray$[rsp]
	mov	QWORD PTR [rsp+48], rax
	mov	eax, DWORD PTR op2_end$[rsp]
	mov	DWORD PTR [rsp+40], eax
	mov	eax, DWORD PTR op2_pos$[rsp]
	mov	DWORD PTR [rsp+32], eax
	mov	r9d, DWORD PTR op1_end$[rsp]
	mov	r8d, DWORD PTR op1_pos$[rsp]
	lea	rdx, OFFSET FLAT:$SG11150
	mov	rcx, QWORD PTR buffer$[rsp]
	call	RenderInstr
	mov	QWORD PTR p$[rsp], rax

; 507  :     hllop->lastjmp = p;

	mov	rax, QWORD PTR hllop$[rsp]
	mov	rcx, QWORD PTR p$[rsp]
	mov	QWORD PTR [rax], rcx

; 508  :     RenderJcc(p, 'e', is_true, label);

	movzx	eax, BYTE PTR is_true$[rsp]
	mov	r9d, DWORD PTR label$[rsp]
	mov	r8d, eax
	mov	dl, 101					; 00000065H
	mov	rcx, QWORD PTR p$[rsp]
	call	RenderJcc

; 509  :   }

	jmp	$LN44@GetSimpleE
$LN43@GetSimpleE:

; 510  :   else if (op <= COP_LE) { /* ==, !=, >, <, >= or <= operator */

	cmp	DWORD PTR op$[rsp], 6
	jg	$LN45@GetSimpleE

; 511  :     /*
; 512  :     * optimisation: generate 'or EAX,EAX' instead of 'cmp EAX,0'.
; 513  :     * v2.11: use op2.value64 instead of op2.value
; 514  :     */
; 515  :     if (Options.masm_compat_gencode &&
; 516  :       (op == COP_EQ || op == COP_NE) &&
; 517  :       op1.kind == EXPR_REG && op1.indirect == FALSE &&
; 518  :       op2.kind == EXPR_CONST && op2.value64 == 0) {

	movzx	eax, BYTE PTR Options+144
	test	eax, eax
	je	SHORT $LN47@GetSimpleE
	cmp	DWORD PTR op$[rsp], 1
	je	SHORT $LN49@GetSimpleE
	cmp	DWORD PTR op$[rsp], 2
	jne	SHORT $LN47@GetSimpleE
$LN49@GetSimpleE:
	cmp	DWORD PTR op1$[rsp+60], 2
	jne	SHORT $LN47@GetSimpleE
	mov	eax, DWORD PTR op1$[rsp+72]
	and	eax, 1
	test	eax, eax
	jne	SHORT $LN47@GetSimpleE
	cmp	DWORD PTR op2$[rsp+60], 0
	jne	SHORT $LN47@GetSimpleE
	cmp	QWORD PTR op2$[rsp], 0
	jne	SHORT $LN47@GetSimpleE

; 519  :       p = RenderInstr(buffer, "or", op1_pos, op1_end, op1_pos, op1_end, tokenarray);

	mov	rax, QWORD PTR tokenarray$[rsp]
	mov	QWORD PTR [rsp+48], rax
	mov	eax, DWORD PTR op1_end$[rsp]
	mov	DWORD PTR [rsp+40], eax
	mov	eax, DWORD PTR op1_pos$[rsp]
	mov	DWORD PTR [rsp+32], eax
	mov	r9d, DWORD PTR op1_end$[rsp]
	mov	r8d, DWORD PTR op1_pos$[rsp]
	lea	rdx, OFFSET FLAT:$SG11156
	mov	rcx, QWORD PTR buffer$[rsp]
	call	RenderInstr
	mov	QWORD PTR p$[rsp], rax

; 520  :     }

	jmp	SHORT $LN48@GetSimpleE
$LN47@GetSimpleE:

; 521  :     else {
; 522  :       p = RenderInstr(buffer, "cmp", op1_pos, op1_end, op2_pos, op2_end, tokenarray);

	mov	rax, QWORD PTR tokenarray$[rsp]
	mov	QWORD PTR [rsp+48], rax
	mov	eax, DWORD PTR op2_end$[rsp]
	mov	DWORD PTR [rsp+40], eax
	mov	eax, DWORD PTR op2_pos$[rsp]
	mov	DWORD PTR [rsp+32], eax
	mov	r9d, DWORD PTR op1_end$[rsp]
	mov	r8d, DWORD PTR op1_pos$[rsp]
	lea	rdx, OFFSET FLAT:$SG11157
	mov	rcx, QWORD PTR buffer$[rsp]
	call	RenderInstr
	mov	QWORD PTR p$[rsp], rax
$LN48@GetSimpleE:

; 523  :     }
; 524  : 
; 525  :     instr = ((IS_SIGNED(op1.mem_type) || IS_SIGNED(op2.mem_type)) ? signed_cjmptype[op - COP_EQ] : unsigned_cjmptype[op - COP_EQ]);

	mov	eax, DWORD PTR op1$[rsp+64]
	and	eax, 192				; 000000c0H
	cmp	eax, 64					; 00000040H
	je	SHORT $LN53@GetSimpleE
	mov	eax, DWORD PTR op2$[rsp+64]
	and	eax, 192				; 000000c0H
	cmp	eax, 64					; 00000040H
	je	SHORT $LN53@GetSimpleE
	mov	eax, DWORD PTR op$[rsp]
	dec	eax
	cdqe
	lea	rcx, OFFSET FLAT:unsigned_cjmptype
	movsx	eax, BYTE PTR [rcx+rax]
	mov	DWORD PTR tv379[rsp], eax
	jmp	SHORT $LN54@GetSimpleE
$LN53@GetSimpleE:
	mov	eax, DWORD PTR op$[rsp]
	dec	eax
	cdqe
	lea	rcx, OFFSET FLAT:signed_cjmptype
	movsx	eax, BYTE PTR [rcx+rax]
	mov	DWORD PTR tv379[rsp], eax
$LN54@GetSimpleE:
	movzx	eax, BYTE PTR tv379[rsp]
	mov	BYTE PTR instr$[rsp], al

; 526  :     hllop->lastjmp = p;

	mov	rax, QWORD PTR hllop$[rsp]
	mov	rcx, QWORD PTR p$[rsp]
	mov	QWORD PTR [rax], rcx

; 527  :     RenderJcc(p, instr, neg_cjmptype[op - COP_EQ] ? is_true : !is_true, label);

	mov	eax, DWORD PTR op$[rsp]
	dec	eax
	cdqe
	lea	rcx, OFFSET FLAT:neg_cjmptype
	movsx	eax, BYTE PTR [rcx+rax]
	test	eax, eax
	je	SHORT $LN57@GetSimpleE
	movzx	eax, BYTE PTR is_true$[rsp]
	mov	DWORD PTR tv426[rsp], eax
	jmp	SHORT $LN58@GetSimpleE
$LN57@GetSimpleE:
	movzx	eax, BYTE PTR is_true$[rsp]
	test	eax, eax
	jne	SHORT $LN55@GetSimpleE
	mov	DWORD PTR tv424[rsp], 1
	jmp	SHORT $LN56@GetSimpleE
$LN55@GetSimpleE:
	mov	DWORD PTR tv424[rsp], 0
$LN56@GetSimpleE:
	mov	eax, DWORD PTR tv424[rsp]
	mov	DWORD PTR tv426[rsp], eax
$LN58@GetSimpleE:
	mov	r9d, DWORD PTR label$[rsp]
	mov	r8d, DWORD PTR tv426[rsp]
	movzx	edx, BYTE PTR instr$[rsp]
	mov	rcx, QWORD PTR p$[rsp]
	call	RenderJcc

; 528  :   }

	jmp	SHORT $LN46@GetSimpleE
$LN45@GetSimpleE:

; 529  :   else {
; 530  :     DebugMsg(("GetSimpleExpression: unexpected operator %s\n", tokenarray[op1_pos].tokpos));

	movsxd	rax, DWORD PTR op1_pos$[rsp]
	imul	rax, rax, 32				; 00000020H
	mov	rcx, QWORD PTR tokenarray$[rsp]
	mov	rdx, QWORD PTR [rcx+rax+24]
	lea	rcx, OFFSET FLAT:$SG11158
	call	DoDebugMsg

; 531  :     return(EmitError(SYNTAX_ERROR_IN_CONTROL_FLOW_DIRECTIVE));

	mov	ecx, 199				; 000000c7H
	call	EmitError
	jmp	SHORT $LN1@GetSimpleE
$LN46@GetSimpleE:
$LN44@GetSimpleE:

; 532  :   }
; 533  :   return(NOT_ERROR);

	xor	eax, eax
$LN1@GetSimpleE:

; 534  : }

	mov	rdi, rax
	mov	rcx, rsp
	lea	rdx, OFFSET FLAT:GetSimpleExpression$rtcFrameData
	call	_RTC_CheckStackVars
	mov	rax, rdi
	add	rsp, 416				; 000001a0H
	pop	rdi
	ret	0
GetSimpleExpression ENDP
_TEXT	ENDS
; Function compile flags: /Odtp /RTCsu
; File d:\hjwasm\hjwasm2.13.1s\hjwasm2.13.1s\hll.c
_TEXT	SEGMENT
tv72 = 32
hll$ = 64
index$ = 72
GetLabel PROC

; 335  : {

	mov	DWORD PTR [rsp+16], edx
	mov	QWORD PTR [rsp+8], rcx
	push	rdi
	sub	rsp, 48					; 00000030H
	mov	rdi, rsp
	mov	ecx, 12
	mov	eax, -858993460				; ccccccccH
	rep stosd
	mov	rcx, QWORD PTR [rsp+64]

; 336  :   /**/myassert(hll->labels[index]);

	movsxd	rax, DWORD PTR index$[rsp]
	mov	rcx, QWORD PTR hll$[rsp]
	cmp	DWORD PTR [rcx+rax*4+8], 0
	je	SHORT $LN3@GetLabel
	mov	DWORD PTR tv72[rsp], 0
	jmp	SHORT $LN4@GetLabel
$LN3@GetLabel:
	mov	edx, 336				; 00000150H
	lea	rcx, OFFSET FLAT:$SG11064
	call	InternalError
	mov	DWORD PTR tv72[rsp], eax
$LN4@GetLabel:

; 337  :   return(hll->labels[index]);

	movsxd	rax, DWORD PTR index$[rsp]
	mov	rcx, QWORD PTR hll$[rsp]
	mov	eax, DWORD PTR [rcx+rax*4+8]

; 338  : }

	add	rsp, 48					; 00000030H
	pop	rdi
	ret	0
GetLabel ENDP
_TEXT	ENDS
; Function compile flags: /Odtp /RTCsu
; File d:\hjwasm\hjwasm2.13.1s\hjwasm2.13.1s\hll.c
_TEXT	SEGMENT
end_tok$ = 48
hll$ = 80
i$ = 88
tokenarray$ = 96
opnd$ = 104
GetToken PROC

; 305  : {

	mov	QWORD PTR [rsp+32], r9
	mov	QWORD PTR [rsp+24], r8
	mov	QWORD PTR [rsp+16], rdx
	mov	QWORD PTR [rsp+8], rcx
	push	rdi
	sub	rsp, 64					; 00000040H
	mov	rdi, rsp
	mov	ecx, 16
	mov	eax, -858993460				; ccccccccH
	rep stosd
	mov	rcx, QWORD PTR [rsp+80]

; 306  :   int end_tok;
; 307  : 
; 308  :   /* scan for the next C operator in the token array.
; 309  :   * because the ASM evaluator may report an error if such a thing
; 310  :   * is found ( CARRY?, ZERO? and alikes will be regarded as - not yet defined - labels )
; 311  :   */
; 312  :   for (end_tok = *i; end_tok < Token_Count; end_tok++) {

	mov	rax, QWORD PTR i$[rsp]
	mov	eax, DWORD PTR [rax]
	mov	DWORD PTR end_tok$[rsp], eax
	jmp	SHORT $LN4@GetToken
$LN2@GetToken:
	mov	eax, DWORD PTR end_tok$[rsp]
	inc	eax
	mov	DWORD PTR end_tok$[rsp], eax
$LN4@GetToken:
	mov	eax, DWORD PTR ModuleInfo+496
	cmp	DWORD PTR end_tok$[rsp], eax
	jge	SHORT $LN3@GetToken

; 313  :     if ((GetCOp(&tokenarray[end_tok])) != COP_NONE)

	movsxd	rax, DWORD PTR end_tok$[rsp]
	imul	rax, rax, 32				; 00000020H
	mov	rcx, QWORD PTR tokenarray$[rsp]
	add	rcx, rax
	mov	rax, rcx
	mov	rcx, rax
	call	GetCOp
	test	eax, eax
	je	SHORT $LN5@GetToken

; 314  :       break;

	jmp	SHORT $LN3@GetToken
$LN5@GetToken:

; 315  :   }

	jmp	SHORT $LN2@GetToken
$LN3@GetToken:

; 316  :   if (end_tok == *i) {

	mov	rax, QWORD PTR i$[rsp]
	mov	eax, DWORD PTR [rax]
	cmp	DWORD PTR end_tok$[rsp], eax
	jne	SHORT $LN6@GetToken

; 317  :     opnd->kind = EXPR_EMPTY;

	mov	rax, QWORD PTR opnd$[rsp]
	mov	DWORD PTR [rax+60], -2

; 318  :     return(NOT_ERROR);

	xor	eax, eax
	jmp	SHORT $LN1@GetToken
$LN6@GetToken:

; 319  :   }
; 320  :   if (ERROR == EvalOperand(i, tokenarray, end_tok, opnd, 0))

	mov	BYTE PTR [rsp+32], 0
	mov	r9, QWORD PTR opnd$[rsp]
	mov	r8d, DWORD PTR end_tok$[rsp]
	mov	rdx, QWORD PTR tokenarray$[rsp]
	mov	rcx, QWORD PTR i$[rsp]
	call	EvalOperand
	cmp	eax, -1
	jne	SHORT $LN7@GetToken

; 321  :     return(ERROR);

	mov	eax, -1
	jmp	SHORT $LN1@GetToken
$LN7@GetToken:

; 322  : 
; 323  :   /* v2.11: emit error 'syntax error in control flow directive'.
; 324  :   * May happen for expressions like ".if 1 + CARRY?"
; 325  :   */
; 326  :   if (*i > end_tok) {

	mov	rax, QWORD PTR i$[rsp]
	mov	ecx, DWORD PTR end_tok$[rsp]
	cmp	DWORD PTR [rax], ecx
	jle	SHORT $LN8@GetToken

; 327  :     return(EmitError(SYNTAX_ERROR_IN_CONTROL_FLOW_DIRECTIVE));

	mov	ecx, 199				; 000000c7H
	call	EmitError
	jmp	SHORT $LN1@GetToken
$LN8@GetToken:

; 328  :   }
; 329  : 
; 330  :   return(NOT_ERROR);

	xor	eax, eax
$LN1@GetToken:

; 331  : }

	add	rsp, 64					; 00000040H
	pop	rdi
	ret	0
GetToken ENDP
_TEXT	ENDS
; Function compile flags: /Odtp /RTCsu
; File d:\hjwasm\hjwasm2.13.1s\hjwasm2.13.1s\hll.c
_TEXT	SEGMENT
old$ = 32
dst$ = 64
cc$ = 72
neg$ = 80
label$ = 88
RenderJcc PROC

; 280  : {

	mov	DWORD PTR [rsp+32], r9d
	mov	DWORD PTR [rsp+24], r8d
	mov	BYTE PTR [rsp+16], dl
	mov	QWORD PTR [rsp+8], rcx
	push	rdi
	sub	rsp, 48					; 00000030H
	mov	rdi, rsp
	mov	ecx, 12
	mov	eax, -858993460				; ccccccccH
	rep stosd
	mov	rcx, QWORD PTR [rsp+64]

; 281  : #ifdef DEBUG_OUT
; 282  :   char *old = dst;

	mov	rax, QWORD PTR dst$[rsp]
	mov	QWORD PTR old$[rsp], rax

; 283  : #endif
; 284  :   /* create the jump opcode: j[n]cc */
; 285  :   *dst++ = 'j';

	mov	rax, QWORD PTR dst$[rsp]
	mov	BYTE PTR [rax], 106			; 0000006aH
	mov	rax, QWORD PTR dst$[rsp]
	inc	rax
	mov	QWORD PTR dst$[rsp], rax

; 286  :   if (neg)

	cmp	DWORD PTR neg$[rsp], 0
	je	SHORT $LN2@RenderJcc

; 287  :     *dst++ = 'n';

	mov	rax, QWORD PTR dst$[rsp]
	mov	BYTE PTR [rax], 110			; 0000006eH
	mov	rax, QWORD PTR dst$[rsp]
	inc	rax
	mov	QWORD PTR dst$[rsp], rax
$LN2@RenderJcc:

; 288  :   *dst++ = cc;

	mov	rax, QWORD PTR dst$[rsp]
	movzx	ecx, BYTE PTR cc$[rsp]
	mov	BYTE PTR [rax], cl
	mov	rax, QWORD PTR dst$[rsp]
	inc	rax
	mov	QWORD PTR dst$[rsp], rax

; 289  :   if (neg == FALSE)

	cmp	DWORD PTR neg$[rsp], 0
	jne	SHORT $LN3@RenderJcc

; 290  :     *dst++ = ' '; /* make sure there's room for the inverse jmp */

	mov	rax, QWORD PTR dst$[rsp]
	mov	BYTE PTR [rax], 32			; 00000020H
	mov	rax, QWORD PTR dst$[rsp]
	inc	rax
	mov	QWORD PTR dst$[rsp], rax
$LN3@RenderJcc:

; 291  : 
; 292  :   *dst++ = ' ';

	mov	rax, QWORD PTR dst$[rsp]
	mov	BYTE PTR [rax], 32			; 00000020H
	mov	rax, QWORD PTR dst$[rsp]
	inc	rax
	mov	QWORD PTR dst$[rsp], rax

; 293  :   GetLabelStr(label, dst);

	mov	rdx, QWORD PTR dst$[rsp]
	mov	ecx, DWORD PTR label$[rsp]
	call	GetLabelStr

; 294  :   dst += strlen(dst);

	mov	rcx, QWORD PTR dst$[rsp]
	call	strlen
	mov	rcx, QWORD PTR dst$[rsp]
	add	rcx, rax
	mov	rax, rcx
	mov	QWORD PTR dst$[rsp], rax

; 295  :   *dst++ = EOLCHAR;

	mov	rax, QWORD PTR dst$[rsp]
	mov	BYTE PTR [rax], 94			; 0000005eH
	mov	rax, QWORD PTR dst$[rsp]
	inc	rax
	mov	QWORD PTR dst$[rsp], rax

; 296  :   *dst = NULLC;

	mov	rax, QWORD PTR dst$[rsp]
	mov	BYTE PTR [rax], 0

; 297  :   DebugMsg1(("%u RenderJcc()=>%s<\n", evallvl, old));

	mov	r8, QWORD PTR old$[rsp]
	mov	edx, DWORD PTR evallvl
	lea	rcx, OFFSET FLAT:$SG11038
	call	DoDebugMsg1

; 298  :   return(dst);

	mov	rax, QWORD PTR dst$[rsp]

; 299  : }

	add	rsp, 48					; 00000030H
	pop	rdi
	ret	0
RenderJcc ENDP
_TEXT	ENDS
; Function compile flags: /Odtp /RTCsu
; File d:\hjwasm\hjwasm2.13.1s\hjwasm2.13.1s\hll.c
_TEXT	SEGMENT
label$ = 48
buff$ = 56
GetLabelStr PROC

; 271  : {

	mov	QWORD PTR [rsp+16], rdx
	mov	DWORD PTR [rsp+8], ecx
	push	rdi
	sub	rsp, 32					; 00000020H
	mov	rdi, rsp
	mov	ecx, 8
	mov	eax, -858993460				; ccccccccH
	rep stosd
	mov	ecx, DWORD PTR [rsp+48]

; 272  :   sprintf(buff, LABELFMT, label);

	mov	r8d, DWORD PTR label$[rsp]
	lea	rdx, OFFSET FLAT:$SG11024
	mov	rcx, QWORD PTR buff$[rsp]
	call	sprintf

; 273  :   return(buff);

	mov	rax, QWORD PTR buff$[rsp]

; 274  : }

	add	rsp, 32					; 00000020H
	pop	rdi
	ret	0
GetLabelStr ENDP
_TEXT	ENDS
; Function compile flags: /Odtp /RTCsu
; File d:\hjwasm\hjwasm2.13.1s\hjwasm2.13.1s\hll.c
_TEXT	SEGMENT
i$ = 32
old$ = 40
dst$ = 64
instr$ = 72
start1$ = 80
end1$ = 88
start2$ = 96
end2$ = 104
tokenarray$ = 112
RenderInstr PROC

; 238  : {

	mov	DWORD PTR [rsp+32], r9d
	mov	DWORD PTR [rsp+24], r8d
	mov	QWORD PTR [rsp+16], rdx
	mov	QWORD PTR [rsp+8], rcx
	push	rdi
	sub	rsp, 48					; 00000030H
	mov	rdi, rsp
	mov	ecx, 12
	mov	eax, -858993460				; ccccccccH
	rep stosd
	mov	rcx, QWORD PTR [rsp+64]

; 239  :   int i;
; 240  : #ifdef DEBUG_OUT
; 241  :   char *old = dst;

	mov	rax, QWORD PTR dst$[rsp]
	mov	QWORD PTR old$[rsp], rax

; 242  : #endif
; 243  :   i = strlen(instr);

	mov	rcx, QWORD PTR instr$[rsp]
	call	strlen
	mov	DWORD PTR i$[rsp], eax

; 244  :   /* copy the instruction */
; 245  :   memcpy(dst, instr, i);

	movsxd	rax, DWORD PTR i$[rsp]
	mov	r8, rax
	mov	rdx, QWORD PTR instr$[rsp]
	mov	rcx, QWORD PTR dst$[rsp]
	call	memcpy

; 246  :   dst += i;

	movsxd	rax, DWORD PTR i$[rsp]
	mov	rcx, QWORD PTR dst$[rsp]
	add	rcx, rax
	mov	rax, rcx
	mov	QWORD PTR dst$[rsp], rax

; 247  :   /* copy the first operand's tokens */
; 248  :   *dst++ = ' ';

	mov	rax, QWORD PTR dst$[rsp]
	mov	BYTE PTR [rax], 32			; 00000020H
	mov	rax, QWORD PTR dst$[rsp]
	inc	rax
	mov	QWORD PTR dst$[rsp], rax

; 249  :   i = tokenarray[end1].tokpos - tokenarray[start1].tokpos;

	movsxd	rax, DWORD PTR end1$[rsp]
	imul	rax, rax, 32				; 00000020H
	movsxd	rcx, DWORD PTR start1$[rsp]
	imul	rcx, rcx, 32				; 00000020H
	mov	rdx, QWORD PTR tokenarray$[rsp]
	mov	r8, QWORD PTR tokenarray$[rsp]
	mov	rcx, QWORD PTR [r8+rcx+24]
	mov	rax, QWORD PTR [rdx+rax+24]
	sub	rax, rcx
	mov	DWORD PTR i$[rsp], eax

; 250  :   memcpy(dst, tokenarray[start1].tokpos, i);

	movsxd	rax, DWORD PTR i$[rsp]
	movsxd	rcx, DWORD PTR start1$[rsp]
	imul	rcx, rcx, 32				; 00000020H
	mov	r8, rax
	mov	rax, QWORD PTR tokenarray$[rsp]
	mov	rdx, QWORD PTR [rax+rcx+24]
	mov	rcx, QWORD PTR dst$[rsp]
	call	memcpy

; 251  :   dst += i;

	movsxd	rax, DWORD PTR i$[rsp]
	mov	rcx, QWORD PTR dst$[rsp]
	add	rcx, rax
	mov	rax, rcx
	mov	QWORD PTR dst$[rsp], rax

; 252  :   if (start2 != EMPTY) {

	cmp	DWORD PTR start2$[rsp], -2
	je	$LN2@RenderInst

; 253  :     *dst++ = ',';

	mov	rax, QWORD PTR dst$[rsp]
	mov	BYTE PTR [rax], 44			; 0000002cH
	mov	rax, QWORD PTR dst$[rsp]
	inc	rax
	mov	QWORD PTR dst$[rsp], rax

; 254  :     /* copy the second operand's tokens */
; 255  :     *dst++ = ' ';

	mov	rax, QWORD PTR dst$[rsp]
	mov	BYTE PTR [rax], 32			; 00000020H
	mov	rax, QWORD PTR dst$[rsp]
	inc	rax
	mov	QWORD PTR dst$[rsp], rax

; 256  :     i = tokenarray[end2].tokpos - tokenarray[start2].tokpos;

	movsxd	rax, DWORD PTR end2$[rsp]
	imul	rax, rax, 32				; 00000020H
	movsxd	rcx, DWORD PTR start2$[rsp]
	imul	rcx, rcx, 32				; 00000020H
	mov	rdx, QWORD PTR tokenarray$[rsp]
	mov	r8, QWORD PTR tokenarray$[rsp]
	mov	rcx, QWORD PTR [r8+rcx+24]
	mov	rax, QWORD PTR [rdx+rax+24]
	sub	rax, rcx
	mov	DWORD PTR i$[rsp], eax

; 257  :     memcpy(dst, tokenarray[start2].tokpos, i);

	movsxd	rax, DWORD PTR i$[rsp]
	movsxd	rcx, DWORD PTR start2$[rsp]
	imul	rcx, rcx, 32				; 00000020H
	mov	r8, rax
	mov	rax, QWORD PTR tokenarray$[rsp]
	mov	rdx, QWORD PTR [rax+rcx+24]
	mov	rcx, QWORD PTR dst$[rsp]
	call	memcpy

; 258  :     dst += i; 

	movsxd	rax, DWORD PTR i$[rsp]
	mov	rcx, QWORD PTR dst$[rsp]
	add	rcx, rax
	mov	rax, rcx
	mov	QWORD PTR dst$[rsp], rax

; 259  :   }

	jmp	SHORT $LN3@RenderInst
$LN2@RenderInst:

; 260  :   else if (end2 != EMPTY) {

	cmp	DWORD PTR end2$[rsp], -2
	je	SHORT $LN4@RenderInst

; 261  :     dst += sprintf(dst, ", %d", end2);

	mov	r8d, DWORD PTR end2$[rsp]
	lea	rdx, OFFSET FLAT:$SG11016
	mov	rcx, QWORD PTR dst$[rsp]
	call	sprintf
	cdqe
	mov	rcx, QWORD PTR dst$[rsp]
	add	rcx, rax
	mov	rax, rcx
	mov	QWORD PTR dst$[rsp], rax
$LN4@RenderInst:
$LN3@RenderInst:

; 262  :   }
; 263  :   *dst++ = EOLCHAR;

	mov	rax, QWORD PTR dst$[rsp]
	mov	BYTE PTR [rax], 94			; 0000005eH
	mov	rax, QWORD PTR dst$[rsp]
	inc	rax
	mov	QWORD PTR dst$[rsp], rax

; 264  :   *dst = NULLC;

	mov	rax, QWORD PTR dst$[rsp]
	mov	BYTE PTR [rax], 0

; 265  :   DebugMsg1(("%u RenderInstr(%s)=>%s<\n", evallvl, instr, old));

	mov	r9, QWORD PTR old$[rsp]
	mov	r8, QWORD PTR instr$[rsp]
	mov	edx, DWORD PTR evallvl
	lea	rcx, OFFSET FLAT:$SG11017
	call	DoDebugMsg1

; 266  :   return(dst);

	mov	rax, QWORD PTR dst$[rsp]

; 267  : }

	add	rsp, 48					; 00000030H
	pop	rdi
	ret	0
RenderInstr ENDP
_TEXT	ENDS
; Function compile flags: /Odtp /RTCsu
; File d:\hjwasm\hjwasm2.13.1s\hjwasm2.13.1s\hll.c
_TEXT	SEGMENT
size$ = 32
rc$ = 36
p$ = 40
tv69 = 48
tv72 = 52
tv82 = 56
item$ = 80
GetCOp	PROC

; 173  : {

	mov	QWORD PTR [rsp+8], rcx
	push	rdi
	sub	rsp, 64					; 00000040H
	mov	rdi, rsp
	mov	ecx, 16
	mov	eax, -858993460				; ccccccccH
	rep stosd
	mov	rcx, QWORD PTR [rsp+80]

; 174  :   int size;
; 175  :   enum c_bop rc;
; 176  :   char *p = item->string_ptr;

	mov	rax, QWORD PTR item$[rsp]
	mov	rax, QWORD PTR [rax+8]
	mov	QWORD PTR p$[rsp], rax

; 177  : 
; 178  :   size = (item->token == T_STRING ? item->stringlen : 0);

	mov	rax, QWORD PTR item$[rsp]
	movzx	eax, BYTE PTR [rax]
	cmp	eax, 9
	jne	SHORT $LN45@GetCOp
	mov	rax, QWORD PTR item$[rsp]
	mov	eax, DWORD PTR [rax+16]
	mov	DWORD PTR tv69[rsp], eax
	jmp	SHORT $LN46@GetCOp
$LN45@GetCOp:
	mov	DWORD PTR tv69[rsp], 0
$LN46@GetCOp:
	mov	eax, DWORD PTR tv69[rsp]
	mov	DWORD PTR size$[rsp], eax

; 179  : 
; 180  :   if (size == 2) {

	cmp	DWORD PTR size$[rsp], 2
	jne	$LN6@GetCOp

; 181  :     switch (*(uint_16 *)p) {

	mov	rax, QWORD PTR p$[rsp]
	movzx	eax, WORD PTR [rax]
	mov	DWORD PTR tv72[rsp], eax
	cmp	DWORD PTR tv72[rsp], 15677		; 00003d3dH
	jg	SHORT $LN47@GetCOp
	cmp	DWORD PTR tv72[rsp], 15677		; 00003d3dH
	je	SHORT $LN8@GetCOp
	cmp	DWORD PTR tv72[rsp], 9766		; 00002626H
	je	SHORT $LN12@GetCOp
	cmp	DWORD PTR tv72[rsp], 15649		; 00003d21H
	je	SHORT $LN9@GetCOp
	cmp	DWORD PTR tv72[rsp], 15676		; 00003d3cH
	je	SHORT $LN11@GetCOp
	jmp	SHORT $LN14@GetCOp
$LN47@GetCOp:
	cmp	DWORD PTR tv72[rsp], 15678		; 00003d3eH
	je	SHORT $LN10@GetCOp
	cmp	DWORD PTR tv72[rsp], 31868		; 00007c7cH
	je	SHORT $LN13@GetCOp
	jmp	SHORT $LN14@GetCOp
$LN8@GetCOp:

; 182  :     case CHARS_EQ:  rc = COP_EQ;  break;

	mov	DWORD PTR rc$[rsp], 1
	jmp	SHORT $LN2@GetCOp
$LN9@GetCOp:

; 183  :     case CHARS_NE:  rc = COP_NE;  break;

	mov	DWORD PTR rc$[rsp], 2
	jmp	SHORT $LN2@GetCOp
$LN10@GetCOp:

; 184  :     case CHARS_GE:  rc = COP_GE;  break;

	mov	DWORD PTR rc$[rsp], 5
	jmp	SHORT $LN2@GetCOp
$LN11@GetCOp:

; 185  :     case CHARS_LE:  rc = COP_LE;  break;

	mov	DWORD PTR rc$[rsp], 6
	jmp	SHORT $LN2@GetCOp
$LN12@GetCOp:

; 186  :     case CHARS_AND: rc = COP_AND; break;

	mov	DWORD PTR rc$[rsp], 7
	jmp	SHORT $LN2@GetCOp
$LN13@GetCOp:

; 187  :     case CHARS_OR:  rc = COP_OR;  break;

	mov	DWORD PTR rc$[rsp], 8
	jmp	SHORT $LN2@GetCOp
$LN14@GetCOp:

; 188  :     default: return(COP_NONE);

	xor	eax, eax
	jmp	$LN1@GetCOp
$LN2@GetCOp:

; 189  :     }
; 190  :   }

	jmp	$LN7@GetCOp
$LN6@GetCOp:

; 191  :   else if (size == 1) {

	cmp	DWORD PTR size$[rsp], 1
	jne	SHORT $LN15@GetCOp

; 192  :     switch (*p) {

	mov	rax, QWORD PTR p$[rsp]
	movzx	eax, BYTE PTR [rax]
	mov	BYTE PTR tv82[rsp], al
	cmp	BYTE PTR tv82[rsp], 33			; 00000021H
	je	SHORT $LN20@GetCOp
	cmp	BYTE PTR tv82[rsp], 38			; 00000026H
	je	SHORT $LN19@GetCOp
	cmp	BYTE PTR tv82[rsp], 60			; 0000003cH
	je	SHORT $LN18@GetCOp
	cmp	BYTE PTR tv82[rsp], 62			; 0000003eH
	je	SHORT $LN17@GetCOp
	jmp	SHORT $LN21@GetCOp
$LN17@GetCOp:

; 193  :     case '>': rc = COP_GT;   break;

	mov	DWORD PTR rc$[rsp], 3
	jmp	SHORT $LN4@GetCOp
$LN18@GetCOp:

; 194  :     case '<': rc = COP_LT;   break;

	mov	DWORD PTR rc$[rsp], 4
	jmp	SHORT $LN4@GetCOp
$LN19@GetCOp:

; 195  :     case '&': rc = COP_ANDB; break;

	mov	DWORD PTR rc$[rsp], 9
	jmp	SHORT $LN4@GetCOp
$LN20@GetCOp:

; 196  :     case '!': rc = COP_NEG;  break;

	mov	DWORD PTR rc$[rsp], 10
	jmp	SHORT $LN4@GetCOp
$LN21@GetCOp:

; 197  :     default: return(COP_NONE);

	xor	eax, eax
	jmp	$LN1@GetCOp
$LN4@GetCOp:

; 198  :     }
; 199  :   }

	jmp	$LN16@GetCOp
$LN15@GetCOp:

; 200  :   else {
; 201  :     if (item->token != T_ID)

	mov	rax, QWORD PTR item$[rsp]
	movzx	eax, BYTE PTR [rax]
	cmp	eax, 8
	je	SHORT $LN22@GetCOp

; 202  :       return(COP_NONE);

	xor	eax, eax
	jmp	$LN1@GetCOp
$LN22@GetCOp:

; 203  :     /* a valid "flag" string must end with a question mark */
; 204  :     size = strlen(p);

	mov	rcx, QWORD PTR p$[rsp]
	call	strlen
	mov	DWORD PTR size$[rsp], eax

; 205  :     if (*(p + size - 1) != '?')

	movsxd	rax, DWORD PTR size$[rsp]
	mov	rcx, QWORD PTR p$[rsp]
	movsx	eax, BYTE PTR [rcx+rax-1]
	cmp	eax, 63					; 0000003fH
	je	SHORT $LN23@GetCOp

; 206  :       return(COP_NONE);

	xor	eax, eax
	jmp	$LN1@GetCOp
$LN23@GetCOp:

; 207  :     if (size == 5 && (0 == _memicmp(p, "ZERO", 4)))

	cmp	DWORD PTR size$[rsp], 5
	jne	SHORT $LN24@GetCOp
	mov	r8d, 4
	lea	rdx, OFFSET FLAT:$SG10967
	mov	rcx, QWORD PTR p$[rsp]
	call	QWORD PTR __imp__memicmp
	test	eax, eax
	jne	SHORT $LN24@GetCOp

; 208  :       rc = COP_ZERO;

	mov	DWORD PTR rc$[rsp], 11
	jmp	$LN25@GetCOp
$LN24@GetCOp:

; 209  :     else if (size == 6 && (0 == _memicmp(p, "CARRY", 5)))

	cmp	DWORD PTR size$[rsp], 6
	jne	SHORT $LN26@GetCOp
	mov	r8d, 5
	lea	rdx, OFFSET FLAT:$SG10970
	mov	rcx, QWORD PTR p$[rsp]
	call	QWORD PTR __imp__memicmp
	test	eax, eax
	jne	SHORT $LN26@GetCOp

; 210  :       rc = COP_CARRY;

	mov	DWORD PTR rc$[rsp], 12
	jmp	$LN27@GetCOp
$LN26@GetCOp:

; 211  :     else if (size == 5 && (0 == _memicmp(p, "SIGN", 4)))

	cmp	DWORD PTR size$[rsp], 5
	jne	SHORT $LN28@GetCOp
	mov	r8d, 4
	lea	rdx, OFFSET FLAT:$SG10973
	mov	rcx, QWORD PTR p$[rsp]
	call	QWORD PTR __imp__memicmp
	test	eax, eax
	jne	SHORT $LN28@GetCOp

; 212  :       rc = COP_SIGN;

	mov	DWORD PTR rc$[rsp], 13
	jmp	$LN29@GetCOp
$LN28@GetCOp:

; 213  :     else if (size == 7 && (0 == _memicmp(p, "PARITY", 6)))

	cmp	DWORD PTR size$[rsp], 7
	jne	SHORT $LN30@GetCOp
	mov	r8d, 6
	lea	rdx, OFFSET FLAT:$SG10976
	mov	rcx, QWORD PTR p$[rsp]
	call	QWORD PTR __imp__memicmp
	test	eax, eax
	jne	SHORT $LN30@GetCOp

; 214  :       rc = COP_PARITY;

	mov	DWORD PTR rc$[rsp], 14
	jmp	$LN31@GetCOp
$LN30@GetCOp:

; 215  :     else if (size == 9 && (0 == _memicmp(p, "OVERFLOW", 8)))

	cmp	DWORD PTR size$[rsp], 9
	jne	SHORT $LN32@GetCOp
	mov	r8d, 8
	lea	rdx, OFFSET FLAT:$SG10979
	mov	rcx, QWORD PTR p$[rsp]
	call	QWORD PTR __imp__memicmp
	test	eax, eax
	jne	SHORT $LN32@GetCOp

; 216  :       rc = COP_OVERFLOW;

	mov	DWORD PTR rc$[rsp], 15
	jmp	$LN33@GetCOp
$LN32@GetCOp:

; 217  :     //added by habran
; 218  :     else if (size == 5 && (0 == _memicmp(p, "LESS", 4)))

	cmp	DWORD PTR size$[rsp], 5
	jne	SHORT $LN34@GetCOp
	mov	r8d, 4
	lea	rdx, OFFSET FLAT:$SG10982
	mov	rcx, QWORD PTR p$[rsp]
	call	QWORD PTR __imp__memicmp
	test	eax, eax
	jne	SHORT $LN34@GetCOp

; 219  :       rc = COP_LESS;

	mov	DWORD PTR rc$[rsp], 16
	jmp	$LN35@GetCOp
$LN34@GetCOp:

; 220  :     else if (size == 8 && (0 == _memicmp(p, "GREATER", 7)))

	cmp	DWORD PTR size$[rsp], 8
	jne	SHORT $LN36@GetCOp
	mov	r8d, 7
	lea	rdx, OFFSET FLAT:$SG10985
	mov	rcx, QWORD PTR p$[rsp]
	call	QWORD PTR __imp__memicmp
	test	eax, eax
	jne	SHORT $LN36@GetCOp

; 221  :       rc = COP_GREATER;

	mov	DWORD PTR rc$[rsp], 17
	jmp	$LN37@GetCOp
$LN36@GetCOp:

; 222  :     else if (size == 6 && (0 == _memicmp(p, "ABOVE", 5)))

	cmp	DWORD PTR size$[rsp], 6
	jne	SHORT $LN38@GetCOp
	mov	r8d, 5
	lea	rdx, OFFSET FLAT:$SG10988
	mov	rcx, QWORD PTR p$[rsp]
	call	QWORD PTR __imp__memicmp
	test	eax, eax
	jne	SHORT $LN38@GetCOp

; 223  :       rc = COP_ABOVE;

	mov	DWORD PTR rc$[rsp], 18
	jmp	SHORT $LN39@GetCOp
$LN38@GetCOp:

; 224  :     else if (size == 6 && (0 == _memicmp(p, "EQUAL", 5)))

	cmp	DWORD PTR size$[rsp], 6
	jne	SHORT $LN40@GetCOp
	mov	r8d, 5
	lea	rdx, OFFSET FLAT:$SG10991
	mov	rcx, QWORD PTR p$[rsp]
	call	QWORD PTR __imp__memicmp
	test	eax, eax
	jne	SHORT $LN40@GetCOp

; 225  :       rc = COP_EQUAL;

	mov	DWORD PTR rc$[rsp], 19
	jmp	SHORT $LN41@GetCOp
$LN40@GetCOp:

; 226  :     else if (size == 6 && (0 == _memicmp(p, "BELOW", 5)))

	cmp	DWORD PTR size$[rsp], 6
	jne	SHORT $LN42@GetCOp
	mov	r8d, 5
	lea	rdx, OFFSET FLAT:$SG10994
	mov	rcx, QWORD PTR p$[rsp]
	call	QWORD PTR __imp__memicmp
	test	eax, eax
	jne	SHORT $LN42@GetCOp

; 227  :       rc = COP_BELOW;

	mov	DWORD PTR rc$[rsp], 20
	jmp	SHORT $LN43@GetCOp
$LN42@GetCOp:

; 228  :     else
; 229  :       return(COP_NONE);

	xor	eax, eax
	jmp	SHORT $LN1@GetCOp
$LN43@GetCOp:
$LN41@GetCOp:
$LN39@GetCOp:
$LN37@GetCOp:
$LN35@GetCOp:
$LN33@GetCOp:
$LN31@GetCOp:
$LN29@GetCOp:
$LN27@GetCOp:
$LN25@GetCOp:
$LN16@GetCOp:
$LN7@GetCOp:

; 230  :   }
; 231  :   return(rc);

	mov	eax, DWORD PTR rc$[rsp]
$LN1@GetCOp:

; 232  : }

	add	rsp, 64					; 00000040H
	pop	rdi
	ret	0
GetCOp	ENDP
_TEXT	ENDS
; Function compile flags: /Odtp /RTCsu
; File d:\hjwasm\hjwasm2.13.1s\hjwasm2.13.1s\hll.c
_TEXT	SEGMENT
GetHllLabel PROC

; 152  : {

	push	rdi

; 153  :   return (++ModuleInfo.hll_label);

	mov	eax, DWORD PTR ModuleInfo+352
	inc	eax
	mov	DWORD PTR ModuleInfo+352, eax
	mov	eax, DWORD PTR ModuleInfo+352

; 154  : }

	pop	rdi
	ret	0
GetHllLabel ENDP
_TEXT	ENDS
; Function compile flags: /Odtp /RTCsu
; File d:\hjwasm\hjwasm2.13.1s\hjwasm2.13.1s\hll.c
_TEXT	SEGMENT
ptr$ = 64
truelabel$ = 72
nlabel$4 = 76
olabel$5 = 80
buff$6 = 104
p$7 = 136
tv83 = 152
tv128 = 160
tv169 = 168
tv178 = 176
tv206 = 184
tv242 = 188
__$ArrayPad$ = 192
hll$ = 224
i$ = 232
tokenarray$ = 240
ilabel$ = 248
is_true$ = 256
buffer$ = 264
hllop$ = 272
GetExpression PROC

; 677  : {

	mov	DWORD PTR [rsp+32], r9d
	mov	QWORD PTR [rsp+24], r8
	mov	QWORD PTR [rsp+16], rdx
	mov	QWORD PTR [rsp+8], rcx
	push	rdi
	sub	rsp, 208				; 000000d0H
	mov	rdi, rsp
	mov	ecx, 52					; 00000034H
	mov	eax, -858993460				; ccccccccH
	rep stosd
	mov	rcx, QWORD PTR [rsp+224]
	mov	rax, QWORD PTR __security_cookie
	xor	rax, rsp
	mov	QWORD PTR __$ArrayPad$[rsp], rax

; 678  :   char *ptr = buffer;

	mov	rax, QWORD PTR buffer$[rsp]
	mov	QWORD PTR ptr$[rsp], rax

; 679  :   uint_32 truelabel = 0;

	mov	DWORD PTR truelabel$[rsp], 0

; 680  : 
; 681  :   DebugMsg1(("%u GetExpression(>%.32s< buf=>%s<) enter\n", ++evallvl, tokenarray[*i].tokpos, buffer));

	mov	eax, DWORD PTR evallvl
	inc	eax
	mov	DWORD PTR evallvl, eax
	mov	rax, QWORD PTR i$[rsp]
	movsxd	rax, DWORD PTR [rax]
	imul	rax, rax, 32				; 00000020H
	mov	r9, QWORD PTR buffer$[rsp]
	mov	rcx, QWORD PTR tokenarray$[rsp]
	mov	r8, QWORD PTR [rcx+rax+24]
	mov	edx, DWORD PTR evallvl
	lea	rcx, OFFSET FLAT:$SG11256
	call	DoDebugMsg1

; 682  : 
; 683  :   /* v2.08: structure changed from for(;;) to while() to increase
; 684  :   * readability and - optionally - handle the second operand differently
; 685  :   * than the first.
; 686  :   */
; 687  : 
; 688  :   if (ERROR == GetAndExpression(hll, i, tokenarray, ilabel, is_true, ptr, hllop)) {

	mov	rax, QWORD PTR hllop$[rsp]
	mov	QWORD PTR [rsp+48], rax
	mov	rax, QWORD PTR ptr$[rsp]
	mov	QWORD PTR [rsp+40], rax
	movzx	eax, BYTE PTR is_true$[rsp]
	mov	BYTE PTR [rsp+32], al
	mov	r9d, DWORD PTR ilabel$[rsp]
	mov	r8, QWORD PTR tokenarray$[rsp]
	mov	rdx, QWORD PTR i$[rsp]
	mov	rcx, QWORD PTR hll$[rsp]
	call	GetAndExpression
	cmp	eax, -1
	jne	SHORT $LN4@GetExpress

; 689  :     DebugMsg1(("%u GetExpression exit, error\n", evallvl--));

	mov	eax, DWORD PTR evallvl
	mov	DWORD PTR tv83[rsp], eax
	mov	eax, DWORD PTR evallvl
	dec	eax
	mov	DWORD PTR evallvl, eax
	mov	edx, DWORD PTR tv83[rsp]
	lea	rcx, OFFSET FLAT:$SG11258
	call	DoDebugMsg1

; 690  :     return(ERROR);

	mov	eax, -1
	jmp	$LN1@GetExpress
$LN4@GetExpress:
$LN2@GetExpress:

; 691  :   }
; 692  :   while (COP_OR == GetCOp(&tokenarray[*i])) {

	mov	rax, QWORD PTR i$[rsp]
	movsxd	rax, DWORD PTR [rax]
	imul	rax, rax, 32				; 00000020H
	mov	rcx, QWORD PTR tokenarray$[rsp]
	add	rcx, rax
	mov	rax, rcx
	mov	rcx, rax
	call	GetCOp
	cmp	eax, 8
	jne	$LN3@GetExpress

; 693  : 
; 694  :     uint_32 nlabel;
; 695  :     uint_32 olabel;
; 696  :     char buff[16];
; 697  : 
; 698  :     /* the generated code of last simple expression has to be modified
; 699  :     1. the last jump must be inverted
; 700  :     2. a "is_true" label must be created (it's used to jump "behind" the expr)
; 701  :     3. create a new label
; 702  :     4. the current "false" label must be generated
; 703  : 
; 704  :     if it is a .REPEAT, step 4 is slightly more difficult, since the "false"
; 705  :     label is already "gone":
; 706  :     4a. create a new label
; 707  :     4b. replace the "false" label in the generated code by the new label
; 708  :     */
; 709  : 
; 710  :     (*i)++;

	mov	rax, QWORD PTR i$[rsp]
	mov	eax, DWORD PTR [rax]
	inc	eax
	mov	rcx, QWORD PTR i$[rsp]
	mov	DWORD PTR [rcx], eax

; 711  :     DebugMsg1(("%u GetExpression: ||-operator found, is_true=%u, lastjmp=%s\n", evallvl, is_true, hllop->lastjmp ? hllop->lastjmp : "NULL"));

	mov	rax, QWORD PTR hllop$[rsp]
	cmp	QWORD PTR [rax], 0
	je	SHORT $LN16@GetExpress
	mov	rax, QWORD PTR hllop$[rsp]
	mov	rax, QWORD PTR [rax]
	mov	QWORD PTR tv128[rsp], rax
	jmp	SHORT $LN17@GetExpress
$LN16@GetExpress:
	lea	rax, OFFSET FLAT:$SG11259
	mov	QWORD PTR tv128[rsp], rax
$LN17@GetExpress:
	movzx	eax, BYTE PTR is_true$[rsp]
	mov	r9, QWORD PTR tv128[rsp]
	mov	r8d, eax
	mov	edx, DWORD PTR evallvl
	lea	rcx, OFFSET FLAT:$SG11260
	call	DoDebugMsg1

; 712  : 
; 713  :     if (is_true == FALSE) {

	movzx	eax, BYTE PTR is_true$[rsp]
	test	eax, eax
	jne	$LN5@GetExpress

; 714  :       if (hllop->lastjmp) {

	mov	rax, QWORD PTR hllop$[rsp]
	cmp	QWORD PTR [rax], 0
	je	$LN6@GetExpress

; 715  :         char *p = hllop->lastjmp;

	mov	rax, QWORD PTR hllop$[rsp]
	mov	rax, QWORD PTR [rax]
	mov	QWORD PTR p$7[rsp], rax

; 716  :         InvertJump(p);           /* step 1 */

	mov	rcx, QWORD PTR p$7[rsp]
	call	InvertJump

; 717  :         if (truelabel == 0)      /* step 2 */

	cmp	DWORD PTR truelabel$[rsp], 0
	jne	SHORT $LN7@GetExpress

; 718  :           truelabel = GetHllLabel();

	call	GetHllLabel
	mov	DWORD PTR truelabel$[rsp], eax
$LN7@GetExpress:

; 719  :         if (*p) { /* v2.11: there might be a 0 at lastjmp */

	mov	rax, QWORD PTR p$7[rsp]
	movsx	eax, BYTE PTR [rax]
	test	eax, eax
	je	SHORT $LN8@GetExpress

; 720  :           p += 4;                /* skip 'jcc ' or 'jmp ' */

	mov	rax, QWORD PTR p$7[rsp]
	add	rax, 4
	mov	QWORD PTR p$7[rsp], rax

; 721  :           GetLabelStr(truelabel, p);

	mov	rdx, QWORD PTR p$7[rsp]
	mov	ecx, DWORD PTR truelabel$[rsp]
	call	GetLabelStr

; 722  :           strcat(p, EOLSTR);

	lea	rdx, OFFSET FLAT:$SG11265
	mov	rcx, QWORD PTR p$7[rsp]
	call	strcat
$LN8@GetExpress:

; 723  :         }
; 724  :         /* v2.08: if-block added */
; 725  :         if (hllop->lasttruelabel)

	mov	rax, QWORD PTR hllop$[rsp]
	cmp	DWORD PTR [rax+8], 0
	je	SHORT $LN9@GetExpress

; 726  :           ReplaceLabel(ptr, hllop->lasttruelabel, truelabel);

	mov	r8d, DWORD PTR truelabel$[rsp]
	mov	rax, QWORD PTR hllop$[rsp]
	mov	edx, DWORD PTR [rax+8]
	mov	rcx, QWORD PTR ptr$[rsp]
	call	ReplaceLabel
$LN9@GetExpress:

; 727  :         DebugMsg1(("%u GetExpression: jmp inverted, dest changed >%s<\n", evallvl, ptr));

	mov	r8, QWORD PTR ptr$[rsp]
	mov	edx, DWORD PTR evallvl
	lea	rcx, OFFSET FLAT:$SG11267
	call	DoDebugMsg1

; 728  :         hllop->lastjmp = NULL;

	mov	rax, QWORD PTR hllop$[rsp]
	mov	QWORD PTR [rax], 0

; 729  : 
; 730  :         nlabel = GetHllLabel();  /* step 3 */

	call	GetHllLabel
	mov	DWORD PTR nlabel$4[rsp], eax

; 731  :         olabel = GetLabel(hll, ilabel);

	mov	edx, DWORD PTR ilabel$[rsp]
	mov	rcx, QWORD PTR hll$[rsp]
	call	GetLabel
	mov	DWORD PTR olabel$5[rsp], eax

; 732  :         if (hll->cmd == HLL_REPEAT) {

	mov	rax, QWORD PTR hll$[rsp]
	cmp	DWORD PTR [rax+52], 2
	jne	SHORT $LN10@GetExpress

; 733  :           ReplaceLabel(buffer, olabel, nlabel);

	mov	r8d, DWORD PTR nlabel$4[rsp]
	mov	edx, DWORD PTR olabel$5[rsp]
	mov	rcx, QWORD PTR buffer$[rsp]
	call	ReplaceLabel

; 734  :           sprintf(ptr + strlen(ptr), "%s" LABELQUAL EOLSTR, GetLabelStr(nlabel, buff));

	lea	rdx, QWORD PTR buff$6[rsp]
	mov	ecx, DWORD PTR nlabel$4[rsp]
	call	GetLabelStr
	mov	QWORD PTR tv169[rsp], rax
	mov	rcx, QWORD PTR ptr$[rsp]
	call	strlen
	mov	rcx, QWORD PTR ptr$[rsp]
	add	rcx, rax
	mov	rax, rcx
	mov	rcx, QWORD PTR tv169[rsp]
	mov	r8, rcx
	lea	rdx, OFFSET FLAT:$SG11270
	mov	rcx, rax
	call	sprintf

; 735  :         }

	jmp	SHORT $LN11@GetExpress
$LN10@GetExpress:

; 736  :         else {
; 737  :           sprintf(ptr + strlen(ptr), "%s" LABELQUAL EOLSTR, GetLabelStr(olabel, buff));

	lea	rdx, QWORD PTR buff$6[rsp]
	mov	ecx, DWORD PTR olabel$5[rsp]
	call	GetLabelStr
	mov	QWORD PTR tv178[rsp], rax
	mov	rcx, QWORD PTR ptr$[rsp]
	call	strlen
	mov	rcx, QWORD PTR ptr$[rsp]
	add	rcx, rax
	mov	rax, rcx
	mov	rcx, QWORD PTR tv178[rsp]
	mov	r8, rcx
	lea	rdx, OFFSET FLAT:$SG11271
	mov	rcx, rax
	call	sprintf

; 738  :           ReplaceLabel(buffer, olabel, nlabel);

	mov	r8d, DWORD PTR nlabel$4[rsp]
	mov	edx, DWORD PTR olabel$5[rsp]
	mov	rcx, QWORD PTR buffer$[rsp]
	call	ReplaceLabel
$LN11@GetExpress:

; 739  :         }
; 740  :         DebugMsg1(("%u GetExpression: dest changed, label added >%s<\n", evallvl, ptr));

	mov	r8, QWORD PTR ptr$[rsp]
	mov	edx, DWORD PTR evallvl
	lea	rcx, OFFSET FLAT:$SG11272
	call	DoDebugMsg1
$LN6@GetExpress:
$LN5@GetExpress:

; 741  :       }
; 742  :     }
; 743  :     ptr += strlen(ptr);

	mov	rcx, QWORD PTR ptr$[rsp]
	call	strlen
	mov	rcx, QWORD PTR ptr$[rsp]
	add	rcx, rax
	mov	rax, rcx
	mov	QWORD PTR ptr$[rsp], rax

; 744  :     hllop->lasttruelabel = 0; /* v2.08 */

	mov	rax, QWORD PTR hllop$[rsp]
	mov	DWORD PTR [rax+8], 0

; 745  :     if (ERROR == GetAndExpression(hll, i, tokenarray, ilabel, is_true, ptr, hllop)) {

	mov	rax, QWORD PTR hllop$[rsp]
	mov	QWORD PTR [rsp+48], rax
	mov	rax, QWORD PTR ptr$[rsp]
	mov	QWORD PTR [rsp+40], rax
	movzx	eax, BYTE PTR is_true$[rsp]
	mov	BYTE PTR [rsp+32], al
	mov	r9d, DWORD PTR ilabel$[rsp]
	mov	r8, QWORD PTR tokenarray$[rsp]
	mov	rdx, QWORD PTR i$[rsp]
	mov	rcx, QWORD PTR hll$[rsp]
	call	GetAndExpression
	cmp	eax, -1
	jne	SHORT $LN12@GetExpress

; 746  :       DebugMsg1(("%u GetExpression exit, error\n", evallvl--));

	mov	eax, DWORD PTR evallvl
	mov	DWORD PTR tv206[rsp], eax
	mov	eax, DWORD PTR evallvl
	dec	eax
	mov	DWORD PTR evallvl, eax
	mov	edx, DWORD PTR tv206[rsp]
	lea	rcx, OFFSET FLAT:$SG11274
	call	DoDebugMsg1

; 747  :       return(ERROR);

	mov	eax, -1
	jmp	$LN1@GetExpress
$LN12@GetExpress:

; 748  :     }
; 749  :   }

	jmp	$LN2@GetExpress
$LN3@GetExpress:

; 750  :   if (truelabel > 0) {

	cmp	DWORD PTR truelabel$[rsp], 0
	jbe	$LN13@GetExpress

; 751  :     /* v2.08: this is needed, but ober-hackish. to be improved... */
; 752  :     if (hllop->lastjmp && hllop->lasttruelabel) {

	mov	rax, QWORD PTR hllop$[rsp]
	cmp	QWORD PTR [rax], 0
	je	SHORT $LN14@GetExpress
	mov	rax, QWORD PTR hllop$[rsp]
	cmp	DWORD PTR [rax+8], 0
	je	SHORT $LN14@GetExpress

; 753  :       DebugMsg1(("%u GetExpression: suppressed ReplaceLabel %u -> %u, lastjmp=%s\n", evallvl, hllop->lasttruelabel, truelabel, hllop->lastjmp));

	mov	rax, QWORD PTR hllop$[rsp]
	mov	rax, QWORD PTR [rax]
	mov	QWORD PTR [rsp+32], rax
	mov	r9d, DWORD PTR truelabel$[rsp]
	mov	rax, QWORD PTR hllop$[rsp]
	mov	r8d, DWORD PTR [rax+8]
	mov	edx, DWORD PTR evallvl
	lea	rcx, OFFSET FLAT:$SG11277
	call	DoDebugMsg1

; 754  :       ReplaceLabel(ptr, hllop->lasttruelabel, truelabel);

	mov	r8d, DWORD PTR truelabel$[rsp]
	mov	rax, QWORD PTR hllop$[rsp]
	mov	edx, DWORD PTR [rax+8]
	mov	rcx, QWORD PTR ptr$[rsp]
	call	ReplaceLabel

; 755  :       *(strchr(hllop->lastjmp, EOLCHAR) + 1) = NULLC;

	mov	edx, 94					; 0000005eH
	mov	rax, QWORD PTR hllop$[rsp]
	mov	rcx, QWORD PTR [rax]
	call	QWORD PTR __imp_strchr
	mov	BYTE PTR [rax+1], 0
$LN14@GetExpress:

; 756  :     }
; 757  :     ptr += strlen(ptr);

	mov	rcx, QWORD PTR ptr$[rsp]
	call	strlen
	mov	rcx, QWORD PTR ptr$[rsp]
	add	rcx, rax
	mov	rax, rcx
	mov	QWORD PTR ptr$[rsp], rax

; 758  :     GetLabelStr(truelabel, ptr);

	mov	rdx, QWORD PTR ptr$[rsp]
	mov	ecx, DWORD PTR truelabel$[rsp]
	call	GetLabelStr

; 759  :     strcat(ptr, LABELQUAL EOLSTR);

	lea	rdx, OFFSET FLAT:$SG11278
	mov	rcx, QWORD PTR ptr$[rsp]
	call	strcat

; 760  :     DebugMsg1(("%u GetExpression: label added >%s<\n", evallvl, ptr));

	mov	r8, QWORD PTR ptr$[rsp]
	mov	edx, DWORD PTR evallvl
	lea	rcx, OFFSET FLAT:$SG11279
	call	DoDebugMsg1

; 761  :     hllop->lasttruelabel = truelabel; /* v2.08 */

	mov	rax, QWORD PTR hllop$[rsp]
	mov	ecx, DWORD PTR truelabel$[rsp]
	mov	DWORD PTR [rax+8], ecx
$LN13@GetExpress:

; 762  :   }
; 763  :   DebugMsg1(("%u GetExpression exit\n", evallvl--));

	mov	eax, DWORD PTR evallvl
	mov	DWORD PTR tv242[rsp], eax
	mov	eax, DWORD PTR evallvl
	dec	eax
	mov	DWORD PTR evallvl, eax
	mov	edx, DWORD PTR tv242[rsp]
	lea	rcx, OFFSET FLAT:$SG11280
	call	DoDebugMsg1

; 764  :   return(NOT_ERROR);

	xor	eax, eax
$LN1@GetExpress:

; 765  : }

	mov	rdi, rax
	mov	rcx, rsp
	lea	rdx, OFFSET FLAT:GetExpression$rtcFrameData
	call	_RTC_CheckStackVars
	mov	rax, rdi
	mov	rcx, QWORD PTR __$ArrayPad$[rsp]
	xor	rcx, rsp
	call	__security_check_cookie
	add	rsp, 208				; 000000d0H
	pop	rdi
	ret	0
GetExpression ENDP
_TEXT	ENDS
; Function compile flags: /Odtp /RTCsu
; File d:\hjwasm\hjwasm2.13.1s\hjwasm2.13.1s\hll.c
_TEXT	SEGMENT
HllCheckOpen PROC

; 1714 : {

$LN4:
	push	rdi
	sub	rsp, 48					; 00000030H
	mov	rdi, rsp
	mov	ecx, 12
	mov	eax, -858993460				; ccccccccH
	rep stosd

; 1715 :   if (HllStack) {

	cmp	QWORD PTR ModuleInfo+224, 0
	je	SHORT $LN2@HllCheckOp

; 1716 :     //EmitErr( BLOCK_NESTING_ERROR, ".if-.repeat-.while" );
; 1717 :     EmitErr(UNMATCHED_BLOCK_NESTING, ".if-.repeat-.while");

	lea	rdx, OFFSET FLAT:$SG11807
	mov	ecx, 142				; 0000008eH
	call	EmitErr
$LN2@HllCheckOp:

; 1718 :   }
; 1719 :   DebugMsg(("HllCheckOpen: allocated items:%u, reused items:%u, .while cond-blocks/bytes:%u/%u\n", cntAlloc, cntReused, cntCond, cntCondBytes));

	mov	eax, DWORD PTR cntCondBytes
	mov	DWORD PTR [rsp+32], eax
	mov	r9d, DWORD PTR cntCond
	mov	r8d, DWORD PTR cntReused
	mov	edx, DWORD PTR cntAlloc
	lea	rcx, OFFSET FLAT:$SG11808
	call	DoDebugMsg

; 1720 : }

	add	rsp, 48					; 00000030H
	pop	rdi
	ret	0
HllCheckOpen ENDP
_TEXT	ENDS
; Function compile flags: /Odtp /RTCsu
; File d:\hjwasm\hjwasm2.13.1s\hjwasm2.13.1s\hll.c
_TEXT	SEGMENT
pass$ = 16
HllInit	PROC

; 1742 : {

$LN4:
	mov	DWORD PTR [rsp+8], ecx
	push	rdi

; 1743 :   //if ( pass == PASS_1 )
; 1744 :   //    HllFree = NULL;
; 1745 : 
; 1746 :   //HllStack = NULL; /* empty stack of open hll directives */
; 1747 :   ModuleInfo.hll_label = 0; /* init hll label counter */

	mov	DWORD PTR ModuleInfo+352, 0

; 1748 : #ifdef DEBUG_OUT
; 1749 :   evallvl = 0;

	mov	DWORD PTR evallvl, 0

; 1750 :   if (pass == PASS_1) {

	cmp	DWORD PTR pass$[rsp], 0
	jne	SHORT $LN2@HllInit

; 1751 :     cntAlloc = 0;

	mov	DWORD PTR cntAlloc, 0

; 1752 :     cntReused = 0;

	mov	DWORD PTR cntReused, 0

; 1753 :     cntCond = 0;

	mov	DWORD PTR cntCond, 0

; 1754 :     cntCondBytes = 0;

	mov	DWORD PTR cntCondBytes, 0
$LN2@HllInit:

; 1755 :   }
; 1756 : #endif
; 1757 :   return;
; 1758 : }

	pop	rdi
	ret	0
HllInit	ENDP
_TEXT	ENDS
; Function compile flags: /Odtp /RTCsu
; File c:\program files (x86)\windows kits\10\include\10.0.10150.0\ucrt\stdio.h
;	COMDAT sprintf
_TEXT	SEGMENT
_Result$ = 32
_ArgList$ = 56
_Buffer$ = 96
_Format$ = 104
sprintf	PROC						; COMDAT

; 1776 : {

$LN3:
	mov	QWORD PTR [rsp+16], rdx
	mov	QWORD PTR [rsp+8], rcx
	mov	QWORD PTR [rsp+24], r8
	mov	QWORD PTR [rsp+32], r9
	push	rdi
	sub	rsp, 80					; 00000050H
	mov	rdi, rsp
	mov	ecx, 20
	mov	eax, -858993460				; ccccccccH
	rep stosd
	mov	rcx, QWORD PTR [rsp+96]

; 1777 :     int _Result;
; 1778 :     va_list _ArgList;
; 1779 :     __crt_va_start(_ArgList, _Format);

	lea	rax, QWORD PTR _Format$[rsp+8]
	mov	QWORD PTR _ArgList$[rsp], rax

; 1780 : 
; 1781 :     #pragma warning(push)
; 1782 :     #pragma warning(disable: 4996) // Deprecation
; 1783 :     _Result = _vsprintf_l(_Buffer, _Format, NULL, _ArgList);

	mov	r9, QWORD PTR _ArgList$[rsp]
	xor	r8d, r8d
	mov	rdx, QWORD PTR _Format$[rsp]
	mov	rcx, QWORD PTR _Buffer$[rsp]
	call	_vsprintf_l
	mov	DWORD PTR _Result$[rsp], eax

; 1784 :     #pragma warning(pop)
; 1785 : 
; 1786 :     __crt_va_end(_ArgList);

	mov	QWORD PTR _ArgList$[rsp], 0

; 1787 :     return _Result;

	mov	eax, DWORD PTR _Result$[rsp]

; 1788 : }

	mov	edi, eax
	mov	rcx, rsp
	lea	rdx, OFFSET FLAT:sprintf$rtcFrameData
	call	_RTC_CheckStackVars
	mov	eax, edi
	add	rsp, 80					; 00000050H
	pop	rdi
	ret	0
sprintf	ENDP
_TEXT	ENDS
; Function compile flags: /Odtp /RTCsu
; File c:\program files (x86)\windows kits\10\include\10.0.10150.0\ucrt\stdio.h
;	COMDAT _vsprintf_l
_TEXT	SEGMENT
_Buffer$ = 64
_Format$ = 72
_Locale$ = 80
_ArgList$ = 88
_vsprintf_l PROC					; COMDAT

; 1455 : {

$LN3:
	mov	QWORD PTR [rsp+32], r9
	mov	QWORD PTR [rsp+24], r8
	mov	QWORD PTR [rsp+16], rdx
	mov	QWORD PTR [rsp+8], rcx
	push	rdi
	sub	rsp, 48					; 00000030H
	mov	rdi, rsp
	mov	ecx, 12
	mov	eax, -858993460				; ccccccccH
	rep stosd
	mov	rcx, QWORD PTR [rsp+64]

; 1456 :     #pragma warning(push)
; 1457 :     #pragma warning(disable: 4996) // Deprecation
; 1458 :     return _vsnprintf_l(_Buffer, (size_t)-1, _Format, _Locale, _ArgList);

	mov	rax, QWORD PTR _ArgList$[rsp]
	mov	QWORD PTR [rsp+32], rax
	mov	r9, QWORD PTR _Locale$[rsp]
	mov	r8, QWORD PTR _Format$[rsp]
	mov	rdx, -1
	mov	rcx, QWORD PTR _Buffer$[rsp]
	call	_vsnprintf_l

; 1459 :     #pragma warning(pop)
; 1460 : }

	add	rsp, 48					; 00000030H
	pop	rdi
	ret	0
_vsprintf_l ENDP
_TEXT	ENDS
; Function compile flags: /Odtp /RTCsu
; File c:\program files (x86)\windows kits\10\include\10.0.10150.0\ucrt\stdio.h
;	COMDAT _vsnprintf_l
_TEXT	SEGMENT
_Result$ = 48
tv74 = 52
_Buffer$ = 80
_BufferCount$ = 88
_Format$ = 96
_Locale$ = 104
_ArgList$ = 112
_vsnprintf_l PROC					; COMDAT

; 1385 : {

$LN5:
	mov	QWORD PTR [rsp+32], r9
	mov	QWORD PTR [rsp+24], r8
	mov	QWORD PTR [rsp+16], rdx
	mov	QWORD PTR [rsp+8], rcx
	push	rdi
	sub	rsp, 64					; 00000040H
	mov	rdi, rsp
	mov	ecx, 16
	mov	eax, -858993460				; ccccccccH
	rep stosd
	mov	rcx, QWORD PTR [rsp+80]

; 1386 :     int const _Result = __stdio_common_vsprintf(

	call	__local_stdio_printf_options
	mov	rax, QWORD PTR [rax]
	or	rax, 1
	mov	rcx, QWORD PTR _ArgList$[rsp]
	mov	QWORD PTR [rsp+40], rcx
	mov	rcx, QWORD PTR _Locale$[rsp]
	mov	QWORD PTR [rsp+32], rcx
	mov	r9, QWORD PTR _Format$[rsp]
	mov	r8, QWORD PTR _BufferCount$[rsp]
	mov	rdx, QWORD PTR _Buffer$[rsp]
	mov	rcx, rax
	call	QWORD PTR __imp___stdio_common_vsprintf
	mov	DWORD PTR _Result$[rsp], eax

; 1387 :         _CRT_INTERNAL_LOCAL_PRINTF_OPTIONS | _CRT_INTERNAL_PRINTF_LEGACY_VSPRINTF_NULL_TERMINATION,
; 1388 :         _Buffer, _BufferCount, _Format, _Locale, _ArgList);
; 1389 : 
; 1390 :     return _Result < 0 ? -1 : _Result;

	cmp	DWORD PTR _Result$[rsp], 0
	jge	SHORT $LN3@vsnprintf_
	mov	DWORD PTR tv74[rsp], -1
	jmp	SHORT $LN4@vsnprintf_
$LN3@vsnprintf_:
	mov	eax, DWORD PTR _Result$[rsp]
	mov	DWORD PTR tv74[rsp], eax
$LN4@vsnprintf_:
	mov	eax, DWORD PTR tv74[rsp]

; 1391 : }

	add	rsp, 64					; 00000040H
	pop	rdi
	ret	0
_vsnprintf_l ENDP
_TEXT	ENDS
; Function compile flags: /Odtp /RTCsu
; File c:\program files (x86)\windows kits\10\include\10.0.10150.0\ucrt\corecrt_stdio_config.h
;	COMDAT __local_stdio_printf_options
_TEXT	SEGMENT
__local_stdio_printf_options PROC			; COMDAT

; 73   : {

$LN3:
	push	rdi

; 74   :     static unsigned __int64 _OptionsStorage;
; 75   :     return &_OptionsStorage;

	lea	rax, OFFSET FLAT:?_OptionsStorage@?1??__local_stdio_printf_options@@9@9 ; `__local_stdio_printf_options'::`2'::_OptionsStorage

; 76   : }

	pop	rdi
	ret	0
__local_stdio_printf_options ENDP
_TEXT	ENDS
END
