; Listing generated by Microsoft (R) Optimizing Compiler Version 19.00.23026.0 

include listing.inc

INCLUDELIB LIBCMTD
INCLUDELIB OLDNAMES

_BSS	SEGMENT
$SG12312 DB	01H DUP (?)
	ALIGN	4

$SG11694 DB	01H DUP (?)
_BSS	ENDS
_DATA	SEGMENT
COMM	decoflags:BYTE
COMM	broadflags:BYTE
COMM	evex:BYTE
COMM	ZEROLOCALS:BYTE
_DATA	ENDS
_BSS	SEGMENT
	ALIGN	4

vcallpass DD	01H DUP (?)
$SG12180 DB	01H DUP (?)
	ALIGN	4

$SG12191 DB	01H DUP (?)
_BSS	ENDS
CONST	SEGMENT
fastcall_tab DQ	FLAT:ms32_fcstart
	DQ	FLAT:ms32_fcend
	DQ	FLAT:ms32_param
	DQ	FLAT:watc_fcstart
	DQ	FLAT:watc_fcend
	DQ	FLAT:watc_param
	DQ	FLAT:ms64_fcstart
	DQ	FLAT:ms64_fcend
	DQ	FLAT:ms64_param
ms32_regs DD	012H
	DD	013H
vectorcall_tab DQ FLAT:ms32_fcstart
	DQ	FLAT:ms32_fcend
	DQ	FLAT:ms32_param
	DQ	FLAT:watc_fcstart
	DQ	FLAT:watc_fcend
	DQ	FLAT:watc_param
	DQ	FLAT:ms64_fcstart
	DQ	FLAT:ms64_fcend
	DQ	FLAT:ms64_param
regax	DD	09H
	DD	011H
	DD	073H
	ORG $+4
ms16_regs DD	09H
	DD	0bH
	DD	0cH
	ORG $+12
ms64_regs DD	02H
	DD	03H
	DD	05bH
	DD	05cH
	DD	0aH
	DD	0bH
	DD	063H
	DD	064H
	DD	012H
	DD	013H
	DD	06bH
	DD	06cH
	DD	074H
	DD	075H
	DD	07bH
	DD	07cH
CONST	ENDS
_DATA	SEGMENT
$SG12288 DB	'NULL', 00H
	ORG $+3
$SG12289 DB	'NULL', 00H
	ORG $+3
$SG12290 DB	'InvokeDir: target is expression, kind=%u sym=%s mbr=%s t'
	DB	'ype=%s memtype=%X ofssize=%u', 0aH, 00H
	ORG $+2
$SG12292 DB	'InvokeDirective: opnd.type=>%s< mem_type=%Xh', 0aH, 00H
	ORG $+2
$SG12311 DB	'InvokeDir: error proc.name=>%s< .mem_type=%Xh', 0aH, 00H
	ORG $+1
$SG12313 DB	'InvokeDir: error sym.name=%s', 0aH, 00H
	ORG $+2
$SG12314 DB	'NULL', 00H
	ORG $+3
$SG12315 DB	'InvokeDir: proc=%s target_type=>%s<', 0aH, 00H
	ORG $+3
$SG12317 DB	'NULL', 00H
	ORG $+3
$SG12318 DB	'InvokeDir: error, sym=%s state=%u memtype=%Xh [type=%s m'
	DB	'emtype=%Xh]', 0aH, 00H
	ORG $+3
$SG12329 DB	'InvokeDir: superfluous argument, i=%u', 0aH, 00H
	ORG $+1
$SG12321 DB	'InvokeDir: error, target_type=%s [memtype=%X pmemtype=%X'
	DB	' isproc=%u])', 0aH, 00H
	ORG $+2
$SG12322 DB	'InvokeDir: numparams=%u', 0aH, 00H
	ORG $+7
$SG11310 DB	'ms64_param(%s, index=%u, param.memtype=%Xh, addr=%u) ent'
	DB	'er', 0aH, 00H
$SG12356 DB	' call ', 00H
	ORG $+5
$SG12330 DB	'InvokeDir: VARARG proc, numparams=%u, actual (max) param'
	DB	's=%u, parasize=%u', 0aH, 00H
	ORG $+1
$SG11400 DB	's', 00H
	ORG $+2
$SG12337 DB	'InvokeDir: PushInvokeParam(curr=%u, i=%u, numParam=%u) f'
	DB	'ailed', 0aH, 00H
	ORG $+1
$SG12339 DB	'InvokeDir: PushInvokeParam(curr=%u, i=%u, numParam=%u) f'
	DB	'ailed', 0aH, 00H
	ORG $+1
$SG12344 DB	'InvokeDir: superfluous argument, i=%u', 0aH, 00H
	ORG $+1
$SG12361 DB	' externdef %r %s: %r %r', 00H
$SG12345 DB	'InvokeDir: VARARG proc, numparams=%u, actual (max) param'
	DB	's=%u, parasize=%u', 0aH, 00H
	ORG $+1
$SG11401 DB	'z', 00H
	ORG $+2
$SG12352 DB	'InvokeDir: PushInvokeParam(curr=%u, i=%u, numParam=%u) f'
	DB	'ailed', 0aH, 00H
	ORG $+1
$SG12354 DB	'InvokeDir: PushInvokeParam(curr=%u, i=%u, numParam=%u) f'
	DB	'ailed', 0aH, 00H
	ORG $+1
$SG12362 DB	' externdef %s: %r %r', 00H
	ORG $+3
$SG11344 DB	' lea %r, %s', 00H
$SG11632 DB	's', 00H
	ORG $+2
$SG12369 DB	'InvokeDir: size of fix args=%u, var args=%u', 0aH, 00H
	ORG $+3
$SG11345 DB	' mov [%r+%u], %r', 00H
	ORG $+3
$SG11633 DB	'z', 00H
	ORG $+2
$SG12370 DB	' add %r, %u', 00H
$SG11638 DB	'0', 00H
	ORG $+2
$SG11346 DB	'ms64_param(%s, param=%u): ADDR flags=%X', 0aH, 00H
	ORG $+3
$SG11640 DB	'FALSE', 00H
	ORG $+2
$SG11810 DB	' ', 00H
	ORG $+2
$SG12371 DB	' add %r, %u', 00H
$SG12023 DB	'z', 00H
	ORG $+2
$SG11353 DB	' mov %r ptr [%r+%u], %r ( %s )', 00H
	ORG $+1
$SG11354 DB	' mov %r ptr [%r+%u], %r ( %s )', 00H
	ORG $+1
$SG11356 DB	'ms64_param(%s, param=%u): MT_PTR, type error, psize=%u', 0aH
	DB	00H
$SG11361 DB	' mov %r ptr [%r+%u], %s', 00H
$SG11362 DB	'ms64_param(%s, param=%u): MT_EMPTY size.p=%u flags=%X', 0aH
	DB	00H
	ORG $+1
$SG11367 DB	' mov %r ptr [%r+%u+0], %r (%s)', 00H
	ORG $+1
$SG11368 DB	' mov %r ptr [%r+%u+4], %r (%s)', 00H
	ORG $+1
$SG11369 DB	' mov %r ptr [%r+%u], %s', 00H
$SG11376 DB	'ms64_param(%s, param=%u): type error size.p/a=%u/%u flag'
	DB	's=%X', 0aH, 00H
	ORG $+2
$SG11381 DB	'ms64_param(%s, param=%u): REG size.p/a=%u/%u flags=%X', 0aH
	DB	00H
	ORG $+1
$SG11384 DB	'ms64_param(%s, param=%u): MEM size.p/a=%u/%u flags=%X', 0aH
	DB	00H
	ORG $+1
$SG11398 DB	' movsxd %r, %s', 00H
	ORG $+1
$SG11399 DB	' mov %r, %s', 00H
$SG12024 DB	's', 00H
	ORG $+2
$SG11402 DB	' mov%sx %r, %s', 00H
	ORG $+1
$SG11405 DB	' mov %r, %s', 00H
$SG12037 DB	'z', 00H
	ORG $+2
$SG11406 DB	' mov [%r+%u], %r', 00H
	ORG $+3
$SG12038 DB	's', 00H
	ORG $+2
$SG11415 DB	'ms64_param(%s, param=%u): argument optimized', 0aH, 00H
	ORG $+2
$SG11418 DB	' movd %r, %s', 00H
	ORG $+3
$SG11419 DB	' movq %r, %s', 00H
	ORG $+3
$SG11423 DB	'ms64_param(%s, param=%u): argument optimized', 0aH, 00H
	ORG $+2
$SG11426 DB	' movd %r, %s', 00H
	ORG $+3
$SG11427 DB	' movq %r, %s', 00H
	ORG $+3
$SG11432 DB	'mov %r, %s', 00H
	ORG $+1
$SG12126 DB	's', 00H
	ORG $+2
$SG11433 DB	'vmovd %r, %r', 00H
	ORG $+3
$SG11434 DB	'mov %r, %r ptr %s', 00H
	ORG $+2
$SG12127 DB	'z', 00H
	ORG $+2
$SG11435 DB	'vmovq %r, %r', 00H
	ORG $+3
$SG11441 DB	'vmovsd %r,qword ptr %s', 00H
	ORG $+1
$SG11442 DB	'vmovss %r,dword ptr %s', 00H
	ORG $+1
$SG11445 DB	'movq %r,qword ptr %s', 00H
	ORG $+3
$SG11447 DB	'movd %r,dword ptr %s', 00H
	ORG $+3
$SG11456 DB	'vmovss %r,dword ptr [%s+%d]', 00H
$SG12183 DB	'w', 00H
	ORG $+2
$SG11466 DB	'vmovsd %r,qword ptr [%s+%d]', 00H
$SG12187 DB	'w', 00H
	ORG $+2
$SG11469 DB	'vmovss %r,dword ptr [%s+%d]', 00H
$SG12190 DB	'd', 00H
	ORG $+2
$SG11477 DB	'vmovss %r,dword ptr [%s+%d]', 00H
$SG12196 DB	'd', 00H
	ORG $+2
$SG11485 DB	'vmovsd %r,qword ptr [%s+%d]', 00H
$SG12198 DB	'w', 00H
	ORG $+2
$SG11493 DB	'vmovsd %r,qword ptr [%s+%d]', 00H
$SG12204 DB	'd', 00H
	ORG $+2
$SG11510 DB	'ms64_param(%s, param=%u): argument optimized', 0aH, 00H
	ORG $+2
$SG11511 DB	'vmovaps %r,oword ptr %s', 00H
$SG11517 DB	'ms64_param(%s, param=%u): argument optimized', 0aH, 00H
	ORG $+2
$SG11518 DB	'vmovaps %r,ymmword ptr %s', 00H
	ORG $+6
$SG11543 DB	'vmovss %r,dword ptr %s', 00H
	ORG $+1
$SG11544 DB	'vmovss %r,dword ptr [%s+%d]', 00H
	ORG $+4
$SG11548 DB	'vmovsd %r,oword ptr %s', 00H
	ORG $+1
$SG11549 DB	'vmovsd %r,oword ptr [%s+%d]', 00H
	ORG $+4
$SG11553 DB	'vmovaps %r,oword ptr %s', 00H
$SG11558 DB	'vmovaps %r,oword ptr %s', 00H
$SG11559 DB	'vmovaps %r,oword ptr [%s+%d]', 00H
	ORG $+3
$SG11563 DB	'vmovups %r,oword ptr %s', 00H
$SG11568 DB	'vmovups %r,ymmword ptr %s', 00H
	ORG $+6
$SG11569 DB	'vmovups %r,ymmword ptr [%s+%d]', 00H
	ORG $+1
$SG11574 DB	'vmovss %r,dword ptr %s', 00H
	ORG $+1
$SG11575 DB	'mov %r, qword ptr %s', 00H
	ORG $+3
$SG11579 DB	'vmovsd %r,qword ptr %s', 00H
	ORG $+1
$SG11580 DB	'mov %r, qword ptr %s', 00H
	ORG $+3
$SG11587 DB	'ms64_param(%s, param=%u): argument optimized', 0aH, 00H
	ORG $+2
$SG11588 DB	'vmovaps %r,oword ptr %s', 00H
$SG11589 DB	'vmovaps %r,oword ptr %s', 00H
$SG11591 DB	'vmovups %r,oword ptr %s', 00H
$SG11596 DB	' lea %r, %s', 00H
	ORG $+4
$SG11597 DB	' lea %r, %s', 00H
	ORG $+4
$SG11598 DB	' mov qword ptr [%r+%u], %r', 00H
	ORG $+5
$SG11599 DB	' lea %r, %s', 00H
	ORG $+4
$SG11610 DB	'ms64_param(%s, param=%u): forward ref=%s, assumed size=%'
	DB	'u', 0aH, 00H
	ORG $+5
$SG11613 DB	'ms64_param(%s, param=%u): type error size.p/a=%u/%u flag'
	DB	's=%X', 0aH, 00H
	ORG $+2
$SG11621 DB	'ms64_param(%s, param=%u): argument optimized', 0aH, 00H
	ORG $+2
$SG11630 DB	' movsxd %r, %s', 00H
	ORG $+1
$SG11631 DB	' mov %r, %s', 00H
	ORG $+4
$SG11634 DB	' mov%sx %r, %s', 00H
	ORG $+1
$SG11639 DB	'NULL', 00H
	ORG $+3
$SG11642 DB	' xor %r, %r', 00H
	ORG $+4
$SG11649 DB	' mov %r ptr [%r+%u], %s', 00H
$SG11650 DB	' mov %r, %s', 00H
	ORG $+4
$SG11651 DB	'ms64_param(%s, param=%u): size=%u flags=%X', 0aH, 00H
$SG11671 DB	'NULL', 00H
	ORG $+3
$SG11672 DB	'NULL', 00H
	ORG $+3
$SG11673 DB	'NULL', 00H
	ORG $+3
$SG11674 DB	'NULL', 00H
	ORG $+7
$SG11675 DB	'GetSegmentPart(%s) enter [override=%s sym=%s segment=%s]'
	DB	0aH, 00H
	ORG $+2
$SG11690 DB	'seg ', 00H
	ORG $+3
$SG11693 DB	'seg ', 00H
	ORG $+7
$SG11695 DB	'GetSegmentPart: reg%u, buffer=%s', 0aH, 00H
	ORG $+6
$SG11707 DB	'watc_fcstart(%s, %u, %u)', 0aH, 00H
	ORG $+6
$SG11715 DB	'watc_fcend(%s, %u, %u)', 0aH, 00H
$SG11718 DB	' add %r, %u', 00H
	ORG $+4
$SG11720 DB	' add %r, %u', 00H
	ORG $+4
$SG11758 DB	'watc_param(%s, param=%u [name=%s, state=%u]),addr=%u: ps'
	DB	'ize=%u', 0aH, 00H
$SG11760 DB	'watc_param(%s): register param=%s', 0aH, 00H
	ORG $+5
$SG11770 DB	'%r %s, %r', 00H
	ORG $+6
$SG11771 DB	'%r %s, %s', 00H
	ORG $+6
$SG11772 DB	'%r %s, %r %s', 00H
	ORG $+3
$SG11782 DB	'mov %s, %r (%s)', 00H
$SG11783 DB	'mov %s, %s', 00H
	ORG $+5
$SG11786 DB	'mov %s, %s', 00H
	ORG $+5
$SG11789 DB	'mov %s, %s', 00H
	ORG $+5
$SG11792 DB	'mov %s, %r %r %s[%u]', 00H
	ORG $+3
$SG11866 DB	'NULL', 00H
	ORG $+3
$SG11867 DB	'PushInvokeParam(%s, param=%s:%u, i=%u ) enter', 0aH, 00H
	ORG $+1
$SG11869 DB	'PushInvokeParam(%s): T_FINAL token, i=%u', 0aH, 00H
	ORG $+6
$SG11872 DB	'PushInvokeParam(%s,%u): pmtype=%Xh, psize=%u', 0aH, 00H
	ORG $+2
$SG11878 DB	'PushInvokeParm(%u): error, psize=%u, fptrsize=%u', 0aH, 00H
	ORG $+6
$SG11889 DB	'PushInvokeParam: far ptr, %s isfar=%u, psize=%u, fptrsiz'
	DB	'e=%u', 0aH, 00H
	ORG $+2
$SG11894 DB	' push %s', 00H
	ORG $+7
$SG11895 DB	' lea %r, %s', 00H
	ORG $+4
$SG11896 DB	' push %r', 00H
	ORG $+7
$SG11903 DB	' db 66h', 00H
$SG11904 DB	' push %r', 00H
	ORG $+7
$SG11905 DB	' push %s', 00H
	ORG $+7
$SG11908 DB	' mov %r, offset %s', 00H
	ORG $+5
$SG11909 DB	' push %r', 00H
	ORG $+7
$SG11915 DB	' pushd %r %s', 00H
	ORG $+3
$SG11919 DB	' pushw %r %s', 00H
	ORG $+3
$SG11920 DB	' push %r %s', 00H
	ORG $+4
$SG11923 DB	'PushInvokeParm(%u): new value of size_vararg=%u [CurrWor'
	DB	'dSize=%u]', 0aH, 00H
	ORG $+5
$SG11930 DB	' db 66h', 00H
$SG11931 DB	' push %r', 00H
	ORG $+7
$SG11942 DB	'PushInvokeParm(%u): error, psize=0', 0aH, 00H
	ORG $+4
$SG11944 DB	'PushInvokeParm(%u): memtype EMPTY, asize=%u psize=%u', 0aH
	DB	00H
	ORG $+2
$SG11955 DB	'PushInvokeParam(%s, %u): arg name=%s, asize=%u, amtype=%'
	DB	'xh psize=%u', 0aH, 00H
	ORG $+3
$SG11968 DB	'PushInvokeParm(%u): argsize error, arg size=%d, parm siz'
	DB	'e=%d', 0aH, 00H
	ORG $+2
$SG11988 DB	' push word ptr %s+%u', 00H
	ORG $+3
$SG11956 DB	'PushInvokeParam(%s, %u): arg no name, asize=%u, amtype=%'
	DB	'xh psize=%u', 0aH, 00H
	ORG $+3
$SG11978 DB	'PushInvokeParm(%u): asize=%u added to size_vararg, now=%'
	DB	'u', 0aH, 00H
	ORG $+5
$SG11987 DB	' sub %r, 2', 00H
	ORG $+5
$SG11989 DB	' push %r ptr %s+%u', 00H
	ORG $+5
$SG11993 DB	'PushInvokeParm(%u): error, ADDR, psize=%u, is > 4', 0aH, 00H
	ORG $+5
$SG11996 DB	' movsx %r, %s', 00H
	ORG $+2
$SG11997 DB	' push %r', 00H
	ORG $+7
$SG12001 DB	' mov %r, %s', 00H
	ORG $+4
$SG12002 DB	' push %r', 00H
	ORG $+7
$SG12011 DB	' xor %r, %r', 00H
	ORG $+4
$SG12012 DB	' push %r', 00H
	ORG $+7
$SG12013 DB	' push 0', 00H
$SG12014 DB	' mov %r, %s', 00H
	ORG $+4
$SG12016 DB	' mov %r, 0', 00H
	ORG $+5
$SG12017 DB	' mov %r, %s', 00H
$SG12018 DB	' cbw', 00H
	ORG $+3
$SG12020 DB	' cwd', 00H
	ORG $+7
$SG12021 DB	' push %r', 00H
	ORG $+7
$SG12022 DB	' push %r', 00H
	ORG $+7
$SG12025 DB	' mov%sx %r, %s', 00H
	ORG $+1
$SG12026 DB	' push %r', 00H
	ORG $+7
$SG12034 DB	' pushw 0', 00H
	ORG $+7
$SG12035 DB	' sub %r, 2', 00H
	ORG $+5
$SG12036 DB	' push %s', 00H
	ORG $+7
$SG12039 DB	' mov%sx %r, %s', 00H
	ORG $+1
$SG12040 DB	' push %r', 00H
	ORG $+7
$SG12042 DB	' push %s', 00H
	ORG $+7
$SG12047 DB	' movsx %r, %s', 00H
	ORG $+2
$SG12048 DB	' push %r', 00H
	ORG $+7
$SG12051 DB	' mov %r, %s', 00H
$SG12052 DB	' cwd', 00H
	ORG $+7
$SG12053 DB	' push %r', 00H
	ORG $+7
$SG12054 DB	' push %r', 00H
	ORG $+7
$SG12055 DB	' push %s', 00H
	ORG $+7
$SG12060 DB	' xor %r, %r', 00H
	ORG $+4
$SG12061 DB	' push %r', 00H
	ORG $+7
$SG12062 DB	' pushw 0', 00H
	ORG $+7
$SG12063 DB	' push %s', 00H
	ORG $+7
$SG12085 DB	' mov %r, %s', 00H
$SG12095 DB	' cbw', 00H
	ORG $+7
$SG12076 DB	'PushInvokeParm(%u): error, REG, asize=%u, psize=%u, push'
	DB	'size=%u', 0aH, 00H
	ORG $+7
$SG12090 DB	' movsx %r, %s', 00H
	ORG $+2
$SG12094 DB	' mov %r, %s', 00H
	ORG $+4
$SG12097 DB	' mov %r, %s', 00H
$SG12098 DB	' cwd', 00H
	ORG $+7
$SG12099 DB	' push %r', 00H
	ORG $+7
$SG12108 DB	' sub %r, 2', 00H
	ORG $+5
$SG12111 DB	' movsx %r, %s', 00H
	ORG $+2
$SG12112 DB	' pushw 0', 00H
	ORG $+7
$SG12113 DB	' pushw 0', 00H
	ORG $+7
$SG12117 DB	' xor %r, %r', 00H
	ORG $+4
$SG12118 DB	' push %r', 00H
	ORG $+7
$SG12128 DB	' mov%sx %r, %s', 00H
	ORG $+1
$SG12130 DB	' mov %r, %s', 00H
$SG12134 DB	' cbw', 00H
	ORG $+7
$SG12136 DB	' mov %r, 0', 00H
	ORG $+5
$SG12140 DB	' push %r', 00H
	ORG $+7
$SG11119 DB	'ms32_fcstart(proc=%s, ofs=%u)', 0aH, 00H
	ORG $+1
$SG12164 DB	' mov %r, %s', 00H
	ORG $+4
$SG12166 DB	' xor %r, %r', 00H
	ORG $+4
$SG12170 DB	' xor %r, %r', 00H
	ORG $+4
$SG12171 DB	' mov %r, %r (%s)', 00H
	ORG $+7
$SG11147 DB	'ms32_param(proc=%s, ofs=%u, index=%u, param=%s) fcscratc'
	DB	'h=%u', 0aH, 00H
	ORG $+2
$SG12172 DB	' push %r', 00H
	ORG $+7
$SG12176 DB	' mov %r, %r (%s)', 00H
	ORG $+7
$SG11153 DB	' lea %r, %s', 00H
$SG11158 DB	'movsx', 00H
	ORG $+6
$SG12178 DB	'PushInvokeParm(%u): error, CONST, asize=%u, psize=%u, pu'
	DB	'shsize=%u', 0aH, 00H
	ORG $+5
$SG12179 DB	' push %r', 00H
	ORG $+3
$SG11159 DB	'movzx', 00H
	ORG $+6
$SG11160 DB	' %s %r, %s', 00H
	ORG $+5
$SG11161 DB	' mov %r, %s', 00H
	ORG $+4
$SG11162 DB	' mov %r, 0', 00H
	ORG $+5
$SG11165 DB	' mov %r, %s', 00H
	ORG $+4
$SG12192 DB	' push%s (%s) shr 32t', 00H
	ORG $+3
$SG12197 DB	' pushw %r (%s)', 00H
	ORG $+1
$SG12203 DB	' pushd %r (%s)', 00H
	ORG $+1
$SG12209 DB	' push%s %r (%s)', 00H
$SG12282 DB	'InvokeDir(%s) enter', 0aH, 00H
	ORG $+3
$SG12206 DB	'PushInvokeParm(%u): error, CONST, asize=%u, psize=%u, pu'
	DB	'shsize=%u', 0aH, 00H
	ORG $+5
$SG12210 DB	' push%s %s', 00H
	ORG $+5
$SG11186 DB	'ms64_fcstart(%s, numparams=%u) vararg=%u', 0aH, 00H
	ORG $+6
$SG12212 DB	'PushInvokeParm(%u): psize=%u added to size_vararg, now=%'
	DB	'u', 0aH, 00H
	ORG $+5
$SG11193 DB	' sub %r, %d', 00H
	ORG $+4
$SG11202 DB	' add %r, %d', 00H
$SG12287 DB	'NULL', 00H
_DATA	ENDS
PUBLIC	InvokeDirective
EXTRN	__report_rangecheckfailure:PROC
EXTRN	memcpy:PROC
EXTRN	memset:PROC
EXTRN	strchr:PROC
EXTRN	strcat:PROC
EXTRN	strcpy:PROC
EXTRN	_stricmp:PROC
EXTRN	strlen:PROC
EXTRN	DoDebugMsg:PROC
EXTRN	DoDebugMsg1:PROC
EXTRN	EmitErr:PROC
EXTRN	EmitWarn:PROC
EXTRN	SymFind:PROC
EXTRN	SizeFromMemtype:PROC
EXTRN	SizeFromRegister:PROC
EXTRN	GetResWName:PROC
EXTRN	EvalOperand:PROC
EXTRN	AddLineQueue:PROC
EXTRN	AddLineQueueX:PROC
EXTRN	RunLineQueue:PROC
EXTRN	search_assume:PROC
EXTRN	GetStdAssume:PROC
EXTRN	GetSymOfssize:PROC
EXTRN	GetCurrOffset:PROC
EXTRN	GetGroup:PROC
EXTRN	LstWrite:PROC
EXTRN	Mangle:PROC
EXTRN	__GSHandlerCheck:PROC
EXTRN	__security_check_cookie:PROC
EXTRN	Options:BYTE
EXTRN	ModuleInfo:BYTE
EXTRN	Parse_Pass:DWORD
EXTRN	SpecialTable:BYTE
EXTRN	sym_ReservedStack:QWORD
EXTRN	maxintvalues:BYTE
EXTRN	minintvalues:BYTE
EXTRN	stackreg:BYTE
EXTRN	__security_cookie:QWORD
_BSS	SEGMENT
	ALIGN	4

size_vararg DD	01H DUP (?)
fcscratch DD	01H DUP (?)
_BSS	ENDS
pdata	SEGMENT
$pdata$ms32_fcstart DD imagerel ms32_fcstart
	DD	imagerel ms32_fcstart+160
	DD	imagerel $unwind$ms32_fcstart
$pdata$ms32_param DD imagerel ms32_param
	DD	imagerel ms32_param+636
	DD	imagerel $unwind$ms32_param
$pdata$watc_fcstart DD imagerel watc_fcstart
	DD	imagerel watc_fcstart+64
	DD	imagerel $unwind$watc_fcstart
$pdata$watc_fcend DD imagerel watc_fcend
	DD	imagerel watc_fcend+203
	DD	imagerel $unwind$watc_fcend
$pdata$watc_param DD imagerel watc_param
	DD	imagerel watc_param+1277
	DD	imagerel $unwind$watc_param
$pdata$ms64_fcstart DD imagerel ms64_fcstart
	DD	imagerel ms64_fcstart+334
	DD	imagerel $unwind$ms64_fcstart
$pdata$ms64_fcend DD imagerel ms64_fcend
	DD	imagerel ms64_fcend+64
	DD	imagerel $unwind$ms64_fcend
$pdata$ms64_param DD imagerel ms64_param
	DD	imagerel ms64_param+11944
	DD	imagerel $unwind$ms64_param
$pdata$GetSegmentPart DD imagerel GetSegmentPart
	DD	imagerel GetSegmentPart+786
	DD	imagerel $unwind$GetSegmentPart
$pdata$SkipTypecast DD imagerel SkipTypecast
	DD	imagerel SkipTypecast+249
	DD	imagerel $unwind$SkipTypecast
$pdata$PushInvokeParam DD imagerel PushInvokeParam
	DD	imagerel PushInvokeParam+9172
	DD	imagerel $unwind$PushInvokeParam
$pdata$InvokeDirective DD imagerel $LN114
	DD	imagerel $LN114+4563
	DD	imagerel $unwind$InvokeDirective
pdata	ENDS
xdata	SEGMENT
$unwind$ms32_fcstart DD 011701H
	DD	06217H
$unwind$ms32_param DD 011701H
	DD	0a217H
$unwind$watc_fcstart DD 011701H
	DD	04217H
$unwind$watc_fcend DD 011201H
	DD	04212H
$unwind$watc_param DD 022c19H
	DD	02b011aH
	DD	imagerel __GSHandlerCheck
	DD	0140H
$unwind$ms64_fcstart DD 011701H
	DD	04217H
$unwind$ms64_fcend DD 011201H
	DD	04212H
$unwind$ms64_param DD 021a01H
	DD	01d011aH
$unwind$GetSegmentPart DD 011301H
	DD	0e213H
$unwind$SkipTypecast DD 011201H
	DD	06212H
$unwind$PushInvokeParam DD 022c19H
	DD	0133011aH
	DD	imagerel __GSHandlerCheck
	DD	0980H
$unwind$InvokeDirective DD 021001H
	DD	02f0110H
xdata	ENDS
; Function compile flags: /Odtp
; File d:\hjwasm\hjwasm2.13.1s\hjwasm2.13.1s\invoke.c
_TEXT	SEGMENT
r0flags$ = 64
sym$ = 72
numParam$ = 80
curr$ = 88
proc$ = 96
info$ = 104
p$ = 112
j$1 = 120
j$2 = 124
porder$ = 128
namepos$ = 132
value$ = 136
tv251 = 140
parmpos$ = 144
size$ = 148
tv135 = 152
tv139 = 160
tv143 = 168
tv176 = 176
tv231 = 184
tv239 = 192
tv257 = 200
iatname$3 = 208
tv751 = 216
tv740 = 224
tv741 = 232
tv744 = 240
tv745 = 248
opnd$ = 256
i$ = 384
tokenarray$ = 392
InvokeDirective PROC

; 2015 : {

$LN114:
	mov	QWORD PTR [rsp+16], rdx
	mov	DWORD PTR [rsp+8], ecx
	sub	rsp, 376				; 00000178H

; 2016 :     struct asym    *sym;
; 2017 :     struct dsym    *proc;
; 2018 :     char           *p;
; 2019 :     //char         *param;
; 2020 :     int            numParam;
; 2021 :     int            value;
; 2022 :     int            size;
; 2023 :     int            parmpos;
; 2024 :     int            namepos;
; 2025 :     int            porder;
; 2026 :     int            j;
; 2027 :     uint_8         r0flags = 0;

	mov	BYTE PTR r0flags$[rsp], 0

; 2028 :     //bool           uselabel = FALSE;
; 2029 :     struct proc_info *info;
; 2030 :     struct dsym    *curr;
; 2031 :     struct expr    opnd;
; 2032 :     //char           buffer[MAX_LINE_LEN];
; 2033 : 
; 2034 :     DebugMsg1(("InvokeDir(%s) enter\n", tokenarray[i].tokpos ));

	movsxd	rax, DWORD PTR i$[rsp]
	imul	rax, rax, 32				; 00000020H
	mov	rcx, QWORD PTR tokenarray$[rsp]
	mov	rdx, QWORD PTR [rcx+rax+24]
	lea	rcx, OFFSET FLAT:$SG12282
	call	DoDebugMsg1

; 2035 :     i++; /* skip INVOKE directive */

	mov	eax, DWORD PTR i$[rsp]
	inc	eax
	mov	DWORD PTR i$[rsp], eax

; 2036 :     namepos = i;

	mov	eax, DWORD PTR i$[rsp]
	mov	DWORD PTR namepos$[rsp], eax

; 2037 :     /* if there is more than just an ID item describing the invoke target,
; 2038 :      use the expression evaluator to get it
; 2039 :      */
; 2040 :     if ( tokenarray[i].token != T_ID || ( tokenarray[i+1].token != T_COMMA && tokenarray[i+1].token != T_FINAL ) ) {

	movsxd	rax, DWORD PTR i$[rsp]
	imul	rax, rax, 32				; 00000020H
	mov	rcx, QWORD PTR tokenarray$[rsp]
	movzx	eax, BYTE PTR [rcx+rax]
	cmp	eax, 8
	jne	SHORT $LN35@InvokeDire
	mov	eax, DWORD PTR i$[rsp]
	inc	eax
	cdqe
	imul	rax, rax, 32				; 00000020H
	mov	rcx, QWORD PTR tokenarray$[rsp]
	movzx	eax, BYTE PTR [rcx+rax]
	cmp	eax, 44					; 0000002cH
	je	$LN33@InvokeDire
	mov	eax, DWORD PTR i$[rsp]
	inc	eax
	cdqe
	imul	rax, rax, 32				; 00000020H
	mov	rcx, QWORD PTR tokenarray$[rsp]
	movzx	eax, BYTE PTR [rcx+rax]
	test	eax, eax
	je	$LN33@InvokeDire
$LN35@InvokeDire:

; 2041 :     //if ( tokenarray[i+1].token != T_COMMA && tokenarray[i+1].token != T_FINAL ) {
; 2042 :         if ( ERROR == EvalOperand( &i, tokenarray, Token_Count, &opnd, 0 ) )

	mov	BYTE PTR [rsp+32], 0
	lea	r9, QWORD PTR opnd$[rsp]
	mov	r8d, DWORD PTR ModuleInfo+496
	mov	rdx, QWORD PTR tokenarray$[rsp]
	lea	rcx, QWORD PTR i$[rsp]
	call	EvalOperand
	cmp	eax, -1
	jne	SHORT $LN36@InvokeDire

; 2043 :             return( ERROR );

	mov	eax, -1
	jmp	$LN1@InvokeDire
$LN36@InvokeDire:

; 2044 :         DebugMsg1(("InvokeDir: target is expression, kind=%u sym=%s mbr=%s type=%s memtype=%X ofssize=%u\n",

	cmp	QWORD PTR opnd$[rsp+96], 0
	je	SHORT $LN98@InvokeDire
	mov	rax, QWORD PTR opnd$[rsp+96]
	mov	rax, QWORD PTR [rax+8]
	mov	QWORD PTR tv135[rsp], rax
	jmp	SHORT $LN99@InvokeDire
$LN98@InvokeDire:
	lea	rax, OFFSET FLAT:$SG12287
	mov	QWORD PTR tv135[rsp], rax
$LN99@InvokeDire:
	cmp	QWORD PTR opnd$[rsp+88], 0
	je	SHORT $LN100@InvokeDire
	mov	rax, QWORD PTR opnd$[rsp+88]
	mov	rax, QWORD PTR [rax+8]
	mov	QWORD PTR tv139[rsp], rax
	jmp	SHORT $LN101@InvokeDire
$LN100@InvokeDire:
	lea	rax, OFFSET FLAT:$SG12288
	mov	QWORD PTR tv139[rsp], rax
$LN101@InvokeDire:
	cmp	QWORD PTR opnd$[rsp+80], 0
	je	SHORT $LN102@InvokeDire
	mov	rax, QWORD PTR opnd$[rsp+80]
	mov	rax, QWORD PTR [rax+8]
	mov	QWORD PTR tv143[rsp], rax
	jmp	SHORT $LN103@InvokeDire
$LN102@InvokeDire:
	lea	rax, OFFSET FLAT:$SG12289
	mov	QWORD PTR tv143[rsp], rax
$LN103@InvokeDire:
	movzx	eax, BYTE PTR opnd$[rsp+69]
	mov	DWORD PTR [rsp+48], eax
	mov	eax, DWORD PTR opnd$[rsp+64]
	mov	DWORD PTR [rsp+40], eax
	mov	rax, QWORD PTR tv135[rsp]
	mov	QWORD PTR [rsp+32], rax
	mov	r9, QWORD PTR tv139[rsp]
	mov	r8, QWORD PTR tv143[rsp]
	mov	edx, DWORD PTR opnd$[rsp+60]
	lea	rcx, OFFSET FLAT:$SG12290
	call	DoDebugMsg1

; 2045 :                    opnd.kind,
; 2046 :                    opnd.sym ? opnd.sym->name : "NULL",
; 2047 :                    opnd.mbr ? opnd.mbr->name : "NULL",
; 2048 :                    opnd.type ? opnd.type->name : "NULL",
; 2049 :                    opnd.mem_type, opnd.Ofssize ));
; 2050 : #if 1
; 2051 :         /* a typecast with PTR? Since v1.95, this has highest priority */
; 2052 :         //if (opnd.explicit == TRUE && opnd.type != NULL && opnd.type->state == SYM_TYPE ) {
; 2053 :         /* v1.96: removed opnd.explicit!!! */
; 2054 :         /* fixme: if opnd.type is set, opnd.type MUST have state SYM_TYPE */
; 2055 :         if ( opnd.type != NULL && opnd.type->state == SYM_TYPE ) {

	cmp	QWORD PTR opnd$[rsp+96], 0
	je	SHORT $LN37@InvokeDire
	mov	rax, QWORD PTR opnd$[rsp+96]
	cmp	DWORD PTR [rax+32], 7
	jne	SHORT $LN37@InvokeDire

; 2056 :             sym = opnd.type;

	mov	rax, QWORD PTR opnd$[rsp+96]
	mov	QWORD PTR sym$[rsp], rax

; 2057 :             DebugMsg1(("InvokeDirective: opnd.type=>%s< mem_type=%Xh\n", sym->name, sym->mem_type ));

	mov	rax, QWORD PTR sym$[rsp]
	mov	r8d, DWORD PTR [rax+36]
	mov	rax, QWORD PTR sym$[rsp]
	mov	rdx, QWORD PTR [rax+8]
	lea	rcx, OFFSET FLAT:$SG12292
	call	DoDebugMsg1

; 2058 :             proc = (struct dsym *)sym;

	mov	rax, QWORD PTR sym$[rsp]
	mov	QWORD PTR proc$[rsp], rax

; 2059 :             //if ( opnd.label_tok != NULL ) /* v2.09: uselabel obsolete */
; 2060 :             //    uselabel = TRUE;
; 2061 :             if ( sym->mem_type == MT_PROC ) /* added for v1.95 */

	mov	rax, QWORD PTR sym$[rsp]
	cmp	DWORD PTR [rax+36], 128			; 00000080H
	jne	SHORT $LN38@InvokeDire

; 2062 :                 goto isfnproto;

	jmp	$isfnproto$115
$LN38@InvokeDire:

; 2063 :             if ( sym->mem_type == MT_PTR )  /* v2.09: mem_type must be MT_PTR */

	mov	rax, QWORD PTR sym$[rsp]
	cmp	DWORD PTR [rax+36], 195			; 000000c3H
	jne	SHORT $LN39@InvokeDire

; 2064 :                 goto isfnptr;

	jmp	$isfnptr$116
$LN39@InvokeDire:
$LN37@InvokeDire:

; 2065 :         }
; 2066 : #endif
; 2067 :         if ( opnd.kind == EXPR_REG ) {

	cmp	DWORD PTR opnd$[rsp+60], 2
	jne	SHORT $LN40@InvokeDire

; 2068 :             if ( GetValueSp( opnd.base_reg->tokval ) & OP_RGT8 )

	mov	rax, QWORD PTR opnd$[rsp+24]
	mov	eax, DWORD PTR [rax+16]
	imul	rax, rax, 12
	lea	rcx, OFFSET FLAT:SpecialTable
	mov	eax, DWORD PTR [rcx+rax]
	and	eax, 14
	test	eax, eax
	je	SHORT $LN42@InvokeDire

; 2069 :                 sym = GetStdAssume( GetRegNo( opnd.base_reg->tokval ) );

	mov	rax, QWORD PTR opnd$[rsp+24]
	mov	eax, DWORD PTR [rax+16]
	imul	rax, rax, 12
	lea	rcx, OFFSET FLAT:SpecialTable
	movzx	eax, BYTE PTR [rcx+rax+10]
	mov	ecx, eax
	call	GetStdAssume
	mov	QWORD PTR sym$[rsp], rax
	jmp	SHORT $LN43@InvokeDire
$LN42@InvokeDire:

; 2070 :             else
; 2071 :                 sym = NULL;

	mov	QWORD PTR sym$[rsp], 0
$LN43@InvokeDire:

; 2072 :         } else

	jmp	SHORT $LN41@InvokeDire
$LN40@InvokeDire:

; 2073 :             sym = ( opnd.mbr ? opnd.mbr : opnd.sym );

	cmp	QWORD PTR opnd$[rsp+88], 0
	je	SHORT $LN104@InvokeDire
	mov	rax, QWORD PTR opnd$[rsp+88]
	mov	QWORD PTR tv176[rsp], rax
	jmp	SHORT $LN105@InvokeDire
$LN104@InvokeDire:
	mov	rax, QWORD PTR opnd$[rsp+80]
	mov	QWORD PTR tv176[rsp], rax
$LN105@InvokeDire:
	mov	rax, QWORD PTR tv176[rsp]
	mov	QWORD PTR sym$[rsp], rax
$LN41@InvokeDire:

; 2074 : 
; 2075 :     } else {

	jmp	SHORT $LN34@InvokeDire
$LN33@InvokeDire:

; 2076 :         opnd.base_reg = NULL;

	mov	QWORD PTR opnd$[rsp+24], 0

; 2077 :         sym = SymSearch( tokenarray[i].string_ptr );

	movsxd	rax, DWORD PTR i$[rsp]
	imul	rax, rax, 32				; 00000020H
	mov	rcx, QWORD PTR tokenarray$[rsp]
	mov	rcx, QWORD PTR [rcx+rax+8]
	call	SymFind
	mov	QWORD PTR sym$[rsp], rax

; 2078 :         i++;

	mov	eax, DWORD PTR i$[rsp]
	inc	eax
	mov	DWORD PTR i$[rsp], eax
$LN34@InvokeDire:

; 2079 :     }
; 2080 : 
; 2081 :     if( sym == NULL ) {

	cmp	QWORD PTR sym$[rsp], 0
	jne	SHORT $LN44@InvokeDire

; 2082 :         /* v2.04: msg changed */
; 2083 :         return( EmitErr( INVOKE_REQUIRES_PROTOTYPE ) );

	mov	ecx, 159				; 0000009fH
	call	EmitErr
	jmp	$LN1@InvokeDire
$LN44@InvokeDire:

; 2084 :         //return( EmitErr( SYMBOL_NOT_DEFINED, name ) );
; 2085 :     }
; 2086 :     if( sym->isproc )  /* the most simple case: symbol is a PROC */

	mov	rax, QWORD PTR sym$[rsp]
	movzx	eax, BYTE PTR [rax+41]
	shr	al, 3
	and	al, 1
	movzx	eax, al
	test	eax, eax
	je	SHORT $LN45@InvokeDire

; 2087 :         ;

	jmp	$LN46@InvokeDire
$LN45@InvokeDire:

; 2088 :     else if ( sym->mem_type == MT_PTR && sym->target_type && sym->target_type->isproc )

	mov	rax, QWORD PTR sym$[rsp]
	cmp	DWORD PTR [rax+36], 195			; 000000c3H
	jne	SHORT $LN47@InvokeDire
	mov	rax, QWORD PTR sym$[rsp]
	cmp	QWORD PTR [rax+48], 0
	je	SHORT $LN47@InvokeDire
	mov	rax, QWORD PTR sym$[rsp]
	mov	rax, QWORD PTR [rax+48]
	movzx	eax, BYTE PTR [rax+41]
	shr	al, 3
	and	al, 1
	movzx	eax, al
	test	eax, eax
	je	SHORT $LN47@InvokeDire

; 2089 :         sym = sym->target_type;

	mov	rax, QWORD PTR sym$[rsp]
	mov	rax, QWORD PTR [rax+48]
	mov	QWORD PTR sym$[rsp], rax
	jmp	$LN48@InvokeDire
$LN47@InvokeDire:

; 2090 :     else if ( sym->mem_type == MT_PTR && sym->target_type && sym->target_type->mem_type == MT_PROC ) {

	mov	rax, QWORD PTR sym$[rsp]
	cmp	DWORD PTR [rax+36], 195			; 000000c3H
	jne	SHORT $LN49@InvokeDire
	mov	rax, QWORD PTR sym$[rsp]
	cmp	QWORD PTR [rax+48], 0
	je	SHORT $LN49@InvokeDire
	mov	rax, QWORD PTR sym$[rsp]
	mov	rax, QWORD PTR [rax+48]
	cmp	DWORD PTR [rax+36], 128			; 00000080H
	jne	SHORT $LN49@InvokeDire

; 2091 :         proc = (struct dsym *)sym->target_type;

	mov	rax, QWORD PTR sym$[rsp]
	mov	rax, QWORD PTR [rax+48]
	mov	QWORD PTR proc$[rsp], rax

; 2092 :         goto isfnproto;

	jmp	SHORT $isfnproto$115
	jmp	$LN50@InvokeDire
$LN49@InvokeDire:

; 2093 :     } else if ( ( sym->mem_type == MT_TYPE ) && ( sym->type->mem_type == MT_PTR || sym->type->mem_type == MT_PROC ) ) {

	mov	rax, QWORD PTR sym$[rsp]
	cmp	DWORD PTR [rax+36], 196			; 000000c4H
	jne	$LN51@InvokeDire
	mov	rax, QWORD PTR sym$[rsp]
	mov	rax, QWORD PTR [rax+80]
	cmp	DWORD PTR [rax+36], 195			; 000000c3H
	je	SHORT $LN53@InvokeDire
	mov	rax, QWORD PTR sym$[rsp]
	mov	rax, QWORD PTR [rax+80]
	cmp	DWORD PTR [rax+36], 128			; 00000080H
	jne	$LN51@InvokeDire
$LN53@InvokeDire:

; 2094 :         /* second case: symbol is a (function?) pointer */
; 2095 :         proc = (struct dsym *)sym->type;

	mov	rax, QWORD PTR sym$[rsp]
	mov	rax, QWORD PTR [rax+80]
	mov	QWORD PTR proc$[rsp], rax

; 2096 :         if ( proc->sym.mem_type != MT_PROC )

	mov	rax, QWORD PTR proc$[rsp]
	cmp	DWORD PTR [rax+36], 128			; 00000080H
	je	SHORT $LN54@InvokeDire

; 2097 :             goto isfnptr;

	jmp	SHORT $isfnptr$116
$LN54@InvokeDire:
$isfnproto$115:

; 2098 :     isfnproto:
; 2099 :         /* pointer target must be a PROTO typedef */
; 2100 :         if ( proc->sym.mem_type != MT_PROC ) {

	mov	rax, QWORD PTR proc$[rsp]
	cmp	DWORD PTR [rax+36], 128			; 00000080H
	je	SHORT $LN55@InvokeDire

; 2101 :             DebugMsg(("InvokeDir: error proc.name=>%s< .mem_type=%Xh\n", proc->sym.name, proc->sym.mem_type ));

	mov	rax, QWORD PTR proc$[rsp]
	mov	r8d, DWORD PTR [rax+36]
	mov	rax, QWORD PTR proc$[rsp]
	mov	rdx, QWORD PTR [rax+8]
	lea	rcx, OFFSET FLAT:$SG12311
	call	DoDebugMsg

; 2102 :             DebugMsg(("InvokeDir: error sym.name=%s\n", sym ? sym->name : "" ));

	cmp	QWORD PTR sym$[rsp], 0
	je	SHORT $LN106@InvokeDire
	mov	rax, QWORD PTR sym$[rsp]
	mov	rax, QWORD PTR [rax+8]
	mov	QWORD PTR tv231[rsp], rax
	jmp	SHORT $LN107@InvokeDire
$LN106@InvokeDire:
	lea	rax, OFFSET FLAT:$SG12312
	mov	QWORD PTR tv231[rsp], rax
$LN107@InvokeDire:
	mov	rdx, QWORD PTR tv231[rsp]
	lea	rcx, OFFSET FLAT:$SG12313
	call	DoDebugMsg

; 2103 :             return( EmitErr( INVOKE_REQUIRES_PROTOTYPE ) );

	mov	ecx, 159				; 0000009fH
	call	EmitErr
	jmp	$LN1@InvokeDire
$LN55@InvokeDire:
$isfnptr$116:

; 2104 :         }
; 2105 :     isfnptr:
; 2106 :         /* get the pointer target */
; 2107 :         sym = proc->sym.target_type;

	mov	rax, QWORD PTR proc$[rsp]
	mov	rax, QWORD PTR [rax+48]
	mov	QWORD PTR sym$[rsp], rax

; 2108 :         DebugMsg1(("InvokeDir: proc=%s target_type=>%s<\n", proc->sym.name, sym ? sym->name : "NULL" ));

	cmp	QWORD PTR sym$[rsp], 0
	je	SHORT $LN108@InvokeDire
	mov	rax, QWORD PTR sym$[rsp]
	mov	rax, QWORD PTR [rax+8]
	mov	QWORD PTR tv239[rsp], rax
	jmp	SHORT $LN109@InvokeDire
$LN108@InvokeDire:
	lea	rax, OFFSET FLAT:$SG12314
	mov	QWORD PTR tv239[rsp], rax
$LN109@InvokeDire:
	mov	r8, QWORD PTR tv239[rsp]
	mov	rax, QWORD PTR proc$[rsp]
	mov	rdx, QWORD PTR [rax+8]
	lea	rcx, OFFSET FLAT:$SG12315
	call	DoDebugMsg1

; 2109 :         if ( sym == NULL ) {

	cmp	QWORD PTR sym$[rsp], 0
	jne	SHORT $LN56@InvokeDire

; 2110 :             return( EmitErr( INVOKE_REQUIRES_PROTOTYPE ) );

	mov	ecx, 159				; 0000009fH
	call	EmitErr
	jmp	$LN1@InvokeDire
$LN56@InvokeDire:

; 2111 :         }
; 2112 :     } else {

	jmp	$LN52@InvokeDire
$LN51@InvokeDire:

; 2113 :         DebugMsg(("InvokeDir: error, sym=%s state=%u memtype=%Xh [type=%s memtype=%Xh]\n",

	mov	rax, QWORD PTR sym$[rsp]
	cmp	QWORD PTR [rax+80], 0
	je	SHORT $LN110@InvokeDire
	mov	rax, QWORD PTR sym$[rsp]
	mov	rax, QWORD PTR [rax+80]
	mov	eax, DWORD PTR [rax+36]
	mov	DWORD PTR tv251[rsp], eax
	jmp	SHORT $LN111@InvokeDire
$LN110@InvokeDire:
	mov	DWORD PTR tv251[rsp], 0
$LN111@InvokeDire:
	mov	rax, QWORD PTR sym$[rsp]
	cmp	QWORD PTR [rax+80], 0
	je	SHORT $LN112@InvokeDire
	mov	rax, QWORD PTR sym$[rsp]
	mov	rax, QWORD PTR [rax+80]
	mov	rax, QWORD PTR [rax+8]
	mov	QWORD PTR tv257[rsp], rax
	jmp	SHORT $LN113@InvokeDire
$LN112@InvokeDire:
	lea	rax, OFFSET FLAT:$SG12317
	mov	QWORD PTR tv257[rsp], rax
$LN113@InvokeDire:
	mov	eax, DWORD PTR tv251[rsp]
	mov	DWORD PTR [rsp+40], eax
	mov	rax, QWORD PTR tv257[rsp]
	mov	QWORD PTR [rsp+32], rax
	mov	rax, QWORD PTR sym$[rsp]
	mov	r9d, DWORD PTR [rax+36]
	mov	rax, QWORD PTR sym$[rsp]
	mov	r8d, DWORD PTR [rax+32]
	mov	rax, QWORD PTR sym$[rsp]
	mov	rdx, QWORD PTR [rax+8]
	lea	rcx, OFFSET FLAT:$SG12318
	call	DoDebugMsg

; 2114 :                   sym->name, sym->state, sym->mem_type,
; 2115 :                   sym->type ? sym->type->name : "NULL",
; 2116 :                   sym->type ? sym->type->mem_type : 0));
; 2117 : #ifdef DEBUG_OUT
; 2118 :         if ( sym->mem_type == MT_PTR || sym->mem_type == MT_PROC )

	mov	rax, QWORD PTR sym$[rsp]
	cmp	DWORD PTR [rax+36], 195			; 000000c3H
	je	SHORT $LN58@InvokeDire
	mov	rax, QWORD PTR sym$[rsp]
	cmp	DWORD PTR [rax+36], 128			; 00000080H
	jne	SHORT $LN57@InvokeDire
$LN58@InvokeDire:

; 2119 :             DebugMsg(("InvokeDir: error, target_type=%s [memtype=%X pmemtype=%X isproc=%u])\n",

	mov	rax, QWORD PTR sym$[rsp]
	mov	rax, QWORD PTR [rax+48]
	movzx	eax, BYTE PTR [rax+41]
	shr	al, 3
	and	al, 1
	movzx	eax, al
	mov	rcx, QWORD PTR sym$[rsp]
	mov	rcx, QWORD PTR [rcx+48]
	movzx	ecx, BYTE PTR [rcx+46]
	mov	rdx, QWORD PTR sym$[rsp]
	mov	rdx, QWORD PTR [rdx+48]
	mov	r8, QWORD PTR sym$[rsp]
	mov	r8, QWORD PTR [r8+48]
	mov	QWORD PTR tv751[rsp], r8
	mov	DWORD PTR [rsp+32], eax
	mov	r9d, ecx
	mov	r8d, DWORD PTR [rdx+36]
	mov	rax, QWORD PTR tv751[rsp]
	mov	rdx, QWORD PTR [rax+8]
	lea	rcx, OFFSET FLAT:$SG12321
	call	DoDebugMsg
$LN57@InvokeDire:

; 2120 :                       sym->target_type->name,
; 2121 :                       sym->target_type->mem_type,
; 2122 :                       sym->target_type->ptr_memtype,
; 2123 :                       sym->target_type->isproc ));
; 2124 : #endif
; 2125 :         return( EmitErr( INVOKE_REQUIRES_PROTOTYPE ) );

	mov	ecx, 159				; 0000009fH
	call	EmitErr
	jmp	$LN1@InvokeDire
$LN52@InvokeDire:
$LN50@InvokeDire:
$LN48@InvokeDire:
$LN46@InvokeDire:

; 2126 :     }
; 2127 :     proc = (struct dsym *)sym;

	mov	rax, QWORD PTR sym$[rsp]
	mov	QWORD PTR proc$[rsp], rax

; 2128 :     info = proc->e.procinfo;

	mov	rax, QWORD PTR proc$[rsp]
	mov	rax, QWORD PTR [rax+96]
	mov	QWORD PTR info$[rsp], rax

; 2129 :     /* if (Parse_Pass == PASS_1) */
; 2130 :       memset(info->vregs, 0, 6); /* reset vregs EVERY pass */

	mov	rax, QWORD PTR info$[rsp]
	add	rax, 68					; 00000044H
	mov	r8d, 6
	xor	edx, edx
	mov	rcx, rax
	call	memset

; 2131 :       /* clear sse register flags every pass*/
; 2132 :       memset(info->xyzused, 0, 6);

	mov	rax, QWORD PTR info$[rsp]
	add	rax, 74					; 0000004aH
	mov	r8d, 6
	xor	edx, edx
	mov	rcx, rax
	call	memset

; 2133 :       memset(info->vecregsize, 0, 6);

	mov	rax, QWORD PTR info$[rsp]
	add	rax, 62					; 0000003eH
	mov	r8d, 6
	xor	edx, edx
	mov	rcx, rax
	call	memset

; 2134 :       info->vsize = 0;

	mov	rax, QWORD PTR info$[rsp]
	mov	DWORD PTR [rax+44], 0

; 2135 :       //memset(regsize, 0, 6);
; 2136 :     
; 2137 : #if 0 /* v2.05: can't happen anymore */
; 2138 :     /* does FASTCALL variant support INVOKE? */
; 2139 :     if ( proc->sym.langtype == LANG_FASTCALL && fastcall_tab[ModuleInfo.fctype].invokestart == NULL ) {
; 2140 :         return( EmitError( FASTCALL_VARIANT_NOT_SUPPORTED ) );
; 2141 :     }
; 2142 : #endif
; 2143 : 
; 2144 :     /* get the number of parameters */
; 2145 :     for ( curr = info->paralist, numParam = 0 ; curr ; curr = curr->nextparam, numParam++ );

	mov	rax, QWORD PTR info$[rsp]
	mov	rax, QWORD PTR [rax+8]
	mov	QWORD PTR curr$[rsp], rax
	mov	DWORD PTR numParam$[rsp], 0
	jmp	SHORT $LN4@InvokeDire
$LN2@InvokeDire:
	mov	rax, QWORD PTR curr$[rsp]
	mov	rax, QWORD PTR [rax+112]
	mov	QWORD PTR curr$[rsp], rax
	mov	eax, DWORD PTR numParam$[rsp]
	inc	eax
	mov	DWORD PTR numParam$[rsp], eax
$LN4@InvokeDire:
	cmp	QWORD PTR curr$[rsp], 0
	je	SHORT $LN3@InvokeDire
	jmp	SHORT $LN2@InvokeDire
$LN3@InvokeDire:

; 2146 :     DebugMsg1(("InvokeDir: numparams=%u\n", numParam ));

	mov	edx, DWORD PTR numParam$[rsp]
	lea	rcx, OFFSET FLAT:$SG12322
	call	DoDebugMsg1

; 2147 : 
; 2148 :     if ( proc->sym.langtype == LANG_FASTCALL ) {

	mov	rax, QWORD PTR proc$[rsp]
	cmp	DWORD PTR [rax+76], 7
	jne	SHORT $LN59@InvokeDire

; 2149 :         fcscratch = 0;

	mov	DWORD PTR fcscratch, 0

; 2150 :         porder = fastcall_tab[ModuleInfo.fctype].invokestart( proc, numParam, i, tokenarray, &value );

	movsxd	rax, DWORD PTR ModuleInfo+376
	imul	rax, rax, 24
	lea	rcx, OFFSET FLAT:fastcall_tab
	mov	QWORD PTR tv740[rsp], rcx
	lea	rdx, QWORD PTR value$[rsp]
	mov	QWORD PTR [rsp+32], rdx
	mov	r9, QWORD PTR tokenarray$[rsp]
	mov	r8d, DWORD PTR i$[rsp]
	mov	edx, DWORD PTR numParam$[rsp]
	mov	rcx, QWORD PTR proc$[rsp]
	mov	r10, QWORD PTR tv740[rsp]
	call	QWORD PTR [r10+rax]
	mov	DWORD PTR porder$[rsp], eax

; 2151 :     }

	jmp	SHORT $LN60@InvokeDire
$LN59@InvokeDire:

; 2152 :     else if ( proc->sym.langtype == LANG_VECTORCALL ) {

	mov	rax, QWORD PTR proc$[rsp]
	cmp	DWORD PTR [rax+76], 8
	jne	SHORT $LN61@InvokeDire

; 2153 :         fcscratch = 0;

	mov	DWORD PTR fcscratch, 0

; 2154 :         porder = vectorcall_tab[ModuleInfo.fctype].invokestart( proc, numParam, i, tokenarray, &value );

	movsxd	rax, DWORD PTR ModuleInfo+376
	imul	rax, rax, 24
	lea	rcx, OFFSET FLAT:vectorcall_tab
	mov	QWORD PTR tv741[rsp], rcx
	lea	rdx, QWORD PTR value$[rsp]
	mov	QWORD PTR [rsp+32], rdx
	mov	r9, QWORD PTR tokenarray$[rsp]
	mov	r8d, DWORD PTR i$[rsp]
	mov	edx, DWORD PTR numParam$[rsp]
	mov	rcx, QWORD PTR proc$[rsp]
	mov	r10, QWORD PTR tv741[rsp]
	call	QWORD PTR [r10+rax]
	mov	DWORD PTR porder$[rsp], eax
$LN61@InvokeDire:
$LN60@InvokeDire:

; 2155 :     }
; 2156 : 
; 2157 : 	/* -----------------------------------------------------------------------------------------------
; 2158 : 	 HANDLE PARAMETERS (FIRST PASS)
; 2159 : 	----------------------------------------------------------------------------------------------- */ 
; 2160 :     curr = info->paralist;

	mov	rax, QWORD PTR info$[rsp]
	mov	rax, QWORD PTR [rax+8]
	mov	QWORD PTR curr$[rsp], rax

; 2161 :     parmpos = i;

	mov	eax, DWORD PTR i$[rsp]
	mov	DWORD PTR parmpos$[rsp], eax

; 2162 : 
; 2163 :     if ( !( info->has_vararg ) ) {

	mov	rax, QWORD PTR info$[rsp]
	movzx	eax, BYTE PTR [rax+128]
	and	al, 1
	movzx	eax, al
	test	eax, eax
	jne	SHORT $LN62@InvokeDire

; 2164 :         /* check if there is a superfluous parameter in the INVOKE call */
; 2165 :         if ( PushInvokeParam( i, tokenarray, proc, NULL, numParam, &r0flags ) != ERROR ) {

	lea	rax, QWORD PTR r0flags$[rsp]
	mov	QWORD PTR [rsp+40], rax
	mov	eax, DWORD PTR numParam$[rsp]
	mov	DWORD PTR [rsp+32], eax
	xor	r9d, r9d
	mov	r8, QWORD PTR proc$[rsp]
	mov	rdx, QWORD PTR tokenarray$[rsp]
	mov	ecx, DWORD PTR i$[rsp]
	call	PushInvokeParam
	cmp	eax, -1
	je	SHORT $LN64@InvokeDire

; 2166 :             DebugMsg(("InvokeDir: superfluous argument, i=%u\n", i));

	mov	edx, DWORD PTR i$[rsp]
	lea	rcx, OFFSET FLAT:$SG12329
	call	DoDebugMsg

; 2167 :             return( EmitErr( TOO_MANY_ARGUMENTS_TO_INVOKE ) );

	mov	ecx, 177				; 000000b1H
	call	EmitErr
	jmp	$LN1@InvokeDire
$LN64@InvokeDire:

; 2168 :         }
; 2169 :     } else {

	jmp	$LN63@InvokeDire
$LN62@InvokeDire:

; 2170 :         int j = (Token_Count - i) / 2;

	mov	eax, DWORD PTR i$[rsp]
	mov	ecx, DWORD PTR ModuleInfo+496
	sub	ecx, eax
	mov	eax, ecx
	cdq
	sub	eax, edx
	sar	eax, 1
	mov	DWORD PTR j$1[rsp], eax

; 2171 :         /* for VARARG procs, just push the additional params with
; 2172 :          the VARARG descriptor
; 2173 :         */
; 2174 :         numParam--;

	mov	eax, DWORD PTR numParam$[rsp]
	dec	eax
	mov	DWORD PTR numParam$[rsp], eax

; 2175 :         size_vararg = 0; /* reset the VARARG parameter size count */

	mov	DWORD PTR size_vararg, 0
$LN5@InvokeDire:

; 2176 :         while ( curr && curr->sym.is_vararg == FALSE ) curr = curr->nextparam;

	cmp	QWORD PTR curr$[rsp], 0
	je	SHORT $LN6@InvokeDire
	mov	rax, QWORD PTR curr$[rsp]
	movzx	eax, BYTE PTR [rax+47]
	shr	al, 5
	and	al, 1
	movzx	eax, al
	test	eax, eax
	jne	SHORT $LN6@InvokeDire
	mov	rax, QWORD PTR curr$[rsp]
	mov	rax, QWORD PTR [rax+112]
	mov	QWORD PTR curr$[rsp], rax
	jmp	SHORT $LN5@InvokeDire
$LN6@InvokeDire:

; 2177 :         DebugMsg1(("InvokeDir: VARARG proc, numparams=%u, actual (max) params=%u, parasize=%u\n", numParam, j, info->parasize));

	mov	rax, QWORD PTR info$[rsp]
	mov	r9d, DWORD PTR [rax+32]
	mov	r8d, DWORD PTR j$1[rsp]
	mov	edx, DWORD PTR numParam$[rsp]
	lea	rcx, OFFSET FLAT:$SG12330
	call	DoDebugMsg1

; 2178 :         for ( ; j >= numParam; j-- )

	jmp	SHORT $LN9@InvokeDire
$LN7@InvokeDire:
	mov	eax, DWORD PTR j$1[rsp]
	dec	eax
	mov	DWORD PTR j$1[rsp], eax
$LN9@InvokeDire:
	mov	eax, DWORD PTR numParam$[rsp]
	cmp	DWORD PTR j$1[rsp], eax
	jl	SHORT $LN8@InvokeDire

; 2179 :             PushInvokeParam( i, tokenarray, proc, curr, j, &r0flags );

	lea	rax, QWORD PTR r0flags$[rsp]
	mov	QWORD PTR [rsp+40], rax
	mov	eax, DWORD PTR j$1[rsp]
	mov	DWORD PTR [rsp+32], eax
	mov	r9, QWORD PTR curr$[rsp]
	mov	r8, QWORD PTR proc$[rsp]
	mov	rdx, QWORD PTR tokenarray$[rsp]
	mov	ecx, DWORD PTR i$[rsp]
	call	PushInvokeParam
	jmp	SHORT $LN7@InvokeDire
$LN8@InvokeDire:

; 2180 :         /* move to first non-vararg parameter, if any */
; 2181 :         for ( curr = info->paralist; curr && curr->sym.is_vararg == TRUE; curr = curr->nextparam );

	mov	rax, QWORD PTR info$[rsp]
	mov	rax, QWORD PTR [rax+8]
	mov	QWORD PTR curr$[rsp], rax
	jmp	SHORT $LN12@InvokeDire
$LN10@InvokeDire:
	mov	rax, QWORD PTR curr$[rsp]
	mov	rax, QWORD PTR [rax+112]
	mov	QWORD PTR curr$[rsp], rax
$LN12@InvokeDire:
	cmp	QWORD PTR curr$[rsp], 0
	je	SHORT $LN11@InvokeDire
	mov	rax, QWORD PTR curr$[rsp]
	movzx	eax, BYTE PTR [rax+47]
	shr	al, 5
	and	al, 1
	movzx	eax, al
	cmp	eax, 1
	jne	SHORT $LN11@InvokeDire
	jmp	SHORT $LN10@InvokeDire
$LN11@InvokeDire:
$LN63@InvokeDire:

; 2182 :     }
; 2183 :     
; 2184 :     /* the parameters are usually stored in "push" order.
; 2185 :      * This if() must match the one in proc.c, ParseParams().
; 2186 :      */
; 2187 : 
; 2188 :     if ( sym->langtype == LANG_STDCALL ||
; 2189 :         sym->langtype == LANG_C ||
; 2190 :         ( sym->langtype == LANG_FASTCALL && porder ) || 
; 2191 :         (sym->langtype == LANG_VECTORCALL  && porder) ||

	mov	rax, QWORD PTR sym$[rsp]
	cmp	DWORD PTR [rax+76], 3
	je	SHORT $LN67@InvokeDire
	mov	rax, QWORD PTR sym$[rsp]
	cmp	DWORD PTR [rax+76], 1
	je	SHORT $LN67@InvokeDire
	mov	rax, QWORD PTR sym$[rsp]
	cmp	DWORD PTR [rax+76], 7
	jne	SHORT $LN68@InvokeDire
	cmp	DWORD PTR porder$[rsp], 0
	jne	SHORT $LN67@InvokeDire
$LN68@InvokeDire:
	mov	rax, QWORD PTR sym$[rsp]
	cmp	DWORD PTR [rax+76], 8
	jne	SHORT $LN69@InvokeDire
	cmp	DWORD PTR porder$[rsp], 0
	jne	SHORT $LN67@InvokeDire
$LN69@InvokeDire:
	mov	rax, QWORD PTR sym$[rsp]
	cmp	DWORD PTR [rax+76], 2
	jne	$LN65@InvokeDire
$LN67@InvokeDire:

; 2192 :         sym->langtype == LANG_SYSCALL ) {
; 2193 :         for ( ; curr ; curr = curr->nextparam ) {

	jmp	SHORT $LN15@InvokeDire
$LN13@InvokeDire:
	mov	rax, QWORD PTR curr$[rsp]
	mov	rax, QWORD PTR [rax+112]
	mov	QWORD PTR curr$[rsp], rax
$LN15@InvokeDire:
	cmp	QWORD PTR curr$[rsp], 0
	je	SHORT $LN14@InvokeDire

; 2194 :             numParam--;

	mov	eax, DWORD PTR numParam$[rsp]
	dec	eax
	mov	DWORD PTR numParam$[rsp], eax

; 2195 :             if ( PushInvokeParam( i, tokenarray, proc, curr, numParam, &r0flags ) == ERROR ) {

	lea	rax, QWORD PTR r0flags$[rsp]
	mov	QWORD PTR [rsp+40], rax
	mov	eax, DWORD PTR numParam$[rsp]
	mov	DWORD PTR [rsp+32], eax
	mov	r9, QWORD PTR curr$[rsp]
	mov	r8, QWORD PTR proc$[rsp]
	mov	rdx, QWORD PTR tokenarray$[rsp]
	mov	ecx, DWORD PTR i$[rsp]
	call	PushInvokeParam
	cmp	eax, -1
	jne	SHORT $LN70@InvokeDire

; 2196 :                 DebugMsg(("InvokeDir: PushInvokeParam(curr=%u, i=%u, numParam=%u) failed\n", curr, i, numParam));

	mov	r9d, DWORD PTR numParam$[rsp]
	mov	r8d, DWORD PTR i$[rsp]
	mov	rdx, QWORD PTR curr$[rsp]
	lea	rcx, OFFSET FLAT:$SG12337
	call	DoDebugMsg

; 2197 :                 EmitErr( TOO_FEW_ARGUMENTS_TO_INVOKE, sym->name );

	mov	rax, QWORD PTR sym$[rsp]
	mov	rdx, QWORD PTR [rax+8]
	mov	ecx, 146				; 00000092H
	call	EmitErr
$LN70@InvokeDire:

; 2198 :             }
; 2199 :         }

	jmp	$LN13@InvokeDire
$LN14@InvokeDire:

; 2200 :     } else {

	jmp	$LN66@InvokeDire
$LN65@InvokeDire:

; 2201 :         for ( numParam = 0 ; curr && curr->sym.is_vararg == FALSE; curr = curr->nextparam, numParam++ ) {

	mov	DWORD PTR numParam$[rsp], 0
	jmp	SHORT $LN18@InvokeDire
$LN16@InvokeDire:
	mov	rax, QWORD PTR curr$[rsp]
	mov	rax, QWORD PTR [rax+112]
	mov	QWORD PTR curr$[rsp], rax
	mov	eax, DWORD PTR numParam$[rsp]
	inc	eax
	mov	DWORD PTR numParam$[rsp], eax
$LN18@InvokeDire:
	cmp	QWORD PTR curr$[rsp], 0
	je	$LN17@InvokeDire
	mov	rax, QWORD PTR curr$[rsp]
	movzx	eax, BYTE PTR [rax+47]
	shr	al, 5
	and	al, 1
	movzx	eax, al
	test	eax, eax
	jne	SHORT $LN17@InvokeDire

; 2202 :             if ( PushInvokeParam( i, tokenarray, proc, curr, numParam, &r0flags ) == ERROR ) {

	lea	rax, QWORD PTR r0flags$[rsp]
	mov	QWORD PTR [rsp+40], rax
	mov	eax, DWORD PTR numParam$[rsp]
	mov	DWORD PTR [rsp+32], eax
	mov	r9, QWORD PTR curr$[rsp]
	mov	r8, QWORD PTR proc$[rsp]
	mov	rdx, QWORD PTR tokenarray$[rsp]
	mov	ecx, DWORD PTR i$[rsp]
	call	PushInvokeParam
	cmp	eax, -1
	jne	SHORT $LN71@InvokeDire

; 2203 :                 DebugMsg(("InvokeDir: PushInvokeParam(curr=%u, i=%u, numParam=%u) failed\n", curr, i, numParam));

	mov	r9d, DWORD PTR numParam$[rsp]
	mov	r8d, DWORD PTR i$[rsp]
	mov	rdx, QWORD PTR curr$[rsp]
	lea	rcx, OFFSET FLAT:$SG12339
	call	DoDebugMsg

; 2204 :                 EmitErr( TOO_FEW_ARGUMENTS_TO_INVOKE, sym->name );

	mov	rax, QWORD PTR sym$[rsp]
	mov	rdx, QWORD PTR [rax+8]
	mov	ecx, 146				; 00000092H
	call	EmitErr
$LN71@InvokeDire:

; 2205 :             }
; 2206 :         }

	jmp	$LN16@InvokeDire
$LN17@InvokeDire:
$LN66@InvokeDire:

; 2207 :     }
; 2208 : 
; 2209 : 	/* -----------------------------------------------------------------------------------------------
; 2210 : 	HANDLE PARAMETERS (SECOND PASS FOR VECTORCALL)
; 2211 : 	----------------------------------------------------------------------------------------------- */
; 2212 : 	if (sym->langtype == LANG_VECTORCALL)

	mov	rax, QWORD PTR sym$[rsp]
	cmp	DWORD PTR [rax+76], 8
	jne	$LN72@InvokeDire

; 2213 : 	{
; 2214 : 		vcallpass = 1;

	mov	DWORD PTR vcallpass, 1

; 2215 :     info->vsize = 0;

	mov	rax, QWORD PTR info$[rsp]
	mov	DWORD PTR [rax+44], 0

; 2216 : 		curr = info->paralist;

	mov	rax, QWORD PTR info$[rsp]
	mov	rax, QWORD PTR [rax+8]
	mov	QWORD PTR curr$[rsp], rax

; 2217 : 		parmpos = i;

	mov	eax, DWORD PTR i$[rsp]
	mov	DWORD PTR parmpos$[rsp], eax

; 2218 : 
; 2219 : 		if (!(info->has_vararg)) {

	mov	rax, QWORD PTR info$[rsp]
	movzx	eax, BYTE PTR [rax+128]
	and	al, 1
	movzx	eax, al
	test	eax, eax
	jne	SHORT $LN73@InvokeDire

; 2220 : 			/* check if there is a superfluous parameter in the INVOKE call */
; 2221 : 			if (PushInvokeParam(i, tokenarray, proc, NULL, numParam, &r0flags) != ERROR) {

	lea	rax, QWORD PTR r0flags$[rsp]
	mov	QWORD PTR [rsp+40], rax
	mov	eax, DWORD PTR numParam$[rsp]
	mov	DWORD PTR [rsp+32], eax
	xor	r9d, r9d
	mov	r8, QWORD PTR proc$[rsp]
	mov	rdx, QWORD PTR tokenarray$[rsp]
	mov	ecx, DWORD PTR i$[rsp]
	call	PushInvokeParam
	cmp	eax, -1
	je	SHORT $LN75@InvokeDire

; 2222 : 				DebugMsg(("InvokeDir: superfluous argument, i=%u\n", i));

	mov	edx, DWORD PTR i$[rsp]
	lea	rcx, OFFSET FLAT:$SG12344
	call	DoDebugMsg

; 2223 : 				return(EmitErr(TOO_MANY_ARGUMENTS_TO_INVOKE));

	mov	ecx, 177				; 000000b1H
	call	EmitErr
	jmp	$LN1@InvokeDire
$LN75@InvokeDire:

; 2224 : 			}
; 2225 : 		}

	jmp	$LN74@InvokeDire
$LN73@InvokeDire:

; 2226 : 		else {
; 2227 : 			int j = (Token_Count - i) / 2;

	mov	eax, DWORD PTR i$[rsp]
	mov	ecx, DWORD PTR ModuleInfo+496
	sub	ecx, eax
	mov	eax, ecx
	cdq
	sub	eax, edx
	sar	eax, 1
	mov	DWORD PTR j$2[rsp], eax

; 2228 : 			/* for VARARG procs, just push the additional params with
; 2229 : 			the VARARG descriptor
; 2230 : 			*/
; 2231 : 			numParam--;

	mov	eax, DWORD PTR numParam$[rsp]
	dec	eax
	mov	DWORD PTR numParam$[rsp], eax

; 2232 : 			size_vararg = 0; /* reset the VARARG parameter size count */

	mov	DWORD PTR size_vararg, 0
$LN19@InvokeDire:

; 2233 : 			while (curr && curr->sym.is_vararg == FALSE) curr = curr->nextparam;

	cmp	QWORD PTR curr$[rsp], 0
	je	SHORT $LN20@InvokeDire
	mov	rax, QWORD PTR curr$[rsp]
	movzx	eax, BYTE PTR [rax+47]
	shr	al, 5
	and	al, 1
	movzx	eax, al
	test	eax, eax
	jne	SHORT $LN20@InvokeDire
	mov	rax, QWORD PTR curr$[rsp]
	mov	rax, QWORD PTR [rax+112]
	mov	QWORD PTR curr$[rsp], rax
	jmp	SHORT $LN19@InvokeDire
$LN20@InvokeDire:

; 2234 : 			DebugMsg1(("InvokeDir: VARARG proc, numparams=%u, actual (max) params=%u, parasize=%u\n", numParam, j, info->parasize));

	mov	rax, QWORD PTR info$[rsp]
	mov	r9d, DWORD PTR [rax+32]
	mov	r8d, DWORD PTR j$2[rsp]
	mov	edx, DWORD PTR numParam$[rsp]
	lea	rcx, OFFSET FLAT:$SG12345
	call	DoDebugMsg1

; 2235 : 			for (; j >= numParam; j--)

	jmp	SHORT $LN23@InvokeDire
$LN21@InvokeDire:
	mov	eax, DWORD PTR j$2[rsp]
	dec	eax
	mov	DWORD PTR j$2[rsp], eax
$LN23@InvokeDire:
	mov	eax, DWORD PTR numParam$[rsp]
	cmp	DWORD PTR j$2[rsp], eax
	jl	SHORT $LN22@InvokeDire

; 2236 : 				PushInvokeParam(i, tokenarray, proc, curr, j, &r0flags);

	lea	rax, QWORD PTR r0flags$[rsp]
	mov	QWORD PTR [rsp+40], rax
	mov	eax, DWORD PTR j$2[rsp]
	mov	DWORD PTR [rsp+32], eax
	mov	r9, QWORD PTR curr$[rsp]
	mov	r8, QWORD PTR proc$[rsp]
	mov	rdx, QWORD PTR tokenarray$[rsp]
	mov	ecx, DWORD PTR i$[rsp]
	call	PushInvokeParam
	jmp	SHORT $LN21@InvokeDire
$LN22@InvokeDire:

; 2237 : 			/* move to first non-vararg parameter, if any */
; 2238 : 			for (curr = info->paralist; curr && curr->sym.is_vararg == TRUE; curr = curr->nextparam);

	mov	rax, QWORD PTR info$[rsp]
	mov	rax, QWORD PTR [rax+8]
	mov	QWORD PTR curr$[rsp], rax
	jmp	SHORT $LN26@InvokeDire
$LN24@InvokeDire:
	mov	rax, QWORD PTR curr$[rsp]
	mov	rax, QWORD PTR [rax+112]
	mov	QWORD PTR curr$[rsp], rax
$LN26@InvokeDire:
	cmp	QWORD PTR curr$[rsp], 0
	je	SHORT $LN25@InvokeDire
	mov	rax, QWORD PTR curr$[rsp]
	movzx	eax, BYTE PTR [rax+47]
	shr	al, 5
	and	al, 1
	movzx	eax, al
	cmp	eax, 1
	jne	SHORT $LN25@InvokeDire
	jmp	SHORT $LN24@InvokeDire
$LN25@InvokeDire:
$LN74@InvokeDire:

; 2239 : 		}
; 2240 : 
; 2241 : 		/* the parameters are usually stored in "push" order.
; 2242 : 		* This if() must match the one in proc.c, ParseParams().
; 2243 : 		*/
; 2244 : 
; 2245 : 		if (sym->langtype == LANG_STDCALL ||
; 2246 : 			sym->langtype == LANG_C ||
; 2247 : 			(sym->langtype == LANG_FASTCALL && porder) ||
; 2248 : 			(sym->langtype == LANG_VECTORCALL  && porder) ||

	mov	rax, QWORD PTR sym$[rsp]
	cmp	DWORD PTR [rax+76], 3
	je	SHORT $LN78@InvokeDire
	mov	rax, QWORD PTR sym$[rsp]
	cmp	DWORD PTR [rax+76], 1
	je	SHORT $LN78@InvokeDire
	mov	rax, QWORD PTR sym$[rsp]
	cmp	DWORD PTR [rax+76], 7
	jne	SHORT $LN79@InvokeDire
	cmp	DWORD PTR porder$[rsp], 0
	jne	SHORT $LN78@InvokeDire
$LN79@InvokeDire:
	mov	rax, QWORD PTR sym$[rsp]
	cmp	DWORD PTR [rax+76], 8
	jne	SHORT $LN80@InvokeDire
	cmp	DWORD PTR porder$[rsp], 0
	jne	SHORT $LN78@InvokeDire
$LN80@InvokeDire:
	mov	rax, QWORD PTR sym$[rsp]
	cmp	DWORD PTR [rax+76], 2
	jne	$LN76@InvokeDire
$LN78@InvokeDire:

; 2249 : 			sym->langtype == LANG_SYSCALL) {
; 2250 : 			for (; curr; curr = curr->nextparam) {

	jmp	SHORT $LN29@InvokeDire
$LN27@InvokeDire:
	mov	rax, QWORD PTR curr$[rsp]
	mov	rax, QWORD PTR [rax+112]
	mov	QWORD PTR curr$[rsp], rax
$LN29@InvokeDire:
	cmp	QWORD PTR curr$[rsp], 0
	je	SHORT $LN28@InvokeDire

; 2251 : 				numParam--;

	mov	eax, DWORD PTR numParam$[rsp]
	dec	eax
	mov	DWORD PTR numParam$[rsp], eax

; 2252 : 				if (PushInvokeParam(i, tokenarray, proc, curr, numParam, &r0flags) == ERROR) {

	lea	rax, QWORD PTR r0flags$[rsp]
	mov	QWORD PTR [rsp+40], rax
	mov	eax, DWORD PTR numParam$[rsp]
	mov	DWORD PTR [rsp+32], eax
	mov	r9, QWORD PTR curr$[rsp]
	mov	r8, QWORD PTR proc$[rsp]
	mov	rdx, QWORD PTR tokenarray$[rsp]
	mov	ecx, DWORD PTR i$[rsp]
	call	PushInvokeParam
	cmp	eax, -1
	jne	SHORT $LN81@InvokeDire

; 2253 : 					DebugMsg(("InvokeDir: PushInvokeParam(curr=%u, i=%u, numParam=%u) failed\n", curr, i, numParam));

	mov	r9d, DWORD PTR numParam$[rsp]
	mov	r8d, DWORD PTR i$[rsp]
	mov	rdx, QWORD PTR curr$[rsp]
	lea	rcx, OFFSET FLAT:$SG12352
	call	DoDebugMsg

; 2254 : 					EmitErr(TOO_FEW_ARGUMENTS_TO_INVOKE, sym->name);

	mov	rax, QWORD PTR sym$[rsp]
	mov	rdx, QWORD PTR [rax+8]
	mov	ecx, 146				; 00000092H
	call	EmitErr
$LN81@InvokeDire:

; 2255 : 				}
; 2256 : 			}

	jmp	$LN27@InvokeDire
$LN28@InvokeDire:

; 2257 : 		}

	jmp	$LN77@InvokeDire
$LN76@InvokeDire:

; 2258 : 		else {
; 2259 : 			for (numParam = 0; curr && curr->sym.is_vararg == FALSE; curr = curr->nextparam, numParam++) {

	mov	DWORD PTR numParam$[rsp], 0
	jmp	SHORT $LN32@InvokeDire
$LN30@InvokeDire:
	mov	rax, QWORD PTR curr$[rsp]
	mov	rax, QWORD PTR [rax+112]
	mov	QWORD PTR curr$[rsp], rax
	mov	eax, DWORD PTR numParam$[rsp]
	inc	eax
	mov	DWORD PTR numParam$[rsp], eax
$LN32@InvokeDire:
	cmp	QWORD PTR curr$[rsp], 0
	je	$LN31@InvokeDire
	mov	rax, QWORD PTR curr$[rsp]
	movzx	eax, BYTE PTR [rax+47]
	shr	al, 5
	and	al, 1
	movzx	eax, al
	test	eax, eax
	jne	SHORT $LN31@InvokeDire

; 2260 : 				if (PushInvokeParam(i, tokenarray, proc, curr, numParam, &r0flags) == ERROR) {

	lea	rax, QWORD PTR r0flags$[rsp]
	mov	QWORD PTR [rsp+40], rax
	mov	eax, DWORD PTR numParam$[rsp]
	mov	DWORD PTR [rsp+32], eax
	mov	r9, QWORD PTR curr$[rsp]
	mov	r8, QWORD PTR proc$[rsp]
	mov	rdx, QWORD PTR tokenarray$[rsp]
	mov	ecx, DWORD PTR i$[rsp]
	call	PushInvokeParam
	cmp	eax, -1
	jne	SHORT $LN82@InvokeDire

; 2261 : 					DebugMsg(("InvokeDir: PushInvokeParam(curr=%u, i=%u, numParam=%u) failed\n", curr, i, numParam));

	mov	r9d, DWORD PTR numParam$[rsp]
	mov	r8d, DWORD PTR i$[rsp]
	mov	rdx, QWORD PTR curr$[rsp]
	lea	rcx, OFFSET FLAT:$SG12354
	call	DoDebugMsg

; 2262 : 					EmitErr(TOO_FEW_ARGUMENTS_TO_INVOKE, sym->name);

	mov	rax, QWORD PTR sym$[rsp]
	mov	rdx, QWORD PTR [rax+8]
	mov	ecx, 146				; 00000092H
	call	EmitErr
$LN82@InvokeDire:

; 2263 : 				}
; 2264 : 			}

	jmp	$LN30@InvokeDire
$LN31@InvokeDire:
$LN77@InvokeDire:
$LN72@InvokeDire:

; 2265 : 		}
; 2266 : 	}
; 2267 : 	vcallpass = 0;

	mov	DWORD PTR vcallpass, 0

; 2268 : 
; 2269 : #if 1
; 2270 :     /* v2.05 added. A warning only, because Masm accepts this. */
; 2271 :     if ( opnd.base_reg != NULL &&
; 2272 :         Parse_Pass == PASS_1 &&
; 2273 :         (r0flags & R0_USED ) &&

	cmp	QWORD PTR opnd$[rsp+24], 0
	je	SHORT $LN83@InvokeDire
	cmp	DWORD PTR Parse_Pass, 0
	jne	SHORT $LN83@InvokeDire
	movzx	eax, BYTE PTR r0flags$[rsp]
	and	eax, 1
	test	eax, eax
	je	SHORT $LN83@InvokeDire
	mov	rax, QWORD PTR opnd$[rsp+24]
	movzx	eax, BYTE PTR [rax+1]
	test	eax, eax
	jne	SHORT $LN83@InvokeDire

; 2274 :         opnd.base_reg->bytval == 0 )
; 2275 :         EmitWarn( 2, REGISTER_VALUE_OVERWRITTEN_BY_INVOKE );

	mov	edx, 165				; 000000a5H
	mov	ecx, 2
	call	EmitWarn
$LN83@InvokeDire:

; 2276 : #endif
; 2277 :     p = StringBufferEnd;

	mov	rax, QWORD PTR ModuleInfo+488
	mov	QWORD PTR p$[rsp], rax

; 2278 :     strcpy( p, " call " );

	lea	rdx, OFFSET FLAT:$SG12356
	mov	rcx, QWORD PTR p$[rsp]
	call	strcpy

; 2279 :     p += 6;

	mov	rax, QWORD PTR p$[rsp]
	add	rax, 6
	mov	QWORD PTR p$[rsp], rax

; 2280 :     /* v2.09: 'uselabel' obsolete */
; 2281 :     //if ( uselabel ) {
; 2282 :     //    DebugMsg1(("InvokeDir: opnd.label_tok is used: %s\n", opnd.label_tok->string_ptr ));
; 2283 :     //    strcpy( p, opnd.label_tok->string_ptr );
; 2284 :     //} else {
; 2285 : #if DLLIMPORT
; 2286 :         if ( sym->state == SYM_EXTERNAL && sym->dll ) {

	mov	rax, QWORD PTR sym$[rsp]
	cmp	DWORD PTR [rax+32], 2
	jne	$LN84@InvokeDire
	mov	rax, QWORD PTR sym$[rsp]
	cmp	QWORD PTR [rax+56], 0
	je	$LN84@InvokeDire

; 2287 :             char *iatname = p;

	mov	rax, QWORD PTR p$[rsp]
	mov	QWORD PTR iatname$3[rsp], rax

; 2288 :             strcpy( p, ModuleInfo.g.imp_prefix );

	mov	rdx, QWORD PTR ModuleInfo+88
	mov	rcx, QWORD PTR p$[rsp]
	call	strcpy

; 2289 :             p += strlen( p );

	mov	rcx, QWORD PTR p$[rsp]
	call	strlen
	mov	rcx, QWORD PTR p$[rsp]
	add	rcx, rax
	mov	rax, rcx
	mov	QWORD PTR p$[rsp], rax

; 2290 :             p += Mangle( sym, p );

	mov	rdx, QWORD PTR p$[rsp]
	mov	rcx, QWORD PTR sym$[rsp]
	call	Mangle
	cdqe
	mov	rcx, QWORD PTR p$[rsp]
	add	rcx, rax
	mov	rax, rcx
	mov	QWORD PTR p$[rsp], rax

; 2291 :             namepos++;

	mov	eax, DWORD PTR namepos$[rsp]
	inc	eax
	mov	DWORD PTR namepos$[rsp], eax

; 2292 :             if ( sym->iat_used == FALSE ) {

	mov	rax, QWORD PTR sym$[rsp]
	movzx	eax, BYTE PTR [rax+40]
	shr	al, 3
	and	al, 1
	movzx	eax, al
	test	eax, eax
	jne	$LN85@InvokeDire

; 2293 :                 sym->iat_used = TRUE;

	mov	rax, QWORD PTR sym$[rsp]
	movzx	eax, BYTE PTR [rax+40]
	or	al, 8
	mov	rcx, QWORD PTR sym$[rsp]
	mov	BYTE PTR [rcx+40], al

; 2294 :                 sym->dll->cnt++;

	mov	rax, QWORD PTR sym$[rsp]
	mov	rax, QWORD PTR [rax+56]
	mov	eax, DWORD PTR [rax+8]
	inc	eax
	mov	rcx, QWORD PTR sym$[rsp]
	mov	rcx, QWORD PTR [rcx+56]
	mov	DWORD PTR [rcx+8], eax

; 2295 :                 if ( sym->langtype != LANG_NONE && sym->langtype != ModuleInfo.langtype )

	mov	rax, QWORD PTR sym$[rsp]
	cmp	DWORD PTR [rax+76], 0
	je	SHORT $LN86@InvokeDire
	mov	rax, QWORD PTR sym$[rsp]
	mov	ecx, DWORD PTR ModuleInfo+364
	cmp	DWORD PTR [rax+76], ecx
	je	SHORT $LN86@InvokeDire

; 2296 :                     AddLineQueueX( " externdef %r %s: %r %r", sym->langtype + T_C - 1, iatname, T_PTR, T_PROC );

	mov	rax, QWORD PTR sym$[rsp]
	mov	eax, DWORD PTR [rax+76]
	add	eax, 263				; 00000107H
	mov	DWORD PTR [rsp+32], 433			; 000001b1H
	mov	r9d, 258				; 00000102H
	mov	r8, QWORD PTR iatname$3[rsp]
	mov	edx, eax
	lea	rcx, OFFSET FLAT:$SG12361
	call	AddLineQueueX
	jmp	SHORT $LN87@InvokeDire
$LN86@InvokeDire:

; 2297 :                 else
; 2298 :                     AddLineQueueX( " externdef %s: %r %r", iatname, T_PTR, T_PROC );

	mov	r9d, 433				; 000001b1H
	mov	r8d, 258				; 00000102H
	mov	rdx, QWORD PTR iatname$3[rsp]
	lea	rcx, OFFSET FLAT:$SG12362
	call	AddLineQueueX
$LN87@InvokeDire:
$LN85@InvokeDire:
$LN84@InvokeDire:

; 2299 :             }
; 2300 :         }
; 2301 : #endif
; 2302 :         size = tokenarray[parmpos].tokpos - tokenarray[namepos].tokpos;

	movsxd	rax, DWORD PTR parmpos$[rsp]
	imul	rax, rax, 32				; 00000020H
	movsxd	rcx, DWORD PTR namepos$[rsp]
	imul	rcx, rcx, 32				; 00000020H
	mov	rdx, QWORD PTR tokenarray$[rsp]
	mov	r8, QWORD PTR tokenarray$[rsp]
	mov	rcx, QWORD PTR [r8+rcx+24]
	mov	rax, QWORD PTR [rdx+rax+24]
	sub	rax, rcx
	mov	DWORD PTR size$[rsp], eax

; 2303 :         memcpy( p, tokenarray[namepos].tokpos, size );

	movsxd	rax, DWORD PTR size$[rsp]
	movsxd	rcx, DWORD PTR namepos$[rsp]
	imul	rcx, rcx, 32				; 00000020H
	mov	r8, rax
	mov	rax, QWORD PTR tokenarray$[rsp]
	mov	rdx, QWORD PTR [rax+rcx+24]
	mov	rcx, QWORD PTR p$[rsp]
	call	memcpy

; 2304 :         *(p+size) = NULLC;

	movsxd	rax, DWORD PTR size$[rsp]
	mov	rcx, QWORD PTR p$[rsp]
	mov	BYTE PTR [rcx+rax], 0

; 2305 : #if 0  /* v2.09: uselabel obsolete */
; 2306 :     }
; 2307 : #endif
; 2308 :     AddLineQueue( StringBufferEnd );

	mov	rcx, QWORD PTR ModuleInfo+488
	call	AddLineQueue

; 2309 : 
; 2310 :     if (( sym->langtype == LANG_C || sym->langtype == LANG_SYSCALL ) &&

	mov	rax, QWORD PTR sym$[rsp]
	cmp	DWORD PTR [rax+76], 1
	je	SHORT $LN90@InvokeDire
	mov	rax, QWORD PTR sym$[rsp]
	cmp	DWORD PTR [rax+76], 2
	jne	$LN88@InvokeDire
$LN90@InvokeDire:
	mov	rax, QWORD PTR info$[rsp]
	cmp	DWORD PTR [rax+32], 0
	jne	SHORT $LN91@InvokeDire
	mov	rax, QWORD PTR info$[rsp]
	movzx	eax, BYTE PTR [rax+128]
	and	al, 1
	movzx	eax, al
	test	eax, eax
	je	$LN88@InvokeDire
	cmp	DWORD PTR size_vararg, 0
	je	$LN88@InvokeDire
$LN91@InvokeDire:

; 2311 :         ( info->parasize || ( info->has_vararg && size_vararg ) )) {
; 2312 :         if ( info->has_vararg ) {

	mov	rax, QWORD PTR info$[rsp]
	movzx	eax, BYTE PTR [rax+128]
	and	al, 1
	movzx	eax, al
	test	eax, eax
	je	SHORT $LN92@InvokeDire

; 2313 :             DebugMsg1(("InvokeDir: size of fix args=%u, var args=%u\n", info->parasize, size_vararg));

	mov	r8d, DWORD PTR size_vararg
	mov	rax, QWORD PTR info$[rsp]
	mov	edx, DWORD PTR [rax+32]
	lea	rcx, OFFSET FLAT:$SG12369
	call	DoDebugMsg1

; 2314 :             AddLineQueueX( " add %r, %u", stackreg[ModuleInfo.Ofssize], NUMQUAL info->parasize + size_vararg );

	mov	rax, QWORD PTR info$[rsp]
	mov	eax, DWORD PTR [rax+32]
	add	eax, DWORD PTR size_vararg
	movzx	ecx, BYTE PTR ModuleInfo+404
	lea	rdx, OFFSET FLAT:stackreg
	mov	r8d, eax
	mov	edx, DWORD PTR [rdx+rcx*4]
	lea	rcx, OFFSET FLAT:$SG12370
	call	AddLineQueueX

; 2315 :         } else

	jmp	SHORT $LN93@InvokeDire
$LN92@InvokeDire:

; 2316 :             AddLineQueueX( " add %r, %u", stackreg[ModuleInfo.Ofssize], NUMQUAL info->parasize );

	movzx	eax, BYTE PTR ModuleInfo+404
	lea	rcx, OFFSET FLAT:stackreg
	mov	rdx, QWORD PTR info$[rsp]
	mov	r8d, DWORD PTR [rdx+32]
	mov	edx, DWORD PTR [rcx+rax*4]
	lea	rcx, OFFSET FLAT:$SG12371
	call	AddLineQueueX
$LN93@InvokeDire:

; 2317 :     } 

	jmp	$LN89@InvokeDire
$LN88@InvokeDire:

; 2318 :     else if ( sym->langtype == LANG_FASTCALL ) {

	mov	rax, QWORD PTR sym$[rsp]
	cmp	DWORD PTR [rax+76], 7
	jne	SHORT $LN94@InvokeDire

; 2319 :         fastcall_tab[ModuleInfo.fctype].invokeend( proc, numParam, value );

	movsxd	rax, DWORD PTR ModuleInfo+376
	imul	rax, rax, 24
	lea	rcx, OFFSET FLAT:fastcall_tab
	mov	QWORD PTR tv744[rsp], rcx
	mov	r8d, DWORD PTR value$[rsp]
	mov	edx, DWORD PTR numParam$[rsp]
	mov	rcx, QWORD PTR proc$[rsp]
	mov	r9, QWORD PTR tv744[rsp]
	call	QWORD PTR [r9+rax+8]

; 2320 :     }

	jmp	SHORT $LN95@InvokeDire
$LN94@InvokeDire:

; 2321 :     else if ( sym->langtype == LANG_VECTORCALL ) {

	mov	rax, QWORD PTR sym$[rsp]
	cmp	DWORD PTR [rax+76], 8
	jne	SHORT $LN96@InvokeDire

; 2322 :         vectorcall_tab[ModuleInfo.fctype].invokeend( proc, numParam, value );

	movsxd	rax, DWORD PTR ModuleInfo+376
	imul	rax, rax, 24
	lea	rcx, OFFSET FLAT:vectorcall_tab
	mov	QWORD PTR tv745[rsp], rcx
	mov	r8d, DWORD PTR value$[rsp]
	mov	edx, DWORD PTR numParam$[rsp]
	mov	rcx, QWORD PTR proc$[rsp]
	mov	r9, QWORD PTR tv745[rsp]
	call	QWORD PTR [r9+rax+8]
$LN96@InvokeDire:
$LN95@InvokeDire:
$LN89@InvokeDire:

; 2323 :     }
; 2324 : 
; 2325 :     LstWrite( LSTTYPE_DIRECTIVE, GetCurrOffset(), NULL );

	call	GetCurrOffset
	xor	r8d, r8d
	mov	edx, eax
	mov	ecx, 4
	call	LstWrite

; 2326 : 
; 2327 :     RunLineQueue();

	call	RunLineQueue

; 2328 : 
; 2329 :     return( NOT_ERROR );

	xor	eax, eax
$LN1@InvokeDire:

; 2330 : }

	add	rsp, 376				; 00000178H
	ret	0
InvokeDirective ENDP
_TEXT	ENDS
; Function compile flags: /Odtp
; File d:\hjwasm\hjwasm2.13.1s\hjwasm2.13.1s\invoke.c
_TEXT	SEGMENT
asize$ = 64
psize$ = 68
Ofssize$ = 72
addr$ = 73
reg$1 = 76
pushsize$ = 80
j$ = 84
sreg$2 = 88
dw$3 = 92
fptrsize$ = 96
asize2$4 = 100
tv771 = 104
tv1238 = 108
qual$5 = 112
currParm$ = 116
optype$6 = 120
opnd$ = 128
instr$7 = 240
tv710 = 248
tv714 = 252
tv1117 = 256
tv1191 = 260
tv193 = 264
tv427 = 268
reg$ = 272
tv1653 = 276
tv1710 = 280
tv1423 = 284
suffix$8 = 288
tv1457 = 296
tv68 = 304
$T9 = 312
tv830 = 320
tv891 = 328
tv1112 = 336
tv1322 = 344
tv1323 = 352
tv1327 = 360
tv1330 = 368
fullparam$ = 384
buffer$ = 1408
__$ArrayPad$ = 2432
i$ = 2464
tokenarray$ = 2472
proc$ = 2480
curr$ = 2488
reqParam$ = 2496
r0flags$ = 2504
PushInvokeParam PROC

; 1283 : {

	mov	QWORD PTR [rsp+32], r9
	mov	QWORD PTR [rsp+24], r8
	mov	QWORD PTR [rsp+16], rdx
	mov	DWORD PTR [rsp+8], ecx
	sub	rsp, 2456				; 00000998H
	mov	rax, QWORD PTR __security_cookie
	xor	rax, rsp
	mov	QWORD PTR __$ArrayPad$[rsp], rax

; 1284 :     int currParm;
; 1285 :     int psize;
; 1286 :     int asize;
; 1287 :     int pushsize;
; 1288 :     int j;
; 1289 :     int fptrsize;
; 1290 :     char Ofssize;
; 1291 :     bool addr = FALSE; /* ADDR operator found */

	mov	BYTE PTR addr$[rsp], 0

; 1292 :     struct expr opnd;
; 1293 :     char fullparam[MAX_LINE_LEN];
; 1294 :     char buffer[MAX_LINE_LEN];
; 1295 :     int reg;
; 1296 :     DebugMsg1(("PushInvokeParam(%s, param=%s:%u, i=%u ) enter\n", proc->sym.name, curr ? curr->sym.name : "NULL", reqParam, i ));

	cmp	QWORD PTR curr$[rsp], 0
	je	SHORT $LN253@PushInvoke
	mov	rax, QWORD PTR curr$[rsp]
	mov	rax, QWORD PTR [rax+8]
	mov	QWORD PTR tv68[rsp], rax
	jmp	SHORT $LN254@PushInvoke
$LN253@PushInvoke:
	lea	rax, OFFSET FLAT:$SG11866
	mov	QWORD PTR tv68[rsp], rax
$LN254@PushInvoke:
	mov	eax, DWORD PTR i$[rsp]
	mov	DWORD PTR [rsp+32], eax
	mov	r9d, DWORD PTR reqParam$[rsp]
	mov	r8, QWORD PTR tv68[rsp]
	mov	rax, QWORD PTR proc$[rsp]
	mov	rdx, QWORD PTR [rax+8]
	lea	rcx, OFFSET FLAT:$SG11867
	call	DoDebugMsg1

; 1297 :    //__debugbreak();
; 1298 :     for ( currParm = 0; currParm <= reqParam; ) {

	mov	DWORD PTR currParm$[rsp], 0
$LN2@PushInvoke:
	mov	eax, DWORD PTR reqParam$[rsp]
	cmp	DWORD PTR currParm$[rsp], eax
	jg	$LN3@PushInvoke

; 1299 :         if ( tokenarray[i].token == T_FINAL ) { /* this is no real error! */

	movsxd	rax, DWORD PTR i$[rsp]
	imul	rax, rax, 32				; 00000020H
	mov	rcx, QWORD PTR tokenarray$[rsp]
	movzx	eax, BYTE PTR [rcx+rax]
	test	eax, eax
	jne	SHORT $LN16@PushInvoke

; 1300 :             DebugMsg1(("PushInvokeParam(%s): T_FINAL token, i=%u\n", proc->sym.name, i));

	mov	r8d, DWORD PTR i$[rsp]
	mov	rax, QWORD PTR proc$[rsp]
	mov	rdx, QWORD PTR [rax+8]
	lea	rcx, OFFSET FLAT:$SG11869
	call	DoDebugMsg1

; 1301 :             return( ERROR );

	mov	eax, -1
	jmp	$LN1@PushInvoke
$LN16@PushInvoke:

; 1302 :         }
; 1303 :         if ( tokenarray[i].token == T_COMMA ) {

	movsxd	rax, DWORD PTR i$[rsp]
	imul	rax, rax, 32				; 00000020H
	mov	rcx, QWORD PTR tokenarray$[rsp]
	movzx	eax, BYTE PTR [rcx+rax]
	cmp	eax, 44					; 0000002cH
	jne	SHORT $LN17@PushInvoke

; 1304 :             currParm++;

	mov	eax, DWORD PTR currParm$[rsp]
	inc	eax
	mov	DWORD PTR currParm$[rsp], eax
$LN17@PushInvoke:

; 1305 :         }
; 1306 :         i++;

	mov	eax, DWORD PTR i$[rsp]
	inc	eax
	mov	DWORD PTR i$[rsp], eax

; 1307 :     }

	jmp	$LN2@PushInvoke
$LN3@PushInvoke:

; 1308 :     /* if curr is NULL this call is just a parameter check */
; 1309 :     if ( !curr ) return( NOT_ERROR );

	cmp	QWORD PTR curr$[rsp], 0
	jne	SHORT $LN18@PushInvoke
	xor	eax, eax
	jmp	$LN1@PushInvoke
$LN18@PushInvoke:

; 1310 : 
; 1311 : #if 1 /* v2.05 */
; 1312 :     psize = curr->sym.total_size;

	mov	rax, QWORD PTR curr$[rsp]
	mov	eax, DWORD PTR [rax+56]
	mov	DWORD PTR psize$[rsp], eax

; 1313 :     DebugMsg1(("PushInvokeParam(%s,%u): pmtype=%Xh, psize=%u\n", proc->sym.name, reqParam, curr->sym.mem_type, psize ));

	mov	eax, DWORD PTR psize$[rsp]
	mov	DWORD PTR [rsp+32], eax
	mov	rax, QWORD PTR curr$[rsp]
	mov	r9d, DWORD PTR [rax+36]
	mov	r8d, DWORD PTR reqParam$[rsp]
	mov	rax, QWORD PTR proc$[rsp]
	mov	rdx, QWORD PTR [rax+8]
	lea	rcx, OFFSET FLAT:$SG11872
	call	DoDebugMsg1

; 1314 : #else
; 1315 :     /* set psize (size of parameter) */
; 1316 :     if ( curr->is_ptr ) {
; 1317 :         psize = 2 << curr->sym.Ofssize;
; 1318 :         if ( curr->sym.isfar )
; 1319 :             psize += 2;
; 1320 :     } else
; 1321 :         psize = SizeFromMemtype( curr->sym.mem_type, curr->sym.Ofssize, curr->sym.type );
; 1322 :     DebugMsg1(("PushInvokeParam(%s,%u): is_ptr=%u, pmtype=%Xh, psize=%u\n", proc->sym.name, reqParam, curr->is_ptr, curr->sym.mem_type, psize ));
; 1323 : #endif
; 1324 : 
; 1325 :     /* ADDR: the argument's address is to be pushed? */
; 1326 :     if ( tokenarray[i].token == T_RES_ID && tokenarray[i].tokval == T_ADDR ) {

	movsxd	rax, DWORD PTR i$[rsp]
	imul	rax, rax, 32				; 00000020H
	mov	rcx, QWORD PTR tokenarray$[rsp]
	movzx	eax, BYTE PTR [rcx+rax]
	cmp	eax, 7
	jne	SHORT $LN19@PushInvoke
	movsxd	rax, DWORD PTR i$[rsp]
	imul	rax, rax, 32				; 00000020H
	mov	rcx, QWORD PTR tokenarray$[rsp]
	cmp	DWORD PTR [rcx+rax+16], 260		; 00000104H
	jne	SHORT $LN19@PushInvoke

; 1327 :         addr = TRUE;

	mov	BYTE PTR addr$[rsp], 1

; 1328 :         i++;

	mov	eax, DWORD PTR i$[rsp]
	inc	eax
	mov	DWORD PTR i$[rsp], eax
$LN19@PushInvoke:

; 1329 :     }
; 1330 : 
; 1331 :     /* copy the parameter tokens to fullparam */
; 1332 :     for ( j = i; tokenarray[j].token != T_COMMA && tokenarray[j].token != T_FINAL; j++ );

	mov	eax, DWORD PTR i$[rsp]
	mov	DWORD PTR j$[rsp], eax
	jmp	SHORT $LN7@PushInvoke
$LN5@PushInvoke:
	mov	eax, DWORD PTR j$[rsp]
	inc	eax
	mov	DWORD PTR j$[rsp], eax
$LN7@PushInvoke:
	movsxd	rax, DWORD PTR j$[rsp]
	imul	rax, rax, 32				; 00000020H
	mov	rcx, QWORD PTR tokenarray$[rsp]
	movzx	eax, BYTE PTR [rcx+rax]
	cmp	eax, 44					; 0000002cH
	je	SHORT $LN6@PushInvoke
	movsxd	rax, DWORD PTR j$[rsp]
	imul	rax, rax, 32				; 00000020H
	mov	rcx, QWORD PTR tokenarray$[rsp]
	movzx	eax, BYTE PTR [rcx+rax]
	test	eax, eax
	je	SHORT $LN6@PushInvoke
	jmp	SHORT $LN5@PushInvoke
$LN6@PushInvoke:

; 1333 :     memcpy( fullparam, tokenarray[i].tokpos, tokenarray[j].tokpos - tokenarray[i].tokpos );

	movsxd	rax, DWORD PTR j$[rsp]
	imul	rax, rax, 32				; 00000020H
	movsxd	rcx, DWORD PTR i$[rsp]
	imul	rcx, rcx, 32				; 00000020H
	mov	rdx, QWORD PTR tokenarray$[rsp]
	mov	r8, QWORD PTR tokenarray$[rsp]
	mov	rcx, QWORD PTR [r8+rcx+24]
	mov	rax, QWORD PTR [rdx+rax+24]
	sub	rax, rcx
	movsxd	rcx, DWORD PTR i$[rsp]
	imul	rcx, rcx, 32				; 00000020H
	mov	r8, rax
	mov	rax, QWORD PTR tokenarray$[rsp]
	mov	rdx, QWORD PTR [rax+rcx+24]
	lea	rcx, QWORD PTR fullparam$[rsp]
	call	memcpy

; 1334 :     fullparam[tokenarray[j].tokpos - tokenarray[i].tokpos] = NULLC;

	movsxd	rax, DWORD PTR j$[rsp]
	imul	rax, rax, 32				; 00000020H
	movsxd	rcx, DWORD PTR i$[rsp]
	imul	rcx, rcx, 32				; 00000020H
	mov	rdx, QWORD PTR tokenarray$[rsp]
	mov	r8, QWORD PTR tokenarray$[rsp]
	mov	rcx, QWORD PTR [r8+rcx+24]
	mov	rax, QWORD PTR [rdx+rax+24]
	sub	rax, rcx
	mov	QWORD PTR $T9[rsp], rax
	cmp	QWORD PTR $T9[rsp], 1024		; 00000400H
	jae	SHORT $LN255@PushInvoke
	jmp	SHORT $LN256@PushInvoke
$LN255@PushInvoke:
	call	__report_rangecheckfailure
$LN256@PushInvoke:
	mov	rax, QWORD PTR $T9[rsp]
	mov	BYTE PTR fullparam$[rsp+rax], 0

; 1335 : 
; 1336 :     j = i;

	mov	eax, DWORD PTR i$[rsp]
	mov	DWORD PTR j$[rsp], eax

; 1337 :     /* v2.11: GetSymOfssize() doesn't work for state SYM_TYPE */
; 1338 :     //fptrsize = 2 + ( 2 << GetSymOfssize( &proc->sym ) );
; 1339 :     Ofssize = ( proc->sym.state == SYM_TYPE ? proc->sym.seg_ofssize : GetSymOfssize( &proc->sym ) );

	mov	rax, QWORD PTR proc$[rsp]
	cmp	DWORD PTR [rax+32], 7
	jne	SHORT $LN257@PushInvoke
	mov	rax, QWORD PTR proc$[rsp]
	movzx	eax, BYTE PTR [rax+47]
	and	al, 3
	movzx	eax, al
	mov	DWORD PTR tv193[rsp], eax
	jmp	SHORT $LN258@PushInvoke
$LN257@PushInvoke:
	mov	rax, QWORD PTR proc$[rsp]
	mov	rcx, rax
	call	GetSymOfssize
	mov	DWORD PTR tv193[rsp], eax
$LN258@PushInvoke:
	movzx	eax, BYTE PTR tv193[rsp]
	mov	BYTE PTR Ofssize$[rsp], al

; 1340 :     fptrsize = 2 + ( 2 << Ofssize );

	movsx	eax, BYTE PTR Ofssize$[rsp]
	mov	ecx, 2
	mov	DWORD PTR tv1423[rsp], ecx
	movzx	ecx, al
	mov	eax, DWORD PTR tv1423[rsp]
	shl	eax, cl
	add	eax, 2
	mov	DWORD PTR fptrsize$[rsp], eax

; 1341 : 
; 1342 :     if ( addr ) {

	movzx	eax, BYTE PTR addr$[rsp]
	test	eax, eax
	je	$LN20@PushInvoke

; 1343 :         /* v2.06: don't handle forward refs if -Zne is set */
; 1344 :         //if ( EvalOperand( &j, Token_Count, &opnd, 0 ) == ERROR )
; 1345 :         if ( EvalOperand( &j, tokenarray, Token_Count, &opnd, ModuleInfo.invoke_exprparm ) == ERROR )

	movzx	eax, BYTE PTR ModuleInfo+426
	mov	BYTE PTR [rsp+32], al
	lea	r9, QWORD PTR opnd$[rsp]
	mov	r8d, DWORD PTR ModuleInfo+496
	mov	rdx, QWORD PTR tokenarray$[rsp]
	lea	rcx, QWORD PTR j$[rsp]
	call	EvalOperand
	cmp	eax, -1
	jne	SHORT $LN22@PushInvoke

; 1346 :             return( ERROR );

	mov	eax, -1
	jmp	$LN1@PushInvoke
$LN22@PushInvoke:

; 1347 :         /* DWORD (16bit) and FWORD(32bit) are treated like FAR ptrs
; 1348 :          * v2.11: argument may be a FAR32 pointer ( psize == 6 ), while
; 1349 :          * fptrsize may be just 4!
; 1350 :          */
; 1351 :         //if ( psize > fptrsize ) {
; 1352 :         if ( psize > fptrsize && fptrsize > 4 ) {

	mov	eax, DWORD PTR fptrsize$[rsp]
	cmp	DWORD PTR psize$[rsp], eax
	jle	SHORT $LN23@PushInvoke
	cmp	DWORD PTR fptrsize$[rsp], 4
	jle	SHORT $LN23@PushInvoke

; 1353 :             /* QWORD is NOT accepted as a FAR ptr */
; 1354 :             DebugMsg1(("PushInvokeParm(%u): error, psize=%u, fptrsize=%u\n", reqParam, psize, fptrsize));

	mov	r9d, DWORD PTR fptrsize$[rsp]
	mov	r8d, DWORD PTR psize$[rsp]
	mov	edx, DWORD PTR reqParam$[rsp]
	lea	rcx, OFFSET FLAT:$SG11878
	call	DoDebugMsg1

; 1355 :             EmitErr( INVOKE_ARGUMENT_TYPE_MISMATCH, reqParam+1 );

	mov	eax, DWORD PTR reqParam$[rsp]
	inc	eax
	mov	edx, eax
	mov	ecx, 145				; 00000091H
	call	EmitErr

; 1356 :             return( NOT_ERROR );

	xor	eax, eax
	jmp	$LN1@PushInvoke
$LN23@PushInvoke:

; 1357 :         }
; 1358 : 
; 1359 :         if (proc->sym.langtype == LANG_FASTCALL){

	mov	rax, QWORD PTR proc$[rsp]
	cmp	DWORD PTR [rax+76], 7
	jne	SHORT $LN24@PushInvoke

; 1360 :           if (fastcall_tab[ModuleInfo.fctype].handleparam(proc, reqParam, curr, addr, &opnd, fullparam, r0flags))

	movsxd	rax, DWORD PTR ModuleInfo+376
	imul	rax, rax, 24
	lea	rcx, OFFSET FLAT:fastcall_tab
	mov	QWORD PTR tv1322[rsp], rcx
	mov	rdx, QWORD PTR r0flags$[rsp]
	mov	QWORD PTR [rsp+48], rdx
	lea	rdx, QWORD PTR fullparam$[rsp]
	mov	QWORD PTR [rsp+40], rdx
	lea	rdx, QWORD PTR opnd$[rsp]
	mov	QWORD PTR [rsp+32], rdx
	movzx	r9d, BYTE PTR addr$[rsp]
	mov	r8, QWORD PTR curr$[rsp]
	mov	edx, DWORD PTR reqParam$[rsp]
	mov	rcx, QWORD PTR proc$[rsp]
	mov	r10, QWORD PTR tv1322[rsp]
	call	QWORD PTR [r10+rax+16]
	test	eax, eax
	je	SHORT $LN26@PushInvoke

; 1361 :             return(NOT_ERROR);

	xor	eax, eax
	jmp	$LN1@PushInvoke
$LN26@PushInvoke:

; 1362 :         }

	jmp	$LN25@PushInvoke
$LN24@PushInvoke:

; 1363 :         else if (proc->sym.langtype == LANG_VECTORCALL){

	mov	rax, QWORD PTR proc$[rsp]
	cmp	DWORD PTR [rax+76], 8
	jne	SHORT $LN27@PushInvoke

; 1364 :             if ( vectorcall_tab[ModuleInfo.fctype].handleparam( proc, reqParam, curr, addr, &opnd, fullparam, r0flags ) )

	movsxd	rax, DWORD PTR ModuleInfo+376
	imul	rax, rax, 24
	lea	rcx, OFFSET FLAT:vectorcall_tab
	mov	QWORD PTR tv1323[rsp], rcx
	mov	rdx, QWORD PTR r0flags$[rsp]
	mov	QWORD PTR [rsp+48], rdx
	lea	rdx, QWORD PTR fullparam$[rsp]
	mov	QWORD PTR [rsp+40], rdx
	lea	rdx, QWORD PTR opnd$[rsp]
	mov	QWORD PTR [rsp+32], rdx
	movzx	r9d, BYTE PTR addr$[rsp]
	mov	r8, QWORD PTR curr$[rsp]
	mov	edx, DWORD PTR reqParam$[rsp]
	mov	rcx, QWORD PTR proc$[rsp]
	mov	r10, QWORD PTR tv1323[rsp]
	call	QWORD PTR [r10+rax+16]
	test	eax, eax
	je	SHORT $LN28@PushInvoke

; 1365 :                 return( NOT_ERROR );

	xor	eax, eax
	jmp	$LN1@PushInvoke
$LN28@PushInvoke:
$LN27@PushInvoke:
$LN25@PushInvoke:

; 1366 :         }
; 1367 :         if ( opnd.kind == EXPR_REG || opnd.indirect ) {

	cmp	DWORD PTR opnd$[rsp+60], 2
	je	SHORT $LN31@PushInvoke
	mov	eax, DWORD PTR opnd$[rsp+72]
	and	eax, 1
	test	eax, eax
	je	$LN29@PushInvoke
$LN31@PushInvoke:

; 1368 :             if ( curr->sym.isfar || psize == fptrsize ) {

	mov	rax, QWORD PTR curr$[rsp]
	movzx	eax, BYTE PTR [rax+47]
	shr	al, 4
	and	al, 1
	movzx	eax, al
	test	eax, eax
	jne	SHORT $LN33@PushInvoke
	mov	eax, DWORD PTR fptrsize$[rsp]
	cmp	DWORD PTR psize$[rsp], eax
	jne	$LN32@PushInvoke
$LN33@PushInvoke:

; 1369 :                 DebugMsg1(("PushInvokeParam: far ptr, %s isfar=%u, psize=%u, fptrsize=%u\n", curr->sym.name, curr->sym.isfar, psize, fptrsize ));

	mov	rax, QWORD PTR curr$[rsp]
	movzx	eax, BYTE PTR [rax+47]
	shr	al, 4
	and	al, 1
	movzx	eax, al
	mov	ecx, DWORD PTR fptrsize$[rsp]
	mov	DWORD PTR [rsp+32], ecx
	mov	r9d, DWORD PTR psize$[rsp]
	mov	r8d, eax
	mov	rax, QWORD PTR curr$[rsp]
	mov	rdx, QWORD PTR [rax+8]
	lea	rcx, OFFSET FLAT:$SG11889
	call	DoDebugMsg1

; 1370 :                 if ( opnd.sym && opnd.sym->state == SYM_STACK )

	cmp	QWORD PTR opnd$[rsp+80], 0
	je	SHORT $LN34@PushInvoke
	mov	rax, QWORD PTR opnd$[rsp+80]
	cmp	DWORD PTR [rax+32], 5
	jne	SHORT $LN34@PushInvoke

; 1371 :                     GetResWName( T_SS, buffer );

	lea	rdx, QWORD PTR buffer$[rsp]
	mov	ecx, 27
	call	GetResWName
	jmp	SHORT $LN35@PushInvoke
$LN34@PushInvoke:

; 1372 :                 else if ( opnd.override != NULL )

	cmp	QWORD PTR opnd$[rsp+48], 0
	je	SHORT $LN36@PushInvoke

; 1373 :                     strcpy( buffer, opnd.override->string_ptr );

	mov	rax, QWORD PTR opnd$[rsp+48]
	mov	rdx, QWORD PTR [rax+8]
	lea	rcx, QWORD PTR buffer$[rsp]
	call	strcpy
	jmp	SHORT $LN37@PushInvoke
$LN36@PushInvoke:

; 1374 :                 else
; 1375 :                     GetResWName( T_DS, buffer );

	lea	rdx, QWORD PTR buffer$[rsp]
	mov	ecx, 28
	call	GetResWName
$LN37@PushInvoke:
$LN35@PushInvoke:

; 1376 :                 AddLineQueueX( " push %s", buffer );

	lea	rdx, QWORD PTR buffer$[rsp]
	lea	rcx, OFFSET FLAT:$SG11894
	call	AddLineQueueX
$LN32@PushInvoke:

; 1377 :             }
; 1378 :             AddLineQueueX( " lea %r, %s", regax[ModuleInfo.Ofssize], fullparam );

	movzx	eax, BYTE PTR ModuleInfo+404
	lea	rcx, OFFSET FLAT:regax
	lea	r8, QWORD PTR fullparam$[rsp]
	mov	edx, DWORD PTR [rcx+rax*4]
	lea	rcx, OFFSET FLAT:$SG11895
	call	AddLineQueueX

; 1379 :             *r0flags |= R0_USED;

	mov	rax, QWORD PTR r0flags$[rsp]
	movzx	eax, BYTE PTR [rax]
	or	eax, 1
	mov	rcx, QWORD PTR r0flags$[rsp]
	mov	BYTE PTR [rcx], al

; 1380 :             AddLineQueueX( " push %r", regax[ModuleInfo.Ofssize] );

	movzx	eax, BYTE PTR ModuleInfo+404
	lea	rcx, OFFSET FLAT:regax
	mov	edx, DWORD PTR [rcx+rax*4]
	lea	rcx, OFFSET FLAT:$SG11896
	call	AddLineQueueX

; 1381 :         } else {

	jmp	$LN30@PushInvoke
$LN29@PushInvoke:
$push_address$273:

; 1382 :         push_address:
; 1383 : 
; 1384 :             /* push segment part of address?
; 1385 :              * v2.11: do not assume a far pointer if psize == fptrsize
; 1386 :              * ( parameter might be near32 in a 16-bit environment )
; 1387 :              */
; 1388 :             //if ( curr->sym.isfar || psize == fptrsize ) {
; 1389 :             if ( curr->sym.isfar || psize > ( 2 << curr->sym.Ofssize ) ) {

	mov	rax, QWORD PTR curr$[rsp]
	movzx	eax, BYTE PTR [rax+47]
	shr	al, 4
	and	al, 1
	movzx	eax, al
	test	eax, eax
	jne	SHORT $LN39@PushInvoke
	mov	rax, QWORD PTR curr$[rsp]
	movzx	eax, BYTE PTR [rax+44]
	mov	ecx, 2
	mov	DWORD PTR tv1457[rsp], ecx
	movzx	ecx, al
	mov	eax, DWORD PTR tv1457[rsp]
	shl	eax, cl
	cmp	DWORD PTR psize$[rsp], eax
	jle	$LN38@PushInvoke
$LN39@PushInvoke:

; 1390 : 
; 1391 :                 short sreg;
; 1392 :                 sreg = GetSegmentPart( &opnd, buffer, fullparam );

	lea	r8, QWORD PTR fullparam$[rsp]
	lea	rdx, QWORD PTR buffer$[rsp]
	lea	rcx, QWORD PTR opnd$[rsp]
	call	GetSegmentPart
	mov	WORD PTR sreg$2[rsp], ax

; 1393 :                 if ( sreg ) {

	movsx	eax, WORD PTR sreg$2[rsp]
	test	eax, eax
	je	SHORT $LN40@PushInvoke

; 1394 :                     /* v2.11: push segment part as WORD or DWORD depending on target's offset size
; 1395 :                      * problem: "pushw ds" is not accepted, so just emit a size prefix.
; 1396 :                      */
; 1397 :                     if ( Ofssize != ModuleInfo.Ofssize || ( curr->sym.Ofssize == USE16 && CurrWordSize > 2 ) )

	movsx	eax, BYTE PTR Ofssize$[rsp]
	movzx	ecx, BYTE PTR ModuleInfo+404
	cmp	eax, ecx
	jne	SHORT $LN43@PushInvoke
	mov	rax, QWORD PTR curr$[rsp]
	movzx	eax, BYTE PTR [rax+44]
	test	eax, eax
	jne	SHORT $LN42@PushInvoke
	movzx	eax, BYTE PTR ModuleInfo+406
	cmp	eax, 2
	jle	SHORT $LN42@PushInvoke
$LN43@PushInvoke:

; 1398 :                         AddLineQueue( " db 66h" );

	lea	rcx, OFFSET FLAT:$SG11903
	call	AddLineQueue
$LN42@PushInvoke:

; 1399 :                     AddLineQueueX( " push %r", sreg );

	movsx	eax, WORD PTR sreg$2[rsp]
	mov	edx, eax
	lea	rcx, OFFSET FLAT:$SG11904
	call	AddLineQueueX

; 1400 :                 } else

	jmp	SHORT $LN41@PushInvoke
$LN40@PushInvoke:

; 1401 :                     AddLineQueueX( " push %s", buffer );

	lea	rdx, QWORD PTR buffer$[rsp]
	lea	rcx, OFFSET FLAT:$SG11905
	call	AddLineQueueX
$LN41@PushInvoke:
$LN38@PushInvoke:

; 1402 :             }
; 1403 :             /* push offset part of address */
; 1404 :             if ( (ModuleInfo.curr_cpu & P_CPU_MASK ) < P_186 ) {

	mov	eax, DWORD PTR ModuleInfo+392
	and	eax, 240				; 000000f0H
	cmp	eax, 16
	jge	SHORT $LN44@PushInvoke

; 1405 :                 AddLineQueueX( " mov %r, offset %s", T_AX, fullparam );

	lea	r8, QWORD PTR fullparam$[rsp]
	mov	edx, 9
	lea	rcx, OFFSET FLAT:$SG11908
	call	AddLineQueueX

; 1406 :                 AddLineQueueX( " push %r", T_AX );

	mov	edx, 9
	lea	rcx, OFFSET FLAT:$SG11909
	call	AddLineQueueX

; 1407 :                 *r0flags |= R0_USED;

	mov	rax, QWORD PTR r0flags$[rsp]
	movzx	eax, BYTE PTR [rax]
	or	eax, 1
	mov	rcx, QWORD PTR r0flags$[rsp]
	mov	BYTE PTR [rcx], al

; 1408 :             } else {

	jmp	$LN45@PushInvoke
$LN44@PushInvoke:

; 1409 :                 if ( curr->sym.is_vararg && opnd.Ofssize == USE_EMPTY && opnd.sym )

	mov	rax, QWORD PTR curr$[rsp]
	movzx	eax, BYTE PTR [rax+47]
	shr	al, 5
	and	al, 1
	movzx	eax, al
	test	eax, eax
	je	SHORT $LN46@PushInvoke
	movzx	eax, BYTE PTR opnd$[rsp+69]
	cmp	eax, 254				; 000000feH
	jne	SHORT $LN46@PushInvoke
	cmp	QWORD PTR opnd$[rsp+80], 0
	je	SHORT $LN46@PushInvoke

; 1410 :                     opnd.Ofssize = GetSymOfssize( opnd.sym );

	mov	rcx, QWORD PTR opnd$[rsp+80]
	call	GetSymOfssize
	mov	BYTE PTR opnd$[rsp+69], al
$LN46@PushInvoke:

; 1411 :                 /* v2.04: expand 16-bit offset to 32
; 1412 :                  * v2.11: also expand if there's an explicit near32 ptr requested in 16-bit
; 1413 :                  */
; 1414 :                 //if ( opnd.Ofssize == USE16 && CurrWordSize > 2 ) {
; 1415 :                 if ( ( opnd.Ofssize == USE16 && CurrWordSize > 2 ) ||

	movzx	eax, BYTE PTR opnd$[rsp+69]
	test	eax, eax
	jne	SHORT $LN50@PushInvoke
	movzx	eax, BYTE PTR ModuleInfo+406
	cmp	eax, 2
	jg	SHORT $LN49@PushInvoke
$LN50@PushInvoke:
	mov	rax, QWORD PTR curr$[rsp]
	movzx	eax, BYTE PTR [rax+44]
	cmp	eax, 1
	jne	SHORT $LN47@PushInvoke
	movzx	eax, BYTE PTR ModuleInfo+406
	cmp	eax, 2
	jne	SHORT $LN47@PushInvoke
$LN49@PushInvoke:

; 1416 :                     ( curr->sym.Ofssize == USE32 && CurrWordSize == 2 ) ) {
; 1417 :                     AddLineQueueX( " pushd %r %s", T_OFFSET, fullparam );

	lea	r8, QWORD PTR fullparam$[rsp]
	mov	edx, 241				; 000000f1H
	lea	rcx, OFFSET FLAT:$SG11915
	call	AddLineQueueX
	jmp	$LN48@PushInvoke
$LN47@PushInvoke:

; 1418 :                 } else if ( CurrWordSize > 2 && curr->sym.Ofssize == USE16 &&

	movzx	eax, BYTE PTR ModuleInfo+406
	cmp	eax, 2
	jle	SHORT $LN51@PushInvoke
	mov	rax, QWORD PTR curr$[rsp]
	movzx	eax, BYTE PTR [rax+44]
	test	eax, eax
	jne	SHORT $LN51@PushInvoke
	mov	rax, QWORD PTR curr$[rsp]
	movzx	eax, BYTE PTR [rax+47]
	shr	al, 4
	and	al, 1
	movzx	eax, al
	test	eax, eax
	jne	SHORT $LN53@PushInvoke
	movsx	eax, BYTE PTR Ofssize$[rsp]
	test	eax, eax
	jne	SHORT $LN51@PushInvoke
$LN53@PushInvoke:

; 1419 :                            ( curr->sym.isfar || Ofssize == USE16 ) ) { /* v2.11: added */
; 1420 :                     AddLineQueueX( " pushw %r %s", T_OFFSET, fullparam );

	lea	r8, QWORD PTR fullparam$[rsp]
	mov	edx, 241				; 000000f1H
	lea	rcx, OFFSET FLAT:$SG11919
	call	AddLineQueueX

; 1421 :                 } else {

	jmp	SHORT $LN52@PushInvoke
$LN51@PushInvoke:

; 1422 :                     AddLineQueueX( " push %r %s", T_OFFSET, fullparam );

	lea	r8, QWORD PTR fullparam$[rsp]
	mov	edx, 241				; 000000f1H
	lea	rcx, OFFSET FLAT:$SG11920
	call	AddLineQueueX

; 1423 :                     /* v2.04: a 32bit offset pushed in 16-bit code */
; 1424 :                     if ( curr->sym.is_vararg && CurrWordSize == 2 && opnd.Ofssize > USE16 ) {

	mov	rax, QWORD PTR curr$[rsp]
	movzx	eax, BYTE PTR [rax+47]
	shr	al, 5
	and	al, 1
	movzx	eax, al
	test	eax, eax
	je	SHORT $LN54@PushInvoke
	movzx	eax, BYTE PTR ModuleInfo+406
	cmp	eax, 2
	jne	SHORT $LN54@PushInvoke
	movzx	eax, BYTE PTR opnd$[rsp+69]
	test	eax, eax
	jle	SHORT $LN54@PushInvoke

; 1425 :                         size_vararg += CurrWordSize;

	movzx	eax, BYTE PTR ModuleInfo+406
	mov	ecx, DWORD PTR size_vararg
	add	ecx, eax
	mov	eax, ecx
	mov	DWORD PTR size_vararg, eax
$LN54@PushInvoke:
$LN52@PushInvoke:
$LN48@PushInvoke:
$LN45@PushInvoke:
$LN30@PushInvoke:

; 1426 :                     }
; 1427 :                 }
; 1428 :             }
; 1429 :         }
; 1430 :         if ( curr->sym.is_vararg ) {

	mov	rax, QWORD PTR curr$[rsp]
	movzx	eax, BYTE PTR [rax+47]
	shr	al, 5
	and	al, 1
	movzx	eax, al
	test	eax, eax
	je	SHORT $LN55@PushInvoke

; 1431 :             size_vararg += CurrWordSize + ( curr->sym.isfar ? CurrWordSize : 0 );

	mov	rax, QWORD PTR curr$[rsp]
	movzx	eax, BYTE PTR [rax+47]
	shr	al, 4
	and	al, 1
	movzx	eax, al
	test	eax, eax
	je	SHORT $LN259@PushInvoke
	movzx	eax, BYTE PTR ModuleInfo+406
	mov	DWORD PTR tv427[rsp], eax
	jmp	SHORT $LN260@PushInvoke
$LN259@PushInvoke:
	mov	DWORD PTR tv427[rsp], 0
$LN260@PushInvoke:
	movzx	eax, BYTE PTR ModuleInfo+406
	add	eax, DWORD PTR tv427[rsp]
	mov	ecx, DWORD PTR size_vararg
	add	ecx, eax
	mov	eax, ecx
	mov	DWORD PTR size_vararg, eax

; 1432 :             DebugMsg1(("PushInvokeParm(%u): new value of size_vararg=%u [CurrWordSize=%u]\n", reqParam, size_vararg, CurrWordSize ));

	movzx	eax, BYTE PTR ModuleInfo+406
	mov	r9d, eax
	mov	r8d, DWORD PTR size_vararg
	mov	edx, DWORD PTR reqParam$[rsp]
	lea	rcx, OFFSET FLAT:$SG11923
	call	DoDebugMsg1
$LN55@PushInvoke:

; 1433 :         }
; 1434 :     } else { /* ! ADDR branch */

	jmp	$LN21@PushInvoke
$LN20@PushInvoke:

; 1435 : 
; 1436 :         /* handle the <reg>::<reg> case here, the evaluator wont handle it */
; 1437 :         if ( tokenarray[j].token == T_REG &&
; 1438 :             tokenarray[j+1].token == T_DBL_COLON &&

	movsxd	rax, DWORD PTR j$[rsp]
	imul	rax, rax, 32				; 00000020H
	mov	rcx, QWORD PTR tokenarray$[rsp]
	movzx	eax, BYTE PTR [rcx+rax]
	cmp	eax, 2
	jne	$LN56@PushInvoke
	mov	eax, DWORD PTR j$[rsp]
	inc	eax
	cdqe
	imul	rax, rax, 32				; 00000020H
	mov	rcx, QWORD PTR tokenarray$[rsp]
	movzx	eax, BYTE PTR [rcx+rax]
	cmp	eax, 13
	jne	$LN56@PushInvoke
	mov	eax, DWORD PTR j$[rsp]
	add	eax, 2
	cdqe
	imul	rax, rax, 32				; 00000020H
	mov	rcx, QWORD PTR tokenarray$[rsp]
	movzx	eax, BYTE PTR [rcx+rax]
	cmp	eax, 2
	jne	$LN56@PushInvoke

; 1439 :             tokenarray[j+2].token == T_REG ) {
; 1440 :             int asize2;
; 1441 :             /* for pointers, segreg size is assumed to be always 2 */
; 1442 :             if ( GetValueSp( tokenarray[j].tokval ) & OP_SR ) {

	movsxd	rax, DWORD PTR j$[rsp]
	imul	rax, rax, 32				; 00000020H
	mov	rcx, QWORD PTR tokenarray$[rsp]
	mov	eax, DWORD PTR [rcx+rax+16]
	imul	rax, rax, 12
	lea	rcx, OFFSET FLAT:SpecialTable
	mov	eax, DWORD PTR [rcx+rax]
	and	eax, 24576				; 00006000H
	test	eax, eax
	je	SHORT $LN58@PushInvoke

; 1443 :                 asize2 = 2;

	mov	DWORD PTR asize2$4[rsp], 2

; 1444 :                 /* v2.11: if target and current src have different offset sizes,
; 1445 :                  * the push of the segment register must be 66h-prefixed!
; 1446 :                  */
; 1447 :                 if ( Ofssize != ModuleInfo.Ofssize || ( curr->sym.Ofssize == USE16 && CurrWordSize > 2 ) )

	movsx	eax, BYTE PTR Ofssize$[rsp]
	movzx	ecx, BYTE PTR ModuleInfo+404
	cmp	eax, ecx
	jne	SHORT $LN61@PushInvoke
	mov	rax, QWORD PTR curr$[rsp]
	movzx	eax, BYTE PTR [rax+44]
	test	eax, eax
	jne	SHORT $LN60@PushInvoke
	movzx	eax, BYTE PTR ModuleInfo+406
	cmp	eax, 2
	jle	SHORT $LN60@PushInvoke
$LN61@PushInvoke:

; 1448 :                     AddLineQueue( " db 66h" );

	lea	rcx, OFFSET FLAT:$SG11930
	call	AddLineQueue
$LN60@PushInvoke:

; 1449 :             } else

	jmp	SHORT $LN59@PushInvoke
$LN58@PushInvoke:

; 1450 :                 asize2 = SizeFromRegister( tokenarray[j].tokval );

	movsxd	rax, DWORD PTR j$[rsp]
	imul	rax, rax, 32				; 00000020H
	mov	rcx, QWORD PTR tokenarray$[rsp]
	mov	ecx, DWORD PTR [rcx+rax+16]
	call	SizeFromRegister
	mov	DWORD PTR asize2$4[rsp], eax
$LN59@PushInvoke:

; 1451 :             asize = SizeFromRegister( tokenarray[j+2].tokval );

	mov	eax, DWORD PTR j$[rsp]
	add	eax, 2
	cdqe
	imul	rax, rax, 32				; 00000020H
	mov	rcx, QWORD PTR tokenarray$[rsp]
	mov	ecx, DWORD PTR [rcx+rax+16]
	call	SizeFromRegister
	mov	DWORD PTR asize$[rsp], eax

; 1452 :             AddLineQueueX( " push %r", tokenarray[j].tokval );

	movsxd	rax, DWORD PTR j$[rsp]
	imul	rax, rax, 32				; 00000020H
	mov	rcx, QWORD PTR tokenarray$[rsp]
	mov	edx, DWORD PTR [rcx+rax+16]
	lea	rcx, OFFSET FLAT:$SG11931
	call	AddLineQueueX

; 1453 :             /* v2.04: changed */
; 1454 :             if (( curr->sym.is_vararg ) && (asize + asize2) != CurrWordSize )

	mov	rax, QWORD PTR curr$[rsp]
	movzx	eax, BYTE PTR [rax+47]
	shr	al, 5
	and	al, 1
	movzx	eax, al
	test	eax, eax
	je	SHORT $LN62@PushInvoke
	mov	eax, DWORD PTR asize2$4[rsp]
	mov	ecx, DWORD PTR asize$[rsp]
	add	ecx, eax
	mov	eax, ecx
	movzx	ecx, BYTE PTR ModuleInfo+406
	cmp	eax, ecx
	je	SHORT $LN62@PushInvoke

; 1455 :                 size_vararg += asize2;

	mov	eax, DWORD PTR asize2$4[rsp]
	mov	ecx, DWORD PTR size_vararg
	add	ecx, eax
	mov	eax, ecx
	mov	DWORD PTR size_vararg, eax
	jmp	SHORT $LN63@PushInvoke
$LN62@PushInvoke:

; 1456 :             else
; 1457 :                 asize += asize2;

	mov	eax, DWORD PTR asize2$4[rsp]
	mov	ecx, DWORD PTR asize$[rsp]
	add	ecx, eax
	mov	eax, ecx
	mov	DWORD PTR asize$[rsp], eax
$LN63@PushInvoke:

; 1458 :             strcpy( fullparam, tokenarray[j+2].string_ptr );

	mov	eax, DWORD PTR j$[rsp]
	add	eax, 2
	cdqe
	imul	rax, rax, 32				; 00000020H
	mov	rcx, QWORD PTR tokenarray$[rsp]
	mov	rdx, QWORD PTR [rcx+rax+8]
	lea	rcx, QWORD PTR fullparam$[rsp]
	call	strcpy

; 1459 : 
; 1460 :             opnd.kind = EXPR_REG;

	mov	DWORD PTR opnd$[rsp+60], 2

; 1461 :             opnd.indirect = FALSE;

	mov	eax, DWORD PTR opnd$[rsp+72]
	and	eax, -2					; fffffffeH
	mov	DWORD PTR opnd$[rsp+72], eax

; 1462 :             opnd.sym = NULL;

	mov	QWORD PTR opnd$[rsp+80], 0

; 1463 :             opnd.base_reg = &tokenarray[j+2]; /* for error msg 'eax overwritten...' */

	mov	eax, DWORD PTR j$[rsp]
	add	eax, 2
	cdqe
	imul	rax, rax, 32				; 00000020H
	mov	rcx, QWORD PTR tokenarray$[rsp]
	add	rcx, rax
	mov	rax, rcx
	mov	QWORD PTR opnd$[rsp+24], rax

; 1464 :         } else {

	jmp	$LN57@PushInvoke
$LN56@PushInvoke:

; 1465 :             /* v2.06: don't handle forward refs if -Zne is set */
; 1466 :             //if ( EvalOperand( &j, Token_Count, &opnd, 0 ) == ERROR ) {
; 1467 :             if ( EvalOperand( &j, tokenarray, Token_Count, &opnd, ModuleInfo.invoke_exprparm ) == ERROR ) {

	movzx	eax, BYTE PTR ModuleInfo+426
	mov	BYTE PTR [rsp+32], al
	lea	r9, QWORD PTR opnd$[rsp]
	mov	r8d, DWORD PTR ModuleInfo+496
	mov	rdx, QWORD PTR tokenarray$[rsp]
	lea	rcx, QWORD PTR j$[rsp]
	call	EvalOperand
	cmp	eax, -1
	jne	SHORT $LN64@PushInvoke

; 1468 :                 return( ERROR );

	mov	eax, -1
	jmp	$LN1@PushInvoke
$LN64@PushInvoke:

; 1469 :             }
; 1470 : 
; 1471 :             /* for a simple register, get its size */
; 1472 :             if ( opnd.kind == EXPR_REG && opnd.indirect == FALSE ) {

	cmp	DWORD PTR opnd$[rsp+60], 2
	jne	SHORT $LN65@PushInvoke
	mov	eax, DWORD PTR opnd$[rsp+72]
	and	eax, 1
	test	eax, eax
	jne	SHORT $LN65@PushInvoke

; 1473 :                 asize = SizeFromRegister( opnd.base_reg->tokval );

	mov	rax, QWORD PTR opnd$[rsp+24]
	mov	ecx, DWORD PTR [rax+16]
	call	SizeFromRegister
	mov	DWORD PTR asize$[rsp], eax
	jmp	$LN66@PushInvoke
$LN65@PushInvoke:

; 1474 :             //} else if ( opnd.mem_type == MT_EMPTY ) { /* v2.10: a TYPE may return mem_type != MT_EMPTY! */
; 1475 :             } else if ( opnd.kind == EXPR_CONST || opnd.mem_type == MT_EMPTY ) {

	cmp	DWORD PTR opnd$[rsp+60], 0
	je	SHORT $LN69@PushInvoke
	cmp	DWORD PTR opnd$[rsp+64], 192		; 000000c0H
	jne	$LN67@PushInvoke
$LN69@PushInvoke:

; 1476 :                 asize = psize;

	mov	eax, DWORD PTR psize$[rsp]
	mov	DWORD PTR asize$[rsp], eax

; 1477 :                 /* v2.04: added, to catch 0-size params ( STRUCT without members ) */
; 1478 :                 if ( psize == 0 ) {

	cmp	DWORD PTR psize$[rsp], 0
	jne	SHORT $LN70@PushInvoke

; 1479 :                     if ( curr->sym.is_vararg == FALSE ) {

	mov	rax, QWORD PTR curr$[rsp]
	movzx	eax, BYTE PTR [rax+47]
	shr	al, 5
	and	al, 1
	movzx	eax, al
	test	eax, eax
	jne	SHORT $LN71@PushInvoke

; 1480 :                         DebugMsg1(("PushInvokeParm(%u): error, psize=0\n" ));

	lea	rcx, OFFSET FLAT:$SG11942
	call	DoDebugMsg1

; 1481 :                         EmitErr( INVOKE_ARGUMENT_TYPE_MISMATCH, reqParam+1 );

	mov	eax, DWORD PTR reqParam$[rsp]
	inc	eax
	mov	edx, eax
	mov	ecx, 145				; 00000091H
	call	EmitErr
$LN71@PushInvoke:

; 1482 :                     }
; 1483 :                     /* v2.07: for VARARG, get the member's size if it is a structured var */
; 1484 :                     if ( opnd.mbr && opnd.mbr->mem_type == MT_TYPE )

	cmp	QWORD PTR opnd$[rsp+88], 0
	je	SHORT $LN72@PushInvoke
	mov	rax, QWORD PTR opnd$[rsp+88]
	cmp	DWORD PTR [rax+36], 196			; 000000c4H
	jne	SHORT $LN72@PushInvoke

; 1485 :                         asize = SizeFromMemtype( opnd.mbr->mem_type, opnd.Ofssize, opnd.mbr->type );

	movzx	eax, BYTE PTR opnd$[rsp+69]
	mov	rcx, QWORD PTR opnd$[rsp+88]
	mov	r8, QWORD PTR [rcx+80]
	mov	edx, eax
	mov	rax, QWORD PTR opnd$[rsp+88]
	mov	ecx, DWORD PTR [rax+36]
	call	SizeFromMemtype
	mov	DWORD PTR asize$[rsp], eax
$LN72@PushInvoke:
$LN70@PushInvoke:

; 1486 :                 }
; 1487 :                 DebugMsg1(("PushInvokeParm(%u): memtype EMPTY, asize=%u psize=%u\n", reqParam, asize, psize ));

	mov	r9d, DWORD PTR psize$[rsp]
	mov	r8d, DWORD PTR asize$[rsp]
	mov	edx, DWORD PTR reqParam$[rsp]
	lea	rcx, OFFSET FLAT:$SG11944
	call	DoDebugMsg1
	jmp	$LN68@PushInvoke
$LN67@PushInvoke:

; 1488 :             } else if ( opnd.mem_type != MT_TYPE ) {

	cmp	DWORD PTR opnd$[rsp+64], 196		; 000000c4H
	je	$LN73@PushInvoke

; 1489 :                 if ( opnd.kind == EXPR_ADDR &&
; 1490 :                      opnd.indirect == FALSE &&
; 1491 :                      opnd.sym &&
; 1492 :                      opnd.instr == EMPTY &&

	cmp	DWORD PTR opnd$[rsp+60], 1
	jne	SHORT $LN75@PushInvoke
	mov	eax, DWORD PTR opnd$[rsp+72]
	and	eax, 1
	test	eax, eax
	jne	SHORT $LN75@PushInvoke
	cmp	QWORD PTR opnd$[rsp+80], 0
	je	SHORT $LN75@PushInvoke
	cmp	DWORD PTR opnd$[rsp+56], -2
	jne	SHORT $LN75@PushInvoke
	cmp	DWORD PTR opnd$[rsp+64], 129		; 00000081H
	je	SHORT $LN76@PushInvoke
	cmp	DWORD PTR opnd$[rsp+64], 130		; 00000082H
	jne	SHORT $LN75@PushInvoke
$LN76@PushInvoke:

; 1493 :                      ( opnd.mem_type == MT_NEAR || opnd.mem_type == MT_FAR ) )
; 1494 :                     goto push_address;

	jmp	$push_address$273
$LN75@PushInvoke:

; 1495 :                 if ( opnd.Ofssize == USE_EMPTY )

	movzx	eax, BYTE PTR opnd$[rsp+69]
	cmp	eax, 254				; 000000feH
	jne	SHORT $LN77@PushInvoke

; 1496 :                     opnd.Ofssize = ModuleInfo.Ofssize;

	movzx	eax, BYTE PTR ModuleInfo+404
	mov	BYTE PTR opnd$[rsp+69], al
$LN77@PushInvoke:

; 1497 :                 asize = SizeFromMemtype( opnd.mem_type, opnd.Ofssize, opnd.type );

	movzx	eax, BYTE PTR opnd$[rsp+69]
	mov	r8, QWORD PTR opnd$[rsp+96]
	mov	edx, eax
	mov	ecx, DWORD PTR opnd$[rsp+64]
	call	SizeFromMemtype
	mov	DWORD PTR asize$[rsp], eax

; 1498 :             } else {

	jmp	SHORT $LN74@PushInvoke
$LN73@PushInvoke:

; 1499 :                 if ( opnd.sym != NULL )

	cmp	QWORD PTR opnd$[rsp+80], 0
	je	SHORT $LN78@PushInvoke

; 1500 :                     asize = opnd.sym->type->total_size;

	mov	rax, QWORD PTR opnd$[rsp+80]
	mov	rax, QWORD PTR [rax+80]
	mov	eax, DWORD PTR [rax+56]
	mov	DWORD PTR asize$[rsp], eax
	jmp	SHORT $LN79@PushInvoke
$LN78@PushInvoke:

; 1501 :                 else
; 1502 :                     asize = opnd.mbr->type->total_size;

	mov	rax, QWORD PTR opnd$[rsp+88]
	mov	rax, QWORD PTR [rax+80]
	mov	eax, DWORD PTR [rax+56]
	mov	DWORD PTR asize$[rsp], eax
$LN79@PushInvoke:
$LN74@PushInvoke:
$LN68@PushInvoke:
$LN66@PushInvoke:
$LN57@PushInvoke:

; 1503 :             }
; 1504 :         }
; 1505 : 
; 1506 :         if ( curr->sym.is_vararg == TRUE )

	mov	rax, QWORD PTR curr$[rsp]
	movzx	eax, BYTE PTR [rax+47]
	shr	al, 5
	and	al, 1
	movzx	eax, al
	cmp	eax, 1
	jne	SHORT $LN80@PushInvoke

; 1507 :             psize = asize;

	mov	eax, DWORD PTR asize$[rsp]
	mov	DWORD PTR psize$[rsp], eax
$LN80@PushInvoke:

; 1508 : 
; 1509 : #ifdef DEBUG_OUT
; 1510 :         if ( opnd.sym )

	cmp	QWORD PTR opnd$[rsp+80], 0
	je	SHORT $LN81@PushInvoke

; 1511 :             DebugMsg1(("PushInvokeParam(%s, %u): arg name=%s, asize=%u, amtype=%xh psize=%u\n", proc->sym.name, reqParam, opnd.sym->name, asize, opnd.mem_type, psize));

	mov	eax, DWORD PTR psize$[rsp]
	mov	DWORD PTR [rsp+48], eax
	mov	eax, DWORD PTR opnd$[rsp+64]
	mov	DWORD PTR [rsp+40], eax
	mov	eax, DWORD PTR asize$[rsp]
	mov	DWORD PTR [rsp+32], eax
	mov	rax, QWORD PTR opnd$[rsp+80]
	mov	r9, QWORD PTR [rax+8]
	mov	r8d, DWORD PTR reqParam$[rsp]
	mov	rax, QWORD PTR proc$[rsp]
	mov	rdx, QWORD PTR [rax+8]
	lea	rcx, OFFSET FLAT:$SG11955
	call	DoDebugMsg1
	jmp	SHORT $LN82@PushInvoke
$LN81@PushInvoke:

; 1512 :         else
; 1513 :             DebugMsg1(("PushInvokeParam(%s, %u): arg no name, asize=%u, amtype=%xh psize=%u\n", proc->sym.name, reqParam, asize, opnd.mem_type, psize));

	mov	eax, DWORD PTR psize$[rsp]
	mov	DWORD PTR [rsp+40], eax
	mov	eax, DWORD PTR opnd$[rsp+64]
	mov	DWORD PTR [rsp+32], eax
	mov	r9d, DWORD PTR asize$[rsp]
	mov	r8d, DWORD PTR reqParam$[rsp]
	mov	rax, QWORD PTR proc$[rsp]
	mov	rdx, QWORD PTR [rax+8]
	lea	rcx, OFFSET FLAT:$SG11956
	call	DoDebugMsg1
$LN82@PushInvoke:

; 1514 : #endif
; 1515 :         pushsize = CurrWordSize;

	movzx	eax, BYTE PTR ModuleInfo+406
	mov	DWORD PTR pushsize$[rsp], eax

; 1516 : 
; 1517 :         if (proc->sym.langtype == LANG_FASTCALL){

	mov	rax, QWORD PTR proc$[rsp]
	cmp	DWORD PTR [rax+76], 7
	jne	SHORT $LN83@PushInvoke

; 1518 :           if (fastcall_tab[ModuleInfo.fctype].handleparam(proc, reqParam, curr, addr, &opnd, fullparam, r0flags))

	movsxd	rax, DWORD PTR ModuleInfo+376
	imul	rax, rax, 24
	lea	rcx, OFFSET FLAT:fastcall_tab
	mov	QWORD PTR tv1327[rsp], rcx
	mov	rdx, QWORD PTR r0flags$[rsp]
	mov	QWORD PTR [rsp+48], rdx
	lea	rdx, QWORD PTR fullparam$[rsp]
	mov	QWORD PTR [rsp+40], rdx
	lea	rdx, QWORD PTR opnd$[rsp]
	mov	QWORD PTR [rsp+32], rdx
	movzx	r9d, BYTE PTR addr$[rsp]
	mov	r8, QWORD PTR curr$[rsp]
	mov	edx, DWORD PTR reqParam$[rsp]
	mov	rcx, QWORD PTR proc$[rsp]
	mov	r10, QWORD PTR tv1327[rsp]
	call	QWORD PTR [r10+rax+16]
	test	eax, eax
	je	SHORT $LN85@PushInvoke

; 1519 :             return(NOT_ERROR);

	xor	eax, eax
	jmp	$LN1@PushInvoke
$LN85@PushInvoke:

; 1520 :         }

	jmp	$LN84@PushInvoke
$LN83@PushInvoke:

; 1521 :         else if (proc->sym.langtype == LANG_VECTORCALL){

	mov	rax, QWORD PTR proc$[rsp]
	cmp	DWORD PTR [rax+76], 8
	jne	$LN86@PushInvoke

; 1522 :           if (opnd.kind == EXPR_REG && reqParam > 5) {

	cmp	DWORD PTR opnd$[rsp+60], 2
	jne	SHORT $LN87@PushInvoke
	cmp	DWORD PTR reqParam$[rsp], 5
	jle	SHORT $LN87@PushInvoke

; 1523 :             if ((GetValueSp(reg) & OP_XMM)||(GetValueSp(reg) & OP_YMM) 

	movsxd	rax, DWORD PTR reg$[rsp]
	imul	rax, rax, 12
	lea	rcx, OFFSET FLAT:SpecialTable
	mov	eax, DWORD PTR [rcx+rax]
	and	eax, 32					; 00000020H
	test	eax, eax
	jne	SHORT $LN90@PushInvoke
	movsxd	rax, DWORD PTR reg$[rsp]
	imul	rax, rax, 12
	lea	rcx, OFFSET FLAT:SpecialTable
	mov	eax, DWORD PTR [rcx+rax]
	and	eax, 128				; 00000080H
	test	eax, eax
	je	SHORT $LN89@PushInvoke
$LN90@PushInvoke:

; 1524 : #if EVEXSUPP
; 1525 :                 ||(GetValueSp(reg) & OP_ZMM)
; 1526 : #endif
; 1527 :               )
; 1528 :                 EmitErr( INVOKE_ARGUMENT_TYPE_MISMATCH, reqParam );                

	mov	edx, DWORD PTR reqParam$[rsp]
	mov	ecx, 145				; 00000091H
	call	EmitErr
$LN89@PushInvoke:

; 1529 :            }

	jmp	SHORT $LN88@PushInvoke
$LN87@PushInvoke:

; 1530 :            else if (vectorcall_tab[ModuleInfo.fctype].handleparam(proc, reqParam, curr, addr, &opnd, fullparam, r0flags))

	movsxd	rax, DWORD PTR ModuleInfo+376
	imul	rax, rax, 24
	lea	rcx, OFFSET FLAT:vectorcall_tab
	mov	QWORD PTR tv1330[rsp], rcx
	mov	rdx, QWORD PTR r0flags$[rsp]
	mov	QWORD PTR [rsp+48], rdx
	lea	rdx, QWORD PTR fullparam$[rsp]
	mov	QWORD PTR [rsp+40], rdx
	lea	rdx, QWORD PTR opnd$[rsp]
	mov	QWORD PTR [rsp+32], rdx
	movzx	r9d, BYTE PTR addr$[rsp]
	mov	r8, QWORD PTR curr$[rsp]
	mov	edx, DWORD PTR reqParam$[rsp]
	mov	rcx, QWORD PTR proc$[rsp]
	mov	r10, QWORD PTR tv1330[rsp]
	call	QWORD PTR [r10+rax+16]
	test	eax, eax
	je	SHORT $LN91@PushInvoke

; 1531 :             return(NOT_ERROR);

	xor	eax, eax
	jmp	$LN1@PushInvoke
$LN91@PushInvoke:
$LN88@PushInvoke:
$LN86@PushInvoke:
$LN84@PushInvoke:

; 1532 :         }
; 1533 :         /* v2.04: this check has been moved behind the fastcall_tab() call */
; 1534 :         /* v2.11: if target is a pointer, sizes must match */
; 1535 :         //if ( asize > psize ) { /* argument's size too big? */
; 1536 :         if ( ( asize > psize ) || ( asize < psize && curr->sym.mem_type == MT_PTR ) ) {

	mov	eax, DWORD PTR psize$[rsp]
	cmp	DWORD PTR asize$[rsp], eax
	jg	SHORT $LN93@PushInvoke
	mov	eax, DWORD PTR psize$[rsp]
	cmp	DWORD PTR asize$[rsp], eax
	jge	SHORT $LN92@PushInvoke
	mov	rax, QWORD PTR curr$[rsp]
	cmp	DWORD PTR [rax+36], 195			; 000000c3H
	jne	SHORT $LN92@PushInvoke
$LN93@PushInvoke:

; 1537 :             DebugMsg(("PushInvokeParm(%u): argsize error, arg size=%d, parm size=%d\n", reqParam, asize, psize));

	mov	r9d, DWORD PTR psize$[rsp]
	mov	r8d, DWORD PTR asize$[rsp]
	mov	edx, DWORD PTR reqParam$[rsp]
	lea	rcx, OFFSET FLAT:$SG11968
	call	DoDebugMsg

; 1538 :             EmitErr( INVOKE_ARGUMENT_TYPE_MISMATCH, reqParam+1 );

	mov	eax, DWORD PTR reqParam$[rsp]
	inc	eax
	mov	edx, eax
	mov	ecx, 145				; 00000091H
	call	EmitErr

; 1539 :             return( NOT_ERROR );

	xor	eax, eax
	jmp	$LN1@PushInvoke
$LN92@PushInvoke:

; 1540 :         }
; 1541 : 
; 1542 :         if ( ( opnd.kind == EXPR_ADDR && opnd.instr != T_OFFSET ) ||

	cmp	DWORD PTR opnd$[rsp+60], 1
	jne	SHORT $LN97@PushInvoke
	cmp	DWORD PTR opnd$[rsp+56], 241		; 000000f1H
	jne	SHORT $LN96@PushInvoke
$LN97@PushInvoke:
	cmp	DWORD PTR opnd$[rsp+60], 2
	jne	$LN94@PushInvoke
	mov	eax, DWORD PTR opnd$[rsp+72]
	and	eax, 1
	cmp	eax, 1
	jne	$LN94@PushInvoke
$LN96@PushInvoke:

; 1543 :             ( opnd.kind == EXPR_REG && opnd.indirect == TRUE ) ) {
; 1544 : 
; 1545 :             /* catch the case when EAX has been used for ADDR,
; 1546 :              * and is later used as addressing register!
; 1547 :              *
; 1548 :              */
; 1549 :             if ( *r0flags &&

	mov	rax, QWORD PTR r0flags$[rsp]
	movzx	eax, BYTE PTR [rax]
	test	eax, eax
	je	SHORT $LN98@PushInvoke
	cmp	QWORD PTR opnd$[rsp+24], 0
	je	SHORT $LN100@PushInvoke
	mov	rax, QWORD PTR opnd$[rsp+24]
	cmp	DWORD PTR [rax+16], 17
	je	SHORT $LN99@PushInvoke
	mov	rax, QWORD PTR opnd$[rsp+24]
	cmp	DWORD PTR [rax+16], 115			; 00000073H
	je	SHORT $LN99@PushInvoke
$LN100@PushInvoke:
	cmp	QWORD PTR opnd$[rsp+32], 0
	je	SHORT $LN98@PushInvoke
	mov	rax, QWORD PTR opnd$[rsp+32]
	cmp	DWORD PTR [rax+16], 17
	je	SHORT $LN101@PushInvoke
	mov	rax, QWORD PTR opnd$[rsp+32]
	cmp	DWORD PTR [rax+16], 115			; 00000073H
	jne	SHORT $LN98@PushInvoke
$LN101@PushInvoke:
$LN99@PushInvoke:

; 1550 :                 (( opnd.base_reg != NULL &&
; 1551 :                   ( opnd.base_reg->tokval == T_EAX
; 1552 : #if AMD64_SUPPORT
; 1553 :                    || opnd.base_reg->tokval == T_RAX
; 1554 : #endif
; 1555 :                   )) ||
; 1556 :                  ( opnd.idx_reg != NULL &&
; 1557 :                   ( opnd.idx_reg->tokval == T_EAX
; 1558 : #if AMD64_SUPPORT
; 1559 :                    || opnd.idx_reg->tokval == T_RAX
; 1560 : #endif
; 1561 :                  )))) {
; 1562 :                 EmitErr( REGISTER_VALUE_OVERWRITTEN_BY_INVOKE );

	mov	ecx, 165				; 000000a5H
	call	EmitErr

; 1563 :                 *r0flags = 0;

	mov	rax, QWORD PTR r0flags$[rsp]
	mov	BYTE PTR [rax], 0
$LN98@PushInvoke:

; 1564 :             }
; 1565 : 
; 1566 :             if ( curr->sym.is_vararg ) {

	mov	rax, QWORD PTR curr$[rsp]
	movzx	eax, BYTE PTR [rax+47]
	shr	al, 5
	and	al, 1
	movzx	eax, al
	test	eax, eax
	je	SHORT $LN102@PushInvoke

; 1567 :                 size_vararg += ( asize > pushsize ? asize : pushsize );

	mov	eax, DWORD PTR pushsize$[rsp]
	cmp	DWORD PTR asize$[rsp], eax
	jle	SHORT $LN261@PushInvoke
	mov	eax, DWORD PTR asize$[rsp]
	mov	DWORD PTR tv710[rsp], eax
	jmp	SHORT $LN262@PushInvoke
$LN261@PushInvoke:
	mov	eax, DWORD PTR pushsize$[rsp]
	mov	DWORD PTR tv710[rsp], eax
$LN262@PushInvoke:
	mov	eax, DWORD PTR tv710[rsp]
	mov	ecx, DWORD PTR size_vararg
	add	ecx, eax
	mov	eax, ecx
	mov	DWORD PTR size_vararg, eax

; 1568 :                 DebugMsg1(("PushInvokeParm(%u): asize=%u added to size_vararg, now=%u\n",

	mov	eax, DWORD PTR pushsize$[rsp]
	cmp	DWORD PTR asize$[rsp], eax
	jle	SHORT $LN263@PushInvoke
	mov	eax, DWORD PTR asize$[rsp]
	mov	DWORD PTR tv714[rsp], eax
	jmp	SHORT $LN264@PushInvoke
$LN263@PushInvoke:
	mov	eax, DWORD PTR pushsize$[rsp]
	mov	DWORD PTR tv714[rsp], eax
$LN264@PushInvoke:
	mov	r9d, DWORD PTR size_vararg
	mov	r8d, DWORD PTR tv714[rsp]
	mov	edx, DWORD PTR reqParam$[rsp]
	lea	rcx, OFFSET FLAT:$SG11978
	call	DoDebugMsg1
$LN102@PushInvoke:

; 1569 :                            reqParam, asize > pushsize ? asize : pushsize, size_vararg ));
; 1570 :             }
; 1571 :             if ( asize > pushsize ) {

	mov	eax, DWORD PTR pushsize$[rsp]
	cmp	DWORD PTR asize$[rsp], eax
	jle	$LN103@PushInvoke

; 1572 : 
; 1573 :                 short dw = T_WORD;

	mov	eax, 207				; 000000cfH
	mov	WORD PTR dw$3[rsp], ax

; 1574 :                 if (( ModuleInfo.curr_cpu & P_CPU_MASK ) >= P_386 ) {

	mov	eax, DWORD PTR ModuleInfo+392
	and	eax, 240				; 000000f0H
	cmp	eax, 48					; 00000030H
	jl	SHORT $LN105@PushInvoke

; 1575 :                     pushsize = 4;

	mov	DWORD PTR pushsize$[rsp], 4

; 1576 :                     dw = T_DWORD;

	mov	eax, 209				; 000000d1H
	mov	WORD PTR dw$3[rsp], ax
$LN105@PushInvoke:

; 1577 :                 }
; 1578 : 
; 1579 :                 /* in params like "qword ptr [eax]" the typecast
; 1580 :                  * has to be removed */
; 1581 :                 if ( opnd.explicit ) {

	mov	eax, DWORD PTR opnd$[rsp+72]
	shr	eax, 1
	and	eax, 1
	test	eax, eax
	je	SHORT $LN106@PushInvoke

; 1582 :                     SkipTypecast( fullparam, i, tokenarray );

	mov	r8, QWORD PTR tokenarray$[rsp]
	mov	edx, DWORD PTR i$[rsp]
	lea	rcx, QWORD PTR fullparam$[rsp]
	call	SkipTypecast

; 1583 :                     opnd.explicit = FALSE;

	mov	eax, DWORD PTR opnd$[rsp+72]
	and	eax, -3					; fffffffdH
	mov	DWORD PTR opnd$[rsp+72], eax
$LN106@PushInvoke:
$LN8@PushInvoke:

; 1584 :                 }
; 1585 : 
; 1586 :                 while ( asize > 0 ) {

	cmp	DWORD PTR asize$[rsp], 0
	jle	$LN9@PushInvoke

; 1587 : 
; 1588 :                     if ( asize & 2 ) {

	mov	eax, DWORD PTR asize$[rsp]
	and	eax, 2
	test	eax, eax
	je	SHORT $LN107@PushInvoke

; 1589 : 
; 1590 :                         /* ensure the stack remains dword-aligned in 32bit */
; 1591 :                         if ( ModuleInfo.Ofssize > USE16 ) {

	movzx	eax, BYTE PTR ModuleInfo+404
	test	eax, eax
	jle	SHORT $LN109@PushInvoke

; 1592 :                             /* v2.05: better push a 0 word? */
; 1593 :                             //AddLineQueueX( " pushw 0" );
; 1594 :                           /* ASMC v1.12: dword-aligned stack in 32bit */
; 1595 :                           if (pushsize == 4)

	cmp	DWORD PTR pushsize$[rsp], 4
	jne	SHORT $LN110@PushInvoke

; 1596 :                             size_vararg += 2;

	mov	eax, DWORD PTR size_vararg
	add	eax, 2
	mov	DWORD PTR size_vararg, eax
$LN110@PushInvoke:

; 1597 :                           /******/
; 1598 : #if AMD64_SUPPORT
; 1599 :                             AddLineQueueX( " sub %r, 2", stackreg[ModuleInfo.Ofssize] );

	movzx	eax, BYTE PTR ModuleInfo+404
	lea	rcx, OFFSET FLAT:stackreg
	mov	edx, DWORD PTR [rcx+rax*4]
	lea	rcx, OFFSET FLAT:$SG11987
	call	AddLineQueueX
$LN109@PushInvoke:

; 1600 : #else
; 1601 :                             AddLineQueueX( " sub %r, 2", T_ESP );
; 1602 : #endif
; 1603 :                         }
; 1604 :                         AddLineQueueX( " push word ptr %s+%u", fullparam, NUMQUAL asize-2 );

	mov	eax, DWORD PTR asize$[rsp]
	sub	eax, 2
	mov	r8d, eax
	lea	rdx, QWORD PTR fullparam$[rsp]
	lea	rcx, OFFSET FLAT:$SG11988
	call	AddLineQueueX

; 1605 :                         asize -= 2;

	mov	eax, DWORD PTR asize$[rsp]
	sub	eax, 2
	mov	DWORD PTR asize$[rsp], eax

; 1606 :                     } else {

	jmp	SHORT $LN108@PushInvoke
$LN107@PushInvoke:

; 1607 :                         AddLineQueueX( " push %r ptr %s+%u", dw, fullparam, NUMQUAL asize-pushsize );

	mov	eax, DWORD PTR pushsize$[rsp]
	mov	ecx, DWORD PTR asize$[rsp]
	sub	ecx, eax
	mov	eax, ecx
	movsx	ecx, WORD PTR dw$3[rsp]
	mov	r9d, eax
	lea	r8, QWORD PTR fullparam$[rsp]
	mov	edx, ecx
	lea	rcx, OFFSET FLAT:$SG11989
	call	AddLineQueueX

; 1608 :                         asize -= pushsize;

	mov	eax, DWORD PTR pushsize$[rsp]
	mov	ecx, DWORD PTR asize$[rsp]
	sub	ecx, eax
	mov	eax, ecx
	mov	DWORD PTR asize$[rsp], eax
$LN108@PushInvoke:

; 1609 :                     }
; 1610 :                 }

	jmp	$LN8@PushInvoke
$LN9@PushInvoke:

; 1611 :                 //return( NOT_ERROR );
; 1612 : 
; 1613 :             } else if ( asize < pushsize ) {

	jmp	$LN104@PushInvoke
$LN103@PushInvoke:
	mov	eax, DWORD PTR pushsize$[rsp]
	cmp	DWORD PTR asize$[rsp], eax
	jge	$LN111@PushInvoke

; 1614 : 
; 1615 :                 if ( psize > 4 ) {

	cmp	DWORD PTR psize$[rsp], 4
	jle	SHORT $LN113@PushInvoke

; 1616 :                     DebugMsg1(("PushInvokeParm(%u): error, ADDR, psize=%u, is > 4\n",

	mov	r8d, DWORD PTR psize$[rsp]
	mov	edx, DWORD PTR reqParam$[rsp]
	lea	rcx, OFFSET FLAT:$SG11993
	call	DoDebugMsg1

; 1617 :                               reqParam, psize ));
; 1618 :                     EmitErr( INVOKE_ARGUMENT_TYPE_MISMATCH, reqParam+1 );

	mov	eax, DWORD PTR reqParam$[rsp]
	inc	eax
	mov	edx, eax
	mov	ecx, 145				; 00000091H
	call	EmitErr
$LN113@PushInvoke:

; 1619 :                 }
; 1620 :                 /* v2.11: added, use MOVSX/MOVZX if cpu >= 80386 */
; 1621 :                 if ( asize < 4 && psize > 2 && IS_SIGNED( opnd.mem_type ) && ( ModuleInfo.curr_cpu & P_CPU_MASK ) >= P_386 ) {

	cmp	DWORD PTR asize$[rsp], 4
	jge	SHORT $LN114@PushInvoke
	cmp	DWORD PTR psize$[rsp], 2
	jle	SHORT $LN114@PushInvoke
	mov	eax, DWORD PTR opnd$[rsp+64]
	and	eax, 192				; 000000c0H
	cmp	eax, 64					; 00000040H
	jne	SHORT $LN114@PushInvoke
	mov	eax, DWORD PTR ModuleInfo+392
	and	eax, 240				; 000000f0H
	cmp	eax, 48					; 00000030H
	jl	SHORT $LN114@PushInvoke

; 1622 :                     AddLineQueueX( " movsx %r, %s", T_EAX, fullparam );

	lea	r8, QWORD PTR fullparam$[rsp]
	mov	edx, 17
	lea	rcx, OFFSET FLAT:$SG11996
	call	AddLineQueueX

; 1623 :                     AddLineQueueX( " push %r", T_EAX );

	mov	edx, 17
	lea	rcx, OFFSET FLAT:$SG11997
	call	AddLineQueueX

; 1624 :                     *r0flags = R0_USED; /* reset R0_H_CLEARED  */

	mov	rax, QWORD PTR r0flags$[rsp]
	mov	BYTE PTR [rax], 1

; 1625 :                 } else {

	jmp	$LN115@PushInvoke
$LN114@PushInvoke:

; 1626 :                     //switch (sym->mem_type) {
; 1627 :                     switch ( opnd.mem_type ) {

	mov	eax, DWORD PTR opnd$[rsp+64]
	mov	DWORD PTR tv771[rsp], eax
	cmp	DWORD PTR tv771[rsp], 0
	je	SHORT $LN116@PushInvoke
	cmp	DWORD PTR tv771[rsp], 1
	je	$LN129@PushInvoke
	cmp	DWORD PTR tv771[rsp], 64		; 00000040H
	je	SHORT $LN116@PushInvoke
	cmp	DWORD PTR tv771[rsp], 65		; 00000041H
	je	$LN129@PushInvoke
	jmp	$LN136@PushInvoke
$LN116@PushInvoke:

; 1628 :                     case MT_BYTE:
; 1629 :                     case MT_SBYTE:
; 1630 :                         if ( psize == 1 && curr->sym.is_vararg == FALSE ) {

	cmp	DWORD PTR psize$[rsp], 1
	jne	SHORT $LN117@PushInvoke
	mov	rax, QWORD PTR curr$[rsp]
	movzx	eax, BYTE PTR [rax+47]
	shr	al, 5
	and	al, 1
	movzx	eax, al
	test	eax, eax
	jne	SHORT $LN117@PushInvoke

; 1631 :                             AddLineQueueX( " mov %r, %s", T_AL, fullparam );

	lea	r8, QWORD PTR fullparam$[rsp]
	mov	edx, 1
	lea	rcx, OFFSET FLAT:$SG12001
	call	AddLineQueueX

; 1632 :                             AddLineQueueX( " push %r", regax[ModuleInfo.Ofssize] );

	movzx	eax, BYTE PTR ModuleInfo+404
	lea	rcx, OFFSET FLAT:regax
	mov	edx, DWORD PTR [rcx+rax*4]
	lea	rcx, OFFSET FLAT:$SG12002
	call	AddLineQueueX
	jmp	$LN118@PushInvoke
$LN117@PushInvoke:

; 1633 :                         } else if ( pushsize == 2 ) { /* 16-bit code? */

	cmp	DWORD PTR pushsize$[rsp], 2
	jne	$LN119@PushInvoke

; 1634 :                             if ( opnd.mem_type == MT_BYTE ) {

	cmp	DWORD PTR opnd$[rsp+64], 0
	jne	$LN121@PushInvoke

; 1635 :                                 if ( psize == 4 )

	cmp	DWORD PTR psize$[rsp], 4
	jne	SHORT $LN123@PushInvoke

; 1636 :                                     if ( ( ModuleInfo.curr_cpu & P_CPU_MASK ) < P_186 )  {

	mov	eax, DWORD PTR ModuleInfo+392
	and	eax, 240				; 000000f0H
	cmp	eax, 16
	jge	SHORT $LN124@PushInvoke

; 1637 :                                         if ( !(*r0flags & R0_X_CLEARED ) )

	mov	rax, QWORD PTR r0flags$[rsp]
	movzx	eax, BYTE PTR [rax]
	and	eax, 4
	test	eax, eax
	jne	SHORT $LN126@PushInvoke

; 1638 :                                             AddLineQueueX( " xor %r, %r", T_AX, T_AX );

	mov	r8d, 9
	mov	edx, 9
	lea	rcx, OFFSET FLAT:$SG12011
	call	AddLineQueueX
$LN126@PushInvoke:

; 1639 :                                         *r0flags |= ( R0_X_CLEARED | R0_H_CLEARED );

	mov	rax, QWORD PTR r0flags$[rsp]
	movzx	eax, BYTE PTR [rax]
	or	eax, 6
	mov	rcx, QWORD PTR r0flags$[rsp]
	mov	BYTE PTR [rcx], al

; 1640 :                                         AddLineQueueX( " push %r", T_AX );

	mov	edx, 9
	lea	rcx, OFFSET FLAT:$SG12012
	call	AddLineQueueX

; 1641 :                                     } else

	jmp	SHORT $LN125@PushInvoke
$LN124@PushInvoke:

; 1642 :                                         AddLineQueue( " push 0" );

	lea	rcx, OFFSET FLAT:$SG12013
	call	AddLineQueue
$LN125@PushInvoke:
$LN123@PushInvoke:

; 1643 :                                 AddLineQueueX( " mov %r, %s", T_AL, fullparam );

	lea	r8, QWORD PTR fullparam$[rsp]
	mov	edx, 1
	lea	rcx, OFFSET FLAT:$SG12014
	call	AddLineQueueX

; 1644 :                                 if ( !( *r0flags & R0_H_CLEARED )) {

	mov	rax, QWORD PTR r0flags$[rsp]
	movzx	eax, BYTE PTR [rax]
	and	eax, 2
	test	eax, eax
	jne	SHORT $LN127@PushInvoke

; 1645 :                                     AddLineQueueX( " mov %r, 0", T_AH );

	mov	edx, 5
	lea	rcx, OFFSET FLAT:$SG12016
	call	AddLineQueueX

; 1646 :                                     *r0flags |= R0_H_CLEARED;

	mov	rax, QWORD PTR r0flags$[rsp]
	movzx	eax, BYTE PTR [rax]
	or	eax, 2
	mov	rcx, QWORD PTR r0flags$[rsp]
	mov	BYTE PTR [rcx], al
$LN127@PushInvoke:

; 1647 :                                 }
; 1648 :                             } else {

	jmp	SHORT $LN122@PushInvoke
$LN121@PushInvoke:

; 1649 :                                 AddLineQueueX( " mov %r, %s", T_AL, fullparam );

	lea	r8, QWORD PTR fullparam$[rsp]
	mov	edx, 1
	lea	rcx, OFFSET FLAT:$SG12017
	call	AddLineQueueX

; 1650 :                                 *r0flags = 0; /* reset AH_CLEARED */

	mov	rax, QWORD PTR r0flags$[rsp]
	mov	BYTE PTR [rax], 0

; 1651 :                                 AddLineQueue( " cbw" );

	lea	rcx, OFFSET FLAT:$SG12018
	call	AddLineQueue

; 1652 :                                 if ( psize == 4 ) {

	cmp	DWORD PTR psize$[rsp], 4
	jne	SHORT $LN128@PushInvoke

; 1653 :                                     AddLineQueue( " cwd" );

	lea	rcx, OFFSET FLAT:$SG12020
	call	AddLineQueue

; 1654 :                                     AddLineQueueX( " push %r", T_DX );

	mov	edx, 11
	lea	rcx, OFFSET FLAT:$SG12021
	call	AddLineQueueX

; 1655 :                                     *r0flags |= R2_USED;

	mov	rax, QWORD PTR r0flags$[rsp]
	movzx	eax, BYTE PTR [rax]
	or	eax, 8
	mov	rcx, QWORD PTR r0flags$[rsp]
	mov	BYTE PTR [rcx], al
$LN128@PushInvoke:
$LN122@PushInvoke:

; 1656 :                                 }
; 1657 :                             }
; 1658 :                             AddLineQueueX( " push %r", T_AX );

	mov	edx, 9
	lea	rcx, OFFSET FLAT:$SG12022
	call	AddLineQueueX

; 1659 :                         } else {

	jmp	SHORT $LN120@PushInvoke
$LN119@PushInvoke:

; 1660 :                             AddLineQueueX( " mov%sx %r, %s", opnd.mem_type == MT_BYTE ? "z" : "s", T_EAX, fullparam );

	cmp	DWORD PTR opnd$[rsp+64], 0
	jne	SHORT $LN265@PushInvoke
	lea	rax, OFFSET FLAT:$SG12023
	mov	QWORD PTR tv830[rsp], rax
	jmp	SHORT $LN266@PushInvoke
$LN265@PushInvoke:
	lea	rax, OFFSET FLAT:$SG12024
	mov	QWORD PTR tv830[rsp], rax
$LN266@PushInvoke:
	lea	r9, QWORD PTR fullparam$[rsp]
	mov	r8d, 17
	mov	rdx, QWORD PTR tv830[rsp]
	lea	rcx, OFFSET FLAT:$SG12025
	call	AddLineQueueX

; 1661 :                             AddLineQueueX( " push %r", T_EAX );

	mov	edx, 17
	lea	rcx, OFFSET FLAT:$SG12026
	call	AddLineQueueX
$LN120@PushInvoke:
$LN118@PushInvoke:

; 1662 :                         }
; 1663 :                         *r0flags |= R0_USED;

	mov	rax, QWORD PTR r0flags$[rsp]
	movzx	eax, BYTE PTR [rax]
	or	eax, 1
	mov	rcx, QWORD PTR r0flags$[rsp]
	mov	BYTE PTR [rcx], al

; 1664 :                         break;

	jmp	$LN10@PushInvoke
$LN129@PushInvoke:

; 1665 :                     case MT_WORD:
; 1666 :                     case MT_SWORD:
; 1667 :                         /* pushsize is 4 here, hence it's always 32-bit code!
; 1668 :                          * v2.04: use the Masm-compatible, non-destructive
; 1669 :                          * PUSH if psize is 2.
; 1670 :                          */
; 1671 :                         //if ( Options.masm_compat_gencode ) {
; 1672 :                         /* v2.11: don't push 0 if src operand is signed */
; 1673 :                         //if ( Options.masm_compat_gencode || psize == 2 ) {
; 1674 :                         if ( opnd.mem_type == MT_WORD && ( Options.masm_compat_gencode || psize == 2 )) {

	cmp	DWORD PTR opnd$[rsp+64], 1
	jne	SHORT $LN130@PushInvoke
	movzx	eax, BYTE PTR Options+144
	test	eax, eax
	jne	SHORT $LN132@PushInvoke
	cmp	DWORD PTR psize$[rsp], 2
	jne	SHORT $LN130@PushInvoke
$LN132@PushInvoke:

; 1675 :                             /* v2.05: push a 0 word if argument is VARARG
; 1676 :                              * v2.10: push a 0 word if psize != 2
; 1677 :                              */
; 1678 :                             //if ( curr->sym.is_vararg )
; 1679 :                             if ( curr->sym.is_vararg || psize != 2 )

	mov	rax, QWORD PTR curr$[rsp]
	movzx	eax, BYTE PTR [rax+47]
	shr	al, 5
	and	al, 1
	movzx	eax, al
	test	eax, eax
	jne	SHORT $LN135@PushInvoke
	cmp	DWORD PTR psize$[rsp], 2
	je	SHORT $LN133@PushInvoke
$LN135@PushInvoke:

; 1680 :                                 AddLineQueueX( " pushw 0" );

	lea	rcx, OFFSET FLAT:$SG12034
	call	AddLineQueueX
	jmp	SHORT $LN134@PushInvoke
$LN133@PushInvoke:

; 1681 :                             else {
; 1682 : #if AMD64_SUPPORT
; 1683 :                                 AddLineQueueX( " sub %r, 2", stackreg[ModuleInfo.Ofssize] );

	movzx	eax, BYTE PTR ModuleInfo+404
	lea	rcx, OFFSET FLAT:stackreg
	mov	edx, DWORD PTR [rcx+rax*4]
	lea	rcx, OFFSET FLAT:$SG12035
	call	AddLineQueueX
$LN134@PushInvoke:

; 1684 : #else
; 1685 :                                 AddLineQueueX( " sub %r, 2", T_ESP );
; 1686 : #endif
; 1687 :                             }
; 1688 :                             AddLineQueueX( " push %s", fullparam );

	lea	rdx, QWORD PTR fullparam$[rsp]
	lea	rcx, OFFSET FLAT:$SG12036
	call	AddLineQueueX

; 1689 :                         } else {

	jmp	SHORT $LN131@PushInvoke
$LN130@PushInvoke:

; 1690 :                             AddLineQueueX( " mov%sx %r, %s", opnd.mem_type == MT_WORD ? "z" : "s", T_EAX, fullparam );

	cmp	DWORD PTR opnd$[rsp+64], 1
	jne	SHORT $LN267@PushInvoke
	lea	rax, OFFSET FLAT:$SG12037
	mov	QWORD PTR tv891[rsp], rax
	jmp	SHORT $LN268@PushInvoke
$LN267@PushInvoke:
	lea	rax, OFFSET FLAT:$SG12038
	mov	QWORD PTR tv891[rsp], rax
$LN268@PushInvoke:
	lea	r9, QWORD PTR fullparam$[rsp]
	mov	r8d, 17
	mov	rdx, QWORD PTR tv891[rsp]
	lea	rcx, OFFSET FLAT:$SG12039
	call	AddLineQueueX

; 1691 :                             AddLineQueueX( " push %r", T_EAX );

	mov	edx, 17
	lea	rcx, OFFSET FLAT:$SG12040
	call	AddLineQueueX

; 1692 :                             *r0flags = R0_USED; /* reset R0_H_CLEARED  */

	mov	rax, QWORD PTR r0flags$[rsp]
	mov	BYTE PTR [rax], 1
$LN131@PushInvoke:

; 1693 :                         }
; 1694 :                         break;

	jmp	SHORT $LN10@PushInvoke
$LN136@PushInvoke:

; 1695 :                     default:
; 1696 :                         AddLineQueueX( " push %s", fullparam );

	lea	rdx, QWORD PTR fullparam$[rsp]
	lea	rcx, OFFSET FLAT:$SG12042
	call	AddLineQueueX
$LN10@PushInvoke:
$LN115@PushInvoke:

; 1697 :                     }
; 1698 :                 }
; 1699 :             } else { /* asize == pushsize */

	jmp	$LN112@PushInvoke
$LN111@PushInvoke:

; 1700 : 
; 1701 :                 /* v2.11: changed */
; 1702 :                 if ( IS_SIGNED( opnd.mem_type ) && psize > asize ) {

	mov	eax, DWORD PTR opnd$[rsp+64]
	and	eax, 192				; 000000c0H
	cmp	eax, 64					; 00000040H
	jne	$LN137@PushInvoke
	mov	eax, DWORD PTR asize$[rsp]
	cmp	DWORD PTR psize$[rsp], eax
	jle	$LN137@PushInvoke

; 1703 :                     if ( psize > 2 && (( ModuleInfo.curr_cpu & P_CPU_MASK ) >= P_386 ) ) {

	cmp	DWORD PTR psize$[rsp], 2
	jle	SHORT $LN139@PushInvoke
	mov	eax, DWORD PTR ModuleInfo+392
	and	eax, 240				; 000000f0H
	cmp	eax, 48					; 00000030H
	jl	SHORT $LN139@PushInvoke

; 1704 :                         AddLineQueueX( " movsx %r, %s", T_EAX, fullparam );

	lea	r8, QWORD PTR fullparam$[rsp]
	mov	edx, 17
	lea	rcx, OFFSET FLAT:$SG12047
	call	AddLineQueueX

; 1705 :                         AddLineQueueX( " push %r", T_EAX );

	mov	edx, 17
	lea	rcx, OFFSET FLAT:$SG12048
	call	AddLineQueueX

; 1706 :                         *r0flags = R0_USED; /* reset R0_H_CLEARED  */

	mov	rax, QWORD PTR r0flags$[rsp]
	mov	BYTE PTR [rax], 1
	jmp	SHORT $LN140@PushInvoke
$LN139@PushInvoke:

; 1707 :                     } else if ( pushsize == 2 && psize > 2 ) {

	cmp	DWORD PTR pushsize$[rsp], 2
	jne	SHORT $LN141@PushInvoke
	cmp	DWORD PTR psize$[rsp], 2
	jle	SHORT $LN141@PushInvoke

; 1708 :                         AddLineQueueX( " mov %r, %s", T_AX, fullparam );

	lea	r8, QWORD PTR fullparam$[rsp]
	mov	edx, 9
	lea	rcx, OFFSET FLAT:$SG12051
	call	AddLineQueueX

; 1709 :                         AddLineQueueX( " cwd" );

	lea	rcx, OFFSET FLAT:$SG12052
	call	AddLineQueueX

; 1710 :                         AddLineQueueX( " push %r", T_DX );

	mov	edx, 11
	lea	rcx, OFFSET FLAT:$SG12053
	call	AddLineQueueX

; 1711 :                         AddLineQueueX( " push %r", T_AX );

	mov	edx, 9
	lea	rcx, OFFSET FLAT:$SG12054
	call	AddLineQueueX

; 1712 :                         *r0flags = R0_USED | R2_USED;

	mov	rax, QWORD PTR r0flags$[rsp]
	mov	BYTE PTR [rax], 9

; 1713 :                     } else

	jmp	SHORT $LN142@PushInvoke
$LN141@PushInvoke:

; 1714 :                         AddLineQueueX( " push %s", fullparam );

	lea	rdx, QWORD PTR fullparam$[rsp]
	lea	rcx, OFFSET FLAT:$SG12055
	call	AddLineQueueX
$LN142@PushInvoke:
$LN140@PushInvoke:

; 1715 :                 } else {

	jmp	$LN138@PushInvoke
$LN137@PushInvoke:

; 1716 :                     if ( pushsize == 2 && psize > 2 ) {

	cmp	DWORD PTR pushsize$[rsp], 2
	jne	SHORT $LN143@PushInvoke
	cmp	DWORD PTR psize$[rsp], 2
	jle	SHORT $LN143@PushInvoke

; 1717 :                         if ( ( ModuleInfo.curr_cpu & P_CPU_MASK ) < P_186 )  {

	mov	eax, DWORD PTR ModuleInfo+392
	and	eax, 240				; 000000f0H
	cmp	eax, 16
	jge	SHORT $LN144@PushInvoke

; 1718 :                             if ( !(*r0flags & R0_X_CLEARED ) )

	mov	rax, QWORD PTR r0flags$[rsp]
	movzx	eax, BYTE PTR [rax]
	and	eax, 4
	test	eax, eax
	jne	SHORT $LN146@PushInvoke

; 1719 :                                 AddLineQueueX( " xor %r, %r", T_AX, T_AX );

	mov	r8d, 9
	mov	edx, 9
	lea	rcx, OFFSET FLAT:$SG12060
	call	AddLineQueueX
$LN146@PushInvoke:

; 1720 :                             AddLineQueueX( " push %r", T_AX );

	mov	edx, 9
	lea	rcx, OFFSET FLAT:$SG12061
	call	AddLineQueueX

; 1721 :                             *r0flags |= ( R0_USED | R0_X_CLEARED | R0_H_CLEARED );

	mov	rax, QWORD PTR r0flags$[rsp]
	movzx	eax, BYTE PTR [rax]
	or	eax, 7
	mov	rcx, QWORD PTR r0flags$[rsp]
	mov	BYTE PTR [rcx], al

; 1722 :                         } else

	jmp	SHORT $LN145@PushInvoke
$LN144@PushInvoke:

; 1723 :                             AddLineQueueX( " pushw 0" );

	lea	rcx, OFFSET FLAT:$SG12062
	call	AddLineQueueX
$LN145@PushInvoke:
$LN143@PushInvoke:

; 1724 :                     }
; 1725 :                     AddLineQueueX( " push %s", fullparam );

	lea	rdx, QWORD PTR fullparam$[rsp]
	lea	rcx, OFFSET FLAT:$SG12063
	call	AddLineQueueX
$LN138@PushInvoke:
$LN112@PushInvoke:
$LN104@PushInvoke:

; 1726 :                 }
; 1727 :             }
; 1728 : 
; 1729 :         } else { /* the parameter is a register or constant value! */

	jmp	$LN95@PushInvoke
$LN94@PushInvoke:

; 1730 : 
; 1731 :             //char is_r0 = FALSE;
; 1732 :             if ( opnd.kind == EXPR_REG ) {

	cmp	DWORD PTR opnd$[rsp+60], 2
	jne	$LN147@PushInvoke

; 1733 :                 int reg = opnd.base_reg->tokval;

	mov	rax, QWORD PTR opnd$[rsp+24]
	mov	eax, DWORD PTR [rax+16]
	mov	DWORD PTR reg$1[rsp], eax

; 1734 :                 unsigned optype = GetValueSp( reg );

	movsxd	rax, DWORD PTR reg$1[rsp]
	imul	rax, rax, 12
	lea	rcx, OFFSET FLAT:SpecialTable
	mov	eax, DWORD PTR [rcx+rax]
	mov	DWORD PTR optype$6[rsp], eax

; 1735 : 
; 1736 :                 /* v2.11 */
; 1737 :                 if ( curr->sym.is_vararg == TRUE && psize < pushsize )

	mov	rax, QWORD PTR curr$[rsp]
	movzx	eax, BYTE PTR [rax+47]
	shr	al, 5
	and	al, 1
	movzx	eax, al
	cmp	eax, 1
	jne	SHORT $LN149@PushInvoke
	mov	eax, DWORD PTR pushsize$[rsp]
	cmp	DWORD PTR psize$[rsp], eax
	jge	SHORT $LN149@PushInvoke

; 1738 :                     psize = pushsize;

	mov	eax, DWORD PTR pushsize$[rsp]
	mov	DWORD PTR psize$[rsp], eax
$LN149@PushInvoke:

; 1739 : 
; 1740 :                 /* v2.06: check if register is valid to be pushed.
; 1741 :                  * ST(n), MMn, XMMn, YMMn and special registers are NOT valid!
; 1742 :                  */
; 1743 :                 if ( optype & ( OP_STI | OP_MMX | OP_XMM

	mov	eax, DWORD PTR optype$6[rsp]
	and	eax, 102576				; 000190b0H
	test	eax, eax
	je	SHORT $LN150@PushInvoke

; 1744 : #if AVXSUPP
; 1745 :                                | OP_YMM
; 1746 : #endif
; 1747 :                                | OP_RSPEC ) ) {
; 1748 : 
; 1749 :                     return( EmitErr( INVOKE_ARGUMENT_TYPE_MISMATCH, reqParam+1 ) );

	mov	eax, DWORD PTR reqParam$[rsp]
	inc	eax
	mov	edx, eax
	mov	ecx, 145				; 00000091H
	call	EmitErr
	jmp	$LN1@PushInvoke
$LN150@PushInvoke:

; 1750 :                 }
; 1751 : 
; 1752 :                 if ( ( *r0flags & R0_USED ) && ( reg == T_AH || ( optype & OP_A ) ) ) {

	mov	rax, QWORD PTR r0flags$[rsp]
	movzx	eax, BYTE PTR [rax]
	and	eax, 1
	test	eax, eax
	je	SHORT $LN151@PushInvoke
	cmp	DWORD PTR reg$1[rsp], 5
	je	SHORT $LN153@PushInvoke
	mov	eax, DWORD PTR optype$6[rsp]
	and	eax, 512				; 00000200H
	test	eax, eax
	je	SHORT $LN151@PushInvoke
$LN153@PushInvoke:

; 1753 :                     EmitErr( REGISTER_VALUE_OVERWRITTEN_BY_INVOKE );

	mov	ecx, 165				; 000000a5H
	call	EmitErr

; 1754 :                     *r0flags &= ~R0_USED;

	mov	rax, QWORD PTR r0flags$[rsp]
	movzx	eax, BYTE PTR [rax]
	and	eax, -2
	mov	rcx, QWORD PTR r0flags$[rsp]
	mov	BYTE PTR [rcx], al
	jmp	SHORT $LN152@PushInvoke
$LN151@PushInvoke:

; 1755 :                 } else if ( ( *r0flags & R2_USED ) && ( reg == T_DH || GetRegNo( reg ) == 2 ) ) {

	mov	rax, QWORD PTR r0flags$[rsp]
	movzx	eax, BYTE PTR [rax]
	and	eax, 8
	test	eax, eax
	je	SHORT $LN154@PushInvoke
	cmp	DWORD PTR reg$1[rsp], 7
	je	SHORT $LN155@PushInvoke
	movsxd	rax, DWORD PTR reg$1[rsp]
	imul	rax, rax, 12
	lea	rcx, OFFSET FLAT:SpecialTable
	movzx	eax, BYTE PTR [rcx+rax+10]
	cmp	eax, 2
	jne	SHORT $LN154@PushInvoke
$LN155@PushInvoke:

; 1756 :                     EmitErr( REGISTER_VALUE_OVERWRITTEN_BY_INVOKE );

	mov	ecx, 165				; 000000a5H
	call	EmitErr

; 1757 :                     *r0flags &= ~R2_USED;

	mov	rax, QWORD PTR r0flags$[rsp]
	movzx	eax, BYTE PTR [rax]
	and	eax, -9
	mov	rcx, QWORD PTR r0flags$[rsp]
	mov	BYTE PTR [rcx], al
$LN154@PushInvoke:
$LN152@PushInvoke:

; 1758 :                 }
; 1759 :                 /* v2.11: use target's "pushsize", not the current one */
; 1760 :                 //if ( asize != psize || asize < pushsize ) {
; 1761 :                 if ( asize != psize || asize < ( 2 << Ofssize ) ) {

	mov	eax, DWORD PTR psize$[rsp]
	cmp	DWORD PTR asize$[rsp], eax
	jne	SHORT $LN157@PushInvoke
	movsx	eax, BYTE PTR Ofssize$[rsp]
	mov	ecx, 2
	mov	DWORD PTR tv1653[rsp], ecx
	movzx	ecx, al
	mov	eax, DWORD PTR tv1653[rsp]
	shl	eax, cl
	cmp	DWORD PTR asize$[rsp], eax
	jge	$LN156@PushInvoke
$LN157@PushInvoke:

; 1762 :                     /* register size doesn't match the needed parameter size.
; 1763 :                      */
; 1764 :                     if ( psize > 4 ) {

	cmp	DWORD PTR psize$[rsp], 4
	jle	SHORT $LN158@PushInvoke

; 1765 :                         DebugMsg1(("PushInvokeParm(%u): error, REG, asize=%u, psize=%u, pushsize=%u\n",

	mov	eax, DWORD PTR pushsize$[rsp]
	mov	DWORD PTR [rsp+32], eax
	mov	r9d, DWORD PTR psize$[rsp]
	mov	r8d, DWORD PTR asize$[rsp]
	mov	edx, DWORD PTR reqParam$[rsp]
	lea	rcx, OFFSET FLAT:$SG12076
	call	DoDebugMsg1

; 1766 :                                   reqParam, asize, psize, pushsize ));
; 1767 :                         EmitErr( INVOKE_ARGUMENT_TYPE_MISMATCH, reqParam+1 );

	mov	eax, DWORD PTR reqParam$[rsp]
	inc	eax
	mov	edx, eax
	mov	ecx, 145				; 00000091H
	call	EmitErr
$LN158@PushInvoke:

; 1768 :                     }
; 1769 : 
; 1770 :                     if ( asize <= 2 && ( psize == 4 || pushsize == 4 ) ) {

	cmp	DWORD PTR asize$[rsp], 2
	jg	$LN159@PushInvoke
	cmp	DWORD PTR psize$[rsp], 4
	je	SHORT $LN160@PushInvoke
	cmp	DWORD PTR pushsize$[rsp], 4
	jne	$LN159@PushInvoke
$LN160@PushInvoke:

; 1771 :                         if (( ModuleInfo.curr_cpu & P_CPU_MASK ) >= P_386 && asize == psize ) {

	mov	eax, DWORD PTR ModuleInfo+392
	and	eax, 240				; 000000f0H
	cmp	eax, 48					; 00000030H
	jl	SHORT $LN161@PushInvoke
	mov	eax, DWORD PTR psize$[rsp]
	cmp	DWORD PTR asize$[rsp], eax
	jne	SHORT $LN161@PushInvoke

; 1772 :                             if ( asize == 2 )

	cmp	DWORD PTR asize$[rsp], 2
	jne	SHORT $LN163@PushInvoke

; 1773 :                                 reg = reg - T_AX + T_EAX;

	mov	eax, DWORD PTR reg$1[rsp]
	add	eax, 8
	mov	DWORD PTR reg$1[rsp], eax
	jmp	SHORT $LN164@PushInvoke
$LN163@PushInvoke:

; 1774 :                             else {
; 1775 :                                 /* v2.11: hibyte registers AH, BH, CH, DH ( no 4-7 ) needs special handling */
; 1776 :                                 if ( reg < T_AH )

	cmp	DWORD PTR reg$1[rsp], 5
	jge	SHORT $LN165@PushInvoke

; 1777 :                                     reg = reg - T_AL + T_EAX;

	mov	eax, DWORD PTR reg$1[rsp]
	add	eax, 16
	mov	DWORD PTR reg$1[rsp], eax
	jmp	SHORT $LN166@PushInvoke
$LN165@PushInvoke:

; 1778 :                                 else {
; 1779 :                                     AddLineQueueX( " mov %r, %s", T_AL, fullparam );

	lea	r8, QWORD PTR fullparam$[rsp]
	mov	edx, 1
	lea	rcx, OFFSET FLAT:$SG12085
	call	AddLineQueueX

; 1780 :                                     *r0flags |= R0_USED;

	mov	rax, QWORD PTR r0flags$[rsp]
	movzx	eax, BYTE PTR [rax]
	or	eax, 1
	mov	rcx, QWORD PTR r0flags$[rsp]
	mov	BYTE PTR [rcx], al

; 1781 :                                     reg = T_EAX;

	mov	DWORD PTR reg$1[rsp], 17
$LN166@PushInvoke:

; 1782 :                                 }
; 1783 :                                 asize = 2; /* done */

	mov	DWORD PTR asize$[rsp], 2
$LN164@PushInvoke:

; 1784 :                             }

	jmp	$LN162@PushInvoke
$LN161@PushInvoke:

; 1785 :                         } else if ( IS_SIGNED( opnd.mem_type ) && pushsize < 4 ) {

	mov	eax, DWORD PTR opnd$[rsp+64]
	and	eax, 192				; 000000c0H
	cmp	eax, 64					; 00000040H
	jne	$LN167@PushInvoke
	cmp	DWORD PTR pushsize$[rsp], 4
	jge	$LN167@PushInvoke

; 1786 : 
; 1787 :                             /* psize is 4 in this branch */
; 1788 :                             if ( ( ModuleInfo.curr_cpu & P_CPU_MASK ) >= P_386 ) {

	mov	eax, DWORD PTR ModuleInfo+392
	and	eax, 240				; 000000f0H
	cmp	eax, 48					; 00000030H
	jl	SHORT $LN169@PushInvoke

; 1789 :                                 AddLineQueueX( " movsx %r, %s", T_EAX, fullparam );

	lea	r8, QWORD PTR fullparam$[rsp]
	mov	edx, 17
	lea	rcx, OFFSET FLAT:$SG12090
	call	AddLineQueueX

; 1790 :                                 *r0flags = R0_USED;

	mov	rax, QWORD PTR r0flags$[rsp]
	mov	BYTE PTR [rax], 1

; 1791 :                                 reg = T_EAX;

	mov	DWORD PTR reg$1[rsp], 17

; 1792 :                             } else {

	jmp	$LN170@PushInvoke
$LN169@PushInvoke:

; 1793 :                                 *r0flags = R0_USED | R2_USED;

	mov	rax, QWORD PTR r0flags$[rsp]
	mov	BYTE PTR [rax], 9

; 1794 :                                 if ( asize == 1 ) {

	cmp	DWORD PTR asize$[rsp], 1
	jne	SHORT $LN171@PushInvoke

; 1795 :                                     if ( reg != T_AL )

	cmp	DWORD PTR reg$1[rsp], 1
	je	SHORT $LN173@PushInvoke

; 1796 :                                         AddLineQueueX( " mov %r, %s", T_AL, fullparam );

	lea	r8, QWORD PTR fullparam$[rsp]
	mov	edx, 1
	lea	rcx, OFFSET FLAT:$SG12094
	call	AddLineQueueX
$LN173@PushInvoke:

; 1797 :                                     AddLineQueue( " cbw" );

	lea	rcx, OFFSET FLAT:$SG12095
	call	AddLineQueue
	jmp	SHORT $LN172@PushInvoke
$LN171@PushInvoke:

; 1798 :                                 } else if ( reg != T_AX )

	cmp	DWORD PTR reg$1[rsp], 9
	je	SHORT $LN174@PushInvoke

; 1799 :                                     AddLineQueueX( " mov %r, %s", T_AX, fullparam );

	lea	r8, QWORD PTR fullparam$[rsp]
	mov	edx, 9
	lea	rcx, OFFSET FLAT:$SG12097
	call	AddLineQueueX
$LN174@PushInvoke:
$LN172@PushInvoke:

; 1800 :                                 AddLineQueue( " cwd" );

	lea	rcx, OFFSET FLAT:$SG12098
	call	AddLineQueue

; 1801 :                                 AddLineQueueX( " push %r", T_DX );

	mov	edx, 11
	lea	rcx, OFFSET FLAT:$SG12099
	call	AddLineQueueX

; 1802 :                                 reg = T_AX;

	mov	DWORD PTR reg$1[rsp], 9
$LN170@PushInvoke:

; 1803 :                             }
; 1804 :                             asize = 2; /* done */

	mov	DWORD PTR asize$[rsp], 2
	jmp	$LN168@PushInvoke
$LN167@PushInvoke:

; 1805 : 
; 1806 :                         } else if ( ( ModuleInfo.curr_cpu & P_CPU_MASK ) >= P_186 ) {

	mov	eax, DWORD PTR ModuleInfo+392
	and	eax, 240				; 000000f0H
	cmp	eax, 16
	jl	$LN175@PushInvoke

; 1807 : 
; 1808 :                             if ( pushsize == 4 ) {

	cmp	DWORD PTR pushsize$[rsp], 4
	jne	SHORT $LN177@PushInvoke

; 1809 :                                 if ( asize == 1 ) {

	cmp	DWORD PTR asize$[rsp], 1
	jne	SHORT $LN179@PushInvoke
	jmp	SHORT $LN180@PushInvoke
$LN179@PushInvoke:

; 1810 :                                     /* handled below */
; 1811 :                                 } else if ( psize <= 2 ) {

	cmp	DWORD PTR psize$[rsp], 2
	jg	SHORT $LN181@PushInvoke

; 1812 : #if AMD64_SUPPORT
; 1813 :                                     AddLineQueueX( " sub %r, 2", stackreg[ModuleInfo.Ofssize] );

	movzx	eax, BYTE PTR ModuleInfo+404
	lea	rcx, OFFSET FLAT:stackreg
	mov	edx, DWORD PTR [rcx+rax*4]
	lea	rcx, OFFSET FLAT:$SG12108
	call	AddLineQueueX
	jmp	SHORT $LN182@PushInvoke
$LN181@PushInvoke:

; 1814 : #else
; 1815 :                                     AddLineQueueX( " sub %r, 2", T_ESP );
; 1816 : #endif
; 1817 :                                 } else if ( IS_SIGNED( opnd.mem_type ) ) {

	mov	eax, DWORD PTR opnd$[rsp+64]
	and	eax, 192				; 000000c0H
	cmp	eax, 64					; 00000040H
	jne	SHORT $LN183@PushInvoke

; 1818 :                                     AddLineQueueX( " movsx %r, %s", T_EAX, fullparam );

	lea	r8, QWORD PTR fullparam$[rsp]
	mov	edx, 17
	lea	rcx, OFFSET FLAT:$SG12111
	call	AddLineQueueX

; 1819 :                                     *r0flags = R0_USED;

	mov	rax, QWORD PTR r0flags$[rsp]
	mov	BYTE PTR [rax], 1

; 1820 :                                     reg = T_EAX;

	mov	DWORD PTR reg$1[rsp], 17

; 1821 :                                 } else {

	jmp	SHORT $LN184@PushInvoke
$LN183@PushInvoke:

; 1822 :                                     AddLineQueue( " pushw 0" );

	lea	rcx, OFFSET FLAT:$SG12112
	call	AddLineQueue
$LN184@PushInvoke:
$LN182@PushInvoke:
$LN180@PushInvoke:

; 1823 :                                 }
; 1824 :                             } else

	jmp	SHORT $LN178@PushInvoke
$LN177@PushInvoke:

; 1825 :                                 AddLineQueue( " pushw 0" );

	lea	rcx, OFFSET FLAT:$SG12113
	call	AddLineQueue
$LN178@PushInvoke:

; 1826 : 
; 1827 :                         } else {

	jmp	SHORT $LN176@PushInvoke
$LN175@PushInvoke:

; 1828 : 
; 1829 :                             if ( !(*r0flags & R0_X_CLEARED) ) {

	mov	rax, QWORD PTR r0flags$[rsp]
	movzx	eax, BYTE PTR [rax]
	and	eax, 4
	test	eax, eax
	jne	SHORT $LN185@PushInvoke

; 1830 :                                 /* v2.11: extra check needed */
; 1831 :                                 if ( reg == T_AH || ( optype & OP_A ) )

	cmp	DWORD PTR reg$1[rsp], 5
	je	SHORT $LN187@PushInvoke
	mov	eax, DWORD PTR optype$6[rsp]
	and	eax, 512				; 00000200H
	test	eax, eax
	je	SHORT $LN186@PushInvoke
$LN187@PushInvoke:

; 1832 :                                     EmitErr( REGISTER_VALUE_OVERWRITTEN_BY_INVOKE );

	mov	ecx, 165				; 000000a5H
	call	EmitErr
$LN186@PushInvoke:

; 1833 :                                 AddLineQueueX( " xor %r, %r", T_AX, T_AX );

	mov	r8d, 9
	mov	edx, 9
	lea	rcx, OFFSET FLAT:$SG12117
	call	AddLineQueueX
$LN185@PushInvoke:

; 1834 :                             }
; 1835 :                             AddLineQueueX( " push %r", T_AX );

	mov	edx, 9
	lea	rcx, OFFSET FLAT:$SG12118
	call	AddLineQueueX

; 1836 :                             *r0flags = R0_USED | R0_H_CLEARED | R0_X_CLEARED;

	mov	rax, QWORD PTR r0flags$[rsp]
	mov	BYTE PTR [rax], 7
$LN176@PushInvoke:
$LN168@PushInvoke:
$LN162@PushInvoke:
$LN159@PushInvoke:

; 1837 :                         }
; 1838 :                     }
; 1839 : 
; 1840 :                     if ( asize == 1 ) {

	cmp	DWORD PTR asize$[rsp], 1
	jne	$LN188@PushInvoke

; 1841 :                         if ( ( reg >= T_AH && reg <= T_BH ) || psize != 1 ) {

	cmp	DWORD PTR reg$1[rsp], 5
	jl	SHORT $LN192@PushInvoke
	cmp	DWORD PTR reg$1[rsp], 8
	jle	SHORT $LN191@PushInvoke
$LN192@PushInvoke:
	cmp	DWORD PTR psize$[rsp], 1
	je	$LN189@PushInvoke
$LN191@PushInvoke:

; 1842 :                             if ( psize != 1 && ( ModuleInfo.curr_cpu & P_CPU_MASK ) >= P_386 ) {

	cmp	DWORD PTR psize$[rsp], 1
	je	$LN193@PushInvoke
	mov	eax, DWORD PTR ModuleInfo+392
	and	eax, 240				; 000000f0H
	cmp	eax, 48					; 00000030H
	jl	$LN193@PushInvoke

; 1843 :                                 /* v2.10: consider signed type coercion! */
; 1844 :                                 AddLineQueueX( " mov%sx %r, %s", IS_SIGNED( opnd.mem_type ) ? "s" : "z",

	mov	eax, DWORD PTR opnd$[rsp+64]
	and	eax, 192				; 000000c0H
	cmp	eax, 64					; 00000040H
	jne	SHORT $LN269@PushInvoke
	lea	rax, OFFSET FLAT:$SG12126
	mov	QWORD PTR tv1112[rsp], rax
	jmp	SHORT $LN270@PushInvoke
$LN269@PushInvoke:
	lea	rax, OFFSET FLAT:$SG12127
	mov	QWORD PTR tv1112[rsp], rax
$LN270@PushInvoke:
	movzx	eax, BYTE PTR ModuleInfo+404
	lea	rcx, OFFSET FLAT:regax
	lea	r9, QWORD PTR fullparam$[rsp]
	mov	r8d, DWORD PTR [rcx+rax*4]
	mov	rdx, QWORD PTR tv1112[rsp]
	lea	rcx, OFFSET FLAT:$SG12128
	call	AddLineQueueX

; 1845 :                                               regax[ModuleInfo.Ofssize], fullparam );
; 1846 :                                 *r0flags =  ( IS_SIGNED( opnd.mem_type ) ? R0_USED : R0_USED | R0_H_CLEARED );

	mov	eax, DWORD PTR opnd$[rsp+64]
	and	eax, 192				; 000000c0H
	cmp	eax, 64					; 00000040H
	jne	SHORT $LN271@PushInvoke
	mov	DWORD PTR tv1117[rsp], 1
	jmp	SHORT $LN272@PushInvoke
$LN271@PushInvoke:
	mov	DWORD PTR tv1117[rsp], 3
$LN272@PushInvoke:
	mov	rax, QWORD PTR r0flags$[rsp]
	movzx	ecx, BYTE PTR tv1117[rsp]
	mov	BYTE PTR [rax], cl

; 1847 :                             } else {

	jmp	$LN194@PushInvoke
$LN193@PushInvoke:

; 1848 :                                 if ( reg != T_AL ) {

	cmp	DWORD PTR reg$1[rsp], 1
	je	SHORT $LN195@PushInvoke

; 1849 :                                     AddLineQueueX( " mov %r, %s", T_AL, fullparam );

	lea	r8, QWORD PTR fullparam$[rsp]
	mov	edx, 1
	lea	rcx, OFFSET FLAT:$SG12130
	call	AddLineQueueX

; 1850 :                                     *r0flags |= R0_USED;

	mov	rax, QWORD PTR r0flags$[rsp]
	movzx	eax, BYTE PTR [rax]
	or	eax, 1
	mov	rcx, QWORD PTR r0flags$[rsp]
	mov	BYTE PTR [rcx], al

; 1851 :                                     *r0flags &= ~R0_X_CLEARED;

	mov	rax, QWORD PTR r0flags$[rsp]
	movzx	eax, BYTE PTR [rax]
	and	eax, -5
	mov	rcx, QWORD PTR r0flags$[rsp]
	mov	BYTE PTR [rcx], al
$LN195@PushInvoke:

; 1852 :                                 }
; 1853 :                                 if ( psize != 1 ) /* v2.11: don't modify AH if paramsize is 1 */

	cmp	DWORD PTR psize$[rsp], 1
	je	SHORT $LN196@PushInvoke

; 1854 :                                     if ( IS_SIGNED( opnd.mem_type ) ) {

	mov	eax, DWORD PTR opnd$[rsp+64]
	and	eax, 192				; 000000c0H
	cmp	eax, 64					; 00000040H
	jne	SHORT $LN197@PushInvoke

; 1855 :                                         AddLineQueue( " cbw" );

	lea	rcx, OFFSET FLAT:$SG12134
	call	AddLineQueue

; 1856 :                                         *r0flags &= ~( R0_H_CLEARED | R0_X_CLEARED );

	mov	rax, QWORD PTR r0flags$[rsp]
	movzx	eax, BYTE PTR [rax]
	and	eax, -7
	mov	rcx, QWORD PTR r0flags$[rsp]
	mov	BYTE PTR [rcx], al
	jmp	SHORT $LN198@PushInvoke
$LN197@PushInvoke:

; 1857 :                                     } else if (!( *r0flags & R0_H_CLEARED )) {

	mov	rax, QWORD PTR r0flags$[rsp]
	movzx	eax, BYTE PTR [rax]
	and	eax, 2
	test	eax, eax
	jne	SHORT $LN199@PushInvoke

; 1858 :                                         AddLineQueueX( " mov %r, 0", T_AH );

	mov	edx, 5
	lea	rcx, OFFSET FLAT:$SG12136
	call	AddLineQueueX

; 1859 :                                         *r0flags |= R0_H_CLEARED;

	mov	rax, QWORD PTR r0flags$[rsp]
	movzx	eax, BYTE PTR [rax]
	or	eax, 2
	mov	rcx, QWORD PTR r0flags$[rsp]
	mov	BYTE PTR [rcx], al
$LN199@PushInvoke:
$LN198@PushInvoke:
$LN196@PushInvoke:
$LN194@PushInvoke:

; 1860 :                                     }
; 1861 :                             }
; 1862 :                             reg = regax[ModuleInfo.Ofssize];

	movzx	eax, BYTE PTR ModuleInfo+404
	lea	rcx, OFFSET FLAT:regax
	mov	eax, DWORD PTR [rcx+rax*4]
	mov	DWORD PTR reg$1[rsp], eax

; 1863 :                         } else {

	jmp	SHORT $LN190@PushInvoke
$LN189@PushInvoke:

; 1864 :                             /* convert 8-bit to 16/32-bit register name */
; 1865 :                             if ( (( ModuleInfo.curr_cpu & P_CPU_MASK ) >= P_386) &&

	mov	eax, DWORD PTR ModuleInfo+392
	and	eax, 240				; 000000f0H
	cmp	eax, 48					; 00000030H
	jl	SHORT $LN200@PushInvoke
	cmp	DWORD PTR psize$[rsp], 4
	je	SHORT $LN202@PushInvoke
	cmp	DWORD PTR pushsize$[rsp], 4
	jne	SHORT $LN200@PushInvoke
$LN202@PushInvoke:

; 1866 :                                 ( psize == 4 || pushsize == 4 ) ) {
; 1867 :                                 reg = reg - T_AL + T_EAX;

	mov	eax, DWORD PTR reg$1[rsp]
	add	eax, 16
	mov	DWORD PTR reg$1[rsp], eax

; 1868 :                             } else

	jmp	SHORT $LN201@PushInvoke
$LN200@PushInvoke:

; 1869 :                                 reg = reg - T_AL + T_AX;

	mov	eax, DWORD PTR reg$1[rsp]
	add	eax, 8
	mov	DWORD PTR reg$1[rsp], eax
$LN201@PushInvoke:
$LN190@PushInvoke:
$LN188@PushInvoke:
$LN156@PushInvoke:

; 1870 :                         }
; 1871 :                     }
; 1872 : #if 0
; 1873 :                     if ( is_r0 && ( *r0flags & R0_USED ) ) {
; 1874 :                         EmitErr( REGISTER_VALUE_OVERWRITTEN_BY_INVOKE );
; 1875 :                         *r0flags = 0;
; 1876 :                     }
; 1877 : #endif
; 1878 :                 }
; 1879 :                 AddLineQueueX( " push %r", reg );

	mov	edx, DWORD PTR reg$1[rsp]
	lea	rcx, OFFSET FLAT:$SG12140
	call	AddLineQueueX

; 1880 :                 /* v2.05: don't change psize if > pushsize */
; 1881 :                 if ( psize < pushsize )

	mov	eax, DWORD PTR pushsize$[rsp]
	cmp	DWORD PTR psize$[rsp], eax
	jge	SHORT $LN203@PushInvoke

; 1882 :                     /* v2.04: adjust psize ( for siz_vararg update ) */
; 1883 :                     psize = pushsize;

	mov	eax, DWORD PTR pushsize$[rsp]
	mov	DWORD PTR psize$[rsp], eax
$LN203@PushInvoke:

; 1884 : 
; 1885 :             } else { /* constant value */

	jmp	$LN148@PushInvoke
$LN147@PushInvoke:

; 1886 : 
; 1887 :                 /* v2.06: size check */
; 1888 :                 if ( psize ) {

	cmp	DWORD PTR psize$[rsp], 0
	je	$LN204@PushInvoke

; 1889 :                     if ( opnd.kind == EXPR_FLOAT )

	cmp	DWORD PTR opnd$[rsp+60], 3
	jne	SHORT $LN205@PushInvoke

; 1890 :                         asize = 4;

	mov	DWORD PTR asize$[rsp], 4
	jmp	$LN206@PushInvoke
$LN205@PushInvoke:

; 1891 :                     else if ( opnd.value64 <= 255 && opnd.value64 >= -255 )

	cmp	QWORD PTR opnd$[rsp], 255		; 000000ffH
	jg	SHORT $LN207@PushInvoke
	cmp	QWORD PTR opnd$[rsp], -255		; ffffffffffffff01H
	jl	SHORT $LN207@PushInvoke

; 1892 :                         asize = 1;

	mov	DWORD PTR asize$[rsp], 1
	jmp	SHORT $LN208@PushInvoke
$LN207@PushInvoke:

; 1893 :                     else if ( opnd.value64 <= 65535 && opnd.value64 >= -65535 )

	cmp	QWORD PTR opnd$[rsp], 65535		; 0000ffffH
	jg	SHORT $LN209@PushInvoke
	cmp	QWORD PTR opnd$[rsp], -65535		; ffffffffffff0001H
	jl	SHORT $LN209@PushInvoke

; 1894 :                         asize = 2;

	mov	DWORD PTR asize$[rsp], 2
	jmp	SHORT $LN210@PushInvoke
$LN209@PushInvoke:

; 1895 :                     else if ( opnd.value64 <= maxintvalues[0] && opnd.value64 >= minintvalues[0] )

	mov	eax, 8
	imul	rax, rax, 0
	lea	rcx, OFFSET FLAT:maxintvalues
	mov	rax, QWORD PTR [rcx+rax]
	cmp	QWORD PTR opnd$[rsp], rax
	jg	SHORT $LN211@PushInvoke
	mov	eax, 8
	imul	rax, rax, 0
	lea	rcx, OFFSET FLAT:minintvalues
	mov	rax, QWORD PTR [rcx+rax]
	cmp	QWORD PTR opnd$[rsp], rax
	jl	SHORT $LN211@PushInvoke

; 1896 :                         asize = 4;

	mov	DWORD PTR asize$[rsp], 4
	jmp	SHORT $LN212@PushInvoke
$LN211@PushInvoke:

; 1897 :                     else
; 1898 :                         asize = 8;

	mov	DWORD PTR asize$[rsp], 8
$LN212@PushInvoke:
$LN210@PushInvoke:
$LN208@PushInvoke:
$LN206@PushInvoke:

; 1899 :                     if ( psize < asize )

	mov	eax, DWORD PTR asize$[rsp]
	cmp	DWORD PTR psize$[rsp], eax
	jge	SHORT $LN213@PushInvoke

; 1900 :                         EmitErr( INVOKE_ARGUMENT_TYPE_MISMATCH, reqParam+1 );

	mov	eax, DWORD PTR reqParam$[rsp]
	inc	eax
	mov	edx, eax
	mov	ecx, 145				; 00000091H
	call	EmitErr
$LN213@PushInvoke:
$LN204@PushInvoke:

; 1901 :                 }
; 1902 : 
; 1903 :                 /* v2.11: don't use CurrWordSize */
; 1904 :                 //asize = CurrWordSize;
; 1905 :                 asize = 2 << Ofssize;

	movsx	eax, BYTE PTR Ofssize$[rsp]
	mov	ecx, 2
	mov	DWORD PTR tv1710[rsp], ecx
	movzx	ecx, al
	mov	eax, DWORD PTR tv1710[rsp]
	shl	eax, cl
	mov	DWORD PTR asize$[rsp], eax

; 1906 : 
; 1907 :                 if ( psize < asize )  /* ensure that the default argsize (2,4,8) is met */

	mov	eax, DWORD PTR asize$[rsp]
	cmp	DWORD PTR psize$[rsp], eax
	jge	SHORT $LN214@PushInvoke

; 1908 :                     if ( psize == 0 && curr->sym.is_vararg ) {

	cmp	DWORD PTR psize$[rsp], 0
	jne	SHORT $LN215@PushInvoke
	mov	rax, QWORD PTR curr$[rsp]
	movzx	eax, BYTE PTR [rax+47]
	shr	al, 5
	and	al, 1
	movzx	eax, al
	test	eax, eax
	je	SHORT $LN215@PushInvoke

; 1909 :                         /* v2.04: push a dword constant in 16-bit */
; 1910 :                         if ( asize == 2 &&

	cmp	DWORD PTR asize$[rsp], 2
	jne	SHORT $LN217@PushInvoke
	cmp	DWORD PTR opnd$[rsp], 65535		; 0000ffffH
	jg	SHORT $LN219@PushInvoke
	cmp	DWORD PTR opnd$[rsp], -65535		; ffffffffffff0001H
	jge	SHORT $LN217@PushInvoke
$LN219@PushInvoke:

; 1911 :                             ( opnd.value > 0xFFFFL || opnd.value < -65535L ) )
; 1912 :                             psize = 4;

	mov	DWORD PTR psize$[rsp], 4
	jmp	SHORT $LN218@PushInvoke
$LN217@PushInvoke:

; 1913 :                         else
; 1914 :                             psize = asize;

	mov	eax, DWORD PTR asize$[rsp]
	mov	DWORD PTR psize$[rsp], eax
$LN218@PushInvoke:

; 1915 :                     } else

	jmp	SHORT $LN216@PushInvoke
$LN215@PushInvoke:

; 1916 :                         psize = asize;

	mov	eax, DWORD PTR asize$[rsp]
	mov	DWORD PTR psize$[rsp], eax
$LN216@PushInvoke:
$LN214@PushInvoke:

; 1917 : 
; 1918 :                 if ( ( ModuleInfo.curr_cpu & P_CPU_MASK ) < P_186 ) {

	mov	eax, DWORD PTR ModuleInfo+392
	and	eax, 240				; 000000f0H
	cmp	eax, 16
	jge	$LN220@PushInvoke

; 1919 :                     *r0flags |= R0_USED;

	mov	rax, QWORD PTR r0flags$[rsp]
	movzx	eax, BYTE PTR [rax]
	or	eax, 1
	mov	rcx, QWORD PTR r0flags$[rsp]
	mov	BYTE PTR [rcx], al

; 1920 :                     switch ( psize ) {

	mov	eax, DWORD PTR psize$[rsp]
	mov	DWORD PTR tv1191[rsp], eax
	cmp	DWORD PTR tv1191[rsp], 2
	je	SHORT $LN222@PushInvoke
	cmp	DWORD PTR tv1191[rsp], 4
	je	SHORT $LN227@PushInvoke
	jmp	$LN233@PushInvoke
$LN222@PushInvoke:

; 1921 :                     case 2:
; 1922 :                         if ( opnd.value != 0 || opnd.kind == EXPR_ADDR ) {

	cmp	DWORD PTR opnd$[rsp], 0
	jne	SHORT $LN225@PushInvoke
	cmp	DWORD PTR opnd$[rsp+60], 1
	jne	SHORT $LN223@PushInvoke
$LN225@PushInvoke:

; 1923 :                             AddLineQueueX( " mov %r, %s", T_AX, fullparam );

	lea	r8, QWORD PTR fullparam$[rsp]
	mov	edx, 9
	lea	rcx, OFFSET FLAT:$SG12164
	call	AddLineQueueX

; 1924 :                         } else {

	jmp	SHORT $LN224@PushInvoke
$LN223@PushInvoke:

; 1925 :                             if ( !(*r0flags & R0_X_CLEARED ) ) {

	mov	rax, QWORD PTR r0flags$[rsp]
	movzx	eax, BYTE PTR [rax]
	and	eax, 4
	test	eax, eax
	jne	SHORT $LN226@PushInvoke

; 1926 :                                 AddLineQueueX( " xor %r, %r", T_AX, T_AX );

	mov	r8d, 9
	mov	edx, 9
	lea	rcx, OFFSET FLAT:$SG12166
	call	AddLineQueueX
$LN226@PushInvoke:

; 1927 :                             }
; 1928 :                             *r0flags |= R0_H_CLEARED | R0_X_CLEARED;

	mov	rax, QWORD PTR r0flags$[rsp]
	movzx	eax, BYTE PTR [rax]
	or	eax, 6
	mov	rcx, QWORD PTR r0flags$[rsp]
	mov	BYTE PTR [rcx], al
$LN224@PushInvoke:

; 1929 :                         }
; 1930 :                         break;

	jmp	$LN12@PushInvoke
$LN227@PushInvoke:

; 1931 :                     case 4:
; 1932 :                         if ( opnd.uvalue <= 0xFFFF )

	cmp	DWORD PTR opnd$[rsp], 65535		; 0000ffffH
	ja	SHORT $LN228@PushInvoke

; 1933 :                             AddLineQueueX( " xor %r, %r", T_AX, T_AX );

	mov	r8d, 9
	mov	edx, 9
	lea	rcx, OFFSET FLAT:$SG12170
	call	AddLineQueueX
	jmp	SHORT $LN229@PushInvoke
$LN228@PushInvoke:

; 1934 :                         else
; 1935 :                             AddLineQueueX( " mov %r, %r (%s)", T_AX, T_HIGHWORD, fullparam );

	lea	r9, QWORD PTR fullparam$[rsp]
	mov	r8d, 232				; 000000e8H
	mov	edx, 9
	lea	rcx, OFFSET FLAT:$SG12171
	call	AddLineQueueX
$LN229@PushInvoke:

; 1936 :                         AddLineQueueX( " push %r", T_AX );

	mov	edx, 9
	lea	rcx, OFFSET FLAT:$SG12172
	call	AddLineQueueX

; 1937 :                         if ( opnd.uvalue != 0 || opnd.kind == EXPR_ADDR ) {

	cmp	DWORD PTR opnd$[rsp], 0
	jne	SHORT $LN232@PushInvoke
	cmp	DWORD PTR opnd$[rsp+60], 1
	jne	SHORT $LN230@PushInvoke
$LN232@PushInvoke:

; 1938 :                             AddLineQueueX( " mov %r, %r (%s)", T_AX, T_LOWWORD, fullparam );

	lea	r9, QWORD PTR fullparam$[rsp]
	mov	r8d, 238				; 000000eeH
	mov	edx, 9
	lea	rcx, OFFSET FLAT:$SG12176
	call	AddLineQueueX

; 1939 :                         } else {

	jmp	SHORT $LN231@PushInvoke
$LN230@PushInvoke:

; 1940 :                             *r0flags |= R0_H_CLEARED | R0_X_CLEARED;

	mov	rax, QWORD PTR r0flags$[rsp]
	movzx	eax, BYTE PTR [rax]
	or	eax, 6
	mov	rcx, QWORD PTR r0flags$[rsp]
	mov	BYTE PTR [rcx], al
$LN231@PushInvoke:

; 1941 :                         }
; 1942 :                         break;

	jmp	SHORT $LN12@PushInvoke
$LN233@PushInvoke:

; 1943 :                     default:
; 1944 :                         DebugMsg1(("PushInvokeParm(%u): error, CONST, asize=%u, psize=%u, pushsize=%u\n",

	mov	eax, DWORD PTR pushsize$[rsp]
	mov	DWORD PTR [rsp+32], eax
	mov	r9d, DWORD PTR psize$[rsp]
	mov	r8d, DWORD PTR asize$[rsp]
	mov	edx, DWORD PTR reqParam$[rsp]
	lea	rcx, OFFSET FLAT:$SG12178
	call	DoDebugMsg1

; 1945 :                                   reqParam, asize, psize, pushsize ));
; 1946 :                         EmitErr( INVOKE_ARGUMENT_TYPE_MISMATCH, reqParam+1 );

	mov	eax, DWORD PTR reqParam$[rsp]
	inc	eax
	mov	edx, eax
	mov	ecx, 145				; 00000091H
	call	EmitErr
$LN12@PushInvoke:

; 1947 :                     }
; 1948 :                     AddLineQueueX( " push %r", T_AX );

	mov	edx, 9
	lea	rcx, OFFSET FLAT:$SG12179
	call	AddLineQueueX

; 1949 :                 } else { /* cpu >= 80186 */

	jmp	$LN221@PushInvoke
$LN220@PushInvoke:

; 1950 :                     char *instr = "";

	lea	rax, OFFSET FLAT:$SG12180
	mov	QWORD PTR instr$7[rsp], rax

; 1951 :                     char *suffix;
; 1952 :                     int qual = EMPTY;

	mov	DWORD PTR qual$5[rsp], -2

; 1953 :                     //if ( asize != psize ) {
; 1954 :                     if ( psize != pushsize ) {

	mov	eax, DWORD PTR pushsize$[rsp]
	cmp	DWORD PTR psize$[rsp], eax
	je	$LN234@PushInvoke

; 1955 :                         switch ( psize ) {

	mov	eax, DWORD PTR psize$[rsp]
	mov	DWORD PTR tv1238[rsp], eax
	cmp	DWORD PTR tv1238[rsp], 2
	je	SHORT $LN235@PushInvoke
	cmp	DWORD PTR tv1238[rsp], 4
	je	$LN241@PushInvoke
	cmp	DWORD PTR tv1238[rsp], 6
	je	SHORT $LN236@PushInvoke
	cmp	DWORD PTR tv1238[rsp], 8
	je	$LN244@PushInvoke
	jmp	$LN248@PushInvoke
$LN235@PushInvoke:

; 1956 :                         case 2:
; 1957 :                             instr = "w";

	lea	rax, OFFSET FLAT:$SG12183
	mov	QWORD PTR instr$7[rsp], rax

; 1958 :                             break;

	jmp	$LN14@PushInvoke
$LN236@PushInvoke:

; 1959 :                         case 6: /* v2.04: added */
; 1960 :                             /* v2.11: use pushw only for 16-bit target */
; 1961 :                             if ( Ofssize == USE16 )

	movsx	eax, BYTE PTR Ofssize$[rsp]
	test	eax, eax
	jne	SHORT $LN237@PushInvoke

; 1962 :                                 suffix = "w";

	lea	rax, OFFSET FLAT:$SG12187
	mov	QWORD PTR suffix$8[rsp], rax
	jmp	SHORT $LN238@PushInvoke
$LN237@PushInvoke:

; 1963 :                             else if ( Ofssize == USE32 && CurrWordSize == 2 )

	movsx	eax, BYTE PTR Ofssize$[rsp]
	cmp	eax, 1
	jne	SHORT $LN239@PushInvoke
	movzx	eax, BYTE PTR ModuleInfo+406
	cmp	eax, 2
	jne	SHORT $LN239@PushInvoke

; 1964 :                                 suffix = "d";

	lea	rax, OFFSET FLAT:$SG12190
	mov	QWORD PTR suffix$8[rsp], rax
	jmp	SHORT $LN240@PushInvoke
$LN239@PushInvoke:

; 1965 :                             else
; 1966 :                                 suffix = "";

	lea	rax, OFFSET FLAT:$SG12191
	mov	QWORD PTR suffix$8[rsp], rax
$LN240@PushInvoke:
$LN238@PushInvoke:

; 1967 :                             AddLineQueueX( " push%s (%s) shr 32t", suffix, fullparam );

	lea	r8, QWORD PTR fullparam$[rsp]
	mov	rdx, QWORD PTR suffix$8[rsp]
	lea	rcx, OFFSET FLAT:$SG12192
	call	AddLineQueueX
$LN241@PushInvoke:

; 1968 :                             /* no break */
; 1969 :                         case 4:
; 1970 :                             if (( ModuleInfo.curr_cpu & P_CPU_MASK ) >= P_386 )

	mov	eax, DWORD PTR ModuleInfo+392
	and	eax, 240				; 000000f0H
	cmp	eax, 48					; 00000030H
	jl	SHORT $LN242@PushInvoke

; 1971 :                                 instr = "d";

	lea	rax, OFFSET FLAT:$SG12196
	mov	QWORD PTR instr$7[rsp], rax
	jmp	SHORT $LN243@PushInvoke
$LN242@PushInvoke:

; 1972 :                             else {
; 1973 :                                 AddLineQueueX( " pushw %r (%s)", T_HIGHWORD, fullparam );

	lea	r8, QWORD PTR fullparam$[rsp]
	mov	edx, 232				; 000000e8H
	lea	rcx, OFFSET FLAT:$SG12197
	call	AddLineQueueX

; 1974 :                                 instr = "w";

	lea	rax, OFFSET FLAT:$SG12198
	mov	QWORD PTR instr$7[rsp], rax

; 1975 :                                 qual = T_LOWWORD;

	mov	DWORD PTR qual$5[rsp], 238		; 000000eeH
$LN243@PushInvoke:

; 1976 :                             }
; 1977 :                             break;

	jmp	$LN14@PushInvoke
$LN244@PushInvoke:

; 1978 :                         case 8:
; 1979 : #if AMD64_SUPPORT
; 1980 :                             if (( ModuleInfo.curr_cpu & P_CPU_MASK ) >= P_64 )

	mov	eax, DWORD PTR ModuleInfo+392
	and	eax, 240				; 000000f0H
	cmp	eax, 112				; 00000070H
	jl	SHORT $LN245@PushInvoke

; 1981 :                                 break;

	jmp	$LN14@PushInvoke
$LN245@PushInvoke:

; 1982 : #endif
; 1983 :                             /* v2.06: added support for double constants */
; 1984 :                             if ( opnd.kind == EXPR_CONST || opnd.kind == EXPR_FLOAT ) {

	cmp	DWORD PTR opnd$[rsp+60], 0
	je	SHORT $LN247@PushInvoke
	cmp	DWORD PTR opnd$[rsp+60], 3
	jne	SHORT $LN246@PushInvoke
$LN247@PushInvoke:

; 1985 :                                 AddLineQueueX( " pushd %r (%s)", T_HIGH32, fullparam );

	lea	r8, QWORD PTR fullparam$[rsp]
	mov	edx, 231				; 000000e7H
	lea	rcx, OFFSET FLAT:$SG12203
	call	AddLineQueueX

; 1986 :                                 qual = T_LOW32;

	mov	DWORD PTR qual$5[rsp], 237		; 000000edH

; 1987 :                                 instr = "d";

	lea	rax, OFFSET FLAT:$SG12204
	mov	QWORD PTR instr$7[rsp], rax

; 1988 :                                 break;

	jmp	SHORT $LN14@PushInvoke
$LN246@PushInvoke:
$LN248@PushInvoke:

; 1989 :                             }
; 1990 :                         default:
; 1991 :                             DebugMsg1(("PushInvokeParm(%u): error, CONST, asize=%u, psize=%u, pushsize=%u\n",

	mov	eax, DWORD PTR pushsize$[rsp]
	mov	DWORD PTR [rsp+32], eax
	mov	r9d, DWORD PTR psize$[rsp]
	mov	r8d, DWORD PTR asize$[rsp]
	mov	edx, DWORD PTR reqParam$[rsp]
	lea	rcx, OFFSET FLAT:$SG12206
	call	DoDebugMsg1

; 1992 :                                       reqParam, asize, psize, pushsize ));
; 1993 :                             EmitErr( INVOKE_ARGUMENT_TYPE_MISMATCH, reqParam+1 );

	mov	eax, DWORD PTR reqParam$[rsp]
	inc	eax
	mov	edx, eax
	mov	ecx, 145				; 00000091H
	call	EmitErr
$LN14@PushInvoke:
$LN234@PushInvoke:

; 1994 :                         }
; 1995 :                     }
; 1996 :                     if ( qual != EMPTY )

	cmp	DWORD PTR qual$5[rsp], -2
	je	SHORT $LN249@PushInvoke

; 1997 :                         AddLineQueueX( " push%s %r (%s)", instr, qual, fullparam );

	lea	r9, QWORD PTR fullparam$[rsp]
	mov	r8d, DWORD PTR qual$5[rsp]
	mov	rdx, QWORD PTR instr$7[rsp]
	lea	rcx, OFFSET FLAT:$SG12209
	call	AddLineQueueX
	jmp	SHORT $LN250@PushInvoke
$LN249@PushInvoke:

; 1998 :                     else
; 1999 :                         AddLineQueueX( " push%s %s", instr, fullparam );

	lea	r8, QWORD PTR fullparam$[rsp]
	mov	rdx, QWORD PTR instr$7[rsp]
	lea	rcx, OFFSET FLAT:$SG12210
	call	AddLineQueueX
$LN250@PushInvoke:
$LN221@PushInvoke:
$LN148@PushInvoke:

; 2000 :                 }
; 2001 :             }
; 2002 :             if ( curr->sym.is_vararg ) {

	mov	rax, QWORD PTR curr$[rsp]
	movzx	eax, BYTE PTR [rax+47]
	shr	al, 5
	and	al, 1
	movzx	eax, al
	test	eax, eax
	je	SHORT $LN251@PushInvoke

; 2003 :                 size_vararg += psize;

	mov	eax, DWORD PTR psize$[rsp]
	mov	ecx, DWORD PTR size_vararg
	add	ecx, eax
	mov	eax, ecx
	mov	DWORD PTR size_vararg, eax

; 2004 :                 DebugMsg1(("PushInvokeParm(%u): psize=%u added to size_vararg, now=%u\n", reqParam, psize, size_vararg ));

	mov	r9d, DWORD PTR size_vararg
	mov	r8d, DWORD PTR psize$[rsp]
	mov	edx, DWORD PTR reqParam$[rsp]
	lea	rcx, OFFSET FLAT:$SG12212
	call	DoDebugMsg1
$LN251@PushInvoke:
$LN95@PushInvoke:
$LN21@PushInvoke:

; 2005 :             }
; 2006 :         }
; 2007 :     }
; 2008 :     return( NOT_ERROR );

	xor	eax, eax
$LN1@PushInvoke:
$LN252@PushInvoke:

; 2009 : }

	mov	rcx, QWORD PTR __$ArrayPad$[rsp]
	xor	rcx, rsp
	call	__security_check_cookie
	add	rsp, 2456				; 00000998H
	ret	0
PushInvokeParam ENDP
_TEXT	ENDS
; Function compile flags: /Odtp
; File d:\hjwasm\hjwasm2.13.1s\hjwasm2.13.1s\invoke.c
_TEXT	SEGMENT
j$ = 32
fullparam$ = 64
i$ = 72
tokenarray$ = 80
SkipTypecast PROC

; 1253 : {

	mov	QWORD PTR [rsp+24], r8
	mov	DWORD PTR [rsp+16], edx
	mov	QWORD PTR [rsp+8], rcx
	sub	rsp, 56					; 00000038H

; 1254 :     int j;
; 1255 :     fullparam[0] = NULLC;

	mov	eax, 1
	imul	rax, rax, 0
	mov	rcx, QWORD PTR fullparam$[rsp]
	mov	BYTE PTR [rcx+rax], 0

; 1256 :     for ( j = i; ; j++ ) {

	mov	eax, DWORD PTR i$[rsp]
	mov	DWORD PTR j$[rsp], eax
	jmp	SHORT $LN4@SkipTypeca
$LN2@SkipTypeca:
	mov	eax, DWORD PTR j$[rsp]
	inc	eax
	mov	DWORD PTR j$[rsp], eax
$LN4@SkipTypeca:

; 1257 :         if (( tokenarray[j].token == T_COMMA ) || ( tokenarray[j].token == T_FINAL ) )

	movsxd	rax, DWORD PTR j$[rsp]
	imul	rax, rax, 32				; 00000020H
	mov	rcx, QWORD PTR tokenarray$[rsp]
	movzx	eax, BYTE PTR [rcx+rax]
	cmp	eax, 44					; 0000002cH
	je	SHORT $LN6@SkipTypeca
	movsxd	rax, DWORD PTR j$[rsp]
	imul	rax, rax, 32				; 00000020H
	mov	rcx, QWORD PTR tokenarray$[rsp]
	movzx	eax, BYTE PTR [rcx+rax]
	test	eax, eax
	jne	SHORT $LN5@SkipTypeca
$LN6@SkipTypeca:

; 1258 :             break;

	jmp	$LN3@SkipTypeca
$LN5@SkipTypeca:

; 1259 :         if (( tokenarray[j+1].token == T_BINARY_OPERATOR ) && ( tokenarray[j+1].tokval == T_PTR ) )

	mov	eax, DWORD PTR j$[rsp]
	inc	eax
	cdqe
	imul	rax, rax, 32				; 00000020H
	mov	rcx, QWORD PTR tokenarray$[rsp]
	movzx	eax, BYTE PTR [rcx+rax]
	cmp	eax, 5
	jne	SHORT $LN7@SkipTypeca
	mov	eax, DWORD PTR j$[rsp]
	inc	eax
	cdqe
	imul	rax, rax, 32				; 00000020H
	mov	rcx, QWORD PTR tokenarray$[rsp]
	cmp	DWORD PTR [rcx+rax+16], 258		; 00000102H
	jne	SHORT $LN7@SkipTypeca

; 1260 :             j = j + 1;

	mov	eax, DWORD PTR j$[rsp]
	inc	eax
	mov	DWORD PTR j$[rsp], eax
	jmp	SHORT $LN8@SkipTypeca
$LN7@SkipTypeca:

; 1261 :         else {
; 1262 :             if ( fullparam[0] != NULLC )

	mov	eax, 1
	imul	rax, rax, 0
	mov	rcx, QWORD PTR fullparam$[rsp]
	movsx	eax, BYTE PTR [rcx+rax]
	test	eax, eax
	je	SHORT $LN9@SkipTypeca

; 1263 :                 strcat( fullparam," " );

	lea	rdx, OFFSET FLAT:$SG11810
	mov	rcx, QWORD PTR fullparam$[rsp]
	call	strcat
$LN9@SkipTypeca:

; 1264 :             strcat( fullparam, tokenarray[j].string_ptr );

	movsxd	rax, DWORD PTR j$[rsp]
	imul	rax, rax, 32				; 00000020H
	mov	rcx, QWORD PTR tokenarray$[rsp]
	mov	rdx, QWORD PTR [rcx+rax+8]
	mov	rcx, QWORD PTR fullparam$[rsp]
	call	strcat
$LN8@SkipTypeca:

; 1265 :         }
; 1266 :     }

	jmp	$LN2@SkipTypeca
$LN3@SkipTypeca:

; 1267 : }

	add	rsp, 56					; 00000038H
	ret	0
SkipTypecast ENDP
_TEXT	ENDS
; Function compile flags: /Odtp
; File d:\hjwasm\hjwasm2.13.1s\hjwasm2.13.1s\invoke.c
_TEXT	SEGMENT
reg$ = 48
as$1 = 52
dir$2 = 56
seg$3 = 64
tv71 = 72
tv73 = 80
tv79 = 88
tv85 = 96
tv181 = 104
opnd$ = 128
buffer$ = 136
fullparam$ = 144
GetSegmentPart PROC

; 1081 : {

	mov	QWORD PTR [rsp+24], r8
	mov	QWORD PTR [rsp+16], rdx
	mov	QWORD PTR [rsp+8], rcx
	sub	rsp, 120				; 00000078H

; 1082 :     short reg = T_NULL;

	xor	eax, eax
	mov	WORD PTR reg$[rsp], ax

; 1083 :     DebugMsg1(("GetSegmentPart(%s) enter [override=%s sym=%s segment=%s]\n",

	mov	rax, QWORD PTR opnd$[rsp]
	cmp	QWORD PTR [rax+80], 0
	je	SHORT $LN21@GetSegment
	mov	rax, QWORD PTR opnd$[rsp]
	mov	rax, QWORD PTR [rax+80]
	cmp	QWORD PTR [rax+24], 0
	je	SHORT $LN19@GetSegment
	mov	rax, QWORD PTR opnd$[rsp]
	mov	rax, QWORD PTR [rax+80]
	mov	rax, QWORD PTR [rax+24]
	mov	rax, QWORD PTR [rax+8]
	mov	QWORD PTR tv71[rsp], rax
	jmp	SHORT $LN20@GetSegment
$LN19@GetSegment:
	lea	rax, OFFSET FLAT:$SG11671
	mov	QWORD PTR tv71[rsp], rax
$LN20@GetSegment:
	mov	rax, QWORD PTR tv71[rsp]
	mov	QWORD PTR tv73[rsp], rax
	jmp	SHORT $LN22@GetSegment
$LN21@GetSegment:
	lea	rax, OFFSET FLAT:$SG11672
	mov	QWORD PTR tv73[rsp], rax
$LN22@GetSegment:
	mov	rax, QWORD PTR opnd$[rsp]
	cmp	QWORD PTR [rax+80], 0
	je	SHORT $LN23@GetSegment
	mov	rax, QWORD PTR opnd$[rsp]
	mov	rax, QWORD PTR [rax+80]
	mov	rax, QWORD PTR [rax+8]
	mov	QWORD PTR tv79[rsp], rax
	jmp	SHORT $LN24@GetSegment
$LN23@GetSegment:
	lea	rax, OFFSET FLAT:$SG11673
	mov	QWORD PTR tv79[rsp], rax
$LN24@GetSegment:
	mov	rax, QWORD PTR opnd$[rsp]
	cmp	QWORD PTR [rax+48], 0
	je	SHORT $LN25@GetSegment
	mov	rax, QWORD PTR opnd$[rsp]
	mov	rax, QWORD PTR [rax+48]
	mov	rax, QWORD PTR [rax+8]
	mov	QWORD PTR tv85[rsp], rax
	jmp	SHORT $LN26@GetSegment
$LN25@GetSegment:
	lea	rax, OFFSET FLAT:$SG11674
	mov	QWORD PTR tv85[rsp], rax
$LN26@GetSegment:
	mov	rax, QWORD PTR tv73[rsp]
	mov	QWORD PTR [rsp+32], rax
	mov	r9, QWORD PTR tv79[rsp]
	mov	r8, QWORD PTR tv85[rsp]
	mov	rdx, QWORD PTR fullparam$[rsp]
	lea	rcx, OFFSET FLAT:$SG11675
	call	DoDebugMsg1

; 1084 :                fullparam, opnd->override ? opnd->override->string_ptr : "NULL",
; 1085 :                opnd->sym ? opnd->sym->name : "NULL",
; 1086 :                opnd->sym ? opnd->sym->segment ? opnd->sym->segment->name : "NULL" : "NULL" ));
; 1087 :     if ( opnd->override != NULL ) {

	mov	rax, QWORD PTR opnd$[rsp]
	cmp	QWORD PTR [rax+48], 0
	je	SHORT $LN2@GetSegment

; 1088 :         if ( opnd->override->token == T_REG )

	mov	rax, QWORD PTR opnd$[rsp]
	mov	rax, QWORD PTR [rax+48]
	movzx	eax, BYTE PTR [rax]
	cmp	eax, 2
	jne	SHORT $LN4@GetSegment

; 1089 :             reg = opnd->override->tokval;

	mov	rax, QWORD PTR opnd$[rsp]
	mov	rax, QWORD PTR [rax+48]
	movzx	eax, WORD PTR [rax+16]
	mov	WORD PTR reg$[rsp], ax
	jmp	SHORT $LN5@GetSegment
$LN4@GetSegment:

; 1090 :         else
; 1091 :             strcpy( buffer, opnd->override->string_ptr );

	mov	rax, QWORD PTR opnd$[rsp]
	mov	rax, QWORD PTR [rax+48]
	mov	rdx, QWORD PTR [rax+8]
	mov	rcx, QWORD PTR buffer$[rsp]
	call	strcpy
$LN5@GetSegment:

; 1092 :     } else if ( opnd->sym != NULL && opnd->sym->segment != NULL ) {

	jmp	$LN3@GetSegment
$LN2@GetSegment:
	mov	rax, QWORD PTR opnd$[rsp]
	cmp	QWORD PTR [rax+80], 0
	je	$LN6@GetSegment
	mov	rax, QWORD PTR opnd$[rsp]
	mov	rax, QWORD PTR [rax+80]
	cmp	QWORD PTR [rax+24], 0
	je	$LN6@GetSegment

; 1093 :         struct dsym *dir = GetSegm( opnd->sym );

	mov	rax, QWORD PTR opnd$[rsp]
	mov	rax, QWORD PTR [rax+80]
	mov	rax, QWORD PTR [rax+24]
	mov	QWORD PTR dir$2[rsp], rax

; 1094 :         enum assume_segreg as;
; 1095 :         if ( dir->e.seginfo->segtype == SEGTYPE_DATA ||

	mov	rax, QWORD PTR dir$2[rsp]
	mov	rax, QWORD PTR [rax+96]
	cmp	DWORD PTR [rax+72], 2
	je	SHORT $LN10@GetSegment
	mov	rax, QWORD PTR dir$2[rsp]
	mov	rax, QWORD PTR [rax+96]
	cmp	DWORD PTR [rax+72], 3
	jne	SHORT $LN8@GetSegment
$LN10@GetSegment:

; 1096 :             dir->e.seginfo->segtype == SEGTYPE_BSS )
; 1097 :             as = search_assume( (struct asym *)dir, ASSUME_DS, TRUE );

	mov	r8b, 1
	mov	edx, 3
	mov	rcx, QWORD PTR dir$2[rsp]
	call	search_assume
	mov	DWORD PTR as$1[rsp], eax
	jmp	SHORT $LN9@GetSegment
$LN8@GetSegment:

; 1098 :         else
; 1099 :             as = search_assume( (struct asym *)dir, ASSUME_CS, TRUE );

	mov	r8b, 1
	mov	edx, 1
	mov	rcx, QWORD PTR dir$2[rsp]
	call	search_assume
	mov	DWORD PTR as$1[rsp], eax
$LN9@GetSegment:

; 1100 :         if ( as != ASSUME_NOTHING ) {

	cmp	DWORD PTR as$1[rsp], -2
	je	SHORT $LN11@GetSegment

; 1101 :             //GetResWName( segreg_tab[as], buffer );
; 1102 :             reg = T_ES + as; /* v2.08: T_ES is first seg reg in special.h */

	mov	eax, DWORD PTR as$1[rsp]
	add	eax, 25
	mov	WORD PTR reg$[rsp], ax

; 1103 :         } else {

	jmp	SHORT $LN12@GetSegment
$LN11@GetSegment:

; 1104 :             struct asym *seg;
; 1105 :             seg = GetGroup( opnd->sym );

	mov	rax, QWORD PTR opnd$[rsp]
	mov	rcx, QWORD PTR [rax+80]
	call	GetGroup
	mov	QWORD PTR seg$3[rsp], rax

; 1106 :             if ( seg == NULL )

	cmp	QWORD PTR seg$3[rsp], 0
	jne	SHORT $LN13@GetSegment

; 1107 :                 seg = &dir->sym;

	mov	rax, QWORD PTR dir$2[rsp]
	mov	QWORD PTR seg$3[rsp], rax
$LN13@GetSegment:

; 1108 :             if ( seg )

	cmp	QWORD PTR seg$3[rsp], 0
	je	SHORT $LN14@GetSegment

; 1109 :                 strcpy( buffer, seg->name );

	mov	rax, QWORD PTR seg$3[rsp]
	mov	rdx, QWORD PTR [rax+8]
	mov	rcx, QWORD PTR buffer$[rsp]
	call	strcpy
	jmp	SHORT $LN15@GetSegment
$LN14@GetSegment:

; 1110 :             else {
; 1111 :                 strcpy( buffer, "seg " );

	lea	rdx, OFFSET FLAT:$SG11690
	mov	rcx, QWORD PTR buffer$[rsp]
	call	strcpy

; 1112 :                 strcat( buffer, fullparam );

	mov	rdx, QWORD PTR fullparam$[rsp]
	mov	rcx, QWORD PTR buffer$[rsp]
	call	strcat
$LN15@GetSegment:
$LN12@GetSegment:

; 1113 :             }
; 1114 :         }

	jmp	SHORT $LN7@GetSegment
$LN6@GetSegment:

; 1115 :     } else if ( opnd->sym && opnd->sym->state == SYM_STACK ) {

	mov	rax, QWORD PTR opnd$[rsp]
	cmp	QWORD PTR [rax+80], 0
	je	SHORT $LN16@GetSegment
	mov	rax, QWORD PTR opnd$[rsp]
	mov	rax, QWORD PTR [rax+80]
	cmp	DWORD PTR [rax+32], 5
	jne	SHORT $LN16@GetSegment

; 1116 :         reg = T_SS;

	mov	eax, 27
	mov	WORD PTR reg$[rsp], ax

; 1117 :     } else {

	jmp	SHORT $LN17@GetSegment
$LN16@GetSegment:

; 1118 :         strcpy( buffer,"seg " );

	lea	rdx, OFFSET FLAT:$SG11693
	mov	rcx, QWORD PTR buffer$[rsp]
	call	strcpy

; 1119 :         strcat( buffer, fullparam );

	mov	rdx, QWORD PTR fullparam$[rsp]
	mov	rcx, QWORD PTR buffer$[rsp]
	call	strcat
$LN17@GetSegment:
$LN7@GetSegment:
$LN3@GetSegment:

; 1120 :     }
; 1121 :     DebugMsg1(("GetSegmentPart: reg%u, buffer=%s\n", reg, reg ? "" : buffer ));

	movsx	eax, WORD PTR reg$[rsp]
	test	eax, eax
	je	SHORT $LN27@GetSegment
	lea	rax, OFFSET FLAT:$SG11694
	mov	QWORD PTR tv181[rsp], rax
	jmp	SHORT $LN28@GetSegment
$LN27@GetSegment:
	mov	rax, QWORD PTR buffer$[rsp]
	mov	QWORD PTR tv181[rsp], rax
$LN28@GetSegment:
	movsx	eax, WORD PTR reg$[rsp]
	mov	r8, QWORD PTR tv181[rsp]
	mov	edx, eax
	lea	rcx, OFFSET FLAT:$SG11695
	call	DoDebugMsg1

; 1122 :     return( reg );

	movzx	eax, WORD PTR reg$[rsp]

; 1123 : }

	add	rsp, 120				; 00000078H
	ret	0
GetSegmentPart ENDP
_TEXT	ENDS
; Function compile flags: /Odtp
; File d:\hjwasm\hjwasm2.13.1s\hjwasm2.13.1s\invoke.c
_TEXT	SEGMENT
i$ = 48
j$ = 52
vecidx$ = 56
psize$ = 60
info$ = 64
memberCount$ = 72
membersize$ = 76
size$ = 80
destroyed$ = 84
tCount$ = 88
reg$ = 92
t$ = 96
freevecregs$ = 104
base$ = 108
reg2$ = 112
tv1210 = 116
tv1354 = 120
tv390 = 124
tv1558 = 128
tv1664 = 132
tv289 = 136
tv353 = 140
tv375 = 144
tv1477 = 148
tv1498 = 152
tv1545 = 156
tv1596 = 160
tv160 = 164
tv197 = 168
tv1859 = 172
tv1879 = 176
tv2345 = 180
tv2396 = 184
tv2434 = 188
tv422 = 192
tv1631 = 200
tv1716 = 208
proc$ = 240
index$ = 248
param$ = 256
addr$ = 264
opnd$ = 272
paramvalue$ = 280
regs_used$ = 288
ms64_param PROC

; 261  : {

	mov	BYTE PTR [rsp+32], r9b
	mov	QWORD PTR [rsp+24], r8
	mov	DWORD PTR [rsp+16], edx
	mov	QWORD PTR [rsp+8], rcx
	sub	rsp, 232				; 000000e8H

; 262  :     uint_32 size;
; 263  :     uint_32 psize;
; 264  :     char name[256];
; 265  :     char buff[256];
; 266  :     uint_64 fvalue[2];
; 267  :     int reg;
; 268  :     int reg2;
; 269  :     int i;
; 270  :     int j = 0;

	mov	DWORD PTR j$[rsp], 0

; 271  : 	int tCount = 0;

	mov	DWORD PTR tCount$[rsp], 0

; 272  : 	int freevecregs = 0;

	mov	DWORD PTR freevecregs$[rsp], 0

; 273  : 	int vecidx = -1;

	mov	DWORD PTR vecidx$[rsp], -1

; 274  :     int membersize = 0;     /* used for vectorcall array */

	mov	DWORD PTR membersize$[rsp], 0

; 275  :     int memberCount= 0;     /* used for vectorcall array */

	mov	DWORD PTR memberCount$[rsp], 0

; 276  :     int base;
; 277  :     struct proc_info *info = proc->e.procinfo; 

	mov	rax, QWORD PTR proc$[rsp]
	mov	rax, QWORD PTR [rax+96]
	mov	QWORD PTR info$[rsp], rax

; 278  :     struct dsym *t = NULL; /* used for vectorcall array member size */

	mov	QWORD PTR t$[rsp], 0

; 279  :     bool destroyed = FALSE;

	mov	BYTE PTR destroyed$[rsp], 0

; 280  :     struct asym *sym;
; 281  : 
; 282  :     DebugMsg1(("ms64_param(%s, index=%u, param.memtype=%Xh, addr=%u) enter\n", proc->sym.name, index, param->sym.mem_type, addr ));

	movzx	eax, BYTE PTR addr$[rsp]
	mov	DWORD PTR [rsp+32], eax
	mov	rax, QWORD PTR param$[rsp]
	mov	r9d, DWORD PTR [rax+36]
	mov	r8d, DWORD PTR index$[rsp]
	mov	rax, QWORD PTR proc$[rsp]
	mov	rdx, QWORD PTR [rax+8]
	lea	rcx, OFFSET FLAT:$SG11310
	call	DoDebugMsg1

; 283  :     /* v2.11: default size is 32-bit, not 64-bit */
; 284  :     if ( param->sym.is_vararg ) {

	mov	rax, QWORD PTR param$[rsp]
	movzx	eax, BYTE PTR [rax+47]
	shr	al, 5
	and	al, 1
	movzx	eax, al
	test	eax, eax
	je	$LN69@ms64_param

; 285  :         psize = 0;

	mov	DWORD PTR psize$[rsp], 0

; 286  :         
; 287  :         if ( addr || opnd->instr == T_OFFSET )

	movzx	eax, BYTE PTR addr$[rsp]
	test	eax, eax
	jne	SHORT $LN73@ms64_param
	mov	rax, QWORD PTR opnd$[rsp]
	cmp	DWORD PTR [rax+56], 241			; 000000f1H
	jne	SHORT $LN71@ms64_param
$LN73@ms64_param:

; 288  :             psize = 8;

	mov	DWORD PTR psize$[rsp], 8
	jmp	SHORT $LN72@ms64_param
$LN71@ms64_param:

; 289  :         else if ( opnd->kind == EXPR_REG && opnd->indirect == FALSE )

	mov	rax, QWORD PTR opnd$[rsp]
	cmp	DWORD PTR [rax+60], 2
	jne	SHORT $LN74@ms64_param
	mov	rax, QWORD PTR opnd$[rsp]
	mov	eax, DWORD PTR [rax+72]
	and	eax, 1
	test	eax, eax
	jne	SHORT $LN74@ms64_param

; 290  :             psize = SizeFromRegister( opnd->base_reg->tokval );

	mov	rax, QWORD PTR opnd$[rsp]
	mov	rax, QWORD PTR [rax+24]
	mov	ecx, DWORD PTR [rax+16]
	call	SizeFromRegister
	mov	DWORD PTR psize$[rsp], eax
	jmp	SHORT $LN75@ms64_param
$LN74@ms64_param:

; 291  :         else if ( opnd->mem_type != MT_EMPTY )

	mov	rax, QWORD PTR opnd$[rsp]
	cmp	DWORD PTR [rax+64], 192			; 000000c0H
	je	SHORT $LN76@ms64_param

; 292  :             psize = SizeFromMemtype( opnd->mem_type, USE64, opnd->type );

	mov	rax, QWORD PTR opnd$[rsp]
	mov	r8, QWORD PTR [rax+96]
	mov	edx, 2
	mov	rax, QWORD PTR opnd$[rsp]
	mov	ecx, DWORD PTR [rax+64]
	call	SizeFromMemtype
	mov	DWORD PTR psize$[rsp], eax
$LN76@ms64_param:
$LN75@ms64_param:
$LN72@ms64_param:

; 293  :         if ( psize < 4 )

	cmp	DWORD PTR psize$[rsp], 4
	jae	SHORT $LN77@ms64_param

; 294  :             psize = 4;

	mov	DWORD PTR psize$[rsp], 4
$LN77@ms64_param:

; 295  :     } else

	jmp	SHORT $LN70@ms64_param
$LN69@ms64_param:

; 296  :         psize = SizeFromMemtype( param->sym.mem_type, USE64, param->sym.type );

	mov	rax, QWORD PTR param$[rsp]
	mov	r8, QWORD PTR [rax+80]
	mov	edx, 2
	mov	rax, QWORD PTR param$[rsp]
	mov	ecx, DWORD PTR [rax+36]
	call	SizeFromMemtype
	mov	DWORD PTR psize$[rsp], eax
$LN70@ms64_param:

; 297  : 
; 298  : 	if (vcallpass == 1)

	cmp	DWORD PTR vcallpass, 1
	jne	SHORT $LN78@ms64_param

; 299  : 		goto vcall;

	jmp	$vcall$347
$LN78@ms64_param:

; 300  : 
; 301  :     /* check for register overwrites; v2.11: moved out the if( index >= 4 ) block */
; 302  :     if ( opnd->base_reg != NULL ) {

	mov	rax, QWORD PTR opnd$[rsp]
	cmp	QWORD PTR [rax+24], 0
	je	$LN79@ms64_param

; 303  :         reg = opnd->base_reg->tokval;

	mov	rax, QWORD PTR opnd$[rsp]
	mov	rax, QWORD PTR [rax+24]
	mov	eax, DWORD PTR [rax+16]
	mov	DWORD PTR reg$[rsp], eax

; 304  :         if ( GetValueSp( reg ) & OP_R ) {

	movsxd	rax, DWORD PTR reg$[rsp]
	imul	rax, rax, 12
	lea	rcx, OFFSET FLAT:SpecialTable
	mov	eax, DWORD PTR [rcx+rax]
	and	eax, 15
	test	eax, eax
	je	$LN80@ms64_param

; 305  :             i = GetRegNo( reg );

	movsxd	rax, DWORD PTR reg$[rsp]
	imul	rax, rax, 12
	lea	rcx, OFFSET FLAT:SpecialTable
	movzx	eax, BYTE PTR [rcx+rax+10]
	mov	DWORD PTR i$[rsp], eax

; 306  :             if ( REGPAR_WIN64 & ( 1 << i ) ) {

	mov	eax, DWORD PTR i$[rsp]
	mov	ecx, 1
	mov	DWORD PTR tv1859[rsp], ecx
	movzx	ecx, al
	mov	eax, DWORD PTR tv1859[rsp]
	shl	eax, cl
	and	eax, 774				; 00000306H
	test	eax, eax
	je	SHORT $LN81@ms64_param

; 307  :                 base = GetParmIndex( i );

	cmp	DWORD PTR i$[rsp], 8
	jl	SHORT $LN329@ms64_param
	mov	eax, DWORD PTR i$[rsp]
	sub	eax, 6
	mov	DWORD PTR tv160[rsp], eax
	jmp	SHORT $LN330@ms64_param
$LN329@ms64_param:
	mov	eax, DWORD PTR i$[rsp]
	dec	eax
	mov	DWORD PTR tv160[rsp], eax
$LN330@ms64_param:
	mov	eax, DWORD PTR tv160[rsp]
	mov	DWORD PTR base$[rsp], eax

; 308  :                 if ( *regs_used & ( 1 << ( base + RPAR_START ) ) )

	mov	rax, QWORD PTR regs_used$[rsp]
	movzx	eax, BYTE PTR [rax]
	mov	ecx, DWORD PTR base$[rsp]
	add	ecx, 3
	mov	edx, 1
	shl	edx, cl
	mov	ecx, edx
	and	eax, ecx
	test	eax, eax
	je	SHORT $LN83@ms64_param

; 309  :                     destroyed = TRUE;

	mov	BYTE PTR destroyed$[rsp], 1
$LN83@ms64_param:

; 310  :             } else if ( (*regs_used & R0_USED ) && ( ( GetValueSp( reg ) & OP_A ) || reg == T_AH ) ) {

	jmp	SHORT $LN82@ms64_param
$LN81@ms64_param:
	mov	rax, QWORD PTR regs_used$[rsp]
	movzx	eax, BYTE PTR [rax]
	and	eax, 1
	test	eax, eax
	je	SHORT $LN84@ms64_param
	movsxd	rax, DWORD PTR reg$[rsp]
	imul	rax, rax, 12
	lea	rcx, OFFSET FLAT:SpecialTable
	mov	eax, DWORD PTR [rcx+rax]
	and	eax, 512				; 00000200H
	test	eax, eax
	jne	SHORT $LN85@ms64_param
	cmp	DWORD PTR reg$[rsp], 5
	jne	SHORT $LN84@ms64_param
$LN85@ms64_param:

; 311  :                 destroyed = TRUE;

	mov	BYTE PTR destroyed$[rsp], 1
$LN84@ms64_param:
$LN82@ms64_param:
$LN80@ms64_param:
$LN79@ms64_param:

; 312  :             }
; 313  :         }
; 314  :     }
; 315  :     if ( opnd->idx_reg != NULL ) {

	mov	rax, QWORD PTR opnd$[rsp]
	cmp	QWORD PTR [rax+32], 0
	je	$LN86@ms64_param

; 316  :         reg2 = opnd->idx_reg->tokval;

	mov	rax, QWORD PTR opnd$[rsp]
	mov	rax, QWORD PTR [rax+32]
	mov	eax, DWORD PTR [rax+16]
	mov	DWORD PTR reg2$[rsp], eax

; 317  :         if ( GetValueSp( reg2 ) & OP_R ) {

	movsxd	rax, DWORD PTR reg2$[rsp]
	imul	rax, rax, 12
	lea	rcx, OFFSET FLAT:SpecialTable
	mov	eax, DWORD PTR [rcx+rax]
	and	eax, 15
	test	eax, eax
	je	$LN87@ms64_param

; 318  :             i = GetRegNo( reg2 );

	movsxd	rax, DWORD PTR reg2$[rsp]
	imul	rax, rax, 12
	lea	rcx, OFFSET FLAT:SpecialTable
	movzx	eax, BYTE PTR [rcx+rax+10]
	mov	DWORD PTR i$[rsp], eax

; 319  :             if ( REGPAR_WIN64 & ( 1 << i ) ) {

	mov	eax, DWORD PTR i$[rsp]
	mov	ecx, 1
	mov	DWORD PTR tv1879[rsp], ecx
	movzx	ecx, al
	mov	eax, DWORD PTR tv1879[rsp]
	shl	eax, cl
	and	eax, 774				; 00000306H
	test	eax, eax
	je	SHORT $LN88@ms64_param

; 320  :                 base = GetParmIndex( i );

	cmp	DWORD PTR i$[rsp], 8
	jl	SHORT $LN331@ms64_param
	mov	eax, DWORD PTR i$[rsp]
	sub	eax, 6
	mov	DWORD PTR tv197[rsp], eax
	jmp	SHORT $LN332@ms64_param
$LN331@ms64_param:
	mov	eax, DWORD PTR i$[rsp]
	dec	eax
	mov	DWORD PTR tv197[rsp], eax
$LN332@ms64_param:
	mov	eax, DWORD PTR tv197[rsp]
	mov	DWORD PTR base$[rsp], eax

; 321  :                 if ( *regs_used & ( 1 << ( base + RPAR_START ) ) )

	mov	rax, QWORD PTR regs_used$[rsp]
	movzx	eax, BYTE PTR [rax]
	mov	ecx, DWORD PTR base$[rsp]
	add	ecx, 3
	mov	edx, 1
	shl	edx, cl
	mov	ecx, edx
	and	eax, ecx
	test	eax, eax
	je	SHORT $LN90@ms64_param

; 322  :                     destroyed = TRUE;

	mov	BYTE PTR destroyed$[rsp], 1
$LN90@ms64_param:

; 323  :             } else if ( (*regs_used & R0_USED ) && ( ( GetValueSp( reg2 ) & OP_A ) || reg2 == T_AH ) ) {

	jmp	SHORT $LN89@ms64_param
$LN88@ms64_param:
	mov	rax, QWORD PTR regs_used$[rsp]
	movzx	eax, BYTE PTR [rax]
	and	eax, 1
	test	eax, eax
	je	SHORT $LN91@ms64_param
	movsxd	rax, DWORD PTR reg2$[rsp]
	imul	rax, rax, 12
	lea	rcx, OFFSET FLAT:SpecialTable
	mov	eax, DWORD PTR [rcx+rax]
	and	eax, 512				; 00000200H
	test	eax, eax
	jne	SHORT $LN92@ms64_param
	cmp	DWORD PTR reg2$[rsp], 5
	jne	SHORT $LN91@ms64_param
$LN92@ms64_param:

; 324  :                 destroyed = TRUE;

	mov	BYTE PTR destroyed$[rsp], 1
$LN91@ms64_param:
$LN89@ms64_param:
$LN87@ms64_param:
$LN86@ms64_param:

; 325  :             }
; 326  :         }
; 327  :     }
; 328  :     if ( destroyed ) {

	movzx	eax, BYTE PTR destroyed$[rsp]
	test	eax, eax
	je	SHORT $LN93@ms64_param

; 329  :         EmitErr( REGISTER_VALUE_OVERWRITTEN_BY_INVOKE );

	mov	ecx, 165				; 000000a5H
	call	EmitErr

; 330  :         *regs_used = 0;

	mov	rax, QWORD PTR regs_used$[rsp]
	mov	BYTE PTR [rax], 0
$LN93@ms64_param:

; 331  :     }
; 332  :     if (((proc->sym.langtype == LANG_VECTORCALL)&&( index >= 6 ))||

	mov	rax, QWORD PTR proc$[rsp]
	cmp	DWORD PTR [rax+76], 8
	jne	SHORT $LN97@ms64_param
	cmp	DWORD PTR index$[rsp], 6
	jge	SHORT $LN96@ms64_param
$LN97@ms64_param:
	mov	rax, QWORD PTR proc$[rsp]
	cmp	DWORD PTR [rax+76], 7
	jne	$LN94@ms64_param
	cmp	DWORD PTR index$[rsp], 4
	jl	$LN94@ms64_param
$LN96@ms64_param:

; 333  :     ((proc->sym.langtype == LANG_FASTCALL)&&( index >= 4 ))) {
; 334  :         if ( addr  ) { //|| psize > 8

	movzx	eax, BYTE PTR addr$[rsp]
	test	eax, eax
	je	$LN98@ms64_param

; 335  :             if ( psize == 4 )

	cmp	DWORD PTR psize$[rsp], 4
	jne	SHORT $LN99@ms64_param

; 336  :                 i = T_EAX;

	mov	DWORD PTR i$[rsp], 17
	jmp	SHORT $LN100@ms64_param
$LN99@ms64_param:

; 337  :             else {
; 338  :                 i = T_RAX;

	mov	DWORD PTR i$[rsp], 115			; 00000073H

; 339  :                 if ( psize < 8 )

	cmp	DWORD PTR psize$[rsp], 8
	jae	SHORT $LN101@ms64_param

; 340  :                     EmitErr( INVOKE_ARGUMENT_TYPE_MISMATCH, index+1 );

	mov	eax, DWORD PTR index$[rsp]
	inc	eax
	mov	edx, eax
	mov	ecx, 145				; 00000091H
	call	EmitErr
$LN101@ms64_param:
$LN100@ms64_param:

; 341  :             }
; 342  :             *regs_used |= R0_USED;

	mov	rax, QWORD PTR regs_used$[rsp]
	movzx	eax, BYTE PTR [rax]
	or	eax, 1
	mov	rcx, QWORD PTR regs_used$[rsp]
	mov	BYTE PTR [rcx], al

; 343  :             AddLineQueueX( " lea %r, %s", i, paramvalue );

	mov	r8, QWORD PTR paramvalue$[rsp]
	mov	edx, DWORD PTR i$[rsp]
	lea	rcx, OFFSET FLAT:$SG11344
	call	AddLineQueueX

; 344  :             AddLineQueueX( " mov [%r+%u], %r", T_RSP, NUMQUAL index*8, i );

	mov	eax, DWORD PTR index$[rsp]
	shl	eax, 3
	mov	r9d, DWORD PTR i$[rsp]
	mov	r8d, eax
	mov	edx, 119				; 00000077H
	lea	rcx, OFFSET FLAT:$SG11345
	call	AddLineQueueX

; 345  :             DebugMsg(("ms64_param(%s, param=%u): ADDR flags=%X\n", proc->sym.name, index, *regs_used ));

	mov	rax, QWORD PTR regs_used$[rsp]
	movzx	eax, BYTE PTR [rax]
	mov	r9d, eax
	mov	r8d, DWORD PTR index$[rsp]
	mov	rax, QWORD PTR proc$[rsp]
	mov	rdx, QWORD PTR [rax+8]
	lea	rcx, OFFSET FLAT:$SG11346
	call	DoDebugMsg

; 346  :             return( 1 );

	mov	eax, 1
	jmp	$LN1@ms64_param
$LN98@ms64_param:

; 347  :         }
; 348  :         if ( opnd->kind == EXPR_CONST ||

	mov	rax, QWORD PTR opnd$[rsp]
	cmp	DWORD PTR [rax+60], 0
	je	SHORT $LN104@ms64_param
	mov	rax, QWORD PTR opnd$[rsp]
	cmp	DWORD PTR [rax+60], 1
	jne	$LN102@ms64_param
	mov	rax, QWORD PTR opnd$[rsp]
	mov	eax, DWORD PTR [rax+72]
	and	eax, 1
	test	eax, eax
	jne	$LN102@ms64_param
	mov	rax, QWORD PTR opnd$[rsp]
	cmp	DWORD PTR [rax+64], 192			; 000000c0H
	jne	$LN102@ms64_param
	mov	rax, QWORD PTR opnd$[rsp]
	cmp	DWORD PTR [rax+56], 241			; 000000f1H
	je	$LN102@ms64_param
$LN104@ms64_param:

; 349  :            ( opnd->kind == EXPR_ADDR && opnd->indirect == FALSE && opnd->mem_type == MT_EMPTY && opnd->instr != T_OFFSET ) ) {
; 350  :             /* v2.06: support 64-bit constants for params > 4 */
; 351  :             if ( psize == 8 &&

	cmp	DWORD PTR psize$[rsp], 8
	jne	$LN105@ms64_param
	mov	rax, QWORD PTR opnd$[rsp]
	cmp	QWORD PTR [rax], 2147483647		; 7fffffffH
	jg	SHORT $LN107@ms64_param
	mov	rax, QWORD PTR opnd$[rsp]
	cmp	QWORD PTR [rax], -2147483648		; ffffffff80000000H
	jge	$LN105@ms64_param
$LN107@ms64_param:

; 352  :                 ( opnd->value64 > LONG_MAX || opnd->value64 < LONG_MIN ) ) {
; 353  :                 AddLineQueueX( " mov %r ptr [%r+%u], %r ( %s )", T_DWORD, T_RSP, NUMQUAL index*8, T_LOW32, paramvalue );

	mov	eax, DWORD PTR index$[rsp]
	shl	eax, 3
	mov	rcx, QWORD PTR paramvalue$[rsp]
	mov	QWORD PTR [rsp+40], rcx
	mov	DWORD PTR [rsp+32], 237			; 000000edH
	mov	r9d, eax
	mov	r8d, 119				; 00000077H
	mov	edx, 209				; 000000d1H
	lea	rcx, OFFSET FLAT:$SG11353
	call	AddLineQueueX

; 354  :                 AddLineQueueX( " mov %r ptr [%r+%u], %r ( %s )", T_DWORD, T_RSP, NUMQUAL index*8+4, T_HIGH32, paramvalue );

	mov	eax, DWORD PTR index$[rsp]
	lea	eax, DWORD PTR [rax*8+4]
	mov	rcx, QWORD PTR paramvalue$[rsp]
	mov	QWORD PTR [rsp+40], rcx
	mov	DWORD PTR [rsp+32], 231			; 000000e7H
	mov	r9d, eax
	mov	r8d, 119				; 00000077H
	mov	edx, 209				; 000000d1H
	lea	rcx, OFFSET FLAT:$SG11354
	call	AddLineQueueX

; 355  : 				return(1);

	mov	eax, 1
	jmp	$LN1@ms64_param

; 356  :             } else {

	jmp	$LN106@ms64_param
$LN105@ms64_param:

; 357  :                 /* v2.11: no expansion if target type is a pointer and argument is an address part */
; 358  :                 if ( param->sym.mem_type == MT_PTR && opnd->kind == EXPR_ADDR && opnd->sym->state != SYM_UNDEFINED ) {

	mov	rax, QWORD PTR param$[rsp]
	cmp	DWORD PTR [rax+36], 195			; 000000c3H
	jne	SHORT $LN108@ms64_param
	mov	rax, QWORD PTR opnd$[rsp]
	cmp	DWORD PTR [rax+60], 1
	jne	SHORT $LN108@ms64_param
	mov	rax, QWORD PTR opnd$[rsp]
	mov	rax, QWORD PTR [rax+80]
	cmp	DWORD PTR [rax+32], 0
	je	SHORT $LN108@ms64_param

; 359  :                     DebugMsg(("ms64_param(%s, param=%u): MT_PTR, type error, psize=%u\n", proc->sym.name, index, psize ));

	mov	r9d, DWORD PTR psize$[rsp]
	mov	r8d, DWORD PTR index$[rsp]
	mov	rax, QWORD PTR proc$[rsp]
	mov	rdx, QWORD PTR [rax+8]
	lea	rcx, OFFSET FLAT:$SG11356
	call	DoDebugMsg

; 360  :                     EmitErr( INVOKE_ARGUMENT_TYPE_MISMATCH, index+1 );

	mov	eax, DWORD PTR index$[rsp]
	inc	eax
	mov	edx, eax
	mov	ecx, 145				; 00000091H
	call	EmitErr
$LN108@ms64_param:

; 361  :                 }
; 362  :                 switch ( psize ) {

	mov	eax, DWORD PTR psize$[rsp]
	mov	DWORD PTR tv289[rsp], eax
	cmp	DWORD PTR tv289[rsp], 1
	je	SHORT $LN109@ms64_param
	cmp	DWORD PTR tv289[rsp], 2
	je	SHORT $LN110@ms64_param
	cmp	DWORD PTR tv289[rsp], 4
	je	SHORT $LN111@ms64_param
	jmp	SHORT $LN112@ms64_param
$LN109@ms64_param:

; 363  :                 case 1:   i = T_BYTE; break;

	mov	DWORD PTR i$[rsp], 205			; 000000cdH
	jmp	SHORT $LN2@ms64_param
$LN110@ms64_param:

; 364  :                 case 2:   i = T_WORD; break;

	mov	DWORD PTR i$[rsp], 207			; 000000cfH
	jmp	SHORT $LN2@ms64_param
$LN111@ms64_param:

; 365  :                 case 4:   i = T_DWORD; break;

	mov	DWORD PTR i$[rsp], 209			; 000000d1H
	jmp	SHORT $LN2@ms64_param
$LN112@ms64_param:

; 366  :                 default:  i = T_QWORD; break;

	mov	DWORD PTR i$[rsp], 213			; 000000d5H
$LN2@ms64_param:

; 367  :                 }
; 368  :                 AddLineQueueX( " mov %r ptr [%r+%u], %s", i, T_RSP, NUMQUAL index*8, paramvalue );

	mov	eax, DWORD PTR index$[rsp]
	shl	eax, 3
	mov	rcx, QWORD PTR paramvalue$[rsp]
	mov	QWORD PTR [rsp+32], rcx
	mov	r9d, eax
	mov	r8d, 119				; 00000077H
	mov	edx, DWORD PTR i$[rsp]
	lea	rcx, OFFSET FLAT:$SG11361
	call	AddLineQueueX

; 369  : 				return(1);

	mov	eax, 1
	jmp	$LN1@ms64_param
$LN106@ms64_param:

; 370  :             }
; 371  :             DebugMsg(("ms64_param(%s, param=%u): MT_EMPTY size.p=%u flags=%X\n", proc->sym.name, index, psize, *regs_used ));

	mov	rax, QWORD PTR regs_used$[rsp]
	movzx	eax, BYTE PTR [rax]
	mov	DWORD PTR [rsp+32], eax
	mov	r9d, DWORD PTR psize$[rsp]
	mov	r8d, DWORD PTR index$[rsp]
	mov	rax, QWORD PTR proc$[rsp]
	mov	rdx, QWORD PTR [rax+8]
	lea	rcx, OFFSET FLAT:$SG11362
	call	DoDebugMsg
	jmp	$LN103@ms64_param
$LN102@ms64_param:

; 372  : 
; 373  :         } else if ( opnd->kind == EXPR_FLOAT  ) {

	mov	rax, QWORD PTR opnd$[rsp]
	cmp	DWORD PTR [rax+60], 3
	jne	$LN113@ms64_param

; 374  :             if ( param->sym.mem_type == MT_REAL8 ) {

	mov	rax, QWORD PTR param$[rsp]
	cmp	DWORD PTR [rax+36], 39			; 00000027H
	jne	SHORT $LN115@ms64_param

; 375  :                 AddLineQueueX( " mov %r ptr [%r+%u+0], %r (%s)", T_DWORD, T_RSP, NUMQUAL index*8, T_LOW32, paramvalue );

	mov	eax, DWORD PTR index$[rsp]
	shl	eax, 3
	mov	rcx, QWORD PTR paramvalue$[rsp]
	mov	QWORD PTR [rsp+40], rcx
	mov	DWORD PTR [rsp+32], 237			; 000000edH
	mov	r9d, eax
	mov	r8d, 119				; 00000077H
	mov	edx, 209				; 000000d1H
	lea	rcx, OFFSET FLAT:$SG11367
	call	AddLineQueueX

; 376  :                 AddLineQueueX( " mov %r ptr [%r+%u+4], %r (%s)", T_DWORD, T_RSP, NUMQUAL index*8, T_HIGH32, paramvalue );

	mov	eax, DWORD PTR index$[rsp]
	shl	eax, 3
	mov	rcx, QWORD PTR paramvalue$[rsp]
	mov	QWORD PTR [rsp+40], rcx
	mov	DWORD PTR [rsp+32], 231			; 000000e7H
	mov	r9d, eax
	mov	r8d, 119				; 00000077H
	mov	edx, 209				; 000000d1H
	lea	rcx, OFFSET FLAT:$SG11368
	call	AddLineQueueX

; 377  : 				return(1);

	mov	eax, 1
	jmp	$LN1@ms64_param

; 378  : 			}

	jmp	SHORT $LN116@ms64_param
$LN115@ms64_param:

; 379  : 			else {
; 380  : 				AddLineQueueX(" mov %r ptr [%r+%u], %s", T_DWORD, T_RSP, NUMQUAL index * 8, paramvalue);

	mov	eax, DWORD PTR index$[rsp]
	shl	eax, 3
	mov	rcx, QWORD PTR paramvalue$[rsp]
	mov	QWORD PTR [rsp+32], rcx
	mov	r9d, eax
	mov	r8d, 119				; 00000077H
	mov	edx, 209				; 000000d1H
	lea	rcx, OFFSET FLAT:$SG11369
	call	AddLineQueueX

; 381  : 				return(1);

	mov	eax, 1
	jmp	$LN1@ms64_param
$LN116@ms64_param:

; 382  : 			}
; 383  : 
; 384  :         } else { /* it's a register or variable */

	jmp	$LN114@ms64_param
$LN113@ms64_param:

; 385  : 
; 386  :             if ( opnd->kind == EXPR_REG && opnd->indirect == FALSE ) {

	mov	rax, QWORD PTR opnd$[rsp]
	cmp	DWORD PTR [rax+60], 2
	jne	$LN117@ms64_param
	mov	rax, QWORD PTR opnd$[rsp]
	mov	eax, DWORD PTR [rax+72]
	and	eax, 1
	test	eax, eax
	jne	$LN117@ms64_param

; 387  :                 size = SizeFromRegister( reg );

	mov	ecx, DWORD PTR reg$[rsp]
	call	SizeFromRegister
	mov	DWORD PTR size$[rsp], eax

; 388  :                 if ( size == psize )

	mov	eax, DWORD PTR psize$[rsp]
	cmp	DWORD PTR size$[rsp], eax
	jne	SHORT $LN119@ms64_param

; 389  :                     i = reg;

	mov	eax, DWORD PTR reg$[rsp]
	mov	DWORD PTR i$[rsp], eax
	jmp	$LN120@ms64_param
$LN119@ms64_param:

; 390  :                 else {
; 391  :                     if ( size > psize || ( size < psize && param->sym.mem_type == MT_PTR ) ) {

	mov	eax, DWORD PTR psize$[rsp]
	cmp	DWORD PTR size$[rsp], eax
	ja	SHORT $LN122@ms64_param
	mov	eax, DWORD PTR psize$[rsp]
	cmp	DWORD PTR size$[rsp], eax
	jae	SHORT $LN121@ms64_param
	mov	rax, QWORD PTR param$[rsp]
	cmp	DWORD PTR [rax+36], 195			; 000000c3H
	jne	SHORT $LN121@ms64_param
$LN122@ms64_param:

; 392  :                         DebugMsg(("ms64_param(%s, param=%u): type error size.p/a=%u/%u flags=%X\n", proc->sym.name, index, psize, size, *regs_used ));

	mov	rax, QWORD PTR regs_used$[rsp]
	movzx	eax, BYTE PTR [rax]
	mov	DWORD PTR [rsp+40], eax
	mov	eax, DWORD PTR size$[rsp]
	mov	DWORD PTR [rsp+32], eax
	mov	r9d, DWORD PTR psize$[rsp]
	mov	r8d, DWORD PTR index$[rsp]
	mov	rax, QWORD PTR proc$[rsp]
	mov	rdx, QWORD PTR [rax+8]
	lea	rcx, OFFSET FLAT:$SG11376
	call	DoDebugMsg

; 393  :                         EmitErr( INVOKE_ARGUMENT_TYPE_MISMATCH, index+1 );

	mov	eax, DWORD PTR index$[rsp]
	inc	eax
	mov	edx, eax
	mov	ecx, 145				; 00000091H
	call	EmitErr

; 394  :                         psize = size;

	mov	eax, DWORD PTR size$[rsp]
	mov	DWORD PTR psize$[rsp], eax
$LN121@ms64_param:

; 395  :                     }
; 396  :                     switch ( psize ) {

	mov	eax, DWORD PTR psize$[rsp]
	mov	DWORD PTR tv353[rsp], eax
	cmp	DWORD PTR tv353[rsp], 1
	je	SHORT $LN123@ms64_param
	cmp	DWORD PTR tv353[rsp], 2
	je	SHORT $LN124@ms64_param
	cmp	DWORD PTR tv353[rsp], 4
	je	SHORT $LN125@ms64_param
	jmp	SHORT $LN126@ms64_param
$LN123@ms64_param:

; 397  :                     case 1:  i = T_AL;  break;

	mov	DWORD PTR i$[rsp], 1
	jmp	SHORT $LN4@ms64_param
$LN124@ms64_param:

; 398  :                     case 2:  i = T_AX;  break;

	mov	DWORD PTR i$[rsp], 9
	jmp	SHORT $LN4@ms64_param
$LN125@ms64_param:

; 399  :                     case 4:  i = T_EAX; break;

	mov	DWORD PTR i$[rsp], 17
	jmp	SHORT $LN4@ms64_param
$LN126@ms64_param:

; 400  :                     default: i = T_RAX; break;

	mov	DWORD PTR i$[rsp], 115			; 00000073H
$LN4@ms64_param:

; 401  :                     }
; 402  :                     *regs_used |= R0_USED;

	mov	rax, QWORD PTR regs_used$[rsp]
	movzx	eax, BYTE PTR [rax]
	or	eax, 1
	mov	rcx, QWORD PTR regs_used$[rsp]
	mov	BYTE PTR [rcx], al
$LN120@ms64_param:

; 403  :                 }
; 404  :                 DebugMsg(("ms64_param(%s, param=%u): REG size.p/a=%u/%u flags=%X\n", proc->sym.name, index, psize, size, *regs_used ));

	mov	rax, QWORD PTR regs_used$[rsp]
	movzx	eax, BYTE PTR [rax]
	mov	DWORD PTR [rsp+40], eax
	mov	eax, DWORD PTR size$[rsp]
	mov	DWORD PTR [rsp+32], eax
	mov	r9d, DWORD PTR psize$[rsp]
	mov	r8d, DWORD PTR index$[rsp]
	mov	rax, QWORD PTR proc$[rsp]
	mov	rdx, QWORD PTR [rax+8]
	lea	rcx, OFFSET FLAT:$SG11381
	call	DoDebugMsg

; 405  :             } else {

	jmp	$LN118@ms64_param
$LN117@ms64_param:

; 406  :                 if ( opnd->mem_type == MT_EMPTY )

	mov	rax, QWORD PTR opnd$[rsp]
	cmp	DWORD PTR [rax+64], 192			; 000000c0H
	jne	SHORT $LN127@ms64_param

; 407  :                     size = ( opnd->instr == T_OFFSET ? 8 : 4 );

	mov	rax, QWORD PTR opnd$[rsp]
	cmp	DWORD PTR [rax+56], 241			; 000000f1H
	jne	SHORT $LN333@ms64_param
	mov	DWORD PTR tv375[rsp], 8
	jmp	SHORT $LN334@ms64_param
$LN333@ms64_param:
	mov	DWORD PTR tv375[rsp], 4
$LN334@ms64_param:
	mov	eax, DWORD PTR tv375[rsp]
	mov	DWORD PTR size$[rsp], eax
	jmp	SHORT $LN128@ms64_param
$LN127@ms64_param:

; 408  :                 else
; 409  :                     size = SizeFromMemtype( opnd->mem_type, USE64, opnd->type );

	mov	rax, QWORD PTR opnd$[rsp]
	mov	r8, QWORD PTR [rax+96]
	mov	edx, 2
	mov	rax, QWORD PTR opnd$[rsp]
	mov	ecx, DWORD PTR [rax+64]
	call	SizeFromMemtype
	mov	DWORD PTR size$[rsp], eax
$LN128@ms64_param:

; 410  :                 DebugMsg(("ms64_param(%s, param=%u): MEM size.p/a=%u/%u flags=%X\n", proc->sym.name, index, psize, size, *regs_used ));

	mov	rax, QWORD PTR regs_used$[rsp]
	movzx	eax, BYTE PTR [rax]
	mov	DWORD PTR [rsp+40], eax
	mov	eax, DWORD PTR size$[rsp]
	mov	DWORD PTR [rsp+32], eax
	mov	r9d, DWORD PTR psize$[rsp]
	mov	r8d, DWORD PTR index$[rsp]
	mov	rax, QWORD PTR proc$[rsp]
	mov	rdx, QWORD PTR [rax+8]
	lea	rcx, OFFSET FLAT:$SG11384
	call	DoDebugMsg

; 411  :                 switch ( psize ) {

	mov	eax, DWORD PTR psize$[rsp]
	mov	DWORD PTR tv390[rsp], eax
	cmp	DWORD PTR tv390[rsp], 1
	je	SHORT $LN129@ms64_param
	cmp	DWORD PTR tv390[rsp], 2
	je	SHORT $LN130@ms64_param
	cmp	DWORD PTR tv390[rsp], 4
	je	SHORT $LN131@ms64_param
	jmp	SHORT $LN132@ms64_param
$LN129@ms64_param:

; 412  :                 case 1:  i = T_AL;  break;

	mov	DWORD PTR i$[rsp], 1
	jmp	SHORT $LN6@ms64_param
$LN130@ms64_param:

; 413  :                 case 2:  i = T_AX;  break;

	mov	DWORD PTR i$[rsp], 9
	jmp	SHORT $LN6@ms64_param
$LN131@ms64_param:

; 414  :                 case 4:  i = T_EAX; break;

	mov	DWORD PTR i$[rsp], 17
	jmp	SHORT $LN6@ms64_param
$LN132@ms64_param:

; 415  :                 default: i = T_RAX; break;

	mov	DWORD PTR i$[rsp], 115			; 00000073H
$LN6@ms64_param:

; 416  :                 }
; 417  : 				if(proc->sym.langtype == LANG_VECTORCALL) return(1);

	mov	rax, QWORD PTR proc$[rsp]
	cmp	DWORD PTR [rax+76], 8
	jne	SHORT $LN133@ms64_param
	mov	eax, 1
	jmp	$LN1@ms64_param
$LN133@ms64_param:

; 418  :                 *regs_used |= R0_USED;

	mov	rax, QWORD PTR regs_used$[rsp]
	movzx	eax, BYTE PTR [rax]
	or	eax, 1
	mov	rcx, QWORD PTR regs_used$[rsp]
	mov	BYTE PTR [rcx], al
$LN118@ms64_param:

; 419  :             }
; 420  : 
; 421  :             /* v2.11: no expansion if target type is a pointer */
; 422  :             if ( size > psize || ( size < psize && param->sym.mem_type == MT_PTR ) ) {

	mov	eax, DWORD PTR psize$[rsp]
	cmp	DWORD PTR size$[rsp], eax
	ja	SHORT $LN135@ms64_param
	mov	eax, DWORD PTR psize$[rsp]
	cmp	DWORD PTR size$[rsp], eax
	jae	SHORT $LN134@ms64_param
	mov	rax, QWORD PTR param$[rsp]
	cmp	DWORD PTR [rax+36], 195			; 000000c3H
	jne	SHORT $LN134@ms64_param
$LN135@ms64_param:

; 423  :                 EmitErr( INVOKE_ARGUMENT_TYPE_MISMATCH, index+1 );

	mov	eax, DWORD PTR index$[rsp]
	inc	eax
	mov	edx, eax
	mov	ecx, 145				; 00000091H
	call	EmitErr
$LN134@ms64_param:

; 424  :             }
; 425  :             if ( size != psize ) {

	mov	eax, DWORD PTR psize$[rsp]
	cmp	DWORD PTR size$[rsp], eax
	je	$LN136@ms64_param

; 426  :                 if ( size == 4 ) {

	cmp	DWORD PTR size$[rsp], 4
	jne	SHORT $LN138@ms64_param

; 427  :                     if ( IS_SIGNED( opnd->mem_type ) )

	mov	rax, QWORD PTR opnd$[rsp]
	mov	eax, DWORD PTR [rax+64]
	and	eax, 192				; 000000c0H
	cmp	eax, 64					; 00000040H
	jne	SHORT $LN140@ms64_param

; 428  :                         AddLineQueueX( " movsxd %r, %s", i, paramvalue );

	mov	r8, QWORD PTR paramvalue$[rsp]
	mov	edx, DWORD PTR i$[rsp]
	lea	rcx, OFFSET FLAT:$SG11398
	call	AddLineQueueX
	jmp	SHORT $LN141@ms64_param
$LN140@ms64_param:

; 429  :                     else
; 430  :                         AddLineQueueX( " mov %r, %s", i, paramvalue );

	mov	r8, QWORD PTR paramvalue$[rsp]
	mov	edx, DWORD PTR i$[rsp]
	lea	rcx, OFFSET FLAT:$SG11399
	call	AddLineQueueX
$LN141@ms64_param:

; 431  :                 } else

	jmp	SHORT $LN139@ms64_param
$LN138@ms64_param:

; 432  :                     AddLineQueueX( " mov%sx %r, %s", IS_SIGNED( opnd->mem_type ) ? "s" : "z", i, paramvalue );

	mov	rax, QWORD PTR opnd$[rsp]
	mov	eax, DWORD PTR [rax+64]
	and	eax, 192				; 000000c0H
	cmp	eax, 64					; 00000040H
	jne	SHORT $LN335@ms64_param
	lea	rax, OFFSET FLAT:$SG11400
	mov	QWORD PTR tv422[rsp], rax
	jmp	SHORT $LN336@ms64_param
$LN335@ms64_param:
	lea	rax, OFFSET FLAT:$SG11401
	mov	QWORD PTR tv422[rsp], rax
$LN336@ms64_param:
	mov	r9, QWORD PTR paramvalue$[rsp]
	mov	r8d, DWORD PTR i$[rsp]
	mov	rdx, QWORD PTR tv422[rsp]
	lea	rcx, OFFSET FLAT:$SG11402
	call	AddLineQueueX
$LN139@ms64_param:

; 433  :             } else if ( opnd->kind != EXPR_REG || opnd->indirect == TRUE )

	jmp	SHORT $LN137@ms64_param
$LN136@ms64_param:
	mov	rax, QWORD PTR opnd$[rsp]
	cmp	DWORD PTR [rax+60], 2
	jne	SHORT $LN143@ms64_param
	mov	rax, QWORD PTR opnd$[rsp]
	mov	eax, DWORD PTR [rax+72]
	and	eax, 1
	cmp	eax, 1
	jne	SHORT $LN142@ms64_param
$LN143@ms64_param:

; 434  :                 AddLineQueueX( " mov %r, %s", i, paramvalue );

	mov	r8, QWORD PTR paramvalue$[rsp]
	mov	edx, DWORD PTR i$[rsp]
	lea	rcx, OFFSET FLAT:$SG11405
	call	AddLineQueueX
$LN142@ms64_param:
$LN137@ms64_param:

; 435  : 
; 436  :             AddLineQueueX( " mov [%r+%u], %r", T_RSP, NUMQUAL index*8, i );

	mov	eax, DWORD PTR index$[rsp]
	shl	eax, 3
	mov	r9d, DWORD PTR i$[rsp]
	mov	r8d, eax
	mov	edx, 119				; 00000077H
	lea	rcx, OFFSET FLAT:$SG11406
	call	AddLineQueueX

; 437  : 			return(1);

	mov	eax, 1
	jmp	$LN1@ms64_param
$LN114@ms64_param:
$LN103@ms64_param:

; 438  :         }

	jmp	$LN95@ms64_param
$LN94@ms64_param:

; 439  : 
; 440  :     } else if ( param->sym.mem_type == MT_REAL4 ||

	mov	rax, QWORD PTR param$[rsp]
	cmp	DWORD PTR [rax+36], 35			; 00000023H
	je	SHORT $LN145@ms64_param
	mov	rax, QWORD PTR param$[rsp]
	cmp	DWORD PTR [rax+36], 39			; 00000027H
	jne	$LN144@ms64_param
$LN145@ms64_param:

; 441  :                param->sym.mem_type == MT_REAL8 ) {
; 442  :         /* v2.04: check if argument is the correct XMM register already */
; 443  :         if ( opnd->kind == EXPR_REG && opnd->indirect == FALSE ) {

	mov	rax, QWORD PTR opnd$[rsp]
	cmp	DWORD PTR [rax+60], 2
	jne	$LN146@ms64_param
	mov	rax, QWORD PTR opnd$[rsp]
	mov	eax, DWORD PTR [rax+72]
	and	eax, 1
	test	eax, eax
	jne	$LN146@ms64_param

; 444  :             if ( GetValueSp( reg ) & OP_XMM ) {

	movsxd	rax, DWORD PTR reg$[rsp]
	imul	rax, rax, 12
	lea	rcx, OFFSET FLAT:SpecialTable
	mov	eax, DWORD PTR [rcx+rax]
	and	eax, 32					; 00000020H
	test	eax, eax
	je	$LN148@ms64_param

; 445  :                  if (proc->sym.langtype == LANG_VECTORCALL)

	mov	rax, QWORD PTR proc$[rsp]
	cmp	DWORD PTR [rax+76], 8
	jne	SHORT $LN149@ms64_param

; 446  :                      info->vregs[index] = 1;

	movsxd	rax, DWORD PTR index$[rsp]
	mov	rcx, QWORD PTR info$[rsp]
	mov	BYTE PTR [rcx+rax+68], 1
$LN149@ms64_param:

; 447  :                 if ( reg == T_XMM0 + index )

	mov	eax, DWORD PTR index$[rsp]
	add	eax, 40					; 00000028H
	cmp	DWORD PTR reg$[rsp], eax
	jne	SHORT $LN150@ms64_param

; 448  :                     DebugMsg(("ms64_param(%s, param=%u): argument optimized\n", proc->sym.name, index ));

	mov	r8d, DWORD PTR index$[rsp]
	mov	rax, QWORD PTR proc$[rsp]
	mov	rdx, QWORD PTR [rax+8]
	lea	rcx, OFFSET FLAT:$SG11415
	call	DoDebugMsg
	jmp	SHORT $LN151@ms64_param
$LN150@ms64_param:

; 449  : 				else
; 450  : 				{
; 451  : 					if (param->sym.mem_type == MT_REAL4)

	mov	rax, QWORD PTR param$[rsp]
	cmp	DWORD PTR [rax+36], 35			; 00000023H
	jne	SHORT $LN152@ms64_param

; 452  : 						AddLineQueueX(" movd %r, %s", T_XMM0 + index, paramvalue);

	mov	eax, DWORD PTR index$[rsp]
	add	eax, 40					; 00000028H
	mov	r8, QWORD PTR paramvalue$[rsp]
	mov	edx, eax
	lea	rcx, OFFSET FLAT:$SG11418
	call	AddLineQueueX
	jmp	SHORT $LN153@ms64_param
$LN152@ms64_param:

; 453  : 					else
; 454  : 						AddLineQueueX(" movq %r, %s", T_XMM0 + index, paramvalue);

	mov	eax, DWORD PTR index$[rsp]
	add	eax, 40					; 00000028H
	mov	r8, QWORD PTR paramvalue$[rsp]
	mov	edx, eax
	lea	rcx, OFFSET FLAT:$SG11419
	call	AddLineQueueX
$LN153@ms64_param:
$LN151@ms64_param:

; 455  : 				}
; 456  :                 return( 1 );

	mov	eax, 1
	jmp	$LN1@ms64_param
$LN148@ms64_param:

; 457  :             }
; 458  :         }

	jmp	$LN147@ms64_param
$LN146@ms64_param:

; 459  : 		else if (opnd->kind == EXPR_REG && opnd->indirect == TRUE) {

	mov	rax, QWORD PTR opnd$[rsp]
	cmp	DWORD PTR [rax+60], 2
	jne	$LN154@ms64_param
	mov	rax, QWORD PTR opnd$[rsp]
	mov	eax, DWORD PTR [rax+72]
	and	eax, 1
	cmp	eax, 1
	jne	$LN154@ms64_param

; 460  : 			//if (GetValueSp(reg) & OP_XMM) {
; 461  : 				if (reg == T_XMM0 + index)

	mov	eax, DWORD PTR index$[rsp]
	add	eax, 40					; 00000028H
	cmp	DWORD PTR reg$[rsp], eax
	jne	SHORT $LN155@ms64_param

; 462  : 					DebugMsg(("ms64_param(%s, param=%u): argument optimized\n", proc->sym.name, index));

	mov	r8d, DWORD PTR index$[rsp]
	mov	rax, QWORD PTR proc$[rsp]
	mov	rdx, QWORD PTR [rax+8]
	lea	rcx, OFFSET FLAT:$SG11423
	call	DoDebugMsg
	jmp	SHORT $LN156@ms64_param
$LN155@ms64_param:

; 463  : 				else
; 464  : 				{
; 465  : 					if(param->sym.mem_type == MT_REAL4)

	mov	rax, QWORD PTR param$[rsp]
	cmp	DWORD PTR [rax+36], 35			; 00000023H
	jne	SHORT $LN157@ms64_param

; 466  : 						AddLineQueueX(" movd %r, %s", T_XMM0 + index, paramvalue);

	mov	eax, DWORD PTR index$[rsp]
	add	eax, 40					; 00000028H
	mov	r8, QWORD PTR paramvalue$[rsp]
	mov	edx, eax
	lea	rcx, OFFSET FLAT:$SG11426
	call	AddLineQueueX
	jmp	SHORT $LN158@ms64_param
$LN157@ms64_param:

; 467  : 					else
; 468  : 						AddLineQueueX(" movq %r, %s", T_XMM0 + index, paramvalue);

	mov	eax, DWORD PTR index$[rsp]
	add	eax, 40					; 00000028H
	mov	r8, QWORD PTR paramvalue$[rsp]
	mov	edx, eax
	lea	rcx, OFFSET FLAT:$SG11427
	call	AddLineQueueX
$LN158@ms64_param:
$LN156@ms64_param:

; 469  : 				}
; 470  : 				return(1);

	mov	eax, 1
	jmp	$LN1@ms64_param
$LN154@ms64_param:
$LN147@ms64_param:

; 471  : 			//}
; 472  : 		}
; 473  : 
; 474  : 		if ( opnd->kind == EXPR_FLOAT ) {

	mov	rax, QWORD PTR opnd$[rsp]
	cmp	DWORD PTR [rax+60], 3
	jne	$LN159@ms64_param

; 475  : 			if (proc->sym.langtype == LANG_VECTORCALL)

	mov	rax, QWORD PTR proc$[rsp]
	cmp	DWORD PTR [rax+76], 8
	jne	SHORT $LN160@ms64_param

; 476  : 			{
; 477  : 				info->vregs[index] = 1;

	movsxd	rax, DWORD PTR index$[rsp]
	mov	rcx, QWORD PTR info$[rsp]
	mov	BYTE PTR [rcx+rax+68], 1

; 478  : 				info->xyzused[index] = 1; /* JPH */

	movsxd	rax, DWORD PTR index$[rsp]
	mov	rcx, QWORD PTR info$[rsp]
	mov	BYTE PTR [rcx+rax+74], 1
$LN160@ms64_param:

; 479  : 			}
; 480  :             *regs_used |= R0_USED;

	mov	rax, QWORD PTR regs_used$[rsp]
	movzx	eax, BYTE PTR [rax]
	or	eax, 1
	mov	rcx, QWORD PTR regs_used$[rsp]
	mov	BYTE PTR [rcx], al

; 481  :             if ( param->sym.mem_type == MT_REAL4 ) {

	mov	rax, QWORD PTR param$[rsp]
	cmp	DWORD PTR [rax+36], 35			; 00000023H
	jne	SHORT $LN161@ms64_param

; 482  :                 
; 483  :                 AddLineQueueX( "mov %r, %s", T_EAX, paramvalue );

	mov	r8, QWORD PTR paramvalue$[rsp]
	mov	edx, 17
	lea	rcx, OFFSET FLAT:$SG11432
	call	AddLineQueueX

; 484  :                 AddLineQueueX( "vmovd %r, %r", T_XMM0 + index, T_EAX );

	mov	eax, DWORD PTR index$[rsp]
	add	eax, 40					; 00000028H
	mov	r8d, 17
	mov	edx, eax
	lea	rcx, OFFSET FLAT:$SG11433
	call	AddLineQueueX

; 485  : 				return(1);

	mov	eax, 1
	jmp	$LN1@ms64_param

; 486  :             } else {

	jmp	SHORT $LN162@ms64_param
$LN161@ms64_param:

; 487  :                 AddLineQueueX( "mov %r, %r ptr %s", T_RAX, T_REAL8, paramvalue );

	mov	r9, QWORD PTR paramvalue$[rsp]
	mov	r8d, 215				; 000000d7H
	mov	edx, 115				; 00000073H
	lea	rcx, OFFSET FLAT:$SG11434
	call	AddLineQueueX

; 488  :                 AddLineQueueX( "vmovq %r, %r", T_XMM0 + index, T_RAX );

	mov	eax, DWORD PTR index$[rsp]
	add	eax, 40					; 00000028H
	mov	r8d, 115				; 00000073H
	mov	edx, eax
	lea	rcx, OFFSET FLAT:$SG11435
	call	AddLineQueueX

; 489  : 				return(1);

	mov	eax, 1
	jmp	$LN1@ms64_param
$LN162@ms64_param:
$LN159@ms64_param:

; 490  :             }
; 491  :         } 
; 492  :         if ( opnd->kind == EXPR_ADDR ) {

	mov	rax, QWORD PTR opnd$[rsp]
	cmp	DWORD PTR [rax+60], 1
	jne	$LN163@ms64_param

; 493  : 			if (proc->sym.langtype == LANG_VECTORCALL)

	mov	rax, QWORD PTR proc$[rsp]
	cmp	DWORD PTR [rax+76], 8
	jne	$LN164@ms64_param

; 494  : 			{
; 495  : 				*regs_used |= R0_USED;

	mov	rax, QWORD PTR regs_used$[rsp]
	movzx	eax, BYTE PTR [rax]
	or	eax, 1
	mov	rcx, QWORD PTR regs_used$[rsp]
	mov	BYTE PTR [rcx], al

; 496  : 				info->vregs[index] = 1;

	movsxd	rax, DWORD PTR index$[rsp]
	mov	rcx, QWORD PTR info$[rsp]
	mov	BYTE PTR [rcx+rax+68], 1

; 497  : 				info->xyzused[index] = 1; /* JPH */

	movsxd	rax, DWORD PTR index$[rsp]
	mov	rcx, QWORD PTR info$[rsp]
	mov	BYTE PTR [rcx+rax+74], 1

; 498  : 				if (opnd->sym->mem_type == MT_REAL8)

	mov	rax, QWORD PTR opnd$[rsp]
	mov	rax, QWORD PTR [rax+80]
	cmp	DWORD PTR [rax+36], 39			; 00000027H
	jne	SHORT $LN166@ms64_param

; 499  : 					AddLineQueueX("vmovsd %r,qword ptr %s", T_XMM0 + index, paramvalue);

	mov	eax, DWORD PTR index$[rsp]
	add	eax, 40					; 00000028H
	mov	r8, QWORD PTR paramvalue$[rsp]
	mov	edx, eax
	lea	rcx, OFFSET FLAT:$SG11441
	call	AddLineQueueX
	jmp	SHORT $LN167@ms64_param
$LN166@ms64_param:

; 500  : 				else
; 501  : 					AddLineQueueX("vmovss %r,dword ptr %s", T_XMM0 + index, paramvalue);

	mov	eax, DWORD PTR index$[rsp]
	add	eax, 40					; 00000028H
	mov	r8, QWORD PTR paramvalue$[rsp]
	mov	edx, eax
	lea	rcx, OFFSET FLAT:$SG11442
	call	AddLineQueueX
$LN167@ms64_param:

; 502  : 			}

	jmp	SHORT $LN165@ms64_param
$LN164@ms64_param:

; 503  : 			else
; 504  : 			{
; 505  : 				if (param->sym.mem_type == MT_REAL8)

	mov	rax, QWORD PTR param$[rsp]
	cmp	DWORD PTR [rax+36], 39			; 00000027H
	jne	SHORT $LN168@ms64_param

; 506  : 					AddLineQueueX("movq %r,qword ptr %s", T_XMM0 + index, paramvalue);

	mov	eax, DWORD PTR index$[rsp]
	add	eax, 40					; 00000028H
	mov	r8, QWORD PTR paramvalue$[rsp]
	mov	edx, eax
	lea	rcx, OFFSET FLAT:$SG11445
	call	AddLineQueueX
	jmp	SHORT $LN169@ms64_param
$LN168@ms64_param:

; 507  : 				else if (param->sym.mem_type == MT_REAL4)

	mov	rax, QWORD PTR param$[rsp]
	cmp	DWORD PTR [rax+36], 35			; 00000023H
	jne	SHORT $LN170@ms64_param

; 508  : 					AddLineQueueX("movd %r,dword ptr %s", T_XMM0 + index, paramvalue);

	mov	eax, DWORD PTR index$[rsp]
	add	eax, 40					; 00000028H
	mov	r8, QWORD PTR paramvalue$[rsp]
	mov	edx, eax
	lea	rcx, OFFSET FLAT:$SG11447
	call	AddLineQueueX
$LN170@ms64_param:
$LN169@ms64_param:
$LN165@ms64_param:

; 509  : 			}
; 510  : 			return(1);

	mov	eax, 1
	jmp	$LN1@ms64_param
$LN163@ms64_param:
$LN144@ms64_param:
$LN95@ms64_param:

; 511  :         } 
; 512  :       } 
; 513  : 	if(vcallpass==1)

	cmp	DWORD PTR vcallpass, 1
	jne	SHORT $LN171@ms64_param

; 514  : 		goto vcalldone;

	jmp	$vcalldone$348
$LN171@ms64_param:
$vcall$347:

; 515  : 
; 516  : vcall:     
; 517  : 	  if ((proc->sym.langtype == LANG_VECTORCALL) && (psize == 8) && (param->sym.ttype != 0) && (param->sym.ttype->e.structinfo->isHFA) && (param->sym.mem_type == MT_TYPE)) {

	mov	rax, QWORD PTR proc$[rsp]
	cmp	DWORD PTR [rax+76], 8
	jne	$LN172@ms64_param
	cmp	DWORD PTR psize$[rsp], 8
	jne	$LN172@ms64_param
	mov	rax, QWORD PTR param$[rsp]
	cmp	QWORD PTR [rax+80], 0
	je	$LN172@ms64_param
	mov	rax, QWORD PTR param$[rsp]
	mov	rax, QWORD PTR [rax+80]
	mov	rax, QWORD PTR [rax+96]
	movzx	eax, BYTE PTR [rax+22]
	test	eax, eax
	je	$LN172@ms64_param
	mov	rax, QWORD PTR param$[rsp]
	cmp	DWORD PTR [rax+36], 196			; 000000c4H
	jne	$LN172@ms64_param

; 518  :           /* it can be only HFA data type made of 2 REAL4 */
; 519  :           t = param->sym.ttype;   

	mov	rax, QWORD PTR param$[rsp]
	mov	rax, QWORD PTR [rax+80]
	mov	QWORD PTR t$[rsp], rax

; 520  : 		  if (t != 0 && t->e.structinfo->isHFA && (vcallpass == 1))

	cmp	QWORD PTR t$[rsp], 0
	je	$LN174@ms64_param
	mov	rax, QWORD PTR t$[rsp]
	mov	rax, QWORD PTR [rax+96]
	movzx	eax, BYTE PTR [rax+22]
	test	eax, eax
	je	$LN174@ms64_param
	cmp	DWORD PTR vcallpass, 1
	jne	$LN174@ms64_param

; 521  : 		  {
; 522  :       
; 523  : 			  freevecregs = 0;

	mov	DWORD PTR freevecregs$[rsp], 0

; 524  : 			  vecidx = -1;

	mov	DWORD PTR vecidx$[rsp], -1

; 525  : 			  for (i = 0; i < 6; i++)

	mov	DWORD PTR i$[rsp], 0
	jmp	SHORT $LN10@ms64_param
$LN8@ms64_param:
	mov	eax, DWORD PTR i$[rsp]
	inc	eax
	mov	DWORD PTR i$[rsp], eax
$LN10@ms64_param:
	cmp	DWORD PTR i$[rsp], 6
	jge	SHORT $LN9@ms64_param

; 526  : 			  {
; 527  : 				  if (info->vregs[i] == 0)

	movsxd	rax, DWORD PTR i$[rsp]
	mov	rcx, QWORD PTR info$[rsp]
	movzx	eax, BYTE PTR [rcx+rax+68]
	test	eax, eax
	jne	SHORT $LN175@ms64_param

; 528  : 				  {
; 529  : 					  if (vecidx == -1) vecidx = i;

	cmp	DWORD PTR vecidx$[rsp], -1
	jne	SHORT $LN176@ms64_param
	mov	eax, DWORD PTR i$[rsp]
	mov	DWORD PTR vecidx$[rsp], eax
$LN176@ms64_param:

; 530  : 					  freevecregs++;

	mov	eax, DWORD PTR freevecregs$[rsp]
	inc	eax
	mov	DWORD PTR freevecregs$[rsp], eax
$LN175@ms64_param:

; 531  : 				  }
; 532  : 			  }

	jmp	SHORT $LN8@ms64_param
$LN9@ms64_param:

; 533  : 
; 534  : 			  memberCount = t->e.structinfo->memberCount;

	mov	rax, QWORD PTR t$[rsp]
	mov	rax, QWORD PTR [rax+96]
	mov	eax, DWORD PTR [rax+24]
	mov	DWORD PTR memberCount$[rsp], eax

; 535  : 			  if (memberCount > freevecregs) goto uselea;

	mov	eax, DWORD PTR freevecregs$[rsp]
	cmp	DWORD PTR memberCount$[rsp], eax
	jle	SHORT $LN177@ms64_param
	jmp	$uselea$349
$LN177@ms64_param:

; 536  : 			  membersize = psize / memberCount;     //get the size of a single element which is REAL4 in this case        

	xor	edx, edx
	mov	eax, DWORD PTR psize$[rsp]
	div	DWORD PTR memberCount$[rsp]
	mov	DWORD PTR membersize$[rsp], eax

; 537  : 			  j = 0;

	mov	DWORD PTR j$[rsp], 0

; 538  : 			  tCount = memberCount;

	mov	eax, DWORD PTR memberCount$[rsp]
	mov	DWORD PTR tCount$[rsp], eax
$LN11@ms64_param:

; 539  : 			  while (tCount > 0)

	cmp	DWORD PTR tCount$[rsp], 0
	jle	$LN12@ms64_param

; 540  : 			  {
; 541  : 				  if (info->vregs[vecidx] == 0)

	movsxd	rax, DWORD PTR vecidx$[rsp]
	mov	rcx, QWORD PTR info$[rsp]
	movzx	eax, BYTE PTR [rcx+rax+68]
	test	eax, eax
	jne	$LN178@ms64_param

; 542  : 				  {
; 543  : 					  info->vregs[vecidx] = 1;

	movsxd	rax, DWORD PTR vecidx$[rsp]
	mov	rcx, QWORD PTR info$[rsp]
	mov	BYTE PTR [rcx+rax+68], 1

; 544  : 					  info->vecregs[index] = memberCount;         //store number of members in proper location pointed by index

	movsxd	rax, DWORD PTR index$[rsp]
	mov	rcx, QWORD PTR info$[rsp]
	movzx	edx, BYTE PTR memberCount$[rsp]
	mov	BYTE PTR [rcx+rax+56], dl

; 545  : 					  info->vsize += membersize;                  //vsize contains total size 

	mov	rax, QWORD PTR info$[rsp]
	mov	eax, DWORD PTR [rax+44]
	add	eax, DWORD PTR membersize$[rsp]
	mov	rcx, QWORD PTR info$[rsp]
	mov	DWORD PTR [rcx+44], eax

; 546  : 					  info->vecregsize[vecidx] = membersize;      //size of data tu be put in register

	movsxd	rax, DWORD PTR vecidx$[rsp]
	mov	rcx, QWORD PTR info$[rsp]
	movzx	edx, BYTE PTR membersize$[rsp]
	mov	BYTE PTR [rcx+rax+62], dl

; 547  : 					  info->xyzused[vecidx] = 1;                  //mark that the placeholder for register is used

	movsxd	rax, DWORD PTR vecidx$[rsp]
	mov	rcx, QWORD PTR info$[rsp]
	mov	BYTE PTR [rcx+rax+74], 1

; 548  : 					  AddLineQueueX("vmovss %r,dword ptr [%s+%d]", T_XMM0 + vecidx, paramvalue, j* membersize);

	mov	eax, DWORD PTR j$[rsp]
	imul	eax, DWORD PTR membersize$[rsp]
	mov	ecx, DWORD PTR vecidx$[rsp]
	add	ecx, 40					; 00000028H
	mov	r9d, eax
	mov	r8, QWORD PTR paramvalue$[rsp]
	mov	edx, ecx
	lea	rcx, OFFSET FLAT:$SG11456
	call	AddLineQueueX

; 549  : 					  tCount--;

	mov	eax, DWORD PTR tCount$[rsp]
	dec	eax
	mov	DWORD PTR tCount$[rsp], eax

; 550  : 					  j++;

	mov	eax, DWORD PTR j$[rsp]
	inc	eax
	mov	DWORD PTR j$[rsp], eax
$LN178@ms64_param:

; 551  : 				  }
; 552  : 				  vecidx++;

	mov	eax, DWORD PTR vecidx$[rsp]
	inc	eax
	mov	DWORD PTR vecidx$[rsp], eax

; 553  : 			  }

	jmp	$LN11@ms64_param
$LN12@ms64_param:
$LN174@ms64_param:

; 554  : 		  }
; 555  :     }

	jmp	$LN173@ms64_param
$LN172@ms64_param:

; 556  : 	  else if ((proc->sym.langtype == LANG_VECTORCALL) && (psize == 16) && (param->sym.ttype != 0) && (param->sym.ttype->e.structinfo->isHFA) && (param->sym.mem_type == MT_TYPE)) {

	mov	rax, QWORD PTR proc$[rsp]
	cmp	DWORD PTR [rax+76], 8
	jne	$LN179@ms64_param
	cmp	DWORD PTR psize$[rsp], 16
	jne	$LN179@ms64_param
	mov	rax, QWORD PTR param$[rsp]
	cmp	QWORD PTR [rax+80], 0
	je	$LN179@ms64_param
	mov	rax, QWORD PTR param$[rsp]
	mov	rax, QWORD PTR [rax+80]
	mov	rax, QWORD PTR [rax+96]
	movzx	eax, BYTE PTR [rax+22]
	test	eax, eax
	je	$LN179@ms64_param
	mov	rax, QWORD PTR param$[rsp]
	cmp	DWORD PTR [rax+36], 196			; 000000c4H
	jne	$LN179@ms64_param

; 557  : 		  /* it can be only HFA data type made of 2 REAL8 */
; 558  : 		  t = param->sym.ttype;

	mov	rax, QWORD PTR param$[rsp]
	mov	rax, QWORD PTR [rax+80]
	mov	QWORD PTR t$[rsp], rax

; 559  : 		  if (t != 0 && t->e.structinfo->isHFA && (vcallpass == 1))

	cmp	QWORD PTR t$[rsp], 0
	je	$LN181@ms64_param
	mov	rax, QWORD PTR t$[rsp]
	mov	rax, QWORD PTR [rax+96]
	movzx	eax, BYTE PTR [rax+22]
	test	eax, eax
	je	$LN181@ms64_param
	cmp	DWORD PTR vcallpass, 1
	jne	$LN181@ms64_param

; 560  : 		  {
; 561  : 			  
; 562  : 			  freevecregs = 0;

	mov	DWORD PTR freevecregs$[rsp], 0

; 563  : 			  vecidx = -1;

	mov	DWORD PTR vecidx$[rsp], -1

; 564  : 			  for (i = 0; i < 6; i++)

	mov	DWORD PTR i$[rsp], 0
	jmp	SHORT $LN15@ms64_param
$LN13@ms64_param:
	mov	eax, DWORD PTR i$[rsp]
	inc	eax
	mov	DWORD PTR i$[rsp], eax
$LN15@ms64_param:
	cmp	DWORD PTR i$[rsp], 6
	jge	SHORT $LN14@ms64_param

; 565  : 			  {
; 566  : 				  if (info->vregs[i] == 0)

	movsxd	rax, DWORD PTR i$[rsp]
	mov	rcx, QWORD PTR info$[rsp]
	movzx	eax, BYTE PTR [rcx+rax+68]
	test	eax, eax
	jne	SHORT $LN182@ms64_param

; 567  : 				  {
; 568  : 					  if (vecidx == -1) vecidx = i;

	cmp	DWORD PTR vecidx$[rsp], -1
	jne	SHORT $LN183@ms64_param
	mov	eax, DWORD PTR i$[rsp]
	mov	DWORD PTR vecidx$[rsp], eax
$LN183@ms64_param:

; 569  : 					  freevecregs++;

	mov	eax, DWORD PTR freevecregs$[rsp]
	inc	eax
	mov	DWORD PTR freevecregs$[rsp], eax
$LN182@ms64_param:

; 570  : 				  }
; 571  : 			  }

	jmp	SHORT $LN13@ms64_param
$LN14@ms64_param:

; 572  : 
; 573  : 			  memberCount = t->e.structinfo->memberCount;

	mov	rax, QWORD PTR t$[rsp]
	mov	rax, QWORD PTR [rax+96]
	mov	eax, DWORD PTR [rax+24]
	mov	DWORD PTR memberCount$[rsp], eax

; 574  : 			  if (memberCount > freevecregs) goto uselea;

	mov	eax, DWORD PTR freevecregs$[rsp]
	cmp	DWORD PTR memberCount$[rsp], eax
	jle	SHORT $LN184@ms64_param
	jmp	$uselea$349
$LN184@ms64_param:

; 575  : 			  membersize = psize / memberCount;          //get the size of a single element which is REAL4 in this case        

	xor	edx, edx
	mov	eax, DWORD PTR psize$[rsp]
	div	DWORD PTR memberCount$[rsp]
	mov	DWORD PTR membersize$[rsp], eax

; 576  : 			  j = 0;

	mov	DWORD PTR j$[rsp], 0

; 577  : 			  tCount = memberCount;

	mov	eax, DWORD PTR memberCount$[rsp]
	mov	DWORD PTR tCount$[rsp], eax

; 578  : 			  if (membersize == 8)

	cmp	DWORD PTR membersize$[rsp], 8
	jne	$LN185@ms64_param
$LN16@ms64_param:

; 579  : 			  {
; 580  : 				  while (tCount > 0)

	cmp	DWORD PTR tCount$[rsp], 0
	jle	$LN17@ms64_param

; 581  : 				  {
; 582  : 					  if (info->vregs[vecidx] == 0)

	movsxd	rax, DWORD PTR vecidx$[rsp]
	mov	rcx, QWORD PTR info$[rsp]
	movzx	eax, BYTE PTR [rcx+rax+68]
	test	eax, eax
	jne	$LN187@ms64_param

; 583  : 					  {
; 584  : 						  info->vregs[vecidx] = 1;

	movsxd	rax, DWORD PTR vecidx$[rsp]
	mov	rcx, QWORD PTR info$[rsp]
	mov	BYTE PTR [rcx+rax+68], 1

; 585  : 						  info->vecregs[index] = memberCount;        //store number of members in proper location pointed by index

	movsxd	rax, DWORD PTR index$[rsp]
	mov	rcx, QWORD PTR info$[rsp]
	movzx	edx, BYTE PTR memberCount$[rsp]
	mov	BYTE PTR [rcx+rax+56], dl

; 586  : 						  info->vsize += membersize;                      //vsize contains total size 

	mov	rax, QWORD PTR info$[rsp]
	mov	eax, DWORD PTR [rax+44]
	add	eax, DWORD PTR membersize$[rsp]
	mov	rcx, QWORD PTR info$[rsp]
	mov	DWORD PTR [rcx+44], eax

; 587  : 						  info->vecregsize[vecidx] = membersize;      //size of data tu be put in register

	movsxd	rax, DWORD PTR vecidx$[rsp]
	mov	rcx, QWORD PTR info$[rsp]
	movzx	edx, BYTE PTR membersize$[rsp]
	mov	BYTE PTR [rcx+rax+62], dl

; 588  : 						  info->xyzused[vecidx] = 1;                  //mark that the placeholder for register is used

	movsxd	rax, DWORD PTR vecidx$[rsp]
	mov	rcx, QWORD PTR info$[rsp]
	mov	BYTE PTR [rcx+rax+74], 1

; 589  : 						  AddLineQueueX("vmovsd %r,qword ptr [%s+%d]", T_XMM0 + vecidx, paramvalue, j * membersize);

	mov	eax, DWORD PTR j$[rsp]
	imul	eax, DWORD PTR membersize$[rsp]
	mov	ecx, DWORD PTR vecidx$[rsp]
	add	ecx, 40					; 00000028H
	mov	r9d, eax
	mov	r8, QWORD PTR paramvalue$[rsp]
	mov	edx, ecx
	lea	rcx, OFFSET FLAT:$SG11466
	call	AddLineQueueX

; 590  : 						  tCount--;

	mov	eax, DWORD PTR tCount$[rsp]
	dec	eax
	mov	DWORD PTR tCount$[rsp], eax

; 591  : 						  j++;

	mov	eax, DWORD PTR j$[rsp]
	inc	eax
	mov	DWORD PTR j$[rsp], eax
$LN187@ms64_param:

; 592  : 					  }
; 593  : 					  vecidx++;

	mov	eax, DWORD PTR vecidx$[rsp]
	inc	eax
	mov	DWORD PTR vecidx$[rsp], eax

; 594  : 				  }

	jmp	$LN16@ms64_param
$LN17@ms64_param:

; 595  : 			  }

	jmp	$LN186@ms64_param
$LN185@ms64_param:

; 596  : 			  /* HFA data type made of 4 REAL4 */
; 597  : 			  else if (membersize == 4)

	cmp	DWORD PTR membersize$[rsp], 4
	jne	$LN188@ms64_param
$LN18@ms64_param:

; 598  : 			  {
; 599  : 				  while (tCount > 0)

	cmp	DWORD PTR tCount$[rsp], 0
	jle	$LN19@ms64_param

; 600  : 				  {
; 601  : 					  if (info->vregs[vecidx] == 0)

	movsxd	rax, DWORD PTR vecidx$[rsp]
	mov	rcx, QWORD PTR info$[rsp]
	movzx	eax, BYTE PTR [rcx+rax+68]
	test	eax, eax
	jne	$LN189@ms64_param

; 602  : 					  {
; 603  : 						  info->vregs[vecidx] = 1;

	movsxd	rax, DWORD PTR vecidx$[rsp]
	mov	rcx, QWORD PTR info$[rsp]
	mov	BYTE PTR [rcx+rax+68], 1

; 604  : 						  info->vecregs[index] = memberCount;         //store number of members in proper location pointed by index

	movsxd	rax, DWORD PTR index$[rsp]
	mov	rcx, QWORD PTR info$[rsp]
	movzx	edx, BYTE PTR memberCount$[rsp]
	mov	BYTE PTR [rcx+rax+56], dl

; 605  : 						  info->vsize += membersize;                  //vsize contains total size 

	mov	rax, QWORD PTR info$[rsp]
	mov	eax, DWORD PTR [rax+44]
	add	eax, DWORD PTR membersize$[rsp]
	mov	rcx, QWORD PTR info$[rsp]
	mov	DWORD PTR [rcx+44], eax

; 606  : 						  info->vecregsize[vecidx] = membersize;      //size of data tu be put in register

	movsxd	rax, DWORD PTR vecidx$[rsp]
	mov	rcx, QWORD PTR info$[rsp]
	movzx	edx, BYTE PTR membersize$[rsp]
	mov	BYTE PTR [rcx+rax+62], dl

; 607  : 						  info->xyzused[vecidx] = 1;                  //mark that the placeholder for register is used

	movsxd	rax, DWORD PTR vecidx$[rsp]
	mov	rcx, QWORD PTR info$[rsp]
	mov	BYTE PTR [rcx+rax+74], 1

; 608  : 						  AddLineQueueX("vmovss %r,dword ptr [%s+%d]", T_XMM0 + vecidx, paramvalue, j * membersize);

	mov	eax, DWORD PTR j$[rsp]
	imul	eax, DWORD PTR membersize$[rsp]
	mov	ecx, DWORD PTR vecidx$[rsp]
	add	ecx, 40					; 00000028H
	mov	r9d, eax
	mov	r8, QWORD PTR paramvalue$[rsp]
	mov	edx, ecx
	lea	rcx, OFFSET FLAT:$SG11469
	call	AddLineQueueX

; 609  : 						  tCount--;

	mov	eax, DWORD PTR tCount$[rsp]
	dec	eax
	mov	DWORD PTR tCount$[rsp], eax

; 610  : 						  j++;

	mov	eax, DWORD PTR j$[rsp]
	inc	eax
	mov	DWORD PTR j$[rsp], eax
$LN189@ms64_param:

; 611  : 					  }
; 612  : 					  vecidx++;

	mov	eax, DWORD PTR vecidx$[rsp]
	inc	eax
	mov	DWORD PTR vecidx$[rsp], eax

; 613  : 				  }

	jmp	$LN18@ms64_param
$LN19@ms64_param:
$LN188@ms64_param:
$LN186@ms64_param:
$LN181@ms64_param:

; 614  : 			  }
; 615  : 		  }
; 616  : 	  }

	jmp	$LN180@ms64_param
$LN179@ms64_param:

; 617  :       else if ((proc->sym.langtype == LANG_VECTORCALL) && (psize == 12) && (param->sym.ttype != 0) && (param->sym.ttype->e.structinfo->isHFA) && (param->sym.mem_type == MT_TYPE)) {

	mov	rax, QWORD PTR proc$[rsp]
	cmp	DWORD PTR [rax+76], 8
	jne	$LN190@ms64_param
	cmp	DWORD PTR psize$[rsp], 12
	jne	$LN190@ms64_param
	mov	rax, QWORD PTR param$[rsp]
	cmp	QWORD PTR [rax+80], 0
	je	$LN190@ms64_param
	mov	rax, QWORD PTR param$[rsp]
	mov	rax, QWORD PTR [rax+80]
	mov	rax, QWORD PTR [rax+96]
	movzx	eax, BYTE PTR [rax+22]
	test	eax, eax
	je	$LN190@ms64_param
	mov	rax, QWORD PTR param$[rsp]
	cmp	DWORD PTR [rax+36], 196			; 000000c4H
	jne	$LN190@ms64_param

; 618  : 		  /* it can be only HFA data type made of 3 REAL4 */
; 619  : 		  t = param->sym.ttype;

	mov	rax, QWORD PTR param$[rsp]
	mov	rax, QWORD PTR [rax+80]
	mov	QWORD PTR t$[rsp], rax

; 620  : 		  if (t != 0 && t->e.structinfo->isHFA && (vcallpass == 1))

	cmp	QWORD PTR t$[rsp], 0
	je	$LN192@ms64_param
	mov	rax, QWORD PTR t$[rsp]
	mov	rax, QWORD PTR [rax+96]
	movzx	eax, BYTE PTR [rax+22]
	test	eax, eax
	je	$LN192@ms64_param
	cmp	DWORD PTR vcallpass, 1
	jne	$LN192@ms64_param

; 621  : 		  {
; 622  : 			  freevecregs = 0;

	mov	DWORD PTR freevecregs$[rsp], 0

; 623  : 			  vecidx = -1;

	mov	DWORD PTR vecidx$[rsp], -1

; 624  : 			  for (i = 0; i < 6; i++)

	mov	DWORD PTR i$[rsp], 0
	jmp	SHORT $LN22@ms64_param
$LN20@ms64_param:
	mov	eax, DWORD PTR i$[rsp]
	inc	eax
	mov	DWORD PTR i$[rsp], eax
$LN22@ms64_param:
	cmp	DWORD PTR i$[rsp], 6
	jge	SHORT $LN21@ms64_param

; 625  : 			  {
; 626  : 				  if (info->vregs[i] == 0)

	movsxd	rax, DWORD PTR i$[rsp]
	mov	rcx, QWORD PTR info$[rsp]
	movzx	eax, BYTE PTR [rcx+rax+68]
	test	eax, eax
	jne	SHORT $LN193@ms64_param

; 627  : 				  {
; 628  : 					  if (vecidx == -1) vecidx = i;

	cmp	DWORD PTR vecidx$[rsp], -1
	jne	SHORT $LN194@ms64_param
	mov	eax, DWORD PTR i$[rsp]
	mov	DWORD PTR vecidx$[rsp], eax
$LN194@ms64_param:

; 629  : 					  freevecregs++;

	mov	eax, DWORD PTR freevecregs$[rsp]
	inc	eax
	mov	DWORD PTR freevecregs$[rsp], eax
$LN193@ms64_param:

; 630  : 				  }
; 631  : 			  }

	jmp	SHORT $LN20@ms64_param
$LN21@ms64_param:

; 632  : 
; 633  : 			  memberCount = t->e.structinfo->memberCount;

	mov	rax, QWORD PTR t$[rsp]
	mov	rax, QWORD PTR [rax+96]
	mov	eax, DWORD PTR [rax+24]
	mov	DWORD PTR memberCount$[rsp], eax

; 634  : 			  if (memberCount > freevecregs) goto uselea;

	mov	eax, DWORD PTR freevecregs$[rsp]
	cmp	DWORD PTR memberCount$[rsp], eax
	jle	SHORT $LN195@ms64_param
	jmp	$uselea$349
$LN195@ms64_param:

; 635  : 			  membersize = psize / memberCount;               //get the size of a single element which is REAL4 in this case        

	xor	edx, edx
	mov	eax, DWORD PTR psize$[rsp]
	div	DWORD PTR memberCount$[rsp]
	mov	DWORD PTR membersize$[rsp], eax

; 636  : 			  j = 0;

	mov	DWORD PTR j$[rsp], 0

; 637  : 			  tCount = memberCount;

	mov	eax, DWORD PTR memberCount$[rsp]
	mov	DWORD PTR tCount$[rsp], eax
$LN23@ms64_param:

; 638  : 			  while (tCount > 0)

	cmp	DWORD PTR tCount$[rsp], 0
	jle	$LN24@ms64_param

; 639  : 			  {
; 640  : 				  if (info->vregs[vecidx] == 0)

	movsxd	rax, DWORD PTR vecidx$[rsp]
	mov	rcx, QWORD PTR info$[rsp]
	movzx	eax, BYTE PTR [rcx+rax+68]
	test	eax, eax
	jne	$LN196@ms64_param

; 641  : 				  {
; 642  : 					  info->vregs[vecidx] = 1;

	movsxd	rax, DWORD PTR vecidx$[rsp]
	mov	rcx, QWORD PTR info$[rsp]
	mov	BYTE PTR [rcx+rax+68], 1

; 643  : 					  info->vecregs[index] = memberCount;         //store number of members in proper location pointed by index

	movsxd	rax, DWORD PTR index$[rsp]
	mov	rcx, QWORD PTR info$[rsp]
	movzx	edx, BYTE PTR memberCount$[rsp]
	mov	BYTE PTR [rcx+rax+56], dl

; 644  : 					  info->vsize += membersize;                  //vsize contains total size 

	mov	rax, QWORD PTR info$[rsp]
	mov	eax, DWORD PTR [rax+44]
	add	eax, DWORD PTR membersize$[rsp]
	mov	rcx, QWORD PTR info$[rsp]
	mov	DWORD PTR [rcx+44], eax

; 645  : 					  info->vecregsize[vecidx] = membersize;      //size of data tu be put in register

	movsxd	rax, DWORD PTR vecidx$[rsp]
	mov	rcx, QWORD PTR info$[rsp]
	movzx	edx, BYTE PTR membersize$[rsp]
	mov	BYTE PTR [rcx+rax+62], dl

; 646  : 					  info->xyzused[vecidx] = 1;                  //mark that the placeholder for register is used

	movsxd	rax, DWORD PTR vecidx$[rsp]
	mov	rcx, QWORD PTR info$[rsp]
	mov	BYTE PTR [rcx+rax+74], 1

; 647  : 					  AddLineQueueX("vmovss %r,dword ptr [%s+%d]", T_XMM0 + vecidx, paramvalue, j * membersize);

	mov	eax, DWORD PTR j$[rsp]
	imul	eax, DWORD PTR membersize$[rsp]
	mov	ecx, DWORD PTR vecidx$[rsp]
	add	ecx, 40					; 00000028H
	mov	r9d, eax
	mov	r8, QWORD PTR paramvalue$[rsp]
	mov	edx, ecx
	lea	rcx, OFFSET FLAT:$SG11477
	call	AddLineQueueX

; 648  : 					  tCount--;

	mov	eax, DWORD PTR tCount$[rsp]
	dec	eax
	mov	DWORD PTR tCount$[rsp], eax

; 649  : 					  j++;

	mov	eax, DWORD PTR j$[rsp]
	inc	eax
	mov	DWORD PTR j$[rsp], eax
$LN196@ms64_param:

; 650  : 				  }
; 651  : 				  vecidx++;

	mov	eax, DWORD PTR vecidx$[rsp]
	inc	eax
	mov	DWORD PTR vecidx$[rsp], eax

; 652  : 			  }

	jmp	$LN23@ms64_param
$LN24@ms64_param:
$LN192@ms64_param:

; 653  : 		  }
; 654  : 	  }

	jmp	$LN191@ms64_param
$LN190@ms64_param:

; 655  :       else if ((proc->sym.langtype == LANG_VECTORCALL) && (psize == 24) && (param->sym.ttype != 0) && (param->sym.ttype->e.structinfo->isHFA) && (param->sym.mem_type == MT_TYPE)) {

	mov	rax, QWORD PTR proc$[rsp]
	cmp	DWORD PTR [rax+76], 8
	jne	$LN197@ms64_param
	cmp	DWORD PTR psize$[rsp], 24
	jne	$LN197@ms64_param
	mov	rax, QWORD PTR param$[rsp]
	cmp	QWORD PTR [rax+80], 0
	je	$LN197@ms64_param
	mov	rax, QWORD PTR param$[rsp]
	mov	rax, QWORD PTR [rax+80]
	mov	rax, QWORD PTR [rax+96]
	movzx	eax, BYTE PTR [rax+22]
	test	eax, eax
	je	$LN197@ms64_param
	mov	rax, QWORD PTR param$[rsp]
	cmp	DWORD PTR [rax+36], 196			; 000000c4H
	jne	$LN197@ms64_param

; 656  : 		  /* it can be only HFA data type made of 3 REAL8 */
; 657  : 		  t = param->sym.ttype;

	mov	rax, QWORD PTR param$[rsp]
	mov	rax, QWORD PTR [rax+80]
	mov	QWORD PTR t$[rsp], rax

; 658  : 		  if (t != 0 && t->e.structinfo->isHFA && (vcallpass == 1))

	cmp	QWORD PTR t$[rsp], 0
	je	$LN199@ms64_param
	mov	rax, QWORD PTR t$[rsp]
	mov	rax, QWORD PTR [rax+96]
	movzx	eax, BYTE PTR [rax+22]
	test	eax, eax
	je	$LN199@ms64_param
	cmp	DWORD PTR vcallpass, 1
	jne	$LN199@ms64_param

; 659  : 		  {
; 660  : 
; 661  : 			  freevecregs = 0;

	mov	DWORD PTR freevecregs$[rsp], 0

; 662  : 			  vecidx = -1;

	mov	DWORD PTR vecidx$[rsp], -1

; 663  : 			  for (i = 0; i < 6; i++)

	mov	DWORD PTR i$[rsp], 0
	jmp	SHORT $LN27@ms64_param
$LN25@ms64_param:
	mov	eax, DWORD PTR i$[rsp]
	inc	eax
	mov	DWORD PTR i$[rsp], eax
$LN27@ms64_param:
	cmp	DWORD PTR i$[rsp], 6
	jge	SHORT $LN26@ms64_param

; 664  : 			  {
; 665  : 				  if (info->vregs[i] == 0)

	movsxd	rax, DWORD PTR i$[rsp]
	mov	rcx, QWORD PTR info$[rsp]
	movzx	eax, BYTE PTR [rcx+rax+68]
	test	eax, eax
	jne	SHORT $LN200@ms64_param

; 666  : 				  {
; 667  : 					  if (vecidx == -1) vecidx = i;

	cmp	DWORD PTR vecidx$[rsp], -1
	jne	SHORT $LN201@ms64_param
	mov	eax, DWORD PTR i$[rsp]
	mov	DWORD PTR vecidx$[rsp], eax
$LN201@ms64_param:

; 668  : 					  freevecregs++;

	mov	eax, DWORD PTR freevecregs$[rsp]
	inc	eax
	mov	DWORD PTR freevecregs$[rsp], eax
$LN200@ms64_param:

; 669  : 				  }
; 670  : 			  }

	jmp	SHORT $LN25@ms64_param
$LN26@ms64_param:

; 671  : 
; 672  : 			  memberCount = t->e.structinfo->memberCount;

	mov	rax, QWORD PTR t$[rsp]
	mov	rax, QWORD PTR [rax+96]
	mov	eax, DWORD PTR [rax+24]
	mov	DWORD PTR memberCount$[rsp], eax

; 673  : 			  if (memberCount > freevecregs) goto uselea;

	mov	eax, DWORD PTR freevecregs$[rsp]
	cmp	DWORD PTR memberCount$[rsp], eax
	jle	SHORT $LN202@ms64_param
	jmp	$uselea$349
$LN202@ms64_param:

; 674  : 			  membersize = psize / memberCount;          //get the size of a single element which is REAL4 in this case        

	xor	edx, edx
	mov	eax, DWORD PTR psize$[rsp]
	div	DWORD PTR memberCount$[rsp]
	mov	DWORD PTR membersize$[rsp], eax

; 675  : 			  j = 0;

	mov	DWORD PTR j$[rsp], 0

; 676  : 			  tCount = memberCount;

	mov	eax, DWORD PTR memberCount$[rsp]
	mov	DWORD PTR tCount$[rsp], eax
$LN28@ms64_param:

; 677  : 			  while (tCount > 0)

	cmp	DWORD PTR tCount$[rsp], 0
	jle	$LN29@ms64_param

; 678  : 			  {
; 679  : 				  if (info->vregs[vecidx] == 0)

	movsxd	rax, DWORD PTR vecidx$[rsp]
	mov	rcx, QWORD PTR info$[rsp]
	movzx	eax, BYTE PTR [rcx+rax+68]
	test	eax, eax
	jne	$LN203@ms64_param

; 680  : 				  {
; 681  : 					  info->vregs[vecidx] = 1;

	movsxd	rax, DWORD PTR vecidx$[rsp]
	mov	rcx, QWORD PTR info$[rsp]
	mov	BYTE PTR [rcx+rax+68], 1

; 682  : 					  info->vecregs[index] = memberCount;        //store number of members in proper location pointed by index

	movsxd	rax, DWORD PTR index$[rsp]
	mov	rcx, QWORD PTR info$[rsp]
	movzx	edx, BYTE PTR memberCount$[rsp]
	mov	BYTE PTR [rcx+rax+56], dl

; 683  : 					  info->vsize += membersize;                      //vsize contains total size 

	mov	rax, QWORD PTR info$[rsp]
	mov	eax, DWORD PTR [rax+44]
	add	eax, DWORD PTR membersize$[rsp]
	mov	rcx, QWORD PTR info$[rsp]
	mov	DWORD PTR [rcx+44], eax

; 684  : 					  info->vecregsize[vecidx] = membersize;      //size of data tu be put in register

	movsxd	rax, DWORD PTR vecidx$[rsp]
	mov	rcx, QWORD PTR info$[rsp]
	movzx	edx, BYTE PTR membersize$[rsp]
	mov	BYTE PTR [rcx+rax+62], dl

; 685  : 					  info->xyzused[vecidx] = 1;                  //mark that the placeholder for register is used

	movsxd	rax, DWORD PTR vecidx$[rsp]
	mov	rcx, QWORD PTR info$[rsp]
	mov	BYTE PTR [rcx+rax+74], 1

; 686  : 					  AddLineQueueX("vmovsd %r,qword ptr [%s+%d]", T_XMM0 + vecidx, paramvalue, j * membersize);

	mov	eax, DWORD PTR j$[rsp]
	imul	eax, DWORD PTR membersize$[rsp]
	mov	ecx, DWORD PTR vecidx$[rsp]
	add	ecx, 40					; 00000028H
	mov	r9d, eax
	mov	r8, QWORD PTR paramvalue$[rsp]
	mov	edx, ecx
	lea	rcx, OFFSET FLAT:$SG11485
	call	AddLineQueueX

; 687  : 					  tCount--;

	mov	eax, DWORD PTR tCount$[rsp]
	dec	eax
	mov	DWORD PTR tCount$[rsp], eax

; 688  : 					  j++;

	mov	eax, DWORD PTR j$[rsp]
	inc	eax
	mov	DWORD PTR j$[rsp], eax
$LN203@ms64_param:

; 689  : 				  }
; 690  : 				  vecidx++;

	mov	eax, DWORD PTR vecidx$[rsp]
	inc	eax
	mov	DWORD PTR vecidx$[rsp], eax

; 691  : 			  }

	jmp	$LN28@ms64_param
$LN29@ms64_param:
$LN199@ms64_param:

; 692  : 		  }
; 693  :       }

	jmp	$LN198@ms64_param
$LN197@ms64_param:

; 694  : 	  else if ((proc->sym.langtype == LANG_VECTORCALL) && (psize == 32) && (param->sym.ttype != 0) && (param->sym.ttype->e.structinfo->isHFA) && (param->sym.mem_type == MT_TYPE)) {

	mov	rax, QWORD PTR proc$[rsp]
	cmp	DWORD PTR [rax+76], 8
	jne	$LN204@ms64_param
	cmp	DWORD PTR psize$[rsp], 32		; 00000020H
	jne	$LN204@ms64_param
	mov	rax, QWORD PTR param$[rsp]
	cmp	QWORD PTR [rax+80], 0
	je	$LN204@ms64_param
	mov	rax, QWORD PTR param$[rsp]
	mov	rax, QWORD PTR [rax+80]
	mov	rax, QWORD PTR [rax+96]
	movzx	eax, BYTE PTR [rax+22]
	test	eax, eax
	je	$LN204@ms64_param
	mov	rax, QWORD PTR param$[rsp]
	cmp	DWORD PTR [rax+36], 196			; 000000c4H
	jne	$LN204@ms64_param

; 695  : 		  /* it can be only HFA data type made of 4 REAL8 */
; 696  : 		  t = param->sym.ttype;

	mov	rax, QWORD PTR param$[rsp]
	mov	rax, QWORD PTR [rax+80]
	mov	QWORD PTR t$[rsp], rax

; 697  : 		  if (t != 0 && t->e.structinfo->isHFA && (vcallpass == 1))

	cmp	QWORD PTR t$[rsp], 0
	je	$LN206@ms64_param
	mov	rax, QWORD PTR t$[rsp]
	mov	rax, QWORD PTR [rax+96]
	movzx	eax, BYTE PTR [rax+22]
	test	eax, eax
	je	$LN206@ms64_param
	cmp	DWORD PTR vcallpass, 1
	jne	$LN206@ms64_param

; 698  : 		  {
; 699  : 
; 700  : 			  freevecregs = 0;

	mov	DWORD PTR freevecregs$[rsp], 0

; 701  : 			  vecidx = -1;

	mov	DWORD PTR vecidx$[rsp], -1

; 702  : 			  for (i = 0; i < 6; i++)

	mov	DWORD PTR i$[rsp], 0
	jmp	SHORT $LN32@ms64_param
$LN30@ms64_param:
	mov	eax, DWORD PTR i$[rsp]
	inc	eax
	mov	DWORD PTR i$[rsp], eax
$LN32@ms64_param:
	cmp	DWORD PTR i$[rsp], 6
	jge	SHORT $LN31@ms64_param

; 703  : 			  {
; 704  : 				  if (info->vregs[i] == 0)

	movsxd	rax, DWORD PTR i$[rsp]
	mov	rcx, QWORD PTR info$[rsp]
	movzx	eax, BYTE PTR [rcx+rax+68]
	test	eax, eax
	jne	SHORT $LN207@ms64_param

; 705  : 				  {
; 706  : 					  if (vecidx == -1) vecidx = i;

	cmp	DWORD PTR vecidx$[rsp], -1
	jne	SHORT $LN208@ms64_param
	mov	eax, DWORD PTR i$[rsp]
	mov	DWORD PTR vecidx$[rsp], eax
$LN208@ms64_param:

; 707  : 					  freevecregs++;

	mov	eax, DWORD PTR freevecregs$[rsp]
	inc	eax
	mov	DWORD PTR freevecregs$[rsp], eax
$LN207@ms64_param:

; 708  : 				  }
; 709  : 			  }

	jmp	SHORT $LN30@ms64_param
$LN31@ms64_param:

; 710  : 
; 711  : 			  memberCount = t->e.structinfo->memberCount;

	mov	rax, QWORD PTR t$[rsp]
	mov	rax, QWORD PTR [rax+96]
	mov	eax, DWORD PTR [rax+24]
	mov	DWORD PTR memberCount$[rsp], eax

; 712  : 			  if (memberCount > freevecregs) goto uselea;

	mov	eax, DWORD PTR freevecregs$[rsp]
	cmp	DWORD PTR memberCount$[rsp], eax
	jle	SHORT $LN209@ms64_param
	jmp	$uselea$349
$LN209@ms64_param:

; 713  : 			  membersize = psize / memberCount;          //get the size of a single element which is REAL4 in this case        

	xor	edx, edx
	mov	eax, DWORD PTR psize$[rsp]
	div	DWORD PTR memberCount$[rsp]
	mov	DWORD PTR membersize$[rsp], eax

; 714  : 			  j = 0;

	mov	DWORD PTR j$[rsp], 0

; 715  : 			  tCount = memberCount;

	mov	eax, DWORD PTR memberCount$[rsp]
	mov	DWORD PTR tCount$[rsp], eax
$LN33@ms64_param:

; 716  : 			  while (tCount > 0)

	cmp	DWORD PTR tCount$[rsp], 0
	jle	$LN34@ms64_param

; 717  : 			  {
; 718  : 				  if (info->vregs[vecidx] == 0)

	movsxd	rax, DWORD PTR vecidx$[rsp]
	mov	rcx, QWORD PTR info$[rsp]
	movzx	eax, BYTE PTR [rcx+rax+68]
	test	eax, eax
	jne	$LN210@ms64_param

; 719  : 				  {
; 720  : 					  info->vregs[vecidx] = 1;

	movsxd	rax, DWORD PTR vecidx$[rsp]
	mov	rcx, QWORD PTR info$[rsp]
	mov	BYTE PTR [rcx+rax+68], 1

; 721  : 					  info->vecregs[index] = memberCount;        //store number of members in proper location pointed by index

	movsxd	rax, DWORD PTR index$[rsp]
	mov	rcx, QWORD PTR info$[rsp]
	movzx	edx, BYTE PTR memberCount$[rsp]
	mov	BYTE PTR [rcx+rax+56], dl

; 722  : 					  info->vsize += membersize;                      //vsize contains total size 

	mov	rax, QWORD PTR info$[rsp]
	mov	eax, DWORD PTR [rax+44]
	add	eax, DWORD PTR membersize$[rsp]
	mov	rcx, QWORD PTR info$[rsp]
	mov	DWORD PTR [rcx+44], eax

; 723  : 					  info->vecregsize[vecidx] = membersize;      //size of data tu be put in register

	movsxd	rax, DWORD PTR vecidx$[rsp]
	mov	rcx, QWORD PTR info$[rsp]
	movzx	edx, BYTE PTR membersize$[rsp]
	mov	BYTE PTR [rcx+rax+62], dl

; 724  : 					  info->xyzused[vecidx] = 1;                  //mark that the placeholder for register is used

	movsxd	rax, DWORD PTR vecidx$[rsp]
	mov	rcx, QWORD PTR info$[rsp]
	mov	BYTE PTR [rcx+rax+74], 1

; 725  : 					  AddLineQueueX("vmovsd %r,qword ptr [%s+%d]", T_XMM0 + vecidx, paramvalue, j * 8);

	mov	eax, DWORD PTR j$[rsp]
	shl	eax, 3
	mov	ecx, DWORD PTR vecidx$[rsp]
	add	ecx, 40					; 00000028H
	mov	r9d, eax
	mov	r8, QWORD PTR paramvalue$[rsp]
	mov	edx, ecx
	lea	rcx, OFFSET FLAT:$SG11493
	call	AddLineQueueX

; 726  : 					  tCount--;

	mov	eax, DWORD PTR tCount$[rsp]
	dec	eax
	mov	DWORD PTR tCount$[rsp], eax

; 727  : 					  j++;

	mov	eax, DWORD PTR j$[rsp]
	inc	eax
	mov	DWORD PTR j$[rsp], eax
$LN210@ms64_param:

; 728  : 				  }
; 729  : 				  vecidx++;

	mov	eax, DWORD PTR vecidx$[rsp]
	inc	eax
	mov	DWORD PTR vecidx$[rsp], eax

; 730  : 			  }

	jmp	$LN33@ms64_param
$LN34@ms64_param:
$LN206@ms64_param:

; 731  : 		  }
; 732  : 	  }

	jmp	$LN205@ms64_param
$LN204@ms64_param:

; 733  : 
; 734  :       else {
; 735  :       if ( addr || psize > 8 ) { /* psize > 8 should happen only for vectorcall */

	movzx	eax, BYTE PTR addr$[rsp]
	test	eax, eax
	jne	SHORT $LN212@ms64_param
	cmp	DWORD PTR psize$[rsp], 8
	jbe	$LN211@ms64_param
$LN212@ms64_param:

; 736  : 		  if (psize >= 4) {

	cmp	DWORD PTR psize$[rsp], 4
	jb	$LN213@ms64_param

; 737  : 			  if (proc->sym.langtype == LANG_VECTORCALL) {

	mov	rax, QWORD PTR proc$[rsp]
	cmp	DWORD PTR [rax+76], 8
	jne	$LN215@ms64_param

; 738  : 				  if ((param->sym.mem_type == MT_TYPE)) {

	mov	rax, QWORD PTR param$[rsp]
	cmp	DWORD PTR [rax+36], 196			; 000000c4H
	jne	$LN217@ms64_param

; 739  : 					  t = param->sym.ttype;

	mov	rax, QWORD PTR param$[rsp]
	mov	rax, QWORD PTR [rax+80]
	mov	QWORD PTR t$[rsp], rax

; 740  : 
; 741  : 					  if (vcallpass == 0 && opnd->kind == EXPR_REG && opnd->indirect == FALSE && reg < T_XMM6 && index < 6 && info->vecregs[(reg - T_XMM0)] != 0 && (index != reg-T_XMM0))

	cmp	DWORD PTR vcallpass, 0
	jne	SHORT $LN219@ms64_param
	mov	rax, QWORD PTR opnd$[rsp]
	cmp	DWORD PTR [rax+60], 2
	jne	SHORT $LN219@ms64_param
	mov	rax, QWORD PTR opnd$[rsp]
	mov	eax, DWORD PTR [rax+72]
	and	eax, 1
	test	eax, eax
	jne	SHORT $LN219@ms64_param
	cmp	DWORD PTR reg$[rsp], 46			; 0000002eH
	jge	SHORT $LN219@ms64_param
	cmp	DWORD PTR index$[rsp], 6
	jge	SHORT $LN219@ms64_param
	mov	eax, DWORD PTR reg$[rsp]
	sub	eax, 40					; 00000028H
	cdqe
	mov	rcx, QWORD PTR info$[rsp]
	movzx	eax, BYTE PTR [rcx+rax+56]
	test	eax, eax
	je	SHORT $LN219@ms64_param
	mov	eax, DWORD PTR reg$[rsp]
	sub	eax, 40					; 00000028H
	cmp	DWORD PTR index$[rsp], eax
	je	SHORT $LN219@ms64_param

; 742  : 					  {
; 743  : 						  EmitErr(REGISTER_VALUE_OVERWRITTEN_BY_INVOKE, index);

	mov	edx, DWORD PTR index$[rsp]
	mov	ecx, 165				; 000000a5H
	call	EmitErr

; 744  : 						  return(1);

	mov	eax, 1
	jmp	$LN1@ms64_param
$LN219@ms64_param:

; 745  : 					  }
; 746  : 
; 747  : 					  if (t->e.structinfo->stype == MM128 && vcallpass==0) {

	mov	rax, QWORD PTR t$[rsp]
	mov	rax, QWORD PTR [rax+96]
	cmp	DWORD PTR [rax+16], 1
	jne	$LN220@ms64_param
	cmp	DWORD PTR vcallpass, 0
	jne	$LN220@ms64_param

; 748  : 						  if (opnd->kind == EXPR_REG && opnd->indirect == FALSE) {

	mov	rax, QWORD PTR opnd$[rsp]
	cmp	DWORD PTR [rax+60], 2
	jne	$LN222@ms64_param
	mov	rax, QWORD PTR opnd$[rsp]
	mov	eax, DWORD PTR [rax+72]
	and	eax, 1
	test	eax, eax
	jne	$LN222@ms64_param

; 749  : 							  if ((GetValueSp(reg) & OP_XMM)|| t->e.structinfo->isHFA ) {

	movsxd	rax, DWORD PTR reg$[rsp]
	imul	rax, rax, 12
	lea	rcx, OFFSET FLAT:SpecialTable
	mov	eax, DWORD PTR [rcx+rax]
	and	eax, 32					; 00000020H
	test	eax, eax
	jne	SHORT $LN224@ms64_param
	mov	rax, QWORD PTR t$[rsp]
	mov	rax, QWORD PTR [rax+96]
	movzx	eax, BYTE PTR [rax+22]
	test	eax, eax
	je	$LN223@ms64_param
$LN224@ms64_param:

; 750  : 
; 751  : 								  t->e.structinfo->memberCount = 1;

	mov	rax, QWORD PTR t$[rsp]
	mov	rax, QWORD PTR [rax+96]
	mov	DWORD PTR [rax+24], 1

; 752  : 								  info->vregs[index] = 1;

	movsxd	rax, DWORD PTR index$[rsp]
	mov	rcx, QWORD PTR info$[rsp]
	mov	BYTE PTR [rcx+rax+68], 1

; 753  : 								  info->vecregs[index] = 1;

	movsxd	rax, DWORD PTR index$[rsp]
	mov	rcx, QWORD PTR info$[rsp]
	mov	BYTE PTR [rcx+rax+56], 1

; 754  : 								  info->xyzused[index] = 1;

	movsxd	rax, DWORD PTR index$[rsp]
	mov	rcx, QWORD PTR info$[rsp]
	mov	BYTE PTR [rcx+rax+74], 1

; 755  : 								  info->vsize += 16;

	mov	rax, QWORD PTR info$[rsp]
	mov	eax, DWORD PTR [rax+44]
	add	eax, 16
	mov	rcx, QWORD PTR info$[rsp]
	mov	DWORD PTR [rcx+44], eax

; 756  : 								  info->vecregsize[index] = 16;

	movsxd	rax, DWORD PTR index$[rsp]
	mov	rcx, QWORD PTR info$[rsp]
	mov	BYTE PTR [rcx+rax+62], 16

; 757  : 								  if (reg == T_XMM0 + index)

	mov	eax, DWORD PTR index$[rsp]
	add	eax, 40					; 00000028H
	cmp	DWORD PTR reg$[rsp], eax
	jne	SHORT $LN225@ms64_param

; 758  : 									  DebugMsg(("ms64_param(%s, param=%u): argument optimized\n", proc->sym.name, index));

	mov	r8d, DWORD PTR index$[rsp]
	mov	rax, QWORD PTR proc$[rsp]
	mov	rdx, QWORD PTR [rax+8]
	lea	rcx, OFFSET FLAT:$SG11510
	call	DoDebugMsg
	jmp	SHORT $LN226@ms64_param
$LN225@ms64_param:

; 759  : 								  else
; 760  : 									  AddLineQueueX("vmovaps %r,oword ptr %s", T_XMM0 + index, paramvalue);

	mov	eax, DWORD PTR index$[rsp]
	add	eax, 40					; 00000028H
	mov	r8, QWORD PTR paramvalue$[rsp]
	mov	edx, eax
	lea	rcx, OFFSET FLAT:$SG11511
	call	AddLineQueueX
$LN226@ms64_param:

; 761  : 								  return(1);

	mov	eax, 1
	jmp	$LN1@ms64_param
$LN223@ms64_param:
$LN222@ms64_param:

; 762  : 							  }
; 763  : 						  }
; 764  : 					  }

	jmp	$LN221@ms64_param
$LN220@ms64_param:

; 765  : 					  else if (t->e.structinfo->stype == MM256 && vcallpass == 0) {

	mov	rax, QWORD PTR t$[rsp]
	mov	rax, QWORD PTR [rax+96]
	cmp	DWORD PTR [rax+16], 2
	jne	$LN227@ms64_param
	cmp	DWORD PTR vcallpass, 0
	jne	$LN227@ms64_param

; 766  : 						  if (opnd->kind == EXPR_REG && opnd->indirect == FALSE) {

	mov	rax, QWORD PTR opnd$[rsp]
	cmp	DWORD PTR [rax+60], 2
	jne	$LN228@ms64_param
	mov	rax, QWORD PTR opnd$[rsp]
	mov	eax, DWORD PTR [rax+72]
	and	eax, 1
	test	eax, eax
	jne	$LN228@ms64_param

; 767  : 							  if (GetValueSp(reg) & OP_YMM) {

	movsxd	rax, DWORD PTR reg$[rsp]
	imul	rax, rax, 12
	lea	rcx, OFFSET FLAT:SpecialTable
	mov	eax, DWORD PTR [rcx+rax]
	and	eax, 128				; 00000080H
	test	eax, eax
	je	$LN229@ms64_param

; 768  : 								  t->e.structinfo->memberCount = 1;

	mov	rax, QWORD PTR t$[rsp]
	mov	rax, QWORD PTR [rax+96]
	mov	DWORD PTR [rax+24], 1

; 769  : 								  info->vregs[index] = 1;

	movsxd	rax, DWORD PTR index$[rsp]
	mov	rcx, QWORD PTR info$[rsp]
	mov	BYTE PTR [rcx+rax+68], 1

; 770  : 								  info->xyzused[index] = 1;

	movsxd	rax, DWORD PTR index$[rsp]
	mov	rcx, QWORD PTR info$[rsp]
	mov	BYTE PTR [rcx+rax+74], 1

; 771  : 								  info->vsize += 32;

	mov	rax, QWORD PTR info$[rsp]
	mov	eax, DWORD PTR [rax+44]
	add	eax, 32					; 00000020H
	mov	rcx, QWORD PTR info$[rsp]
	mov	DWORD PTR [rcx+44], eax

; 772  : 								  info->vecregsize[index] = 32;

	movsxd	rax, DWORD PTR index$[rsp]
	mov	rcx, QWORD PTR info$[rsp]
	mov	BYTE PTR [rcx+rax+62], 32		; 00000020H

; 773  : 								  if (reg == T_YMM0 + index)

	mov	eax, DWORD PTR index$[rsp]
	add	eax, 56					; 00000038H
	cmp	DWORD PTR reg$[rsp], eax
	jne	SHORT $LN230@ms64_param

; 774  : 									  DebugMsg(("ms64_param(%s, param=%u): argument optimized\n", proc->sym.name, index));

	mov	r8d, DWORD PTR index$[rsp]
	mov	rax, QWORD PTR proc$[rsp]
	mov	rdx, QWORD PTR [rax+8]
	lea	rcx, OFFSET FLAT:$SG11517
	call	DoDebugMsg
	jmp	SHORT $LN231@ms64_param
$LN230@ms64_param:

; 775  : 								  else
; 776  : 									  AddLineQueueX("vmovaps %r,ymmword ptr %s", T_YMM0 + index, paramvalue);

	mov	eax, DWORD PTR index$[rsp]
	add	eax, 56					; 00000038H
	mov	r8, QWORD PTR paramvalue$[rsp]
	mov	edx, eax
	lea	rcx, OFFSET FLAT:$SG11518
	call	AddLineQueueX
$LN231@ms64_param:

; 777  : 								  return(1);

	mov	eax, 1
	jmp	$LN1@ms64_param
$LN229@ms64_param:
$LN228@ms64_param:
$LN227@ms64_param:
$LN221@ms64_param:

; 778  : 							  }
; 779  : 						  }
; 780  : 					  }
; 781  : #if EVEXSUPP
; 782  : 					  else if (t->e.structinfo->stype == MM512 && vcallpass == 0) {
; 783  : 						  if (opnd->kind == EXPR_REG && opnd->indirect == FALSE) {
; 784  : 							  if (GetValueSp(reg) & OP_YMM) {
; 785  : 								  t->e.structinfo->memberCount = 1;
; 786  : 								  info->vregs[index] = 1;
; 787  : 								  info->xyzused[index] = 1;
; 788  : 								  info->vsize += 64;
; 789  : 								  info->vecregsize[index] = 64;
; 790  : 								  if (reg == T_YMM0 + index)
; 791  : 									  DebugMsg(("ms64_param(%s, param=%u): argument optimized\n", proc->sym.name, index));
; 792  : 								  else
; 793  : 									  AddLineQueueX("vmovaps %r,ymmword ptr %s", T_YMM0 + index, paramvalue);
; 794  : 								  return(1);
; 795  : 							  }
; 796  : 						  }
; 797  : 					  }
; 798  : #endif                
; 799  : 
; 800  : 					  if (t->e.structinfo->stype == MM128)

	mov	rax, QWORD PTR t$[rsp]
	mov	rax, QWORD PTR [rax+96]
	cmp	DWORD PTR [rax+16], 1
	jne	SHORT $LN232@ms64_param

; 801  : 						  membersize = 16;

	mov	DWORD PTR membersize$[rsp], 16
	jmp	SHORT $LN233@ms64_param
$LN232@ms64_param:

; 802  : 					  else if (t->e.structinfo->stype == MM256)

	mov	rax, QWORD PTR t$[rsp]
	mov	rax, QWORD PTR [rax+96]
	cmp	DWORD PTR [rax+16], 2
	jne	SHORT $LN234@ms64_param

; 803  : 						  membersize = 32;

	mov	DWORD PTR membersize$[rsp], 32		; 00000020H
$LN234@ms64_param:
$LN233@ms64_param:

; 804  : #if EVEXSUPP
; 805  : 					  else if (t->e.structinfo->stype == MM512)
; 806  : 						  membersize = 64;
; 807  : #endif            
; 808  : 					  memberCount = t->e.structinfo->memberCount;

	mov	rax, QWORD PTR t$[rsp]
	mov	rax, QWORD PTR [rax+96]
	mov	eax, DWORD PTR [rax+24]
	mov	DWORD PTR memberCount$[rsp], eax

; 809  : 					  if (t->e.structinfo->isHVA) {

	mov	rax, QWORD PTR t$[rsp]
	mov	rax, QWORD PTR [rax+96]
	movzx	eax, BYTE PTR [rax+21]
	test	eax, eax
	je	SHORT $LN235@ms64_param

; 810  : 						  if (memberCount)

	cmp	DWORD PTR memberCount$[rsp], 0
	je	SHORT $LN237@ms64_param

; 811  : 							  membersize = psize / memberCount;

	xor	edx, edx
	mov	eax, DWORD PTR psize$[rsp]
	div	DWORD PTR memberCount$[rsp]
	mov	DWORD PTR membersize$[rsp], eax
$LN237@ms64_param:

; 812  : 					  }

	jmp	$LN236@ms64_param
$LN235@ms64_param:

; 813  : 					  else if ((t->e.structinfo->isHFA)|| (proc->e.procinfo->paralist->sym.type && proc->e.procinfo->paralist->sym.type->max_mbr_size == 4))  {

	mov	rax, QWORD PTR t$[rsp]
	mov	rax, QWORD PTR [rax+96]
	movzx	eax, BYTE PTR [rax+22]
	test	eax, eax
	jne	SHORT $LN240@ms64_param
	mov	rax, QWORD PTR proc$[rsp]
	mov	rax, QWORD PTR [rax+96]
	mov	rax, QWORD PTR [rax+8]
	cmp	QWORD PTR [rax+80], 0
	je	SHORT $LN238@ms64_param
	mov	rax, QWORD PTR proc$[rsp]
	mov	rax, QWORD PTR [rax+96]
	mov	rax, QWORD PTR [rax+8]
	mov	rax, QWORD PTR [rax+80]
	cmp	DWORD PTR [rax+48], 4
	jne	SHORT $LN238@ms64_param
$LN240@ms64_param:

; 814  : 						  membersize = psize;

	mov	eax, DWORD PTR psize$[rsp]
	mov	DWORD PTR membersize$[rsp], eax

; 815  : 						  memberCount = 1;

	mov	DWORD PTR memberCount$[rsp], 1

; 816  : 					  }

	jmp	SHORT $LN239@ms64_param
$LN238@ms64_param:

; 817  : 					  else if (vcallpass == 0 && t->e.structinfo->stype != MM128 && t->e.structinfo->stype != MM256) {

	cmp	DWORD PTR vcallpass, 0
	jne	SHORT $LN241@ms64_param
	mov	rax, QWORD PTR t$[rsp]
	mov	rax, QWORD PTR [rax+96]
	cmp	DWORD PTR [rax+16], 1
	je	SHORT $LN241@ms64_param
	mov	rax, QWORD PTR t$[rsp]
	mov	rax, QWORD PTR [rax+96]
	cmp	DWORD PTR [rax+16], 2
	je	SHORT $LN241@ms64_param

; 818  : 						  goto uselea;

	jmp	$uselea$349
$LN241@ms64_param:
$LN239@ms64_param:
$LN236@ms64_param:

; 819  : 					  }
; 820  :             if (t->e.structinfo->isHFA) memberCount = 1;

	mov	rax, QWORD PTR t$[rsp]
	mov	rax, QWORD PTR [rax+96]
	movzx	eax, BYTE PTR [rax+22]
	test	eax, eax
	je	SHORT $LN242@ms64_param
	mov	DWORD PTR memberCount$[rsp], 1
$LN242@ms64_param:

; 821  : 					  info->vecregs[index] = memberCount;

	movsxd	rax, DWORD PTR index$[rsp]
	mov	rcx, QWORD PTR info$[rsp]
	movzx	edx, BYTE PTR memberCount$[rsp]
	mov	BYTE PTR [rcx+rax+56], dl

; 822  : 					  info->vsize += psize;

	mov	rax, QWORD PTR info$[rsp]
	mov	eax, DWORD PTR [rax+44]
	add	eax, DWORD PTR psize$[rsp]
	mov	rcx, QWORD PTR info$[rsp]
	mov	DWORD PTR [rcx+44], eax

; 823  : 					  info->vecregsize[index] = membersize;

	movsxd	rax, DWORD PTR index$[rsp]
	mov	rcx, QWORD PTR info$[rsp]
	movzx	edx, BYTE PTR membersize$[rsp]
	mov	BYTE PTR [rcx+rax+62], dl

; 824  : 					  if (((vcallpass == 1) && t->e.structinfo->isHVA) || t->e.structinfo->stype == MM128 || t->e.structinfo->stype == MM256) {

	cmp	DWORD PTR vcallpass, 1
	jne	SHORT $LN245@ms64_param
	mov	rax, QWORD PTR t$[rsp]
	mov	rax, QWORD PTR [rax+96]
	movzx	eax, BYTE PTR [rax+21]
	test	eax, eax
	jne	SHORT $LN244@ms64_param
$LN245@ms64_param:
