; Listing generated by Microsoft (R) Optimizing Compiler Version 19.00.23026.0 

include listing.inc

INCLUDELIB LIBCMTD
INCLUDELIB OLDNAMES

_BSS	SEGMENT
$SG12294 DB	01H DUP (?)
	ALIGN	4

$SG11676 DB	01H DUP (?)
_BSS	ENDS
_DATA	SEGMENT
COMM	decoflags:BYTE
COMM	broadflags:BYTE
COMM	evex:BYTE
COMM	ZEROLOCALS:BYTE
_DATA	ENDS
_BSS	SEGMENT
	ALIGN	4

vcallpass DD	01H DUP (?)
$SG12162 DB	01H DUP (?)
	ALIGN	4

$SG12173 DB	01H DUP (?)
_BSS	ENDS
CONST	SEGMENT
fastcall_tab DQ	FLAT:ms32_fcstart
	DQ	FLAT:ms32_fcend
	DQ	FLAT:ms32_param
	DQ	FLAT:watc_fcstart
	DQ	FLAT:watc_fcend
	DQ	FLAT:watc_param
	DQ	FLAT:ms64_fcstart
	DQ	FLAT:ms64_fcend
	DQ	FLAT:ms64_param
ms32_regs DD	012H
	DD	013H
vectorcall_tab DQ FLAT:ms32_fcstart
	DQ	FLAT:ms32_fcend
	DQ	FLAT:ms32_param
	DQ	FLAT:watc_fcstart
	DQ	FLAT:watc_fcend
	DQ	FLAT:watc_param
	DQ	FLAT:ms64_fcstart
	DQ	FLAT:ms64_fcend
	DQ	FLAT:ms64_param
regax	DD	09H
	DD	011H
	DD	073H
	ORG $+4
ms16_regs DD	09H
	DD	0bH
	DD	0cH
	ORG $+12
ms64_regs DD	02H
	DD	03H
	DD	05bH
	DD	05cH
	DD	0aH
	DD	0bH
	DD	063H
	DD	064H
	DD	012H
	DD	013H
	DD	06bH
	DD	06cH
	DD	074H
	DD	075H
	DD	07bH
	DD	07cH
CONST	ENDS
_DATA	SEGMENT
$SG12293 DB	'InvokeDir: error proc.name=>%s< .mem_type=%Xh', 0aH, 00H
	ORG $+1
$SG12295 DB	'InvokeDir: error sym.name=%s', 0aH, 00H
	ORG $+2
$SG12296 DB	'NULL', 00H
	ORG $+3
$SG12297 DB	'InvokeDir: proc=%s target_type=>%s<', 0aH, 00H
	ORG $+3
$SG12299 DB	'NULL', 00H
	ORG $+3
$SG12311 DB	'InvokeDir: superfluous argument, i=%u', 0aH, 00H
	ORG $+1
$SG12300 DB	'InvokeDir: error, sym=%s state=%u memtype=%Xh [type=%s m'
	DB	'emtype=%Xh]', 0aH, 00H
	ORG $+3
$SG12319 DB	'InvokeDir: PushInvokeParam(curr=%u, i=%u, numParam=%u) f'
	DB	'ailed', 0aH, 00H
	ORG $+1
$SG12326 DB	'InvokeDir: superfluous argument, i=%u', 0aH, 00H
	ORG $+1
$SG12303 DB	'InvokeDir: error, target_type=%s [memtype=%X pmemtype=%X'
	DB	' isproc=%u])', 0aH, 00H
	ORG $+2
$SG12304 DB	'InvokeDir: numparams=%u', 0aH, 00H
	ORG $+7
$SG12321 DB	'InvokeDir: PushInvokeParam(curr=%u, i=%u, numParam=%u) f'
	DB	'ailed', 0aH, 00H
	ORG $+1
$SG12338 DB	' call ', 00H
	ORG $+1
$SG12312 DB	'InvokeDir: VARARG proc, numparams=%u, actual (max) param'
	DB	's=%u, parasize=%u', 0aH, 00H
	ORG $+5
$SG12327 DB	'InvokeDir: VARARG proc, numparams=%u, actual (max) param'
	DB	's=%u, parasize=%u', 0aH, 00H
	ORG $+1
$SG11400 DB	's', 00H
	ORG $+2
$SG12334 DB	'InvokeDir: PushInvokeParam(curr=%u, i=%u, numParam=%u) f'
	DB	'ailed', 0aH, 00H
	ORG $+1
$SG11310 DB	'ms64_param(%s, index=%u, param.memtype=%Xh, addr=%u) ent'
	DB	'er', 0aH, 00H
$SG11401 DB	'z', 00H
	ORG $+2
$SG12336 DB	'InvokeDir: PushInvokeParam(curr=%u, i=%u, numParam=%u) f'
	DB	'ailed', 0aH, 00H
	ORG $+1
$SG12343 DB	' externdef %r %s: %r %r', 00H
$SG12344 DB	' externdef %s: %r %r', 00H
	ORG $+3
$SG12351 DB	'InvokeDir: size of fix args=%u, var args=%u', 0aH, 00H
	ORG $+3
$SG12352 DB	' add %r, %u', 00H
$SG11614 DB	's', 00H
	ORG $+2
$SG12353 DB	' add %r, %u', 00H
$SG11615 DB	'z', 00H
	ORG $+2
$SG11344 DB	' lea %r, %s', 00H
$SG11620 DB	'0', 00H
	ORG $+2
$SG11345 DB	' mov [%r+%u], %r', 00H
	ORG $+3
$SG11622 DB	'FALSE', 00H
	ORG $+2
$SG11792 DB	' ', 00H
	ORG $+2
$SG11346 DB	'ms64_param(%s, param=%u): ADDR flags=%X', 0aH, 00H
	ORG $+3
$SG12005 DB	'z', 00H
	ORG $+2
$SG11353 DB	' mov %r ptr [%r+%u], %r ( %s )', 00H
	ORG $+1
$SG11354 DB	' mov %r ptr [%r+%u], %r ( %s )', 00H
	ORG $+1
$SG11356 DB	'ms64_param(%s, param=%u): MT_PTR, type error, psize=%u', 0aH
	DB	00H
$SG11361 DB	' mov %r ptr [%r+%u], %s', 00H
$SG11362 DB	'ms64_param(%s, param=%u): MT_EMPTY size.p=%u flags=%X', 0aH
	DB	00H
	ORG $+1
$SG11367 DB	' mov %r ptr [%r+%u+0], %r (%s)', 00H
	ORG $+1
$SG11368 DB	' mov %r ptr [%r+%u+4], %r (%s)', 00H
	ORG $+1
$SG11369 DB	' mov %r ptr [%r+%u], %s', 00H
$SG11376 DB	'ms64_param(%s, param=%u): type error size.p/a=%u/%u flag'
	DB	's=%X', 0aH, 00H
	ORG $+2
$SG11381 DB	'ms64_param(%s, param=%u): REG size.p/a=%u/%u flags=%X', 0aH
	DB	00H
	ORG $+1
$SG11384 DB	'ms64_param(%s, param=%u): MEM size.p/a=%u/%u flags=%X', 0aH
	DB	00H
	ORG $+1
$SG11398 DB	' movsxd %r, %s', 00H
	ORG $+1
$SG11399 DB	' mov %r, %s', 00H
$SG12006 DB	's', 00H
	ORG $+2
$SG11402 DB	' mov%sx %r, %s', 00H
	ORG $+1
$SG11405 DB	' mov %r, %s', 00H
$SG12019 DB	'z', 00H
	ORG $+2
$SG11406 DB	' mov [%r+%u], %r', 00H
	ORG $+3
$SG12020 DB	's', 00H
	ORG $+2
$SG11414 DB	'ms64_param(%s, param=%u): argument optimized', 0aH, 00H
	ORG $+2
$SG11415 DB	' movq %r, %s', 00H
	ORG $+3
$SG11420 DB	'mov %r, %s', 00H
	ORG $+1
$SG12108 DB	's', 00H
	ORG $+2
$SG11421 DB	'vmovd %r, %r', 00H
	ORG $+3
$SG11422 DB	'mov %r, %r ptr %s', 00H
	ORG $+2
$SG12109 DB	'z', 00H
	ORG $+2
$SG11423 DB	'vmovq %r, %r', 00H
	ORG $+3
$SG11428 DB	'vmovsd %r,qword ptr %s', 00H
	ORG $+1
$SG11429 DB	'vmovss %r,dword ptr %s', 00H
	ORG $+1
$SG11438 DB	'vmovss %r,dword ptr [%s+%d]', 00H
$SG12165 DB	'w', 00H
	ORG $+2
$SG11448 DB	'vmovsd %r,qword ptr [%s+%d]', 00H
$SG12169 DB	'w', 00H
	ORG $+2
$SG11451 DB	'vmovss %r,dword ptr [%s+%d]', 00H
$SG12172 DB	'd', 00H
	ORG $+2
$SG11459 DB	'vmovss %r,dword ptr [%s+%d]', 00H
$SG12178 DB	'd', 00H
	ORG $+2
$SG11467 DB	'vmovsd %r,qword ptr [%s+%d]', 00H
$SG12180 DB	'w', 00H
	ORG $+2
$SG11475 DB	'vmovsd %r,qword ptr [%s+%d]', 00H
$SG12186 DB	'd', 00H
	ORG $+2
$SG11492 DB	'ms64_param(%s, param=%u): argument optimized', 0aH, 00H
	ORG $+2
$SG11493 DB	'vmovaps %r,oword ptr %s', 00H
$SG11499 DB	'ms64_param(%s, param=%u): argument optimized', 0aH, 00H
	ORG $+2
$SG11500 DB	'vmovaps %r,ymmword ptr %s', 00H
	ORG $+6
$SG11525 DB	'vmovss %r,dword ptr %s', 00H
	ORG $+1
$SG11526 DB	'vmovss %r,dword ptr [%s+%d]', 00H
	ORG $+4
$SG11530 DB	'vmovsd %r,oword ptr %s', 00H
	ORG $+1
$SG11531 DB	'vmovsd %r,oword ptr [%s+%d]', 00H
	ORG $+4
$SG11535 DB	'vmovaps %r,oword ptr %s', 00H
$SG11540 DB	'vmovaps %r,oword ptr %s', 00H
$SG11541 DB	'vmovaps %r,oword ptr [%s+%d]', 00H
	ORG $+3
$SG11545 DB	'vmovups %r,oword ptr %s', 00H
$SG11550 DB	'vmovups %r,ymmword ptr %s', 00H
	ORG $+6
$SG11551 DB	'vmovups %r,ymmword ptr [%s+%d]', 00H
	ORG $+1
$SG11556 DB	'vmovss %r,dword ptr %s', 00H
	ORG $+1
$SG11557 DB	'mov %r, qword ptr %s', 00H
	ORG $+3
$SG11561 DB	'vmovsd %r,qword ptr %s', 00H
	ORG $+1
$SG11562 DB	'mov %r, qword ptr %s', 00H
	ORG $+3
$SG11569 DB	'ms64_param(%s, param=%u): argument optimized', 0aH, 00H
	ORG $+2
$SG11570 DB	'vmovaps %r,oword ptr %s', 00H
$SG11571 DB	'vmovaps %r,oword ptr %s', 00H
$SG11573 DB	'vmovups %r,oword ptr %s', 00H
$SG11578 DB	' lea %r, %s', 00H
	ORG $+4
$SG11579 DB	' lea %r, %s', 00H
	ORG $+4
$SG11580 DB	' mov qword ptr [%r+%u], %r', 00H
	ORG $+5
$SG11581 DB	' lea %r, %s', 00H
	ORG $+4
$SG11592 DB	'ms64_param(%s, param=%u): forward ref=%s, assumed size=%'
	DB	'u', 0aH, 00H
	ORG $+5
$SG11595 DB	'ms64_param(%s, param=%u): type error size.p/a=%u/%u flag'
	DB	's=%X', 0aH, 00H
	ORG $+2
$SG11603 DB	'ms64_param(%s, param=%u): argument optimized', 0aH, 00H
	ORG $+2
$SG11612 DB	' movsxd %r, %s', 00H
	ORG $+1
$SG11613 DB	' mov %r, %s', 00H
	ORG $+4
$SG11616 DB	' mov%sx %r, %s', 00H
	ORG $+1
$SG11621 DB	'NULL', 00H
	ORG $+3
$SG11624 DB	' xor %r, %r', 00H
	ORG $+4
$SG11631 DB	' mov %r ptr [%r+%u], %s', 00H
$SG11632 DB	' mov %r, %s', 00H
	ORG $+4
$SG11633 DB	'ms64_param(%s, param=%u): size=%u flags=%X', 0aH, 00H
$SG11653 DB	'NULL', 00H
	ORG $+3
$SG11654 DB	'NULL', 00H
	ORG $+3
$SG11655 DB	'NULL', 00H
	ORG $+3
$SG11656 DB	'NULL', 00H
	ORG $+7
$SG11657 DB	'GetSegmentPart(%s) enter [override=%s sym=%s segment=%s]'
	DB	0aH, 00H
	ORG $+2
$SG11672 DB	'seg ', 00H
	ORG $+3
$SG11675 DB	'seg ', 00H
	ORG $+7
$SG11677 DB	'GetSegmentPart: reg%u, buffer=%s', 0aH, 00H
	ORG $+6
$SG11689 DB	'watc_fcstart(%s, %u, %u)', 0aH, 00H
	ORG $+6
$SG11697 DB	'watc_fcend(%s, %u, %u)', 0aH, 00H
$SG11700 DB	' add %r, %u', 00H
	ORG $+4
$SG11702 DB	' add %r, %u', 00H
$SG11848 DB	'NULL', 00H
	ORG $+7
$SG11740 DB	'watc_param(%s, param=%u [name=%s, state=%u]),addr=%u: ps'
	DB	'ize=%u', 0aH, 00H
$SG11742 DB	'watc_param(%s): register param=%s', 0aH, 00H
	ORG $+5
$SG11752 DB	'%r %s, %r', 00H
	ORG $+6
$SG11753 DB	'%r %s, %s', 00H
	ORG $+6
$SG11754 DB	'%r %s, %r %s', 00H
	ORG $+3
$SG11764 DB	'mov %s, %r (%s)', 00H
$SG11765 DB	'mov %s, %s', 00H
	ORG $+5
$SG11768 DB	'mov %s, %s', 00H
	ORG $+5
$SG11771 DB	'mov %s, %s', 00H
	ORG $+5
$SG11774 DB	'mov %s, %r %r %s[%u]', 00H
	ORG $+3
$SG11849 DB	'PushInvokeParam(%s, param=%s:%u, i=%u ) enter', 0aH, 00H
	ORG $+1
$SG11851 DB	'PushInvokeParam(%s): T_FINAL token, i=%u', 0aH, 00H
	ORG $+6
$SG11854 DB	'PushInvokeParam(%s,%u): pmtype=%Xh, psize=%u', 0aH, 00H
	ORG $+2
$SG11860 DB	'PushInvokeParm(%u): error, psize=%u, fptrsize=%u', 0aH, 00H
	ORG $+6
$SG11871 DB	'PushInvokeParam: far ptr, %s isfar=%u, psize=%u, fptrsiz'
	DB	'e=%u', 0aH, 00H
	ORG $+2
$SG11876 DB	' push %s', 00H
	ORG $+7
$SG11877 DB	' lea %r, %s', 00H
	ORG $+4
$SG11878 DB	' push %r', 00H
	ORG $+7
$SG11885 DB	' db 66h', 00H
$SG11886 DB	' push %r', 00H
	ORG $+7
$SG11887 DB	' push %s', 00H
	ORG $+7
$SG11890 DB	' mov %r, offset %s', 00H
	ORG $+5
$SG11891 DB	' push %r', 00H
	ORG $+7
$SG11897 DB	' pushd %r %s', 00H
	ORG $+3
$SG11901 DB	' pushw %r %s', 00H
	ORG $+3
$SG11902 DB	' push %r %s', 00H
$SG12000 DB	' cbw', 00H
	ORG $+7
$SG11905 DB	'PushInvokeParm(%u): new value of size_vararg=%u [CurrWor'
	DB	'dSize=%u]', 0aH, 00H
	ORG $+5
$SG11912 DB	' db 66h', 00H
$SG11913 DB	' push %r', 00H
	ORG $+7
$SG11924 DB	'PushInvokeParm(%u): error, psize=0', 0aH, 00H
	ORG $+4
$SG11926 DB	'PushInvokeParm(%u): memtype EMPTY, asize=%u psize=%u', 0aH
	DB	00H
	ORG $+2
$SG11937 DB	'PushInvokeParam(%s, %u): arg name=%s, asize=%u, amtype=%'
	DB	'xh psize=%u', 0aH, 00H
	ORG $+3
$SG11950 DB	'PushInvokeParm(%u): argsize error, arg size=%d, parm siz'
	DB	'e=%d', 0aH, 00H
	ORG $+2
$SG11970 DB	' push word ptr %s+%u', 00H
	ORG $+3
$SG11938 DB	'PushInvokeParam(%s, %u): arg no name, asize=%u, amtype=%'
	DB	'xh psize=%u', 0aH, 00H
	ORG $+3
$SG11960 DB	'PushInvokeParm(%u): asize=%u added to size_vararg, now=%'
	DB	'u', 0aH, 00H
	ORG $+5
$SG11969 DB	' sub %r, 2', 00H
	ORG $+5
$SG11971 DB	' push %r ptr %s+%u', 00H
	ORG $+5
$SG11975 DB	'PushInvokeParm(%u): error, ADDR, psize=%u, is > 4', 0aH, 00H
	ORG $+5
$SG11978 DB	' movsx %r, %s', 00H
	ORG $+2
$SG11979 DB	' push %r', 00H
	ORG $+7
$SG11983 DB	' mov %r, %s', 00H
	ORG $+4
$SG11984 DB	' push %r', 00H
	ORG $+7
$SG11993 DB	' xor %r, %r', 00H
	ORG $+4
$SG11994 DB	' push %r', 00H
	ORG $+7
$SG11995 DB	' push 0', 00H
$SG11996 DB	' mov %r, %s', 00H
	ORG $+4
$SG11998 DB	' mov %r, 0', 00H
	ORG $+5
$SG11999 DB	' mov %r, %s', 00H
$SG12002 DB	' cwd', 00H
	ORG $+7
$SG12003 DB	' push %r', 00H
	ORG $+7
$SG12004 DB	' push %r', 00H
	ORG $+7
$SG12007 DB	' mov%sx %r, %s', 00H
	ORG $+1
$SG12008 DB	' push %r', 00H
	ORG $+7
$SG12016 DB	' pushw 0', 00H
	ORG $+7
$SG12017 DB	' sub %r, 2', 00H
	ORG $+5
$SG12018 DB	' push %s', 00H
	ORG $+7
$SG12021 DB	' mov%sx %r, %s', 00H
	ORG $+1
$SG12022 DB	' push %r', 00H
	ORG $+7
$SG12024 DB	' push %s', 00H
	ORG $+7
$SG12029 DB	' movsx %r, %s', 00H
	ORG $+2
$SG12030 DB	' push %r', 00H
	ORG $+7
$SG12033 DB	' mov %r, %s', 00H
$SG12034 DB	' cwd', 00H
	ORG $+7
$SG12035 DB	' push %r', 00H
	ORG $+7
$SG12036 DB	' push %r', 00H
	ORG $+7
$SG12037 DB	' push %s', 00H
	ORG $+7
$SG12042 DB	' xor %r, %r', 00H
	ORG $+4
$SG12043 DB	' push %r', 00H
	ORG $+7
$SG12044 DB	' pushw 0', 00H
	ORG $+7
$SG12045 DB	' push %s', 00H
	ORG $+7
$SG12058 DB	'PushInvokeParm(%u): error, REG, asize=%u, psize=%u, push'
	DB	'size=%u', 0aH, 00H
	ORG $+7
$SG12067 DB	' mov %r, %s', 00H
	ORG $+4
$SG12072 DB	' movsx %r, %s', 00H
	ORG $+2
$SG12076 DB	' mov %r, %s', 00H
$SG12077 DB	' cbw', 00H
	ORG $+7
$SG12079 DB	' mov %r, %s', 00H
$SG12080 DB	' cwd', 00H
	ORG $+7
$SG12081 DB	' push %r', 00H
	ORG $+7
$SG12090 DB	' sub %r, 2', 00H
	ORG $+5
$SG12093 DB	' movsx %r, %s', 00H
	ORG $+2
$SG12094 DB	' pushw 0', 00H
	ORG $+7
$SG12095 DB	' pushw 0', 00H
	ORG $+7
$SG12099 DB	' xor %r, %r', 00H
	ORG $+4
$SG12100 DB	' push %r', 00H
	ORG $+7
$SG12110 DB	' mov%sx %r, %s', 00H
	ORG $+1
$SG12112 DB	' mov %r, %s', 00H
$SG12116 DB	' cbw', 00H
	ORG $+7
$SG12118 DB	' mov %r, 0', 00H
	ORG $+5
$SG12122 DB	' push %r', 00H
	ORG $+7
$SG11119 DB	'ms32_fcstart(proc=%s, ofs=%u)', 0aH, 00H
	ORG $+1
$SG12146 DB	' mov %r, %s', 00H
	ORG $+4
$SG12148 DB	' xor %r, %r', 00H
	ORG $+4
$SG12152 DB	' xor %r, %r', 00H
	ORG $+4
$SG12153 DB	' mov %r, %r (%s)', 00H
	ORG $+7
$SG12154 DB	' push %r', 00H
	ORG $+7
$SG12158 DB	' mov %r, %r (%s)', 00H
	ORG $+7
$SG12160 DB	'PushInvokeParm(%u): error, CONST, asize=%u, psize=%u, pu'
	DB	'shsize=%u', 0aH, 00H
	ORG $+5
$SG12161 DB	' push %r', 00H
	ORG $+7
$SG11147 DB	'ms32_param(proc=%s, ofs=%u, index=%u, param=%s) fcscratc'
	DB	'h=%u', 0aH, 00H
	ORG $+2
$SG12174 DB	' push%s (%s) shr 32t', 00H
	ORG $+3
$SG11153 DB	' lea %r, %s', 00H
	ORG $+4
$SG12179 DB	' pushw %r (%s)', 00H
	ORG $+1
$SG11158 DB	'movsx', 00H
	ORG $+2
$SG11159 DB	'movzx', 00H
	ORG $+2
$SG11160 DB	' %s %r, %s', 00H
	ORG $+5
$SG12185 DB	' pushd %r (%s)', 00H
	ORG $+1
$SG11161 DB	' mov %r, %s', 00H
	ORG $+4
$SG11162 DB	' mov %r, 0', 00H
	ORG $+5
$SG12188 DB	'PushInvokeParm(%u): error, CONST, asize=%u, psize=%u, pu'
	DB	'shsize=%u', 0aH, 00H
	ORG $+5
$SG11165 DB	' mov %r, %s', 00H
	ORG $+4
$SG12191 DB	' push%s %r (%s)', 00H
$SG12192 DB	' push%s %s', 00H
	ORG $+5
$SG12194 DB	'PushInvokeParm(%u): psize=%u added to size_vararg, now=%'
	DB	'u', 0aH, 00H
	ORG $+5
$SG11186 DB	'ms64_fcstart(%s, numparams=%u) vararg=%u', 0aH, 00H
	ORG $+6
$SG11193 DB	' sub %r, %d', 00H
	ORG $+4
$SG11202 DB	' add %r, %d', 00H
	ORG $+4
$SG12264 DB	'InvokeDir(%s) enter', 0aH, 00H
	ORG $+3
$SG12269 DB	'NULL', 00H
	ORG $+3
$SG12270 DB	'NULL', 00H
	ORG $+3
$SG12271 DB	'NULL', 00H
	ORG $+3
$SG12274 DB	'InvokeDirective: opnd.type=>%s< mem_type=%Xh', 0aH, 00H
	ORG $+10
$SG12272 DB	'InvokeDir: target is expression, kind=%u sym=%s mbr=%s t'
	DB	'ype=%s memtype=%X ofssize=%u', 0aH, 00H
_DATA	ENDS
PUBLIC	InvokeDirective
EXTRN	__report_rangecheckfailure:PROC
EXTRN	memcpy:PROC
EXTRN	memset:PROC
EXTRN	strchr:PROC
EXTRN	strcat:PROC
EXTRN	strcpy:PROC
EXTRN	_stricmp:PROC
EXTRN	strlen:PROC
EXTRN	DoDebugMsg:PROC
EXTRN	DoDebugMsg1:PROC
EXTRN	EmitErr:PROC
EXTRN	EmitWarn:PROC
EXTRN	SymFind:PROC
EXTRN	SizeFromMemtype:PROC
EXTRN	SizeFromRegister:PROC
EXTRN	GetResWName:PROC
EXTRN	EvalOperand:PROC
EXTRN	AddLineQueue:PROC
EXTRN	AddLineQueueX:PROC
EXTRN	RunLineQueue:PROC
EXTRN	search_assume:PROC
EXTRN	GetStdAssume:PROC
EXTRN	GetSymOfssize:PROC
EXTRN	GetCurrOffset:PROC
EXTRN	GetGroup:PROC
EXTRN	LstWrite:PROC
EXTRN	Mangle:PROC
EXTRN	__GSHandlerCheck:PROC
EXTRN	__security_check_cookie:PROC
EXTRN	Options:BYTE
EXTRN	ModuleInfo:BYTE
EXTRN	Parse_Pass:DWORD
EXTRN	SpecialTable:BYTE
EXTRN	sym_ReservedStack:QWORD
EXTRN	maxintvalues:BYTE
EXTRN	minintvalues:BYTE
EXTRN	stackreg:BYTE
EXTRN	__security_cookie:QWORD
_BSS	SEGMENT
	ALIGN	4

size_vararg DD	01H DUP (?)
fcscratch DD	01H DUP (?)
_BSS	ENDS
pdata	SEGMENT
$pdata$ms32_fcstart DD imagerel ms32_fcstart
	DD	imagerel ms32_fcstart+160
	DD	imagerel $unwind$ms32_fcstart
$pdata$ms32_param DD imagerel ms32_param
	DD	imagerel ms32_param+636
	DD	imagerel $unwind$ms32_param
$pdata$watc_fcstart DD imagerel watc_fcstart
	DD	imagerel watc_fcstart+64
	DD	imagerel $unwind$watc_fcstart
$pdata$watc_fcend DD imagerel watc_fcend
	DD	imagerel watc_fcend+203
	DD	imagerel $unwind$watc_fcend
$pdata$watc_param DD imagerel watc_param
	DD	imagerel watc_param+1277
	DD	imagerel $unwind$watc_param
$pdata$ms64_fcstart DD imagerel ms64_fcstart
	DD	imagerel ms64_fcstart+334
	DD	imagerel $unwind$ms64_fcstart
$pdata$ms64_fcend DD imagerel ms64_fcend
	DD	imagerel ms64_fcend+64
	DD	imagerel $unwind$ms64_fcend
$pdata$ms64_param DD imagerel ms64_param
	DD	imagerel ms64_param+11606
	DD	imagerel $unwind$ms64_param
$pdata$GetSegmentPart DD imagerel GetSegmentPart
	DD	imagerel GetSegmentPart+786
	DD	imagerel $unwind$GetSegmentPart
$pdata$SkipTypecast DD imagerel SkipTypecast
	DD	imagerel SkipTypecast+249
	DD	imagerel $unwind$SkipTypecast
$pdata$PushInvokeParam DD imagerel PushInvokeParam
	DD	imagerel PushInvokeParam+9172
	DD	imagerel $unwind$PushInvokeParam
$pdata$InvokeDirective DD imagerel $LN114
	DD	imagerel $LN114+4563
	DD	imagerel $unwind$InvokeDirective
pdata	ENDS
xdata	SEGMENT
$unwind$ms32_fcstart DD 011701H
	DD	06217H
$unwind$ms32_param DD 011701H
	DD	0a217H
$unwind$watc_fcstart DD 011701H
	DD	04217H
$unwind$watc_fcend DD 011201H
	DD	04212H
$unwind$watc_param DD 022c19H
	DD	02b011aH
	DD	imagerel __GSHandlerCheck
	DD	0140H
$unwind$ms64_fcstart DD 011701H
	DD	04217H
$unwind$ms64_fcend DD 011201H
	DD	04212H
$unwind$ms64_param DD 021a01H
	DD	01d011aH
$unwind$GetSegmentPart DD 011301H
	DD	0e213H
$unwind$SkipTypecast DD 011201H
	DD	06212H
$unwind$PushInvokeParam DD 022c19H
	DD	0133011aH
	DD	imagerel __GSHandlerCheck
	DD	0980H
$unwind$InvokeDirective DD 021001H
	DD	02f0110H
xdata	ENDS
; Function compile flags: /Odtp
; File d:\hjwasm\hjwasm2.13.1s\hjwasm2.13.1s\invoke.c
_TEXT	SEGMENT
r0flags$ = 64
sym$ = 72
numParam$ = 80
curr$ = 88
proc$ = 96
info$ = 104
p$ = 112
j$1 = 120
j$2 = 124
porder$ = 128
namepos$ = 132
value$ = 136
tv251 = 140
parmpos$ = 144
size$ = 148
tv135 = 152
tv139 = 160
tv143 = 168
tv176 = 176
tv231 = 184
tv239 = 192
tv257 = 200
iatname$3 = 208
tv751 = 216
tv740 = 224
tv741 = 232
tv744 = 240
tv745 = 248
opnd$ = 256
i$ = 384
tokenarray$ = 392
InvokeDirective PROC

; 1986 : {

$LN114:
	mov	QWORD PTR [rsp+16], rdx
	mov	DWORD PTR [rsp+8], ecx
	sub	rsp, 376				; 00000178H

; 1987 :     struct asym    *sym;
; 1988 :     struct dsym    *proc;
; 1989 :     char           *p;
; 1990 :     //char         *param;
; 1991 :     int            numParam;
; 1992 :     int            value;
; 1993 :     int            size;
; 1994 :     int            parmpos;
; 1995 :     int            namepos;
; 1996 :     int            porder;
; 1997 :     int            j;
; 1998 :     uint_8         r0flags = 0;

	mov	BYTE PTR r0flags$[rsp], 0

; 1999 :     //bool           uselabel = FALSE;
; 2000 :     struct proc_info *info;
; 2001 :     struct dsym    *curr;
; 2002 :     struct expr    opnd;
; 2003 :     //char           buffer[MAX_LINE_LEN];
; 2004 : 
; 2005 :     DebugMsg1(("InvokeDir(%s) enter\n", tokenarray[i].tokpos ));

	movsxd	rax, DWORD PTR i$[rsp]
	imul	rax, rax, 32				; 00000020H
	mov	rcx, QWORD PTR tokenarray$[rsp]
	mov	rdx, QWORD PTR [rcx+rax+24]
	lea	rcx, OFFSET FLAT:$SG12264
	call	DoDebugMsg1

; 2006 :     i++; /* skip INVOKE directive */

	mov	eax, DWORD PTR i$[rsp]
	inc	eax
	mov	DWORD PTR i$[rsp], eax

; 2007 :     namepos = i;

	mov	eax, DWORD PTR i$[rsp]
	mov	DWORD PTR namepos$[rsp], eax

; 2008 :     /* if there is more than just an ID item describing the invoke target,
; 2009 :      use the expression evaluator to get it
; 2010 :      */
; 2011 :     if ( tokenarray[i].token != T_ID || ( tokenarray[i+1].token != T_COMMA && tokenarray[i+1].token != T_FINAL ) ) {

	movsxd	rax, DWORD PTR i$[rsp]
	imul	rax, rax, 32				; 00000020H
	mov	rcx, QWORD PTR tokenarray$[rsp]
	movzx	eax, BYTE PTR [rcx+rax]
	cmp	eax, 8
	jne	SHORT $LN35@InvokeDire
	mov	eax, DWORD PTR i$[rsp]
	inc	eax
	cdqe
	imul	rax, rax, 32				; 00000020H
	mov	rcx, QWORD PTR tokenarray$[rsp]
	movzx	eax, BYTE PTR [rcx+rax]
	cmp	eax, 44					; 0000002cH
	je	$LN33@InvokeDire
	mov	eax, DWORD PTR i$[rsp]
	inc	eax
	cdqe
	imul	rax, rax, 32				; 00000020H
	mov	rcx, QWORD PTR tokenarray$[rsp]
	movzx	eax, BYTE PTR [rcx+rax]
	test	eax, eax
	je	$LN33@InvokeDire
$LN35@InvokeDire:

; 2012 :     //if ( tokenarray[i+1].token != T_COMMA && tokenarray[i+1].token != T_FINAL ) {
; 2013 :         if ( ERROR == EvalOperand( &i, tokenarray, Token_Count, &opnd, 0 ) )

	mov	BYTE PTR [rsp+32], 0
	lea	r9, QWORD PTR opnd$[rsp]
	mov	r8d, DWORD PTR ModuleInfo+496
	mov	rdx, QWORD PTR tokenarray$[rsp]
	lea	rcx, QWORD PTR i$[rsp]
	call	EvalOperand
	cmp	eax, -1
	jne	SHORT $LN36@InvokeDire

; 2014 :             return( ERROR );

	mov	eax, -1
	jmp	$LN1@InvokeDire
$LN36@InvokeDire:

; 2015 :         DebugMsg1(("InvokeDir: target is expression, kind=%u sym=%s mbr=%s type=%s memtype=%X ofssize=%u\n",

	cmp	QWORD PTR opnd$[rsp+96], 0
	je	SHORT $LN98@InvokeDire
	mov	rax, QWORD PTR opnd$[rsp+96]
	mov	rax, QWORD PTR [rax+8]
	mov	QWORD PTR tv135[rsp], rax
	jmp	SHORT $LN99@InvokeDire
$LN98@InvokeDire:
	lea	rax, OFFSET FLAT:$SG12269
	mov	QWORD PTR tv135[rsp], rax
$LN99@InvokeDire:
	cmp	QWORD PTR opnd$[rsp+88], 0
	je	SHORT $LN100@InvokeDire
	mov	rax, QWORD PTR opnd$[rsp+88]
	mov	rax, QWORD PTR [rax+8]
	mov	QWORD PTR tv139[rsp], rax
	jmp	SHORT $LN101@InvokeDire
$LN100@InvokeDire:
	lea	rax, OFFSET FLAT:$SG12270
	mov	QWORD PTR tv139[rsp], rax
$LN101@InvokeDire:
	cmp	QWORD PTR opnd$[rsp+80], 0
	je	SHORT $LN102@InvokeDire
	mov	rax, QWORD PTR opnd$[rsp+80]
	mov	rax, QWORD PTR [rax+8]
	mov	QWORD PTR tv143[rsp], rax
	jmp	SHORT $LN103@InvokeDire
$LN102@InvokeDire:
	lea	rax, OFFSET FLAT:$SG12271
	mov	QWORD PTR tv143[rsp], rax
$LN103@InvokeDire:
	movzx	eax, BYTE PTR opnd$[rsp+69]
	mov	DWORD PTR [rsp+48], eax
	mov	eax, DWORD PTR opnd$[rsp+64]
	mov	DWORD PTR [rsp+40], eax
	mov	rax, QWORD PTR tv135[rsp]
	mov	QWORD PTR [rsp+32], rax
	mov	r9, QWORD PTR tv139[rsp]
	mov	r8, QWORD PTR tv143[rsp]
	mov	edx, DWORD PTR opnd$[rsp+60]
	lea	rcx, OFFSET FLAT:$SG12272
	call	DoDebugMsg1

; 2016 :                    opnd.kind,
; 2017 :                    opnd.sym ? opnd.sym->name : "NULL",
; 2018 :                    opnd.mbr ? opnd.mbr->name : "NULL",
; 2019 :                    opnd.type ? opnd.type->name : "NULL",
; 2020 :                    opnd.mem_type, opnd.Ofssize ));
; 2021 : #if 1
; 2022 :         /* a typecast with PTR? Since v1.95, this has highest priority */
; 2023 :         //if (opnd.explicit == TRUE && opnd.type != NULL && opnd.type->state == SYM_TYPE ) {
; 2024 :         /* v1.96: removed opnd.explicit!!! */
; 2025 :         /* fixme: if opnd.type is set, opnd.type MUST have state SYM_TYPE */
; 2026 :         if ( opnd.type != NULL && opnd.type->state == SYM_TYPE ) {

	cmp	QWORD PTR opnd$[rsp+96], 0
	je	SHORT $LN37@InvokeDire
	mov	rax, QWORD PTR opnd$[rsp+96]
	cmp	DWORD PTR [rax+32], 7
	jne	SHORT $LN37@InvokeDire

; 2027 :             sym = opnd.type;

	mov	rax, QWORD PTR opnd$[rsp+96]
	mov	QWORD PTR sym$[rsp], rax

; 2028 :             DebugMsg1(("InvokeDirective: opnd.type=>%s< mem_type=%Xh\n", sym->name, sym->mem_type ));

	mov	rax, QWORD PTR sym$[rsp]
	mov	r8d, DWORD PTR [rax+36]
	mov	rax, QWORD PTR sym$[rsp]
	mov	rdx, QWORD PTR [rax+8]
	lea	rcx, OFFSET FLAT:$SG12274
	call	DoDebugMsg1

; 2029 :             proc = (struct dsym *)sym;

	mov	rax, QWORD PTR sym$[rsp]
	mov	QWORD PTR proc$[rsp], rax

; 2030 :             //if ( opnd.label_tok != NULL ) /* v2.09: uselabel obsolete */
; 2031 :             //    uselabel = TRUE;
; 2032 :             if ( sym->mem_type == MT_PROC ) /* added for v1.95 */

	mov	rax, QWORD PTR sym$[rsp]
	cmp	DWORD PTR [rax+36], 128			; 00000080H
	jne	SHORT $LN38@InvokeDire

; 2033 :                 goto isfnproto;

	jmp	$isfnproto$115
$LN38@InvokeDire:

; 2034 :             if ( sym->mem_type == MT_PTR )  /* v2.09: mem_type must be MT_PTR */

	mov	rax, QWORD PTR sym$[rsp]
	cmp	DWORD PTR [rax+36], 195			; 000000c3H
	jne	SHORT $LN39@InvokeDire

; 2035 :                 goto isfnptr;

	jmp	$isfnptr$116
$LN39@InvokeDire:
$LN37@InvokeDire:

; 2036 :         }
; 2037 : #endif
; 2038 :         if ( opnd.kind == EXPR_REG ) {

	cmp	DWORD PTR opnd$[rsp+60], 2
	jne	SHORT $LN40@InvokeDire

; 2039 :             if ( GetValueSp( opnd.base_reg->tokval ) & OP_RGT8 )

	mov	rax, QWORD PTR opnd$[rsp+24]
	mov	eax, DWORD PTR [rax+16]
	imul	rax, rax, 12
	lea	rcx, OFFSET FLAT:SpecialTable
	mov	eax, DWORD PTR [rcx+rax]
	and	eax, 14
	test	eax, eax
	je	SHORT $LN42@InvokeDire

; 2040 :                 sym = GetStdAssume( GetRegNo( opnd.base_reg->tokval ) );

	mov	rax, QWORD PTR opnd$[rsp+24]
	mov	eax, DWORD PTR [rax+16]
	imul	rax, rax, 12
	lea	rcx, OFFSET FLAT:SpecialTable
	movzx	eax, BYTE PTR [rcx+rax+10]
	mov	ecx, eax
	call	GetStdAssume
	mov	QWORD PTR sym$[rsp], rax
	jmp	SHORT $LN43@InvokeDire
$LN42@InvokeDire:

; 2041 :             else
; 2042 :                 sym = NULL;

	mov	QWORD PTR sym$[rsp], 0
$LN43@InvokeDire:

; 2043 :         } else

	jmp	SHORT $LN41@InvokeDire
$LN40@InvokeDire:

; 2044 :             sym = ( opnd.mbr ? opnd.mbr : opnd.sym );

	cmp	QWORD PTR opnd$[rsp+88], 0
	je	SHORT $LN104@InvokeDire
	mov	rax, QWORD PTR opnd$[rsp+88]
	mov	QWORD PTR tv176[rsp], rax
	jmp	SHORT $LN105@InvokeDire
$LN104@InvokeDire:
	mov	rax, QWORD PTR opnd$[rsp+80]
	mov	QWORD PTR tv176[rsp], rax
$LN105@InvokeDire:
	mov	rax, QWORD PTR tv176[rsp]
	mov	QWORD PTR sym$[rsp], rax
$LN41@InvokeDire:

; 2045 : 
; 2046 :     } else {

	jmp	SHORT $LN34@InvokeDire
$LN33@InvokeDire:

; 2047 :         opnd.base_reg = NULL;

	mov	QWORD PTR opnd$[rsp+24], 0

; 2048 :         sym = SymSearch( tokenarray[i].string_ptr );

	movsxd	rax, DWORD PTR i$[rsp]
	imul	rax, rax, 32				; 00000020H
	mov	rcx, QWORD PTR tokenarray$[rsp]
	mov	rcx, QWORD PTR [rcx+rax+8]
	call	SymFind
	mov	QWORD PTR sym$[rsp], rax

; 2049 :         i++;

	mov	eax, DWORD PTR i$[rsp]
	inc	eax
	mov	DWORD PTR i$[rsp], eax
$LN34@InvokeDire:

; 2050 :     }
; 2051 : 
; 2052 :     if( sym == NULL ) {

	cmp	QWORD PTR sym$[rsp], 0
	jne	SHORT $LN44@InvokeDire

; 2053 :         /* v2.04: msg changed */
; 2054 :         return( EmitErr( INVOKE_REQUIRES_PROTOTYPE ) );

	mov	ecx, 159				; 0000009fH
	call	EmitErr
	jmp	$LN1@InvokeDire
$LN44@InvokeDire:

; 2055 :         //return( EmitErr( SYMBOL_NOT_DEFINED, name ) );
; 2056 :     }
; 2057 :     if( sym->isproc )  /* the most simple case: symbol is a PROC */

	mov	rax, QWORD PTR sym$[rsp]
	movzx	eax, BYTE PTR [rax+41]
	shr	al, 3
	and	al, 1
	movzx	eax, al
	test	eax, eax
	je	SHORT $LN45@InvokeDire

; 2058 :         ;

	jmp	$LN46@InvokeDire
$LN45@InvokeDire:

; 2059 :     else if ( sym->mem_type == MT_PTR && sym->target_type && sym->target_type->isproc )

	mov	rax, QWORD PTR sym$[rsp]
	cmp	DWORD PTR [rax+36], 195			; 000000c3H
	jne	SHORT $LN47@InvokeDire
	mov	rax, QWORD PTR sym$[rsp]
	cmp	QWORD PTR [rax+48], 0
	je	SHORT $LN47@InvokeDire
	mov	rax, QWORD PTR sym$[rsp]
	mov	rax, QWORD PTR [rax+48]
	movzx	eax, BYTE PTR [rax+41]
	shr	al, 3
	and	al, 1
	movzx	eax, al
	test	eax, eax
	je	SHORT $LN47@InvokeDire

; 2060 :         sym = sym->target_type;

	mov	rax, QWORD PTR sym$[rsp]
	mov	rax, QWORD PTR [rax+48]
	mov	QWORD PTR sym$[rsp], rax
	jmp	$LN48@InvokeDire
$LN47@InvokeDire:

; 2061 :     else if ( sym->mem_type == MT_PTR && sym->target_type && sym->target_type->mem_type == MT_PROC ) {

	mov	rax, QWORD PTR sym$[rsp]
	cmp	DWORD PTR [rax+36], 195			; 000000c3H
	jne	SHORT $LN49@InvokeDire
	mov	rax, QWORD PTR sym$[rsp]
	cmp	QWORD PTR [rax+48], 0
	je	SHORT $LN49@InvokeDire
	mov	rax, QWORD PTR sym$[rsp]
	mov	rax, QWORD PTR [rax+48]
	cmp	DWORD PTR [rax+36], 128			; 00000080H
	jne	SHORT $LN49@InvokeDire

; 2062 :         proc = (struct dsym *)sym->target_type;

	mov	rax, QWORD PTR sym$[rsp]
	mov	rax, QWORD PTR [rax+48]
	mov	QWORD PTR proc$[rsp], rax

; 2063 :         goto isfnproto;

	jmp	SHORT $isfnproto$115
	jmp	$LN50@InvokeDire
$LN49@InvokeDire:

; 2064 :     } else if ( ( sym->mem_type == MT_TYPE ) && ( sym->type->mem_type == MT_PTR || sym->type->mem_type == MT_PROC ) ) {

	mov	rax, QWORD PTR sym$[rsp]
	cmp	DWORD PTR [rax+36], 196			; 000000c4H
	jne	$LN51@InvokeDire
	mov	rax, QWORD PTR sym$[rsp]
	mov	rax, QWORD PTR [rax+80]
	cmp	DWORD PTR [rax+36], 195			; 000000c3H
	je	SHORT $LN53@InvokeDire
	mov	rax, QWORD PTR sym$[rsp]
	mov	rax, QWORD PTR [rax+80]
	cmp	DWORD PTR [rax+36], 128			; 00000080H
	jne	$LN51@InvokeDire
$LN53@InvokeDire:

; 2065 :         /* second case: symbol is a (function?) pointer */
; 2066 :         proc = (struct dsym *)sym->type;

	mov	rax, QWORD PTR sym$[rsp]
	mov	rax, QWORD PTR [rax+80]
	mov	QWORD PTR proc$[rsp], rax

; 2067 :         if ( proc->sym.mem_type != MT_PROC )

	mov	rax, QWORD PTR proc$[rsp]
	cmp	DWORD PTR [rax+36], 128			; 00000080H
	je	SHORT $LN54@InvokeDire

; 2068 :             goto isfnptr;

	jmp	SHORT $isfnptr$116
$LN54@InvokeDire:
$isfnproto$115:

; 2069 :     isfnproto:
; 2070 :         /* pointer target must be a PROTO typedef */
; 2071 :         if ( proc->sym.mem_type != MT_PROC ) {

	mov	rax, QWORD PTR proc$[rsp]
	cmp	DWORD PTR [rax+36], 128			; 00000080H
	je	SHORT $LN55@InvokeDire

; 2072 :             DebugMsg(("InvokeDir: error proc.name=>%s< .mem_type=%Xh\n", proc->sym.name, proc->sym.mem_type ));

	mov	rax, QWORD PTR proc$[rsp]
	mov	r8d, DWORD PTR [rax+36]
	mov	rax, QWORD PTR proc$[rsp]
	mov	rdx, QWORD PTR [rax+8]
	lea	rcx, OFFSET FLAT:$SG12293
	call	DoDebugMsg

; 2073 :             DebugMsg(("InvokeDir: error sym.name=%s\n", sym ? sym->name : "" ));

	cmp	QWORD PTR sym$[rsp], 0
	je	SHORT $LN106@InvokeDire
	mov	rax, QWORD PTR sym$[rsp]
	mov	rax, QWORD PTR [rax+8]
	mov	QWORD PTR tv231[rsp], rax
	jmp	SHORT $LN107@InvokeDire
$LN106@InvokeDire:
	lea	rax, OFFSET FLAT:$SG12294
	mov	QWORD PTR tv231[rsp], rax
$LN107@InvokeDire:
	mov	rdx, QWORD PTR tv231[rsp]
	lea	rcx, OFFSET FLAT:$SG12295
	call	DoDebugMsg

; 2074 :             return( EmitErr( INVOKE_REQUIRES_PROTOTYPE ) );

	mov	ecx, 159				; 0000009fH
	call	EmitErr
	jmp	$LN1@InvokeDire
$LN55@InvokeDire:
$isfnptr$116:

; 2075 :         }
; 2076 :     isfnptr:
; 2077 :         /* get the pointer target */
; 2078 :         sym = proc->sym.target_type;

	mov	rax, QWORD PTR proc$[rsp]
	mov	rax, QWORD PTR [rax+48]
	mov	QWORD PTR sym$[rsp], rax

; 2079 :         DebugMsg1(("InvokeDir: proc=%s target_type=>%s<\n", proc->sym.name, sym ? sym->name : "NULL" ));

	cmp	QWORD PTR sym$[rsp], 0
	je	SHORT $LN108@InvokeDire
	mov	rax, QWORD PTR sym$[rsp]
	mov	rax, QWORD PTR [rax+8]
	mov	QWORD PTR tv239[rsp], rax
	jmp	SHORT $LN109@InvokeDire
$LN108@InvokeDire:
	lea	rax, OFFSET FLAT:$SG12296
	mov	QWORD PTR tv239[rsp], rax
$LN109@InvokeDire:
	mov	r8, QWORD PTR tv239[rsp]
	mov	rax, QWORD PTR proc$[rsp]
	mov	rdx, QWORD PTR [rax+8]
	lea	rcx, OFFSET FLAT:$SG12297
	call	DoDebugMsg1

; 2080 :         if ( sym == NULL ) {

	cmp	QWORD PTR sym$[rsp], 0
	jne	SHORT $LN56@InvokeDire

; 2081 :             return( EmitErr( INVOKE_REQUIRES_PROTOTYPE ) );

	mov	ecx, 159				; 0000009fH
	call	EmitErr
	jmp	$LN1@InvokeDire
$LN56@InvokeDire:

; 2082 :         }
; 2083 :     } else {

	jmp	$LN52@InvokeDire
$LN51@InvokeDire:

; 2084 :         DebugMsg(("InvokeDir: error, sym=%s state=%u memtype=%Xh [type=%s memtype=%Xh]\n",

	mov	rax, QWORD PTR sym$[rsp]
	cmp	QWORD PTR [rax+80], 0
	je	SHORT $LN110@InvokeDire
	mov	rax, QWORD PTR sym$[rsp]
	mov	rax, QWORD PTR [rax+80]
	mov	eax, DWORD PTR [rax+36]
	mov	DWORD PTR tv251[rsp], eax
	jmp	SHORT $LN111@InvokeDire
$LN110@InvokeDire:
	mov	DWORD PTR tv251[rsp], 0
$LN111@InvokeDire:
	mov	rax, QWORD PTR sym$[rsp]
	cmp	QWORD PTR [rax+80], 0
	je	SHORT $LN112@InvokeDire
	mov	rax, QWORD PTR sym$[rsp]
	mov	rax, QWORD PTR [rax+80]
	mov	rax, QWORD PTR [rax+8]
	mov	QWORD PTR tv257[rsp], rax
	jmp	SHORT $LN113@InvokeDire
$LN112@InvokeDire:
	lea	rax, OFFSET FLAT:$SG12299
	mov	QWORD PTR tv257[rsp], rax
$LN113@InvokeDire:
	mov	eax, DWORD PTR tv251[rsp]
	mov	DWORD PTR [rsp+40], eax
	mov	rax, QWORD PTR tv257[rsp]
	mov	QWORD PTR [rsp+32], rax
	mov	rax, QWORD PTR sym$[rsp]
	mov	r9d, DWORD PTR [rax+36]
	mov	rax, QWORD PTR sym$[rsp]
	mov	r8d, DWORD PTR [rax+32]
	mov	rax, QWORD PTR sym$[rsp]
	mov	rdx, QWORD PTR [rax+8]
	lea	rcx, OFFSET FLAT:$SG12300
	call	DoDebugMsg

; 2085 :                   sym->name, sym->state, sym->mem_type,
; 2086 :                   sym->type ? sym->type->name : "NULL",
; 2087 :                   sym->type ? sym->type->mem_type : 0));
; 2088 : #ifdef DEBUG_OUT
; 2089 :         if ( sym->mem_type == MT_PTR || sym->mem_type == MT_PROC )

	mov	rax, QWORD PTR sym$[rsp]
	cmp	DWORD PTR [rax+36], 195			; 000000c3H
	je	SHORT $LN58@InvokeDire
	mov	rax, QWORD PTR sym$[rsp]
	cmp	DWORD PTR [rax+36], 128			; 00000080H
	jne	SHORT $LN57@InvokeDire
$LN58@InvokeDire:

; 2090 :             DebugMsg(("InvokeDir: error, target_type=%s [memtype=%X pmemtype=%X isproc=%u])\n",

	mov	rax, QWORD PTR sym$[rsp]
	mov	rax, QWORD PTR [rax+48]
	movzx	eax, BYTE PTR [rax+41]
	shr	al, 3
	and	al, 1
	movzx	eax, al
	mov	rcx, QWORD PTR sym$[rsp]
	mov	rcx, QWORD PTR [rcx+48]
	movzx	ecx, BYTE PTR [rcx+46]
	mov	rdx, QWORD PTR sym$[rsp]
	mov	rdx, QWORD PTR [rdx+48]
	mov	r8, QWORD PTR sym$[rsp]
	mov	r8, QWORD PTR [r8+48]
	mov	QWORD PTR tv751[rsp], r8
	mov	DWORD PTR [rsp+32], eax
	mov	r9d, ecx
	mov	r8d, DWORD PTR [rdx+36]
	mov	rax, QWORD PTR tv751[rsp]
	mov	rdx, QWORD PTR [rax+8]
	lea	rcx, OFFSET FLAT:$SG12303
	call	DoDebugMsg
$LN57@InvokeDire:

; 2091 :                       sym->target_type->name,
; 2092 :                       sym->target_type->mem_type,
; 2093 :                       sym->target_type->ptr_memtype,
; 2094 :                       sym->target_type->isproc ));
; 2095 : #endif
; 2096 :         return( EmitErr( INVOKE_REQUIRES_PROTOTYPE ) );

	mov	ecx, 159				; 0000009fH
	call	EmitErr
	jmp	$LN1@InvokeDire
$LN52@InvokeDire:
$LN50@InvokeDire:
$LN48@InvokeDire:
$LN46@InvokeDire:

; 2097 :     }
; 2098 :     proc = (struct dsym *)sym;

	mov	rax, QWORD PTR sym$[rsp]
	mov	QWORD PTR proc$[rsp], rax

; 2099 :     info = proc->e.procinfo;

	mov	rax, QWORD PTR proc$[rsp]
	mov	rax, QWORD PTR [rax+96]
	mov	QWORD PTR info$[rsp], rax

; 2100 :     /* if (Parse_Pass == PASS_1) */
; 2101 :       memset(info->vregs, 0, 6); /* reset vregs EVERY pass */

	mov	rax, QWORD PTR info$[rsp]
	add	rax, 68					; 00000044H
	mov	r8d, 6
	xor	edx, edx
	mov	rcx, rax
	call	memset

; 2102 :       /* clear sse register flags every pass*/
; 2103 :       memset(info->xyzused, 0, 6);

	mov	rax, QWORD PTR info$[rsp]
	add	rax, 74					; 0000004aH
	mov	r8d, 6
	xor	edx, edx
	mov	rcx, rax
	call	memset

; 2104 :       memset(info->vecregsize, 0, 6);

	mov	rax, QWORD PTR info$[rsp]
	add	rax, 62					; 0000003eH
	mov	r8d, 6
	xor	edx, edx
	mov	rcx, rax
	call	memset

; 2105 :       info->vsize = 0;

	mov	rax, QWORD PTR info$[rsp]
	mov	DWORD PTR [rax+44], 0

; 2106 :       //memset(regsize, 0, 6);
; 2107 :     
; 2108 : #if 0 /* v2.05: can't happen anymore */
; 2109 :     /* does FASTCALL variant support INVOKE? */
; 2110 :     if ( proc->sym.langtype == LANG_FASTCALL && fastcall_tab[ModuleInfo.fctype].invokestart == NULL ) {
; 2111 :         return( EmitError( FASTCALL_VARIANT_NOT_SUPPORTED ) );
; 2112 :     }
; 2113 : #endif
; 2114 : 
; 2115 :     /* get the number of parameters */
; 2116 :     for ( curr = info->paralist, numParam = 0 ; curr ; curr = curr->nextparam, numParam++ );

	mov	rax, QWORD PTR info$[rsp]
	mov	rax, QWORD PTR [rax+8]
	mov	QWORD PTR curr$[rsp], rax
	mov	DWORD PTR numParam$[rsp], 0
	jmp	SHORT $LN4@InvokeDire
$LN2@InvokeDire:
	mov	rax, QWORD PTR curr$[rsp]
	mov	rax, QWORD PTR [rax+112]
	mov	QWORD PTR curr$[rsp], rax
	mov	eax, DWORD PTR numParam$[rsp]
	inc	eax
	mov	DWORD PTR numParam$[rsp], eax
$LN4@InvokeDire:
	cmp	QWORD PTR curr$[rsp], 0
	je	SHORT $LN3@InvokeDire
	jmp	SHORT $LN2@InvokeDire
$LN3@InvokeDire:

; 2117 :     DebugMsg1(("InvokeDir: numparams=%u\n", numParam ));

	mov	edx, DWORD PTR numParam$[rsp]
	lea	rcx, OFFSET FLAT:$SG12304
	call	DoDebugMsg1

; 2118 : 
; 2119 :     if ( proc->sym.langtype == LANG_FASTCALL ) {

	mov	rax, QWORD PTR proc$[rsp]
	cmp	DWORD PTR [rax+76], 7
	jne	SHORT $LN59@InvokeDire

; 2120 :         fcscratch = 0;

	mov	DWORD PTR fcscratch, 0

; 2121 :         porder = fastcall_tab[ModuleInfo.fctype].invokestart( proc, numParam, i, tokenarray, &value );

	movsxd	rax, DWORD PTR ModuleInfo+376
	imul	rax, rax, 24
	lea	rcx, OFFSET FLAT:fastcall_tab
	mov	QWORD PTR tv740[rsp], rcx
	lea	rdx, QWORD PTR value$[rsp]
	mov	QWORD PTR [rsp+32], rdx
	mov	r9, QWORD PTR tokenarray$[rsp]
	mov	r8d, DWORD PTR i$[rsp]
	mov	edx, DWORD PTR numParam$[rsp]
	mov	rcx, QWORD PTR proc$[rsp]
	mov	r10, QWORD PTR tv740[rsp]
	call	QWORD PTR [r10+rax]
	mov	DWORD PTR porder$[rsp], eax

; 2122 :     }

	jmp	SHORT $LN60@InvokeDire
$LN59@InvokeDire:

; 2123 :     else if ( proc->sym.langtype == LANG_VECTORCALL ) {

	mov	rax, QWORD PTR proc$[rsp]
	cmp	DWORD PTR [rax+76], 8
	jne	SHORT $LN61@InvokeDire

; 2124 :         fcscratch = 0;

	mov	DWORD PTR fcscratch, 0

; 2125 :         porder = vectorcall_tab[ModuleInfo.fctype].invokestart( proc, numParam, i, tokenarray, &value );

	movsxd	rax, DWORD PTR ModuleInfo+376
	imul	rax, rax, 24
	lea	rcx, OFFSET FLAT:vectorcall_tab
	mov	QWORD PTR tv741[rsp], rcx
	lea	rdx, QWORD PTR value$[rsp]
	mov	QWORD PTR [rsp+32], rdx
	mov	r9, QWORD PTR tokenarray$[rsp]
	mov	r8d, DWORD PTR i$[rsp]
	mov	edx, DWORD PTR numParam$[rsp]
	mov	rcx, QWORD PTR proc$[rsp]
	mov	r10, QWORD PTR tv741[rsp]
	call	QWORD PTR [r10+rax]
	mov	DWORD PTR porder$[rsp], eax
$LN61@InvokeDire:
$LN60@InvokeDire:

; 2126 :     }
; 2127 : 
; 2128 : 	/* -----------------------------------------------------------------------------------------------
; 2129 : 	 HANDLE PARAMETERS (FIRST PASS)
; 2130 : 	----------------------------------------------------------------------------------------------- */ 
; 2131 :     curr = info->paralist;

	mov	rax, QWORD PTR info$[rsp]
	mov	rax, QWORD PTR [rax+8]
	mov	QWORD PTR curr$[rsp], rax

; 2132 :     parmpos = i;

	mov	eax, DWORD PTR i$[rsp]
	mov	DWORD PTR parmpos$[rsp], eax

; 2133 : 
; 2134 :     if ( !( info->has_vararg ) ) {

	mov	rax, QWORD PTR info$[rsp]
	movzx	eax, BYTE PTR [rax+128]
	and	al, 1
	movzx	eax, al
	test	eax, eax
	jne	SHORT $LN62@InvokeDire

; 2135 :         /* check if there is a superfluous parameter in the INVOKE call */
; 2136 :         if ( PushInvokeParam( i, tokenarray, proc, NULL, numParam, &r0flags ) != ERROR ) {

	lea	rax, QWORD PTR r0flags$[rsp]
	mov	QWORD PTR [rsp+40], rax
	mov	eax, DWORD PTR numParam$[rsp]
	mov	DWORD PTR [rsp+32], eax
	xor	r9d, r9d
	mov	r8, QWORD PTR proc$[rsp]
	mov	rdx, QWORD PTR tokenarray$[rsp]
	mov	ecx, DWORD PTR i$[rsp]
	call	PushInvokeParam
	cmp	eax, -1
	je	SHORT $LN64@InvokeDire

; 2137 :             DebugMsg(("InvokeDir: superfluous argument, i=%u\n", i));

	mov	edx, DWORD PTR i$[rsp]
	lea	rcx, OFFSET FLAT:$SG12311
	call	DoDebugMsg

; 2138 :             return( EmitErr( TOO_MANY_ARGUMENTS_TO_INVOKE ) );

	mov	ecx, 177				; 000000b1H
	call	EmitErr
	jmp	$LN1@InvokeDire
$LN64@InvokeDire:

; 2139 :         }
; 2140 :     } else {

	jmp	$LN63@InvokeDire
$LN62@InvokeDire:

; 2141 :         int j = (Token_Count - i) / 2;

	mov	eax, DWORD PTR i$[rsp]
	mov	ecx, DWORD PTR ModuleInfo+496
	sub	ecx, eax
	mov	eax, ecx
	cdq
	sub	eax, edx
	sar	eax, 1
	mov	DWORD PTR j$1[rsp], eax

; 2142 :         /* for VARARG procs, just push the additional params with
; 2143 :          the VARARG descriptor
; 2144 :         */
; 2145 :         numParam--;

	mov	eax, DWORD PTR numParam$[rsp]
	dec	eax
	mov	DWORD PTR numParam$[rsp], eax

; 2146 :         size_vararg = 0; /* reset the VARARG parameter size count */

	mov	DWORD PTR size_vararg, 0
$LN5@InvokeDire:

; 2147 :         while ( curr && curr->sym.is_vararg == FALSE ) curr = curr->nextparam;

	cmp	QWORD PTR curr$[rsp], 0
	je	SHORT $LN6@InvokeDire
	mov	rax, QWORD PTR curr$[rsp]
	movzx	eax, BYTE PTR [rax+47]
	shr	al, 5
	and	al, 1
	movzx	eax, al
	test	eax, eax
	jne	SHORT $LN6@InvokeDire
	mov	rax, QWORD PTR curr$[rsp]
	mov	rax, QWORD PTR [rax+112]
	mov	QWORD PTR curr$[rsp], rax
	jmp	SHORT $LN5@InvokeDire
$LN6@InvokeDire:

; 2148 :         DebugMsg1(("InvokeDir: VARARG proc, numparams=%u, actual (max) params=%u, parasize=%u\n", numParam, j, info->parasize));

	mov	rax, QWORD PTR info$[rsp]
	mov	r9d, DWORD PTR [rax+32]
	mov	r8d, DWORD PTR j$1[rsp]
	mov	edx, DWORD PTR numParam$[rsp]
	lea	rcx, OFFSET FLAT:$SG12312
	call	DoDebugMsg1

; 2149 :         for ( ; j >= numParam; j-- )

	jmp	SHORT $LN9@InvokeDire
$LN7@InvokeDire:
	mov	eax, DWORD PTR j$1[rsp]
	dec	eax
	mov	DWORD PTR j$1[rsp], eax
$LN9@InvokeDire:
	mov	eax, DWORD PTR numParam$[rsp]
	cmp	DWORD PTR j$1[rsp], eax
	jl	SHORT $LN8@InvokeDire

; 2150 :             PushInvokeParam( i, tokenarray, proc, curr, j, &r0flags );

	lea	rax, QWORD PTR r0flags$[rsp]
	mov	QWORD PTR [rsp+40], rax
	mov	eax, DWORD PTR j$1[rsp]
	mov	DWORD PTR [rsp+32], eax
	mov	r9, QWORD PTR curr$[rsp]
	mov	r8, QWORD PTR proc$[rsp]
	mov	rdx, QWORD PTR tokenarray$[rsp]
	mov	ecx, DWORD PTR i$[rsp]
	call	PushInvokeParam
	jmp	SHORT $LN7@InvokeDire
$LN8@InvokeDire:

; 2151 :         /* move to first non-vararg parameter, if any */
; 2152 :         for ( curr = info->paralist; curr && curr->sym.is_vararg == TRUE; curr = curr->nextparam );

	mov	rax, QWORD PTR info$[rsp]
	mov	rax, QWORD PTR [rax+8]
	mov	QWORD PTR curr$[rsp], rax
	jmp	SHORT $LN12@InvokeDire
$LN10@InvokeDire:
	mov	rax, QWORD PTR curr$[rsp]
	mov	rax, QWORD PTR [rax+112]
	mov	QWORD PTR curr$[rsp], rax
$LN12@InvokeDire:
	cmp	QWORD PTR curr$[rsp], 0
	je	SHORT $LN11@InvokeDire
	mov	rax, QWORD PTR curr$[rsp]
	movzx	eax, BYTE PTR [rax+47]
	shr	al, 5
	and	al, 1
	movzx	eax, al
	cmp	eax, 1
	jne	SHORT $LN11@InvokeDire
	jmp	SHORT $LN10@InvokeDire
$LN11@InvokeDire:
$LN63@InvokeDire:

; 2153 :     }
; 2154 :     
; 2155 :     /* the parameters are usually stored in "push" order.
; 2156 :      * This if() must match the one in proc.c, ParseParams().
; 2157 :      */
; 2158 : 
; 2159 :     if ( sym->langtype == LANG_STDCALL ||
; 2160 :         sym->langtype == LANG_C ||
; 2161 :         ( sym->langtype == LANG_FASTCALL && porder ) || 
; 2162 :         (sym->langtype == LANG_VECTORCALL  && porder) ||

	mov	rax, QWORD PTR sym$[rsp]
	cmp	DWORD PTR [rax+76], 3
	je	SHORT $LN67@InvokeDire
	mov	rax, QWORD PTR sym$[rsp]
	cmp	DWORD PTR [rax+76], 1
	je	SHORT $LN67@InvokeDire
	mov	rax, QWORD PTR sym$[rsp]
	cmp	DWORD PTR [rax+76], 7
	jne	SHORT $LN68@InvokeDire
	cmp	DWORD PTR porder$[rsp], 0
	jne	SHORT $LN67@InvokeDire
$LN68@InvokeDire:
	mov	rax, QWORD PTR sym$[rsp]
	cmp	DWORD PTR [rax+76], 8
	jne	SHORT $LN69@InvokeDire
	cmp	DWORD PTR porder$[rsp], 0
	jne	SHORT $LN67@InvokeDire
$LN69@InvokeDire:
	mov	rax, QWORD PTR sym$[rsp]
	cmp	DWORD PTR [rax+76], 2
	jne	$LN65@InvokeDire
$LN67@InvokeDire:

; 2163 :         sym->langtype == LANG_SYSCALL ) {
; 2164 :         for ( ; curr ; curr = curr->nextparam ) {

	jmp	SHORT $LN15@InvokeDire
$LN13@InvokeDire:
	mov	rax, QWORD PTR curr$[rsp]
	mov	rax, QWORD PTR [rax+112]
	mov	QWORD PTR curr$[rsp], rax
$LN15@InvokeDire:
	cmp	QWORD PTR curr$[rsp], 0
	je	SHORT $LN14@InvokeDire

; 2165 :             numParam--;

	mov	eax, DWORD PTR numParam$[rsp]
	dec	eax
	mov	DWORD PTR numParam$[rsp], eax

; 2166 :             if ( PushInvokeParam( i, tokenarray, proc, curr, numParam, &r0flags ) == ERROR ) {

	lea	rax, QWORD PTR r0flags$[rsp]
	mov	QWORD PTR [rsp+40], rax
	mov	eax, DWORD PTR numParam$[rsp]
	mov	DWORD PTR [rsp+32], eax
	mov	r9, QWORD PTR curr$[rsp]
	mov	r8, QWORD PTR proc$[rsp]
	mov	rdx, QWORD PTR tokenarray$[rsp]
	mov	ecx, DWORD PTR i$[rsp]
	call	PushInvokeParam
	cmp	eax, -1
	jne	SHORT $LN70@InvokeDire

; 2167 :                 DebugMsg(("InvokeDir: PushInvokeParam(curr=%u, i=%u, numParam=%u) failed\n", curr, i, numParam));

	mov	r9d, DWORD PTR numParam$[rsp]
	mov	r8d, DWORD PTR i$[rsp]
	mov	rdx, QWORD PTR curr$[rsp]
	lea	rcx, OFFSET FLAT:$SG12319
	call	DoDebugMsg

; 2168 :                 EmitErr( TOO_FEW_ARGUMENTS_TO_INVOKE, sym->name );

	mov	rax, QWORD PTR sym$[rsp]
	mov	rdx, QWORD PTR [rax+8]
	mov	ecx, 146				; 00000092H
	call	EmitErr
$LN70@InvokeDire:

; 2169 :             }
; 2170 :         }

	jmp	$LN13@InvokeDire
$LN14@InvokeDire:

; 2171 :     } else {

	jmp	$LN66@InvokeDire
$LN65@InvokeDire:

; 2172 :         for ( numParam = 0 ; curr && curr->sym.is_vararg == FALSE; curr = curr->nextparam, numParam++ ) {

	mov	DWORD PTR numParam$[rsp], 0
	jmp	SHORT $LN18@InvokeDire
$LN16@InvokeDire:
	mov	rax, QWORD PTR curr$[rsp]
	mov	rax, QWORD PTR [rax+112]
	mov	QWORD PTR curr$[rsp], rax
	mov	eax, DWORD PTR numParam$[rsp]
	inc	eax
	mov	DWORD PTR numParam$[rsp], eax
$LN18@InvokeDire:
	cmp	QWORD PTR curr$[rsp], 0
	je	$LN17@InvokeDire
	mov	rax, QWORD PTR curr$[rsp]
	movzx	eax, BYTE PTR [rax+47]
	shr	al, 5
	and	al, 1
	movzx	eax, al
	test	eax, eax
	jne	SHORT $LN17@InvokeDire

; 2173 :             if ( PushInvokeParam( i, tokenarray, proc, curr, numParam, &r0flags ) == ERROR ) {

	lea	rax, QWORD PTR r0flags$[rsp]
	mov	QWORD PTR [rsp+40], rax
	mov	eax, DWORD PTR numParam$[rsp]
	mov	DWORD PTR [rsp+32], eax
	mov	r9, QWORD PTR curr$[rsp]
	mov	r8, QWORD PTR proc$[rsp]
	mov	rdx, QWORD PTR tokenarray$[rsp]
	mov	ecx, DWORD PTR i$[rsp]
	call	PushInvokeParam
	cmp	eax, -1
	jne	SHORT $LN71@InvokeDire

; 2174 :                 DebugMsg(("InvokeDir: PushInvokeParam(curr=%u, i=%u, numParam=%u) failed\n", curr, i, numParam));

	mov	r9d, DWORD PTR numParam$[rsp]
	mov	r8d, DWORD PTR i$[rsp]
	mov	rdx, QWORD PTR curr$[rsp]
	lea	rcx, OFFSET FLAT:$SG12321
	call	DoDebugMsg

; 2175 :                 EmitErr( TOO_FEW_ARGUMENTS_TO_INVOKE, sym->name );

	mov	rax, QWORD PTR sym$[rsp]
	mov	rdx, QWORD PTR [rax+8]
	mov	ecx, 146				; 00000092H
	call	EmitErr
$LN71@InvokeDire:

; 2176 :             }
; 2177 :         }

	jmp	$LN16@InvokeDire
$LN17@InvokeDire:
$LN66@InvokeDire:

; 2178 :     }
; 2179 : 
; 2180 : 	/* -----------------------------------------------------------------------------------------------
; 2181 : 	HANDLE PARAMETERS (SECOND PASS FOR VECTORCALL)
; 2182 : 	----------------------------------------------------------------------------------------------- */
; 2183 : 	if (sym->langtype == LANG_VECTORCALL)

	mov	rax, QWORD PTR sym$[rsp]
	cmp	DWORD PTR [rax+76], 8
	jne	$LN72@InvokeDire

; 2184 : 	{
; 2185 : 		vcallpass = 1;

	mov	DWORD PTR vcallpass, 1

; 2186 :     info->vsize = 0;

	mov	rax, QWORD PTR info$[rsp]
	mov	DWORD PTR [rax+44], 0

; 2187 : 		curr = info->paralist;

	mov	rax, QWORD PTR info$[rsp]
	mov	rax, QWORD PTR [rax+8]
	mov	QWORD PTR curr$[rsp], rax

; 2188 : 		parmpos = i;

	mov	eax, DWORD PTR i$[rsp]
	mov	DWORD PTR parmpos$[rsp], eax

; 2189 : 
; 2190 : 		if (!(info->has_vararg)) {

	mov	rax, QWORD PTR info$[rsp]
	movzx	eax, BYTE PTR [rax+128]
	and	al, 1
	movzx	eax, al
	test	eax, eax
	jne	SHORT $LN73@InvokeDire

; 2191 : 			/* check if there is a superfluous parameter in the INVOKE call */
; 2192 : 			if (PushInvokeParam(i, tokenarray, proc, NULL, numParam, &r0flags) != ERROR) {

	lea	rax, QWORD PTR r0flags$[rsp]
	mov	QWORD PTR [rsp+40], rax
	mov	eax, DWORD PTR numParam$[rsp]
	mov	DWORD PTR [rsp+32], eax
	xor	r9d, r9d
	mov	r8, QWORD PTR proc$[rsp]
	mov	rdx, QWORD PTR tokenarray$[rsp]
	mov	ecx, DWORD PTR i$[rsp]
	call	PushInvokeParam
	cmp	eax, -1
	je	SHORT $LN75@InvokeDire

; 2193 : 				DebugMsg(("InvokeDir: superfluous argument, i=%u\n", i));

	mov	edx, DWORD PTR i$[rsp]
	lea	rcx, OFFSET FLAT:$SG12326
	call	DoDebugMsg

; 2194 : 				return(EmitErr(TOO_MANY_ARGUMENTS_TO_INVOKE));

	mov	ecx, 177				; 000000b1H
	call	EmitErr
	jmp	$LN1@InvokeDire
$LN75@InvokeDire:

; 2195 : 			}
; 2196 : 		}

	jmp	$LN74@InvokeDire
$LN73@InvokeDire:

; 2197 : 		else {
; 2198 : 			int j = (Token_Count - i) / 2;

	mov	eax, DWORD PTR i$[rsp]
	mov	ecx, DWORD PTR ModuleInfo+496
	sub	ecx, eax
	mov	eax, ecx
	cdq
	sub	eax, edx
	sar	eax, 1
	mov	DWORD PTR j$2[rsp], eax

; 2199 : 			/* for VARARG procs, just push the additional params with
; 2200 : 			the VARARG descriptor
; 2201 : 			*/
; 2202 : 			numParam--;

	mov	eax, DWORD PTR numParam$[rsp]
	dec	eax
	mov	DWORD PTR numParam$[rsp], eax

; 2203 : 			size_vararg = 0; /* reset the VARARG parameter size count */

	mov	DWORD PTR size_vararg, 0
$LN19@InvokeDire:

; 2204 : 			while (curr && curr->sym.is_vararg == FALSE) curr = curr->nextparam;

	cmp	QWORD PTR curr$[rsp], 0
	je	SHORT $LN20@InvokeDire
	mov	rax, QWORD PTR curr$[rsp]
	movzx	eax, BYTE PTR [rax+47]
	shr	al, 5
	and	al, 1
	movzx	eax, al
	test	eax, eax
	jne	SHORT $LN20@InvokeDire
	mov	rax, QWORD PTR curr$[rsp]
	mov	rax, QWORD PTR [rax+112]
	mov	QWORD PTR curr$[rsp], rax
	jmp	SHORT $LN19@InvokeDire
$LN20@InvokeDire:

; 2205 : 			DebugMsg1(("InvokeDir: VARARG proc, numparams=%u, actual (max) params=%u, parasize=%u\n", numParam, j, info->parasize));

	mov	rax, QWORD PTR info$[rsp]
	mov	r9d, DWORD PTR [rax+32]
	mov	r8d, DWORD PTR j$2[rsp]
	mov	edx, DWORD PTR numParam$[rsp]
	lea	rcx, OFFSET FLAT:$SG12327
	call	DoDebugMsg1

; 2206 : 			for (; j >= numParam; j--)

	jmp	SHORT $LN23@InvokeDire
$LN21@InvokeDire:
	mov	eax, DWORD PTR j$2[rsp]
	dec	eax
	mov	DWORD PTR j$2[rsp], eax
$LN23@InvokeDire:
	mov	eax, DWORD PTR numParam$[rsp]
	cmp	DWORD PTR j$2[rsp], eax
	jl	SHORT $LN22@InvokeDire

; 2207 : 				PushInvokeParam(i, tokenarray, proc, curr, j, &r0flags);

	lea	rax, QWORD PTR r0flags$[rsp]
	mov	QWORD PTR [rsp+40], rax
	mov	eax, DWORD PTR j$2[rsp]
	mov	DWORD PTR [rsp+32], eax
	mov	r9, QWORD PTR curr$[rsp]
	mov	r8, QWORD PTR proc$[rsp]
	mov	rdx, QWORD PTR tokenarray$[rsp]
	mov	ecx, DWORD PTR i$[rsp]
	call	PushInvokeParam
	jmp	SHORT $LN21@InvokeDire
$LN22@InvokeDire:

; 2208 : 			/* move to first non-vararg parameter, if any */
; 2209 : 			for (curr = info->paralist; curr && curr->sym.is_vararg == TRUE; curr = curr->nextparam);

	mov	rax, QWORD PTR info$[rsp]
	mov	rax, QWORD PTR [rax+8]
	mov	QWORD PTR curr$[rsp], rax
	jmp	SHORT $LN26@InvokeDire
$LN24@InvokeDire:
	mov	rax, QWORD PTR curr$[rsp]
	mov	rax, QWORD PTR [rax+112]
	mov	QWORD PTR curr$[rsp], rax
$LN26@InvokeDire:
	cmp	QWORD PTR curr$[rsp], 0
	je	SHORT $LN25@InvokeDire
	mov	rax, QWORD PTR curr$[rsp]
	movzx	eax, BYTE PTR [rax+47]
	shr	al, 5
	and	al, 1
	movzx	eax, al
	cmp	eax, 1
	jne	SHORT $LN25@InvokeDire
	jmp	SHORT $LN24@InvokeDire
$LN25@InvokeDire:
$LN74@InvokeDire:

; 2210 : 		}
; 2211 : 
; 2212 : 		/* the parameters are usually stored in "push" order.
; 2213 : 		* This if() must match the one in proc.c, ParseParams().
; 2214 : 		*/
; 2215 : 
; 2216 : 		if (sym->langtype == LANG_STDCALL ||
; 2217 : 			sym->langtype == LANG_C ||
; 2218 : 			(sym->langtype == LANG_FASTCALL && porder) ||
; 2219 : 			(sym->langtype == LANG_VECTORCALL  && porder) ||

	mov	rax, QWORD PTR sym$[rsp]
	cmp	DWORD PTR [rax+76], 3
	je	SHORT $LN78@InvokeDire
	mov	rax, QWORD PTR sym$[rsp]
	cmp	DWORD PTR [rax+76], 1
	je	SHORT $LN78@InvokeDire
	mov	rax, QWORD PTR sym$[rsp]
	cmp	DWORD PTR [rax+76], 7
	jne	SHORT $LN79@InvokeDire
	cmp	DWORD PTR porder$[rsp], 0
	jne	SHORT $LN78@InvokeDire
$LN79@InvokeDire:
	mov	rax, QWORD PTR sym$[rsp]
	cmp	DWORD PTR [rax+76], 8
	jne	SHORT $LN80@InvokeDire
	cmp	DWORD PTR porder$[rsp], 0
	jne	SHORT $LN78@InvokeDire
$LN80@InvokeDire:
	mov	rax, QWORD PTR sym$[rsp]
	cmp	DWORD PTR [rax+76], 2
	jne	$LN76@InvokeDire
$LN78@InvokeDire:

; 2220 : 			sym->langtype == LANG_SYSCALL) {
; 2221 : 			for (; curr; curr = curr->nextparam) {

	jmp	SHORT $LN29@InvokeDire
$LN27@InvokeDire:
	mov	rax, QWORD PTR curr$[rsp]
	mov	rax, QWORD PTR [rax+112]
	mov	QWORD PTR curr$[rsp], rax
$LN29@InvokeDire:
	cmp	QWORD PTR curr$[rsp], 0
	je	SHORT $LN28@InvokeDire

; 2222 : 				numParam--;

	mov	eax, DWORD PTR numParam$[rsp]
	dec	eax
	mov	DWORD PTR numParam$[rsp], eax

; 2223 : 				if (PushInvokeParam(i, tokenarray, proc, curr, numParam, &r0flags) == ERROR) {

	lea	rax, QWORD PTR r0flags$[rsp]
	mov	QWORD PTR [rsp+40], rax
	mov	eax, DWORD PTR numParam$[rsp]
	mov	DWORD PTR [rsp+32], eax
	mov	r9, QWORD PTR curr$[rsp]
	mov	r8, QWORD PTR proc$[rsp]
	mov	rdx, QWORD PTR tokenarray$[rsp]
	mov	ecx, DWORD PTR i$[rsp]
	call	PushInvokeParam
	cmp	eax, -1
	jne	SHORT $LN81@InvokeDire

; 2224 : 					DebugMsg(("InvokeDir: PushInvokeParam(curr=%u, i=%u, numParam=%u) failed\n", curr, i, numParam));

	mov	r9d, DWORD PTR numParam$[rsp]
	mov	r8d, DWORD PTR i$[rsp]
	mov	rdx, QWORD PTR curr$[rsp]
	lea	rcx, OFFSET FLAT:$SG12334
	call	DoDebugMsg

; 2225 : 					EmitErr(TOO_FEW_ARGUMENTS_TO_INVOKE, sym->name);

	mov	rax, QWORD PTR sym$[rsp]
	mov	rdx, QWORD PTR [rax+8]
	mov	ecx, 146				; 00000092H
	call	EmitErr
$LN81@InvokeDire:

; 2226 : 				}
; 2227 : 			}

	jmp	$LN27@InvokeDire
$LN28@InvokeDire:

; 2228 : 		}

	jmp	$LN77@InvokeDire
$LN76@InvokeDire:

; 2229 : 		else {
; 2230 : 			for (numParam = 0; curr && curr->sym.is_vararg == FALSE; curr = curr->nextparam, numParam++) {

	mov	DWORD PTR numParam$[rsp], 0
	jmp	SHORT $LN32@InvokeDire
$LN30@InvokeDire:
	mov	rax, QWORD PTR curr$[rsp]
	mov	rax, QWORD PTR [rax+112]
	mov	QWORD PTR curr$[rsp], rax
	mov	eax, DWORD PTR numParam$[rsp]
	inc	eax
	mov	DWORD PTR numParam$[rsp], eax
$LN32@InvokeDire:
	cmp	QWORD PTR curr$[rsp], 0
	je	$LN31@InvokeDire
	mov	rax, QWORD PTR curr$[rsp]
	movzx	eax, BYTE PTR [rax+47]
	shr	al, 5
	and	al, 1
	movzx	eax, al
	test	eax, eax
	jne	SHORT $LN31@InvokeDire

; 2231 : 				if (PushInvokeParam(i, tokenarray, proc, curr, numParam, &r0flags) == ERROR) {

	lea	rax, QWORD PTR r0flags$[rsp]
	mov	QWORD PTR [rsp+40], rax
	mov	eax, DWORD PTR numParam$[rsp]
	mov	DWORD PTR [rsp+32], eax
	mov	r9, QWORD PTR curr$[rsp]
	mov	r8, QWORD PTR proc$[rsp]
	mov	rdx, QWORD PTR tokenarray$[rsp]
	mov	ecx, DWORD PTR i$[rsp]
	call	PushInvokeParam
	cmp	eax, -1
	jne	SHORT $LN82@InvokeDire

; 2232 : 					DebugMsg(("InvokeDir: PushInvokeParam(curr=%u, i=%u, numParam=%u) failed\n", curr, i, numParam));

	mov	r9d, DWORD PTR numParam$[rsp]
	mov	r8d, DWORD PTR i$[rsp]
	mov	rdx, QWORD PTR curr$[rsp]
	lea	rcx, OFFSET FLAT:$SG12336
	call	DoDebugMsg

; 2233 : 					EmitErr(TOO_FEW_ARGUMENTS_TO_INVOKE, sym->name);

	mov	rax, QWORD PTR sym$[rsp]
	mov	rdx, QWORD PTR [rax+8]
	mov	ecx, 146				; 00000092H
	call	EmitErr
$LN82@InvokeDire:

; 2234 : 				}
; 2235 : 			}

	jmp	$LN30@InvokeDire
$LN31@InvokeDire:
$LN77@InvokeDire:
$LN72@InvokeDire:

; 2236 : 		}
; 2237 : 	}
; 2238 : 	vcallpass = 0;

	mov	DWORD PTR vcallpass, 0

; 2239 : 
; 2240 : #if 1
; 2241 :     /* v2.05 added. A warning only, because Masm accepts this. */
; 2242 :     if ( opnd.base_reg != NULL &&
; 2243 :         Parse_Pass == PASS_1 &&
; 2244 :         (r0flags & R0_USED ) &&

	cmp	QWORD PTR opnd$[rsp+24], 0
	je	SHORT $LN83@InvokeDire
	cmp	DWORD PTR Parse_Pass, 0
	jne	SHORT $LN83@InvokeDire
	movzx	eax, BYTE PTR r0flags$[rsp]
	and	eax, 1
	test	eax, eax
	je	SHORT $LN83@InvokeDire
	mov	rax, QWORD PTR opnd$[rsp+24]
	movzx	eax, BYTE PTR [rax+1]
	test	eax, eax
	jne	SHORT $LN83@InvokeDire

; 2245 :         opnd.base_reg->bytval == 0 )
; 2246 :         EmitWarn( 2, REGISTER_VALUE_OVERWRITTEN_BY_INVOKE );

	mov	edx, 165				; 000000a5H
	mov	ecx, 2
	call	EmitWarn
$LN83@InvokeDire:

; 2247 : #endif
; 2248 :     p = StringBufferEnd;

	mov	rax, QWORD PTR ModuleInfo+488
	mov	QWORD PTR p$[rsp], rax

; 2249 :     strcpy( p, " call " );

	lea	rdx, OFFSET FLAT:$SG12338
	mov	rcx, QWORD PTR p$[rsp]
	call	strcpy

; 2250 :     p += 6;

	mov	rax, QWORD PTR p$[rsp]
	add	rax, 6
	mov	QWORD PTR p$[rsp], rax

; 2251 :     /* v2.09: 'uselabel' obsolete */
; 2252 :     //if ( uselabel ) {
; 2253 :     //    DebugMsg1(("InvokeDir: opnd.label_tok is used: %s\n", opnd.label_tok->string_ptr ));
; 2254 :     //    strcpy( p, opnd.label_tok->string_ptr );
; 2255 :     //} else {
; 2256 : #if DLLIMPORT
; 2257 :         if ( sym->state == SYM_EXTERNAL && sym->dll ) {

	mov	rax, QWORD PTR sym$[rsp]
	cmp	DWORD PTR [rax+32], 2
	jne	$LN84@InvokeDire
	mov	rax, QWORD PTR sym$[rsp]
	cmp	QWORD PTR [rax+56], 0
	je	$LN84@InvokeDire

; 2258 :             char *iatname = p;

	mov	rax, QWORD PTR p$[rsp]
	mov	QWORD PTR iatname$3[rsp], rax

; 2259 :             strcpy( p, ModuleInfo.g.imp_prefix );

	mov	rdx, QWORD PTR ModuleInfo+88
	mov	rcx, QWORD PTR p$[rsp]
	call	strcpy

; 2260 :             p += strlen( p );

	mov	rcx, QWORD PTR p$[rsp]
	call	strlen
	mov	rcx, QWORD PTR p$[rsp]
	add	rcx, rax
	mov	rax, rcx
	mov	QWORD PTR p$[rsp], rax

; 2261 :             p += Mangle( sym, p );

	mov	rdx, QWORD PTR p$[rsp]
	mov	rcx, QWORD PTR sym$[rsp]
	call	Mangle
	cdqe
	mov	rcx, QWORD PTR p$[rsp]
	add	rcx, rax
	mov	rax, rcx
	mov	QWORD PTR p$[rsp], rax

; 2262 :             namepos++;

	mov	eax, DWORD PTR namepos$[rsp]
	inc	eax
	mov	DWORD PTR namepos$[rsp], eax

; 2263 :             if ( sym->iat_used == FALSE ) {

	mov	rax, QWORD PTR sym$[rsp]
	movzx	eax, BYTE PTR [rax+40]
	shr	al, 3
	and	al, 1
	movzx	eax, al
	test	eax, eax
	jne	$LN85@InvokeDire

; 2264 :                 sym->iat_used = TRUE;

	mov	rax, QWORD PTR sym$[rsp]
	movzx	eax, BYTE PTR [rax+40]
	or	al, 8
	mov	rcx, QWORD PTR sym$[rsp]
	mov	BYTE PTR [rcx+40], al

; 2265 :                 sym->dll->cnt++;

	mov	rax, QWORD PTR sym$[rsp]
	mov	rax, QWORD PTR [rax+56]
	mov	eax, DWORD PTR [rax+8]
	inc	eax
	mov	rcx, QWORD PTR sym$[rsp]
	mov	rcx, QWORD PTR [rcx+56]
	mov	DWORD PTR [rcx+8], eax

; 2266 :                 if ( sym->langtype != LANG_NONE && sym->langtype != ModuleInfo.langtype )

	mov	rax, QWORD PTR sym$[rsp]
	cmp	DWORD PTR [rax+76], 0
	je	SHORT $LN86@InvokeDire
	mov	rax, QWORD PTR sym$[rsp]
	mov	ecx, DWORD PTR ModuleInfo+364
	cmp	DWORD PTR [rax+76], ecx
	je	SHORT $LN86@InvokeDire

; 2267 :                     AddLineQueueX( " externdef %r %s: %r %r", sym->langtype + T_C - 1, iatname, T_PTR, T_PROC );

	mov	rax, QWORD PTR sym$[rsp]
	mov	eax, DWORD PTR [rax+76]
	add	eax, 263				; 00000107H
	mov	DWORD PTR [rsp+32], 433			; 000001b1H
	mov	r9d, 258				; 00000102H
	mov	r8, QWORD PTR iatname$3[rsp]
	mov	edx, eax
	lea	rcx, OFFSET FLAT:$SG12343
	call	AddLineQueueX
	jmp	SHORT $LN87@InvokeDire
$LN86@InvokeDire:

; 2268 :                 else
; 2269 :                     AddLineQueueX( " externdef %s: %r %r", iatname, T_PTR, T_PROC );

	mov	r9d, 433				; 000001b1H
	mov	r8d, 258				; 00000102H
	mov	rdx, QWORD PTR iatname$3[rsp]
	lea	rcx, OFFSET FLAT:$SG12344
	call	AddLineQueueX
$LN87@InvokeDire:
$LN85@InvokeDire:
$LN84@InvokeDire:

; 2270 :             }
; 2271 :         }
; 2272 : #endif
; 2273 :         size = tokenarray[parmpos].tokpos - tokenarray[namepos].tokpos;

	movsxd	rax, DWORD PTR parmpos$[rsp]
	imul	rax, rax, 32				; 00000020H
	movsxd	rcx, DWORD PTR namepos$[rsp]
	imul	rcx, rcx, 32				; 00000020H
	mov	rdx, QWORD PTR tokenarray$[rsp]
	mov	r8, QWORD PTR tokenarray$[rsp]
	mov	rcx, QWORD PTR [r8+rcx+24]
	mov	rax, QWORD PTR [rdx+rax+24]
	sub	rax, rcx
	mov	DWORD PTR size$[rsp], eax

; 2274 :         memcpy( p, tokenarray[namepos].tokpos, size );

	movsxd	rax, DWORD PTR size$[rsp]
	movsxd	rcx, DWORD PTR namepos$[rsp]
	imul	rcx, rcx, 32				; 00000020H
	mov	r8, rax
	mov	rax, QWORD PTR tokenarray$[rsp]
	mov	rdx, QWORD PTR [rax+rcx+24]
	mov	rcx, QWORD PTR p$[rsp]
	call	memcpy

; 2275 :         *(p+size) = NULLC;

	movsxd	rax, DWORD PTR size$[rsp]
	mov	rcx, QWORD PTR p$[rsp]
	mov	BYTE PTR [rcx+rax], 0

; 2276 : #if 0  /* v2.09: uselabel obsolete */
; 2277 :     }
; 2278 : #endif
; 2279 :     AddLineQueue( StringBufferEnd );

	mov	rcx, QWORD PTR ModuleInfo+488
	call	AddLineQueue

; 2280 : 
; 2281 :     if (( sym->langtype == LANG_C || sym->langtype == LANG_SYSCALL ) &&

	mov	rax, QWORD PTR sym$[rsp]
	cmp	DWORD PTR [rax+76], 1
	je	SHORT $LN90@InvokeDire
	mov	rax, QWORD PTR sym$[rsp]
	cmp	DWORD PTR [rax+76], 2
	jne	$LN88@InvokeDire
$LN90@InvokeDire:
	mov	rax, QWORD PTR info$[rsp]
	cmp	DWORD PTR [rax+32], 0
	jne	SHORT $LN91@InvokeDire
	mov	rax, QWORD PTR info$[rsp]
	movzx	eax, BYTE PTR [rax+128]
	and	al, 1
	movzx	eax, al
	test	eax, eax
	je	$LN88@InvokeDire
	cmp	DWORD PTR size_vararg, 0
	je	$LN88@InvokeDire
$LN91@InvokeDire:

; 2282 :         ( info->parasize || ( info->has_vararg && size_vararg ) )) {
; 2283 :         if ( info->has_vararg ) {

	mov	rax, QWORD PTR info$[rsp]
	movzx	eax, BYTE PTR [rax+128]
	and	al, 1
	movzx	eax, al
	test	eax, eax
	je	SHORT $LN92@InvokeDire

; 2284 :             DebugMsg1(("InvokeDir: size of fix args=%u, var args=%u\n", info->parasize, size_vararg));

	mov	r8d, DWORD PTR size_vararg
	mov	rax, QWORD PTR info$[rsp]
	mov	edx, DWORD PTR [rax+32]
	lea	rcx, OFFSET FLAT:$SG12351
	call	DoDebugMsg1

; 2285 :             AddLineQueueX( " add %r, %u", stackreg[ModuleInfo.Ofssize], NUMQUAL info->parasize + size_vararg );

	mov	rax, QWORD PTR info$[rsp]
	mov	eax, DWORD PTR [rax+32]
	add	eax, DWORD PTR size_vararg
	movzx	ecx, BYTE PTR ModuleInfo+404
	lea	rdx, OFFSET FLAT:stackreg
	mov	r8d, eax
	mov	edx, DWORD PTR [rdx+rcx*4]
	lea	rcx, OFFSET FLAT:$SG12352
	call	AddLineQueueX

; 2286 :         } else

	jmp	SHORT $LN93@InvokeDire
$LN92@InvokeDire:

; 2287 :             AddLineQueueX( " add %r, %u", stackreg[ModuleInfo.Ofssize], NUMQUAL info->parasize );

	movzx	eax, BYTE PTR ModuleInfo+404
	lea	rcx, OFFSET FLAT:stackreg
	mov	rdx, QWORD PTR info$[rsp]
	mov	r8d, DWORD PTR [rdx+32]
	mov	edx, DWORD PTR [rcx+rax*4]
	lea	rcx, OFFSET FLAT:$SG12353
	call	AddLineQueueX
$LN93@InvokeDire:

; 2288 :     } 

	jmp	$LN89@InvokeDire
$LN88@InvokeDire:

; 2289 :     else if ( sym->langtype == LANG_FASTCALL ) {

	mov	rax, QWORD PTR sym$[rsp]
	cmp	DWORD PTR [rax+76], 7
	jne	SHORT $LN94@InvokeDire

; 2290 :         fastcall_tab[ModuleInfo.fctype].invokeend( proc, numParam, value );

	movsxd	rax, DWORD PTR ModuleInfo+376
	imul	rax, rax, 24
	lea	rcx, OFFSET FLAT:fastcall_tab
	mov	QWORD PTR tv744[rsp], rcx
	mov	r8d, DWORD PTR value$[rsp]
	mov	edx, DWORD PTR numParam$[rsp]
	mov	rcx, QWORD PTR proc$[rsp]
	mov	r9, QWORD PTR tv744[rsp]
	call	QWORD PTR [r9+rax+8]

; 2291 :     }

	jmp	SHORT $LN95@InvokeDire
$LN94@InvokeDire:

; 2292 :     else if ( sym->langtype == LANG_VECTORCALL ) {

	mov	rax, QWORD PTR sym$[rsp]
	cmp	DWORD PTR [rax+76], 8
	jne	SHORT $LN96@InvokeDire

; 2293 :         vectorcall_tab[ModuleInfo.fctype].invokeend( proc, numParam, value );

	movsxd	rax, DWORD PTR ModuleInfo+376
	imul	rax, rax, 24
	lea	rcx, OFFSET FLAT:vectorcall_tab
	mov	QWORD PTR tv745[rsp], rcx
	mov	r8d, DWORD PTR value$[rsp]
	mov	edx, DWORD PTR numParam$[rsp]
	mov	rcx, QWORD PTR proc$[rsp]
	mov	r9, QWORD PTR tv745[rsp]
	call	QWORD PTR [r9+rax+8]
$LN96@InvokeDire:
$LN95@InvokeDire:
$LN89@InvokeDire:

; 2294 :     }
; 2295 : 
; 2296 :     LstWrite( LSTTYPE_DIRECTIVE, GetCurrOffset(), NULL );

	call	GetCurrOffset
	xor	r8d, r8d
	mov	edx, eax
	mov	ecx, 4
	call	LstWrite

; 2297 : 
; 2298 :     RunLineQueue();

	call	RunLineQueue

; 2299 : 
; 2300 :     return( NOT_ERROR );

	xor	eax, eax
$LN1@InvokeDire:

; 2301 : }

	add	rsp, 376				; 00000178H
	ret	0
InvokeDirective ENDP
_TEXT	ENDS
; Function compile flags: /Odtp
; File d:\hjwasm\hjwasm2.13.1s\hjwasm2.13.1s\invoke.c
_TEXT	SEGMENT
asize$ = 64
psize$ = 68
Ofssize$ = 72
addr$ = 73
reg$1 = 76
pushsize$ = 80
j$ = 84
sreg$2 = 88
dw$3 = 92
fptrsize$ = 96
asize2$4 = 100
tv771 = 104
tv1238 = 108
qual$5 = 112
currParm$ = 116
optype$6 = 120
opnd$ = 128
instr$7 = 240
tv710 = 248
tv714 = 252
tv1117 = 256
tv1191 = 260
tv193 = 264
tv427 = 268
reg$ = 272
tv1653 = 276
tv1710 = 280
tv1423 = 284
suffix$8 = 288
tv1457 = 296
tv68 = 304
$T9 = 312
tv830 = 320
tv891 = 328
tv1112 = 336
tv1322 = 344
tv1323 = 352
tv1327 = 360
tv1330 = 368
fullparam$ = 384
buffer$ = 1408
__$ArrayPad$ = 2432
i$ = 2464
tokenarray$ = 2472
proc$ = 2480
curr$ = 2488
reqParam$ = 2496
r0flags$ = 2504
PushInvokeParam PROC

; 1254 : {

	mov	QWORD PTR [rsp+32], r9
	mov	QWORD PTR [rsp+24], r8
	mov	QWORD PTR [rsp+16], rdx
	mov	DWORD PTR [rsp+8], ecx
	sub	rsp, 2456				; 00000998H
	mov	rax, QWORD PTR __security_cookie
	xor	rax, rsp
	mov	QWORD PTR __$ArrayPad$[rsp], rax

; 1255 :     int currParm;
; 1256 :     int psize;
; 1257 :     int asize;
; 1258 :     int pushsize;
; 1259 :     int j;
; 1260 :     int fptrsize;
; 1261 :     char Ofssize;
; 1262 :     bool addr = FALSE; /* ADDR operator found */

	mov	BYTE PTR addr$[rsp], 0

; 1263 :     struct expr opnd;
; 1264 :     char fullparam[MAX_LINE_LEN];
; 1265 :     char buffer[MAX_LINE_LEN];
; 1266 :     int reg;
; 1267 :     DebugMsg1(("PushInvokeParam(%s, param=%s:%u, i=%u ) enter\n", proc->sym.name, curr ? curr->sym.name : "NULL", reqParam, i ));

	cmp	QWORD PTR curr$[rsp], 0
	je	SHORT $LN253@PushInvoke
	mov	rax, QWORD PTR curr$[rsp]
	mov	rax, QWORD PTR [rax+8]
	mov	QWORD PTR tv68[rsp], rax
	jmp	SHORT $LN254@PushInvoke
$LN253@PushInvoke:
	lea	rax, OFFSET FLAT:$SG11848
	mov	QWORD PTR tv68[rsp], rax
$LN254@PushInvoke:
	mov	eax, DWORD PTR i$[rsp]
	mov	DWORD PTR [rsp+32], eax
	mov	r9d, DWORD PTR reqParam$[rsp]
	mov	r8, QWORD PTR tv68[rsp]
	mov	rax, QWORD PTR proc$[rsp]
	mov	rdx, QWORD PTR [rax+8]
	lea	rcx, OFFSET FLAT:$SG11849
	call	DoDebugMsg1

; 1268 :    //__debugbreak();
; 1269 :     for ( currParm = 0; currParm <= reqParam; ) {

	mov	DWORD PTR currParm$[rsp], 0
$LN2@PushInvoke:
	mov	eax, DWORD PTR reqParam$[rsp]
	cmp	DWORD PTR currParm$[rsp], eax
	jg	$LN3@PushInvoke

; 1270 :         if ( tokenarray[i].token == T_FINAL ) { /* this is no real error! */

	movsxd	rax, DWORD PTR i$[rsp]
	imul	rax, rax, 32				; 00000020H
	mov	rcx, QWORD PTR tokenarray$[rsp]
	movzx	eax, BYTE PTR [rcx+rax]
	test	eax, eax
	jne	SHORT $LN16@PushInvoke

; 1271 :             DebugMsg1(("PushInvokeParam(%s): T_FINAL token, i=%u\n", proc->sym.name, i));

	mov	r8d, DWORD PTR i$[rsp]
	mov	rax, QWORD PTR proc$[rsp]
	mov	rdx, QWORD PTR [rax+8]
	lea	rcx, OFFSET FLAT:$SG11851
	call	DoDebugMsg1

; 1272 :             return( ERROR );

	mov	eax, -1
	jmp	$LN1@PushInvoke
$LN16@PushInvoke:

; 1273 :         }
; 1274 :         if ( tokenarray[i].token == T_COMMA ) {

	movsxd	rax, DWORD PTR i$[rsp]
	imul	rax, rax, 32				; 00000020H
	mov	rcx, QWORD PTR tokenarray$[rsp]
	movzx	eax, BYTE PTR [rcx+rax]
	cmp	eax, 44					; 0000002cH
	jne	SHORT $LN17@PushInvoke

; 1275 :             currParm++;

	mov	eax, DWORD PTR currParm$[rsp]
	inc	eax
	mov	DWORD PTR currParm$[rsp], eax
$LN17@PushInvoke:

; 1276 :         }
; 1277 :         i++;

	mov	eax, DWORD PTR i$[rsp]
	inc	eax
	mov	DWORD PTR i$[rsp], eax

; 1278 :     }

	jmp	$LN2@PushInvoke
$LN3@PushInvoke:

; 1279 :     /* if curr is NULL this call is just a parameter check */
; 1280 :     if ( !curr ) return( NOT_ERROR );

	cmp	QWORD PTR curr$[rsp], 0
	jne	SHORT $LN18@PushInvoke
	xor	eax, eax
	jmp	$LN1@PushInvoke
$LN18@PushInvoke:

; 1281 : 
; 1282 : #if 1 /* v2.05 */
; 1283 :     psize = curr->sym.total_size;

	mov	rax, QWORD PTR curr$[rsp]
	mov	eax, DWORD PTR [rax+56]
	mov	DWORD PTR psize$[rsp], eax

; 1284 :     DebugMsg1(("PushInvokeParam(%s,%u): pmtype=%Xh, psize=%u\n", proc->sym.name, reqParam, curr->sym.mem_type, psize ));

	mov	eax, DWORD PTR psize$[rsp]
	mov	DWORD PTR [rsp+32], eax
	mov	rax, QWORD PTR curr$[rsp]
	mov	r9d, DWORD PTR [rax+36]
	mov	r8d, DWORD PTR reqParam$[rsp]
	mov	rax, QWORD PTR proc$[rsp]
	mov	rdx, QWORD PTR [rax+8]
	lea	rcx, OFFSET FLAT:$SG11854
	call	DoDebugMsg1

; 1285 : #else
; 1286 :     /* set psize (size of parameter) */
; 1287 :     if ( curr->is_ptr ) {
; 1288 :         psize = 2 << curr->sym.Ofssize;
; 1289 :         if ( curr->sym.isfar )
; 1290 :             psize += 2;
; 1291 :     } else
; 1292 :         psize = SizeFromMemtype( curr->sym.mem_type, curr->sym.Ofssize, curr->sym.type );
; 1293 :     DebugMsg1(("PushInvokeParam(%s,%u): is_ptr=%u, pmtype=%Xh, psize=%u\n", proc->sym.name, reqParam, curr->is_ptr, curr->sym.mem_type, psize ));
; 1294 : #endif
; 1295 : 
; 1296 :     /* ADDR: the argument's address is to be pushed? */
; 1297 :     if ( tokenarray[i].token == T_RES_ID && tokenarray[i].tokval == T_ADDR ) {

	movsxd	rax, DWORD PTR i$[rsp]
	imul	rax, rax, 32				; 00000020H
	mov	rcx, QWORD PTR tokenarray$[rsp]
	movzx	eax, BYTE PTR [rcx+rax]
	cmp	eax, 7
	jne	SHORT $LN19@PushInvoke
	movsxd	rax, DWORD PTR i$[rsp]
	imul	rax, rax, 32				; 00000020H
	mov	rcx, QWORD PTR tokenarray$[rsp]
	cmp	DWORD PTR [rcx+rax+16], 260		; 00000104H
	jne	SHORT $LN19@PushInvoke

; 1298 :         addr = TRUE;

	mov	BYTE PTR addr$[rsp], 1

; 1299 :         i++;

	mov	eax, DWORD PTR i$[rsp]
	inc	eax
	mov	DWORD PTR i$[rsp], eax
$LN19@PushInvoke:

; 1300 :     }
; 1301 : 
; 1302 :     /* copy the parameter tokens to fullparam */
; 1303 :     for ( j = i; tokenarray[j].token != T_COMMA && tokenarray[j].token != T_FINAL; j++ );

	mov	eax, DWORD PTR i$[rsp]
	mov	DWORD PTR j$[rsp], eax
	jmp	SHORT $LN7@PushInvoke
$LN5@PushInvoke:
	mov	eax, DWORD PTR j$[rsp]
	inc	eax
	mov	DWORD PTR j$[rsp], eax
$LN7@PushInvoke:
	movsxd	rax, DWORD PTR j$[rsp]
	imul	rax, rax, 32				; 00000020H
	mov	rcx, QWORD PTR tokenarray$[rsp]
	movzx	eax, BYTE PTR [rcx+rax]
	cmp	eax, 44					; 0000002cH
	je	SHORT $LN6@PushInvoke
	movsxd	rax, DWORD PTR j$[rsp]
	imul	rax, rax, 32				; 00000020H
	mov	rcx, QWORD PTR tokenarray$[rsp]
	movzx	eax, BYTE PTR [rcx+rax]
	test	eax, eax
	je	SHORT $LN6@PushInvoke
	jmp	SHORT $LN5@PushInvoke
$LN6@PushInvoke:

; 1304 :     memcpy( fullparam, tokenarray[i].tokpos, tokenarray[j].tokpos - tokenarray[i].tokpos );

	movsxd	rax, DWORD PTR j$[rsp]
	imul	rax, rax, 32				; 00000020H
	movsxd	rcx, DWORD PTR i$[rsp]
	imul	rcx, rcx, 32				; 00000020H
	mov	rdx, QWORD PTR tokenarray$[rsp]
	mov	r8, QWORD PTR tokenarray$[rsp]
	mov	rcx, QWORD PTR [r8+rcx+24]
	mov	rax, QWORD PTR [rdx+rax+24]
	sub	rax, rcx
	movsxd	rcx, DWORD PTR i$[rsp]
	imul	rcx, rcx, 32				; 00000020H
	mov	r8, rax
	mov	rax, QWORD PTR tokenarray$[rsp]
	mov	rdx, QWORD PTR [rax+rcx+24]
	lea	rcx, QWORD PTR fullparam$[rsp]
	call	memcpy

; 1305 :     fullparam[tokenarray[j].tokpos - tokenarray[i].tokpos] = NULLC;

	movsxd	rax, DWORD PTR j$[rsp]
	imul	rax, rax, 32				; 00000020H
	movsxd	rcx, DWORD PTR i$[rsp]
	imul	rcx, rcx, 32				; 00000020H
	mov	rdx, QWORD PTR tokenarray$[rsp]
	mov	r8, QWORD PTR tokenarray$[rsp]
	mov	rcx, QWORD PTR [r8+rcx+24]
	mov	rax, QWORD PTR [rdx+rax+24]
	sub	rax, rcx
	mov	QWORD PTR $T9[rsp], rax
	cmp	QWORD PTR $T9[rsp], 1024		; 00000400H
	jae	SHORT $LN255@PushInvoke
	jmp	SHORT $LN256@PushInvoke
$LN255@PushInvoke:
	call	__report_rangecheckfailure
$LN256@PushInvoke:
	mov	rax, QWORD PTR $T9[rsp]
	mov	BYTE PTR fullparam$[rsp+rax], 0

; 1306 : 
; 1307 :     j = i;

	mov	eax, DWORD PTR i$[rsp]
	mov	DWORD PTR j$[rsp], eax

; 1308 :     /* v2.11: GetSymOfssize() doesn't work for state SYM_TYPE */
; 1309 :     //fptrsize = 2 + ( 2 << GetSymOfssize( &proc->sym ) );
; 1310 :     Ofssize = ( proc->sym.state == SYM_TYPE ? proc->sym.seg_ofssize : GetSymOfssize( &proc->sym ) );

	mov	rax, QWORD PTR proc$[rsp]
	cmp	DWORD PTR [rax+32], 7
	jne	SHORT $LN257@PushInvoke
	mov	rax, QWORD PTR proc$[rsp]
	movzx	eax, BYTE PTR [rax+47]
	and	al, 3
	movzx	eax, al
	mov	DWORD PTR tv193[rsp], eax
	jmp	SHORT $LN258@PushInvoke
$LN257@PushInvoke:
	mov	rax, QWORD PTR proc$[rsp]
	mov	rcx, rax
	call	GetSymOfssize
	mov	DWORD PTR tv193[rsp], eax
$LN258@PushInvoke:
	movzx	eax, BYTE PTR tv193[rsp]
	mov	BYTE PTR Ofssize$[rsp], al

; 1311 :     fptrsize = 2 + ( 2 << Ofssize );

	movsx	eax, BYTE PTR Ofssize$[rsp]
	mov	ecx, 2
	mov	DWORD PTR tv1423[rsp], ecx
	movzx	ecx, al
	mov	eax, DWORD PTR tv1423[rsp]
	shl	eax, cl
	add	eax, 2
	mov	DWORD PTR fptrsize$[rsp], eax

; 1312 : 
; 1313 :     if ( addr ) {

	movzx	eax, BYTE PTR addr$[rsp]
	test	eax, eax
	je	$LN20@PushInvoke

; 1314 :         /* v2.06: don't handle forward refs if -Zne is set */
; 1315 :         //if ( EvalOperand( &j, Token_Count, &opnd, 0 ) == ERROR )
; 1316 :         if ( EvalOperand( &j, tokenarray, Token_Count, &opnd, ModuleInfo.invoke_exprparm ) == ERROR )

	movzx	eax, BYTE PTR ModuleInfo+426
	mov	BYTE PTR [rsp+32], al
	lea	r9, QWORD PTR opnd$[rsp]
	mov	r8d, DWORD PTR ModuleInfo+496
	mov	rdx, QWORD PTR tokenarray$[rsp]
	lea	rcx, QWORD PTR j$[rsp]
	call	EvalOperand
	cmp	eax, -1
	jne	SHORT $LN22@PushInvoke

; 1317 :             return( ERROR );

	mov	eax, -1
	jmp	$LN1@PushInvoke
$LN22@PushInvoke:

; 1318 :         /* DWORD (16bit) and FWORD(32bit) are treated like FAR ptrs
; 1319 :          * v2.11: argument may be a FAR32 pointer ( psize == 6 ), while
; 1320 :          * fptrsize may be just 4!
; 1321 :          */
; 1322 :         //if ( psize > fptrsize ) {
; 1323 :         if ( psize > fptrsize && fptrsize > 4 ) {

	mov	eax, DWORD PTR fptrsize$[rsp]
	cmp	DWORD PTR psize$[rsp], eax
	jle	SHORT $LN23@PushInvoke
	cmp	DWORD PTR fptrsize$[rsp], 4
	jle	SHORT $LN23@PushInvoke

; 1324 :             /* QWORD is NOT accepted as a FAR ptr */
; 1325 :             DebugMsg1(("PushInvokeParm(%u): error, psize=%u, fptrsize=%u\n", reqParam, psize, fptrsize));

	mov	r9d, DWORD PTR fptrsize$[rsp]
	mov	r8d, DWORD PTR psize$[rsp]
	mov	edx, DWORD PTR reqParam$[rsp]
	lea	rcx, OFFSET FLAT:$SG11860
	call	DoDebugMsg1

; 1326 :             EmitErr( INVOKE_ARGUMENT_TYPE_MISMATCH, reqParam+1 );

	mov	eax, DWORD PTR reqParam$[rsp]
	inc	eax
	mov	edx, eax
	mov	ecx, 145				; 00000091H
	call	EmitErr

; 1327 :             return( NOT_ERROR );

	xor	eax, eax
	jmp	$LN1@PushInvoke
$LN23@PushInvoke:

; 1328 :         }
; 1329 : 
; 1330 :         if (proc->sym.langtype == LANG_FASTCALL){

	mov	rax, QWORD PTR proc$[rsp]
	cmp	DWORD PTR [rax+76], 7
	jne	SHORT $LN24@PushInvoke

; 1331 :           if (fastcall_tab[ModuleInfo.fctype].handleparam(proc, reqParam, curr, addr, &opnd, fullparam, r0flags))

	movsxd	rax, DWORD PTR ModuleInfo+376
	imul	rax, rax, 24
	lea	rcx, OFFSET FLAT:fastcall_tab
	mov	QWORD PTR tv1322[rsp], rcx
	mov	rdx, QWORD PTR r0flags$[rsp]
	mov	QWORD PTR [rsp+48], rdx
	lea	rdx, QWORD PTR fullparam$[rsp]
	mov	QWORD PTR [rsp+40], rdx
	lea	rdx, QWORD PTR opnd$[rsp]
	mov	QWORD PTR [rsp+32], rdx
	movzx	r9d, BYTE PTR addr$[rsp]
	mov	r8, QWORD PTR curr$[rsp]
	mov	edx, DWORD PTR reqParam$[rsp]
	mov	rcx, QWORD PTR proc$[rsp]
	mov	r10, QWORD PTR tv1322[rsp]
	call	QWORD PTR [r10+rax+16]
	test	eax, eax
	je	SHORT $LN26@PushInvoke

; 1332 :             return(NOT_ERROR);

	xor	eax, eax
	jmp	$LN1@PushInvoke
$LN26@PushInvoke:

; 1333 :         }

	jmp	$LN25@PushInvoke
$LN24@PushInvoke:

; 1334 :         else if (proc->sym.langtype == LANG_VECTORCALL){

	mov	rax, QWORD PTR proc$[rsp]
	cmp	DWORD PTR [rax+76], 8
	jne	SHORT $LN27@PushInvoke

; 1335 :             if ( vectorcall_tab[ModuleInfo.fctype].handleparam( proc, reqParam, curr, addr, &opnd, fullparam, r0flags ) )

	movsxd	rax, DWORD PTR ModuleInfo+376
	imul	rax, rax, 24
	lea	rcx, OFFSET FLAT:vectorcall_tab
	mov	QWORD PTR tv1323[rsp], rcx
	mov	rdx, QWORD PTR r0flags$[rsp]
	mov	QWORD PTR [rsp+48], rdx
	lea	rdx, QWORD PTR fullparam$[rsp]
	mov	QWORD PTR [rsp+40], rdx
	lea	rdx, QWORD PTR opnd$[rsp]
	mov	QWORD PTR [rsp+32], rdx
	movzx	r9d, BYTE PTR addr$[rsp]
	mov	r8, QWORD PTR curr$[rsp]
	mov	edx, DWORD PTR reqParam$[rsp]
	mov	rcx, QWORD PTR proc$[rsp]
	mov	r10, QWORD PTR tv1323[rsp]
	call	QWORD PTR [r10+rax+16]
	test	eax, eax
	je	SHORT $LN28@PushInvoke

; 1336 :                 return( NOT_ERROR );

	xor	eax, eax
	jmp	$LN1@PushInvoke
$LN28@PushInvoke:
$LN27@PushInvoke:
$LN25@PushInvoke:

; 1337 :         }
; 1338 :         if ( opnd.kind == EXPR_REG || opnd.indirect ) {

	cmp	DWORD PTR opnd$[rsp+60], 2
	je	SHORT $LN31@PushInvoke
	mov	eax, DWORD PTR opnd$[rsp+72]
	and	eax, 1
	test	eax, eax
	je	$LN29@PushInvoke
$LN31@PushInvoke:

; 1339 :             if ( curr->sym.isfar || psize == fptrsize ) {

	mov	rax, QWORD PTR curr$[rsp]
	movzx	eax, BYTE PTR [rax+47]
	shr	al, 4
	and	al, 1
	movzx	eax, al
	test	eax, eax
	jne	SHORT $LN33@PushInvoke
	mov	eax, DWORD PTR fptrsize$[rsp]
	cmp	DWORD PTR psize$[rsp], eax
	jne	$LN32@PushInvoke
$LN33@PushInvoke:

; 1340 :                 DebugMsg1(("PushInvokeParam: far ptr, %s isfar=%u, psize=%u, fptrsize=%u\n", curr->sym.name, curr->sym.isfar, psize, fptrsize ));

	mov	rax, QWORD PTR curr$[rsp]
	movzx	eax, BYTE PTR [rax+47]
	shr	al, 4
	and	al, 1
	movzx	eax, al
	mov	ecx, DWORD PTR fptrsize$[rsp]
	mov	DWORD PTR [rsp+32], ecx
	mov	r9d, DWORD PTR psize$[rsp]
	mov	r8d, eax
	mov	rax, QWORD PTR curr$[rsp]
	mov	rdx, QWORD PTR [rax+8]
	lea	rcx, OFFSET FLAT:$SG11871
	call	DoDebugMsg1

; 1341 :                 if ( opnd.sym && opnd.sym->state == SYM_STACK )

	cmp	QWORD PTR opnd$[rsp+80], 0
	je	SHORT $LN34@PushInvoke
	mov	rax, QWORD PTR opnd$[rsp+80]
	cmp	DWORD PTR [rax+32], 5
	jne	SHORT $LN34@PushInvoke

; 1342 :                     GetResWName( T_SS, buffer );

	lea	rdx, QWORD PTR buffer$[rsp]
	mov	ecx, 27
	call	GetResWName
	jmp	SHORT $LN35@PushInvoke
$LN34@PushInvoke:

; 1343 :                 else if ( opnd.override != NULL )

	cmp	QWORD PTR opnd$[rsp+48], 0
	je	SHORT $LN36@PushInvoke

; 1344 :                     strcpy( buffer, opnd.override->string_ptr );

	mov	rax, QWORD PTR opnd$[rsp+48]
	mov	rdx, QWORD PTR [rax+8]
	lea	rcx, QWORD PTR buffer$[rsp]
	call	strcpy
	jmp	SHORT $LN37@PushInvoke
$LN36@PushInvoke:

; 1345 :                 else
; 1346 :                     GetResWName( T_DS, buffer );

	lea	rdx, QWORD PTR buffer$[rsp]
	mov	ecx, 28
	call	GetResWName
$LN37@PushInvoke:
$LN35@PushInvoke:

; 1347 :                 AddLineQueueX( " push %s", buffer );

	lea	rdx, QWORD PTR buffer$[rsp]
	lea	rcx, OFFSET FLAT:$SG11876
	call	AddLineQueueX
$LN32@PushInvoke:

; 1348 :             }
; 1349 :             AddLineQueueX( " lea %r, %s", regax[ModuleInfo.Ofssize], fullparam );

	movzx	eax, BYTE PTR ModuleInfo+404
	lea	rcx, OFFSET FLAT:regax
	lea	r8, QWORD PTR fullparam$[rsp]
	mov	edx, DWORD PTR [rcx+rax*4]
	lea	rcx, OFFSET FLAT:$SG11877
	call	AddLineQueueX

; 1350 :             *r0flags |= R0_USED;

	mov	rax, QWORD PTR r0flags$[rsp]
	movzx	eax, BYTE PTR [rax]
	or	eax, 1
	mov	rcx, QWORD PTR r0flags$[rsp]
	mov	BYTE PTR [rcx], al

; 1351 :             AddLineQueueX( " push %r", regax[ModuleInfo.Ofssize] );

	movzx	eax, BYTE PTR ModuleInfo+404
	lea	rcx, OFFSET FLAT:regax
	mov	edx, DWORD PTR [rcx+rax*4]
	lea	rcx, OFFSET FLAT:$SG11878
	call	AddLineQueueX

; 1352 :         } else {

	jmp	$LN30@PushInvoke
$LN29@PushInvoke:
$push_address$273:

; 1353 :         push_address:
; 1354 : 
; 1355 :             /* push segment part of address?
; 1356 :              * v2.11: do not assume a far pointer if psize == fptrsize
; 1357 :              * ( parameter might be near32 in a 16-bit environment )
; 1358 :              */
; 1359 :             //if ( curr->sym.isfar || psize == fptrsize ) {
; 1360 :             if ( curr->sym.isfar || psize > ( 2 << curr->sym.Ofssize ) ) {

	mov	rax, QWORD PTR curr$[rsp]
	movzx	eax, BYTE PTR [rax+47]
	shr	al, 4
	and	al, 1
	movzx	eax, al
	test	eax, eax
	jne	SHORT $LN39@PushInvoke
	mov	rax, QWORD PTR curr$[rsp]
	movzx	eax, BYTE PTR [rax+44]
	mov	ecx, 2
	mov	DWORD PTR tv1457[rsp], ecx
	movzx	ecx, al
	mov	eax, DWORD PTR tv1457[rsp]
	shl	eax, cl
	cmp	DWORD PTR psize$[rsp], eax
	jle	$LN38@PushInvoke
$LN39@PushInvoke:

; 1361 : 
; 1362 :                 short sreg;
; 1363 :                 sreg = GetSegmentPart( &opnd, buffer, fullparam );

	lea	r8, QWORD PTR fullparam$[rsp]
	lea	rdx, QWORD PTR buffer$[rsp]
	lea	rcx, QWORD PTR opnd$[rsp]
	call	GetSegmentPart
	mov	WORD PTR sreg$2[rsp], ax

; 1364 :                 if ( sreg ) {

	movsx	eax, WORD PTR sreg$2[rsp]
	test	eax, eax
	je	SHORT $LN40@PushInvoke

; 1365 :                     /* v2.11: push segment part as WORD or DWORD depending on target's offset size
; 1366 :                      * problem: "pushw ds" is not accepted, so just emit a size prefix.
; 1367 :                      */
; 1368 :                     if ( Ofssize != ModuleInfo.Ofssize || ( curr->sym.Ofssize == USE16 && CurrWordSize > 2 ) )

	movsx	eax, BYTE PTR Ofssize$[rsp]
	movzx	ecx, BYTE PTR ModuleInfo+404
	cmp	eax, ecx
	jne	SHORT $LN43@PushInvoke
	mov	rax, QWORD PTR curr$[rsp]
	movzx	eax, BYTE PTR [rax+44]
	test	eax, eax
	jne	SHORT $LN42@PushInvoke
	movzx	eax, BYTE PTR ModuleInfo+406
	cmp	eax, 2
	jle	SHORT $LN42@PushInvoke
$LN43@PushInvoke:

; 1369 :                         AddLineQueue( " db 66h" );

	lea	rcx, OFFSET FLAT:$SG11885
	call	AddLineQueue
$LN42@PushInvoke:

; 1370 :                     AddLineQueueX( " push %r", sreg );

	movsx	eax, WORD PTR sreg$2[rsp]
	mov	edx, eax
	lea	rcx, OFFSET FLAT:$SG11886
	call	AddLineQueueX

; 1371 :                 } else

	jmp	SHORT $LN41@PushInvoke
$LN40@PushInvoke:

; 1372 :                     AddLineQueueX( " push %s", buffer );

	lea	rdx, QWORD PTR buffer$[rsp]
	lea	rcx, OFFSET FLAT:$SG11887
	call	AddLineQueueX
$LN41@PushInvoke:
$LN38@PushInvoke:

; 1373 :             }
; 1374 :             /* push offset part of address */
; 1375 :             if ( (ModuleInfo.curr_cpu & P_CPU_MASK ) < P_186 ) {

	mov	eax, DWORD PTR ModuleInfo+392
	and	eax, 240				; 000000f0H
	cmp	eax, 16
	jge	SHORT $LN44@PushInvoke

; 1376 :                 AddLineQueueX( " mov %r, offset %s", T_AX, fullparam );

	lea	r8, QWORD PTR fullparam$[rsp]
	mov	edx, 9
	lea	rcx, OFFSET FLAT:$SG11890
	call	AddLineQueueX

; 1377 :                 AddLineQueueX( " push %r", T_AX );

	mov	edx, 9
	lea	rcx, OFFSET FLAT:$SG11891
	call	AddLineQueueX

; 1378 :                 *r0flags |= R0_USED;

	mov	rax, QWORD PTR r0flags$[rsp]
	movzx	eax, BYTE PTR [rax]
	or	eax, 1
	mov	rcx, QWORD PTR r0flags$[rsp]
	mov	BYTE PTR [rcx], al

; 1379 :             } else {

	jmp	$LN45@PushInvoke
$LN44@PushInvoke:

; 1380 :                 if ( curr->sym.is_vararg && opnd.Ofssize == USE_EMPTY && opnd.sym )

	mov	rax, QWORD PTR curr$[rsp]
	movzx	eax, BYTE PTR [rax+47]
	shr	al, 5
	and	al, 1
	movzx	eax, al
	test	eax, eax
	je	SHORT $LN46@PushInvoke
	movzx	eax, BYTE PTR opnd$[rsp+69]
	cmp	eax, 254				; 000000feH
	jne	SHORT $LN46@PushInvoke
	cmp	QWORD PTR opnd$[rsp+80], 0
	je	SHORT $LN46@PushInvoke

; 1381 :                     opnd.Ofssize = GetSymOfssize( opnd.sym );

	mov	rcx, QWORD PTR opnd$[rsp+80]
	call	GetSymOfssize
	mov	BYTE PTR opnd$[rsp+69], al
$LN46@PushInvoke:

; 1382 :                 /* v2.04: expand 16-bit offset to 32
; 1383 :                  * v2.11: also expand if there's an explicit near32 ptr requested in 16-bit
; 1384 :                  */
; 1385 :                 //if ( opnd.Ofssize == USE16 && CurrWordSize > 2 ) {
; 1386 :                 if ( ( opnd.Ofssize == USE16 && CurrWordSize > 2 ) ||

	movzx	eax, BYTE PTR opnd$[rsp+69]
	test	eax, eax
	jne	SHORT $LN50@PushInvoke
	movzx	eax, BYTE PTR ModuleInfo+406
	cmp	eax, 2
	jg	SHORT $LN49@PushInvoke
$LN50@PushInvoke:
	mov	rax, QWORD PTR curr$[rsp]
	movzx	eax, BYTE PTR [rax+44]
	cmp	eax, 1
	jne	SHORT $LN47@PushInvoke
	movzx	eax, BYTE PTR ModuleInfo+406
	cmp	eax, 2
	jne	SHORT $LN47@PushInvoke
$LN49@PushInvoke:

; 1387 :                     ( curr->sym.Ofssize == USE32 && CurrWordSize == 2 ) ) {
; 1388 :                     AddLineQueueX( " pushd %r %s", T_OFFSET, fullparam );

	lea	r8, QWORD PTR fullparam$[rsp]
	mov	edx, 241				; 000000f1H
	lea	rcx, OFFSET FLAT:$SG11897
	call	AddLineQueueX
	jmp	$LN48@PushInvoke
$LN47@PushInvoke:

; 1389 :                 } else if ( CurrWordSize > 2 && curr->sym.Ofssize == USE16 &&

	movzx	eax, BYTE PTR ModuleInfo+406
	cmp	eax, 2
	jle	SHORT $LN51@PushInvoke
	mov	rax, QWORD PTR curr$[rsp]
	movzx	eax, BYTE PTR [rax+44]
	test	eax, eax
	jne	SHORT $LN51@PushInvoke
	mov	rax, QWORD PTR curr$[rsp]
	movzx	eax, BYTE PTR [rax+47]
	shr	al, 4
	and	al, 1
	movzx	eax, al
	test	eax, eax
	jne	SHORT $LN53@PushInvoke
	movsx	eax, BYTE PTR Ofssize$[rsp]
	test	eax, eax
	jne	SHORT $LN51@PushInvoke
$LN53@PushInvoke:

; 1390 :                            ( curr->sym.isfar || Ofssize == USE16 ) ) { /* v2.11: added */
; 1391 :                     AddLineQueueX( " pushw %r %s", T_OFFSET, fullparam );

	lea	r8, QWORD PTR fullparam$[rsp]
	mov	edx, 241				; 000000f1H
	lea	rcx, OFFSET FLAT:$SG11901
	call	AddLineQueueX

; 1392 :                 } else {

	jmp	SHORT $LN52@PushInvoke
$LN51@PushInvoke:

; 1393 :                     AddLineQueueX( " push %r %s", T_OFFSET, fullparam );

	lea	r8, QWORD PTR fullparam$[rsp]
	mov	edx, 241				; 000000f1H
	lea	rcx, OFFSET FLAT:$SG11902
	call	AddLineQueueX

; 1394 :                     /* v2.04: a 32bit offset pushed in 16-bit code */
; 1395 :                     if ( curr->sym.is_vararg && CurrWordSize == 2 && opnd.Ofssize > USE16 ) {

	mov	rax, QWORD PTR curr$[rsp]
	movzx	eax, BYTE PTR [rax+47]
	shr	al, 5
	and	al, 1
	movzx	eax, al
	test	eax, eax
	je	SHORT $LN54@PushInvoke
	movzx	eax, BYTE PTR ModuleInfo+406
	cmp	eax, 2
	jne	SHORT $LN54@PushInvoke
	movzx	eax, BYTE PTR opnd$[rsp+69]
	test	eax, eax
	jle	SHORT $LN54@PushInvoke

; 1396 :                         size_vararg += CurrWordSize;

	movzx	eax, BYTE PTR ModuleInfo+406
	mov	ecx, DWORD PTR size_vararg
	add	ecx, eax
	mov	eax, ecx
	mov	DWORD PTR size_vararg, eax
$LN54@PushInvoke:
$LN52@PushInvoke:
$LN48@PushInvoke:
$LN45@PushInvoke:
$LN30@PushInvoke:

; 1397 :                     }
; 1398 :                 }
; 1399 :             }
; 1400 :         }
; 1401 :         if ( curr->sym.is_vararg ) {

	mov	rax, QWORD PTR curr$[rsp]
	movzx	eax, BYTE PTR [rax+47]
	shr	al, 5
	and	al, 1
	movzx	eax, al
	test	eax, eax
	je	SHORT $LN55@PushInvoke

; 1402 :             size_vararg += CurrWordSize + ( curr->sym.isfar ? CurrWordSize : 0 );

	mov	rax, QWORD PTR curr$[rsp]
	movzx	eax, BYTE PTR [rax+47]
	shr	al, 4
	and	al, 1
	movzx	eax, al
	test	eax, eax
	je	SHORT $LN259@PushInvoke
	movzx	eax, BYTE PTR ModuleInfo+406
	mov	DWORD PTR tv427[rsp], eax
	jmp	SHORT $LN260@PushInvoke
$LN259@PushInvoke:
	mov	DWORD PTR tv427[rsp], 0
$LN260@PushInvoke:
	movzx	eax, BYTE PTR ModuleInfo+406
	add	eax, DWORD PTR tv427[rsp]
	mov	ecx, DWORD PTR size_vararg
	add	ecx, eax
	mov	eax, ecx
	mov	DWORD PTR size_vararg, eax

; 1403 :             DebugMsg1(("PushInvokeParm(%u): new value of size_vararg=%u [CurrWordSize=%u]\n", reqParam, size_vararg, CurrWordSize ));

	movzx	eax, BYTE PTR ModuleInfo+406
	mov	r9d, eax
	mov	r8d, DWORD PTR size_vararg
	mov	edx, DWORD PTR reqParam$[rsp]
	lea	rcx, OFFSET FLAT:$SG11905
	call	DoDebugMsg1
$LN55@PushInvoke:

; 1404 :         }
; 1405 :     } else { /* ! ADDR branch */

	jmp	$LN21@PushInvoke
$LN20@PushInvoke:

; 1406 : 
; 1407 :         /* handle the <reg>::<reg> case here, the evaluator wont handle it */
; 1408 :         if ( tokenarray[j].token == T_REG &&
; 1409 :             tokenarray[j+1].token == T_DBL_COLON &&

	movsxd	rax, DWORD PTR j$[rsp]
	imul	rax, rax, 32				; 00000020H
	mov	rcx, QWORD PTR tokenarray$[rsp]
	movzx	eax, BYTE PTR [rcx+rax]
	cmp	eax, 2
	jne	$LN56@PushInvoke
	mov	eax, DWORD PTR j$[rsp]
	inc	eax
	cdqe
	imul	rax, rax, 32				; 00000020H
	mov	rcx, QWORD PTR tokenarray$[rsp]
	movzx	eax, BYTE PTR [rcx+rax]
	cmp	eax, 13
	jne	$LN56@PushInvoke
	mov	eax, DWORD PTR j$[rsp]
	add	eax, 2
	cdqe
	imul	rax, rax, 32				; 00000020H
	mov	rcx, QWORD PTR tokenarray$[rsp]
	movzx	eax, BYTE PTR [rcx+rax]
	cmp	eax, 2
	jne	$LN56@PushInvoke

; 1410 :             tokenarray[j+2].token == T_REG ) {
; 1411 :             int asize2;
; 1412 :             /* for pointers, segreg size is assumed to be always 2 */
; 1413 :             if ( GetValueSp( tokenarray[j].tokval ) & OP_SR ) {

	movsxd	rax, DWORD PTR j$[rsp]
	imul	rax, rax, 32				; 00000020H
	mov	rcx, QWORD PTR tokenarray$[rsp]
	mov	eax, DWORD PTR [rcx+rax+16]
	imul	rax, rax, 12
	lea	rcx, OFFSET FLAT:SpecialTable
	mov	eax, DWORD PTR [rcx+rax]
	and	eax, 24576				; 00006000H
	test	eax, eax
	je	SHORT $LN58@PushInvoke

; 1414 :                 asize2 = 2;

	mov	DWORD PTR asize2$4[rsp], 2

; 1415 :                 /* v2.11: if target and current src have different offset sizes,
; 1416 :                  * the push of the segment register must be 66h-prefixed!
; 1417 :                  */
; 1418 :                 if ( Ofssize != ModuleInfo.Ofssize || ( curr->sym.Ofssize == USE16 && CurrWordSize > 2 ) )

	movsx	eax, BYTE PTR Ofssize$[rsp]
	movzx	ecx, BYTE PTR ModuleInfo+404
	cmp	eax, ecx
	jne	SHORT $LN61@PushInvoke
	mov	rax, QWORD PTR curr$[rsp]
	movzx	eax, BYTE PTR [rax+44]
	test	eax, eax
	jne	SHORT $LN60@PushInvoke
	movzx	eax, BYTE PTR ModuleInfo+406
	cmp	eax, 2
	jle	SHORT $LN60@PushInvoke
$LN61@PushInvoke:

; 1419 :                     AddLineQueue( " db 66h" );

	lea	rcx, OFFSET FLAT:$SG11912
	call	AddLineQueue
$LN60@PushInvoke:

; 1420 :             } else

	jmp	SHORT $LN59@PushInvoke
$LN58@PushInvoke:

; 1421 :                 asize2 = SizeFromRegister( tokenarray[j].tokval );

	movsxd	rax, DWORD PTR j$[rsp]
	imul	rax, rax, 32				; 00000020H
	mov	rcx, QWORD PTR tokenarray$[rsp]
	mov	ecx, DWORD PTR [rcx+rax+16]
	call	SizeFromRegister
	mov	DWORD PTR asize2$4[rsp], eax
$LN59@PushInvoke:

; 1422 :             asize = SizeFromRegister( tokenarray[j+2].tokval );

	mov	eax, DWORD PTR j$[rsp]
	add	eax, 2
	cdqe
	imul	rax, rax, 32				; 00000020H
	mov	rcx, QWORD PTR tokenarray$[rsp]
	mov	ecx, DWORD PTR [rcx+rax+16]
	call	SizeFromRegister
	mov	DWORD PTR asize$[rsp], eax

; 1423 :             AddLineQueueX( " push %r", tokenarray[j].tokval );

	movsxd	rax, DWORD PTR j$[rsp]
	imul	rax, rax, 32				; 00000020H
	mov	rcx, QWORD PTR tokenarray$[rsp]
	mov	edx, DWORD PTR [rcx+rax+16]
	lea	rcx, OFFSET FLAT:$SG11913
	call	AddLineQueueX

; 1424 :             /* v2.04: changed */
; 1425 :             if (( curr->sym.is_vararg ) && (asize + asize2) != CurrWordSize )

	mov	rax, QWORD PTR curr$[rsp]
	movzx	eax, BYTE PTR [rax+47]
	shr	al, 5
	and	al, 1
	movzx	eax, al
	test	eax, eax
	je	SHORT $LN62@PushInvoke
	mov	eax, DWORD PTR asize2$4[rsp]
	mov	ecx, DWORD PTR asize$[rsp]
	add	ecx, eax
	mov	eax, ecx
	movzx	ecx, BYTE PTR ModuleInfo+406
	cmp	eax, ecx
	je	SHORT $LN62@PushInvoke

; 1426 :                 size_vararg += asize2;

	mov	eax, DWORD PTR asize2$4[rsp]
	mov	ecx, DWORD PTR size_vararg
	add	ecx, eax
	mov	eax, ecx
	mov	DWORD PTR size_vararg, eax
	jmp	SHORT $LN63@PushInvoke
$LN62@PushInvoke:

; 1427 :             else
; 1428 :                 asize += asize2;

	mov	eax, DWORD PTR asize2$4[rsp]
	mov	ecx, DWORD PTR asize$[rsp]
	add	ecx, eax
	mov	eax, ecx
	mov	DWORD PTR asize$[rsp], eax
$LN63@PushInvoke:

; 1429 :             strcpy( fullparam, tokenarray[j+2].string_ptr );

	mov	eax, DWORD PTR j$[rsp]
	add	eax, 2
	cdqe
	imul	rax, rax, 32				; 00000020H
	mov	rcx, QWORD PTR tokenarray$[rsp]
	mov	rdx, QWORD PTR [rcx+rax+8]
	lea	rcx, QWORD PTR fullparam$[rsp]
	call	strcpy

; 1430 : 
; 1431 :             opnd.kind = EXPR_REG;

	mov	DWORD PTR opnd$[rsp+60], 2

; 1432 :             opnd.indirect = FALSE;

	mov	eax, DWORD PTR opnd$[rsp+72]
	and	eax, -2					; fffffffeH
	mov	DWORD PTR opnd$[rsp+72], eax

; 1433 :             opnd.sym = NULL;

	mov	QWORD PTR opnd$[rsp+80], 0

; 1434 :             opnd.base_reg = &tokenarray[j+2]; /* for error msg 'eax overwritten...' */

	mov	eax, DWORD PTR j$[rsp]
	add	eax, 2
	cdqe
	imul	rax, rax, 32				; 00000020H
	mov	rcx, QWORD PTR tokenarray$[rsp]
	add	rcx, rax
	mov	rax, rcx
	mov	QWORD PTR opnd$[rsp+24], rax

; 1435 :         } else {

	jmp	$LN57@PushInvoke
$LN56@PushInvoke:

; 1436 :             /* v2.06: don't handle forward refs if -Zne is set */
; 1437 :             //if ( EvalOperand( &j, Token_Count, &opnd, 0 ) == ERROR ) {
; 1438 :             if ( EvalOperand( &j, tokenarray, Token_Count, &opnd, ModuleInfo.invoke_exprparm ) == ERROR ) {

	movzx	eax, BYTE PTR ModuleInfo+426
	mov	BYTE PTR [rsp+32], al
	lea	r9, QWORD PTR opnd$[rsp]
	mov	r8d, DWORD PTR ModuleInfo+496
	mov	rdx, QWORD PTR tokenarray$[rsp]
	lea	rcx, QWORD PTR j$[rsp]
	call	EvalOperand
	cmp	eax, -1
	jne	SHORT $LN64@PushInvoke

; 1439 :                 return( ERROR );

	mov	eax, -1
	jmp	$LN1@PushInvoke
$LN64@PushInvoke:

; 1440 :             }
; 1441 : 
; 1442 :             /* for a simple register, get its size */
; 1443 :             if ( opnd.kind == EXPR_REG && opnd.indirect == FALSE ) {

	cmp	DWORD PTR opnd$[rsp+60], 2
	jne	SHORT $LN65@PushInvoke
	mov	eax, DWORD PTR opnd$[rsp+72]
	and	eax, 1
	test	eax, eax
	jne	SHORT $LN65@PushInvoke

; 1444 :                 asize = SizeFromRegister( opnd.base_reg->tokval );

	mov	rax, QWORD PTR opnd$[rsp+24]
	mov	ecx, DWORD PTR [rax+16]
	call	SizeFromRegister
	mov	DWORD PTR asize$[rsp], eax
	jmp	$LN66@PushInvoke
$LN65@PushInvoke:

; 1445 :             //} else if ( opnd.mem_type == MT_EMPTY ) { /* v2.10: a TYPE may return mem_type != MT_EMPTY! */
; 1446 :             } else if ( opnd.kind == EXPR_CONST || opnd.mem_type == MT_EMPTY ) {

	cmp	DWORD PTR opnd$[rsp+60], 0
	je	SHORT $LN69@PushInvoke
	cmp	DWORD PTR opnd$[rsp+64], 192		; 000000c0H
	jne	$LN67@PushInvoke
$LN69@PushInvoke:

; 1447 :                 asize = psize;

	mov	eax, DWORD PTR psize$[rsp]
	mov	DWORD PTR asize$[rsp], eax

; 1448 :                 /* v2.04: added, to catch 0-size params ( STRUCT without members ) */
; 1449 :                 if ( psize == 0 ) {

	cmp	DWORD PTR psize$[rsp], 0
	jne	SHORT $LN70@PushInvoke

; 1450 :                     if ( curr->sym.is_vararg == FALSE ) {

	mov	rax, QWORD PTR curr$[rsp]
	movzx	eax, BYTE PTR [rax+47]
	shr	al, 5
	and	al, 1
	movzx	eax, al
	test	eax, eax
	jne	SHORT $LN71@PushInvoke

; 1451 :                         DebugMsg1(("PushInvokeParm(%u): error, psize=0\n" ));

	lea	rcx, OFFSET FLAT:$SG11924
	call	DoDebugMsg1

; 1452 :                         EmitErr( INVOKE_ARGUMENT_TYPE_MISMATCH, reqParam+1 );

	mov	eax, DWORD PTR reqParam$[rsp]
	inc	eax
	mov	edx, eax
	mov	ecx, 145				; 00000091H
	call	EmitErr
$LN71@PushInvoke:

; 1453 :                     }
; 1454 :                     /* v2.07: for VARARG, get the member's size if it is a structured var */
; 1455 :                     if ( opnd.mbr && opnd.mbr->mem_type == MT_TYPE )

	cmp	QWORD PTR opnd$[rsp+88], 0
	je	SHORT $LN72@PushInvoke
	mov	rax, QWORD PTR opnd$[rsp+88]
	cmp	DWORD PTR [rax+36], 196			; 000000c4H
	jne	SHORT $LN72@PushInvoke

; 1456 :                         asize = SizeFromMemtype( opnd.mbr->mem_type, opnd.Ofssize, opnd.mbr->type );

	movzx	eax, BYTE PTR opnd$[rsp+69]
	mov	rcx, QWORD PTR opnd$[rsp+88]
	mov	r8, QWORD PTR [rcx+80]
	mov	edx, eax
	mov	rax, QWORD PTR opnd$[rsp+88]
	mov	ecx, DWORD PTR [rax+36]
	call	SizeFromMemtype
	mov	DWORD PTR asize$[rsp], eax
$LN72@PushInvoke:
$LN70@PushInvoke:

; 1457 :                 }
; 1458 :                 DebugMsg1(("PushInvokeParm(%u): memtype EMPTY, asize=%u psize=%u\n", reqParam, asize, psize ));

	mov	r9d, DWORD PTR psize$[rsp]
	mov	r8d, DWORD PTR asize$[rsp]
	mov	edx, DWORD PTR reqParam$[rsp]
	lea	rcx, OFFSET FLAT:$SG11926
	call	DoDebugMsg1
	jmp	$LN68@PushInvoke
$LN67@PushInvoke:

; 1459 :             } else if ( opnd.mem_type != MT_TYPE ) {

	cmp	DWORD PTR opnd$[rsp+64], 196		; 000000c4H
	je	$LN73@PushInvoke

; 1460 :                 if ( opnd.kind == EXPR_ADDR &&
; 1461 :                      opnd.indirect == FALSE &&
; 1462 :                      opnd.sym &&
; 1463 :                      opnd.instr == EMPTY &&

	cmp	DWORD PTR opnd$[rsp+60], 1
	jne	SHORT $LN75@PushInvoke
	mov	eax, DWORD PTR opnd$[rsp+72]
	and	eax, 1
	test	eax, eax
	jne	SHORT $LN75@PushInvoke
	cmp	QWORD PTR opnd$[rsp+80], 0
	je	SHORT $LN75@PushInvoke
	cmp	DWORD PTR opnd$[rsp+56], -2
	jne	SHORT $LN75@PushInvoke
	cmp	DWORD PTR opnd$[rsp+64], 129		; 00000081H
	je	SHORT $LN76@PushInvoke
	cmp	DWORD PTR opnd$[rsp+64], 130		; 00000082H
	jne	SHORT $LN75@PushInvoke
$LN76@PushInvoke:

; 1464 :                      ( opnd.mem_type == MT_NEAR || opnd.mem_type == MT_FAR ) )
; 1465 :                     goto push_address;

	jmp	$push_address$273
$LN75@PushInvoke:

; 1466 :                 if ( opnd.Ofssize == USE_EMPTY )

	movzx	eax, BYTE PTR opnd$[rsp+69]
	cmp	eax, 254				; 000000feH
	jne	SHORT $LN77@PushInvoke

; 1467 :                     opnd.Ofssize = ModuleInfo.Ofssize;

	movzx	eax, BYTE PTR ModuleInfo+404
	mov	BYTE PTR opnd$[rsp+69], al
$LN77@PushInvoke:

; 1468 :                 asize = SizeFromMemtype( opnd.mem_type, opnd.Ofssize, opnd.type );

	movzx	eax, BYTE PTR opnd$[rsp+69]
	mov	r8, QWORD PTR opnd$[rsp+96]
	mov	edx, eax
	mov	ecx, DWORD PTR opnd$[rsp+64]
	call	SizeFromMemtype
	mov	DWORD PTR asize$[rsp], eax

; 1469 :             } else {

	jmp	SHORT $LN74@PushInvoke
$LN73@PushInvoke:

; 1470 :                 if ( opnd.sym != NULL )

	cmp	QWORD PTR opnd$[rsp+80], 0
	je	SHORT $LN78@PushInvoke

; 1471 :                     asize = opnd.sym->type->total_size;

	mov	rax, QWORD PTR opnd$[rsp+80]
	mov	rax, QWORD PTR [rax+80]
	mov	eax, DWORD PTR [rax+56]
	mov	DWORD PTR asize$[rsp], eax
	jmp	SHORT $LN79@PushInvoke
$LN78@PushInvoke:

; 1472 :                 else
; 1473 :                     asize = opnd.mbr->type->total_size;

	mov	rax, QWORD PTR opnd$[rsp+88]
	mov	rax, QWORD PTR [rax+80]
	mov	eax, DWORD PTR [rax+56]
	mov	DWORD PTR asize$[rsp], eax
$LN79@PushInvoke:
$LN74@PushInvoke:
$LN68@PushInvoke:
$LN66@PushInvoke:
$LN57@PushInvoke:

; 1474 :             }
; 1475 :         }
; 1476 : 
; 1477 :         if ( curr->sym.is_vararg == TRUE )

	mov	rax, QWORD PTR curr$[rsp]
	movzx	eax, BYTE PTR [rax+47]
	shr	al, 5
	and	al, 1
	movzx	eax, al
	cmp	eax, 1
	jne	SHORT $LN80@PushInvoke

; 1478 :             psize = asize;

	mov	eax, DWORD PTR asize$[rsp]
	mov	DWORD PTR psize$[rsp], eax
$LN80@PushInvoke:

; 1479 : 
; 1480 : #ifdef DEBUG_OUT
; 1481 :         if ( opnd.sym )

	cmp	QWORD PTR opnd$[rsp+80], 0
	je	SHORT $LN81@PushInvoke

; 1482 :             DebugMsg1(("PushInvokeParam(%s, %u): arg name=%s, asize=%u, amtype=%xh psize=%u\n", proc->sym.name, reqParam, opnd.sym->name, asize, opnd.mem_type, psize));

	mov	eax, DWORD PTR psize$[rsp]
	mov	DWORD PTR [rsp+48], eax
	mov	eax, DWORD PTR opnd$[rsp+64]
	mov	DWORD PTR [rsp+40], eax
	mov	eax, DWORD PTR asize$[rsp]
	mov	DWORD PTR [rsp+32], eax
	mov	rax, QWORD PTR opnd$[rsp+80]
	mov	r9, QWORD PTR [rax+8]
	mov	r8d, DWORD PTR reqParam$[rsp]
	mov	rax, QWORD PTR proc$[rsp]
	mov	rdx, QWORD PTR [rax+8]
	lea	rcx, OFFSET FLAT:$SG11937
	call	DoDebugMsg1
	jmp	SHORT $LN82@PushInvoke
$LN81@PushInvoke:

; 1483 :         else
; 1484 :             DebugMsg1(("PushInvokeParam(%s, %u): arg no name, asize=%u, amtype=%xh psize=%u\n", proc->sym.name, reqParam, asize, opnd.mem_type, psize));

	mov	eax, DWORD PTR psize$[rsp]
	mov	DWORD PTR [rsp+40], eax
	mov	eax, DWORD PTR opnd$[rsp+64]
	mov	DWORD PTR [rsp+32], eax
	mov	r9d, DWORD PTR asize$[rsp]
	mov	r8d, DWORD PTR reqParam$[rsp]
	mov	rax, QWORD PTR proc$[rsp]
	mov	rdx, QWORD PTR [rax+8]
	lea	rcx, OFFSET FLAT:$SG11938
	call	DoDebugMsg1
$LN82@PushInvoke:

; 1485 : #endif
; 1486 :         pushsize = CurrWordSize;

	movzx	eax, BYTE PTR ModuleInfo+406
	mov	DWORD PTR pushsize$[rsp], eax

; 1487 : 
; 1488 :         if (proc->sym.langtype == LANG_FASTCALL){

	mov	rax, QWORD PTR proc$[rsp]
	cmp	DWORD PTR [rax+76], 7
	jne	SHORT $LN83@PushInvoke

; 1489 :           if (fastcall_tab[ModuleInfo.fctype].handleparam(proc, reqParam, curr, addr, &opnd, fullparam, r0flags))

	movsxd	rax, DWORD PTR ModuleInfo+376
	imul	rax, rax, 24
	lea	rcx, OFFSET FLAT:fastcall_tab
	mov	QWORD PTR tv1327[rsp], rcx
	mov	rdx, QWORD PTR r0flags$[rsp]
	mov	QWORD PTR [rsp+48], rdx
	lea	rdx, QWORD PTR fullparam$[rsp]
	mov	QWORD PTR [rsp+40], rdx
	lea	rdx, QWORD PTR opnd$[rsp]
	mov	QWORD PTR [rsp+32], rdx
	movzx	r9d, BYTE PTR addr$[rsp]
	mov	r8, QWORD PTR curr$[rsp]
	mov	edx, DWORD PTR reqParam$[rsp]
	mov	rcx, QWORD PTR proc$[rsp]
	mov	r10, QWORD PTR tv1327[rsp]
	call	QWORD PTR [r10+rax+16]
	test	eax, eax
	je	SHORT $LN85@PushInvoke

; 1490 :             return(NOT_ERROR);

	xor	eax, eax
	jmp	$LN1@PushInvoke
$LN85@PushInvoke:

; 1491 :         }

	jmp	$LN84@PushInvoke
$LN83@PushInvoke:

; 1492 :         else if (proc->sym.langtype == LANG_VECTORCALL){

	mov	rax, QWORD PTR proc$[rsp]
	cmp	DWORD PTR [rax+76], 8
	jne	$LN86@PushInvoke

; 1493 :           if (opnd.kind == EXPR_REG && reqParam > 5) {

	cmp	DWORD PTR opnd$[rsp+60], 2
	jne	SHORT $LN87@PushInvoke
	cmp	DWORD PTR reqParam$[rsp], 5
	jle	SHORT $LN87@PushInvoke

; 1494 :             if ((GetValueSp(reg) & OP_XMM)||(GetValueSp(reg) & OP_YMM) 

	movsxd	rax, DWORD PTR reg$[rsp]
	imul	rax, rax, 12
	lea	rcx, OFFSET FLAT:SpecialTable
	mov	eax, DWORD PTR [rcx+rax]
	and	eax, 32					; 00000020H
	test	eax, eax
	jne	SHORT $LN90@PushInvoke
	movsxd	rax, DWORD PTR reg$[rsp]
	imul	rax, rax, 12
	lea	rcx, OFFSET FLAT:SpecialTable
	mov	eax, DWORD PTR [rcx+rax]
	and	eax, 128				; 00000080H
	test	eax, eax
	je	SHORT $LN89@PushInvoke
$LN90@PushInvoke:

; 1495 : #if EVEXSUPP
; 1496 :                 ||(GetValueSp(reg) & OP_ZMM)
; 1497 : #endif
; 1498 :               )
; 1499 :                 EmitErr( INVOKE_ARGUMENT_TYPE_MISMATCH, reqParam );                

	mov	edx, DWORD PTR reqParam$[rsp]
	mov	ecx, 145				; 00000091H
	call	EmitErr
$LN89@PushInvoke:

; 1500 :            }

	jmp	SHORT $LN88@PushInvoke
$LN87@PushInvoke:

; 1501 :            else if (vectorcall_tab[ModuleInfo.fctype].handleparam(proc, reqParam, curr, addr, &opnd, fullparam, r0flags))

	movsxd	rax, DWORD PTR ModuleInfo+376
	imul	rax, rax, 24
	lea	rcx, OFFSET FLAT:vectorcall_tab
	mov	QWORD PTR tv1330[rsp], rcx
	mov	rdx, QWORD PTR r0flags$[rsp]
	mov	QWORD PTR [rsp+48], rdx
	lea	rdx, QWORD PTR fullparam$[rsp]
	mov	QWORD PTR [rsp+40], rdx
	lea	rdx, QWORD PTR opnd$[rsp]
	mov	QWORD PTR [rsp+32], rdx
	movzx	r9d, BYTE PTR addr$[rsp]
	mov	r8, QWORD PTR curr$[rsp]
	mov	edx, DWORD PTR reqParam$[rsp]
	mov	rcx, QWORD PTR proc$[rsp]
	mov	r10, QWORD PTR tv1330[rsp]
	call	QWORD PTR [r10+rax+16]
	test	eax, eax
	je	SHORT $LN91@PushInvoke

; 1502 :             return(NOT_ERROR);

	xor	eax, eax
	jmp	$LN1@PushInvoke
$LN91@PushInvoke:
$LN88@PushInvoke:
$LN86@PushInvoke:
$LN84@PushInvoke:

; 1503 :         }
; 1504 :         /* v2.04: this check has been moved behind the fastcall_tab() call */
; 1505 :         /* v2.11: if target is a pointer, sizes must match */
; 1506 :         //if ( asize > psize ) { /* argument's size too big? */
; 1507 :         if ( ( asize > psize ) || ( asize < psize && curr->sym.mem_type == MT_PTR ) ) {

	mov	eax, DWORD PTR psize$[rsp]
	cmp	DWORD PTR asize$[rsp], eax
	jg	SHORT $LN93@PushInvoke
	mov	eax, DWORD PTR psize$[rsp]
	cmp	DWORD PTR asize$[rsp], eax
	jge	SHORT $LN92@PushInvoke
	mov	rax, QWORD PTR curr$[rsp]
	cmp	DWORD PTR [rax+36], 195			; 000000c3H
	jne	SHORT $LN92@PushInvoke
$LN93@PushInvoke:

; 1508 :             DebugMsg(("PushInvokeParm(%u): argsize error, arg size=%d, parm size=%d\n", reqParam, asize, psize));

	mov	r9d, DWORD PTR psize$[rsp]
	mov	r8d, DWORD PTR asize$[rsp]
	mov	edx, DWORD PTR reqParam$[rsp]
	lea	rcx, OFFSET FLAT:$SG11950
	call	DoDebugMsg

; 1509 :             EmitErr( INVOKE_ARGUMENT_TYPE_MISMATCH, reqParam+1 );

	mov	eax, DWORD PTR reqParam$[rsp]
	inc	eax
	mov	edx, eax
	mov	ecx, 145				; 00000091H
	call	EmitErr

; 1510 :             return( NOT_ERROR );

	xor	eax, eax
	jmp	$LN1@PushInvoke
$LN92@PushInvoke:

; 1511 :         }
; 1512 : 
; 1513 :         if ( ( opnd.kind == EXPR_ADDR && opnd.instr != T_OFFSET ) ||

	cmp	DWORD PTR opnd$[rsp+60], 1
	jne	SHORT $LN97@PushInvoke
	cmp	DWORD PTR opnd$[rsp+56], 241		; 000000f1H
	jne	SHORT $LN96@PushInvoke
$LN97@PushInvoke:
	cmp	DWORD PTR opnd$[rsp+60], 2
	jne	$LN94@PushInvoke
	mov	eax, DWORD PTR opnd$[rsp+72]
	and	eax, 1
	cmp	eax, 1
	jne	$LN94@PushInvoke
$LN96@PushInvoke:

; 1514 :             ( opnd.kind == EXPR_REG && opnd.indirect == TRUE ) ) {
; 1515 : 
; 1516 :             /* catch the case when EAX has been used for ADDR,
; 1517 :              * and is later used as addressing register!
; 1518 :              *
; 1519 :              */
; 1520 :             if ( *r0flags &&

	mov	rax, QWORD PTR r0flags$[rsp]
	movzx	eax, BYTE PTR [rax]
	test	eax, eax
	je	SHORT $LN98@PushInvoke
	cmp	QWORD PTR opnd$[rsp+24], 0
	je	SHORT $LN100@PushInvoke
	mov	rax, QWORD PTR opnd$[rsp+24]
	cmp	DWORD PTR [rax+16], 17
	je	SHORT $LN99@PushInvoke
	mov	rax, QWORD PTR opnd$[rsp+24]
	cmp	DWORD PTR [rax+16], 115			; 00000073H
	je	SHORT $LN99@PushInvoke
$LN100@PushInvoke:
	cmp	QWORD PTR opnd$[rsp+32], 0
	je	SHORT $LN98@PushInvoke
	mov	rax, QWORD PTR opnd$[rsp+32]
	cmp	DWORD PTR [rax+16], 17
	je	SHORT $LN101@PushInvoke
	mov	rax, QWORD PTR opnd$[rsp+32]
	cmp	DWORD PTR [rax+16], 115			; 00000073H
	jne	SHORT $LN98@PushInvoke
$LN101@PushInvoke:
$LN99@PushInvoke:

; 1521 :                 (( opnd.base_reg != NULL &&
; 1522 :                   ( opnd.base_reg->tokval == T_EAX
; 1523 : #if AMD64_SUPPORT
; 1524 :                    || opnd.base_reg->tokval == T_RAX
; 1525 : #endif
; 1526 :                   )) ||
; 1527 :                  ( opnd.idx_reg != NULL &&
; 1528 :                   ( opnd.idx_reg->tokval == T_EAX
; 1529 : #if AMD64_SUPPORT
; 1530 :                    || opnd.idx_reg->tokval == T_RAX
; 1531 : #endif
; 1532 :                  )))) {
; 1533 :                 EmitErr( REGISTER_VALUE_OVERWRITTEN_BY_INVOKE );

	mov	ecx, 165				; 000000a5H
	call	EmitErr

; 1534 :                 *r0flags = 0;

	mov	rax, QWORD PTR r0flags$[rsp]
	mov	BYTE PTR [rax], 0
$LN98@PushInvoke:

; 1535 :             }
; 1536 : 
; 1537 :             if ( curr->sym.is_vararg ) {

	mov	rax, QWORD PTR curr$[rsp]
	movzx	eax, BYTE PTR [rax+47]
	shr	al, 5
	and	al, 1
	movzx	eax, al
	test	eax, eax
	je	SHORT $LN102@PushInvoke

; 1538 :                 size_vararg += ( asize > pushsize ? asize : pushsize );

	mov	eax, DWORD PTR pushsize$[rsp]
	cmp	DWORD PTR asize$[rsp], eax
	jle	SHORT $LN261@PushInvoke
	mov	eax, DWORD PTR asize$[rsp]
	mov	DWORD PTR tv710[rsp], eax
	jmp	SHORT $LN262@PushInvoke
$LN261@PushInvoke:
	mov	eax, DWORD PTR pushsize$[rsp]
	mov	DWORD PTR tv710[rsp], eax
$LN262@PushInvoke:
	mov	eax, DWORD PTR tv710[rsp]
	mov	ecx, DWORD PTR size_vararg
	add	ecx, eax
	mov	eax, ecx
	mov	DWORD PTR size_vararg, eax

; 1539 :                 DebugMsg1(("PushInvokeParm(%u): asize=%u added to size_vararg, now=%u\n",

	mov	eax, DWORD PTR pushsize$[rsp]
	cmp	DWORD PTR asize$[rsp], eax
	jle	SHORT $LN263@PushInvoke
	mov	eax, DWORD PTR asize$[rsp]
	mov	DWORD PTR tv714[rsp], eax
	jmp	SHORT $LN264@PushInvoke
$LN263@PushInvoke:
	mov	eax, DWORD PTR pushsize$[rsp]
	mov	DWORD PTR tv714[rsp], eax
$LN264@PushInvoke:
	mov	r9d, DWORD PTR size_vararg
	mov	r8d, DWORD PTR tv714[rsp]
	mov	edx, DWORD PTR reqParam$[rsp]
	lea	rcx, OFFSET FLAT:$SG11960
	call	DoDebugMsg1
$LN102@PushInvoke:

; 1540 :                            reqParam, asize > pushsize ? asize : pushsize, size_vararg ));
; 1541 :             }
; 1542 :             if ( asize > pushsize ) {

	mov	eax, DWORD PTR pushsize$[rsp]
	cmp	DWORD PTR asize$[rsp], eax
	jle	$LN103@PushInvoke

; 1543 : 
; 1544 :                 short dw = T_WORD;

	mov	eax, 207				; 000000cfH
	mov	WORD PTR dw$3[rsp], ax

; 1545 :                 if (( ModuleInfo.curr_cpu & P_CPU_MASK ) >= P_386 ) {

	mov	eax, DWORD PTR ModuleInfo+392
	and	eax, 240				; 000000f0H
	cmp	eax, 48					; 00000030H
	jl	SHORT $LN105@PushInvoke

; 1546 :                     pushsize = 4;

	mov	DWORD PTR pushsize$[rsp], 4

; 1547 :                     dw = T_DWORD;

	mov	eax, 209				; 000000d1H
	mov	WORD PTR dw$3[rsp], ax
$LN105@PushInvoke:

; 1548 :                 }
; 1549 : 
; 1550 :                 /* in params like "qword ptr [eax]" the typecast
; 1551 :                  * has to be removed */
; 1552 :                 if ( opnd.explicit ) {

	mov	eax, DWORD PTR opnd$[rsp+72]
	shr	eax, 1
	and	eax, 1
	test	eax, eax
	je	SHORT $LN106@PushInvoke

; 1553 :                     SkipTypecast( fullparam, i, tokenarray );

	mov	r8, QWORD PTR tokenarray$[rsp]
	mov	edx, DWORD PTR i$[rsp]
	lea	rcx, QWORD PTR fullparam$[rsp]
	call	SkipTypecast

; 1554 :                     opnd.explicit = FALSE;

	mov	eax, DWORD PTR opnd$[rsp+72]
	and	eax, -3					; fffffffdH
	mov	DWORD PTR opnd$[rsp+72], eax
$LN106@PushInvoke:
$LN8@PushInvoke:

; 1555 :                 }
; 1556 : 
; 1557 :                 while ( asize > 0 ) {

	cmp	DWORD PTR asize$[rsp], 0
	jle	$LN9@PushInvoke

; 1558 : 
; 1559 :                     if ( asize & 2 ) {

	mov	eax, DWORD PTR asize$[rsp]
	and	eax, 2
	test	eax, eax
	je	SHORT $LN107@PushInvoke

; 1560 : 
; 1561 :                         /* ensure the stack remains dword-aligned in 32bit */
; 1562 :                         if ( ModuleInfo.Ofssize > USE16 ) {

	movzx	eax, BYTE PTR ModuleInfo+404
	test	eax, eax
	jle	SHORT $LN109@PushInvoke

; 1563 :                             /* v2.05: better push a 0 word? */
; 1564 :                             //AddLineQueueX( " pushw 0" );
; 1565 :                           /* ASMC v1.12: dword-aligned stack in 32bit */
; 1566 :                           if (pushsize == 4)

	cmp	DWORD PTR pushsize$[rsp], 4
	jne	SHORT $LN110@PushInvoke

; 1567 :                             size_vararg += 2;

	mov	eax, DWORD PTR size_vararg
	add	eax, 2
	mov	DWORD PTR size_vararg, eax
$LN110@PushInvoke:

; 1568 :                           /******/
; 1569 : #if AMD64_SUPPORT
; 1570 :                             AddLineQueueX( " sub %r, 2", stackreg[ModuleInfo.Ofssize] );

	movzx	eax, BYTE PTR ModuleInfo+404
	lea	rcx, OFFSET FLAT:stackreg
	mov	edx, DWORD PTR [rcx+rax*4]
	lea	rcx, OFFSET FLAT:$SG11969
	call	AddLineQueueX
$LN109@PushInvoke:

; 1571 : #else
; 1572 :                             AddLineQueueX( " sub %r, 2", T_ESP );
; 1573 : #endif
; 1574 :                         }
; 1575 :                         AddLineQueueX( " push word ptr %s+%u", fullparam, NUMQUAL asize-2 );

	mov	eax, DWORD PTR asize$[rsp]
	sub	eax, 2
	mov	r8d, eax
	lea	rdx, QWORD PTR fullparam$[rsp]
	lea	rcx, OFFSET FLAT:$SG11970
	call	AddLineQueueX

; 1576 :                         asize -= 2;

	mov	eax, DWORD PTR asize$[rsp]
	sub	eax, 2
	mov	DWORD PTR asize$[rsp], eax

; 1577 :                     } else {

	jmp	SHORT $LN108@PushInvoke
$LN107@PushInvoke:

; 1578 :                         AddLineQueueX( " push %r ptr %s+%u", dw, fullparam, NUMQUAL asize-pushsize );

	mov	eax, DWORD PTR pushsize$[rsp]
	mov	ecx, DWORD PTR asize$[rsp]
	sub	ecx, eax
	mov	eax, ecx
	movsx	ecx, WORD PTR dw$3[rsp]
	mov	r9d, eax
	lea	r8, QWORD PTR fullparam$[rsp]
	mov	edx, ecx
	lea	rcx, OFFSET FLAT:$SG11971
	call	AddLineQueueX

; 1579 :                         asize -= pushsize;

	mov	eax, DWORD PTR pushsize$[rsp]
	mov	ecx, DWORD PTR asize$[rsp]
	sub	ecx, eax
	mov	eax, ecx
	mov	DWORD PTR asize$[rsp], eax
$LN108@PushInvoke:

; 1580 :                     }
; 1581 :                 }

	jmp	$LN8@PushInvoke
$LN9@PushInvoke:

; 1582 :                 //return( NOT_ERROR );
; 1583 : 
; 1584 :             } else if ( asize < pushsize ) {

	jmp	$LN104@PushInvoke
$LN103@PushInvoke:
	mov	eax, DWORD PTR pushsize$[rsp]
	cmp	DWORD PTR asize$[rsp], eax
	jge	$LN111@PushInvoke

; 1585 : 
; 1586 :                 if ( psize > 4 ) {

	cmp	DWORD PTR psize$[rsp], 4
	jle	SHORT $LN113@PushInvoke

; 1587 :                     DebugMsg1(("PushInvokeParm(%u): error, ADDR, psize=%u, is > 4\n",

	mov	r8d, DWORD PTR psize$[rsp]
	mov	edx, DWORD PTR reqParam$[rsp]
	lea	rcx, OFFSET FLAT:$SG11975
	call	DoDebugMsg1

; 1588 :                               reqParam, psize ));
; 1589 :                     EmitErr( INVOKE_ARGUMENT_TYPE_MISMATCH, reqParam+1 );

	mov	eax, DWORD PTR reqParam$[rsp]
	inc	eax
	mov	edx, eax
	mov	ecx, 145				; 00000091H
	call	EmitErr
$LN113@PushInvoke:

; 1590 :                 }
; 1591 :                 /* v2.11: added, use MOVSX/MOVZX if cpu >= 80386 */
; 1592 :                 if ( asize < 4 && psize > 2 && IS_SIGNED( opnd.mem_type ) && ( ModuleInfo.curr_cpu & P_CPU_MASK ) >= P_386 ) {

	cmp	DWORD PTR asize$[rsp], 4
	jge	SHORT $LN114@PushInvoke
	cmp	DWORD PTR psize$[rsp], 2
	jle	SHORT $LN114@PushInvoke
	mov	eax, DWORD PTR opnd$[rsp+64]
	and	eax, 192				; 000000c0H
	cmp	eax, 64					; 00000040H
	jne	SHORT $LN114@PushInvoke
	mov	eax, DWORD PTR ModuleInfo+392
	and	eax, 240				; 000000f0H
	cmp	eax, 48					; 00000030H
	jl	SHORT $LN114@PushInvoke

; 1593 :                     AddLineQueueX( " movsx %r, %s", T_EAX, fullparam );

	lea	r8, QWORD PTR fullparam$[rsp]
	mov	edx, 17
	lea	rcx, OFFSET FLAT:$SG11978
	call	AddLineQueueX

; 1594 :                     AddLineQueueX( " push %r", T_EAX );

	mov	edx, 17
	lea	rcx, OFFSET FLAT:$SG11979
	call	AddLineQueueX

; 1595 :                     *r0flags = R0_USED; /* reset R0_H_CLEARED  */

	mov	rax, QWORD PTR r0flags$[rsp]
	mov	BYTE PTR [rax], 1

; 1596 :                 } else {

	jmp	$LN115@PushInvoke
$LN114@PushInvoke:

; 1597 :                     //switch (sym->mem_type) {
; 1598 :                     switch ( opnd.mem_type ) {

	mov	eax, DWORD PTR opnd$[rsp+64]
	mov	DWORD PTR tv771[rsp], eax
	cmp	DWORD PTR tv771[rsp], 0
	je	SHORT $LN116@PushInvoke
	cmp	DWORD PTR tv771[rsp], 1
	je	$LN129@PushInvoke
	cmp	DWORD PTR tv771[rsp], 64		; 00000040H
	je	SHORT $LN116@PushInvoke
	cmp	DWORD PTR tv771[rsp], 65		; 00000041H
	je	$LN129@PushInvoke
	jmp	$LN136@PushInvoke
$LN116@PushInvoke:

; 1599 :                     case MT_BYTE:
; 1600 :                     case MT_SBYTE:
; 1601 :                         if ( psize == 1 && curr->sym.is_vararg == FALSE ) {

	cmp	DWORD PTR psize$[rsp], 1
	jne	SHORT $LN117@PushInvoke
	mov	rax, QWORD PTR curr$[rsp]
	movzx	eax, BYTE PTR [rax+47]
	shr	al, 5
	and	al, 1
	movzx	eax, al
	test	eax, eax
	jne	SHORT $LN117@PushInvoke

; 1602 :                             AddLineQueueX( " mov %r, %s", T_AL, fullparam );

	lea	r8, QWORD PTR fullparam$[rsp]
	mov	edx, 1
	lea	rcx, OFFSET FLAT:$SG11983
	call	AddLineQueueX

; 1603 :                             AddLineQueueX( " push %r", regax[ModuleInfo.Ofssize] );

	movzx	eax, BYTE PTR ModuleInfo+404
	lea	rcx, OFFSET FLAT:regax
	mov	edx, DWORD PTR [rcx+rax*4]
	lea	rcx, OFFSET FLAT:$SG11984
	call	AddLineQueueX
	jmp	$LN118@PushInvoke
$LN117@PushInvoke:

; 1604 :                         } else if ( pushsize == 2 ) { /* 16-bit code? */

	cmp	DWORD PTR pushsize$[rsp], 2
	jne	$LN119@PushInvoke

; 1605 :                             if ( opnd.mem_type == MT_BYTE ) {

	cmp	DWORD PTR opnd$[rsp+64], 0
	jne	$LN121@PushInvoke

; 1606 :                                 if ( psize == 4 )

	cmp	DWORD PTR psize$[rsp], 4
	jne	SHORT $LN123@PushInvoke

; 1607 :                                     if ( ( ModuleInfo.curr_cpu & P_CPU_MASK ) < P_186 )  {

	mov	eax, DWORD PTR ModuleInfo+392
	and	eax, 240				; 000000f0H
	cmp	eax, 16
	jge	SHORT $LN124@PushInvoke

; 1608 :                                         if ( !(*r0flags & R0_X_CLEARED ) )

	mov	rax, QWORD PTR r0flags$[rsp]
	movzx	eax, BYTE PTR [rax]
	and	eax, 4
	test	eax, eax
	jne	SHORT $LN126@PushInvoke

; 1609 :                                             AddLineQueueX( " xor %r, %r", T_AX, T_AX );

	mov	r8d, 9
	mov	edx, 9
	lea	rcx, OFFSET FLAT:$SG11993
	call	AddLineQueueX
$LN126@PushInvoke:

; 1610 :                                         *r0flags |= ( R0_X_CLEARED | R0_H_CLEARED );

	mov	rax, QWORD PTR r0flags$[rsp]
	movzx	eax, BYTE PTR [rax]
	or	eax, 6
	mov	rcx, QWORD PTR r0flags$[rsp]
	mov	BYTE PTR [rcx], al

; 1611 :                                         AddLineQueueX( " push %r", T_AX );

	mov	edx, 9
	lea	rcx, OFFSET FLAT:$SG11994
	call	AddLineQueueX

; 1612 :                                     } else

	jmp	SHORT $LN125@PushInvoke
$LN124@PushInvoke:

; 1613 :                                         AddLineQueue( " push 0" );

	lea	rcx, OFFSET FLAT:$SG11995
	call	AddLineQueue
$LN125@PushInvoke:
$LN123@PushInvoke:

; 1614 :                                 AddLineQueueX( " mov %r, %s", T_AL, fullparam );

	lea	r8, QWORD PTR fullparam$[rsp]
	mov	edx, 1
	lea	rcx, OFFSET FLAT:$SG11996
	call	AddLineQueueX

; 1615 :                                 if ( !( *r0flags & R0_H_CLEARED )) {

	mov	rax, QWORD PTR r0flags$[rsp]
	movzx	eax, BYTE PTR [rax]
	and	eax, 2
	test	eax, eax
	jne	SHORT $LN127@PushInvoke

; 1616 :                                     AddLineQueueX( " mov %r, 0", T_AH );

	mov	edx, 5
	lea	rcx, OFFSET FLAT:$SG11998
	call	AddLineQueueX

; 1617 :                                     *r0flags |= R0_H_CLEARED;

	mov	rax, QWORD PTR r0flags$[rsp]
	movzx	eax, BYTE PTR [rax]
	or	eax, 2
	mov	rcx, QWORD PTR r0flags$[rsp]
	mov	BYTE PTR [rcx], al
$LN127@PushInvoke:

; 1618 :                                 }
; 1619 :                             } else {

	jmp	SHORT $LN122@PushInvoke
$LN121@PushInvoke:

; 1620 :                                 AddLineQueueX( " mov %r, %s", T_AL, fullparam );

	lea	r8, QWORD PTR fullparam$[rsp]
	mov	edx, 1
	lea	rcx, OFFSET FLAT:$SG11999
	call	AddLineQueueX

; 1621 :                                 *r0flags = 0; /* reset AH_CLEARED */

	mov	rax, QWORD PTR r0flags$[rsp]
	mov	BYTE PTR [rax], 0

; 1622 :                                 AddLineQueue( " cbw" );

	lea	rcx, OFFSET FLAT:$SG12000
	call	AddLineQueue

; 1623 :                                 if ( psize == 4 ) {

	cmp	DWORD PTR psize$[rsp], 4
	jne	SHORT $LN128@PushInvoke

; 1624 :                                     AddLineQueue( " cwd" );

	lea	rcx, OFFSET FLAT:$SG12002
	call	AddLineQueue

; 1625 :                                     AddLineQueueX( " push %r", T_DX );

	mov	edx, 11
	lea	rcx, OFFSET FLAT:$SG12003
	call	AddLineQueueX

; 1626 :                                     *r0flags |= R2_USED;

	mov	rax, QWORD PTR r0flags$[rsp]
	movzx	eax, BYTE PTR [rax]
	or	eax, 8
	mov	rcx, QWORD PTR r0flags$[rsp]
	mov	BYTE PTR [rcx], al
$LN128@PushInvoke:
$LN122@PushInvoke:

; 1627 :                                 }
; 1628 :                             }
; 1629 :                             AddLineQueueX( " push %r", T_AX );

	mov	edx, 9
	lea	rcx, OFFSET FLAT:$SG12004
	call	AddLineQueueX

; 1630 :                         } else {

	jmp	SHORT $LN120@PushInvoke
$LN119@PushInvoke:

; 1631 :                             AddLineQueueX( " mov%sx %r, %s", opnd.mem_type == MT_BYTE ? "z" : "s", T_EAX, fullparam );

	cmp	DWORD PTR opnd$[rsp+64], 0
	jne	SHORT $LN265@PushInvoke
	lea	rax, OFFSET FLAT:$SG12005
	mov	QWORD PTR tv830[rsp], rax
	jmp	SHORT $LN266@PushInvoke
$LN265@PushInvoke:
	lea	rax, OFFSET FLAT:$SG12006
	mov	QWORD PTR tv830[rsp], rax
$LN266@PushInvoke:
	lea	r9, QWORD PTR fullparam$[rsp]
	mov	r8d, 17
	mov	rdx, QWORD PTR tv830[rsp]
	lea	rcx, OFFSET FLAT:$SG12007
	call	AddLineQueueX

; 1632 :                             AddLineQueueX( " push %r", T_EAX );

	mov	edx, 17
	lea	rcx, OFFSET FLAT:$SG12008
	call	AddLineQueueX
$LN120@PushInvoke:
$LN118@PushInvoke:

; 1633 :                         }
; 1634 :                         *r0flags |= R0_USED;

	mov	rax, QWORD PTR r0flags$[rsp]
	movzx	eax, BYTE PTR [rax]
	or	eax, 1
	mov	rcx, QWORD PTR r0flags$[rsp]
	mov	BYTE PTR [rcx], al

; 1635 :                         break;

	jmp	$LN10@PushInvoke
$LN129@PushInvoke:

; 1636 :                     case MT_WORD:
; 1637 :                     case MT_SWORD:
; 1638 :                         /* pushsize is 4 here, hence it's always 32-bit code!
; 1639 :                          * v2.04: use the Masm-compatible, non-destructive
; 1640 :                          * PUSH if psize is 2.
; 1641 :                          */
; 1642 :                         //if ( Options.masm_compat_gencode ) {
; 1643 :                         /* v2.11: don't push 0 if src operand is signed */
; 1644 :                         //if ( Options.masm_compat_gencode || psize == 2 ) {
; 1645 :                         if ( opnd.mem_type == MT_WORD && ( Options.masm_compat_gencode || psize == 2 )) {

	cmp	DWORD PTR opnd$[rsp+64], 1
	jne	SHORT $LN130@PushInvoke
	movzx	eax, BYTE PTR Options+144
	test	eax, eax
	jne	SHORT $LN132@PushInvoke
	cmp	DWORD PTR psize$[rsp], 2
	jne	SHORT $LN130@PushInvoke
$LN132@PushInvoke:

; 1646 :                             /* v2.05: push a 0 word if argument is VARARG
; 1647 :                              * v2.10: push a 0 word if psize != 2
; 1648 :                              */
; 1649 :                             //if ( curr->sym.is_vararg )
; 1650 :                             if ( curr->sym.is_vararg || psize != 2 )

	mov	rax, QWORD PTR curr$[rsp]
	movzx	eax, BYTE PTR [rax+47]
	shr	al, 5
	and	al, 1
	movzx	eax, al
	test	eax, eax
	jne	SHORT $LN135@PushInvoke
	cmp	DWORD PTR psize$[rsp], 2
	je	SHORT $LN133@PushInvoke
$LN135@PushInvoke:

; 1651 :                                 AddLineQueueX( " pushw 0" );

	lea	rcx, OFFSET FLAT:$SG12016
	call	AddLineQueueX
	jmp	SHORT $LN134@PushInvoke
$LN133@PushInvoke:

; 1652 :                             else {
; 1653 : #if AMD64_SUPPORT
; 1654 :                                 AddLineQueueX( " sub %r, 2", stackreg[ModuleInfo.Ofssize] );

	movzx	eax, BYTE PTR ModuleInfo+404
	lea	rcx, OFFSET FLAT:stackreg
	mov	edx, DWORD PTR [rcx+rax*4]
	lea	rcx, OFFSET FLAT:$SG12017
	call	AddLineQueueX
$LN134@PushInvoke:

; 1655 : #else
; 1656 :                                 AddLineQueueX( " sub %r, 2", T_ESP );
; 1657 : #endif
; 1658 :                             }
; 1659 :                             AddLineQueueX( " push %s", fullparam );

	lea	rdx, QWORD PTR fullparam$[rsp]
	lea	rcx, OFFSET FLAT:$SG12018
	call	AddLineQueueX

; 1660 :                         } else {

	jmp	SHORT $LN131@PushInvoke
$LN130@PushInvoke:

; 1661 :                             AddLineQueueX( " mov%sx %r, %s", opnd.mem_type == MT_WORD ? "z" : "s", T_EAX, fullparam );

	cmp	DWORD PTR opnd$[rsp+64], 1
	jne	SHORT $LN267@PushInvoke
	lea	rax, OFFSET FLAT:$SG12019
	mov	QWORD PTR tv891[rsp], rax
	jmp	SHORT $LN268@PushInvoke
$LN267@PushInvoke:
	lea	rax, OFFSET FLAT:$SG12020
	mov	QWORD PTR tv891[rsp], rax
$LN268@PushInvoke:
	lea	r9, QWORD PTR fullparam$[rsp]
	mov	r8d, 17
	mov	rdx, QWORD PTR tv891[rsp]
	lea	rcx, OFFSET FLAT:$SG12021
	call	AddLineQueueX

; 1662 :                             AddLineQueueX( " push %r", T_EAX );

	mov	edx, 17
	lea	rcx, OFFSET FLAT:$SG12022
	call	AddLineQueueX

; 1663 :                             *r0flags = R0_USED; /* reset R0_H_CLEARED  */

	mov	rax, QWORD PTR r0flags$[rsp]
	mov	BYTE PTR [rax], 1
$LN131@PushInvoke:

; 1664 :                         }
; 1665 :                         break;

	jmp	SHORT $LN10@PushInvoke
$LN136@PushInvoke:

; 1666 :                     default:
; 1667 :                         AddLineQueueX( " push %s", fullparam );

	lea	rdx, QWORD PTR fullparam$[rsp]
	lea	rcx, OFFSET FLAT:$SG12024
	call	AddLineQueueX
$LN10@PushInvoke:
$LN115@PushInvoke:

; 1668 :                     }
; 1669 :                 }
; 1670 :             } else { /* asize == pushsize */

	jmp	$LN112@PushInvoke
$LN111@PushInvoke:

; 1671 : 
; 1672 :                 /* v2.11: changed */
; 1673 :                 if ( IS_SIGNED( opnd.mem_type ) && psize > asize ) {

	mov	eax, DWORD PTR opnd$[rsp+64]
	and	eax, 192				; 000000c0H
	cmp	eax, 64					; 00000040H
	jne	$LN137@PushInvoke
	mov	eax, DWORD PTR asize$[rsp]
	cmp	DWORD PTR psize$[rsp], eax
	jle	$LN137@PushInvoke

; 1674 :                     if ( psize > 2 && (( ModuleInfo.curr_cpu & P_CPU_MASK ) >= P_386 ) ) {

	cmp	DWORD PTR psize$[rsp], 2
	jle	SHORT $LN139@PushInvoke
	mov	eax, DWORD PTR ModuleInfo+392
	and	eax, 240				; 000000f0H
	cmp	eax, 48					; 00000030H
	jl	SHORT $LN139@PushInvoke

; 1675 :                         AddLineQueueX( " movsx %r, %s", T_EAX, fullparam );

	lea	r8, QWORD PTR fullparam$[rsp]
	mov	edx, 17
	lea	rcx, OFFSET FLAT:$SG12029
	call	AddLineQueueX

; 1676 :                         AddLineQueueX( " push %r", T_EAX );

	mov	edx, 17
	lea	rcx, OFFSET FLAT:$SG12030
	call	AddLineQueueX

; 1677 :                         *r0flags = R0_USED; /* reset R0_H_CLEARED  */

	mov	rax, QWORD PTR r0flags$[rsp]
	mov	BYTE PTR [rax], 1
	jmp	SHORT $LN140@PushInvoke
$LN139@PushInvoke:

; 1678 :                     } else if ( pushsize == 2 && psize > 2 ) {

	cmp	DWORD PTR pushsize$[rsp], 2
	jne	SHORT $LN141@PushInvoke
	cmp	DWORD PTR psize$[rsp], 2
	jle	SHORT $LN141@PushInvoke

; 1679 :                         AddLineQueueX( " mov %r, %s", T_AX, fullparam );

	lea	r8, QWORD PTR fullparam$[rsp]
	mov	edx, 9
	lea	rcx, OFFSET FLAT:$SG12033
	call	AddLineQueueX

; 1680 :                         AddLineQueueX( " cwd" );

	lea	rcx, OFFSET FLAT:$SG12034
	call	AddLineQueueX

; 1681 :                         AddLineQueueX( " push %r", T_DX );

	mov	edx, 11
	lea	rcx, OFFSET FLAT:$SG12035
	call	AddLineQueueX

; 1682 :                         AddLineQueueX( " push %r", T_AX );

	mov	edx, 9
	lea	rcx, OFFSET FLAT:$SG12036
	call	AddLineQueueX

; 1683 :                         *r0flags = R0_USED | R2_USED;

	mov	rax, QWORD PTR r0flags$[rsp]
	mov	BYTE PTR [rax], 9

; 1684 :                     } else

	jmp	SHORT $LN142@PushInvoke
$LN141@PushInvoke:

; 1685 :                         AddLineQueueX( " push %s", fullparam );

	lea	rdx, QWORD PTR fullparam$[rsp]
	lea	rcx, OFFSET FLAT:$SG12037
	call	AddLineQueueX
$LN142@PushInvoke:
$LN140@PushInvoke:

; 1686 :                 } else {

	jmp	$LN138@PushInvoke
$LN137@PushInvoke:

; 1687 :                     if ( pushsize == 2 && psize > 2 ) {

	cmp	DWORD PTR pushsize$[rsp], 2
	jne	SHORT $LN143@PushInvoke
	cmp	DWORD PTR psize$[rsp], 2
	jle	SHORT $LN143@PushInvoke

; 1688 :                         if ( ( ModuleInfo.curr_cpu & P_CPU_MASK ) < P_186 )  {

	mov	eax, DWORD PTR ModuleInfo+392
	and	eax, 240				; 000000f0H
	cmp	eax, 16
	jge	SHORT $LN144@PushInvoke

; 1689 :                             if ( !(*r0flags & R0_X_CLEARED ) )

	mov	rax, QWORD PTR r0flags$[rsp]
	movzx	eax, BYTE PTR [rax]
	and	eax, 4
	test	eax, eax
	jne	SHORT $LN146@PushInvoke

; 1690 :                                 AddLineQueueX( " xor %r, %r", T_AX, T_AX );

	mov	r8d, 9
	mov	edx, 9
	lea	rcx, OFFSET FLAT:$SG12042
	call	AddLineQueueX
$LN146@PushInvoke:

; 1691 :                             AddLineQueueX( " push %r", T_AX );

	mov	edx, 9
	lea	rcx, OFFSET FLAT:$SG12043
	call	AddLineQueueX

; 1692 :                             *r0flags |= ( R0_USED | R0_X_CLEARED | R0_H_CLEARED );

	mov	rax, QWORD PTR r0flags$[rsp]
	movzx	eax, BYTE PTR [rax]
	or	eax, 7
	mov	rcx, QWORD PTR r0flags$[rsp]
	mov	BYTE PTR [rcx], al

; 1693 :                         } else

	jmp	SHORT $LN145@PushInvoke
$LN144@PushInvoke:

; 1694 :                             AddLineQueueX( " pushw 0" );

	lea	rcx, OFFSET FLAT:$SG12044
	call	AddLineQueueX
$LN145@PushInvoke:
$LN143@PushInvoke:

; 1695 :                     }
; 1696 :                     AddLineQueueX( " push %s", fullparam );

	lea	rdx, QWORD PTR fullparam$[rsp]
	lea	rcx, OFFSET FLAT:$SG12045
	call	AddLineQueueX
$LN138@PushInvoke:
$LN112@PushInvoke:
$LN104@PushInvoke:

; 1697 :                 }
; 1698 :             }
; 1699 : 
; 1700 :         } else { /* the parameter is a register or constant value! */

	jmp	$LN95@PushInvoke
$LN94@PushInvoke:

; 1701 : 
; 1702 :             //char is_r0 = FALSE;
; 1703 :             if ( opnd.kind == EXPR_REG ) {

	cmp	DWORD PTR opnd$[rsp+60], 2
	jne	$LN147@PushInvoke

; 1704 :                 int reg = opnd.base_reg->tokval;

	mov	rax, QWORD PTR opnd$[rsp+24]
	mov	eax, DWORD PTR [rax+16]
	mov	DWORD PTR reg$1[rsp], eax

; 1705 :                 unsigned optype = GetValueSp( reg );

	movsxd	rax, DWORD PTR reg$1[rsp]
	imul	rax, rax, 12
	lea	rcx, OFFSET FLAT:SpecialTable
	mov	eax, DWORD PTR [rcx+rax]
	mov	DWORD PTR optype$6[rsp], eax

; 1706 : 
; 1707 :                 /* v2.11 */
; 1708 :                 if ( curr->sym.is_vararg == TRUE && psize < pushsize )

	mov	rax, QWORD PTR curr$[rsp]
	movzx	eax, BYTE PTR [rax+47]
	shr	al, 5
	and	al, 1
	movzx	eax, al
	cmp	eax, 1
	jne	SHORT $LN149@PushInvoke
	mov	eax, DWORD PTR pushsize$[rsp]
	cmp	DWORD PTR psize$[rsp], eax
	jge	SHORT $LN149@PushInvoke

; 1709 :                     psize = pushsize;

	mov	eax, DWORD PTR pushsize$[rsp]
	mov	DWORD PTR psize$[rsp], eax
$LN149@PushInvoke:

; 1710 : 
; 1711 :                 /* v2.06: check if register is valid to be pushed.
; 1712 :                  * ST(n), MMn, XMMn, YMMn and special registers are NOT valid!
; 1713 :                  */
; 1714 :                 if ( optype & ( OP_STI | OP_MMX | OP_XMM

	mov	eax, DWORD PTR optype$6[rsp]
	and	eax, 102576				; 000190b0H
	test	eax, eax
	je	SHORT $LN150@PushInvoke

; 1715 : #if AVXSUPP
; 1716 :                                | OP_YMM
; 1717 : #endif
; 1718 :                                | OP_RSPEC ) ) {
; 1719 : 
; 1720 :                     return( EmitErr( INVOKE_ARGUMENT_TYPE_MISMATCH, reqParam+1 ) );

	mov	eax, DWORD PTR reqParam$[rsp]
	inc	eax
	mov	edx, eax
	mov	ecx, 145				; 00000091H
	call	EmitErr
	jmp	$LN1@PushInvoke
$LN150@PushInvoke:

; 1721 :                 }
; 1722 : 
; 1723 :                 if ( ( *r0flags & R0_USED ) && ( reg == T_AH || ( optype & OP_A ) ) ) {

	mov	rax, QWORD PTR r0flags$[rsp]
	movzx	eax, BYTE PTR [rax]
	and	eax, 1
	test	eax, eax
	je	SHORT $LN151@PushInvoke
	cmp	DWORD PTR reg$1[rsp], 5
	je	SHORT $LN153@PushInvoke
	mov	eax, DWORD PTR optype$6[rsp]
	and	eax, 512				; 00000200H
	test	eax, eax
	je	SHORT $LN151@PushInvoke
$LN153@PushInvoke:

; 1724 :                     EmitErr( REGISTER_VALUE_OVERWRITTEN_BY_INVOKE );

	mov	ecx, 165				; 000000a5H
	call	EmitErr

; 1725 :                     *r0flags &= ~R0_USED;

	mov	rax, QWORD PTR r0flags$[rsp]
	movzx	eax, BYTE PTR [rax]
	and	eax, -2
	mov	rcx, QWORD PTR r0flags$[rsp]
	mov	BYTE PTR [rcx], al
	jmp	SHORT $LN152@PushInvoke
$LN151@PushInvoke:

; 1726 :                 } else if ( ( *r0flags & R2_USED ) && ( reg == T_DH || GetRegNo( reg ) == 2 ) ) {

	mov	rax, QWORD PTR r0flags$[rsp]
	movzx	eax, BYTE PTR [rax]
	and	eax, 8
	test	eax, eax
	je	SHORT $LN154@PushInvoke
	cmp	DWORD PTR reg$1[rsp], 7
	je	SHORT $LN155@PushInvoke
	movsxd	rax, DWORD PTR reg$1[rsp]
	imul	rax, rax, 12
	lea	rcx, OFFSET FLAT:SpecialTable
	movzx	eax, BYTE PTR [rcx+rax+10]
	cmp	eax, 2
	jne	SHORT $LN154@PushInvoke
$LN155@PushInvoke:

; 1727 :                     EmitErr( REGISTER_VALUE_OVERWRITTEN_BY_INVOKE );

	mov	ecx, 165				; 000000a5H
	call	EmitErr

; 1728 :                     *r0flags &= ~R2_USED;

	mov	rax, QWORD PTR r0flags$[rsp]
	movzx	eax, BYTE PTR [rax]
	and	eax, -9
	mov	rcx, QWORD PTR r0flags$[rsp]
	mov	BYTE PTR [rcx], al
$LN154@PushInvoke:
$LN152@PushInvoke:

; 1729 :                 }
; 1730 :                 /* v2.11: use target's "pushsize", not the current one */
; 1731 :                 //if ( asize != psize || asize < pushsize ) {
; 1732 :                 if ( asize != psize || asize < ( 2 << Ofssize ) ) {

	mov	eax, DWORD PTR psize$[rsp]
	cmp	DWORD PTR asize$[rsp], eax
	jne	SHORT $LN157@PushInvoke
	movsx	eax, BYTE PTR Ofssize$[rsp]
	mov	ecx, 2
	mov	DWORD PTR tv1653[rsp], ecx
	movzx	ecx, al
	mov	eax, DWORD PTR tv1653[rsp]
	shl	eax, cl
	cmp	DWORD PTR asize$[rsp], eax
	jge	$LN156@PushInvoke
$LN157@PushInvoke:

; 1733 :                     /* register size doesn't match the needed parameter size.
; 1734 :                      */
; 1735 :                     if ( psize > 4 ) {

	cmp	DWORD PTR psize$[rsp], 4
	jle	SHORT $LN158@PushInvoke

; 1736 :                         DebugMsg1(("PushInvokeParm(%u): error, REG, asize=%u, psize=%u, pushsize=%u\n",

	mov	eax, DWORD PTR pushsize$[rsp]
	mov	DWORD PTR [rsp+32], eax
	mov	r9d, DWORD PTR psize$[rsp]
	mov	r8d, DWORD PTR asize$[rsp]
	mov	edx, DWORD PTR reqParam$[rsp]
	lea	rcx, OFFSET FLAT:$SG12058
	call	DoDebugMsg1

; 1737 :                                   reqParam, asize, psize, pushsize ));
; 1738 :                         EmitErr( INVOKE_ARGUMENT_TYPE_MISMATCH, reqParam+1 );

	mov	eax, DWORD PTR reqParam$[rsp]
	inc	eax
	mov	edx, eax
	mov	ecx, 145				; 00000091H
	call	EmitErr
$LN158@PushInvoke:

; 1739 :                     }
; 1740 : 
; 1741 :                     if ( asize <= 2 && ( psize == 4 || pushsize == 4 ) ) {

	cmp	DWORD PTR asize$[rsp], 2
	jg	$LN159@PushInvoke
	cmp	DWORD PTR psize$[rsp], 4
	je	SHORT $LN160@PushInvoke
	cmp	DWORD PTR pushsize$[rsp], 4
	jne	$LN159@PushInvoke
$LN160@PushInvoke:

; 1742 :                         if (( ModuleInfo.curr_cpu & P_CPU_MASK ) >= P_386 && asize == psize ) {

	mov	eax, DWORD PTR ModuleInfo+392
	and	eax, 240				; 000000f0H
	cmp	eax, 48					; 00000030H
	jl	SHORT $LN161@PushInvoke
	mov	eax, DWORD PTR psize$[rsp]
	cmp	DWORD PTR asize$[rsp], eax
	jne	SHORT $LN161@PushInvoke

; 1743 :                             if ( asize == 2 )

	cmp	DWORD PTR asize$[rsp], 2
	jne	SHORT $LN163@PushInvoke

; 1744 :                                 reg = reg - T_AX + T_EAX;

	mov	eax, DWORD PTR reg$1[rsp]
	add	eax, 8
	mov	DWORD PTR reg$1[rsp], eax
	jmp	SHORT $LN164@PushInvoke
$LN163@PushInvoke:

; 1745 :                             else {
; 1746 :                                 /* v2.11: hibyte registers AH, BH, CH, DH ( no 4-7 ) needs special handling */
; 1747 :                                 if ( reg < T_AH )

	cmp	DWORD PTR reg$1[rsp], 5
	jge	SHORT $LN165@PushInvoke

; 1748 :                                     reg = reg - T_AL + T_EAX;

	mov	eax, DWORD PTR reg$1[rsp]
	add	eax, 16
	mov	DWORD PTR reg$1[rsp], eax
	jmp	SHORT $LN166@PushInvoke
$LN165@PushInvoke:

; 1749 :                                 else {
; 1750 :                                     AddLineQueueX( " mov %r, %s", T_AL, fullparam );

	lea	r8, QWORD PTR fullparam$[rsp]
	mov	edx, 1
	lea	rcx, OFFSET FLAT:$SG12067
	call	AddLineQueueX

; 1751 :                                     *r0flags |= R0_USED;

	mov	rax, QWORD PTR r0flags$[rsp]
	movzx	eax, BYTE PTR [rax]
	or	eax, 1
	mov	rcx, QWORD PTR r0flags$[rsp]
	mov	BYTE PTR [rcx], al

; 1752 :                                     reg = T_EAX;

	mov	DWORD PTR reg$1[rsp], 17
$LN166@PushInvoke:

; 1753 :                                 }
; 1754 :                                 asize = 2; /* done */

	mov	DWORD PTR asize$[rsp], 2
$LN164@PushInvoke:

; 1755 :                             }

	jmp	$LN162@PushInvoke
$LN161@PushInvoke:

; 1756 :                         } else if ( IS_SIGNED( opnd.mem_type ) && pushsize < 4 ) {

	mov	eax, DWORD PTR opnd$[rsp+64]
	and	eax, 192				; 000000c0H
	cmp	eax, 64					; 00000040H
	jne	$LN167@PushInvoke
	cmp	DWORD PTR pushsize$[rsp], 4
	jge	$LN167@PushInvoke

; 1757 : 
; 1758 :                             /* psize is 4 in this branch */
; 1759 :                             if ( ( ModuleInfo.curr_cpu & P_CPU_MASK ) >= P_386 ) {

	mov	eax, DWORD PTR ModuleInfo+392
	and	eax, 240				; 000000f0H
	cmp	eax, 48					; 00000030H
	jl	SHORT $LN169@PushInvoke

; 1760 :                                 AddLineQueueX( " movsx %r, %s", T_EAX, fullparam );

	lea	r8, QWORD PTR fullparam$[rsp]
	mov	edx, 17
	lea	rcx, OFFSET FLAT:$SG12072
	call	AddLineQueueX

; 1761 :                                 *r0flags = R0_USED;

	mov	rax, QWORD PTR r0flags$[rsp]
	mov	BYTE PTR [rax], 1

; 1762 :                                 reg = T_EAX;

	mov	DWORD PTR reg$1[rsp], 17

; 1763 :                             } else {

	jmp	$LN170@PushInvoke
$LN169@PushInvoke:

; 1764 :                                 *r0flags = R0_USED | R2_USED;

	mov	rax, QWORD PTR r0flags$[rsp]
	mov	BYTE PTR [rax], 9

; 1765 :                                 if ( asize == 1 ) {

	cmp	DWORD PTR asize$[rsp], 1
	jne	SHORT $LN171@PushInvoke

; 1766 :                                     if ( reg != T_AL )

	cmp	DWORD PTR reg$1[rsp], 1
	je	SHORT $LN173@PushInvoke

; 1767 :                                         AddLineQueueX( " mov %r, %s", T_AL, fullparam );

	lea	r8, QWORD PTR fullparam$[rsp]
	mov	edx, 1
	lea	rcx, OFFSET FLAT:$SG12076
	call	AddLineQueueX
$LN173@PushInvoke:

; 1768 :                                     AddLineQueue( " cbw" );

	lea	rcx, OFFSET FLAT:$SG12077
	call	AddLineQueue
	jmp	SHORT $LN172@PushInvoke
$LN171@PushInvoke:

; 1769 :                                 } else if ( reg != T_AX )

	cmp	DWORD PTR reg$1[rsp], 9
	je	SHORT $LN174@PushInvoke

; 1770 :                                     AddLineQueueX( " mov %r, %s", T_AX, fullparam );

	lea	r8, QWORD PTR fullparam$[rsp]
	mov	edx, 9
	lea	rcx, OFFSET FLAT:$SG12079
	call	AddLineQueueX
$LN174@PushInvoke:
$LN172@PushInvoke:

; 1771 :                                 AddLineQueue( " cwd" );

	lea	rcx, OFFSET FLAT:$SG12080
	call	AddLineQueue

; 1772 :                                 AddLineQueueX( " push %r", T_DX );

	mov	edx, 11
	lea	rcx, OFFSET FLAT:$SG12081
	call	AddLineQueueX

; 1773 :                                 reg = T_AX;

	mov	DWORD PTR reg$1[rsp], 9
$LN170@PushInvoke:

; 1774 :                             }
; 1775 :                             asize = 2; /* done */

	mov	DWORD PTR asize$[rsp], 2
	jmp	$LN168@PushInvoke
$LN167@PushInvoke:

; 1776 : 
; 1777 :                         } else if ( ( ModuleInfo.curr_cpu & P_CPU_MASK ) >= P_186 ) {

	mov	eax, DWORD PTR ModuleInfo+392
	and	eax, 240				; 000000f0H
	cmp	eax, 16
	jl	$LN175@PushInvoke

; 1778 : 
; 1779 :                             if ( pushsize == 4 ) {

	cmp	DWORD PTR pushsize$[rsp], 4
	jne	SHORT $LN177@PushInvoke

; 1780 :                                 if ( asize == 1 ) {

	cmp	DWORD PTR asize$[rsp], 1
	jne	SHORT $LN179@PushInvoke
	jmp	SHORT $LN180@PushInvoke
$LN179@PushInvoke:

; 1781 :                                     /* handled below */
; 1782 :                                 } else if ( psize <= 2 ) {

	cmp	DWORD PTR psize$[rsp], 2
	jg	SHORT $LN181@PushInvoke

; 1783 : #if AMD64_SUPPORT
; 1784 :                                     AddLineQueueX( " sub %r, 2", stackreg[ModuleInfo.Ofssize] );

	movzx	eax, BYTE PTR ModuleInfo+404
	lea	rcx, OFFSET FLAT:stackreg
	mov	edx, DWORD PTR [rcx+rax*4]
	lea	rcx, OFFSET FLAT:$SG12090
	call	AddLineQueueX
	jmp	SHORT $LN182@PushInvoke
$LN181@PushInvoke:

; 1785 : #else
; 1786 :                                     AddLineQueueX( " sub %r, 2", T_ESP );
; 1787 : #endif
; 1788 :                                 } else if ( IS_SIGNED( opnd.mem_type ) ) {

	mov	eax, DWORD PTR opnd$[rsp+64]
	and	eax, 192				; 000000c0H
	cmp	eax, 64					; 00000040H
	jne	SHORT $LN183@PushInvoke

; 1789 :                                     AddLineQueueX( " movsx %r, %s", T_EAX, fullparam );

	lea	r8, QWORD PTR fullparam$[rsp]
	mov	edx, 17
	lea	rcx, OFFSET FLAT:$SG12093
	call	AddLineQueueX

; 1790 :                                     *r0flags = R0_USED;

	mov	rax, QWORD PTR r0flags$[rsp]
	mov	BYTE PTR [rax], 1

; 1791 :                                     reg = T_EAX;

	mov	DWORD PTR reg$1[rsp], 17

; 1792 :                                 } else {

	jmp	SHORT $LN184@PushInvoke
$LN183@PushInvoke:

; 1793 :                                     AddLineQueue( " pushw 0" );

	lea	rcx, OFFSET FLAT:$SG12094
	call	AddLineQueue
$LN184@PushInvoke:
$LN182@PushInvoke:
$LN180@PushInvoke:

; 1794 :                                 }
; 1795 :                             } else

	jmp	SHORT $LN178@PushInvoke
$LN177@PushInvoke:

; 1796 :                                 AddLineQueue( " pushw 0" );

	lea	rcx, OFFSET FLAT:$SG12095
	call	AddLineQueue
$LN178@PushInvoke:

; 1797 : 
; 1798 :                         } else {

	jmp	SHORT $LN176@PushInvoke
$LN175@PushInvoke:

; 1799 : 
; 1800 :                             if ( !(*r0flags & R0_X_CLEARED) ) {

	mov	rax, QWORD PTR r0flags$[rsp]
	movzx	eax, BYTE PTR [rax]
	and	eax, 4
	test	eax, eax
	jne	SHORT $LN185@PushInvoke

; 1801 :                                 /* v2.11: extra check needed */
; 1802 :                                 if ( reg == T_AH || ( optype & OP_A ) )

	cmp	DWORD PTR reg$1[rsp], 5
	je	SHORT $LN187@PushInvoke
	mov	eax, DWORD PTR optype$6[rsp]
	and	eax, 512				; 00000200H
	test	eax, eax
	je	SHORT $LN186@PushInvoke
$LN187@PushInvoke:

; 1803 :                                     EmitErr( REGISTER_VALUE_OVERWRITTEN_BY_INVOKE );

	mov	ecx, 165				; 000000a5H
	call	EmitErr
$LN186@PushInvoke:

; 1804 :                                 AddLineQueueX( " xor %r, %r", T_AX, T_AX );

	mov	r8d, 9
	mov	edx, 9
	lea	rcx, OFFSET FLAT:$SG12099
	call	AddLineQueueX
$LN185@PushInvoke:

; 1805 :                             }
; 1806 :                             AddLineQueueX( " push %r", T_AX );

	mov	edx, 9
	lea	rcx, OFFSET FLAT:$SG12100
	call	AddLineQueueX

; 1807 :                             *r0flags = R0_USED | R0_H_CLEARED | R0_X_CLEARED;

	mov	rax, QWORD PTR r0flags$[rsp]
	mov	BYTE PTR [rax], 7
$LN176@PushInvoke:
$LN168@PushInvoke:
$LN162@PushInvoke:
$LN159@PushInvoke:

; 1808 :                         }
; 1809 :                     }
; 1810 : 
; 1811 :                     if ( asize == 1 ) {

	cmp	DWORD PTR asize$[rsp], 1
	jne	$LN188@PushInvoke

; 1812 :                         if ( ( reg >= T_AH && reg <= T_BH ) || psize != 1 ) {

	cmp	DWORD PTR reg$1[rsp], 5
	jl	SHORT $LN192@PushInvoke
	cmp	DWORD PTR reg$1[rsp], 8
	jle	SHORT $LN191@PushInvoke
$LN192@PushInvoke:
	cmp	DWORD PTR psize$[rsp], 1
	je	$LN189@PushInvoke
$LN191@PushInvoke:

; 1813 :                             if ( psize != 1 && ( ModuleInfo.curr_cpu & P_CPU_MASK ) >= P_386 ) {

	cmp	DWORD PTR psize$[rsp], 1
	je	$LN193@PushInvoke
	mov	eax, DWORD PTR ModuleInfo+392
	and	eax, 240				; 000000f0H
	cmp	eax, 48					; 00000030H
	jl	$LN193@PushInvoke

; 1814 :                                 /* v2.10: consider signed type coercion! */
; 1815 :                                 AddLineQueueX( " mov%sx %r, %s", IS_SIGNED( opnd.mem_type ) ? "s" : "z",

	mov	eax, DWORD PTR opnd$[rsp+64]
	and	eax, 192				; 000000c0H
	cmp	eax, 64					; 00000040H
	jne	SHORT $LN269@PushInvoke
	lea	rax, OFFSET FLAT:$SG12108
	mov	QWORD PTR tv1112[rsp], rax
	jmp	SHORT $LN270@PushInvoke
$LN269@PushInvoke:
	lea	rax, OFFSET FLAT:$SG12109
	mov	QWORD PTR tv1112[rsp], rax
$LN270@PushInvoke:
	movzx	eax, BYTE PTR ModuleInfo+404
	lea	rcx, OFFSET FLAT:regax
	lea	r9, QWORD PTR fullparam$[rsp]
	mov	r8d, DWORD PTR [rcx+rax*4]
	mov	rdx, QWORD PTR tv1112[rsp]
	lea	rcx, OFFSET FLAT:$SG12110
	call	AddLineQueueX

; 1816 :                                               regax[ModuleInfo.Ofssize], fullparam );
; 1817 :                                 *r0flags =  ( IS_SIGNED( opnd.mem_type ) ? R0_USED : R0_USED | R0_H_CLEARED );

	mov	eax, DWORD PTR opnd$[rsp+64]
	and	eax, 192				; 000000c0H
	cmp	eax, 64					; 00000040H
	jne	SHORT $LN271@PushInvoke
	mov	DWORD PTR tv1117[rsp], 1
	jmp	SHORT $LN272@PushInvoke
$LN271@PushInvoke:
	mov	DWORD PTR tv1117[rsp], 3
$LN272@PushInvoke:
	mov	rax, QWORD PTR r0flags$[rsp]
	movzx	ecx, BYTE PTR tv1117[rsp]
	mov	BYTE PTR [rax], cl

; 1818 :                             } else {

	jmp	$LN194@PushInvoke
$LN193@PushInvoke:

; 1819 :                                 if ( reg != T_AL ) {

	cmp	DWORD PTR reg$1[rsp], 1
	je	SHORT $LN195@PushInvoke

; 1820 :                                     AddLineQueueX( " mov %r, %s", T_AL, fullparam );

	lea	r8, QWORD PTR fullparam$[rsp]
	mov	edx, 1
	lea	rcx, OFFSET FLAT:$SG12112
	call	AddLineQueueX

; 1821 :                                     *r0flags |= R0_USED;

	mov	rax, QWORD PTR r0flags$[rsp]
	movzx	eax, BYTE PTR [rax]
	or	eax, 1
	mov	rcx, QWORD PTR r0flags$[rsp]
	mov	BYTE PTR [rcx], al

; 1822 :                                     *r0flags &= ~R0_X_CLEARED;

	mov	rax, QWORD PTR r0flags$[rsp]
	movzx	eax, BYTE PTR [rax]
	and	eax, -5
	mov	rcx, QWORD PTR r0flags$[rsp]
	mov	BYTE PTR [rcx], al
$LN195@PushInvoke:

; 1823 :                                 }
; 1824 :                                 if ( psize != 1 ) /* v2.11: don't modify AH if paramsize is 1 */

	cmp	DWORD PTR psize$[rsp], 1
	je	SHORT $LN196@PushInvoke

; 1825 :                                     if ( IS_SIGNED( opnd.mem_type ) ) {

	mov	eax, DWORD PTR opnd$[rsp+64]
	and	eax, 192				; 000000c0H
	cmp	eax, 64					; 00000040H
	jne	SHORT $LN197@PushInvoke

; 1826 :                                         AddLineQueue( " cbw" );

	lea	rcx, OFFSET FLAT:$SG12116
	call	AddLineQueue

; 1827 :                                         *r0flags &= ~( R0_H_CLEARED | R0_X_CLEARED );

	mov	rax, QWORD PTR r0flags$[rsp]
	movzx	eax, BYTE PTR [rax]
	and	eax, -7
	mov	rcx, QWORD PTR r0flags$[rsp]
	mov	BYTE PTR [rcx], al
	jmp	SHORT $LN198@PushInvoke
$LN197@PushInvoke:

; 1828 :                                     } else if (!( *r0flags & R0_H_CLEARED )) {

	mov	rax, QWORD PTR r0flags$[rsp]
	movzx	eax, BYTE PTR [rax]
	and	eax, 2
	test	eax, eax
	jne	SHORT $LN199@PushInvoke

; 1829 :                                         AddLineQueueX( " mov %r, 0", T_AH );

	mov	edx, 5
	lea	rcx, OFFSET FLAT:$SG12118
	call	AddLineQueueX

; 1830 :                                         *r0flags |= R0_H_CLEARED;

	mov	rax, QWORD PTR r0flags$[rsp]
	movzx	eax, BYTE PTR [rax]
	or	eax, 2
	mov	rcx, QWORD PTR r0flags$[rsp]
	mov	BYTE PTR [rcx], al
$LN199@PushInvoke:
$LN198@PushInvoke:
$LN196@PushInvoke:
$LN194@PushInvoke:

; 1831 :                                     }
; 1832 :                             }
; 1833 :                             reg = regax[ModuleInfo.Ofssize];

	movzx	eax, BYTE PTR ModuleInfo+404
	lea	rcx, OFFSET FLAT:regax
	mov	eax, DWORD PTR [rcx+rax*4]
	mov	DWORD PTR reg$1[rsp], eax

; 1834 :                         } else {

	jmp	SHORT $LN190@PushInvoke
$LN189@PushInvoke:

; 1835 :                             /* convert 8-bit to 16/32-bit register name */
; 1836 :                             if ( (( ModuleInfo.curr_cpu & P_CPU_MASK ) >= P_386) &&

	mov	eax, DWORD PTR ModuleInfo+392
	and	eax, 240				; 000000f0H
	cmp	eax, 48					; 00000030H
	jl	SHORT $LN200@PushInvoke
	cmp	DWORD PTR psize$[rsp], 4
	je	SHORT $LN202@PushInvoke
	cmp	DWORD PTR pushsize$[rsp], 4
	jne	SHORT $LN200@PushInvoke
$LN202@PushInvoke:

; 1837 :                                 ( psize == 4 || pushsize == 4 ) ) {
; 1838 :                                 reg = reg - T_AL + T_EAX;

	mov	eax, DWORD PTR reg$1[rsp]
	add	eax, 16
	mov	DWORD PTR reg$1[rsp], eax

; 1839 :                             } else

	jmp	SHORT $LN201@PushInvoke
$LN200@PushInvoke:

; 1840 :                                 reg = reg - T_AL + T_AX;

	mov	eax, DWORD PTR reg$1[rsp]
	add	eax, 8
	mov	DWORD PTR reg$1[rsp], eax
$LN201@PushInvoke:
$LN190@PushInvoke:
$LN188@PushInvoke:
$LN156@PushInvoke:

; 1841 :                         }
; 1842 :                     }
; 1843 : #if 0
; 1844 :                     if ( is_r0 && ( *r0flags & R0_USED ) ) {
; 1845 :                         EmitErr( REGISTER_VALUE_OVERWRITTEN_BY_INVOKE );
; 1846 :                         *r0flags = 0;
; 1847 :                     }
; 1848 : #endif
; 1849 :                 }
; 1850 :                 AddLineQueueX( " push %r", reg );

	mov	edx, DWORD PTR reg$1[rsp]
	lea	rcx, OFFSET FLAT:$SG12122
	call	AddLineQueueX

; 1851 :                 /* v2.05: don't change psize if > pushsize */
; 1852 :                 if ( psize < pushsize )

	mov	eax, DWORD PTR pushsize$[rsp]
	cmp	DWORD PTR psize$[rsp], eax
	jge	SHORT $LN203@PushInvoke

; 1853 :                     /* v2.04: adjust psize ( for siz_vararg update ) */
; 1854 :                     psize = pushsize;

	mov	eax, DWORD PTR pushsize$[rsp]
	mov	DWORD PTR psize$[rsp], eax
$LN203@PushInvoke:

; 1855 : 
; 1856 :             } else { /* constant value */

	jmp	$LN148@PushInvoke
$LN147@PushInvoke:

; 1857 : 
; 1858 :                 /* v2.06: size check */
; 1859 :                 if ( psize ) {

	cmp	DWORD PTR psize$[rsp], 0
	je	$LN204@PushInvoke

; 1860 :                     if ( opnd.kind == EXPR_FLOAT )

	cmp	DWORD PTR opnd$[rsp+60], 3
	jne	SHORT $LN205@PushInvoke

; 1861 :                         asize = 4;

	mov	DWORD PTR asize$[rsp], 4
	jmp	$LN206@PushInvoke
$LN205@PushInvoke:

; 1862 :                     else if ( opnd.value64 <= 255 && opnd.value64 >= -255 )

	cmp	QWORD PTR opnd$[rsp], 255		; 000000ffH
	jg	SHORT $LN207@PushInvoke
	cmp	QWORD PTR opnd$[rsp], -255		; ffffffffffffff01H
	jl	SHORT $LN207@PushInvoke

; 1863 :                         asize = 1;

	mov	DWORD PTR asize$[rsp], 1
	jmp	SHORT $LN208@PushInvoke
$LN207@PushInvoke:

; 1864 :                     else if ( opnd.value64 <= 65535 && opnd.value64 >= -65535 )

	cmp	QWORD PTR opnd$[rsp], 65535		; 0000ffffH
	jg	SHORT $LN209@PushInvoke
	cmp	QWORD PTR opnd$[rsp], -65535		; ffffffffffff0001H
	jl	SHORT $LN209@PushInvoke

; 1865 :                         asize = 2;

	mov	DWORD PTR asize$[rsp], 2
	jmp	SHORT $LN210@PushInvoke
$LN209@PushInvoke:

; 1866 :                     else if ( opnd.value64 <= maxintvalues[0] && opnd.value64 >= minintvalues[0] )

	mov	eax, 8
	imul	rax, rax, 0
	lea	rcx, OFFSET FLAT:maxintvalues
	mov	rax, QWORD PTR [rcx+rax]
	cmp	QWORD PTR opnd$[rsp], rax
	jg	SHORT $LN211@PushInvoke
	mov	eax, 8
	imul	rax, rax, 0
	lea	rcx, OFFSET FLAT:minintvalues
	mov	rax, QWORD PTR [rcx+rax]
	cmp	QWORD PTR opnd$[rsp], rax
	jl	SHORT $LN211@PushInvoke

; 1867 :                         asize = 4;

	mov	DWORD PTR asize$[rsp], 4
	jmp	SHORT $LN212@PushInvoke
$LN211@PushInvoke:

; 1868 :                     else
; 1869 :                         asize = 8;

	mov	DWORD PTR asize$[rsp], 8
$LN212@PushInvoke:
$LN210@PushInvoke:
$LN208@PushInvoke:
$LN206@PushInvoke:

; 1870 :                     if ( psize < asize )

	mov	eax, DWORD PTR asize$[rsp]
	cmp	DWORD PTR psize$[rsp], eax
	jge	SHORT $LN213@PushInvoke

; 1871 :                         EmitErr( INVOKE_ARGUMENT_TYPE_MISMATCH, reqParam+1 );

	mov	eax, DWORD PTR reqParam$[rsp]
	inc	eax
	mov	edx, eax
	mov	ecx, 145				; 00000091H
	call	EmitErr
$LN213@PushInvoke:
$LN204@PushInvoke:

; 1872 :                 }
; 1873 : 
; 1874 :                 /* v2.11: don't use CurrWordSize */
; 1875 :                 //asize = CurrWordSize;
; 1876 :                 asize = 2 << Ofssize;

	movsx	eax, BYTE PTR Ofssize$[rsp]
	mov	ecx, 2
	mov	DWORD PTR tv1710[rsp], ecx
	movzx	ecx, al
	mov	eax, DWORD PTR tv1710[rsp]
	shl	eax, cl
	mov	DWORD PTR asize$[rsp], eax

; 1877 : 
; 1878 :                 if ( psize < asize )  /* ensure that the default argsize (2,4,8) is met */

	mov	eax, DWORD PTR asize$[rsp]
	cmp	DWORD PTR psize$[rsp], eax
	jge	SHORT $LN214@PushInvoke

; 1879 :                     if ( psize == 0 && curr->sym.is_vararg ) {

	cmp	DWORD PTR psize$[rsp], 0
	jne	SHORT $LN215@PushInvoke
	mov	rax, QWORD PTR curr$[rsp]
	movzx	eax, BYTE PTR [rax+47]
	shr	al, 5
	and	al, 1
	movzx	eax, al
	test	eax, eax
	je	SHORT $LN215@PushInvoke

; 1880 :                         /* v2.04: push a dword constant in 16-bit */
; 1881 :                         if ( asize == 2 &&

	cmp	DWORD PTR asize$[rsp], 2
	jne	SHORT $LN217@PushInvoke
	cmp	DWORD PTR opnd$[rsp], 65535		; 0000ffffH
	jg	SHORT $LN219@PushInvoke
	cmp	DWORD PTR opnd$[rsp], -65535		; ffffffffffff0001H
	jge	SHORT $LN217@PushInvoke
$LN219@PushInvoke:

; 1882 :                             ( opnd.value > 0xFFFFL || opnd.value < -65535L ) )
; 1883 :                             psize = 4;

	mov	DWORD PTR psize$[rsp], 4
	jmp	SHORT $LN218@PushInvoke
$LN217@PushInvoke:

; 1884 :                         else
; 1885 :                             psize = asize;

	mov	eax, DWORD PTR asize$[rsp]
	mov	DWORD PTR psize$[rsp], eax
$LN218@PushInvoke:

; 1886 :                     } else

	jmp	SHORT $LN216@PushInvoke
$LN215@PushInvoke:

; 1887 :                         psize = asize;

	mov	eax, DWORD PTR asize$[rsp]
	mov	DWORD PTR psize$[rsp], eax
$LN216@PushInvoke:
$LN214@PushInvoke:

; 1888 : 
; 1889 :                 if ( ( ModuleInfo.curr_cpu & P_CPU_MASK ) < P_186 ) {

	mov	eax, DWORD PTR ModuleInfo+392
	and	eax, 240				; 000000f0H
	cmp	eax, 16
	jge	$LN220@PushInvoke

; 1890 :                     *r0flags |= R0_USED;

	mov	rax, QWORD PTR r0flags$[rsp]
	movzx	eax, BYTE PTR [rax]
	or	eax, 1
	mov	rcx, QWORD PTR r0flags$[rsp]
	mov	BYTE PTR [rcx], al

; 1891 :                     switch ( psize ) {

	mov	eax, DWORD PTR psize$[rsp]
	mov	DWORD PTR tv1191[rsp], eax
	cmp	DWORD PTR tv1191[rsp], 2
	je	SHORT $LN222@PushInvoke
	cmp	DWORD PTR tv1191[rsp], 4
	je	SHORT $LN227@PushInvoke
	jmp	$LN233@PushInvoke
$LN222@PushInvoke:

; 1892 :                     case 2:
; 1893 :                         if ( opnd.value != 0 || opnd.kind == EXPR_ADDR ) {

	cmp	DWORD PTR opnd$[rsp], 0
	jne	SHORT $LN225@PushInvoke
	cmp	DWORD PTR opnd$[rsp+60], 1
	jne	SHORT $LN223@PushInvoke
$LN225@PushInvoke:

; 1894 :                             AddLineQueueX( " mov %r, %s", T_AX, fullparam );

	lea	r8, QWORD PTR fullparam$[rsp]
	mov	edx, 9
	lea	rcx, OFFSET FLAT:$SG12146
	call	AddLineQueueX

; 1895 :                         } else {

	jmp	SHORT $LN224@PushInvoke
$LN223@PushInvoke:

; 1896 :                             if ( !(*r0flags & R0_X_CLEARED ) ) {

	mov	rax, QWORD PTR r0flags$[rsp]
	movzx	eax, BYTE PTR [rax]
	and	eax, 4
	test	eax, eax
	jne	SHORT $LN226@PushInvoke

; 1897 :                                 AddLineQueueX( " xor %r, %r", T_AX, T_AX );

	mov	r8d, 9
	mov	edx, 9
	lea	rcx, OFFSET FLAT:$SG12148
	call	AddLineQueueX
$LN226@PushInvoke:

; 1898 :                             }
; 1899 :                             *r0flags |= R0_H_CLEARED | R0_X_CLEARED;

	mov	rax, QWORD PTR r0flags$[rsp]
	movzx	eax, BYTE PTR [rax]
	or	eax, 6
	mov	rcx, QWORD PTR r0flags$[rsp]
	mov	BYTE PTR [rcx], al
$LN224@PushInvoke:

; 1900 :                         }
; 1901 :                         break;

	jmp	$LN12@PushInvoke
$LN227@PushInvoke:

; 1902 :                     case 4:
; 1903 :                         if ( opnd.uvalue <= 0xFFFF )

	cmp	DWORD PTR opnd$[rsp], 65535		; 0000ffffH
	ja	SHORT $LN228@PushInvoke

; 1904 :                             AddLineQueueX( " xor %r, %r", T_AX, T_AX );

	mov	r8d, 9
	mov	edx, 9
	lea	rcx, OFFSET FLAT:$SG12152
	call	AddLineQueueX
	jmp	SHORT $LN229@PushInvoke
$LN228@PushInvoke:

; 1905 :                         else
; 1906 :                             AddLineQueueX( " mov %r, %r (%s)", T_AX, T_HIGHWORD, fullparam );

	lea	r9, QWORD PTR fullparam$[rsp]
	mov	r8d, 232				; 000000e8H
	mov	edx, 9
	lea	rcx, OFFSET FLAT:$SG12153
	call	AddLineQueueX
$LN229@PushInvoke:

; 1907 :                         AddLineQueueX( " push %r", T_AX );

	mov	edx, 9
	lea	rcx, OFFSET FLAT:$SG12154
	call	AddLineQueueX

; 1908 :                         if ( opnd.uvalue != 0 || opnd.kind == EXPR_ADDR ) {

	cmp	DWORD PTR opnd$[rsp], 0
	jne	SHORT $LN232@PushInvoke
	cmp	DWORD PTR opnd$[rsp+60], 1
	jne	SHORT $LN230@PushInvoke
$LN232@PushInvoke:

; 1909 :                             AddLineQueueX( " mov %r, %r (%s)", T_AX, T_LOWWORD, fullparam );

	lea	r9, QWORD PTR fullparam$[rsp]
	mov	r8d, 238				; 000000eeH
	mov	edx, 9
	lea	rcx, OFFSET FLAT:$SG12158
	call	AddLineQueueX

; 1910 :                         } else {

	jmp	SHORT $LN231@PushInvoke
$LN230@PushInvoke:

; 1911 :                             *r0flags |= R0_H_CLEARED | R0_X_CLEARED;

	mov	rax, QWORD PTR r0flags$[rsp]
	movzx	eax, BYTE PTR [rax]
	or	eax, 6
	mov	rcx, QWORD PTR r0flags$[rsp]
	mov	BYTE PTR [rcx], al
$LN231@PushInvoke:

; 1912 :                         }
; 1913 :                         break;

	jmp	SHORT $LN12@PushInvoke
$LN233@PushInvoke:

; 1914 :                     default:
; 1915 :                         DebugMsg1(("PushInvokeParm(%u): error, CONST, asize=%u, psize=%u, pushsize=%u\n",

	mov	eax, DWORD PTR pushsize$[rsp]
	mov	DWORD PTR [rsp+32], eax
	mov	r9d, DWORD PTR psize$[rsp]
	mov	r8d, DWORD PTR asize$[rsp]
	mov	edx, DWORD PTR reqParam$[rsp]
	lea	rcx, OFFSET FLAT:$SG12160
	call	DoDebugMsg1

; 1916 :                                   reqParam, asize, psize, pushsize ));
; 1917 :                         EmitErr( INVOKE_ARGUMENT_TYPE_MISMATCH, reqParam+1 );

	mov	eax, DWORD PTR reqParam$[rsp]
	inc	eax
	mov	edx, eax
	mov	ecx, 145				; 00000091H
	call	EmitErr
$LN12@PushInvoke:

; 1918 :                     }
; 1919 :                     AddLineQueueX( " push %r", T_AX );

	mov	edx, 9
	lea	rcx, OFFSET FLAT:$SG12161
	call	AddLineQueueX

; 1920 :                 } else { /* cpu >= 80186 */

	jmp	$LN221@PushInvoke
$LN220@PushInvoke:

; 1921 :                     char *instr = "";

	lea	rax, OFFSET FLAT:$SG12162
	mov	QWORD PTR instr$7[rsp], rax

; 1922 :                     char *suffix;
; 1923 :                     int qual = EMPTY;

	mov	DWORD PTR qual$5[rsp], -2

; 1924 :                     //if ( asize != psize ) {
; 1925 :                     if ( psize != pushsize ) {

	mov	eax, DWORD PTR pushsize$[rsp]
	cmp	DWORD PTR psize$[rsp], eax
	je	$LN234@PushInvoke

; 1926 :                         switch ( psize ) {

	mov	eax, DWORD PTR psize$[rsp]
	mov	DWORD PTR tv1238[rsp], eax
	cmp	DWORD PTR tv1238[rsp], 2
	je	SHORT $LN235@PushInvoke
	cmp	DWORD PTR tv1238[rsp], 4
	je	$LN241@PushInvoke
	cmp	DWORD PTR tv1238[rsp], 6
	je	SHORT $LN236@PushInvoke
	cmp	DWORD PTR tv1238[rsp], 8
	je	$LN244@PushInvoke
	jmp	$LN248@PushInvoke
$LN235@PushInvoke:

; 1927 :                         case 2:
; 1928 :                             instr = "w";

	lea	rax, OFFSET FLAT:$SG12165
	mov	QWORD PTR instr$7[rsp], rax

; 1929 :                             break;

	jmp	$LN14@PushInvoke
$LN236@PushInvoke:

; 1930 :                         case 6: /* v2.04: added */
; 1931 :                             /* v2.11: use pushw only for 16-bit target */
; 1932 :                             if ( Ofssize == USE16 )

	movsx	eax, BYTE PTR Ofssize$[rsp]
	test	eax, eax
	jne	SHORT $LN237@PushInvoke

; 1933 :                                 suffix = "w";

	lea	rax, OFFSET FLAT:$SG12169
	mov	QWORD PTR suffix$8[rsp], rax
	jmp	SHORT $LN238@PushInvoke
$LN237@PushInvoke:

; 1934 :                             else if ( Ofssize == USE32 && CurrWordSize == 2 )

	movsx	eax, BYTE PTR Ofssize$[rsp]
	cmp	eax, 1
	jne	SHORT $LN239@PushInvoke
	movzx	eax, BYTE PTR ModuleInfo+406
	cmp	eax, 2
	jne	SHORT $LN239@PushInvoke

; 1935 :                                 suffix = "d";

	lea	rax, OFFSET FLAT:$SG12172
	mov	QWORD PTR suffix$8[rsp], rax
	jmp	SHORT $LN240@PushInvoke
$LN239@PushInvoke:

; 1936 :                             else
; 1937 :                                 suffix = "";

	lea	rax, OFFSET FLAT:$SG12173
	mov	QWORD PTR suffix$8[rsp], rax
$LN240@PushInvoke:
$LN238@PushInvoke:

; 1938 :                             AddLineQueueX( " push%s (%s) shr 32t", suffix, fullparam );

	lea	r8, QWORD PTR fullparam$[rsp]
	mov	rdx, QWORD PTR suffix$8[rsp]
	lea	rcx, OFFSET FLAT:$SG12174
	call	AddLineQueueX
$LN241@PushInvoke:

; 1939 :                             /* no break */
; 1940 :                         case 4:
; 1941 :                             if (( ModuleInfo.curr_cpu & P_CPU_MASK ) >= P_386 )

	mov	eax, DWORD PTR ModuleInfo+392
	and	eax, 240				; 000000f0H
	cmp	eax, 48					; 00000030H
	jl	SHORT $LN242@PushInvoke

; 1942 :                                 instr = "d";

	lea	rax, OFFSET FLAT:$SG12178
	mov	QWORD PTR instr$7[rsp], rax
	jmp	SHORT $LN243@PushInvoke
$LN242@PushInvoke:

; 1943 :                             else {
; 1944 :                                 AddLineQueueX( " pushw %r (%s)", T_HIGHWORD, fullparam );

	lea	r8, QWORD PTR fullparam$[rsp]
	mov	edx, 232				; 000000e8H
	lea	rcx, OFFSET FLAT:$SG12179
	call	AddLineQueueX

; 1945 :                                 instr = "w";

	lea	rax, OFFSET FLAT:$SG12180
	mov	QWORD PTR instr$7[rsp], rax

; 1946 :                                 qual = T_LOWWORD;

	mov	DWORD PTR qual$5[rsp], 238		; 000000eeH
$LN243@PushInvoke:

; 1947 :                             }
; 1948 :                             break;

	jmp	$LN14@PushInvoke
$LN244@PushInvoke:

; 1949 :                         case 8:
; 1950 : #if AMD64_SUPPORT
; 1951 :                             if (( ModuleInfo.curr_cpu & P_CPU_MASK ) >= P_64 )

	mov	eax, DWORD PTR ModuleInfo+392
	and	eax, 240				; 000000f0H
	cmp	eax, 112				; 00000070H
	jl	SHORT $LN245@PushInvoke

; 1952 :                                 break;

	jmp	$LN14@PushInvoke
$LN245@PushInvoke:

; 1953 : #endif
; 1954 :                             /* v2.06: added support for double constants */
; 1955 :                             if ( opnd.kind == EXPR_CONST || opnd.kind == EXPR_FLOAT ) {

	cmp	DWORD PTR opnd$[rsp+60], 0
	je	SHORT $LN247@PushInvoke
	cmp	DWORD PTR opnd$[rsp+60], 3
	jne	SHORT $LN246@PushInvoke
$LN247@PushInvoke:

; 1956 :                                 AddLineQueueX( " pushd %r (%s)", T_HIGH32, fullparam );

	lea	r8, QWORD PTR fullparam$[rsp]
	mov	edx, 231				; 000000e7H
	lea	rcx, OFFSET FLAT:$SG12185
	call	AddLineQueueX

; 1957 :                                 qual = T_LOW32;

	mov	DWORD PTR qual$5[rsp], 237		; 000000edH

; 1958 :                                 instr = "d";

	lea	rax, OFFSET FLAT:$SG12186
	mov	QWORD PTR instr$7[rsp], rax

; 1959 :                                 break;

	jmp	SHORT $LN14@PushInvoke
$LN246@PushInvoke:
$LN248@PushInvoke:

; 1960 :                             }
; 1961 :                         default:
; 1962 :                             DebugMsg1(("PushInvokeParm(%u): error, CONST, asize=%u, psize=%u, pushsize=%u\n",

	mov	eax, DWORD PTR pushsize$[rsp]
	mov	DWORD PTR [rsp+32], eax
	mov	r9d, DWORD PTR psize$[rsp]
	mov	r8d, DWORD PTR asize$[rsp]
	mov	edx, DWORD PTR reqParam$[rsp]
	lea	rcx, OFFSET FLAT:$SG12188
	call	DoDebugMsg1

; 1963 :                                       reqParam, asize, psize, pushsize ));
; 1964 :                             EmitErr( INVOKE_ARGUMENT_TYPE_MISMATCH, reqParam+1 );

	mov	eax, DWORD PTR reqParam$[rsp]
	inc	eax
	mov	edx, eax
	mov	ecx, 145				; 00000091H
	call	EmitErr
$LN14@PushInvoke:
$LN234@PushInvoke:

; 1965 :                         }
; 1966 :                     }
; 1967 :                     if ( qual != EMPTY )

	cmp	DWORD PTR qual$5[rsp], -2
	je	SHORT $LN249@PushInvoke

; 1968 :                         AddLineQueueX( " push%s %r (%s)", instr, qual, fullparam );

	lea	r9, QWORD PTR fullparam$[rsp]
	mov	r8d, DWORD PTR qual$5[rsp]
	mov	rdx, QWORD PTR instr$7[rsp]
	lea	rcx, OFFSET FLAT:$SG12191
	call	AddLineQueueX
	jmp	SHORT $LN250@PushInvoke
$LN249@PushInvoke:

; 1969 :                     else
; 1970 :                         AddLineQueueX( " push%s %s", instr, fullparam );

	lea	r8, QWORD PTR fullparam$[rsp]
	mov	rdx, QWORD PTR instr$7[rsp]
	lea	rcx, OFFSET FLAT:$SG12192
	call	AddLineQueueX
$LN250@PushInvoke:
$LN221@PushInvoke:
$LN148@PushInvoke:

; 1971 :                 }
; 1972 :             }
; 1973 :             if ( curr->sym.is_vararg ) {

	mov	rax, QWORD PTR curr$[rsp]
	movzx	eax, BYTE PTR [rax+47]
	shr	al, 5
	and	al, 1
	movzx	eax, al
	test	eax, eax
	je	SHORT $LN251@PushInvoke

; 1974 :                 size_vararg += psize;

	mov	eax, DWORD PTR psize$[rsp]
	mov	ecx, DWORD PTR size_vararg
	add	ecx, eax
	mov	eax, ecx
	mov	DWORD PTR size_vararg, eax

; 1975 :                 DebugMsg1(("PushInvokeParm(%u): psize=%u added to size_vararg, now=%u\n", reqParam, psize, size_vararg ));

	mov	r9d, DWORD PTR size_vararg
	mov	r8d, DWORD PTR psize$[rsp]
	mov	edx, DWORD PTR reqParam$[rsp]
	lea	rcx, OFFSET FLAT:$SG12194
	call	DoDebugMsg1
$LN251@PushInvoke:
$LN95@PushInvoke:
$LN21@PushInvoke:

; 1976 :             }
; 1977 :         }
; 1978 :     }
; 1979 :     return( NOT_ERROR );

	xor	eax, eax
$LN1@PushInvoke:
$LN252@PushInvoke:

; 1980 : }

	mov	rcx, QWORD PTR __$ArrayPad$[rsp]
	xor	rcx, rsp
	call	__security_check_cookie
	add	rsp, 2456				; 00000998H
	ret	0
PushInvokeParam ENDP
_TEXT	ENDS
; Function compile flags: /Odtp
; File d:\hjwasm\hjwasm2.13.1s\hjwasm2.13.1s\invoke.c
_TEXT	SEGMENT
j$ = 32
fullparam$ = 64
i$ = 72
tokenarray$ = 80
SkipTypecast PROC

; 1224 : {

	mov	QWORD PTR [rsp+24], r8
	mov	DWORD PTR [rsp+16], edx
	mov	QWORD PTR [rsp+8], rcx
	sub	rsp, 56					; 00000038H

; 1225 :     int j;
; 1226 :     fullparam[0] = NULLC;

	mov	eax, 1
	imul	rax, rax, 0
	mov	rcx, QWORD PTR fullparam$[rsp]
	mov	BYTE PTR [rcx+rax], 0

; 1227 :     for ( j = i; ; j++ ) {

	mov	eax, DWORD PTR i$[rsp]
	mov	DWORD PTR j$[rsp], eax
	jmp	SHORT $LN4@SkipTypeca
$LN2@SkipTypeca:
	mov	eax, DWORD PTR j$[rsp]
	inc	eax
	mov	DWORD PTR j$[rsp], eax
$LN4@SkipTypeca:

; 1228 :         if (( tokenarray[j].token == T_COMMA ) || ( tokenarray[j].token == T_FINAL ) )

	movsxd	rax, DWORD PTR j$[rsp]
	imul	rax, rax, 32				; 00000020H
	mov	rcx, QWORD PTR tokenarray$[rsp]
	movzx	eax, BYTE PTR [rcx+rax]
	cmp	eax, 44					; 0000002cH
	je	SHORT $LN6@SkipTypeca
	movsxd	rax, DWORD PTR j$[rsp]
	imul	rax, rax, 32				; 00000020H
	mov	rcx, QWORD PTR tokenarray$[rsp]
	movzx	eax, BYTE PTR [rcx+rax]
	test	eax, eax
	jne	SHORT $LN5@SkipTypeca
$LN6@SkipTypeca:

; 1229 :             break;

	jmp	$LN3@SkipTypeca
$LN5@SkipTypeca:

; 1230 :         if (( tokenarray[j+1].token == T_BINARY_OPERATOR ) && ( tokenarray[j+1].tokval == T_PTR ) )

	mov	eax, DWORD PTR j$[rsp]
	inc	eax
	cdqe
	imul	rax, rax, 32				; 00000020H
	mov	rcx, QWORD PTR tokenarray$[rsp]
	movzx	eax, BYTE PTR [rcx+rax]
	cmp	eax, 5
	jne	SHORT $LN7@SkipTypeca
	mov	eax, DWORD PTR j$[rsp]
	inc	eax
	cdqe
	imul	rax, rax, 32				; 00000020H
	mov	rcx, QWORD PTR tokenarray$[rsp]
	cmp	DWORD PTR [rcx+rax+16], 258		; 00000102H
	jne	SHORT $LN7@SkipTypeca

; 1231 :             j = j + 1;

	mov	eax, DWORD PTR j$[rsp]
	inc	eax
	mov	DWORD PTR j$[rsp], eax
	jmp	SHORT $LN8@SkipTypeca
$LN7@SkipTypeca:

; 1232 :         else {
; 1233 :             if ( fullparam[0] != NULLC )

	mov	eax, 1
	imul	rax, rax, 0
	mov	rcx, QWORD PTR fullparam$[rsp]
	movsx	eax, BYTE PTR [rcx+rax]
	test	eax, eax
	je	SHORT $LN9@SkipTypeca

; 1234 :                 strcat( fullparam," " );

	lea	rdx, OFFSET FLAT:$SG11792
	mov	rcx, QWORD PTR fullparam$[rsp]
	call	strcat
$LN9@SkipTypeca:

; 1235 :             strcat( fullparam, tokenarray[j].string_ptr );

	movsxd	rax, DWORD PTR j$[rsp]
	imul	rax, rax, 32				; 00000020H
	mov	rcx, QWORD PTR tokenarray$[rsp]
	mov	rdx, QWORD PTR [rcx+rax+8]
	mov	rcx, QWORD PTR fullparam$[rsp]
	call	strcat
$LN8@SkipTypeca:

; 1236 :         }
; 1237 :     }

	jmp	$LN2@SkipTypeca
$LN3@SkipTypeca:

; 1238 : }

	add	rsp, 56					; 00000038H
	ret	0
SkipTypecast ENDP
_TEXT	ENDS
; Function compile flags: /Odtp
; File d:\hjwasm\hjwasm2.13.1s\hjwasm2.13.1s\invoke.c
_TEXT	SEGMENT
reg$ = 48
as$1 = 52
dir$2 = 56
seg$3 = 64
tv71 = 72
tv73 = 80
tv79 = 88
tv85 = 96
tv181 = 104
opnd$ = 128
buffer$ = 136
fullparam$ = 144
GetSegmentPart PROC

; 1052 : {

	mov	QWORD PTR [rsp+24], r8
	mov	QWORD PTR [rsp+16], rdx
	mov	QWORD PTR [rsp+8], rcx
	sub	rsp, 120				; 00000078H

; 1053 :     short reg = T_NULL;

	xor	eax, eax
	mov	WORD PTR reg$[rsp], ax

; 1054 :     DebugMsg1(("GetSegmentPart(%s) enter [override=%s sym=%s segment=%s]\n",

	mov	rax, QWORD PTR opnd$[rsp]
	cmp	QWORD PTR [rax+80], 0
	je	SHORT $LN21@GetSegment
	mov	rax, QWORD PTR opnd$[rsp]
	mov	rax, QWORD PTR [rax+80]
	cmp	QWORD PTR [rax+24], 0
	je	SHORT $LN19@GetSegment
	mov	rax, QWORD PTR opnd$[rsp]
	mov	rax, QWORD PTR [rax+80]
	mov	rax, QWORD PTR [rax+24]
	mov	rax, QWORD PTR [rax+8]
	mov	QWORD PTR tv71[rsp], rax
	jmp	SHORT $LN20@GetSegment
$LN19@GetSegment:
	lea	rax, OFFSET FLAT:$SG11653
	mov	QWORD PTR tv71[rsp], rax
$LN20@GetSegment:
	mov	rax, QWORD PTR tv71[rsp]
	mov	QWORD PTR tv73[rsp], rax
	jmp	SHORT $LN22@GetSegment
$LN21@GetSegment:
	lea	rax, OFFSET FLAT:$SG11654
	mov	QWORD PTR tv73[rsp], rax
$LN22@GetSegment:
	mov	rax, QWORD PTR opnd$[rsp]
	cmp	QWORD PTR [rax+80], 0
	je	SHORT $LN23@GetSegment
	mov	rax, QWORD PTR opnd$[rsp]
	mov	rax, QWORD PTR [rax+80]
	mov	rax, QWORD PTR [rax+8]
	mov	QWORD PTR tv79[rsp], rax
	jmp	SHORT $LN24@GetSegment
$LN23@GetSegment:
	lea	rax, OFFSET FLAT:$SG11655
	mov	QWORD PTR tv79[rsp], rax
$LN24@GetSegment:
	mov	rax, QWORD PTR opnd$[rsp]
	cmp	QWORD PTR [rax+48], 0
	je	SHORT $LN25@GetSegment
	mov	rax, QWORD PTR opnd$[rsp]
	mov	rax, QWORD PTR [rax+48]
	mov	rax, QWORD PTR [rax+8]
	mov	QWORD PTR tv85[rsp], rax
	jmp	SHORT $LN26@GetSegment
$LN25@GetSegment:
	lea	rax, OFFSET FLAT:$SG11656
	mov	QWORD PTR tv85[rsp], rax
$LN26@GetSegment:
	mov	rax, QWORD PTR tv73[rsp]
	mov	QWORD PTR [rsp+32], rax
	mov	r9, QWORD PTR tv79[rsp]
	mov	r8, QWORD PTR tv85[rsp]
	mov	rdx, QWORD PTR fullparam$[rsp]
	lea	rcx, OFFSET FLAT:$SG11657
	call	DoDebugMsg1

; 1055 :                fullparam, opnd->override ? opnd->override->string_ptr : "NULL",
; 1056 :                opnd->sym ? opnd->sym->name : "NULL",
; 1057 :                opnd->sym ? opnd->sym->segment ? opnd->sym->segment->name : "NULL" : "NULL" ));
; 1058 :     if ( opnd->override != NULL ) {

	mov	rax, QWORD PTR opnd$[rsp]
	cmp	QWORD PTR [rax+48], 0
	je	SHORT $LN2@GetSegment

; 1059 :         if ( opnd->override->token == T_REG )

	mov	rax, QWORD PTR opnd$[rsp]
	mov	rax, QWORD PTR [rax+48]
	movzx	eax, BYTE PTR [rax]
	cmp	eax, 2
	jne	SHORT $LN4@GetSegment

; 1060 :             reg = opnd->override->tokval;

	mov	rax, QWORD PTR opnd$[rsp]
	mov	rax, QWORD PTR [rax+48]
	movzx	eax, WORD PTR [rax+16]
	mov	WORD PTR reg$[rsp], ax
	jmp	SHORT $LN5@GetSegment
$LN4@GetSegment:

; 1061 :         else
; 1062 :             strcpy( buffer, opnd->override->string_ptr );

	mov	rax, QWORD PTR opnd$[rsp]
	mov	rax, QWORD PTR [rax+48]
	mov	rdx, QWORD PTR [rax+8]
	mov	rcx, QWORD PTR buffer$[rsp]
	call	strcpy
$LN5@GetSegment:

; 1063 :     } else if ( opnd->sym != NULL && opnd->sym->segment != NULL ) {

	jmp	$LN3@GetSegment
$LN2@GetSegment:
	mov	rax, QWORD PTR opnd$[rsp]
	cmp	QWORD PTR [rax+80], 0
	je	$LN6@GetSegment
	mov	rax, QWORD PTR opnd$[rsp]
	mov	rax, QWORD PTR [rax+80]
	cmp	QWORD PTR [rax+24], 0
	je	$LN6@GetSegment

; 1064 :         struct dsym *dir = GetSegm( opnd->sym );

	mov	rax, QWORD PTR opnd$[rsp]
	mov	rax, QWORD PTR [rax+80]
	mov	rax, QWORD PTR [rax+24]
	mov	QWORD PTR dir$2[rsp], rax

; 1065 :         enum assume_segreg as;
; 1066 :         if ( dir->e.seginfo->segtype == SEGTYPE_DATA ||

	mov	rax, QWORD PTR dir$2[rsp]
	mov	rax, QWORD PTR [rax+96]
	cmp	DWORD PTR [rax+72], 2
	je	SHORT $LN10@GetSegment
	mov	rax, QWORD PTR dir$2[rsp]
	mov	rax, QWORD PTR [rax+96]
	cmp	DWORD PTR [rax+72], 3
	jne	SHORT $LN8@GetSegment
$LN10@GetSegment:

; 1067 :             dir->e.seginfo->segtype == SEGTYPE_BSS )
; 1068 :             as = search_assume( (struct asym *)dir, ASSUME_DS, TRUE );

	mov	r8b, 1
	mov	edx, 3
	mov	rcx, QWORD PTR dir$2[rsp]
	call	search_assume
	mov	DWORD PTR as$1[rsp], eax
	jmp	SHORT $LN9@GetSegment
$LN8@GetSegment:

; 1069 :         else
; 1070 :             as = search_assume( (struct asym *)dir, ASSUME_CS, TRUE );

	mov	r8b, 1
	mov	edx, 1
	mov	rcx, QWORD PTR dir$2[rsp]
	call	search_assume
	mov	DWORD PTR as$1[rsp], eax
$LN9@GetSegment:

; 1071 :         if ( as != ASSUME_NOTHING ) {

	cmp	DWORD PTR as$1[rsp], -2
	je	SHORT $LN11@GetSegment

; 1072 :             //GetResWName( segreg_tab[as], buffer );
; 1073 :             reg = T_ES + as; /* v2.08: T_ES is first seg reg in special.h */

	mov	eax, DWORD PTR as$1[rsp]
	add	eax, 25
	mov	WORD PTR reg$[rsp], ax

; 1074 :         } else {

	jmp	SHORT $LN12@GetSegment
$LN11@GetSegment:

; 1075 :             struct asym *seg;
; 1076 :             seg = GetGroup( opnd->sym );

	mov	rax, QWORD PTR opnd$[rsp]
	mov	rcx, QWORD PTR [rax+80]
	call	GetGroup
	mov	QWORD PTR seg$3[rsp], rax

; 1077 :             if ( seg == NULL )

	cmp	QWORD PTR seg$3[rsp], 0
	jne	SHORT $LN13@GetSegment

; 1078 :                 seg = &dir->sym;

	mov	rax, QWORD PTR dir$2[rsp]
	mov	QWORD PTR seg$3[rsp], rax
$LN13@GetSegment:

; 1079 :             if ( seg )

	cmp	QWORD PTR seg$3[rsp], 0
	je	SHORT $LN14@GetSegment

; 1080 :                 strcpy( buffer, seg->name );

	mov	rax, QWORD PTR seg$3[rsp]
	mov	rdx, QWORD PTR [rax+8]
	mov	rcx, QWORD PTR buffer$[rsp]
	call	strcpy
	jmp	SHORT $LN15@GetSegment
$LN14@GetSegment:

; 1081 :             else {
; 1082 :                 strcpy( buffer, "seg " );

	lea	rdx, OFFSET FLAT:$SG11672
	mov	rcx, QWORD PTR buffer$[rsp]
	call	strcpy

; 1083 :                 strcat( buffer, fullparam );

	mov	rdx, QWORD PTR fullparam$[rsp]
	mov	rcx, QWORD PTR buffer$[rsp]
	call	strcat
$LN15@GetSegment:
$LN12@GetSegment:

; 1084 :             }
; 1085 :         }

	jmp	SHORT $LN7@GetSegment
$LN6@GetSegment:

; 1086 :     } else if ( opnd->sym && opnd->sym->state == SYM_STACK ) {

	mov	rax, QWORD PTR opnd$[rsp]
	cmp	QWORD PTR [rax+80], 0
	je	SHORT $LN16@GetSegment
	mov	rax, QWORD PTR opnd$[rsp]
	mov	rax, QWORD PTR [rax+80]
	cmp	DWORD PTR [rax+32], 5
	jne	SHORT $LN16@GetSegment

; 1087 :         reg = T_SS;

	mov	eax, 27
	mov	WORD PTR reg$[rsp], ax

; 1088 :     } else {

	jmp	SHORT $LN17@GetSegment
$LN16@GetSegment:

; 1089 :         strcpy( buffer,"seg " );

	lea	rdx, OFFSET FLAT:$SG11675
	mov	rcx, QWORD PTR buffer$[rsp]
	call	strcpy

; 1090 :         strcat( buffer, fullparam );

	mov	rdx, QWORD PTR fullparam$[rsp]
	mov	rcx, QWORD PTR buffer$[rsp]
	call	strcat
$LN17@GetSegment:
$LN7@GetSegment:
$LN3@GetSegment:

; 1091 :     }
; 1092 :     DebugMsg1(("GetSegmentPart: reg%u, buffer=%s\n", reg, reg ? "" : buffer ));

	movsx	eax, WORD PTR reg$[rsp]
	test	eax, eax
	je	SHORT $LN27@GetSegment
	lea	rax, OFFSET FLAT:$SG11676
	mov	QWORD PTR tv181[rsp], rax
	jmp	SHORT $LN28@GetSegment
$LN27@GetSegment:
	mov	rax, QWORD PTR buffer$[rsp]
	mov	QWORD PTR tv181[rsp], rax
$LN28@GetSegment:
	movsx	eax, WORD PTR reg$[rsp]
	mov	r8, QWORD PTR tv181[rsp]
	mov	edx, eax
	lea	rcx, OFFSET FLAT:$SG11677
	call	DoDebugMsg1

; 1093 :     return( reg );

	movzx	eax, WORD PTR reg$[rsp]

; 1094 : }

	add	rsp, 120				; 00000078H
	ret	0
GetSegmentPart ENDP
_TEXT	ENDS
; Function compile flags: /Odtp
; File d:\hjwasm\hjwasm2.13.1s\hjwasm2.13.1s\invoke.c
_TEXT	SEGMENT
i$ = 48
j$ = 52
vecidx$ = 56
psize$ = 60
info$ = 64
memberCount$ = 72
membersize$ = 76
size$ = 80
destroyed$ = 84
tCount$ = 88
reg$ = 92
t$ = 96
freevecregs$ = 104
base$ = 108
reg2$ = 112
tv1171 = 116
tv1315 = 120
tv390 = 124
tv1519 = 128
tv1625 = 132
tv289 = 136
tv353 = 140
tv375 = 144
tv1406 = 148
tv1427 = 152
tv1506 = 156
tv1557 = 160
tv160 = 164
tv197 = 168
tv1820 = 172
tv1840 = 176
tv2292 = 180
tv2343 = 184
tv2381 = 188
tv422 = 192
tv1592 = 200
tv1677 = 208
proc$ = 240
index$ = 248
param$ = 256
addr$ = 264
opnd$ = 272
paramvalue$ = 280
regs_used$ = 288
ms64_param PROC

; 261  : {

	mov	BYTE PTR [rsp+32], r9b
	mov	QWORD PTR [rsp+24], r8
	mov	DWORD PTR [rsp+16], edx
	mov	QWORD PTR [rsp+8], rcx
	sub	rsp, 232				; 000000e8H

; 262  :     uint_32 size;
; 263  :     uint_32 psize;
; 264  :     char name[256];
; 265  :     char buff[256];
; 266  :     uint_64 fvalue[2];
; 267  :     int reg;
; 268  :     int reg2;
; 269  :     int i;
; 270  :     int j = 0;

	mov	DWORD PTR j$[rsp], 0

; 271  : 	int tCount = 0;

	mov	DWORD PTR tCount$[rsp], 0

; 272  : 	int freevecregs = 0;

	mov	DWORD PTR freevecregs$[rsp], 0

; 273  : 	int vecidx = -1;

	mov	DWORD PTR vecidx$[rsp], -1

; 274  :     int membersize = 0;     /* used for vectorcall array */

	mov	DWORD PTR membersize$[rsp], 0

; 275  :     int memberCount= 0;     /* used for vectorcall array */

	mov	DWORD PTR memberCount$[rsp], 0

; 276  :     int base;
; 277  :     struct proc_info *info = proc->e.procinfo; 

	mov	rax, QWORD PTR proc$[rsp]
	mov	rax, QWORD PTR [rax+96]
	mov	QWORD PTR info$[rsp], rax

; 278  :     struct dsym *t = NULL; /* used for vectorcall array member size */

	mov	QWORD PTR t$[rsp], 0

; 279  :     bool destroyed = FALSE;

	mov	BYTE PTR destroyed$[rsp], 0

; 280  :     struct asym *sym;
; 281  : 
; 282  :     DebugMsg1(("ms64_param(%s, index=%u, param.memtype=%Xh, addr=%u) enter\n", proc->sym.name, index, param->sym.mem_type, addr ));

	movzx	eax, BYTE PTR addr$[rsp]
	mov	DWORD PTR [rsp+32], eax
	mov	rax, QWORD PTR param$[rsp]
	mov	r9d, DWORD PTR [rax+36]
	mov	r8d, DWORD PTR index$[rsp]
	mov	rax, QWORD PTR proc$[rsp]
	mov	rdx, QWORD PTR [rax+8]
	lea	rcx, OFFSET FLAT:$SG11310
	call	DoDebugMsg1

; 283  :     /* v2.11: default size is 32-bit, not 64-bit */
; 284  :     if ( param->sym.is_vararg ) {

	mov	rax, QWORD PTR param$[rsp]
	movzx	eax, BYTE PTR [rax+47]
	shr	al, 5
	and	al, 1
	movzx	eax, al
	test	eax, eax
	je	$LN69@ms64_param

; 285  :         psize = 0;

	mov	DWORD PTR psize$[rsp], 0

; 286  :         
; 287  :         if ( addr || opnd->instr == T_OFFSET )

	movzx	eax, BYTE PTR addr$[rsp]
	test	eax, eax
	jne	SHORT $LN73@ms64_param
	mov	rax, QWORD PTR opnd$[rsp]
	cmp	DWORD PTR [rax+56], 241			; 000000f1H
	jne	SHORT $LN71@ms64_param
$LN73@ms64_param:

; 288  :             psize = 8;

	mov	DWORD PTR psize$[rsp], 8
	jmp	SHORT $LN72@ms64_param
$LN71@ms64_param:

; 289  :         else if ( opnd->kind == EXPR_REG && opnd->indirect == FALSE )

	mov	rax, QWORD PTR opnd$[rsp]
	cmp	DWORD PTR [rax+60], 2
	jne	SHORT $LN74@ms64_param
	mov	rax, QWORD PTR opnd$[rsp]
	mov	eax, DWORD PTR [rax+72]
	and	eax, 1
	test	eax, eax
	jne	SHORT $LN74@ms64_param

; 290  :             psize = SizeFromRegister( opnd->base_reg->tokval );

	mov	rax, QWORD PTR opnd$[rsp]
	mov	rax, QWORD PTR [rax+24]
	mov	ecx, DWORD PTR [rax+16]
	call	SizeFromRegister
	mov	DWORD PTR psize$[rsp], eax
	jmp	SHORT $LN75@ms64_param
$LN74@ms64_param:

; 291  :         else if ( opnd->mem_type != MT_EMPTY )

	mov	rax, QWORD PTR opnd$[rsp]
	cmp	DWORD PTR [rax+64], 192			; 000000c0H
	je	SHORT $LN76@ms64_param

; 292  :             psize = SizeFromMemtype( opnd->mem_type, USE64, opnd->type );

	mov	rax, QWORD PTR opnd$[rsp]
	mov	r8, QWORD PTR [rax+96]
	mov	edx, 2
	mov	rax, QWORD PTR opnd$[rsp]
	mov	ecx, DWORD PTR [rax+64]
	call	SizeFromMemtype
	mov	DWORD PTR psize$[rsp], eax
$LN76@ms64_param:
$LN75@ms64_param:
$LN72@ms64_param:

; 293  :         if ( psize < 4 )

	cmp	DWORD PTR psize$[rsp], 4
	jae	SHORT $LN77@ms64_param

; 294  :             psize = 4;

	mov	DWORD PTR psize$[rsp], 4
$LN77@ms64_param:

; 295  :     } else

	jmp	SHORT $LN70@ms64_param
$LN69@ms64_param:

; 296  :         psize = SizeFromMemtype( param->sym.mem_type, USE64, param->sym.type );

	mov	rax, QWORD PTR param$[rsp]
	mov	r8, QWORD PTR [rax+80]
	mov	edx, 2
	mov	rax, QWORD PTR param$[rsp]
	mov	ecx, DWORD PTR [rax+36]
	call	SizeFromMemtype
	mov	DWORD PTR psize$[rsp], eax
$LN70@ms64_param:

; 297  : 
; 298  : 	if (vcallpass == 1)

	cmp	DWORD PTR vcallpass, 1
	jne	SHORT $LN78@ms64_param

; 299  : 		goto vcall;

	jmp	$vcall$335
$LN78@ms64_param:

; 300  : 
; 301  :     /* check for register overwrites; v2.11: moved out the if( index >= 4 ) block */
; 302  :     if ( opnd->base_reg != NULL ) {

	mov	rax, QWORD PTR opnd$[rsp]
	cmp	QWORD PTR [rax+24], 0
	je	$LN79@ms64_param

; 303  :         reg = opnd->base_reg->tokval;

	mov	rax, QWORD PTR opnd$[rsp]
	mov	rax, QWORD PTR [rax+24]
	mov	eax, DWORD PTR [rax+16]
	mov	DWORD PTR reg$[rsp], eax

; 304  :         if ( GetValueSp( reg ) & OP_R ) {

	movsxd	rax, DWORD PTR reg$[rsp]
	imul	rax, rax, 12
	lea	rcx, OFFSET FLAT:SpecialTable
	mov	eax, DWORD PTR [rcx+rax]
	and	eax, 15
	test	eax, eax
	je	$LN80@ms64_param

; 305  :             i = GetRegNo( reg );

	movsxd	rax, DWORD PTR reg$[rsp]
	imul	rax, rax, 12
	lea	rcx, OFFSET FLAT:SpecialTable
	movzx	eax, BYTE PTR [rcx+rax+10]
	mov	DWORD PTR i$[rsp], eax

; 306  :             if ( REGPAR_WIN64 & ( 1 << i ) ) {

	mov	eax, DWORD PTR i$[rsp]
	mov	ecx, 1
	mov	DWORD PTR tv1820[rsp], ecx
	movzx	ecx, al
	mov	eax, DWORD PTR tv1820[rsp]
	shl	eax, cl
	and	eax, 774				; 00000306H
	test	eax, eax
	je	SHORT $LN81@ms64_param

; 307  :                 base = GetParmIndex( i );

	cmp	DWORD PTR i$[rsp], 8
	jl	SHORT $LN317@ms64_param
	mov	eax, DWORD PTR i$[rsp]
	sub	eax, 6
	mov	DWORD PTR tv160[rsp], eax
	jmp	SHORT $LN318@ms64_param
$LN317@ms64_param:
	mov	eax, DWORD PTR i$[rsp]
	dec	eax
	mov	DWORD PTR tv160[rsp], eax
$LN318@ms64_param:
	mov	eax, DWORD PTR tv160[rsp]
	mov	DWORD PTR base$[rsp], eax

; 308  :                 if ( *regs_used & ( 1 << ( base + RPAR_START ) ) )

	mov	rax, QWORD PTR regs_used$[rsp]
	movzx	eax, BYTE PTR [rax]
	mov	ecx, DWORD PTR base$[rsp]
	add	ecx, 3
	mov	edx, 1
	shl	edx, cl
	mov	ecx, edx
	and	eax, ecx
	test	eax, eax
	je	SHORT $LN83@ms64_param

; 309  :                     destroyed = TRUE;

	mov	BYTE PTR destroyed$[rsp], 1
$LN83@ms64_param:

; 310  :             } else if ( (*regs_used & R0_USED ) && ( ( GetValueSp( reg ) & OP_A ) || reg == T_AH ) ) {

	jmp	SHORT $LN82@ms64_param
$LN81@ms64_param:
	mov	rax, QWORD PTR regs_used$[rsp]
	movzx	eax, BYTE PTR [rax]
	and	eax, 1
	test	eax, eax
	je	SHORT $LN84@ms64_param
	movsxd	rax, DWORD PTR reg$[rsp]
	imul	rax, rax, 12
	lea	rcx, OFFSET FLAT:SpecialTable
	mov	eax, DWORD PTR [rcx+rax]
	and	eax, 512				; 00000200H
	test	eax, eax
	jne	SHORT $LN85@ms64_param
	cmp	DWORD PTR reg$[rsp], 5
	jne	SHORT $LN84@ms64_param
$LN85@ms64_param:

; 311  :                 destroyed = TRUE;

	mov	BYTE PTR destroyed$[rsp], 1
$LN84@ms64_param:
$LN82@ms64_param:
$LN80@ms64_param:
$LN79@ms64_param:

; 312  :             }
; 313  :         }
; 314  :     }
; 315  :     if ( opnd->idx_reg != NULL ) {

	mov	rax, QWORD PTR opnd$[rsp]
	cmp	QWORD PTR [rax+32], 0
	je	$LN86@ms64_param

; 316  :         reg2 = opnd->idx_reg->tokval;

	mov	rax, QWORD PTR opnd$[rsp]
	mov	rax, QWORD PTR [rax+32]
	mov	eax, DWORD PTR [rax+16]
	mov	DWORD PTR reg2$[rsp], eax

; 317  :         if ( GetValueSp( reg2 ) & OP_R ) {

	movsxd	rax, DWORD PTR reg2$[rsp]
	imul	rax, rax, 12
	lea	rcx, OFFSET FLAT:SpecialTable
	mov	eax, DWORD PTR [rcx+rax]
	and	eax, 15
	test	eax, eax
	je	$LN87@ms64_param

; 318  :             i = GetRegNo( reg2 );

	movsxd	rax, DWORD PTR reg2$[rsp]
	imul	rax, rax, 12
	lea	rcx, OFFSET FLAT:SpecialTable
	movzx	eax, BYTE PTR [rcx+rax+10]
	mov	DWORD PTR i$[rsp], eax

; 319  :             if ( REGPAR_WIN64 & ( 1 << i ) ) {

	mov	eax, DWORD PTR i$[rsp]
	mov	ecx, 1
	mov	DWORD PTR tv1840[rsp], ecx
	movzx	ecx, al
	mov	eax, DWORD PTR tv1840[rsp]
	shl	eax, cl
	and	eax, 774				; 00000306H
	test	eax, eax
	je	SHORT $LN88@ms64_param

; 320  :                 base = GetParmIndex( i );

	cmp	DWORD PTR i$[rsp], 8
	jl	SHORT $LN319@ms64_param
	mov	eax, DWORD PTR i$[rsp]
	sub	eax, 6
	mov	DWORD PTR tv197[rsp], eax
	jmp	SHORT $LN320@ms64_param
$LN319@ms64_param:
	mov	eax, DWORD PTR i$[rsp]
	dec	eax
	mov	DWORD PTR tv197[rsp], eax
$LN320@ms64_param:
	mov	eax, DWORD PTR tv197[rsp]
	mov	DWORD PTR base$[rsp], eax

; 321  :                 if ( *regs_used & ( 1 << ( base + RPAR_START ) ) )

	mov	rax, QWORD PTR regs_used$[rsp]
	movzx	eax, BYTE PTR [rax]
	mov	ecx, DWORD PTR base$[rsp]
	add	ecx, 3
	mov	edx, 1
	shl	edx, cl
	mov	ecx, edx
	and	eax, ecx
	test	eax, eax
	je	SHORT $LN90@ms64_param

; 322  :                     destroyed = TRUE;

	mov	BYTE PTR destroyed$[rsp], 1
$LN90@ms64_param:

; 323  :             } else if ( (*regs_used & R0_USED ) && ( ( GetValueSp( reg2 ) & OP_A ) || reg2 == T_AH ) ) {

	jmp	SHORT $LN89@ms64_param
$LN88@ms64_param:
	mov	rax, QWORD PTR regs_used$[rsp]
	movzx	eax, BYTE PTR [rax]
	and	eax, 1
	test	eax, eax
	je	SHORT $LN91@ms64_param
	movsxd	rax, DWORD PTR reg2$[rsp]
	imul	rax, rax, 12
	lea	rcx, OFFSET FLAT:SpecialTable
	mov	eax, DWORD PTR [rcx+rax]
	and	eax, 512				; 00000200H
	test	eax, eax
	jne	SHORT $LN92@ms64_param
	cmp	DWORD PTR reg2$[rsp], 5
	jne	SHORT $LN91@ms64_param
$LN92@ms64_param:

; 324  :                 destroyed = TRUE;

	mov	BYTE PTR destroyed$[rsp], 1
$LN91@ms64_param:
$LN89@ms64_param:
$LN87@ms64_param:
$LN86@ms64_param:

; 325  :             }
; 326  :         }
; 327  :     }
; 328  :     if ( destroyed ) {

	movzx	eax, BYTE PTR destroyed$[rsp]
	test	eax, eax
	je	SHORT $LN93@ms64_param

; 329  :         EmitErr( REGISTER_VALUE_OVERWRITTEN_BY_INVOKE );

	mov	ecx, 165				; 000000a5H
	call	EmitErr

; 330  :         *regs_used = 0;

	mov	rax, QWORD PTR regs_used$[rsp]
	mov	BYTE PTR [rax], 0
$LN93@ms64_param:

; 331  :     }
; 332  :     if (((proc->sym.langtype == LANG_VECTORCALL)&&( index >= 6 ))||

	mov	rax, QWORD PTR proc$[rsp]
	cmp	DWORD PTR [rax+76], 8
	jne	SHORT $LN97@ms64_param
	cmp	DWORD PTR index$[rsp], 6
	jge	SHORT $LN96@ms64_param
$LN97@ms64_param:
	mov	rax, QWORD PTR proc$[rsp]
	cmp	DWORD PTR [rax+76], 7
	jne	$LN94@ms64_param
	cmp	DWORD PTR index$[rsp], 4
	jl	$LN94@ms64_param
$LN96@ms64_param:

; 333  :     ((proc->sym.langtype == LANG_FASTCALL)&&( index >= 4 ))) {
; 334  :         if ( addr  ) { //|| psize > 8

	movzx	eax, BYTE PTR addr$[rsp]
	test	eax, eax
	je	$LN98@ms64_param

; 335  :             if ( psize == 4 )

	cmp	DWORD PTR psize$[rsp], 4
	jne	SHORT $LN99@ms64_param

; 336  :                 i = T_EAX;

	mov	DWORD PTR i$[rsp], 17
	jmp	SHORT $LN100@ms64_param
$LN99@ms64_param:

; 337  :             else {
; 338  :                 i = T_RAX;

	mov	DWORD PTR i$[rsp], 115			; 00000073H

; 339  :                 if ( psize < 8 )

	cmp	DWORD PTR psize$[rsp], 8
	jae	SHORT $LN101@ms64_param

; 340  :                     EmitErr( INVOKE_ARGUMENT_TYPE_MISMATCH, index+1 );

	mov	eax, DWORD PTR index$[rsp]
	inc	eax
	mov	edx, eax
	mov	ecx, 145				; 00000091H
	call	EmitErr
$LN101@ms64_param:
$LN100@ms64_param:

; 341  :             }
; 342  :             *regs_used |= R0_USED;

	mov	rax, QWORD PTR regs_used$[rsp]
	movzx	eax, BYTE PTR [rax]
	or	eax, 1
	mov	rcx, QWORD PTR regs_used$[rsp]
	mov	BYTE PTR [rcx], al

; 343  :             AddLineQueueX( " lea %r, %s", i, paramvalue );

	mov	r8, QWORD PTR paramvalue$[rsp]
	mov	edx, DWORD PTR i$[rsp]
	lea	rcx, OFFSET FLAT:$SG11344
	call	AddLineQueueX

; 344  :             AddLineQueueX( " mov [%r+%u], %r", T_RSP, NUMQUAL index*8, i );

	mov	eax, DWORD PTR index$[rsp]
	shl	eax, 3
	mov	r9d, DWORD PTR i$[rsp]
	mov	r8d, eax
	mov	edx, 119				; 00000077H
	lea	rcx, OFFSET FLAT:$SG11345
	call	AddLineQueueX

; 345  :             DebugMsg(("ms64_param(%s, param=%u): ADDR flags=%X\n", proc->sym.name, index, *regs_used ));

	mov	rax, QWORD PTR regs_used$[rsp]
	movzx	eax, BYTE PTR [rax]
	mov	r9d, eax
	mov	r8d, DWORD PTR index$[rsp]
	mov	rax, QWORD PTR proc$[rsp]
	mov	rdx, QWORD PTR [rax+8]
	lea	rcx, OFFSET FLAT:$SG11346
	call	DoDebugMsg

; 346  :             return( 1 );

	mov	eax, 1
	jmp	$LN1@ms64_param
$LN98@ms64_param:

; 347  :         }
; 348  :         if ( opnd->kind == EXPR_CONST ||

	mov	rax, QWORD PTR opnd$[rsp]
	cmp	DWORD PTR [rax+60], 0
	je	SHORT $LN104@ms64_param
	mov	rax, QWORD PTR opnd$[rsp]
	cmp	DWORD PTR [rax+60], 1
	jne	$LN102@ms64_param
	mov	rax, QWORD PTR opnd$[rsp]
	mov	eax, DWORD PTR [rax+72]
	and	eax, 1
	test	eax, eax
	jne	$LN102@ms64_param
	mov	rax, QWORD PTR opnd$[rsp]
	cmp	DWORD PTR [rax+64], 192			; 000000c0H
	jne	$LN102@ms64_param
	mov	rax, QWORD PTR opnd$[rsp]
	cmp	DWORD PTR [rax+56], 241			; 000000f1H
	je	$LN102@ms64_param
$LN104@ms64_param:

; 349  :            ( opnd->kind == EXPR_ADDR && opnd->indirect == FALSE && opnd->mem_type == MT_EMPTY && opnd->instr != T_OFFSET ) ) {
; 350  :             /* v2.06: support 64-bit constants for params > 4 */
; 351  :             if ( psize == 8 &&

	cmp	DWORD PTR psize$[rsp], 8
	jne	$LN105@ms64_param
	mov	rax, QWORD PTR opnd$[rsp]
	cmp	QWORD PTR [rax], 2147483647		; 7fffffffH
	jg	SHORT $LN107@ms64_param
	mov	rax, QWORD PTR opnd$[rsp]
	cmp	QWORD PTR [rax], -2147483648		; ffffffff80000000H
	jge	$LN105@ms64_param
$LN107@ms64_param:

; 352  :                 ( opnd->value64 > LONG_MAX || opnd->value64 < LONG_MIN ) ) {
; 353  :                 AddLineQueueX( " mov %r ptr [%r+%u], %r ( %s )", T_DWORD, T_RSP, NUMQUAL index*8, T_LOW32, paramvalue );

	mov	eax, DWORD PTR index$[rsp]
	shl	eax, 3
	mov	rcx, QWORD PTR paramvalue$[rsp]
	mov	QWORD PTR [rsp+40], rcx
	mov	DWORD PTR [rsp+32], 237			; 000000edH
	mov	r9d, eax
	mov	r8d, 119				; 00000077H
	mov	edx, 209				; 000000d1H
	lea	rcx, OFFSET FLAT:$SG11353
	call	AddLineQueueX

; 354  :                 AddLineQueueX( " mov %r ptr [%r+%u], %r ( %s )", T_DWORD, T_RSP, NUMQUAL index*8+4, T_HIGH32, paramvalue );

	mov	eax, DWORD PTR index$[rsp]
	lea	eax, DWORD PTR [rax*8+4]
	mov	rcx, QWORD PTR paramvalue$[rsp]
	mov	QWORD PTR [rsp+40], rcx
	mov	DWORD PTR [rsp+32], 231			; 000000e7H
	mov	r9d, eax
	mov	r8d, 119				; 00000077H
	mov	edx, 209				; 000000d1H
	lea	rcx, OFFSET FLAT:$SG11354
	call	AddLineQueueX

; 355  : 				return(1);

	mov	eax, 1
	jmp	$LN1@ms64_param

; 356  :             } else {

	jmp	$LN106@ms64_param
$LN105@ms64_param:

; 357  :                 /* v2.11: no expansion if target type is a pointer and argument is an address part */
; 358  :                 if ( param->sym.mem_type == MT_PTR && opnd->kind == EXPR_ADDR && opnd->sym->state != SYM_UNDEFINED ) {

	mov	rax, QWORD PTR param$[rsp]
	cmp	DWORD PTR [rax+36], 195			; 000000c3H
	jne	SHORT $LN108@ms64_param
	mov	rax, QWORD PTR opnd$[rsp]
	cmp	DWORD PTR [rax+60], 1
	jne	SHORT $LN108@ms64_param
	mov	rax, QWORD PTR opnd$[rsp]
	mov	rax, QWORD PTR [rax+80]
	cmp	DWORD PTR [rax+32], 0
	je	SHORT $LN108@ms64_param

; 359  :                     DebugMsg(("ms64_param(%s, param=%u): MT_PTR, type error, psize=%u\n", proc->sym.name, index, psize ));

	mov	r9d, DWORD PTR psize$[rsp]
	mov	r8d, DWORD PTR index$[rsp]
	mov	rax, QWORD PTR proc$[rsp]
	mov	rdx, QWORD PTR [rax+8]
	lea	rcx, OFFSET FLAT:$SG11356
	call	DoDebugMsg

; 360  :                     EmitErr( INVOKE_ARGUMENT_TYPE_MISMATCH, index+1 );

	mov	eax, DWORD PTR index$[rsp]
	inc	eax
	mov	edx, eax
	mov	ecx, 145				; 00000091H
	call	EmitErr
$LN108@ms64_param:

; 361  :                 }
; 362  :                 switch ( psize ) {

	mov	eax, DWORD PTR psize$[rsp]
	mov	DWORD PTR tv289[rsp], eax
	cmp	DWORD PTR tv289[rsp], 1
	je	SHORT $LN109@ms64_param
	cmp	DWORD PTR tv289[rsp], 2
	je	SHORT $LN110@ms64_param
	cmp	DWORD PTR tv289[rsp], 4
	je	SHORT $LN111@ms64_param
	jmp	SHORT $LN112@ms64_param
$LN109@ms64_param:

; 363  :                 case 1:   i = T_BYTE; break;

	mov	DWORD PTR i$[rsp], 205			; 000000cdH
	jmp	SHORT $LN2@ms64_param
$LN110@ms64_param:

; 364  :                 case 2:   i = T_WORD; break;

	mov	DWORD PTR i$[rsp], 207			; 000000cfH
	jmp	SHORT $LN2@ms64_param
$LN111@ms64_param:

; 365  :                 case 4:   i = T_DWORD; break;

	mov	DWORD PTR i$[rsp], 209			; 000000d1H
	jmp	SHORT $LN2@ms64_param
$LN112@ms64_param:

; 366  :                 default:  i = T_QWORD; break;

	mov	DWORD PTR i$[rsp], 213			; 000000d5H
$LN2@ms64_param:

; 367  :                 }
; 368  :                 AddLineQueueX( " mov %r ptr [%r+%u], %s", i, T_RSP, NUMQUAL index*8, paramvalue );

	mov	eax, DWORD PTR index$[rsp]
	shl	eax, 3
	mov	rcx, QWORD PTR paramvalue$[rsp]
	mov	QWORD PTR [rsp+32], rcx
	mov	r9d, eax
	mov	r8d, 119				; 00000077H
	mov	edx, DWORD PTR i$[rsp]
	lea	rcx, OFFSET FLAT:$SG11361
	call	AddLineQueueX

; 369  : 				return(1);

	mov	eax, 1
	jmp	$LN1@ms64_param
$LN106@ms64_param:

; 370  :             }
; 371  :             DebugMsg(("ms64_param(%s, param=%u): MT_EMPTY size.p=%u flags=%X\n", proc->sym.name, index, psize, *regs_used ));

	mov	rax, QWORD PTR regs_used$[rsp]
	movzx	eax, BYTE PTR [rax]
	mov	DWORD PTR [rsp+32], eax
	mov	r9d, DWORD PTR psize$[rsp]
	mov	r8d, DWORD PTR index$[rsp]
	mov	rax, QWORD PTR proc$[rsp]
	mov	rdx, QWORD PTR [rax+8]
	lea	rcx, OFFSET FLAT:$SG11362
	call	DoDebugMsg
	jmp	$LN103@ms64_param
$LN102@ms64_param:

; 372  : 
; 373  :         } else if ( opnd->kind == EXPR_FLOAT  ) {

	mov	rax, QWORD PTR opnd$[rsp]
	cmp	DWORD PTR [rax+60], 3
	jne	$LN113@ms64_param

; 374  :             if ( param->sym.mem_type == MT_REAL8 ) {

	mov	rax, QWORD PTR param$[rsp]
	cmp	DWORD PTR [rax+36], 39			; 00000027H
	jne	SHORT $LN115@ms64_param

; 375  :                 AddLineQueueX( " mov %r ptr [%r+%u+0], %r (%s)", T_DWORD, T_RSP, NUMQUAL index*8, T_LOW32, paramvalue );

	mov	eax, DWORD PTR index$[rsp]
	shl	eax, 3
	mov	rcx, QWORD PTR paramvalue$[rsp]
	mov	QWORD PTR [rsp+40], rcx
	mov	DWORD PTR [rsp+32], 237			; 000000edH
	mov	r9d, eax
	mov	r8d, 119				; 00000077H
	mov	edx, 209				; 000000d1H
	lea	rcx, OFFSET FLAT:$SG11367
	call	AddLineQueueX

; 376  :                 AddLineQueueX( " mov %r ptr [%r+%u+4], %r (%s)", T_DWORD, T_RSP, NUMQUAL index*8, T_HIGH32, paramvalue );

	mov	eax, DWORD PTR index$[rsp]
	shl	eax, 3
	mov	rcx, QWORD PTR paramvalue$[rsp]
	mov	QWORD PTR [rsp+40], rcx
	mov	DWORD PTR [rsp+32], 231			; 000000e7H
	mov	r9d, eax
	mov	r8d, 119				; 00000077H
	mov	edx, 209				; 000000d1H
	lea	rcx, OFFSET FLAT:$SG11368
	call	AddLineQueueX

; 377  : 				return(1);

	mov	eax, 1
	jmp	$LN1@ms64_param

; 378  : 			}

	jmp	SHORT $LN116@ms64_param
$LN115@ms64_param:

; 379  : 			else {
; 380  : 				AddLineQueueX(" mov %r ptr [%r+%u], %s", T_DWORD, T_RSP, NUMQUAL index * 8, paramvalue);

	mov	eax, DWORD PTR index$[rsp]
	shl	eax, 3
	mov	rcx, QWORD PTR paramvalue$[rsp]
	mov	QWORD PTR [rsp+32], rcx
	mov	r9d, eax
	mov	r8d, 119				; 00000077H
	mov	edx, 209				; 000000d1H
	lea	rcx, OFFSET FLAT:$SG11369
	call	AddLineQueueX

; 381  : 				return(1);

	mov	eax, 1
	jmp	$LN1@ms64_param
$LN116@ms64_param:

; 382  : 			}
; 383  : 
; 384  :         } else { /* it's a register or variable */

	jmp	$LN114@ms64_param
$LN113@ms64_param:

; 385  : 
; 386  :             if ( opnd->kind == EXPR_REG && opnd->indirect == FALSE ) {

	mov	rax, QWORD PTR opnd$[rsp]
	cmp	DWORD PTR [rax+60], 2
	jne	$LN117@ms64_param
	mov	rax, QWORD PTR opnd$[rsp]
	mov	eax, DWORD PTR [rax+72]
	and	eax, 1
	test	eax, eax
	jne	$LN117@ms64_param

; 387  :                 size = SizeFromRegister( reg );

	mov	ecx, DWORD PTR reg$[rsp]
	call	SizeFromRegister
	mov	DWORD PTR size$[rsp], eax

; 388  :                 if ( size == psize )

	mov	eax, DWORD PTR psize$[rsp]
	cmp	DWORD PTR size$[rsp], eax
	jne	SHORT $LN119@ms64_param

; 389  :                     i = reg;

	mov	eax, DWORD PTR reg$[rsp]
	mov	DWORD PTR i$[rsp], eax
	jmp	$LN120@ms64_param
$LN119@ms64_param:

; 390  :                 else {
; 391  :                     if ( size > psize || ( size < psize && param->sym.mem_type == MT_PTR ) ) {

	mov	eax, DWORD PTR psize$[rsp]
	cmp	DWORD PTR size$[rsp], eax
	ja	SHORT $LN122@ms64_param
	mov	eax, DWORD PTR psize$[rsp]
	cmp	DWORD PTR size$[rsp], eax
	jae	SHORT $LN121@ms64_param
	mov	rax, QWORD PTR param$[rsp]
	cmp	DWORD PTR [rax+36], 195			; 000000c3H
	jne	SHORT $LN121@ms64_param
$LN122@ms64_param:

; 392  :                         DebugMsg(("ms64_param(%s, param=%u): type error size.p/a=%u/%u flags=%X\n", proc->sym.name, index, psize, size, *regs_used ));

	mov	rax, QWORD PTR regs_used$[rsp]
	movzx	eax, BYTE PTR [rax]
	mov	DWORD PTR [rsp+40], eax
	mov	eax, DWORD PTR size$[rsp]
	mov	DWORD PTR [rsp+32], eax
	mov	r9d, DWORD PTR psize$[rsp]
	mov	r8d, DWORD PTR index$[rsp]
	mov	rax, QWORD PTR proc$[rsp]
	mov	rdx, QWORD PTR [rax+8]
	lea	rcx, OFFSET FLAT:$SG11376
	call	DoDebugMsg

; 393  :                         EmitErr( INVOKE_ARGUMENT_TYPE_MISMATCH, index+1 );

	mov	eax, DWORD PTR index$[rsp]
	inc	eax
	mov	edx, eax
	mov	ecx, 145				; 00000091H
	call	EmitErr

; 394  :                         psize = size;

	mov	eax, DWORD PTR size$[rsp]
	mov	DWORD PTR psize$[rsp], eax
$LN121@ms64_param:

; 395  :                     }
; 396  :                     switch ( psize ) {

	mov	eax, DWORD PTR psize$[rsp]
	mov	DWORD PTR tv353[rsp], eax
	cmp	DWORD PTR tv353[rsp], 1
	je	SHORT $LN123@ms64_param
	cmp	DWORD PTR tv353[rsp], 2
	je	SHORT $LN124@ms64_param
	cmp	DWORD PTR tv353[rsp], 4
	je	SHORT $LN125@ms64_param
	jmp	SHORT $LN126@ms64_param
$LN123@ms64_param:

; 397  :                     case 1:  i = T_AL;  break;

	mov	DWORD PTR i$[rsp], 1
	jmp	SHORT $LN4@ms64_param
$LN124@ms64_param:

; 398  :                     case 2:  i = T_AX;  break;

	mov	DWORD PTR i$[rsp], 9
	jmp	SHORT $LN4@ms64_param
$LN125@ms64_param:

; 399  :                     case 4:  i = T_EAX; break;

	mov	DWORD PTR i$[rsp], 17
	jmp	SHORT $LN4@ms64_param
$LN126@ms64_param:

; 400  :                     default: i = T_RAX; break;

	mov	DWORD PTR i$[rsp], 115			; 00000073H
$LN4@ms64_param:

; 401  :                     }
; 402  :                     *regs_used |= R0_USED;

	mov	rax, QWORD PTR regs_used$[rsp]
	movzx	eax, BYTE PTR [rax]
	or	eax, 1
	mov	rcx, QWORD PTR regs_used$[rsp]
	mov	BYTE PTR [rcx], al
$LN120@ms64_param:

; 403  :                 }
; 404  :                 DebugMsg(("ms64_param(%s, param=%u): REG size.p/a=%u/%u flags=%X\n", proc->sym.name, index, psize, size, *regs_used ));

	mov	rax, QWORD PTR regs_used$[rsp]
	movzx	eax, BYTE PTR [rax]
	mov	DWORD PTR [rsp+40], eax
	mov	eax, DWORD PTR size$[rsp]
	mov	DWORD PTR [rsp+32], eax
	mov	r9d, DWORD PTR psize$[rsp]
	mov	r8d, DWORD PTR index$[rsp]
	mov	rax, QWORD PTR proc$[rsp]
	mov	rdx, QWORD PTR [rax+8]
	lea	rcx, OFFSET FLAT:$SG11381
	call	DoDebugMsg

; 405  :             } else {

	jmp	$LN118@ms64_param
$LN117@ms64_param:

; 406  :                 if ( opnd->mem_type == MT_EMPTY )

	mov	rax, QWORD PTR opnd$[rsp]
	cmp	DWORD PTR [rax+64], 192			; 000000c0H
	jne	SHORT $LN127@ms64_param

; 407  :                     size = ( opnd->instr == T_OFFSET ? 8 : 4 );

	mov	rax, QWORD PTR opnd$[rsp]
	cmp	DWORD PTR [rax+56], 241			; 000000f1H
	jne	SHORT $LN321@ms64_param
	mov	DWORD PTR tv375[rsp], 8
	jmp	SHORT $LN322@ms64_param
$LN321@ms64_param:
	mov	DWORD PTR tv375[rsp], 4
$LN322@ms64_param:
	mov	eax, DWORD PTR tv375[rsp]
	mov	DWORD PTR size$[rsp], eax
	jmp	SHORT $LN128@ms64_param
$LN127@ms64_param:

; 408  :                 else
; 409  :                     size = SizeFromMemtype( opnd->mem_type, USE64, opnd->type );

	mov	rax, QWORD PTR opnd$[rsp]
	mov	r8, QWORD PTR [rax+96]
	mov	edx, 2
	mov	rax, QWORD PTR opnd$[rsp]
	mov	ecx, DWORD PTR [rax+64]
	call	SizeFromMemtype
	mov	DWORD PTR size$[rsp], eax
$LN128@ms64_param:

; 410  :                 DebugMsg(("ms64_param(%s, param=%u): MEM size.p/a=%u/%u flags=%X\n", proc->sym.name, index, psize, size, *regs_used ));

	mov	rax, QWORD PTR regs_used$[rsp]
	movzx	eax, BYTE PTR [rax]
	mov	DWORD PTR [rsp+40], eax
	mov	eax, DWORD PTR size$[rsp]
	mov	DWORD PTR [rsp+32], eax
	mov	r9d, DWORD PTR psize$[rsp]
	mov	r8d, DWORD PTR index$[rsp]
	mov	rax, QWORD PTR proc$[rsp]
	mov	rdx, QWORD PTR [rax+8]
	lea	rcx, OFFSET FLAT:$SG11384
	call	DoDebugMsg

; 411  :                 switch ( psize ) {

	mov	eax, DWORD PTR psize$[rsp]
	mov	DWORD PTR tv390[rsp], eax
	cmp	DWORD PTR tv390[rsp], 1
	je	SHORT $LN129@ms64_param
	cmp	DWORD PTR tv390[rsp], 2
	je	SHORT $LN130@ms64_param
	cmp	DWORD PTR tv390[rsp], 4
	je	SHORT $LN131@ms64_param
	jmp	SHORT $LN132@ms64_param
$LN129@ms64_param:

; 412  :                 case 1:  i = T_AL;  break;

	mov	DWORD PTR i$[rsp], 1
	jmp	SHORT $LN6@ms64_param
$LN130@ms64_param:

; 413  :                 case 2:  i = T_AX;  break;

	mov	DWORD PTR i$[rsp], 9
	jmp	SHORT $LN6@ms64_param
$LN131@ms64_param:

; 414  :                 case 4:  i = T_EAX; break;

	mov	DWORD PTR i$[rsp], 17
	jmp	SHORT $LN6@ms64_param
$LN132@ms64_param:

; 415  :                 default: i = T_RAX; break;

	mov	DWORD PTR i$[rsp], 115			; 00000073H
$LN6@ms64_param:

; 416  :                 }
; 417  : 				if(proc->sym.langtype == LANG_VECTORCALL) return(1);

	mov	rax, QWORD PTR proc$[rsp]
	cmp	DWORD PTR [rax+76], 8
	jne	SHORT $LN133@ms64_param
	mov	eax, 1
	jmp	$LN1@ms64_param
$LN133@ms64_param:

; 418  :                 *regs_used |= R0_USED;

	mov	rax, QWORD PTR regs_used$[rsp]
	movzx	eax, BYTE PTR [rax]
	or	eax, 1
	mov	rcx, QWORD PTR regs_used$[rsp]
	mov	BYTE PTR [rcx], al
$LN118@ms64_param:

; 419  :             }
; 420  : 
; 421  :             /* v2.11: no expansion if target type is a pointer */
; 422  :             if ( size > psize || ( size < psize && param->sym.mem_type == MT_PTR ) ) {

	mov	eax, DWORD PTR psize$[rsp]
	cmp	DWORD PTR size$[rsp], eax
	ja	SHORT $LN135@ms64_param
	mov	eax, DWORD PTR psize$[rsp]
	cmp	DWORD PTR size$[rsp], eax
	jae	SHORT $LN134@ms64_param
	mov	rax, QWORD PTR param$[rsp]
	cmp	DWORD PTR [rax+36], 195			; 000000c3H
	jne	SHORT $LN134@ms64_param
$LN135@ms64_param:

; 423  :                 EmitErr( INVOKE_ARGUMENT_TYPE_MISMATCH, index+1 );

	mov	eax, DWORD PTR index$[rsp]
	inc	eax
	mov	edx, eax
	mov	ecx, 145				; 00000091H
	call	EmitErr
$LN134@ms64_param:

; 424  :             }
; 425  :             if ( size != psize ) {

	mov	eax, DWORD PTR psize$[rsp]
	cmp	DWORD PTR size$[rsp], eax
	je	$LN136@ms64_param

; 426  :                 if ( size == 4 ) {

	cmp	DWORD PTR size$[rsp], 4
	jne	SHORT $LN138@ms64_param

; 427  :                     if ( IS_SIGNED( opnd->mem_type ) )

	mov	rax, QWORD PTR opnd$[rsp]
	mov	eax, DWORD PTR [rax+64]
	and	eax, 192				; 000000c0H
	cmp	eax, 64					; 00000040H
	jne	SHORT $LN140@ms64_param

; 428  :                         AddLineQueueX( " movsxd %r, %s", i, paramvalue );

	mov	r8, QWORD PTR paramvalue$[rsp]
	mov	edx, DWORD PTR i$[rsp]
	lea	rcx, OFFSET FLAT:$SG11398
	call	AddLineQueueX
	jmp	SHORT $LN141@ms64_param
$LN140@ms64_param:

; 429  :                     else
; 430  :                         AddLineQueueX( " mov %r, %s", i, paramvalue );

	mov	r8, QWORD PTR paramvalue$[rsp]
	mov	edx, DWORD PTR i$[rsp]
	lea	rcx, OFFSET FLAT:$SG11399
	call	AddLineQueueX
$LN141@ms64_param:

; 431  :                 } else

	jmp	SHORT $LN139@ms64_param
$LN138@ms64_param:

; 432  :                     AddLineQueueX( " mov%sx %r, %s", IS_SIGNED( opnd->mem_type ) ? "s" : "z", i, paramvalue );

	mov	rax, QWORD PTR opnd$[rsp]
	mov	eax, DWORD PTR [rax+64]
	and	eax, 192				; 000000c0H
	cmp	eax, 64					; 00000040H
	jne	SHORT $LN323@ms64_param
	lea	rax, OFFSET FLAT:$SG11400
	mov	QWORD PTR tv422[rsp], rax
	jmp	SHORT $LN324@ms64_param
$LN323@ms64_param:
	lea	rax, OFFSET FLAT:$SG11401
	mov	QWORD PTR tv422[rsp], rax
$LN324@ms64_param:
	mov	r9, QWORD PTR paramvalue$[rsp]
	mov	r8d, DWORD PTR i$[rsp]
	mov	rdx, QWORD PTR tv422[rsp]
	lea	rcx, OFFSET FLAT:$SG11402
	call	AddLineQueueX
$LN139@ms64_param:

; 433  :             } else if ( opnd->kind != EXPR_REG || opnd->indirect == TRUE )

	jmp	SHORT $LN137@ms64_param
$LN136@ms64_param:
	mov	rax, QWORD PTR opnd$[rsp]
	cmp	DWORD PTR [rax+60], 2
	jne	SHORT $LN143@ms64_param
	mov	rax, QWORD PTR opnd$[rsp]
	mov	eax, DWORD PTR [rax+72]
	and	eax, 1
	cmp	eax, 1
	jne	SHORT $LN142@ms64_param
$LN143@ms64_param:

; 434  :                 AddLineQueueX( " mov %r, %s", i, paramvalue );

	mov	r8, QWORD PTR paramvalue$[rsp]
	mov	edx, DWORD PTR i$[rsp]
	lea	rcx, OFFSET FLAT:$SG11405
	call	AddLineQueueX
$LN142@ms64_param:
$LN137@ms64_param:

; 435  : 
; 436  :             AddLineQueueX( " mov [%r+%u], %r", T_RSP, NUMQUAL index*8, i );

	mov	eax, DWORD PTR index$[rsp]
	shl	eax, 3
	mov	r9d, DWORD PTR i$[rsp]
	mov	r8d, eax
	mov	edx, 119				; 00000077H
	lea	rcx, OFFSET FLAT:$SG11406
	call	AddLineQueueX

; 437  : 			return(1);

	mov	eax, 1
	jmp	$LN1@ms64_param
$LN114@ms64_param:
$LN103@ms64_param:

; 438  :         }

	jmp	$LN95@ms64_param
$LN94@ms64_param:

; 439  : 
; 440  :     } else if ( param->sym.mem_type == MT_REAL4 ||

	mov	rax, QWORD PTR param$[rsp]
	cmp	DWORD PTR [rax+36], 35			; 00000023H
	je	SHORT $LN145@ms64_param
	mov	rax, QWORD PTR param$[rsp]
	cmp	DWORD PTR [rax+36], 39			; 00000027H
	jne	$LN144@ms64_param
$LN145@ms64_param:

; 441  :                param->sym.mem_type == MT_REAL8 ) {
; 442  :         /* v2.04: check if argument is the correct XMM register already */
; 443  :         if ( opnd->kind == EXPR_REG && opnd->indirect == FALSE ) {

	mov	rax, QWORD PTR opnd$[rsp]
	cmp	DWORD PTR [rax+60], 2
	jne	$LN146@ms64_param
	mov	rax, QWORD PTR opnd$[rsp]
	mov	eax, DWORD PTR [rax+72]
	and	eax, 1
	test	eax, eax
	jne	$LN146@ms64_param

; 444  :             if ( GetValueSp( reg ) & OP_XMM ) {

	movsxd	rax, DWORD PTR reg$[rsp]
	imul	rax, rax, 12
	lea	rcx, OFFSET FLAT:SpecialTable
	mov	eax, DWORD PTR [rcx+rax]
	and	eax, 32					; 00000020H
	test	eax, eax
	je	SHORT $LN147@ms64_param

; 445  :                  if (proc->sym.langtype == LANG_VECTORCALL)

	mov	rax, QWORD PTR proc$[rsp]
	cmp	DWORD PTR [rax+76], 8
	jne	SHORT $LN148@ms64_param

; 446  :                      info->vregs[index] = 1;

	movsxd	rax, DWORD PTR index$[rsp]
	mov	rcx, QWORD PTR info$[rsp]
	mov	BYTE PTR [rcx+rax+68], 1
$LN148@ms64_param:

; 447  :                 if ( reg == T_XMM0 + index )

	mov	eax, DWORD PTR index$[rsp]
	add	eax, 40					; 00000028H
	cmp	DWORD PTR reg$[rsp], eax
	jne	SHORT $LN149@ms64_param

; 448  :                     DebugMsg(("ms64_param(%s, param=%u): argument optimized\n", proc->sym.name, index ));

	mov	r8d, DWORD PTR index$[rsp]
	mov	rax, QWORD PTR proc$[rsp]
	mov	rdx, QWORD PTR [rax+8]
	lea	rcx, OFFSET FLAT:$SG11414
	call	DoDebugMsg
	jmp	SHORT $LN150@ms64_param
$LN149@ms64_param:

; 449  :                 else
; 450  :                     AddLineQueueX( " movq %r, %s", T_XMM0 + index, paramvalue );

	mov	eax, DWORD PTR index$[rsp]
	add	eax, 40					; 00000028H
	mov	r8, QWORD PTR paramvalue$[rsp]
	mov	edx, eax
	lea	rcx, OFFSET FLAT:$SG11415
	call	AddLineQueueX
$LN150@ms64_param:

; 451  :                 return( 1 );

	mov	eax, 1
	jmp	$LN1@ms64_param
$LN147@ms64_param:
$LN146@ms64_param:

; 452  :             }
; 453  :         }
; 454  :         if ( opnd->kind == EXPR_FLOAT ) {

	mov	rax, QWORD PTR opnd$[rsp]
	cmp	DWORD PTR [rax+60], 3
	jne	$LN151@ms64_param

; 455  : 			if (proc->sym.langtype == LANG_VECTORCALL)

	mov	rax, QWORD PTR proc$[rsp]
	cmp	DWORD PTR [rax+76], 8
	jne	SHORT $LN152@ms64_param

; 456  : 			{
; 457  : 				info->vregs[index] = 1;

	movsxd	rax, DWORD PTR index$[rsp]
	mov	rcx, QWORD PTR info$[rsp]
	mov	BYTE PTR [rcx+rax+68], 1

; 458  : 				info->xyzused[index] = 1; /* JPH */

	movsxd	rax, DWORD PTR index$[rsp]
	mov	rcx, QWORD PTR info$[rsp]
	mov	BYTE PTR [rcx+rax+74], 1
$LN152@ms64_param:

; 459  : 			}
; 460  :             *regs_used |= R0_USED;

	mov	rax, QWORD PTR regs_used$[rsp]
	movzx	eax, BYTE PTR [rax]
	or	eax, 1
	mov	rcx, QWORD PTR regs_used$[rsp]
	mov	BYTE PTR [rcx], al

; 461  :             if ( param->sym.mem_type == MT_REAL4 ) {

	mov	rax, QWORD PTR param$[rsp]
	cmp	DWORD PTR [rax+36], 35			; 00000023H
	jne	SHORT $LN153@ms64_param

; 462  :                 
; 463  :                 AddLineQueueX( "mov %r, %s", T_EAX, paramvalue );

	mov	r8, QWORD PTR paramvalue$[rsp]
	mov	edx, 17
	lea	rcx, OFFSET FLAT:$SG11420
	call	AddLineQueueX

; 464  :                 AddLineQueueX( "vmovd %r, %r", T_XMM0 + index, T_EAX );

	mov	eax, DWORD PTR index$[rsp]
	add	eax, 40					; 00000028H
	mov	r8d, 17
	mov	edx, eax
	lea	rcx, OFFSET FLAT:$SG11421
	call	AddLineQueueX

; 465  : 				return(1);

	mov	eax, 1
	jmp	$LN1@ms64_param

; 466  :             } else {

	jmp	SHORT $LN154@ms64_param
$LN153@ms64_param:

; 467  :                 AddLineQueueX( "mov %r, %r ptr %s", T_RAX, T_REAL8, paramvalue );

	mov	r9, QWORD PTR paramvalue$[rsp]
	mov	r8d, 215				; 000000d7H
	mov	edx, 115				; 00000073H
	lea	rcx, OFFSET FLAT:$SG11422
	call	AddLineQueueX

; 468  :                 AddLineQueueX( "vmovq %r, %r", T_XMM0 + index, T_RAX );

	mov	eax, DWORD PTR index$[rsp]
	add	eax, 40					; 00000028H
	mov	r8d, 115				; 00000073H
	mov	edx, eax
	lea	rcx, OFFSET FLAT:$SG11423
	call	AddLineQueueX

; 469  : 				return(1);

	mov	eax, 1
	jmp	$LN1@ms64_param
$LN154@ms64_param:
$LN151@ms64_param:

; 470  :             }
; 471  :         } 
; 472  :         if ( opnd->kind == EXPR_ADDR ) {

	mov	rax, QWORD PTR opnd$[rsp]
	cmp	DWORD PTR [rax+60], 1
	jne	$LN155@ms64_param

; 473  :             *regs_used |= R0_USED;

	mov	rax, QWORD PTR regs_used$[rsp]
	movzx	eax, BYTE PTR [rax]
	or	eax, 1
	mov	rcx, QWORD PTR regs_used$[rsp]
	mov	BYTE PTR [rcx], al

; 474  :             info->vregs[index] = 1;

	movsxd	rax, DWORD PTR index$[rsp]
	mov	rcx, QWORD PTR info$[rsp]
	mov	BYTE PTR [rcx+rax+68], 1

; 475  : 			if(proc->sym.langtype == LANG_VECTORCALL)

	mov	rax, QWORD PTR proc$[rsp]
	cmp	DWORD PTR [rax+76], 8
	jne	SHORT $LN156@ms64_param

; 476  : 				info->xyzused[index] = 1; /* JPH */

	movsxd	rax, DWORD PTR index$[rsp]
	mov	rcx, QWORD PTR info$[rsp]
	mov	BYTE PTR [rcx+rax+74], 1
$LN156@ms64_param:

; 477  :             if ( opnd->sym->mem_type == MT_REAL8)

	mov	rax, QWORD PTR opnd$[rsp]
	mov	rax, QWORD PTR [rax+80]
	cmp	DWORD PTR [rax+36], 39			; 00000027H
	jne	SHORT $LN157@ms64_param

; 478  :               AddLineQueueX("vmovsd %r,qword ptr %s", T_XMM0 + index, paramvalue);

	mov	eax, DWORD PTR index$[rsp]
	add	eax, 40					; 00000028H
	mov	r8, QWORD PTR paramvalue$[rsp]
	mov	edx, eax
	lea	rcx, OFFSET FLAT:$SG11428
	call	AddLineQueueX
	jmp	SHORT $LN158@ms64_param
$LN157@ms64_param:

; 479  :             else
; 480  :               AddLineQueueX("vmovss %r,dword ptr %s", T_XMM0 + index, paramvalue);

	mov	eax, DWORD PTR index$[rsp]
	add	eax, 40					; 00000028H
	mov	r8, QWORD PTR paramvalue$[rsp]
	mov	edx, eax
	lea	rcx, OFFSET FLAT:$SG11429
	call	AddLineQueueX
$LN158@ms64_param:

; 481  : 			return(1);

	mov	eax, 1
	jmp	$LN1@ms64_param
$LN155@ms64_param:
$LN144@ms64_param:
$LN95@ms64_param:

; 482  :         } 
; 483  :       } 
; 484  : 	if(vcallpass==1)

	cmp	DWORD PTR vcallpass, 1
	jne	SHORT $LN159@ms64_param

; 485  : 		goto vcalldone;

	jmp	$vcalldone$336
$LN159@ms64_param:
$vcall$335:

; 486  : 
; 487  : vcall:     
; 488  : 	  if ((proc->sym.langtype == LANG_VECTORCALL) && (psize == 8) && (param->sym.ttype != 0) && (param->sym.ttype->e.structinfo->isHFA) && (param->sym.mem_type == MT_TYPE)) {

	mov	rax, QWORD PTR proc$[rsp]
	cmp	DWORD PTR [rax+76], 8
	jne	$LN160@ms64_param
	cmp	DWORD PTR psize$[rsp], 8
	jne	$LN160@ms64_param
	mov	rax, QWORD PTR param$[rsp]
	cmp	QWORD PTR [rax+80], 0
	je	$LN160@ms64_param
	mov	rax, QWORD PTR param$[rsp]
	mov	rax, QWORD PTR [rax+80]
	mov	rax, QWORD PTR [rax+96]
	movzx	eax, BYTE PTR [rax+22]
	test	eax, eax
	je	$LN160@ms64_param
	mov	rax, QWORD PTR param$[rsp]
	cmp	DWORD PTR [rax+36], 196			; 000000c4H
	jne	$LN160@ms64_param

; 489  :           /* it can be only HFA data type made of 2 REAL4 */
; 490  :           t = param->sym.ttype;   

	mov	rax, QWORD PTR param$[rsp]
	mov	rax, QWORD PTR [rax+80]
	mov	QWORD PTR t$[rsp], rax

; 491  : 		  if (t != 0 && t->e.structinfo->isHFA && (vcallpass == 1))

	cmp	QWORD PTR t$[rsp], 0
	je	$LN162@ms64_param
	mov	rax, QWORD PTR t$[rsp]
	mov	rax, QWORD PTR [rax+96]
	movzx	eax, BYTE PTR [rax+22]
	test	eax, eax
	je	$LN162@ms64_param
	cmp	DWORD PTR vcallpass, 1
	jne	$LN162@ms64_param

; 492  : 		  {
; 493  :       
; 494  : 			  freevecregs = 0;

	mov	DWORD PTR freevecregs$[rsp], 0

; 495  : 			  vecidx = -1;

	mov	DWORD PTR vecidx$[rsp], -1

; 496  : 			  for (i = 0; i < 6; i++)

	mov	DWORD PTR i$[rsp], 0
	jmp	SHORT $LN10@ms64_param
$LN8@ms64_param:
	mov	eax, DWORD PTR i$[rsp]
	inc	eax
	mov	DWORD PTR i$[rsp], eax
$LN10@ms64_param:
	cmp	DWORD PTR i$[rsp], 6
	jge	SHORT $LN9@ms64_param

; 497  : 			  {
; 498  : 				  if (info->vregs[i] == 0)

	movsxd	rax, DWORD PTR i$[rsp]
	mov	rcx, QWORD PTR info$[rsp]
	movzx	eax, BYTE PTR [rcx+rax+68]
	test	eax, eax
	jne	SHORT $LN163@ms64_param

; 499  : 				  {
; 500  : 					  if (vecidx == -1) vecidx = i;

	cmp	DWORD PTR vecidx$[rsp], -1
	jne	SHORT $LN164@ms64_param
	mov	eax, DWORD PTR i$[rsp]
	mov	DWORD PTR vecidx$[rsp], eax
$LN164@ms64_param:

; 501  : 					  freevecregs++;

	mov	eax, DWORD PTR freevecregs$[rsp]
	inc	eax
	mov	DWORD PTR freevecregs$[rsp], eax
$LN163@ms64_param:

; 502  : 				  }
; 503  : 			  }

	jmp	SHORT $LN8@ms64_param
$LN9@ms64_param:

; 504  : 
; 505  : 			  memberCount = t->e.structinfo->memberCount;

	mov	rax, QWORD PTR t$[rsp]
	mov	rax, QWORD PTR [rax+96]
	mov	eax, DWORD PTR [rax+24]
	mov	DWORD PTR memberCount$[rsp], eax

; 506  : 			  if (memberCount > freevecregs) goto uselea;

	mov	eax, DWORD PTR freevecregs$[rsp]
	cmp	DWORD PTR memberCount$[rsp], eax
	jle	SHORT $LN165@ms64_param
	jmp	$uselea$337
$LN165@ms64_param:

; 507  : 			  membersize = psize / memberCount;     //get the size of a single element which is REAL4 in this case        

	xor	edx, edx
	mov	eax, DWORD PTR psize$[rsp]
	div	DWORD PTR memberCount$[rsp]
	mov	DWORD PTR membersize$[rsp], eax

; 508  : 			  j = 0;

	mov	DWORD PTR j$[rsp], 0

; 509  : 			  tCount = memberCount;

	mov	eax, DWORD PTR memberCount$[rsp]
	mov	DWORD PTR tCount$[rsp], eax
$LN11@ms64_param:

; 510  : 			  while (tCount > 0)

	cmp	DWORD PTR tCount$[rsp], 0
	jle	$LN12@ms64_param

; 511  : 			  {
; 512  : 				  if (info->vregs[vecidx] == 0)

	movsxd	rax, DWORD PTR vecidx$[rsp]
	mov	rcx, QWORD PTR info$[rsp]
	movzx	eax, BYTE PTR [rcx+rax+68]
	test	eax, eax
	jne	$LN166@ms64_param

; 513  : 				  {
; 514  : 					  info->vregs[vecidx] = 1;

	movsxd	rax, DWORD PTR vecidx$[rsp]
	mov	rcx, QWORD PTR info$[rsp]
	mov	BYTE PTR [rcx+rax+68], 1

; 515  : 					  info->vecregs[index] = memberCount;         //store number of members in proper location pointed by index

	movsxd	rax, DWORD PTR index$[rsp]
	mov	rcx, QWORD PTR info$[rsp]
	movzx	edx, BYTE PTR memberCount$[rsp]
	mov	BYTE PTR [rcx+rax+56], dl

; 516  : 					  info->vsize += membersize;                  //vsize contains total size 

	mov	rax, QWORD PTR info$[rsp]
	mov	eax, DWORD PTR [rax+44]
	add	eax, DWORD PTR membersize$[rsp]
	mov	rcx, QWORD PTR info$[rsp]
	mov	DWORD PTR [rcx+44], eax

; 517  : 					  info->vecregsize[vecidx] = membersize;      //size of data tu be put in register

	movsxd	rax, DWORD PTR vecidx$[rsp]
	mov	rcx, QWORD PTR info$[rsp]
	movzx	edx, BYTE PTR membersize$[rsp]
	mov	BYTE PTR [rcx+rax+62], dl

; 518  : 					  info->xyzused[vecidx] = 1;                  //mark that the placeholder for register is used

	movsxd	rax, DWORD PTR vecidx$[rsp]
	mov	rcx, QWORD PTR info$[rsp]
	mov	BYTE PTR [rcx+rax+74], 1

; 519  : 					  AddLineQueueX("vmovss %r,dword ptr [%s+%d]", T_XMM0 + vecidx, paramvalue, j* membersize);

	mov	eax, DWORD PTR j$[rsp]
	imul	eax, DWORD PTR membersize$[rsp]
	mov	ecx, DWORD PTR vecidx$[rsp]
	add	ecx, 40					; 00000028H
	mov	r9d, eax
	mov	r8, QWORD PTR paramvalue$[rsp]
	mov	edx, ecx
	lea	rcx, OFFSET FLAT:$SG11438
	call	AddLineQueueX

; 520  : 					  tCount--;

	mov	eax, DWORD PTR tCount$[rsp]
	dec	eax
	mov	DWORD PTR tCount$[rsp], eax

; 521  : 					  j++;

	mov	eax, DWORD PTR j$[rsp]
	inc	eax
	mov	DWORD PTR j$[rsp], eax
$LN166@ms64_param:

; 522  : 				  }
; 523  : 				  vecidx++;

	mov	eax, DWORD PTR vecidx$[rsp]
	inc	eax
	mov	DWORD PTR vecidx$[rsp], eax

; 524  : 			  }

	jmp	$LN11@ms64_param
$LN12@ms64_param:
$LN162@ms64_param:

; 525  : 		  }
; 526  :     }

	jmp	$LN161@ms64_param
$LN160@ms64_param:

; 527  : 	  else if ((proc->sym.langtype == LANG_VECTORCALL) && (psize == 16) && (param->sym.ttype != 0) && (param->sym.ttype->e.structinfo->isHFA) && (param->sym.mem_type == MT_TYPE)) {

	mov	rax, QWORD PTR proc$[rsp]
	cmp	DWORD PTR [rax+76], 8
	jne	$LN167@ms64_param
	cmp	DWORD PTR psize$[rsp], 16
	jne	$LN167@ms64_param
	mov	rax, QWORD PTR param$[rsp]
	cmp	QWORD PTR [rax+80], 0
	je	$LN167@ms64_param
	mov	rax, QWORD PTR param$[rsp]
	mov	rax, QWORD PTR [rax+80]
	mov	rax, QWORD PTR [rax+96]
	movzx	eax, BYTE PTR [rax+22]
	test	eax, eax
	je	$LN167@ms64_param
	mov	rax, QWORD PTR param$[rsp]
	cmp	DWORD PTR [rax+36], 196			; 000000c4H
	jne	$LN167@ms64_param

; 528  : 		  /* it can be only HFA data type made of 2 REAL8 */
; 529  : 		  t = param->sym.ttype;

	mov	rax, QWORD PTR param$[rsp]
	mov	rax, QWORD PTR [rax+80]
	mov	QWORD PTR t$[rsp], rax

; 530  : 		  if (t != 0 && t->e.structinfo->isHFA && (vcallpass == 1))

	cmp	QWORD PTR t$[rsp], 0
	je	$LN169@ms64_param
	mov	rax, QWORD PTR t$[rsp]
	mov	rax, QWORD PTR [rax+96]
	movzx	eax, BYTE PTR [rax+22]
	test	eax, eax
	je	$LN169@ms64_param
	cmp	DWORD PTR vcallpass, 1
	jne	$LN169@ms64_param

; 531  : 		  {
; 532  : 			  
; 533  : 			  freevecregs = 0;

	mov	DWORD PTR freevecregs$[rsp], 0

; 534  : 			  vecidx = -1;

	mov	DWORD PTR vecidx$[rsp], -1

; 535  : 			  for (i = 0; i < 6; i++)

	mov	DWORD PTR i$[rsp], 0
	jmp	SHORT $LN15@ms64_param
$LN13@ms64_param:
	mov	eax, DWORD PTR i$[rsp]
	inc	eax
	mov	DWORD PTR i$[rsp], eax
$LN15@ms64_param:
	cmp	DWORD PTR i$[rsp], 6
	jge	SHORT $LN14@ms64_param

; 536  : 			  {
; 537  : 				  if (info->vregs[i] == 0)

	movsxd	rax, DWORD PTR i$[rsp]
	mov	rcx, QWORD PTR info$[rsp]
	movzx	eax, BYTE PTR [rcx+rax+68]
	test	eax, eax
	jne	SHORT $LN170@ms64_param

; 538  : 				  {
; 539  : 					  if (vecidx == -1) vecidx = i;

	cmp	DWORD PTR vecidx$[rsp], -1
	jne	SHORT $LN171@ms64_param
	mov	eax, DWORD PTR i$[rsp]
	mov	DWORD PTR vecidx$[rsp], eax
$LN171@ms64_param:

; 540  : 					  freevecregs++;

	mov	eax, DWORD PTR freevecregs$[rsp]
	inc	eax
	mov	DWORD PTR freevecregs$[rsp], eax
$LN170@ms64_param:

; 541  : 				  }
; 542  : 			  }

	jmp	SHORT $LN13@ms64_param
$LN14@ms64_param:

; 543  : 
; 544  : 			  memberCount = t->e.structinfo->memberCount;

	mov	rax, QWORD PTR t$[rsp]
	mov	rax, QWORD PTR [rax+96]
	mov	eax, DWORD PTR [rax+24]
	mov	DWORD PTR memberCount$[rsp], eax

; 545  : 			  if (memberCount > freevecregs) goto uselea;

	mov	eax, DWORD PTR freevecregs$[rsp]
	cmp	DWORD PTR memberCount$[rsp], eax
	jle	SHORT $LN172@ms64_param
	jmp	$uselea$337
$LN172@ms64_param:

; 546  : 			  membersize = psize / memberCount;          //get the size of a single element which is REAL4 in this case        

	xor	edx, edx
	mov	eax, DWORD PTR psize$[rsp]
	div	DWORD PTR memberCount$[rsp]
	mov	DWORD PTR membersize$[rsp], eax

; 547  : 			  j = 0;

	mov	DWORD PTR j$[rsp], 0

; 548  : 			  tCount = memberCount;

	mov	eax, DWORD PTR memberCount$[rsp]
	mov	DWORD PTR tCount$[rsp], eax

; 549  : 			  if (membersize == 8)

	cmp	DWORD PTR membersize$[rsp], 8
	jne	$LN173@ms64_param
$LN16@ms64_param:

; 550  : 			  {
; 551  : 				  while (tCount > 0)

	cmp	DWORD PTR tCount$[rsp], 0
	jle	$LN17@ms64_param

; 552  : 				  {
; 553  : 					  if (info->vregs[vecidx] == 0)

	movsxd	rax, DWORD PTR vecidx$[rsp]
	mov	rcx, QWORD PTR info$[rsp]
	movzx	eax, BYTE PTR [rcx+rax+68]
	test	eax, eax
	jne	$LN175@ms64_param

; 554  : 					  {
; 555  : 						  info->vregs[vecidx] = 1;

	movsxd	rax, DWORD PTR vecidx$[rsp]
	mov	rcx, QWORD PTR info$[rsp]
	mov	BYTE PTR [rcx+rax+68], 1

; 556  : 						  info->vecregs[index] = memberCount;        //store number of members in proper location pointed by index

	movsxd	rax, DWORD PTR index$[rsp]
	mov	rcx, QWORD PTR info$[rsp]
	movzx	edx, BYTE PTR memberCount$[rsp]
	mov	BYTE PTR [rcx+rax+56], dl

; 557  : 						  info->vsize += membersize;                      //vsize contains total size 

	mov	rax, QWORD PTR info$[rsp]
	mov	eax, DWORD PTR [rax+44]
	add	eax, DWORD PTR membersize$[rsp]
	mov	rcx, QWORD PTR info$[rsp]
	mov	DWORD PTR [rcx+44], eax

; 558  : 						  info->vecregsize[vecidx] = membersize;      //size of data tu be put in register

	movsxd	rax, DWORD PTR vecidx$[rsp]
	mov	rcx, QWORD PTR info$[rsp]
	movzx	edx, BYTE PTR membersize$[rsp]
	mov	BYTE PTR [rcx+rax+62], dl

; 559  : 						  info->xyzused[vecidx] = 1;                  //mark that the placeholder for register is used

	movsxd	rax, DWORD PTR vecidx$[rsp]
	mov	rcx, QWORD PTR info$[rsp]
	mov	BYTE PTR [rcx+rax+74], 1

; 560  : 						  AddLineQueueX("vmovsd %r,qword ptr [%s+%d]", T_XMM0 + vecidx, paramvalue, j * membersize);

	mov	eax, DWORD PTR j$[rsp]
	imul	eax, DWORD PTR membersize$[rsp]
	mov	ecx, DWORD PTR vecidx$[rsp]
	add	ecx, 40					; 00000028H
	mov	r9d, eax
	mov	r8, QWORD PTR paramvalue$[rsp]
	mov	edx, ecx
	lea	rcx, OFFSET FLAT:$SG11448
	call	AddLineQueueX

; 561  : 						  tCount--;

	mov	eax, DWORD PTR tCount$[rsp]
	dec	eax
	mov	DWORD PTR tCount$[rsp], eax

; 562  : 						  j++;

	mov	eax, DWORD PTR j$[rsp]
	inc	eax
	mov	DWORD PTR j$[rsp], eax
$LN175@ms64_param:

; 563  : 					  }
; 564  : 					  vecidx++;

	mov	eax, DWORD PTR vecidx$[rsp]
	inc	eax
	mov	DWORD PTR vecidx$[rsp], eax

; 565  : 				  }

	jmp	$LN16@ms64_param
$LN17@ms64_param:

; 566  : 			  }

	jmp	$LN174@ms64_param
$LN173@ms64_param:

; 567  : 			  /* HFA data type made of 4 REAL4 */
; 568  : 			  else if (membersize == 4)

	cmp	DWORD PTR membersize$[rsp], 4
	jne	$LN176@ms64_param
$LN18@ms64_param:

; 569  : 			  {
; 570  : 				  while (tCount > 0)

	cmp	DWORD PTR tCount$[rsp], 0
	jle	$LN19@ms64_param

; 571  : 				  {
; 572  : 					  if (info->vregs[vecidx] == 0)

	movsxd	rax, DWORD PTR vecidx$[rsp]
	mov	rcx, QWORD PTR info$[rsp]
	movzx	eax, BYTE PTR [rcx+rax+68]
	test	eax, eax
	jne	$LN177@ms64_param

; 573  : 					  {
; 574  : 						  info->vregs[vecidx] = 1;

	movsxd	rax, DWORD PTR vecidx$[rsp]
	mov	rcx, QWORD PTR info$[rsp]
	mov	BYTE PTR [rcx+rax+68], 1

; 575  : 						  info->vecregs[index] = memberCount;         //store number of members in proper location pointed by index

	movsxd	rax, DWORD PTR index$[rsp]
	mov	rcx, QWORD PTR info$[rsp]
	movzx	edx, BYTE PTR memberCount$[rsp]
	mov	BYTE PTR [rcx+rax+56], dl

; 576  : 						  info->vsize += membersize;                  //vsize contains total size 

	mov	rax, QWORD PTR info$[rsp]
	mov	eax, DWORD PTR [rax+44]
	add	eax, DWORD PTR membersize$[rsp]
	mov	rcx, QWORD PTR info$[rsp]
	mov	DWORD PTR [rcx+44], eax

; 577  : 						  info->vecregsize[vecidx] = membersize;      //size of data tu be put in register

	movsxd	rax, DWORD PTR vecidx$[rsp]
	mov	rcx, QWORD PTR info$[rsp]
	movzx	edx, BYTE PTR membersize$[rsp]
	mov	BYTE PTR [rcx+rax+62], dl

; 578  : 						  info->xyzused[vecidx] = 1;                  //mark that the placeholder for register is used

	movsxd	rax, DWORD PTR vecidx$[rsp]
	mov	rcx, QWORD PTR info$[rsp]
	mov	BYTE PTR [rcx+rax+74], 1

; 579  : 						  AddLineQueueX("vmovss %r,dword ptr [%s+%d]", T_XMM0 + vecidx, paramvalue, j * membersize);

	mov	eax, DWORD PTR j$[rsp]
	imul	eax, DWORD PTR membersize$[rsp]
	mov	ecx, DWORD PTR vecidx$[rsp]
	add	ecx, 40					; 00000028H
	mov	r9d, eax
	mov	r8, QWORD PTR paramvalue$[rsp]
	mov	edx, ecx
	lea	rcx, OFFSET FLAT:$SG11451
	call	AddLineQueueX

; 580  : 						  tCount--;

	mov	eax, DWORD PTR tCount$[rsp]
	dec	eax
	mov	DWORD PTR tCount$[rsp], eax

; 581  : 						  j++;

	mov	eax, DWORD PTR j$[rsp]
	inc	eax
	mov	DWORD PTR j$[rsp], eax
$LN177@ms64_param:

; 582  : 					  }
; 583  : 					  vecidx++;

	mov	eax, DWORD PTR vecidx$[rsp]
	inc	eax
	mov	DWORD PTR vecidx$[rsp], eax

; 584  : 				  }

	jmp	$LN18@ms64_param
$LN19@ms64_param:
$LN176@ms64_param:
$LN174@ms64_param:
$LN169@ms64_param:

; 585  : 			  }
; 586  : 		  }
; 587  : 	  }

	jmp	$LN168@ms64_param
$LN167@ms64_param:

; 588  :       else if ((proc->sym.langtype == LANG_VECTORCALL) && (psize == 12) && (param->sym.ttype != 0) && (param->sym.ttype->e.structinfo->isHFA) && (param->sym.mem_type == MT_TYPE)) {

	mov	rax, QWORD PTR proc$[rsp]
	cmp	DWORD PTR [rax+76], 8
	jne	$LN178@ms64_param
	cmp	DWORD PTR psize$[rsp], 12
	jne	$LN178@ms64_param
	mov	rax, QWORD PTR param$[rsp]
	cmp	QWORD PTR [rax+80], 0
	je	$LN178@ms64_param
	mov	rax, QWORD PTR param$[rsp]
	mov	rax, QWORD PTR [rax+80]
	mov	rax, QWORD PTR [rax+96]
	movzx	eax, BYTE PTR [rax+22]
	test	eax, eax
	je	$LN178@ms64_param
	mov	rax, QWORD PTR param$[rsp]
	cmp	DWORD PTR [rax+36], 196			; 000000c4H
	jne	$LN178@ms64_param

; 589  : 		  /* it can be only HFA data type made of 3 REAL4 */
; 590  : 		  t = param->sym.ttype;

	mov	rax, QWORD PTR param$[rsp]
	mov	rax, QWORD PTR [rax+80]
	mov	QWORD PTR t$[rsp], rax

; 591  : 		  if (t != 0 && t->e.structinfo->isHFA && (vcallpass == 1))

	cmp	QWORD PTR t$[rsp], 0
	je	$LN180@ms64_param
	mov	rax, QWORD PTR t$[rsp]
	mov	rax, QWORD PTR [rax+96]
	movzx	eax, BYTE PTR [rax+22]
	test	eax, eax
	je	$LN180@ms64_param
	cmp	DWORD PTR vcallpass, 1
	jne	$LN180@ms64_param

; 592  : 		  {
; 593  : 			  freevecregs = 0;

	mov	DWORD PTR freevecregs$[rsp], 0

; 594  : 			  vecidx = -1;

	mov	DWORD PTR vecidx$[rsp], -1

; 595  : 			  for (i = 0; i < 6; i++)

	mov	DWORD PTR i$[rsp], 0
	jmp	SHORT $LN22@ms64_param
$LN20@ms64_param:
	mov	eax, DWORD PTR i$[rsp]
	inc	eax
	mov	DWORD PTR i$[rsp], eax
$LN22@ms64_param:
	cmp	DWORD PTR i$[rsp], 6
	jge	SHORT $LN21@ms64_param

; 596  : 			  {
; 597  : 				  if (info->vregs[i] == 0)

	movsxd	rax, DWORD PTR i$[rsp]
	mov	rcx, QWORD PTR info$[rsp]
	movzx	eax, BYTE PTR [rcx+rax+68]
	test	eax, eax
	jne	SHORT $LN181@ms64_param

; 598  : 				  {
; 599  : 					  if (vecidx == -1) vecidx = i;

	cmp	DWORD PTR vecidx$[rsp], -1
	jne	SHORT $LN182@ms64_param
	mov	eax, DWORD PTR i$[rsp]
	mov	DWORD PTR vecidx$[rsp], eax
$LN182@ms64_param:

; 600  : 					  freevecregs++;

	mov	eax, DWORD PTR freevecregs$[rsp]
	inc	eax
	mov	DWORD PTR freevecregs$[rsp], eax
$LN181@ms64_param:

; 601  : 				  }
; 602  : 			  }

	jmp	SHORT $LN20@ms64_param
$LN21@ms64_param:

; 603  : 
; 604  : 			  memberCount = t->e.structinfo->memberCount;

	mov	rax, QWORD PTR t$[rsp]
	mov	rax, QWORD PTR [rax+96]
	mov	eax, DWORD PTR [rax+24]
	mov	DWORD PTR memberCount$[rsp], eax

; 605  : 			  if (memberCount > freevecregs) goto uselea;

	mov	eax, DWORD PTR freevecregs$[rsp]
	cmp	DWORD PTR memberCount$[rsp], eax
	jle	SHORT $LN183@ms64_param
	jmp	$uselea$337
$LN183@ms64_param:

; 606  : 			  membersize = psize / memberCount;               //get the size of a single element which is REAL4 in this case        

	xor	edx, edx
	mov	eax, DWORD PTR psize$[rsp]
	div	DWORD PTR memberCount$[rsp]
	mov	DWORD PTR membersize$[rsp], eax

; 607  : 			  j = 0;

	mov	DWORD PTR j$[rsp], 0

; 608  : 			  tCount = memberCount;

	mov	eax, DWORD PTR memberCount$[rsp]
	mov	DWORD PTR tCount$[rsp], eax
$LN23@ms64_param:

; 609  : 			  while (tCount > 0)

	cmp	DWORD PTR tCount$[rsp], 0
	jle	$LN24@ms64_param

; 610  : 			  {
; 611  : 				  if (info->vregs[vecidx] == 0)

	movsxd	rax, DWORD PTR vecidx$[rsp]
	mov	rcx, QWORD PTR info$[rsp]
	movzx	eax, BYTE PTR [rcx+rax+68]
	test	eax, eax
	jne	$LN184@ms64_param

; 612  : 				  {
; 613  : 					  info->vregs[vecidx] = 1;

	movsxd	rax, DWORD PTR vecidx$[rsp]
	mov	rcx, QWORD PTR info$[rsp]
	mov	BYTE PTR [rcx+rax+68], 1

; 614  : 					  info->vecregs[index] = memberCount;         //store number of members in proper location pointed by index

	movsxd	rax, DWORD PTR index$[rsp]
	mov	rcx, QWORD PTR info$[rsp]
	movzx	edx, BYTE PTR memberCount$[rsp]
	mov	BYTE PTR [rcx+rax+56], dl

; 615  : 					  info->vsize += membersize;                  //vsize contains total size 

	mov	rax, QWORD PTR info$[rsp]
	mov	eax, DWORD PTR [rax+44]
	add	eax, DWORD PTR membersize$[rsp]
	mov	rcx, QWORD PTR info$[rsp]
	mov	DWORD PTR [rcx+44], eax

; 616  : 					  info->vecregsize[vecidx] = membersize;      //size of data tu be put in register

	movsxd	rax, DWORD PTR vecidx$[rsp]
	mov	rcx, QWORD PTR info$[rsp]
	movzx	edx, BYTE PTR membersize$[rsp]
	mov	BYTE PTR [rcx+rax+62], dl

; 617  : 					  info->xyzused[vecidx] = 1;                  //mark that the placeholder for register is used

	movsxd	rax, DWORD PTR vecidx$[rsp]
	mov	rcx, QWORD PTR info$[rsp]
	mov	BYTE PTR [rcx+rax+74], 1

; 618  : 					  AddLineQueueX("vmovss %r,dword ptr [%s+%d]", T_XMM0 + vecidx, paramvalue, j * membersize);

	mov	eax, DWORD PTR j$[rsp]
	imul	eax, DWORD PTR membersize$[rsp]
	mov	ecx, DWORD PTR vecidx$[rsp]
	add	ecx, 40					; 00000028H
	mov	r9d, eax
	mov	r8, QWORD PTR paramvalue$[rsp]
	mov	edx, ecx
	lea	rcx, OFFSET FLAT:$SG11459
	call	AddLineQueueX

; 619  : 					  tCount--;

	mov	eax, DWORD PTR tCount$[rsp]
	dec	eax
	mov	DWORD PTR tCount$[rsp], eax

; 620  : 					  j++;

	mov	eax, DWORD PTR j$[rsp]
	inc	eax
	mov	DWORD PTR j$[rsp], eax
$LN184@ms64_param:

; 621  : 				  }
; 622  : 				  vecidx++;

	mov	eax, DWORD PTR vecidx$[rsp]
	inc	eax
	mov	DWORD PTR vecidx$[rsp], eax

; 623  : 			  }

	jmp	$LN23@ms64_param
$LN24@ms64_param:
$LN180@ms64_param:

; 624  : 		  }
; 625  : 	  }

	jmp	$LN179@ms64_param
$LN178@ms64_param:

; 626  :       else if ((proc->sym.langtype == LANG_VECTORCALL) && (psize == 24) && (param->sym.ttype != 0) && (param->sym.ttype->e.structinfo->isHFA) && (param->sym.mem_type == MT_TYPE)) {

	mov	rax, QWORD PTR proc$[rsp]
	cmp	DWORD PTR [rax+76], 8
	jne	$LN185@ms64_param
	cmp	DWORD PTR psize$[rsp], 24
	jne	$LN185@ms64_param
	mov	rax, QWORD PTR param$[rsp]
	cmp	QWORD PTR [rax+80], 0
	je	$LN185@ms64_param
	mov	rax, QWORD PTR param$[rsp]
	mov	rax, QWORD PTR [rax+80]
	mov	rax, QWORD PTR [rax+96]
	movzx	eax, BYTE PTR [rax+22]
	test	eax, eax
	je	$LN185@ms64_param
	mov	rax, QWORD PTR param$[rsp]
	cmp	DWORD PTR [rax+36], 196			; 000000c4H
	jne	$LN185@ms64_param

; 627  : 		  /* it can be only HFA data type made of 3 REAL8 */
; 628  : 		  t = param->sym.ttype;

	mov	rax, QWORD PTR param$[rsp]
	mov	rax, QWORD PTR [rax+80]
	mov	QWORD PTR t$[rsp], rax

; 629  : 		  if (t != 0 && t->e.structinfo->isHFA && (vcallpass == 1))

	cmp	QWORD PTR t$[rsp], 0
	je	$LN187@ms64_param
	mov	rax, QWORD PTR t$[rsp]
	mov	rax, QWORD PTR [rax+96]
	movzx	eax, BYTE PTR [rax+22]
	test	eax, eax
	je	$LN187@ms64_param
	cmp	DWORD PTR vcallpass, 1
	jne	$LN187@ms64_param

; 630  : 		  {
; 631  : 
; 632  : 			  freevecregs = 0;

	mov	DWORD PTR freevecregs$[rsp], 0

; 633  : 			  vecidx = -1;

	mov	DWORD PTR vecidx$[rsp], -1

; 634  : 			  for (i = 0; i < 6; i++)

	mov	DWORD PTR i$[rsp], 0
	jmp	SHORT $LN27@ms64_param
$LN25@ms64_param:
	mov	eax, DWORD PTR i$[rsp]
	inc	eax
	mov	DWORD PTR i$[rsp], eax
$LN27@ms64_param:
	cmp	DWORD PTR i$[rsp], 6
	jge	SHORT $LN26@ms64_param

; 635  : 			  {
; 636  : 				  if (info->vregs[i] == 0)

	movsxd	rax, DWORD PTR i$[rsp]
	mov	rcx, QWORD PTR info$[rsp]
	movzx	eax, BYTE PTR [rcx+rax+68]
	test	eax, eax
	jne	SHORT $LN188@ms64_param

; 637  : 				  {
; 638  : 					  if (vecidx == -1) vecidx = i;

	cmp	DWORD PTR vecidx$[rsp], -1
	jne	SHORT $LN189@ms64_param
	mov	eax, DWORD PTR i$[rsp]
	mov	DWORD PTR vecidx$[rsp], eax
$LN189@ms64_param:

; 639  : 					  freevecregs++;

	mov	eax, DWORD PTR freevecregs$[rsp]
	inc	eax
	mov	DWORD PTR freevecregs$[rsp], eax
$LN188@ms64_param:

; 640  : 				  }
; 641  : 			  }

	jmp	SHORT $LN25@ms64_param
$LN26@ms64_param:

; 642  : 
; 643  : 			  memberCount = t->e.structinfo->memberCount;

	mov	rax, QWORD PTR t$[rsp]
	mov	rax, QWORD PTR [rax+96]
	mov	eax, DWORD PTR [rax+24]
	mov	DWORD PTR memberCount$[rsp], eax

; 644  : 			  if (memberCount > freevecregs) goto uselea;

	mov	eax, DWORD PTR freevecregs$[rsp]
	cmp	DWORD PTR memberCount$[rsp], eax
	jle	SHORT $LN190@ms64_param
	jmp	$uselea$337
$LN190@ms64_param:

; 645  : 			  membersize = psize / memberCount;          //get the size of a single element which is REAL4 in this case        

	xor	edx, edx
	mov	eax, DWORD PTR psize$[rsp]
	div	DWORD PTR memberCount$[rsp]
	mov	DWORD PTR membersize$[rsp], eax

; 646  : 			  j = 0;

	mov	DWORD PTR j$[rsp], 0

; 647  : 			  tCount = memberCount;

	mov	eax, DWORD PTR memberCount$[rsp]
	mov	DWORD PTR tCount$[rsp], eax
$LN28@ms64_param:

; 648  : 			  while (tCount > 0)

	cmp	DWORD PTR tCount$[rsp], 0
	jle	$LN29@ms64_param

; 649  : 			  {
; 650  : 				  if (info->vregs[vecidx] == 0)

	movsxd	rax, DWORD PTR vecidx$[rsp]
	mov	rcx, QWORD PTR info$[rsp]
	movzx	eax, BYTE PTR [rcx+rax+68]
	test	eax, eax
	jne	$LN191@ms64_param

; 651  : 				  {
; 652  : 					  info->vregs[vecidx] = 1;

	movsxd	rax, DWORD PTR vecidx$[rsp]
	mov	rcx, QWORD PTR info$[rsp]
	mov	BYTE PTR [rcx+rax+68], 1

; 653  : 					  info->vecregs[index] = memberCount;        //store number of members in proper location pointed by index

	movsxd	rax, DWORD PTR index$[rsp]
	mov	rcx, QWORD PTR info$[rsp]
	movzx	edx, BYTE PTR memberCount$[rsp]
	mov	BYTE PTR [rcx+rax+56], dl

; 654  : 					  info->vsize += membersize;                      //vsize contains total size 

	mov	rax, QWORD PTR info$[rsp]
	mov	eax, DWORD PTR [rax+44]
	add	eax, DWORD PTR membersize$[rsp]
	mov	rcx, QWORD PTR info$[rsp]
	mov	DWORD PTR [rcx+44], eax

; 655  : 					  info->vecregsize[vecidx] = membersize;      //size of data tu be put in register

	movsxd	rax, DWORD PTR vecidx$[rsp]
	mov	rcx, QWORD PTR info$[rsp]
	movzx	edx, BYTE PTR membersize$[rsp]
	mov	BYTE PTR [rcx+rax+62], dl

; 656  : 					  info->xyzused[vecidx] = 1;                  //mark that the placeholder for register is used

	movsxd	rax, DWORD PTR vecidx$[rsp]
	mov	rcx, QWORD PTR info$[rsp]
	mov	BYTE PTR [rcx+rax+74], 1

; 657  : 					  AddLineQueueX("vmovsd %r,qword ptr [%s+%d]", T_XMM0 + vecidx, paramvalue, j * membersize);

	mov	eax, DWORD PTR j$[rsp]
	imul	eax, DWORD PTR membersize$[rsp]
	mov	ecx, DWORD PTR vecidx$[rsp]
	add	ecx, 40					; 00000028H
	mov	r9d, eax
	mov	r8, QWORD PTR paramvalue$[rsp]
	mov	edx, ecx
	lea	rcx, OFFSET FLAT:$SG11467
	call	AddLineQueueX

; 658  : 					  tCount--;

	mov	eax, DWORD PTR tCount$[rsp]
	dec	eax
	mov	DWORD PTR tCount$[rsp], eax

; 659  : 					  j++;

	mov	eax, DWORD PTR j$[rsp]
	inc	eax
	mov	DWORD PTR j$[rsp], eax
$LN191@ms64_param:

; 660  : 				  }
; 661  : 				  vecidx++;

	mov	eax, DWORD PTR vecidx$[rsp]
	inc	eax
	mov	DWORD PTR vecidx$[rsp], eax

; 662  : 			  }

	jmp	$LN28@ms64_param
$LN29@ms64_param:
$LN187@ms64_param:

; 663  : 		  }
; 664  :       }

	jmp	$LN186@ms64_param
$LN185@ms64_param:

; 665  : 	  else if ((proc->sym.langtype == LANG_VECTORCALL) && (psize == 32) && (param->sym.ttype != 0) && (param->sym.ttype->e.structinfo->isHFA) && (param->sym.mem_type == MT_TYPE)) {

	mov	rax, QWORD PTR proc$[rsp]
	cmp	DWORD PTR [rax+76], 8
	jne	$LN192@ms64_param
	cmp	DWORD PTR psize$[rsp], 32		; 00000020H
	jne	$LN192@ms64_param
	mov	rax, QWORD PTR param$[rsp]
	cmp	QWORD PTR [rax+80], 0
	je	$LN192@ms64_param
	mov	rax, QWORD PTR param$[rsp]
	mov	rax, QWORD PTR [rax+80]
	mov	rax, QWORD PTR [rax+96]
	movzx	eax, BYTE PTR [rax+22]
	test	eax, eax
	je	$LN192@ms64_param
	mov	rax, QWORD PTR param$[rsp]
	cmp	DWORD PTR [rax+36], 196			; 000000c4H
	jne	$LN192@ms64_param

; 666  : 		  /* it can be only HFA data type made of 4 REAL8 */
; 667  : 		  t = param->sym.ttype;

	mov	rax, QWORD PTR param$[rsp]
	mov	rax, QWORD PTR [rax+80]
	mov	QWORD PTR t$[rsp], rax

; 668  : 		  if (t != 0 && t->e.structinfo->isHFA && (vcallpass == 1))

	cmp	QWORD PTR t$[rsp], 0
	je	$LN194@ms64_param
	mov	rax, QWORD PTR t$[rsp]
	mov	rax, QWORD PTR [rax+96]
	movzx	eax, BYTE PTR [rax+22]
	test	eax, eax
	je	$LN194@ms64_param
	cmp	DWORD PTR vcallpass, 1
	jne	$LN194@ms64_param

; 669  : 		  {
; 670  : 
; 671  : 			  freevecregs = 0;

	mov	DWORD PTR freevecregs$[rsp], 0

; 672  : 			  vecidx = -1;

	mov	DWORD PTR vecidx$[rsp], -1

; 673  : 			  for (i = 0; i < 6; i++)

	mov	DWORD PTR i$[rsp], 0
	jmp	SHORT $LN32@ms64_param
$LN30@ms64_param:
	mov	eax, DWORD PTR i$[rsp]
	inc	eax
	mov	DWORD PTR i$[rsp], eax
$LN32@ms64_param:
	cmp	DWORD PTR i$[rsp], 6
	jge	SHORT $LN31@ms64_param

; 674  : 			  {
; 675  : 				  if (info->vregs[i] == 0)

	movsxd	rax, DWORD PTR i$[rsp]
	mov	rcx, QWORD PTR info$[rsp]
	movzx	eax, BYTE PTR [rcx+rax+68]
	test	eax, eax
	jne	SHORT $LN195@ms64_param

; 676  : 				  {
; 677  : 					  if (vecidx == -1) vecidx = i;

	cmp	DWORD PTR vecidx$[rsp], -1
	jne	SHORT $LN196@ms64_param
	mov	eax, DWORD PTR i$[rsp]
	mov	DWORD PTR vecidx$[rsp], eax
$LN196@ms64_param:

; 678  : 					  freevecregs++;

	mov	eax, DWORD PTR freevecregs$[rsp]
	inc	eax
	mov	DWORD PTR freevecregs$[rsp], eax
$LN195@ms64_param:

; 679  : 				  }
; 680  : 			  }

	jmp	SHORT $LN30@ms64_param
$LN31@ms64_param:

; 681  : 
; 682  : 			  memberCount = t->e.structinfo->memberCount;

	mov	rax, QWORD PTR t$[rsp]
	mov	rax, QWORD PTR [rax+96]
	mov	eax, DWORD PTR [rax+24]
	mov	DWORD PTR memberCount$[rsp], eax

; 683  : 			  if (memberCount > freevecregs) goto uselea;

	mov	eax, DWORD PTR freevecregs$[rsp]
	cmp	DWORD PTR memberCount$[rsp], eax
	jle	SHORT $LN197@ms64_param
	jmp	$uselea$337
$LN197@ms64_param:

; 684  : 			  membersize = psize / memberCount;          //get the size of a single element which is REAL4 in this case        

	xor	edx, edx
	mov	eax, DWORD PTR psize$[rsp]
	div	DWORD PTR memberCount$[rsp]
	mov	DWORD PTR membersize$[rsp], eax

; 685  : 			  j = 0;

	mov	DWORD PTR j$[rsp], 0

; 686  : 			  tCount = memberCount;

	mov	eax, DWORD PTR memberCount$[rsp]
	mov	DWORD PTR tCount$[rsp], eax
$LN33@ms64_param:

; 687  : 			  while (tCount > 0)

	cmp	DWORD PTR tCount$[rsp], 0
	jle	$LN34@ms64_param

; 688  : 			  {
; 689  : 				  if (info->vregs[vecidx] == 0)

	movsxd	rax, DWORD PTR vecidx$[rsp]
	mov	rcx, QWORD PTR info$[rsp]
	movzx	eax, BYTE PTR [rcx+rax+68]
	test	eax, eax
	jne	$LN198@ms64_param

; 690  : 				  {
; 691  : 					  info->vregs[vecidx] = 1;

	movsxd	rax, DWORD PTR vecidx$[rsp]
	mov	rcx, QWORD PTR info$[rsp]
	mov	BYTE PTR [rcx+rax+68], 1

; 692  : 					  info->vecregs[index] = memberCount;        //store number of members in proper location pointed by index

	movsxd	rax, DWORD PTR index$[rsp]
	mov	rcx, QWORD PTR info$[rsp]
	movzx	edx, BYTE PTR memberCount$[rsp]
	mov	BYTE PTR [rcx+rax+56], dl

; 693  : 					  info->vsize += membersize;                      //vsize contains total size 

	mov	rax, QWORD PTR info$[rsp]
	mov	eax, DWORD PTR [rax+44]
	add	eax, DWORD PTR membersize$[rsp]
	mov	rcx, QWORD PTR info$[rsp]
	mov	DWORD PTR [rcx+44], eax

; 694  : 					  info->vecregsize[vecidx] = membersize;      //size of data tu be put in register

	movsxd	rax, DWORD PTR vecidx$[rsp]
	mov	rcx, QWORD PTR info$[rsp]
	movzx	edx, BYTE PTR membersize$[rsp]
	mov	BYTE PTR [rcx+rax+62], dl

; 695  : 					  info->xyzused[vecidx] = 1;                  //mark that the placeholder for register is used

	movsxd	rax, DWORD PTR vecidx$[rsp]
	mov	rcx, QWORD PTR info$[rsp]
	mov	BYTE PTR [rcx+rax+74], 1

; 696  : 					  AddLineQueueX("vmovsd %r,qword ptr [%s+%d]", T_XMM0 + vecidx, paramvalue, j * 8);

	mov	eax, DWORD PTR j$[rsp]
	shl	eax, 3
	mov	ecx, DWORD PTR vecidx$[rsp]
	add	ecx, 40					; 00000028H
	mov	r9d, eax
	mov	r8, QWORD PTR paramvalue$[rsp]
	mov	edx, ecx
	lea	rcx, OFFSET FLAT:$SG11475
	call	AddLineQueueX

; 697  : 					  tCount--;

	mov	eax, DWORD PTR tCount$[rsp]
	dec	eax
	mov	DWORD PTR tCount$[rsp], eax

; 698  : 					  j++;

	mov	eax, DWORD PTR j$[rsp]
	inc	eax
	mov	DWORD PTR j$[rsp], eax
$LN198@ms64_param:

; 699  : 				  }
; 700  : 				  vecidx++;

	mov	eax, DWORD PTR vecidx$[rsp]
	inc	eax
	mov	DWORD PTR vecidx$[rsp], eax

; 701  : 			  }

	jmp	$LN33@ms64_param
$LN34@ms64_param:
$LN194@ms64_param:

; 702  : 		  }
; 703  : 	  }

	jmp	$LN193@ms64_param
$LN192@ms64_param:

; 704  : 
; 705  :       else {
; 706  :       if ( addr || psize > 8 ) { /* psize > 8 should happen only for vectorcall */

	movzx	eax, BYTE PTR addr$[rsp]
	test	eax, eax
	jne	SHORT $LN200@ms64_param
	cmp	DWORD PTR psize$[rsp], 8
	jbe	$LN199@ms64_param
$LN200@ms64_param:

; 707  : 		  if (psize >= 4) {

	cmp	DWORD PTR psize$[rsp], 4
	jb	$LN201@ms64_param

; 708  : 			  if (proc->sym.langtype == LANG_VECTORCALL) {

	mov	rax, QWORD PTR proc$[rsp]
	cmp	DWORD PTR [rax+76], 8
	jne	$LN203@ms64_param

; 709  : 				  if ((param->sym.mem_type == MT_TYPE)) {

	mov	rax, QWORD PTR param$[rsp]
	cmp	DWORD PTR [rax+36], 196			; 000000c4H
	jne	$LN205@ms64_param

; 710  : 					  t = param->sym.ttype;

	mov	rax, QWORD PTR param$[rsp]
	mov	rax, QWORD PTR [rax+80]
	mov	QWORD PTR t$[rsp], rax

; 711  : 
; 712  : 					  if (vcallpass == 0 && opnd->kind == EXPR_REG && opnd->indirect == FALSE && reg < T_XMM6 && index < 6 && info->vecregs[(reg - T_XMM0)] != 0 && (index != reg-T_XMM0))

	cmp	DWORD PTR vcallpass, 0
	jne	SHORT $LN207@ms64_param
	mov	rax, QWORD PTR opnd$[rsp]
	cmp	DWORD PTR [rax+60], 2
	jne	SHORT $LN207@ms64_param
	mov	rax, QWORD PTR opnd$[rsp]
	mov	eax, DWORD PTR [rax+72]
	and	eax, 1
	test	eax, eax
	jne	SHORT $LN207@ms64_param
	cmp	DWORD PTR reg$[rsp], 46			; 0000002eH
	jge	SHORT $LN207@ms64_param
	cmp	DWORD PTR index$[rsp], 6
	jge	SHORT $LN207@ms64_param
	mov	eax, DWORD PTR reg$[rsp]
	sub	eax, 40					; 00000028H
	cdqe
	mov	rcx, QWORD PTR info$[rsp]
	movzx	eax, BYTE PTR [rcx+rax+56]
	test	eax, eax
	je	SHORT $LN207@ms64_param
	mov	eax, DWORD PTR reg$[rsp]
	sub	eax, 40					; 00000028H
	cmp	DWORD PTR index$[rsp], eax
	je	SHORT $LN207@ms64_param

; 713  : 					  {
; 714  : 						  EmitErr(REGISTER_VALUE_OVERWRITTEN_BY_INVOKE, index);

	mov	edx, DWORD PTR index$[rsp]
	mov	ecx, 165				; 000000a5H
	call	EmitErr

; 715  : 						  return(1);

	mov	eax, 1
	jmp	$LN1@ms64_param
$LN207@ms64_param:

; 716  : 					  }
; 717  : 
; 718  : 					  if (t->e.structinfo->stype == MM128 && vcallpass==0) {

	mov	rax, QWORD PTR t$[rsp]
	mov	rax, QWORD PTR [rax+96]
	cmp	DWORD PTR [rax+16], 1
	jne	$LN208@ms64_param
	cmp	DWORD PTR vcallpass, 0
	jne	$LN208@ms64_param

; 719  : 						  if (opnd->kind == EXPR_REG && opnd->indirect == FALSE) {

	mov	rax, QWORD PTR opnd$[rsp]
	cmp	DWORD PTR [rax+60], 2
	jne	$LN210@ms64_param
	mov	rax, QWORD PTR opnd$[rsp]
	mov	eax, DWORD PTR [rax+72]
	and	eax, 1
	test	eax, eax
	jne	$LN210@ms64_param

; 720  : 							  if ((GetValueSp(reg) & OP_XMM)|| t->e.structinfo->isHFA ) {

	movsxd	rax, DWORD PTR reg$[rsp]
	imul	rax, rax, 12
	lea	rcx, OFFSET FLAT:SpecialTable
	mov	eax, DWORD PTR [rcx+rax]
	and	eax, 32					; 00000020H
	test	eax, eax
	jne	SHORT $LN212@ms64_param
	mov	rax, QWORD PTR t$[rsp]
	mov	rax, QWORD PTR [rax+96]
	movzx	eax, BYTE PTR [rax+22]
	test	eax, eax
	je	$LN211@ms64_param
$LN212@ms64_param:

; 721  : 
; 722  : 								  t->e.structinfo->memberCount = 1;

	mov	rax, QWORD PTR t$[rsp]
	mov	rax, QWORD PTR [rax+96]
	mov	DWORD PTR [rax+24], 1

; 723  : 								  info->vregs[index] = 1;

	movsxd	rax, DWORD PTR index$[rsp]
	mov	rcx, QWORD PTR info$[rsp]
	mov	BYTE PTR [rcx+rax+68], 1

; 724  : 								  info->vecregs[index] = 1;

	movsxd	rax, DWORD PTR index$[rsp]
	mov	rcx, QWORD PTR info$[rsp]
	mov	BYTE PTR [rcx+rax+56], 1

; 725  : 								  info->xyzused[index] = 1;

	movsxd	rax, DWORD PTR index$[rsp]
	mov	rcx, QWORD PTR info$[rsp]
	mov	BYTE PTR [rcx+rax+74], 1

; 726  : 								  info->vsize += 16;

	mov	rax, QWORD PTR info$[rsp]
	mov	eax, DWORD PTR [rax+44]
	add	eax, 16
	mov	rcx, QWORD PTR info$[rsp]
	mov	DWORD PTR [rcx+44], eax

; 727  : 								  info->vecregsize[index] = 16;

	movsxd	rax, DWORD PTR index$[rsp]
	mov	rcx, QWORD PTR info$[rsp]
	mov	BYTE PTR [rcx+rax+62], 16

; 728  : 								  if (reg == T_XMM0 + index)

	mov	eax, DWORD PTR index$[rsp]
	add	eax, 40					; 00000028H
	cmp	DWORD PTR reg$[rsp], eax
	jne	SHORT $LN213@ms64_param

; 729  : 									  DebugMsg(("ms64_param(%s, param=%u): argument optimized\n", proc->sym.name, index));

	mov	r8d, DWORD PTR index$[rsp]
	mov	rax, QWORD PTR proc$[rsp]
	mov	rdx, QWORD PTR [rax+8]
	lea	rcx, OFFSET FLAT:$SG11492
	call	DoDebugMsg
	jmp	SHORT $LN214@ms64_param
$LN213@ms64_param:

; 730  : 								  else
; 731  : 									  AddLineQueueX("vmovaps %r,oword ptr %s", T_XMM0 + index, paramvalue);

	mov	eax, DWORD PTR index$[rsp]
	add	eax, 40					; 00000028H
	mov	r8, QWORD PTR paramvalue$[rsp]
	mov	edx, eax
	lea	rcx, OFFSET FLAT:$SG11493
	call	AddLineQueueX
$LN214@ms64_param:

; 732  : 								  return(1);

	mov	eax, 1
	jmp	$LN1@ms64_param
$LN211@ms64_param:
$LN210@ms64_param:

; 733  : 							  }
; 734  : 						  }
; 735  : 					  }

	jmp	$LN209@ms64_param
$LN208@ms64_param:

; 736  : 					  else if (t->e.structinfo->stype == MM256 && vcallpass == 0) {

	mov	rax, QWORD PTR t$[rsp]
	mov	rax, QWORD PTR [rax+96]
	cmp	DWORD PTR [rax+16], 2
	jne	$LN215@ms64_param
	cmp	DWORD PTR vcallpass, 0
	jne	$LN215@ms64_param

; 737  : 						  if (opnd->kind == EXPR_REG && opnd->indirect == FALSE) {

	mov	rax, QWORD PTR opnd$[rsp]
	cmp	DWORD PTR [rax+60], 2
	jne	$LN216@ms64_param
	mov	rax, QWORD PTR opnd$[rsp]
	mov	eax, DWORD PTR [rax+72]
	and	eax, 1
	test	eax, eax
	jne	$LN216@ms64_param

; 738  : 							  if (GetValueSp(reg) & OP_YMM) {

	movsxd	rax, DWORD PTR reg$[rsp]
	imul	rax, rax, 12
	lea	rcx, OFFSET FLAT:SpecialTable
	mov	eax, DWORD PTR [rcx+rax]
	and	eax, 128				; 00000080H
	test	eax, eax
	je	$LN217@ms64_param

; 739  : 								  t->e.structinfo->memberCount = 1;

	mov	rax, QWORD PTR t$[rsp]
	mov	rax, QWORD PTR [rax+96]
	mov	DWORD PTR [rax+24], 1

; 740  : 								  info->vregs[index] = 1;

	movsxd	rax, DWORD PTR index$[rsp]
	mov	rcx, QWORD PTR info$[rsp]
	mov	BYTE PTR [rcx+rax+68], 1

; 741  : 								  info->xyzused[index] = 1;

	movsxd	rax, DWORD PTR index$[rsp]
	mov	rcx, QWORD PTR info$[rsp]
	mov	BYTE PTR [rcx+rax+74], 1

; 742  : 								  info->vsize += 32;

	mov	rax, QWORD PTR info$[rsp]
	mov	eax, DWORD PTR [rax+44]
	add	eax, 32					; 00000020H
	mov	rcx, QWORD PTR info$[rsp]
	mov	DWORD PTR [rcx+44], eax

; 743  : 								  info->vecregsize[index] = 32;

	movsxd	rax, DWORD PTR index$[rsp]
	mov	rcx, QWORD PTR info$[rsp]
	mov	BYTE PTR [rcx+rax+62], 32		; 00000020H

; 744  : 								  if (reg == T_YMM0 + index)

	mov	eax, DWORD PTR index$[rsp]
	add	eax, 56					; 00000038H
	cmp	DWORD PTR reg$[rsp], eax
	jne	SHORT $LN218@ms64_param

; 745  : 									  DebugMsg(("ms64_param(%s, param=%u): argument optimized\n", proc->sym.name, index));

	mov	r8d, DWORD PTR index$[rsp]
	mov	rax, QWORD PTR proc$[rsp]
	mov	rdx, QWORD PTR [rax+8]
	lea	rcx, OFFSET FLAT:$SG11499
	call	DoDebugMsg
	jmp	SHORT $LN219@ms64_param
$LN218@ms64_param:

; 746  : 								  else
; 747  : 									  AddLineQueueX("vmovaps %r,ymmword ptr %s", T_YMM0 + index, paramvalue);

	mov	eax, DWORD PTR index$[rsp]
	add	eax, 56					; 00000038H
	mov	r8, QWORD PTR paramvalue$[rsp]
	mov	edx, eax
	lea	rcx, OFFSET FLAT:$SG11500
	call	AddLineQueueX
$LN219@ms64_param:

; 748  : 								  return(1);

	mov	eax, 1
	jmp	$LN1@ms64_param
$LN217@ms64_param:
$LN216@ms64_param:
$LN215@ms64_param:
$LN209@ms64_param:

; 749  : 							  }
; 750  : 						  }
; 751  : 					  }
; 752  : #if EVEXSUPP
; 753  : 					  else if (t->e.structinfo->stype == MM512 && vcallpass == 0) {
; 754  : 						  if (opnd->kind == EXPR_REG && opnd->indirect == FALSE) {
; 755  : 							  if (GetValueSp(reg) & OP_YMM) {
; 756  : 								  t->e.structinfo->memberCount = 1;
; 757  : 								  info->vregs[index] = 1;
; 758  : 								  info->xyzused[index] = 1;
; 759  : 								  info->vsize += 64;
; 760  : 								  info->vecregsize[index] = 64;
; 761  : 								  if (reg == T_YMM0 + index)
; 762  : 									  DebugMsg(("ms64_param(%s, param=%u): argument optimized\n", proc->sym.name, index));
; 763  : 								  else
; 764  : 									  AddLineQueueX("vmovaps %r,ymmword ptr %s", T_YMM0 + index, paramvalue);
; 765  : 								  return(1);
; 766  : 							  }
; 767  : 						  }
; 768  : 					  }
; 769  : #endif                
; 770  : 
; 771  : 					  if (t->e.structinfo->stype == MM128)

	mov	rax, QWORD PTR t$[rsp]
	mov	rax, QWORD PTR [rax+96]
	cmp	DWORD PTR [rax+16], 1
	jne	SHORT $LN220@ms64_param

; 772  : 						  membersize = 16;

	mov	DWORD PTR membersize$[rsp], 16
	jmp	SHORT $LN221@ms64_param
$LN220@ms64_param:

; 773  : 					  else if (t->e.structinfo->stype == MM256)

	mov	rax, QWORD PTR t$[rsp]
	mov	rax, QWORD PTR [rax+96]
	cmp	DWORD PTR [rax+16], 2
	jne	SHORT $LN222@ms64_param

; 774  : 						  membersize = 32;

	mov	DWORD PTR membersize$[rsp], 32		; 00000020H
$LN222@ms64_param:
$LN221@ms64_param:

; 775  : #if EVEXSUPP
; 776  : 					  else if (t->e.structinfo->stype == MM512)
; 777  : 						  membersize = 64;
; 778  : #endif            
; 779  : 					  memberCount = t->e.structinfo->memberCount;

	mov	rax, QWORD PTR t$[rsp]
	mov	rax, QWORD PTR [rax+96]
	mov	eax, DWORD PTR [rax+24]
	mov	DWORD PTR memberCount$[rsp], eax

; 780  : 					  if (t->e.structinfo->isHVA) {

	mov	rax, QWORD PTR t$[rsp]
	mov	rax, QWORD PTR [rax+96]
	movzx	eax, BYTE PTR [rax+21]
	test	eax, eax
	je	SHORT $LN223@ms64_param

; 781  : 						  if (memberCount)

	cmp	DWORD PTR memberCount$[rsp], 0
	je	SHORT $LN225@ms64_param

; 782  : 							  membersize = psize / memberCount;

	xor	edx, edx
	mov	eax, DWORD PTR psize$[rsp]
	div	DWORD PTR memberCount$[rsp]
	mov	DWORD PTR membersize$[rsp], eax
$LN225@ms64_param:

; 783  : 					  }

	jmp	$LN224@ms64_param
$LN223@ms64_param:

; 784  : 					  else if ((t->e.structinfo->isHFA)|| (proc->e.procinfo->paralist->sym.type && proc->e.procinfo->paralist->sym.type->max_mbr_size == 4))  {

	mov	rax, QWORD PTR t$[rsp]
	mov	rax, QWORD PTR [rax+96]
	movzx	eax, BYTE PTR [rax+22]
	test	eax, eax
	jne	SHORT $LN228@ms64_param
	mov	rax, QWORD PTR proc$[rsp]
	mov	rax, QWORD PTR [rax+96]
	mov	rax, QWORD PTR [rax+8]
	cmp	QWORD PTR [rax+80], 0
	je	SHORT $LN226@ms64_param
	mov	rax, QWORD PTR proc$[rsp]
	mov	rax, QWORD PTR [rax+96]
	mov	rax, QWORD PTR [rax+8]
	mov	rax, QWORD PTR [rax+80]
	cmp	DWORD PTR [rax+48], 4
	jne	SHORT $LN226@ms64_param
$LN228@ms64_param:

; 785  : 						  membersize = psize;

	mov	eax, DWORD PTR psize$[rsp]
	mov	DWORD PTR membersize$[rsp], eax

; 786  : 						  memberCount = 1;

	mov	DWORD PTR memberCount$[rsp], 1

; 787  : 					  }

	jmp	SHORT $LN227@ms64_param
$LN226@ms64_param:

; 788  : 					  else if (vcallpass == 0 && t->e.structinfo->stype != MM128 && t->e.structinfo->stype != MM256) {

	cmp	DWORD PTR vcallpass, 0
	jne	SHORT $LN229@ms64_param
	mov	rax, QWORD PTR t$[rsp]
	mov	rax, QWORD PTR [rax+96]
	cmp	DWORD PTR [rax+16], 1
	je	SHORT $LN229@ms64_param
	mov	rax, QWORD PTR t$[rsp]
	mov	rax, QWORD PTR [rax+96]
	cmp	DWORD PTR [rax+16], 2
	je	SHORT $LN229@ms64_param

; 789  : 						  goto uselea;

	jmp	$uselea$337
$LN229@ms64_param:
$LN227@ms64_param:
$LN224@ms64_param:

; 790  : 					  }
; 791  :             if (t->e.structinfo->isHFA) memberCount = 1;

	mov	rax, QWORD PTR t$[rsp]
	mov	rax, QWORD PTR [rax+96]
	movzx	eax, BYTE PTR [rax+22]
	test	eax, eax
	je	SHORT $LN230@ms64_param
	mov	DWORD PTR memberCount$[rsp], 1
$LN230@ms64_param:

; 792  : 					  info->vecregs[index] = memberCount;

	movsxd	rax, DWORD PTR index$[rsp]
	mov	rcx, QWORD PTR info$[rsp]
	movzx	edx, BYTE PTR memberCount$[rsp]
	mov	BYTE PTR [rcx+rax+56], dl

; 793  : 					  info->vsize += psize;

	mov	rax, QWORD PTR info$[rsp]
	mov	eax, DWORD PTR [rax+44]
	add	eax, DWORD PTR psize$[rsp]
	mov	rcx, QWORD PTR info$[rsp]
	mov	DWORD PTR [rcx+44], eax

; 794  : 					  info->vecregsize[index] = membersize;

	movsxd	rax, DWORD PTR index$[rsp]
	mov	rcx, QWORD PTR info$[rsp]
	movzx	edx, BYTE PTR membersize$[rsp]
	mov	BYTE PTR [rcx+rax+62], dl

; 795  : 					  if (((vcallpass == 1) && t->e.structinfo->isHVA) || t->e.structinfo->stype == MM128 || t->e.structinfo->stype == MM256) {

	cmp	DWORD PTR vcallpass, 1
	jne	SHORT $LN233@ms64_param
	mov	rax, QWORD PTR t$[rsp]
	mov	rax, QWORD PTR [rax+96]
	movzx	eax, BYTE PTR [rax+21]
	test	eax, eax
	jne	SHORT $LN232@ms64_param
$LN233@ms64_param:
	mov	rax, QWORD PTR t$[rsp]
	mov	rax, QWORD PTR [rax+96]
	cmp	DWORD PTR [rax+16], 1
	je	SHORT $LN232@ms64_param
	mov	rax, QWORD PTR t$[rsp]
	mov	rax, QWORD PTR [rax+96]
	cmp	DWORD PTR [rax+16], 2
	jne	$LN231@ms64_param
$LN232@ms64_param:

; 796  : 						  for (i = 0, j = 0; i < 6; i++) {

	mov	DWORD PTR i$[rsp], 0
	mov	DWORD PTR j$[rsp], 0
	jmp	SHORT $LN37@ms64_param
$LN35@ms64_param:
	mov	eax, DWORD PTR i$[rsp]
	inc	eax
	mov	DWORD PTR i$[rsp], eax
$LN37@ms64_param:
	cmp	DWORD PTR i$[rsp], 6
	jge	SHORT $LN36@ms64_param

; 797  : 							  j += info->vregs[i];

	movsxd	rax, DWORD PTR i$[rsp]
	mov	rcx, QWORD PTR info$[rsp]
	movzx	eax, BYTE PTR [rcx+rax+68]
	mov	ecx, DWORD PTR j$[rsp]
	add	ecx, eax
	mov	eax, ecx
	mov	DWORD PTR j$[rsp], eax

; 798  : 							  if (info->vregs[i]) {

	movsxd	rax, DWORD PTR i$[rsp]
	mov	rcx, QWORD PTR info$[rsp]
	movzx	eax, BYTE PTR [rcx+rax+68]
	test	eax, eax
	je	SHORT $LN234@ms64_param

; 799  : 								  info->xyzused[i] = 1;

	movsxd	rax, DWORD PTR i$[rsp]
	mov	rcx, QWORD PTR info$[rsp]
	mov	BYTE PTR [rcx+rax+74], 1

; 800  : 							  }

	jmp	SHORT $LN235@ms64_param
$LN234@ms64_param:

; 801  : 							  else if ((info->vregs[i] >= 1) && (info->xyzused[i] != 1))

	movsxd	rax, DWORD PTR i$[rsp]
	mov	rcx, QWORD PTR info$[rsp]
	movzx	eax, BYTE PTR [rcx+rax+68]
	cmp	eax, 1
	jl	SHORT $LN236@ms64_param
	movsxd	rax, DWORD PTR i$[rsp]
	mov	rcx, QWORD PTR info$[rsp]
	movzx	eax, BYTE PTR [rcx+rax+74]
	cmp	eax, 1
	je	SHORT $LN236@ms64_param

; 802  : 								  info->xyzused[i] = 0;

	movsxd	rax, DWORD PTR i$[rsp]
	mov	rcx, QWORD PTR info$[rsp]
	mov	BYTE PTR [rcx+rax+74], 0
$LN236@ms64_param:
$LN235@ms64_param:

; 803  : 						  }

	jmp	$LN35@ms64_param
$LN36@ms64_param:

; 804  : 						  if (j > 6)goto uselea;

	cmp	DWORD PTR j$[rsp], 6
	jle	SHORT $LN237@ms64_param
	jmp	$uselea$337
$LN237@ms64_param:

; 805  : 						  for (i = 0, j = 0; i < 6; i++) {

	mov	DWORD PTR i$[rsp], 0
	mov	DWORD PTR j$[rsp], 0
	jmp	SHORT $LN40@ms64_param
$LN38@ms64_param:
	mov	eax, DWORD PTR i$[rsp]
	inc	eax
	mov	DWORD PTR i$[rsp], eax
$LN40@ms64_param:
	cmp	DWORD PTR i$[rsp], 6
	jge	SHORT $LN39@ms64_param

; 806  : 							  if (info->xyzused[i] == 0)

	movsxd	rax, DWORD PTR i$[rsp]
	mov	rcx, QWORD PTR info$[rsp]
	movzx	eax, BYTE PTR [rcx+rax+74]
	test	eax, eax
	jne	SHORT $LN238@ms64_param

; 807  : 								  j++;

	mov	eax, DWORD PTR j$[rsp]
	inc	eax
	mov	DWORD PTR j$[rsp], eax
$LN238@ms64_param:

; 808  : 						  }

	jmp	SHORT $LN38@ms64_param
$LN39@ms64_param:

; 809  : 						  if (vcallpass == 1 && memberCount > j && (t->e.structinfo->isHFA || t->e.structinfo->isHVA)) goto uselea;

	cmp	DWORD PTR vcallpass, 1
	jne	SHORT $LN239@ms64_param
	mov	eax, DWORD PTR j$[rsp]
	cmp	DWORD PTR memberCount$[rsp], eax
	jle	SHORT $LN239@ms64_param
	mov	rax, QWORD PTR t$[rsp]
	mov	rax, QWORD PTR [rax+96]
	movzx	eax, BYTE PTR [rax+22]
	test	eax, eax
	jne	SHORT $LN240@ms64_param
	mov	rax, QWORD PTR t$[rsp]
	mov	rax, QWORD PTR [rax+96]
	movzx	eax, BYTE PTR [rax+21]
	test	eax, eax
	je	SHORT $LN239@ms64_param
$LN240@ms64_param:
	jmp	$uselea$337
$LN239@ms64_param:

; 810  : 
; 811  : 						  switch (membersize) {

	mov	eax, DWORD PTR membersize$[rsp]
	mov	DWORD PTR tv1171[rsp], eax
	cmp	DWORD PTR tv1171[rsp], 4
	je	SHORT $LN241@ms64_param
	cmp	DWORD PTR tv1171[rsp], 8
	je	$LN244@ms64_param
	cmp	DWORD PTR tv1171[rsp], 16
	je	$LN247@ms64_param
	cmp	DWORD PTR tv1171[rsp], 32		; 00000020H
	je	$LN254@ms64_param
	jmp	$LN41@ms64_param
$LN241@ms64_param:

; 812  : 						  case 4:                             /* it could be 3 or more REAL4 */
; 813  : 							  for (i = 0, j = 0; i < membersize; i++) {

	mov	DWORD PTR i$[rsp], 0
	mov	DWORD PTR j$[rsp], 0
	jmp	SHORT $LN45@ms64_param
$LN43@ms64_param:
	mov	eax, DWORD PTR i$[rsp]
	inc	eax
	mov	DWORD PTR i$[rsp], eax
$LN45@ms64_param:
	mov	eax, DWORD PTR membersize$[rsp]
	cmp	DWORD PTR i$[rsp], eax
	jge	$LN44@ms64_param
$LN46@ms64_param:

; 814  : 								  while (info->xyzused[j] != 0) j++;

	movsxd	rax, DWORD PTR j$[rsp]
	mov	rcx, QWORD PTR info$[rsp]
	movzx	eax, BYTE PTR [rcx+rax+74]
	test	eax, eax
	je	SHORT $LN47@ms64_param
	mov	eax, DWORD PTR j$[rsp]
	inc	eax
	mov	DWORD PTR j$[rsp], eax
	jmp	SHORT $LN46@ms64_param
$LN47@ms64_param:

; 815  : 								  if (i == 0) AddLineQueueX("vmovss %r,dword ptr %s", T_XMM0 + j, paramvalue);

	cmp	DWORD PTR i$[rsp], 0
	jne	SHORT $LN242@ms64_param
	mov	eax, DWORD PTR j$[rsp]
	add	eax, 40					; 00000028H
	mov	r8, QWORD PTR paramvalue$[rsp]
	mov	edx, eax
	lea	rcx, OFFSET FLAT:$SG11525
	call	AddLineQueueX
	jmp	SHORT $LN243@ms64_param
$LN242@ms64_param:

; 816  : 								  else      AddLineQueueX("vmovss %r,dword ptr [%s+%d]", T_XMM0 + j, paramvalue, i * 4);

	mov	eax, DWORD PTR i$[rsp]
	shl	eax, 2
	mov	ecx, DWORD PTR j$[rsp]
	add	ecx, 40					; 00000028H
	mov	r9d, eax
	mov	r8, QWORD PTR paramvalue$[rsp]
	mov	edx, ecx
	lea	rcx, OFFSET FLAT:$SG11526
	call	AddLineQueueX
$LN243@ms64_param:

; 817  : 								  info->xyzused[j] = 1;

	movsxd	rax, DWORD PTR j$[rsp]
	mov	rcx, QWORD PTR info$[rsp]
	mov	BYTE PTR [rcx+rax+74], 1

; 818  : 							  }

	jmp	$LN43@ms64_param
$LN44@ms64_param:

; 819  : 							  break;

	jmp	$LN41@ms64_param
$LN244@ms64_param:

; 820  : 						  case 8:
; 821  : 							  for (i = 0, j = 0; i < memberCount; i++) {

	mov	DWORD PTR i$[rsp], 0
	mov	DWORD PTR j$[rsp], 0
	jmp	SHORT $LN50@ms64_param
$LN48@ms64_param:
	mov	eax, DWORD PTR i$[rsp]
	inc	eax
	mov	DWORD PTR i$[rsp], eax
$LN50@ms64_param:
	mov	eax, DWORD PTR memberCount$[rsp]
	cmp	DWORD PTR i$[rsp], eax
	jge	$LN49@ms64_param
$LN51@ms64_param:

; 822  : 								  while (info->xyzused[j] != 0) j++;

	movsxd	rax, DWORD PTR j$[rsp]
	mov	rcx, QWORD PTR info$[rsp]
	movzx	eax, BYTE PTR [rcx+rax+74]
	test	eax, eax
	je	SHORT $LN52@ms64_param
	mov	eax, DWORD PTR j$[rsp]
	inc	eax
	mov	DWORD PTR j$[rsp], eax
	jmp	SHORT $LN51@ms64_param
$LN52@ms64_param:

; 823  : 								  if (i == 0) AddLineQueueX("vmovsd %r,oword ptr %s", T_XMM0 + j, paramvalue);

	cmp	DWORD PTR i$[rsp], 0
	jne	SHORT $LN245@ms64_param
	mov	eax, DWORD PTR j$[rsp]
	add	eax, 40					; 00000028H
	mov	r8, QWORD PTR paramvalue$[rsp]
	mov	edx, eax
	lea	rcx, OFFSET FLAT:$SG11530
	call	AddLineQueueX
	jmp	SHORT $LN246@ms64_param
$LN245@ms64_param:

; 824  : 								  else      AddLineQueueX("vmovsd %r,oword ptr [%s+%d]", T_XMM0 + j, paramvalue, i * 8);

	mov	eax, DWORD PTR i$[rsp]
	shl	eax, 3
	mov	ecx, DWORD PTR j$[rsp]
	add	ecx, 40					; 00000028H
	mov	r9d, eax
	mov	r8, QWORD PTR paramvalue$[rsp]
	mov	edx, ecx
	lea	rcx, OFFSET FLAT:$SG11531
	call	AddLineQueueX
$LN246@ms64_param:

; 825  : 								  info->xyzused[j] = 1;

	movsxd	rax, DWORD PTR j$[rsp]
	mov	rcx, QWORD PTR info$[rsp]
	mov	BYTE PTR [rcx+rax+74], 1

; 826  : 							  }

	jmp	$LN48@ms64_param
$LN49@ms64_param:

; 827  : 							  break;

	jmp	$LN41@ms64_param
$LN247@ms64_param:

; 828  : 						  case 16:
; 829  : 							  if ((vcallpass == 0) && t->e.structinfo->stype == MM128)

	cmp	DWORD PTR vcallpass, 0
	jne	SHORT $LN248@ms64_param
	mov	rax, QWORD PTR t$[rsp]
	mov	rax, QWORD PTR [rax+96]
	cmp	DWORD PTR [rax+16], 1
	jne	SHORT $LN248@ms64_param

; 830  : 							  {
; 831  : 								  AddLineQueueX("vmovaps %r,oword ptr %s", T_XMM0 + index, paramvalue);

	mov	eax, DWORD PTR index$[rsp]
	add	eax, 40					; 00000028H
	mov	r8, QWORD PTR paramvalue$[rsp]
	mov	edx, eax
	lea	rcx, OFFSET FLAT:$SG11535
	call	AddLineQueueX

; 832  : 								  info->xyzused[index] = 1;

	movsxd	rax, DWORD PTR index$[rsp]
	mov	rcx, QWORD PTR info$[rsp]
	mov	BYTE PTR [rcx+rax+74], 1

; 833  : 							  }

	jmp	$LN249@ms64_param
$LN248@ms64_param:

; 834  : 							  else if ((vcallpass == 1) && (t->e.structinfo->isHFA || t->e.structinfo->isHVA))

	cmp	DWORD PTR vcallpass, 1
	jne	$LN250@ms64_param
	mov	rax, QWORD PTR t$[rsp]
	mov	rax, QWORD PTR [rax+96]
	movzx	eax, BYTE PTR [rax+22]
	test	eax, eax
	jne	SHORT $LN251@ms64_param
	mov	rax, QWORD PTR t$[rsp]
	mov	rax, QWORD PTR [rax+96]
	movzx	eax, BYTE PTR [rax+21]
	test	eax, eax
	je	$LN250@ms64_param
$LN251@ms64_param:

; 835  : 							  {
; 836  : 								  for (i = 0, j = 0; i < memberCount; i++) {

	mov	DWORD PTR i$[rsp], 0
	mov	DWORD PTR j$[rsp], 0
	jmp	SHORT $LN55@ms64_param
$LN53@ms64_param:
	mov	eax, DWORD PTR i$[rsp]
	inc	eax
	mov	DWORD PTR i$[rsp], eax
$LN55@ms64_param:
	mov	eax, DWORD PTR memberCount$[rsp]
	cmp	DWORD PTR i$[rsp], eax
	jge	SHORT $LN54@ms64_param
$LN56@ms64_param:

; 837  : 									  while (info->xyzused[j] != 0) j++;

	movsxd	rax, DWORD PTR j$[rsp]
	mov	rcx, QWORD PTR info$[rsp]
	movzx	eax, BYTE PTR [rcx+rax+74]
	test	eax, eax
	je	SHORT $LN57@ms64_param
	mov	eax, DWORD PTR j$[rsp]
	inc	eax
	mov	DWORD PTR j$[rsp], eax
	jmp	SHORT $LN56@ms64_param
$LN57@ms64_param:

; 838  : 									  if (i == 0) AddLineQueueX("vmovaps %r,oword ptr %s", T_XMM0 + j, paramvalue);

	cmp	DWORD PTR i$[rsp], 0
	jne	SHORT $LN252@ms64_param
	mov	eax, DWORD PTR j$[rsp]
	add	eax, 40					; 00000028H
	mov	r8, QWORD PTR paramvalue$[rsp]
	mov	edx, eax
	lea	rcx, OFFSET FLAT:$SG11540
	call	AddLineQueueX
	jmp	SHORT $LN253@ms64_param
$LN252@ms64_param:

; 839  : 									  else      AddLineQueueX("vmovaps %r,oword ptr [%s+%d]", T_XMM0 + j, paramvalue, i * 16);

	imul	eax, DWORD PTR i$[rsp], 16
	mov	ecx, DWORD PTR j$[rsp]
	add	ecx, 40					; 00000028H
	mov	r9d, eax
	mov	r8, QWORD PTR paramvalue$[rsp]
	mov	edx, ecx
	lea	rcx, OFFSET FLAT:$SG11541
	call	AddLineQueueX
$LN253@ms64_param:

; 840  : 									  info->xyzused[j] = 1;

	movsxd	rax, DWORD PTR j$[rsp]
	mov	rcx, QWORD PTR info$[rsp]
	mov	BYTE PTR [rcx+rax+74], 1

; 841  : 								  }

	jmp	$LN53@ms64_param
$LN54@ms64_param:
$LN250@ms64_param:
$LN249@ms64_param:

; 842  : 							  }
; 843  : 							  break;

	jmp	$LN41@ms64_param
$LN254@ms64_param:

; 844  : 						  case 32:
; 845  : 							  if ((vcallpass == 0) && t->e.structinfo->stype == MM256)

	cmp	DWORD PTR vcallpass, 0
	jne	SHORT $LN255@ms64_param
	mov	rax, QWORD PTR t$[rsp]
	mov	rax, QWORD PTR [rax+96]
	cmp	DWORD PTR [rax+16], 2
	jne	SHORT $LN255@ms64_param

; 846  : 							  {
; 847  : 								  AddLineQueueX("vmovups %r,oword ptr %s", T_YMM0 + index, paramvalue);

	mov	eax, DWORD PTR index$[rsp]
	add	eax, 56					; 00000038H
	mov	r8, QWORD PTR paramvalue$[rsp]
	mov	edx, eax
	lea	rcx, OFFSET FLAT:$SG11545
	call	AddLineQueueX

; 848  : 								  info->xyzused[index] = 1;

	movsxd	rax, DWORD PTR index$[rsp]
	mov	rcx, QWORD PTR info$[rsp]
	mov	BYTE PTR [rcx+rax+74], 1

; 849  : 							  }

	jmp	$LN256@ms64_param
$LN255@ms64_param:

; 850  : 							  else if ((vcallpass == 1) && (t->e.structinfo->isHFA || t->e.structinfo->isHVA))

	cmp	DWORD PTR vcallpass, 1
	jne	$LN257@ms64_param
	mov	rax, QWORD PTR t$[rsp]
	mov	rax, QWORD PTR [rax+96]
	movzx	eax, BYTE PTR [rax+22]
	test	eax, eax
	jne	SHORT $LN258@ms64_param
	mov	rax, QWORD PTR t$[rsp]
	mov	rax, QWORD PTR [rax+96]
	movzx	eax, BYTE PTR [rax+21]
	test	eax, eax
	je	$LN257@ms64_param
$LN258@ms64_param:

; 851  : 							  {
; 852  : 								  for (i = 0, j = 0; i < memberCount; i++) {

	mov	DWORD PTR i$[rsp], 0
	mov	DWORD PTR j$[rsp], 0
	jmp	SHORT $LN60@ms64_param
$LN58@ms64_param:
	mov	eax, DWORD PTR i$[rsp]
	inc	eax
	mov	DWORD PTR i$[rsp], eax
$LN60@ms64_param:
	mov	eax, DWORD PTR memberCount$[rsp]
	cmp	DWORD PTR i$[rsp], eax
	jge	SHORT $LN59@ms64_param
$LN61@ms64_param:

; 853  : 									  while (info->xyzused[j] != 0) j++;

	movsxd	rax, DWORD PTR j$[rsp]
	mov	rcx, QWORD PTR info$[rsp]
	movzx	eax, BYTE PTR [rcx+rax+74]
	test	eax, eax
	je	SHORT $LN62@ms64_param
	mov	eax, DWORD PTR j$[rsp]
	inc	eax
	mov	DWORD PTR j$[rsp], eax
	jmp	SHORT $LN61@ms64_param
$LN62@ms64_param:

; 854  : 									  if (i == 0) AddLineQueueX("vmovups %r,ymmword ptr %s", T_YMM0 + j, paramvalue);

	cmp	DWORD PTR i$[rsp], 0
	jne	SHORT $LN259@ms64_param
	mov	eax, DWORD PTR j$[rsp]
	add	eax, 56					; 00000038H
	mov	r8, QWORD PTR paramvalue$[rsp]
	mov	edx, eax
	lea	rcx, OFFSET FLAT:$SG11550
	call	AddLineQueueX
	jmp	SHORT $LN260@ms64_param
$LN259@ms64_param:

; 855  : 									  else      AddLineQueueX("vmovups %r,ymmword ptr [%s+%d]", T_YMM0 + j, paramvalue, i * 32);

	imul	eax, DWORD PTR i$[rsp], 32		; 00000020H
	mov	ecx, DWORD PTR j$[rsp]
	add	ecx, 56					; 00000038H
	mov	r9d, eax
	mov	r8, QWORD PTR paramvalue$[rsp]
	mov	edx, ecx
	lea	rcx, OFFSET FLAT:$SG11551
	call	AddLineQueueX
$LN260@ms64_param:

; 856  : 									  info->xyzused[j] = 1;

	movsxd	rax, DWORD PTR j$[rsp]
	mov	rcx, QWORD PTR info$[rsp]
	mov	BYTE PTR [rcx+rax+74], 1

; 857  : 								  }

	jmp	$LN58@ms64_param
$LN59@ms64_param:
$LN257@ms64_param:
$LN256@ms64_param:
$LN41@ms64_param:
$LN231@ms64_param:

; 858  : 							  }
; 859  : 							  break;
; 860  : #if EVEXSUPP 
; 861  : 						  case 64:
; 862  : 							  if ((vcallpass == 1) && (t->e.structinfo->isHFA || t->e.structinfo->isHVA))
; 863  : 							  {
; 864  : 								  for (i = 0, j = 0; i < memberCount; i++) {
; 865  : 									  while (info->xyzused[j] != 0) j++;
; 866  : 									  if (i == 0) AddLineQueueX("vmovups %r,zmmword ptr %s", T_ZMM0 + j, paramvalue);
; 867  : 									  else      AddLineQueueX("vmovups %r,zmmword ptr [%s+%d]", T_ZMM0 + j, paramvalue, i * 64);
; 868  : 									  info->xyzused[j] = 1;
; 869  : 								  }
; 870  : 							  }
; 871  : 							  break;
; 872  : #endif 
; 873  : 						  }
; 874  : 					  }
; 875  : 				  }

	jmp	$LN206@ms64_param
$LN205@ms64_param:

; 876  : 				  else if (vcallpass == 0) {

	cmp	DWORD PTR vcallpass, 0
	jne	$LN261@ms64_param

; 877  : 					  switch (psize) {

	mov	eax, DWORD PTR psize$[rsp]
	mov	DWORD PTR tv1315[rsp], eax
	cmp	DWORD PTR tv1315[rsp], 4
	je	SHORT $LN262@ms64_param
	cmp	DWORD PTR tv1315[rsp], 8
	je	$LN265@ms64_param
	cmp	DWORD PTR tv1315[rsp], 16
	je	$LN268@ms64_param
	cmp	DWORD PTR tv1315[rsp], 32		; 00000020H
	je	$LN274@ms64_param
	jmp	$LN63@ms64_param
$LN262@ms64_param:

; 878  : 					  case 4:
; 879  : 						  if (opnd->kind == EXPR_FLOAT) {

	mov	rax, QWORD PTR opnd$[rsp]
	cmp	DWORD PTR [rax+60], 3
	jne	SHORT $LN263@ms64_param

; 880  : 							  AddLineQueueX("vmovss %r,dword ptr %s", T_XMM0 + index, paramvalue);

	mov	eax, DWORD PTR index$[rsp]
	add	eax, 40					; 00000028H
	mov	r8, QWORD PTR paramvalue$[rsp]
	mov	edx, eax
	lea	rcx, OFFSET FLAT:$SG11556
	call	AddLineQueueX

; 881  : 							  info->vregs[index] = 1;

	movsxd	rax, DWORD PTR index$[rsp]
	mov	rcx, QWORD PTR info$[rsp]
	mov	BYTE PTR [rcx+rax+68], 1

; 882  : 						  }

	jmp	SHORT $LN264@ms64_param
$LN263@ms64_param:

; 883  : 						  else
; 884  : 							  AddLineQueueX("mov %r, qword ptr %s", ms64_regs[index + 2 * 4], paramvalue);

	mov	eax, DWORD PTR index$[rsp]
	add	eax, 8
	cdqe
	lea	rcx, OFFSET FLAT:ms64_regs
	mov	r8, QWORD PTR paramvalue$[rsp]
	mov	edx, DWORD PTR [rcx+rax*4]
	lea	rcx, OFFSET FLAT:$SG11557
	call	AddLineQueueX
$LN264@ms64_param:

; 885  : 						  break;

	jmp	$LN63@ms64_param
$LN265@ms64_param:

; 886  : 					  case 8:
; 887  : 						  if (opnd->kind == EXPR_FLOAT) {

	mov	rax, QWORD PTR opnd$[rsp]
	cmp	DWORD PTR [rax+60], 3
	jne	SHORT $LN266@ms64_param

; 888  : 							  AddLineQueueX("vmovsd %r,qword ptr %s", T_XMM0 + index, paramvalue);

	mov	eax, DWORD PTR index$[rsp]
	add	eax, 40					; 00000028H
	mov	r8, QWORD PTR paramvalue$[rsp]
	mov	edx, eax
	lea	rcx, OFFSET FLAT:$SG11561
	call	AddLineQueueX

; 889  : 							  info->vregs[index] = 1;

	movsxd	rax, DWORD PTR index$[rsp]
	mov	rcx, QWORD PTR info$[rsp]
	mov	BYTE PTR [rcx+rax+68], 1

; 890  : 						  }

	jmp	SHORT $LN267@ms64_param
$LN266@ms64_param:

; 891  : 						  else
; 892  : 							  AddLineQueueX("mov %r, qword ptr %s", ms64_regs[index + 2 * 4], paramvalue);

	mov	eax, DWORD PTR index$[rsp]
	add	eax, 8
	cdqe
	lea	rcx, OFFSET FLAT:ms64_regs
	mov	r8, QWORD PTR paramvalue$[rsp]
	mov	edx, DWORD PTR [rcx+rax*4]
	lea	rcx, OFFSET FLAT:$SG11562
	call	AddLineQueueX
$LN267@ms64_param:

; 893  : 						  break;

	jmp	$LN63@ms64_param
$LN268@ms64_param:

; 894  : 					  case 16:
; 895  : 						  if (opnd->kind == EXPR_REG && opnd->indirect == FALSE) {

	mov	rax, QWORD PTR opnd$[rsp]
	cmp	DWORD PTR [rax+60], 2
	jne	$LN269@ms64_param
	mov	rax, QWORD PTR opnd$[rsp]
	mov	eax, DWORD PTR [rax+72]
	and	eax, 1
	test	eax, eax
	jne	SHORT $LN269@ms64_param

; 896  : 							  if (GetValueSp(reg) & OP_XMM) {

	movsxd	rax, DWORD PTR reg$[rsp]
	imul	rax, rax, 12
	lea	rcx, OFFSET FLAT:SpecialTable
	mov	eax, DWORD PTR [rcx+rax]
	and	eax, 32					; 00000020H
	test	eax, eax
	je	SHORT $LN271@ms64_param

; 897  : 								  if (reg == T_XMM0 + index)

	mov	eax, DWORD PTR index$[rsp]
	add	eax, 40					; 00000028H
	cmp	DWORD PTR reg$[rsp], eax
	jne	SHORT $LN272@ms64_param

; 898  : 									  DebugMsg(("ms64_param(%s, param=%u): argument optimized\n", proc->sym.name, index));

	mov	r8d, DWORD PTR index$[rsp]
	mov	rax, QWORD PTR proc$[rsp]
	mov	rdx, QWORD PTR [rax+8]
	lea	rcx, OFFSET FLAT:$SG11569
	call	DoDebugMsg
	jmp	SHORT $LN273@ms64_param
$LN272@ms64_param:

; 899  : 								  else
; 900  : 									  AddLineQueueX("vmovaps %r,oword ptr %s", T_XMM0 + index, paramvalue);

	mov	eax, DWORD PTR index$[rsp]
	add	eax, 40					; 00000028H
	mov	r8, QWORD PTR paramvalue$[rsp]
	mov	edx, eax
	lea	rcx, OFFSET FLAT:$SG11570
	call	AddLineQueueX
$LN273@ms64_param:
$LN271@ms64_param:

; 901  : 							  }
; 902  : 						  }

	jmp	SHORT $LN270@ms64_param
$LN269@ms64_param:

; 903  : 						  else
; 904  : 							  AddLineQueueX("vmovaps %r,oword ptr %s", T_XMM0 + index, paramvalue);

	mov	eax, DWORD PTR index$[rsp]
	add	eax, 40					; 00000028H
	mov	r8, QWORD PTR paramvalue$[rsp]
	mov	edx, eax
	lea	rcx, OFFSET FLAT:$SG11571
	call	AddLineQueueX
$LN270@ms64_param:

; 905  : 						  info->vregs[index] = 1;

	movsxd	rax, DWORD PTR index$[rsp]
	mov	rcx, QWORD PTR info$[rsp]
	mov	BYTE PTR [rcx+rax+68], 1

; 906  : 						  break;

	jmp	SHORT $LN63@ms64_param
$LN274@ms64_param:

; 907  : 					  case 32:
; 908  : 						  info->vregs[index] = 1;

	movsxd	rax, DWORD PTR index$[rsp]
	mov	rcx, QWORD PTR info$[rsp]
	mov	BYTE PTR [rcx+rax+68], 1

; 909  : 						  AddLineQueueX("vmovups %r,oword ptr %s", T_YMM0 + index, paramvalue);

	mov	eax, DWORD PTR index$[rsp]
	add	eax, 56					; 00000038H
	mov	r8, QWORD PTR paramvalue$[rsp]
	mov	edx, eax
	lea	rcx, OFFSET FLAT:$SG11573
	call	AddLineQueueX
$LN63@ms64_param:
$LN261@ms64_param:
$LN206@ms64_param:

; 910  : 						  break;
; 911  : #if EVEXSUPP 
; 912  : 					  case 32:
; 913  : 						  info->vregs[index] = 1;
; 914  : 						  AddLineQueueX("vmovups %r,zmmword ptr %s", T_ZMM0 + index, paramvalue);
; 915  : 						  break;
; 916  : #endif
; 917  : 					  }
; 918  : 				  }
; 919  : 			  }

	jmp	$LN204@ms64_param
$LN203@ms64_param:
$uselea$337:

; 920  : 			  else
; 921  : 			  {
; 922  :       uselea:
; 923  : 
; 924  : 				  if ((proc->sym.langtype == LANG_VECTORCALL))

	mov	rax, QWORD PTR proc$[rsp]
	cmp	DWORD PTR [rax+76], 8
	jne	$LN275@ms64_param

; 925  : 				  {
; 926  : 					  if (index < 4)

	cmp	DWORD PTR index$[rsp], 4
	jge	$LN277@ms64_param

; 927  : 					  {
; 928  : 						  *regs_used |= (1 << (index + RPAR_START)); /* Flag the appropriate GP register as used now for the reference */

	mov	eax, DWORD PTR index$[rsp]
	add	eax, 3
	mov	ecx, 1
	mov	DWORD PTR tv2292[rsp], ecx
	movzx	ecx, al
	mov	eax, DWORD PTR tv2292[rsp]
	shl	eax, cl
	mov	rcx, QWORD PTR regs_used$[rsp]
	movzx	ecx, BYTE PTR [rcx]
	or	ecx, eax
	mov	eax, ecx
	mov	rcx, QWORD PTR regs_used$[rsp]
	mov	BYTE PTR [rcx], al

; 929  : 						  info->vecregs[index] = 0; /* In this case the vectorcall item is passed by reference in a GP register, so prevent it being homed in PROC */

	movsxd	rax, DWORD PTR index$[rsp]
	mov	rcx, QWORD PTR info$[rsp]
	mov	BYTE PTR [rcx+rax+56], 0

; 930  : 						  AddLineQueueX(" lea %r, %s", ms64_regs[index + 2 * 4 + (psize > 4 ? 4 : 0)], paramvalue);

	cmp	DWORD PTR psize$[rsp], 4
	jbe	SHORT $LN325@ms64_param
	mov	DWORD PTR tv1406[rsp], 4
	jmp	SHORT $LN326@ms64_param
$LN325@ms64_param:
	mov	DWORD PTR tv1406[rsp], 0
$LN326@ms64_param:
	mov	eax, DWORD PTR index$[rsp]
	mov	ecx, DWORD PTR tv1406[rsp]
	lea	eax, DWORD PTR [rax+rcx+8]
	cdqe
	lea	rcx, OFFSET FLAT:ms64_regs
	mov	r8, QWORD PTR paramvalue$[rsp]
	mov	edx, DWORD PTR [rcx+rax*4]
	lea	rcx, OFFSET FLAT:$SG11578
	call	AddLineQueueX

; 931  : 					  }

	jmp	SHORT $LN278@ms64_param
$LN277@ms64_param:

; 932  : 					  else
; 933  : 					  {
; 934  : 						  *regs_used |= R0_USED;

	mov	rax, QWORD PTR regs_used$[rsp]
	movzx	eax, BYTE PTR [rax]
	or	eax, 1
	mov	rcx, QWORD PTR regs_used$[rsp]
	mov	BYTE PTR [rcx], al

; 935  : 						  AddLineQueueX(" lea %r, %s", T_RAX, paramvalue);

	mov	r8, QWORD PTR paramvalue$[rsp]
	mov	edx, 115				; 00000073H
	lea	rcx, OFFSET FLAT:$SG11579
	call	AddLineQueueX

; 936  : 						  AddLineQueueX(" mov qword ptr [%r+%u], %r", T_RSP, NUMQUAL index * 8, T_RAX);

	mov	eax, DWORD PTR index$[rsp]
	shl	eax, 3
	mov	r9d, 115				; 00000073H
	mov	r8d, eax
	mov	edx, 119				; 00000077H
	lea	rcx, OFFSET FLAT:$SG11580
	call	AddLineQueueX

; 937  : 						  return(1);

	mov	eax, 1
	jmp	$LN1@ms64_param
$LN278@ms64_param:

; 938  : 
; 939  : 					  }
; 940  : 				  }

	jmp	SHORT $LN276@ms64_param
$LN275@ms64_param:

; 941  : 				  else
; 942  : 				  {
; 943  : 					  AddLineQueueX(" lea %r, %s", ms64_regs[index + 2 * 4 + (psize > 4 ? 4 : 0)], paramvalue);

	cmp	DWORD PTR psize$[rsp], 4
	jbe	SHORT $LN327@ms64_param
	mov	DWORD PTR tv1427[rsp], 4
	jmp	SHORT $LN328@ms64_param
$LN327@ms64_param:
	mov	DWORD PTR tv1427[rsp], 0
$LN328@ms64_param:
	mov	eax, DWORD PTR index$[rsp]
	mov	ecx, DWORD PTR tv1427[rsp]
	lea	eax, DWORD PTR [rax+rcx+8]
	cdqe
	lea	rcx, OFFSET FLAT:ms64_regs
	mov	r8, QWORD PTR paramvalue$[rsp]
	mov	edx, DWORD PTR [rcx+rax*4]
	lea	rcx, OFFSET FLAT:$SG11581
	call	AddLineQueueX
$LN276@ms64_param:
$LN204@ms64_param:

; 944  : 				  }
; 945  : 			  }
; 946  : 		  }

	jmp	SHORT $LN202@ms64_param
$LN201@ms64_param:

; 947  :           else
; 948  :                 EmitErr( INVOKE_ARGUMENT_TYPE_MISMATCH, index+1 );

	mov	eax, DWORD PTR index$[rsp]
	inc	eax
	mov	edx, eax
	mov	ecx, 145				; 00000091H
	call	EmitErr
$LN202@ms64_param:

; 949  :             return( 1 );

	mov	eax, 1
	jmp	$LN1@ms64_param
$LN199@ms64_param:

; 950  :         }
; 951  :         
; 952  : 	  if (vcallpass == 0)

	cmp	DWORD PTR vcallpass, 0
	jne	$LN279@ms64_param

; 953  : 	  {
; 954  : 		  /* register argument? */
; 955  : 		  if (opnd->kind == EXPR_REG && opnd->indirect == FALSE) {

	mov	rax, QWORD PTR opnd$[rsp]
	cmp	DWORD PTR [rax+60], 2
	jne	SHORT $LN280@ms64_param
	mov	rax, QWORD PTR opnd$[rsp]
	mov	eax, DWORD PTR [rax+72]
	and	eax, 1
	test	eax, eax
	jne	SHORT $LN280@ms64_param

; 956  : 			  reg = opnd->base_reg->tokval;

	mov	rax, QWORD PTR opnd$[rsp]
	mov	rax, QWORD PTR [rax+24]
	mov	eax, DWORD PTR [rax+16]
	mov	DWORD PTR reg$[rsp], eax

; 957  : 			  size = SizeFromRegister(reg);

	mov	ecx, DWORD PTR reg$[rsp]
	call	SizeFromRegister
	mov	DWORD PTR size$[rsp], eax

; 958  : 		  }

	jmp	$LN281@ms64_param
$LN280@ms64_param:

; 959  : 		  else if (opnd->kind == EXPR_CONST || opnd->kind == EXPR_FLOAT) {

	mov	rax, QWORD PTR opnd$[rsp]
	cmp	DWORD PTR [rax+60], 0
	je	SHORT $LN284@ms64_param
	mov	rax, QWORD PTR opnd$[rsp]
	cmp	DWORD PTR [rax+60], 3
	jne	SHORT $LN282@ms64_param
$LN284@ms64_param:

; 960  : 			  size = psize;

	mov	eax, DWORD PTR psize$[rsp]
	mov	DWORD PTR size$[rsp], eax

; 961  : 		  }

	jmp	$LN283@ms64_param
$LN282@ms64_param:

; 962  : 		  else if (opnd->mem_type != MT_EMPTY) {

	mov	rax, QWORD PTR opnd$[rsp]
	cmp	DWORD PTR [rax+64], 192			; 000000c0H
	je	SHORT $LN285@ms64_param

; 963  : 			  size = SizeFromMemtype(opnd->mem_type, USE64, opnd->type);

	mov	rax, QWORD PTR opnd$[rsp]
	mov	r8, QWORD PTR [rax+96]
	mov	edx, 2
	mov	rax, QWORD PTR opnd$[rsp]
	mov	ecx, DWORD PTR [rax+64]
	call	SizeFromMemtype
	mov	DWORD PTR size$[rsp], eax

; 964  : 		  }

	jmp	$LN286@ms64_param
$LN285@ms64_param:

; 965  : 		  else if (opnd->kind == EXPR_ADDR && opnd->sym->state == SYM_UNDEFINED) {

	mov	rax, QWORD PTR opnd$[rsp]
	cmp	DWORD PTR [rax+60], 1
	jne	SHORT $LN287@ms64_param
	mov	rax, QWORD PTR opnd$[rsp]
	mov	rax, QWORD PTR [rax+80]
	cmp	DWORD PTR [rax+32], 0
	jne	SHORT $LN287@ms64_param

; 966  : 			  DebugMsg1(("ms64_param(%s, param=%u): forward ref=%s, assumed size=%u\n", proc->sym.name, index, opnd->sym->name, psize));

	mov	rax, QWORD PTR opnd$[rsp]
	mov	rax, QWORD PTR [rax+80]
	mov	ecx, DWORD PTR psize$[rsp]
	mov	DWORD PTR [rsp+32], ecx
	mov	r9, QWORD PTR [rax+8]
	mov	r8d, DWORD PTR index$[rsp]
	mov	rax, QWORD PTR proc$[rsp]
	mov	rdx, QWORD PTR [rax+8]
	lea	rcx, OFFSET FLAT:$SG11592
	call	DoDebugMsg1

; 967  : 			  size = psize;

	mov	eax, DWORD PTR psize$[rsp]
	mov	DWORD PTR size$[rsp], eax

; 968  : 		  }

	jmp	SHORT $LN288@ms64_param
$LN287@ms64_param:

; 969  : 		  else
; 970  : 			  size = (opnd->instr == T_OFFSET ? 8 : 4);

	mov	rax, QWORD PTR opnd$[rsp]
	cmp	DWORD PTR [rax+56], 241			; 000000f1H
	jne	SHORT $LN329@ms64_param
	mov	DWORD PTR tv1506[rsp], 8
	jmp	SHORT $LN330@ms64_param
$LN329@ms64_param:
	mov	DWORD PTR tv1506[rsp], 4
$LN330@ms64_param:
	mov	eax, DWORD PTR tv1506[rsp]
	mov	DWORD PTR size$[rsp], eax
$LN288@ms64_param:
$LN286@ms64_param:
$LN283@ms64_param:
$LN281@ms64_param:

; 971  : 
; 972  : 		  /* v2.11: allow argument extension, so long as the target isn't a pointer */
; 973  : 		  //if ( size != psize && param->sym.is_vararg == FALSE ) {
; 974  : 		  if (size > psize || (size < psize && param->sym.mem_type == MT_PTR)) {

	mov	eax, DWORD PTR psize$[rsp]
	cmp	DWORD PTR size$[rsp], eax
	ja	SHORT $LN290@ms64_param
	mov	eax, DWORD PTR psize$[rsp]
	cmp	DWORD PTR size$[rsp], eax
	jae	SHORT $LN289@ms64_param
	mov	rax, QWORD PTR param$[rsp]
	cmp	DWORD PTR [rax+36], 195			; 000000c3H
	jne	SHORT $LN289@ms64_param
$LN290@ms64_param:

; 975  : 			  DebugMsg(("ms64_param(%s, param=%u): type error size.p/a=%u/%u flags=%X\n", proc->sym.name, index, psize, size, *regs_used));

	mov	rax, QWORD PTR regs_used$[rsp]
	movzx	eax, BYTE PTR [rax]
	mov	DWORD PTR [rsp+40], eax
	mov	eax, DWORD PTR size$[rsp]
	mov	DWORD PTR [rsp+32], eax
	mov	r9d, DWORD PTR psize$[rsp]
	mov	r8d, DWORD PTR index$[rsp]
	mov	rax, QWORD PTR proc$[rsp]
	mov	rdx, QWORD PTR [rax+8]
	lea	rcx, OFFSET FLAT:$SG11595
	call	DoDebugMsg

; 976  : 			  EmitErr(INVOKE_ARGUMENT_TYPE_MISMATCH, index + 1);

	mov	eax, DWORD PTR index$[rsp]
	inc	eax
	mov	edx, eax
	mov	ecx, 145				; 00000091H
	call	EmitErr
$LN289@ms64_param:

; 977  : 		  }
; 978  : 		  /* v2.11: use parameter size to allow argument extension */
; 979  : 		  switch (psize) {

	mov	eax, DWORD PTR psize$[rsp]
	mov	DWORD PTR tv1519[rsp], eax
	cmp	DWORD PTR tv1519[rsp], 1
	je	SHORT $LN291@ms64_param
	cmp	DWORD PTR tv1519[rsp], 2
	je	SHORT $LN292@ms64_param
	cmp	DWORD PTR tv1519[rsp], 4
	je	SHORT $LN293@ms64_param
	jmp	SHORT $LN294@ms64_param
$LN291@ms64_param:

; 980  : 		  case 1: base = 0 * 4; break;

	mov	DWORD PTR base$[rsp], 0
	jmp	SHORT $LN65@ms64_param
$LN292@ms64_param:

; 981  : 		  case 2: base = 1 * 4; break;

	mov	DWORD PTR base$[rsp], 4
	jmp	SHORT $LN65@ms64_param
$LN293@ms64_param:

; 982  : 		  case 4: base = 2 * 4; break;

	mov	DWORD PTR base$[rsp], 8
	jmp	SHORT $LN65@ms64_param
$LN294@ms64_param:

; 983  : 		  default:base = 3 * 4; break;

	mov	DWORD PTR base$[rsp], 12
$LN65@ms64_param:

; 984  : 		  }
; 985  : 		  /* optimization if the register holds the value already */
; 986  : 		  if (opnd->kind == EXPR_REG && opnd->indirect == FALSE) {

	mov	rax, QWORD PTR opnd$[rsp]
	cmp	DWORD PTR [rax+60], 2
	jne	$LN295@ms64_param
	mov	rax, QWORD PTR opnd$[rsp]
	mov	eax, DWORD PTR [rax+72]
	and	eax, 1
	test	eax, eax
	jne	$LN295@ms64_param

; 987  : 			  if (GetValueSp(reg) & OP_R) {

	movsxd	rax, DWORD PTR reg$[rsp]
	imul	rax, rax, 12
	lea	rcx, OFFSET FLAT:SpecialTable
	mov	eax, DWORD PTR [rcx+rax]
	and	eax, 15
	test	eax, eax
	je	$LN296@ms64_param

; 988  : 				  if (ms64_regs[index + base] == reg) {

	mov	eax, DWORD PTR base$[rsp]
	mov	ecx, DWORD PTR index$[rsp]
	add	ecx, eax
	mov	eax, ecx
	cdqe
	lea	rcx, OFFSET FLAT:ms64_regs
	mov	edx, DWORD PTR reg$[rsp]
	cmp	DWORD PTR [rcx+rax*4], edx
	jne	SHORT $LN297@ms64_param

; 989  : 					  DebugMsg(("ms64_param(%s, param=%u): argument optimized\n", proc->sym.name, index));

	mov	r8d, DWORD PTR index$[rsp]
	mov	rax, QWORD PTR proc$[rsp]
	mov	rdx, QWORD PTR [rax+8]
	lea	rcx, OFFSET FLAT:$SG11603
	call	DoDebugMsg

; 990  : 
; 991  : 					  return(1);

	mov	eax, 1
	jmp	$LN1@ms64_param
$LN297@ms64_param:

; 992  : 				  }
; 993  : 				  i = GetRegNo(reg);

	movsxd	rax, DWORD PTR reg$[rsp]
	imul	rax, rax, 12
	lea	rcx, OFFSET FLAT:SpecialTable
	movzx	eax, BYTE PTR [rcx+rax+10]
	mov	DWORD PTR i$[rsp], eax

; 994  : 				  if (REGPAR_WIN64 & (1 << i)) {

	mov	eax, DWORD PTR i$[rsp]
	mov	ecx, 1
	mov	DWORD PTR tv2343[rsp], ecx
	movzx	ecx, al
	mov	eax, DWORD PTR tv2343[rsp]
	shl	eax, cl
	and	eax, 774				; 00000306H
	test	eax, eax
	je	SHORT $LN298@ms64_param

; 995  : 					  i = GetParmIndex(i);

	cmp	DWORD PTR i$[rsp], 8
	jl	SHORT $LN331@ms64_param
	mov	eax, DWORD PTR i$[rsp]
	sub	eax, 6
	mov	DWORD PTR tv1557[rsp], eax
	jmp	SHORT $LN332@ms64_param
$LN331@ms64_param:
	mov	eax, DWORD PTR i$[rsp]
	dec	eax
	mov	DWORD PTR tv1557[rsp], eax
$LN332@ms64_param:
	mov	eax, DWORD PTR tv1557[rsp]
	mov	DWORD PTR i$[rsp], eax

; 996  : 					  if (*regs_used & (1 << (i + RPAR_START)))

	mov	rax, QWORD PTR regs_used$[rsp]
	movzx	eax, BYTE PTR [rax]
	mov	ecx, DWORD PTR i$[rsp]
	add	ecx, 3
	mov	edx, 1
	shl	edx, cl
	mov	ecx, edx
	and	eax, ecx
	test	eax, eax
	je	SHORT $LN299@ms64_param

; 997  : 						  EmitErr(REGISTER_VALUE_OVERWRITTEN_BY_INVOKE);

	mov	ecx, 165				; 000000a5H
	call	EmitErr
$LN299@ms64_param:
$LN298@ms64_param:
$LN296@ms64_param:
$LN295@ms64_param:

; 998  : 				  }
; 999  : 			  }
; 1000 : 		  }
; 1001 : 
; 1002 : 		  /* v2.11: allow argument extension */
; 1003 : 		  if (size < psize)

	mov	eax, DWORD PTR psize$[rsp]
	cmp	DWORD PTR size$[rsp], eax
	jae	$LN300@ms64_param

; 1004 : 			  if (size == 4) {

	cmp	DWORD PTR size$[rsp], 4
	jne	SHORT $LN302@ms64_param

; 1005 : 				  if (IS_SIGNED(opnd->mem_type))

	mov	rax, QWORD PTR opnd$[rsp]
	mov	eax, DWORD PTR [rax+64]
	and	eax, 192				; 000000c0H
	cmp	eax, 64					; 00000040H
	jne	SHORT $LN304@ms64_param

; 1006 : 					  AddLineQueueX(" movsxd %r, %s", ms64_regs[index + base], paramvalue);

	mov	eax, DWORD PTR base$[rsp]
	mov	ecx, DWORD PTR index$[rsp]
	add	ecx, eax
	mov	eax, ecx
	cdqe
	lea	rcx, OFFSET FLAT:ms64_regs
	mov	r8, QWORD PTR paramvalue$[rsp]
	mov	edx, DWORD PTR [rcx+rax*4]
	lea	rcx, OFFSET FLAT:$SG11612
	call	AddLineQueueX
	jmp	SHORT $LN305@ms64_param
$LN304@ms64_param:

; 1007 : 				  else
; 1008 : 					  AddLineQueueX(" mov %r, %s", ms64_regs[index + 2 * 4], paramvalue);

	mov	eax, DWORD PTR index$[rsp]
	add	eax, 8
	cdqe
	lea	rcx, OFFSET FLAT:ms64_regs
	mov	r8, QWORD PTR paramvalue$[rsp]
	mov	edx, DWORD PTR [rcx+rax*4]
	lea	rcx, OFFSET FLAT:$SG11613
	call	AddLineQueueX
$LN305@ms64_param:

; 1009 : 			  }

	jmp	SHORT $LN303@ms64_param
$LN302@ms64_param:

; 1010 : 			  else
; 1011 : 				  AddLineQueueX(" mov%sx %r, %s", IS_SIGNED(opnd->mem_type) ? "s" : "z", ms64_regs[index + base], paramvalue);

	mov	rax, QWORD PTR opnd$[rsp]
	mov	eax, DWORD PTR [rax+64]
	and	eax, 192				; 000000c0H
	cmp	eax, 64					; 00000040H
	jne	SHORT $LN333@ms64_param
	lea	rax, OFFSET FLAT:$SG11614
	mov	QWORD PTR tv1592[rsp], rax
	jmp	SHORT $LN334@ms64_param
$LN333@ms64_param:
	lea	rax, OFFSET FLAT:$SG11615
	mov	QWORD PTR tv1592[rsp], rax
$LN334@ms64_param:
	mov	eax, DWORD PTR base$[rsp]
	mov	ecx, DWORD PTR index$[rsp]
	add	ecx, eax
	mov	eax, ecx
	cdqe
	lea	rcx, OFFSET FLAT:ms64_regs
	mov	r9, QWORD PTR paramvalue$[rsp]
	mov	r8d, DWORD PTR [rcx+rax*4]
	mov	rdx, QWORD PTR tv1592[rsp]
	lea	rcx, OFFSET FLAT:$SG11616
	call	AddLineQueueX
$LN303@ms64_param:
	jmp	$LN301@ms64_param
$LN300@ms64_param:

; 1012 : 		  else {
; 1013 : 			  /* v2.12 added by habran : if parametar  is zero use 'xor reg,reg' instead of 'mov reg,0' */
; 1014 : 			  if ((!strcasecmp(paramvalue, "0") || (!strcasecmp(paramvalue, "NULL")) || (!strcasecmp(paramvalue, "FALSE")))) {

	lea	rdx, OFFSET FLAT:$SG11620
	mov	rcx, QWORD PTR paramvalue$[rsp]
	call	_stricmp
	test	eax, eax
	je	SHORT $LN308@ms64_param
	lea	rdx, OFFSET FLAT:$SG11621
	mov	rcx, QWORD PTR paramvalue$[rsp]
	call	_stricmp
	test	eax, eax
	je	SHORT $LN308@ms64_param
	lea	rdx, OFFSET FLAT:$SG11622
	mov	rcx, QWORD PTR paramvalue$[rsp]
	call	_stricmp
	test	eax, eax
	jne	$LN306@ms64_param
$LN308@ms64_param:

; 1015 : 				  if (ms64_regs[index + base] > T_R9D) index -= 4;

	mov	eax, DWORD PTR base$[rsp]
	mov	ecx, DWORD PTR index$[rsp]
	add	ecx, eax
	mov	eax, ecx
	cdqe
	lea	rcx, OFFSET FLAT:ms64_regs
	cmp	DWORD PTR [rcx+rax*4], 108		; 0000006cH
	jle	SHORT $LN309@ms64_param
	mov	eax, DWORD PTR index$[rsp]
	sub	eax, 4
	mov	DWORD PTR index$[rsp], eax
$LN309@ms64_param:

; 1016 : 				  AddLineQueueX(" xor %r, %r", ms64_regs[index + base], ms64_regs[index + base]);

	mov	eax, DWORD PTR base$[rsp]
	mov	ecx, DWORD PTR index$[rsp]
	add	ecx, eax
	mov	eax, ecx
	cdqe
	lea	rcx, OFFSET FLAT:ms64_regs
	mov	edx, DWORD PTR base$[rsp]
	mov	r8d, DWORD PTR index$[rsp]
	add	r8d, edx
	mov	edx, r8d
	movsxd	rdx, edx
	lea	r8, OFFSET FLAT:ms64_regs
	mov	QWORD PTR tv1677[rsp], r8
	mov	r8d, DWORD PTR [rcx+rax*4]
	mov	rax, QWORD PTR tv1677[rsp]
	mov	edx, DWORD PTR [rax+rdx*4]
	lea	rcx, OFFSET FLAT:$SG11624
	call	AddLineQueueX

; 1017 : 				  return(1);

	mov	eax, 1
	jmp	$LN1@ms64_param

; 1018 : 			  }

	jmp	$LN307@ms64_param
$LN306@ms64_param:

; 1019 : 			  else
; 1020 : 			  {
; 1021 : 				  if (index > 3)

	cmp	DWORD PTR index$[rsp], 3
	jle	$LN310@ms64_param

; 1022 : 				  {
; 1023 : 					  switch (psize) {

	mov	eax, DWORD PTR psize$[rsp]
	mov	DWORD PTR tv1625[rsp], eax
	cmp	DWORD PTR tv1625[rsp], 1
	je	SHORT $LN312@ms64_param
	cmp	DWORD PTR tv1625[rsp], 2
	je	SHORT $LN313@ms64_param
	cmp	DWORD PTR tv1625[rsp], 4
	je	SHORT $LN314@ms64_param
	jmp	SHORT $LN315@ms64_param
$LN312@ms64_param:

; 1024 : 					  case 1:   i = T_BYTE; break;

	mov	DWORD PTR i$[rsp], 205			; 000000cdH
	jmp	SHORT $LN67@ms64_param
$LN313@ms64_param:

; 1025 : 					  case 2:   i = T_WORD; break;

	mov	DWORD PTR i$[rsp], 207			; 000000cfH
	jmp	SHORT $LN67@ms64_param
$LN314@ms64_param:

; 1026 : 					  case 4:   i = T_DWORD; break;

	mov	DWORD PTR i$[rsp], 209			; 000000d1H
	jmp	SHORT $LN67@ms64_param
$LN315@ms64_param:

; 1027 : 					  default:  i = T_QWORD; break;

	mov	DWORD PTR i$[rsp], 213			; 000000d5H
$LN67@ms64_param:

; 1028 : 					  }
; 1029 : 					  AddLineQueueX(" mov %r ptr [%r+%u], %s", i, T_RSP, NUMQUAL index * 8, paramvalue);

	mov	eax, DWORD PTR index$[rsp]
	shl	eax, 3
	mov	rcx, QWORD PTR paramvalue$[rsp]
	mov	QWORD PTR [rsp+32], rcx
	mov	r9d, eax
	mov	r8d, 119				; 00000077H
	mov	edx, DWORD PTR i$[rsp]
	lea	rcx, OFFSET FLAT:$SG11631
	call	AddLineQueueX

; 1030 : 				  }

	jmp	SHORT $LN311@ms64_param
$LN310@ms64_param:

; 1031 : 				  else
; 1032 : 					  AddLineQueueX(" mov %r, %s", ms64_regs[index + base], paramvalue);

	mov	eax, DWORD PTR base$[rsp]
	mov	ecx, DWORD PTR index$[rsp]
	add	ecx, eax
	mov	eax, ecx
	cdqe
	lea	rcx, OFFSET FLAT:ms64_regs
	mov	r8, QWORD PTR paramvalue$[rsp]
	mov	edx, DWORD PTR [rcx+rax*4]
	lea	rcx, OFFSET FLAT:$SG11632
	call	AddLineQueueX
$LN311@ms64_param:
$LN307@ms64_param:
$LN301@ms64_param:

; 1033 : 			  }
; 1034 : 		  }
; 1035 : 		  *regs_used |= (1 << (index + RPAR_START - 1));

	mov	eax, DWORD PTR index$[rsp]
	add	eax, 2
	mov	ecx, 1
	mov	DWORD PTR tv2381[rsp], ecx
	movzx	ecx, al
	mov	eax, DWORD PTR tv2381[rsp]
	shl	eax, cl
	mov	rcx, QWORD PTR regs_used$[rsp]
	movzx	ecx, BYTE PTR [rcx]
	or	ecx, eax
	mov	eax, ecx
	mov	rcx, QWORD PTR regs_used$[rsp]
	mov	BYTE PTR [rcx], al

; 1036 : 		  DebugMsg1(("ms64_param(%s, param=%u): size=%u flags=%X\n", proc->sym.name, index, size, *regs_used));

	mov	rax, QWORD PTR regs_used$[rsp]
	movzx	eax, BYTE PTR [rax]
	mov	DWORD PTR [rsp+32], eax
	mov	r9d, DWORD PTR size$[rsp]
	mov	r8d, DWORD PTR index$[rsp]
	mov	rax, QWORD PTR proc$[rsp]
	mov	rdx, QWORD PTR [rax+8]
	lea	rcx, OFFSET FLAT:$SG11633
	call	DoDebugMsg1
$LN279@ms64_param:
$LN193@ms64_param:
$LN186@ms64_param:
$LN179@ms64_param:
$LN168@ms64_param:
$LN161@ms64_param:
$vcalldone$336:

; 1037 : 	  }
; 1038 :     }
; 1039 : vcalldone:
; 1040 :     return( 1 );

	mov	eax, 1
$LN1@ms64_param:

; 1041 : }

	add	rsp, 232				; 000000e8H
	ret	0
ms64_param ENDP
_TEXT	ENDS
; Function compile flags: /Odtp
; File d:\hjwasm\hjwasm2.13.1s\hjwasm2.13.1s\invoke.c
_TEXT	SEGMENT
proc$ = 48
numparams$ = 56
value$ = 64
ms64_fcend PROC

; 237  : {

	mov	DWORD PTR [rsp+24], r8d
	mov	DWORD PTR [rsp+16], edx
	mov	QWORD PTR [rsp+8], rcx
	sub	rsp, 40					; 00000028H

; 238  :     /* use <value>, which has been set by ms64_fcstart() */
; 239  :     if ( !( ModuleInfo.win64_flags & W64F_AUTOSTACKSP ) )

	movzx	eax, BYTE PTR ModuleInfo+413
	and	eax, 2
	test	eax, eax
	jne	SHORT $LN2@ms64_fcend

; 240  :         AddLineQueueX( " add %r, %d", T_RSP, value * 8 );

	mov	eax, DWORD PTR value$[rsp]
	shl	eax, 3
	mov	r8d, eax
	mov	edx, 119				; 00000077H
	lea	rcx, OFFSET FLAT:$SG11202
	call	AddLineQueueX
$LN2@ms64_fcend:

; 241  :     return;
; 242  : }

	add	rsp, 40					; 00000028H
	ret	0
ms64_fcend ENDP
_TEXT	ENDS
; Function compile flags: /Odtp
; File d:\hjwasm\hjwasm2.13.1s\hjwasm2.13.1s\invoke.c
_TEXT	SEGMENT
proc$ = 48
numparams$ = 56
start$ = 64
tokenarray$ = 72
value$ = 80
ms64_fcstart PROC

; 208  : {

	mov	QWORD PTR [rsp+32], r9
	mov	DWORD PTR [rsp+24], r8d
	mov	DWORD PTR [rsp+16], edx
	mov	QWORD PTR [rsp+8], rcx
	sub	rsp, 40					; 00000028H

; 209  :     /* v2.04: VARARG didn't work */
; 210  :     if ( proc->e.procinfo->has_vararg ) {

	mov	rax, QWORD PTR proc$[rsp]
	mov	rax, QWORD PTR [rax+96]
	movzx	eax, BYTE PTR [rax+128]
	and	al, 1
	movzx	eax, al
	test	eax, eax
	je	SHORT $LN5@ms64_fcsta

; 211  :         //numparams = ( tokenarray[start].token != T_FINAL ? 1 : 0 );
; 212  :         for ( numparams = 0; tokenarray[start].token != T_FINAL; start++ )

	mov	DWORD PTR numparams$[rsp], 0
	jmp	SHORT $LN4@ms64_fcsta
$LN2@ms64_fcsta:
	mov	eax, DWORD PTR start$[rsp]
	inc	eax
	mov	DWORD PTR start$[rsp], eax
$LN4@ms64_fcsta:
	movsxd	rax, DWORD PTR start$[rsp]
	imul	rax, rax, 32				; 00000020H
	mov	rcx, QWORD PTR tokenarray$[rsp]
	movzx	eax, BYTE PTR [rcx+rax]
	test	eax, eax
	je	SHORT $LN3@ms64_fcsta

; 213  :         if (tokenarray[start].token == T_COMMA) {

	movsxd	rax, DWORD PTR start$[rsp]
	imul	rax, rax, 32				; 00000020H
	mov	rcx, QWORD PTR tokenarray$[rsp]
	movzx	eax, BYTE PTR [rcx+rax]
	cmp	eax, 44					; 0000002cH
	jne	SHORT $LN6@ms64_fcsta

; 214  :           numparams++;

	mov	eax, DWORD PTR numparams$[rsp]
	inc	eax
	mov	DWORD PTR numparams$[rsp], eax

; 215  :           sym_ReservedStack->hasinvoke = 1;  //added by habran

	mov	rax, QWORD PTR sym_ReservedStack
	mov	DWORD PTR [rax+16], 1
$LN6@ms64_fcsta:

; 216  :         }

	jmp	SHORT $LN2@ms64_fcsta
$LN3@ms64_fcsta:
$LN5@ms64_fcsta:

; 217  :     }
; 218  :     DebugMsg1(("ms64_fcstart(%s, numparams=%u) vararg=%u\n", proc->sym.name, numparams, proc->e.procinfo->has_vararg ));

	mov	rax, QWORD PTR proc$[rsp]
	mov	rax, QWORD PTR [rax+96]
	movzx	eax, BYTE PTR [rax+128]
	and	al, 1
	movzx	eax, al
	mov	r9d, eax
	mov	r8d, DWORD PTR numparams$[rsp]
	mov	rax, QWORD PTR proc$[rsp]
	mov	rdx, QWORD PTR [rax+8]
	lea	rcx, OFFSET FLAT:$SG11186
	call	DoDebugMsg1

; 219  :     if ( numparams < 4 )

	cmp	DWORD PTR numparams$[rsp], 4
	jge	SHORT $LN7@ms64_fcsta

; 220  :         numparams = 4;

	mov	DWORD PTR numparams$[rsp], 4
	jmp	SHORT $LN8@ms64_fcsta
$LN7@ms64_fcsta:

; 221  :     else if ( numparams & 1 )

	mov	eax, DWORD PTR numparams$[rsp]
	and	eax, 1
	test	eax, eax
	je	SHORT $LN9@ms64_fcsta

; 222  :         numparams++;

	mov	eax, DWORD PTR numparams$[rsp]
	inc	eax
	mov	DWORD PTR numparams$[rsp], eax
$LN9@ms64_fcsta:
$LN8@ms64_fcsta:

; 223  :     *value = numparams;

	mov	rax, QWORD PTR value$[rsp]
	mov	ecx, DWORD PTR numparams$[rsp]
	mov	DWORD PTR [rax], ecx

; 224  :     if ( ModuleInfo.win64_flags & W64F_AUTOSTACKSP ) {

	movzx	eax, BYTE PTR ModuleInfo+413
	and	eax, 2
	test	eax, eax
	je	SHORT $LN10@ms64_fcsta

; 225  :         if ( ( numparams * sizeof( uint_64 ) ) > sym_ReservedStack->value )

	movsxd	rax, DWORD PTR numparams$[rsp]
	shl	rax, 3
	mov	rcx, QWORD PTR sym_ReservedStack
	movsxd	rcx, DWORD PTR [rcx+16]
	cmp	rax, rcx
	jbe	SHORT $LN12@ms64_fcsta

; 226  :             sym_ReservedStack->value = numparams * sizeof( uint_64 );

	movsxd	rax, DWORD PTR numparams$[rsp]
	shl	rax, 3
	mov	rcx, QWORD PTR sym_ReservedStack
	mov	DWORD PTR [rcx+16], eax
$LN12@ms64_fcsta:

; 227  :     } else

	jmp	SHORT $LN11@ms64_fcsta
$LN10@ms64_fcsta:

; 228  :         AddLineQueueX( " sub %r, %d", T_RSP, numparams * sizeof( uint_64 ) );

	movsxd	rax, DWORD PTR numparams$[rsp]
	shl	rax, 3
	mov	r8, rax
	mov	edx, 119				; 00000077H
	lea	rcx, OFFSET FLAT:$SG11193
	call	AddLineQueueX
$LN11@ms64_fcsta:

; 229  :     /* since Win64 fastcall doesn't push, it's a better/faster strategy to
; 230  :      * handle the arguments from left to right.
; 231  :      */
; 232  :     return( 0 );

	xor	eax, eax

; 233  : }

	add	rsp, 40					; 00000028H
	ret	0
ms64_fcstart ENDP
_TEXT	ENDS
; Function compile flags: /Odtp
; File d:\hjwasm\hjwasm2.13.1s\hjwasm2.13.1s\invoke.c
_TEXT	SEGMENT
i$ = 64
qual$ = 68
sreg$1 = 72
p$ = 80
opc$ = 88
psize$ = 92
reg$ = 96
regs$ = 128
buffer$2 = 192
__$ArrayPad$ = 320
proc$ = 352
index$ = 360
param$ = 368
addr$ = 376
opnd$ = 384
paramvalue$ = 392
r0used$ = 400
watc_param PROC

; 1132 : {

	mov	BYTE PTR [rsp+32], r9b
	mov	QWORD PTR [rsp+24], r8
	mov	DWORD PTR [rsp+16], edx
	mov	QWORD PTR [rsp+8], rcx
	sub	rsp, 344				; 00000158H
	mov	rax, QWORD PTR __security_cookie
	xor	rax, rsp
	mov	QWORD PTR __$ArrayPad$[rsp], rax

; 1133 :     int opc;
; 1134 :     int qual;
; 1135 :     int i;
; 1136 :     char regs[64];
; 1137 :     char *reg[4];
; 1138 :     char *p;
; 1139 :     int psize = SizeFromMemtype( param->sym.mem_type, USE_EMPTY, param->sym.type );

	mov	rax, QWORD PTR param$[rsp]
	mov	r8, QWORD PTR [rax+80]
	mov	edx, 254				; 000000feH
	mov	rax, QWORD PTR param$[rsp]
	mov	ecx, DWORD PTR [rax+36]
	call	SizeFromMemtype
	mov	DWORD PTR psize$[rsp], eax

; 1140 : 
; 1141 :     DebugMsg1(("watc_param(%s, param=%u [name=%s, state=%u]),addr=%u: psize=%u\n", proc->sym.name, index, param->sym.name, param->sym.state, addr, psize ));

	movzx	eax, BYTE PTR addr$[rsp]
	mov	ecx, DWORD PTR psize$[rsp]
	mov	DWORD PTR [rsp+48], ecx
	mov	DWORD PTR [rsp+40], eax
	mov	rax, QWORD PTR param$[rsp]
	mov	eax, DWORD PTR [rax+32]
	mov	DWORD PTR [rsp+32], eax
	mov	rax, QWORD PTR param$[rsp]
	mov	r9, QWORD PTR [rax+8]
	mov	r8d, DWORD PTR index$[rsp]
	mov	rax, QWORD PTR proc$[rsp]
	mov	rdx, QWORD PTR [rax+8]
	lea	rcx, OFFSET FLAT:$SG11740
	call	DoDebugMsg1

; 1142 :     if ( param->sym.state != SYM_TMACRO )

	mov	rax, QWORD PTR param$[rsp]
	cmp	DWORD PTR [rax+32], 10
	je	SHORT $LN8@watc_param

; 1143 :         return( 0 );

	xor	eax, eax
	jmp	$LN1@watc_param
$LN8@watc_param:

; 1144 :     DebugMsg1(("watc_param(%s): register param=%s\n", proc->sym.name, param->sym.string_ptr ));

	mov	rax, QWORD PTR param$[rsp]
	mov	r8, QWORD PTR [rax+16]
	mov	rax, QWORD PTR proc$[rsp]
	mov	rdx, QWORD PTR [rax+8]
	lea	rcx, OFFSET FLAT:$SG11742
	call	DoDebugMsg1

; 1145 : 
; 1146 :     fcscratch += CurrWordSize;

	movzx	eax, BYTE PTR ModuleInfo+406
	mov	ecx, DWORD PTR fcscratch
	add	ecx, eax
	mov	eax, ecx
	mov	DWORD PTR fcscratch, eax

; 1147 : 
; 1148 :     /* the "name" might be a register pair */
; 1149 : 
; 1150 :     reg[0] = param->sym.string_ptr;

	mov	eax, 8
	imul	rax, rax, 0
	mov	rcx, QWORD PTR param$[rsp]
	mov	rcx, QWORD PTR [rcx+16]
	mov	QWORD PTR reg$[rsp+rax], rcx

; 1151 :     reg[1] = NULL;

	mov	eax, 8
	imul	rax, rax, 1
	mov	QWORD PTR reg$[rsp+rax], 0

; 1152 :     reg[2] = NULL;

	mov	eax, 8
	imul	rax, rax, 2
	mov	QWORD PTR reg$[rsp+rax], 0

; 1153 :     reg[3] = NULL;

	mov	eax, 8
	imul	rax, rax, 3
	mov	QWORD PTR reg$[rsp+rax], 0

; 1154 :     if ( strchr( reg[0], ':' ) ) {

	mov	eax, 8
	imul	rax, rax, 0
	mov	edx, 58					; 0000003aH
	mov	rcx, QWORD PTR reg$[rsp+rax]
	call	strchr
	test	rax, rax
	je	$LN9@watc_param

; 1155 :         strcpy( regs, reg[0] );

	mov	eax, 8
	imul	rax, rax, 0
	mov	rdx, QWORD PTR reg$[rsp+rax]
	lea	rcx, QWORD PTR regs$[rsp]
	call	strcpy

; 1156 :         fcscratch += CurrWordSize;

	movzx	eax, BYTE PTR ModuleInfo+406
	mov	ecx, DWORD PTR fcscratch
	add	ecx, eax
	mov	eax, ecx
	mov	DWORD PTR fcscratch, eax

; 1157 :         for ( p = regs, i = 0; i < 4; i++ ) {

	lea	rax, QWORD PTR regs$[rsp]
	mov	QWORD PTR p$[rsp], rax
	mov	DWORD PTR i$[rsp], 0
	jmp	SHORT $LN4@watc_param
$LN2@watc_param:
	mov	eax, DWORD PTR i$[rsp]
	inc	eax
	mov	DWORD PTR i$[rsp], eax
$LN4@watc_param:
	cmp	DWORD PTR i$[rsp], 4
	jge	SHORT $LN3@watc_param

; 1158 :             reg[i] = p;

	movsxd	rax, DWORD PTR i$[rsp]
	mov	rcx, QWORD PTR p$[rsp]
	mov	QWORD PTR reg$[rsp+rax*8], rcx

; 1159 :             p = strchr( p, ':' );

	mov	edx, 58					; 0000003aH
	mov	rcx, QWORD PTR p$[rsp]
	call	strchr
	mov	QWORD PTR p$[rsp], rax

; 1160 :             if ( p == NULL )

	cmp	QWORD PTR p$[rsp], 0
	jne	SHORT $LN10@watc_param

; 1161 :                 break;

	jmp	SHORT $LN3@watc_param
$LN10@watc_param:

; 1162 :             *p++ = NULLC;

	mov	rax, QWORD PTR p$[rsp]
	mov	BYTE PTR [rax], 0
	mov	rax, QWORD PTR p$[rsp]
	inc	rax
	mov	QWORD PTR p$[rsp], rax

; 1163 :             p++;

	mov	rax, QWORD PTR p$[rsp]
	inc	rax
	mov	QWORD PTR p$[rsp], rax

; 1164 :         }

	jmp	SHORT $LN2@watc_param
$LN3@watc_param:
$LN9@watc_param:

; 1165 :     }
; 1166 : 
; 1167 :     if ( addr ) {

	movzx	eax, BYTE PTR addr$[rsp]
	test	eax, eax
	je	$LN11@watc_param

; 1168 :         if ( opnd->kind == T_REG || opnd->sym->state == SYM_STACK ) {

	mov	rax, QWORD PTR opnd$[rsp]
	cmp	DWORD PTR [rax+60], 2
	je	SHORT $LN14@watc_param
	mov	rax, QWORD PTR opnd$[rsp]
	mov	rax, QWORD PTR [rax+80]
	cmp	DWORD PTR [rax+32], 5
	jne	SHORT $LN12@watc_param
$LN14@watc_param:

; 1169 :             opc = T_LEA;

	mov	DWORD PTR opc$[rsp], 634		; 0000027aH

; 1170 :             qual = T_NULL;

	mov	DWORD PTR qual$[rsp], 0

; 1171 :         } else {

	jmp	SHORT $LN13@watc_param
$LN12@watc_param:

; 1172 :             opc = T_MOV;

	mov	DWORD PTR opc$[rsp], 606		; 0000025eH

; 1173 :             qual = T_OFFSET;

	mov	DWORD PTR qual$[rsp], 241		; 000000f1H
$LN13@watc_param:

; 1174 :         }
; 1175 :         /* v2.05: filling of segment part added */
; 1176 :         i = 0;

	mov	DWORD PTR i$[rsp], 0

; 1177 :         if ( reg[1] != NULL ) {

	mov	eax, 8
	imul	rax, rax, 1
	cmp	QWORD PTR reg$[rsp+rax], 0
	je	$LN15@watc_param

; 1178 :             char buffer[128];
; 1179 :             short sreg;
; 1180 :             if ( sreg = GetSegmentPart( opnd, buffer, paramvalue ) )

	mov	r8, QWORD PTR paramvalue$[rsp]
	lea	rdx, QWORD PTR buffer$2[rsp]
	mov	rcx, QWORD PTR opnd$[rsp]
	call	GetSegmentPart
	mov	WORD PTR sreg$1[rsp], ax
	movsx	eax, WORD PTR sreg$1[rsp]
	test	eax, eax
	je	SHORT $LN16@watc_param

; 1181 :                 AddLineQueueX( "%r %s, %r", T_MOV, reg[0],  sreg );

	movsx	eax, WORD PTR sreg$1[rsp]
	mov	ecx, 8
	imul	rcx, rcx, 0
	mov	r9d, eax
	mov	r8, QWORD PTR reg$[rsp+rcx]
	mov	edx, 606				; 0000025eH
	lea	rcx, OFFSET FLAT:$SG11752
	call	AddLineQueueX
	jmp	SHORT $LN17@watc_param
$LN16@watc_param:

; 1182 :             else
; 1183 :                 AddLineQueueX( "%r %s, %s", T_MOV, reg[0],  buffer );

	mov	eax, 8
	imul	rax, rax, 0
	lea	r9, QWORD PTR buffer$2[rsp]
	mov	r8, QWORD PTR reg$[rsp+rax]
	mov	edx, 606				; 0000025eH
	lea	rcx, OFFSET FLAT:$SG11753
	call	AddLineQueueX
$LN17@watc_param:

; 1184 :             i++;

	mov	eax, DWORD PTR i$[rsp]
	inc	eax
	mov	DWORD PTR i$[rsp], eax
$LN15@watc_param:

; 1185 :         }
; 1186 :         AddLineQueueX( "%r %s, %r %s", opc, reg[i], qual, paramvalue );

	movsxd	rax, DWORD PTR i$[rsp]
	mov	rcx, QWORD PTR paramvalue$[rsp]
	mov	QWORD PTR [rsp+32], rcx
	mov	r9d, DWORD PTR qual$[rsp]
	mov	r8, QWORD PTR reg$[rsp+rax*8]
	mov	edx, DWORD PTR opc$[rsp]
	lea	rcx, OFFSET FLAT:$SG11754
	call	AddLineQueueX

; 1187 :         return( 1 );

	mov	eax, 1
	jmp	$LN1@watc_param
$LN11@watc_param:

; 1188 :     }
; 1189 :     for ( i = 3; i >= 0; i-- ) {

	mov	DWORD PTR i$[rsp], 3
	jmp	SHORT $LN7@watc_param
$LN5@watc_param:
	mov	eax, DWORD PTR i$[rsp]
	dec	eax
	mov	DWORD PTR i$[rsp], eax
$LN7@watc_param:
	cmp	DWORD PTR i$[rsp], 0
	jl	$LN6@watc_param

; 1190 :         if ( reg[i] ) {

	movsxd	rax, DWORD PTR i$[rsp]
	cmp	QWORD PTR reg$[rsp+rax*8], 0
	je	$LN18@watc_param

; 1191 :             if ( opnd->kind == EXPR_CONST ) {

	mov	rax, QWORD PTR opnd$[rsp]
	cmp	DWORD PTR [rax+60], 0
	jne	$LN19@watc_param

; 1192 :                 if ( i > 0 )

	cmp	DWORD PTR i$[rsp], 0
	jle	SHORT $LN21@watc_param

; 1193 :                     qual = T_LOWWORD;

	mov	DWORD PTR qual$[rsp], 238		; 000000eeH
	jmp	SHORT $LN22@watc_param
$LN21@watc_param:

; 1194 :                 else if ( i == 0 && reg[1] != NULL )

	cmp	DWORD PTR i$[rsp], 0
	jne	SHORT $LN23@watc_param
	mov	eax, 8
	imul	rax, rax, 1
	cmp	QWORD PTR reg$[rsp+rax], 0
	je	SHORT $LN23@watc_param

; 1195 :                     qual = T_HIGHWORD;

	mov	DWORD PTR qual$[rsp], 232		; 000000e8H
	jmp	SHORT $LN24@watc_param
$LN23@watc_param:

; 1196 :                 else
; 1197 :                     qual = T_NULL;

	mov	DWORD PTR qual$[rsp], 0
$LN24@watc_param:
$LN22@watc_param:

; 1198 :                 if ( qual != T_NULL )

	cmp	DWORD PTR qual$[rsp], 0
	je	SHORT $LN25@watc_param

; 1199 :                     AddLineQueueX( "mov %s, %r (%s)", reg[i], qual, paramvalue );

	movsxd	rax, DWORD PTR i$[rsp]
	mov	r9, QWORD PTR paramvalue$[rsp]
	mov	r8d, DWORD PTR qual$[rsp]
	mov	rdx, QWORD PTR reg$[rsp+rax*8]
	lea	rcx, OFFSET FLAT:$SG11764
	call	AddLineQueueX
	jmp	SHORT $LN26@watc_param
$LN25@watc_param:

; 1200 :                 else
; 1201 :                     AddLineQueueX( "mov %s, %s", reg[i], paramvalue );

	movsxd	rax, DWORD PTR i$[rsp]
	mov	r8, QWORD PTR paramvalue$[rsp]
	mov	rdx, QWORD PTR reg$[rsp+rax*8]
	lea	rcx, OFFSET FLAT:$SG11765
	call	AddLineQueueX
$LN26@watc_param:

; 1202 :             } else if ( opnd->kind == EXPR_REG ) {

	jmp	$LN20@watc_param
$LN19@watc_param:
	mov	rax, QWORD PTR opnd$[rsp]
	cmp	DWORD PTR [rax+60], 2
	jne	SHORT $LN27@watc_param

; 1203 :                 AddLineQueueX( "mov %s, %s", reg[i], paramvalue );

	movsxd	rax, DWORD PTR i$[rsp]
	mov	r8, QWORD PTR paramvalue$[rsp]
	mov	rdx, QWORD PTR reg$[rsp+rax*8]
	lea	rcx, OFFSET FLAT:$SG11768
	call	AddLineQueueX

; 1204 :             } else {

	jmp	$LN28@watc_param
$LN27@watc_param:

; 1205 :                 if ( i == 0 && reg[1] == NULL )

	cmp	DWORD PTR i$[rsp], 0
	jne	SHORT $LN29@watc_param
	mov	eax, 8
	imul	rax, rax, 1
	cmp	QWORD PTR reg$[rsp+rax], 0
	jne	SHORT $LN29@watc_param

; 1206 :                     AddLineQueueX( "mov %s, %s", reg[i], paramvalue );

	movsxd	rax, DWORD PTR i$[rsp]
	mov	r8, QWORD PTR paramvalue$[rsp]
	mov	rdx, QWORD PTR reg$[rsp+rax*8]
	lea	rcx, OFFSET FLAT:$SG11771
	call	AddLineQueueX
	jmp	SHORT $LN30@watc_param
$LN29@watc_param:

; 1207 :                 else {
; 1208 :                     if ( ModuleInfo.Ofssize )

	movzx	eax, BYTE PTR ModuleInfo+404
	test	eax, eax
	je	SHORT $LN31@watc_param

; 1209 :                         qual = T_DWORD;

	mov	DWORD PTR qual$[rsp], 209		; 000000d1H
	jmp	SHORT $LN32@watc_param
$LN31@watc_param:

; 1210 :                     else
; 1211 :                         qual = T_WORD;

	mov	DWORD PTR qual$[rsp], 207		; 000000cfH
$LN32@watc_param:

; 1212 :                     AddLineQueueX( "mov %s, %r %r %s[%u]", reg[i], qual, T_PTR, paramvalue, psize - ( (i+1) * ( 2 << ModuleInfo.Ofssize ) ) );

	mov	eax, DWORD PTR i$[rsp]
	inc	eax
	movzx	ecx, BYTE PTR ModuleInfo+404
	mov	edx, 2
	shl	edx, cl
	mov	ecx, edx
	imul	eax, ecx
	mov	ecx, DWORD PTR psize$[rsp]
	sub	ecx, eax
	mov	eax, ecx
	movsxd	rcx, DWORD PTR i$[rsp]
	mov	DWORD PTR [rsp+40], eax
	mov	rax, QWORD PTR paramvalue$[rsp]
	mov	QWORD PTR [rsp+32], rax
	mov	r9d, 258				; 00000102H
	mov	r8d, DWORD PTR qual$[rsp]
	mov	rdx, QWORD PTR reg$[rsp+rcx*8]
	lea	rcx, OFFSET FLAT:$SG11774
	call	AddLineQueueX
$LN30@watc_param:
$LN28@watc_param:
$LN20@watc_param:
$LN18@watc_param:

; 1213 :                 }
; 1214 :             }
; 1215 :         }
; 1216 :     }

	jmp	$LN5@watc_param
$LN6@watc_param:

; 1217 :     return( 1 );

	mov	eax, 1
$LN1@watc_param:

; 1218 : }

	mov	rcx, QWORD PTR __$ArrayPad$[rsp]
	xor	rcx, rsp
	call	__security_check_cookie
	add	rsp, 344				; 00000158H
	ret	0
watc_param ENDP
_TEXT	ENDS
; Function compile flags: /Odtp
; File d:\hjwasm\hjwasm2.13.1s\hjwasm2.13.1s\invoke.c
_TEXT	SEGMENT
proc$ = 48
numparams$ = 56
value$ = 64
watc_fcend PROC

; 1117 : {

	mov	DWORD PTR [rsp+24], r8d
	mov	DWORD PTR [rsp+16], edx
	mov	QWORD PTR [rsp+8], rcx
	sub	rsp, 40					; 00000028H

; 1118 :     DebugMsg1(("watc_fcend(%s, %u, %u)\n", proc->sym.name, numparams, value ));

	mov	r9d, DWORD PTR value$[rsp]
	mov	r8d, DWORD PTR numparams$[rsp]
	mov	rax, QWORD PTR proc$[rsp]
	mov	rdx, QWORD PTR [rax+8]
	lea	rcx, OFFSET FLAT:$SG11697
	call	DoDebugMsg1

; 1119 :     if ( proc->e.procinfo->has_vararg ) {

	mov	rax, QWORD PTR proc$[rsp]
	mov	rax, QWORD PTR [rax+96]
	movzx	eax, BYTE PTR [rax+128]
	and	al, 1
	movzx	eax, al
	test	eax, eax
	je	SHORT $LN2@watc_fcend

; 1120 :         AddLineQueueX( " add %r, %u", stackreg[ModuleInfo.Ofssize], NUMQUAL proc->e.procinfo->parasize + size_vararg );

	mov	rax, QWORD PTR proc$[rsp]
	mov	rax, QWORD PTR [rax+96]
	mov	eax, DWORD PTR [rax+32]
	add	eax, DWORD PTR size_vararg
	movzx	ecx, BYTE PTR ModuleInfo+404
	lea	rdx, OFFSET FLAT:stackreg
	mov	r8d, eax
	mov	edx, DWORD PTR [rdx+rcx*4]
	lea	rcx, OFFSET FLAT:$SG11700
	call	AddLineQueueX
	jmp	SHORT $LN3@watc_fcend
$LN2@watc_fcend:

; 1121 :     } else if ( fcscratch < proc->e.procinfo->parasize ) {

	mov	rax, QWORD PTR proc$[rsp]
	mov	rax, QWORD PTR [rax+96]
	mov	eax, DWORD PTR [rax+32]
	cmp	DWORD PTR fcscratch, eax
	jae	SHORT $LN4@watc_fcend

; 1122 :         AddLineQueueX( " add %r, %u", stackreg[ModuleInfo.Ofssize], NUMQUAL ( proc->e.procinfo->parasize - fcscratch ) );

	mov	rax, QWORD PTR proc$[rsp]
	mov	rax, QWORD PTR [rax+96]
	mov	ecx, DWORD PTR fcscratch
	mov	eax, DWORD PTR [rax+32]
	sub	eax, ecx
	movzx	ecx, BYTE PTR ModuleInfo+404
	lea	rdx, OFFSET FLAT:stackreg
	mov	r8d, eax
	mov	edx, DWORD PTR [rdx+rcx*4]
	lea	rcx, OFFSET FLAT:$SG11702
	call	AddLineQueueX
$LN4@watc_fcend:
$LN3@watc_fcend:

; 1123 :     }
; 1124 :     return;
; 1125 : }

	add	rsp, 40					; 00000028H
	ret	0
watc_fcend ENDP
_TEXT	ENDS
; Function compile flags: /Odtp
; File d:\hjwasm\hjwasm2.13.1s\hjwasm2.13.1s\invoke.c
_TEXT	SEGMENT
proc$ = 48
numparams$ = 56
start$ = 64
tokenarray$ = 72
value$ = 80
watc_fcstart PROC

; 1110 : {

	mov	QWORD PTR [rsp+32], r9
	mov	DWORD PTR [rsp+24], r8d
	mov	DWORD PTR [rsp+16], edx
	mov	QWORD PTR [rsp+8], rcx
	sub	rsp, 40					; 00000028H

; 1111 :     DebugMsg1(("watc_fcstart(%s, %u, %u)\n", proc->sym.name, numparams, start ));

	mov	r9d, DWORD PTR start$[rsp]
	mov	r8d, DWORD PTR numparams$[rsp]
	mov	rax, QWORD PTR proc$[rsp]
	mov	rdx, QWORD PTR [rax+8]
	lea	rcx, OFFSET FLAT:$SG11689
	call	DoDebugMsg1

; 1112 :     return( 1 );

	mov	eax, 1

; 1113 : }

	add	rsp, 40					; 00000028H
	ret	0
watc_fcstart ENDP
_TEXT	ENDS
; Function compile flags: /Odtp
; File d:\hjwasm\hjwasm2.13.1s\hjwasm2.13.1s\invoke.c
_TEXT	SEGMENT
reg$1 = 48
size$2 = 52
pst$ = 56
tv143 = 64
proc$ = 96
index$ = 104
param$ = 112
addr$ = 120
opnd$ = 128
paramvalue$ = 136
r0used$ = 144
ms32_param PROC

; 163  : {

	mov	BYTE PTR [rsp+32], r9b
	mov	QWORD PTR [rsp+24], r8
	mov	DWORD PTR [rsp+16], edx
	mov	QWORD PTR [rsp+8], rcx
	sub	rsp, 88					; 00000058H

; 164  :     enum special_token const *pst;
; 165  : 
; 166  :     DebugMsg1(("ms32_param(proc=%s, ofs=%u, index=%u, param=%s) fcscratch=%u\n", proc->sym.name, proc->sym.Ofssize, index, param->sym.name, fcscratch ));

	mov	rax, QWORD PTR proc$[rsp]
	movzx	eax, BYTE PTR [rax+44]
	mov	ecx, DWORD PTR fcscratch
	mov	DWORD PTR [rsp+40], ecx
	mov	rcx, QWORD PTR param$[rsp]
	mov	rcx, QWORD PTR [rcx+8]
	mov	QWORD PTR [rsp+32], rcx
	mov	r9d, DWORD PTR index$[rsp]
	mov	r8d, eax
	mov	rax, QWORD PTR proc$[rsp]
	mov	rdx, QWORD PTR [rax+8]
	lea	rcx, OFFSET FLAT:$SG11147
	call	DoDebugMsg1

; 167  :     if ( param->sym.state != SYM_TMACRO )

	mov	rax, QWORD PTR param$[rsp]
	cmp	DWORD PTR [rax+32], 10
	je	SHORT $LN2@ms32_param

; 168  :         return( 0 );

	xor	eax, eax
	jmp	$LN1@ms32_param
$LN2@ms32_param:

; 169  :     if ( GetSymOfssize( &proc->sym ) == USE16 ) {

	mov	rax, QWORD PTR proc$[rsp]
	mov	rcx, rax
	call	GetSymOfssize
	test	eax, eax
	jne	SHORT $LN3@ms32_param

; 170  :         pst = ms16_regs + fcscratch;

	movsxd	rax, DWORD PTR fcscratch
	lea	rcx, OFFSET FLAT:ms16_regs
	lea	rax, QWORD PTR [rcx+rax*4]
	mov	QWORD PTR pst$[rsp], rax

; 171  :         fcscratch++;

	mov	eax, DWORD PTR fcscratch
	inc	eax
	mov	DWORD PTR fcscratch, eax

; 172  :     } else {

	jmp	SHORT $LN4@ms32_param
$LN3@ms32_param:

; 173  :         fcscratch--;

	mov	eax, DWORD PTR fcscratch
	dec	eax
	mov	DWORD PTR fcscratch, eax

; 174  :         pst = ms32_regs + fcscratch;

	movsxd	rax, DWORD PTR fcscratch
	lea	rcx, OFFSET FLAT:ms32_regs
	lea	rax, QWORD PTR [rcx+rax*4]
	mov	QWORD PTR pst$[rsp], rax
$LN4@ms32_param:

; 175  :     }
; 176  :     if ( addr )

	movzx	eax, BYTE PTR addr$[rsp]
	test	eax, eax
	je	SHORT $LN5@ms32_param

; 177  :         AddLineQueueX( " lea %r, %s", *pst, paramvalue );

	mov	r8, QWORD PTR paramvalue$[rsp]
	mov	rax, QWORD PTR pst$[rsp]
	mov	edx, DWORD PTR [rax]
	lea	rcx, OFFSET FLAT:$SG11153
	call	AddLineQueueX
	jmp	$LN6@ms32_param
$LN5@ms32_param:

; 178  :     else {
; 179  :         enum special_token reg = *pst;

	mov	rax, QWORD PTR pst$[rsp]
	mov	eax, DWORD PTR [rax]
	mov	DWORD PTR reg$1[rsp], eax

; 180  :         int size;
; 181  :         /* v2.08: adjust register if size of operand won't require the full register */
; 182  :         if ( ( opnd->kind != EXPR_CONST ) &&

	mov	rax, QWORD PTR opnd$[rsp]
	cmp	DWORD PTR [rax+60], 0
	je	$LN7@ms32_param
	mov	rax, QWORD PTR param$[rsp]
	mov	r8, QWORD PTR [rax+80]
	mov	edx, 254				; 000000feH
	mov	rax, QWORD PTR param$[rsp]
	mov	ecx, DWORD PTR [rax+36]
	call	SizeFromMemtype
	mov	DWORD PTR size$2[rsp], eax
	mov	rax, QWORD PTR pst$[rsp]
	mov	ecx, DWORD PTR [rax]
	call	SizeFromRegister
	cmp	DWORD PTR size$2[rsp], eax
	jge	$LN7@ms32_param

; 183  :             ( size = SizeFromMemtype( param->sym.mem_type, USE_EMPTY, param->sym.type ) ) < SizeFromRegister( *pst ) ) {
; 184  :             if (( ModuleInfo.curr_cpu & P_CPU_MASK ) >= P_386 ) {

	mov	eax, DWORD PTR ModuleInfo+392
	and	eax, 240				; 000000f0H
	cmp	eax, 48					; 00000030H
	jl	SHORT $LN9@ms32_param

; 185  :                 AddLineQueueX( " %s %r, %s", ( param->sym.mem_type & MT_SIGNED ) ? "movsx" : "movzx", reg, paramvalue );

	mov	rax, QWORD PTR param$[rsp]
	mov	eax, DWORD PTR [rax+36]
	and	eax, 64					; 00000040H
	test	eax, eax
	je	SHORT $LN15@ms32_param
	lea	rax, OFFSET FLAT:$SG11158
	mov	QWORD PTR tv143[rsp], rax
	jmp	SHORT $LN16@ms32_param
$LN15@ms32_param:
	lea	rax, OFFSET FLAT:$SG11159
	mov	QWORD PTR tv143[rsp], rax
$LN16@ms32_param:
	mov	r9, QWORD PTR paramvalue$[rsp]
	mov	r8d, DWORD PTR reg$1[rsp]
	mov	rdx, QWORD PTR tv143[rsp]
	lea	rcx, OFFSET FLAT:$SG11160
	call	AddLineQueueX

; 186  :             } else {

	jmp	SHORT $LN10@ms32_param
$LN9@ms32_param:

; 187  :                 /* this is currently always UNSIGNED */
; 188  :                 AddLineQueueX( " mov %r, %s", T_AL + GetRegNo( reg ), paramvalue );

	movsxd	rax, DWORD PTR reg$1[rsp]
	imul	rax, rax, 12
	lea	rcx, OFFSET FLAT:SpecialTable
	movzx	eax, BYTE PTR [rcx+rax+10]
	inc	eax
	mov	r8, QWORD PTR paramvalue$[rsp]
	mov	edx, eax
	lea	rcx, OFFSET FLAT:$SG11161
	call	AddLineQueueX

; 189  :                 AddLineQueueX( " mov %r, 0", T_AH + GetRegNo( reg ) );

	movsxd	rax, DWORD PTR reg$1[rsp]
	imul	rax, rax, 12
	lea	rcx, OFFSET FLAT:SpecialTable
	movzx	eax, BYTE PTR [rcx+rax+10]
	add	eax, 5
	mov	edx, eax
	lea	rcx, OFFSET FLAT:$SG11162
	call	AddLineQueueX
$LN10@ms32_param:

; 190  :             }
; 191  :         } else {

	jmp	SHORT $LN8@ms32_param
$LN7@ms32_param:

; 192  :             /* v2.08: optimization */
; 193  :             if ( opnd->kind == EXPR_REG && opnd->indirect == 0 && opnd->base_reg ) {

	mov	rax, QWORD PTR opnd$[rsp]
	cmp	DWORD PTR [rax+60], 2
	jne	SHORT $LN11@ms32_param
	mov	rax, QWORD PTR opnd$[rsp]
	mov	eax, DWORD PTR [rax+72]
	and	eax, 1
	test	eax, eax
	jne	SHORT $LN11@ms32_param
	mov	rax, QWORD PTR opnd$[rsp]
	cmp	QWORD PTR [rax+24], 0
	je	SHORT $LN11@ms32_param

; 194  :                 if ( opnd->base_reg->tokval == reg )

	mov	rax, QWORD PTR opnd$[rsp]
	mov	rax, QWORD PTR [rax+24]
	mov	ecx, DWORD PTR reg$1[rsp]
	cmp	DWORD PTR [rax+16], ecx
	jne	SHORT $LN12@ms32_param

; 195  :                     return( 1 );

	mov	eax, 1
	jmp	SHORT $LN1@ms32_param
$LN12@ms32_param:
$LN11@ms32_param:

; 196  :             }
; 197  :             AddLineQueueX( " mov %r, %s", reg, paramvalue );

	mov	r8, QWORD PTR paramvalue$[rsp]
	mov	edx, DWORD PTR reg$1[rsp]
	lea	rcx, OFFSET FLAT:$SG11165
	call	AddLineQueueX
$LN8@ms32_param:
$LN6@ms32_param:

; 198  :         }
; 199  :     }
; 200  :     if ( *pst == T_AX )

	mov	rax, QWORD PTR pst$[rsp]
	cmp	DWORD PTR [rax], 9
	jne	SHORT $LN13@ms32_param

; 201  :         *r0used |= R0_USED;

	mov	rax, QWORD PTR r0used$[rsp]
	movzx	eax, BYTE PTR [rax]
	or	eax, 1
	mov	rcx, QWORD PTR r0used$[rsp]
	mov	BYTE PTR [rcx], al
$LN13@ms32_param:

; 202  :     return( 1 );

	mov	eax, 1
$LN1@ms32_param:

; 203  : }

	add	rsp, 88					; 00000058H
	ret	0
ms32_param ENDP
_TEXT	ENDS
; Function compile flags: /Odtp
; File d:\hjwasm\hjwasm2.13.1s\hjwasm2.13.1s\invoke.c
_TEXT	SEGMENT
proc$ = 8
numparams$ = 16
value$ = 24
ms32_fcend PROC

; 156  : {

	mov	DWORD PTR [rsp+24], r8d
	mov	DWORD PTR [rsp+16], edx
	mov	QWORD PTR [rsp+8], rcx

; 157  :     /* nothing to do */
; 158  :     return;
; 159  : }

	ret	0
ms32_fcend ENDP
_TEXT	ENDS
; Function compile flags: /Odtp
; File d:\hjwasm\hjwasm2.13.1s\hjwasm2.13.1s\invoke.c
_TEXT	SEGMENT
param$ = 32
proc$ = 64
numparams$ = 72
start$ = 80
tokenarray$ = 88
value$ = 96
ms32_fcstart PROC

; 142  : {

	mov	QWORD PTR [rsp+32], r9
	mov	DWORD PTR [rsp+24], r8d
	mov	DWORD PTR [rsp+16], edx
	mov	QWORD PTR [rsp+8], rcx
	sub	rsp, 56					; 00000038H

; 143  :     struct dsym *param;
; 144  :     DebugMsg1(("ms32_fcstart(proc=%s, ofs=%u)\n", proc->sym.name, GetSymOfssize( &proc->sym ) ));

	mov	rax, QWORD PTR proc$[rsp]
	mov	rcx, rax
	call	GetSymOfssize
	mov	r8d, eax
	mov	rax, QWORD PTR proc$[rsp]
	mov	rdx, QWORD PTR [rax+8]
	lea	rcx, OFFSET FLAT:$SG11119
	call	DoDebugMsg1

; 145  :     if ( GetSymOfssize( &proc->sym ) == USE16 )

	mov	rax, QWORD PTR proc$[rsp]
	mov	rcx, rax
	call	GetSymOfssize
	test	eax, eax
	jne	SHORT $LN5@ms32_fcsta

; 146  :         return( 0 );

	xor	eax, eax
	jmp	SHORT $LN1@ms32_fcsta
$LN5@ms32_fcsta:

; 147  :     /* v2.07: count number of register params */
; 148  :     for ( param = proc->e.procinfo->paralist ; param ; param = param->nextparam )

	mov	rax, QWORD PTR proc$[rsp]
	mov	rax, QWORD PTR [rax+96]
	mov	rax, QWORD PTR [rax+8]
	mov	QWORD PTR param$[rsp], rax
	jmp	SHORT $LN4@ms32_fcsta
$LN2@ms32_fcsta:
	mov	rax, QWORD PTR param$[rsp]
	mov	rax, QWORD PTR [rax+112]
	mov	QWORD PTR param$[rsp], rax
$LN4@ms32_fcsta:
	cmp	QWORD PTR param$[rsp], 0
	je	SHORT $LN3@ms32_fcsta

; 149  :         if ( param->sym.state == SYM_TMACRO )

	mov	rax, QWORD PTR param$[rsp]
	cmp	DWORD PTR [rax+32], 10
	jne	SHORT $LN6@ms32_fcsta

; 150  :             fcscratch++;

	mov	eax, DWORD PTR fcscratch
	inc	eax
	mov	DWORD PTR fcscratch, eax
$LN6@ms32_fcsta:
	jmp	SHORT $LN2@ms32_fcsta
$LN3@ms32_fcsta:

; 151  :     return( 1 );

	mov	eax, 1
$LN1@ms32_fcsta:

; 152  : }

	add	rsp, 56					; 00000038H
	ret	0
ms32_fcstart ENDP
_TEXT	ENDS
END
