; Listing generated by Microsoft (R) Optimizing Compiler Version 19.00.23026.0 

include listing.inc

INCLUDELIB LIBCMTD
INCLUDELIB OLDNAMES

PUBLIC	stackreg
_DATA	SEGMENT
COMM	procidx:DWORD
COMM	XYZMMsize:DWORD
COMM	ProcStatus:DWORD
COMM	StackAdj:DWORD
COMM	StackAdjHigh:DWORD
_DATA	ENDS
_BSS	SEGMENT
$SG11655 DB	01H DUP (?)
$SG11680 DB	01H DUP (?)
$SG11681 DB	01H DUP (?)
$SG11693 DB	01H DUP (?)
$SG11696 DB	01H DUP (?)
$SG11725 DB	01H DUP (?)
$SG12820 DB	01H DUP (?)
_BSS	ENDS
_DATA	SEGMENT
COMM	decoflags:BYTE
COMM	broadflags:BYTE
COMM	evex:BYTE
COMM	ZEROLOCALS:BYTE
_DATA	ENDS
_BSS	SEGMENT
$SG11856 DB	01H DUP (?)
$SG11970 DB	01H DUP (?)
_BSS	ENDS
_DATA	SEGMENT
COMM	CurrProc:QWORD
COMM	sym_ReservedStack:QWORD
_DATA	ENDS
_BSS	SEGMENT
$SG12221 DB	01H DUP (?)
_BSS	ENDS
CONST	SEGMENT
ms32_regs16 DD	09H
	DD	0bH
	DD	0cH
win64_nvgpr DW	0f0e8H
	ORG $+2
ms32_regs32 DD	012H
	DD	013H
ms32_maxreg DD	03H
	DD	02H
watc_regs8 DD	01H
	DD	03H
	DD	04H
	DD	02H
watc_regs16 DD	09H
	DD	0bH
	DD	0cH
	DD	0aH
watc_regs32 DD	011H
	DD	013H
	DD	014H
	DD	012H
watc_regs_qw DD	09H
	DD	0cH
	DD	0aH
	DD	0bH
ms64_regs DD	074H
	DD	075H
	DD	07bH
	DD	07cH
win64_nvxmm DW	0ffc0H
	ORG $+6
fastcall_tab DQ	FLAT:ms32_pcheck
	DQ	FLAT:ms32_return
	DQ	FLAT:watc_pcheck
	DQ	FLAT:watc_return
	DQ	FLAT:ms64_pcheck
	DQ	FLAT:ms64_return
vectorcall_tab DQ FLAT:ms32_pcheck
	DQ	FLAT:ms32_return
	DQ	FLAT:watc_pcheck
	DQ	FLAT:watc_return
	DQ	FLAT:ms64_pcheck
	DQ	FLAT:ms64_return
stackreg DD	0dH
	DD	015H
	DD	077H
	ORG $+4
fmtstk0	DQ	FLAT:$SG11377
	DQ	FLAT:$SG11378
fmtstk1	DQ	FLAT:$SG11380
	DQ	FLAT:$SG11381
CONST	ENDS
_DATA	SEGMENT
$SG12338 DB	'mov [%r+%u], %r', 00H
$SG12339 DB	'%r %r, %u', 00H
	ORG $+6
$SG11377 DB	'sub %r, %d', 00H
	ORG $+1
$SG11378 DB	'%r %d', 00H
	ORG $+2
$SG11424 DB	'::', 00H
	ORG $+1
$SG11380 DB	'sub %r, %d + %s', 00H
$SG11381 DB	'%r %d + %s', 00H
	ORG $+1
$SG12470 DB	'cld', 00H
$SG12412 DB	'write_win64_default_prologue enter', 0aH, 00H
$SG12538 DB	'%r', 00H
	ORG $+1
$SG12418 DB	'write_win64_default_prologue: no frame register needed', 0aH
	DB	00H
$SG12419 DB	'push %r', 00H
$SG12420 DB	'%r %r', 00H
	ORG $+2
$SG12421 DB	'mov %r, %r', 00H
	ORG $+1
$SG12032 DB	'dw', 00H
	ORG $+1
$SG12422 DB	'%r %r, 0', 00H
	ORG $+3
$SG12434 DB	'%r %r', 00H
	ORG $+2
$SG11427 DB	'%s::%s', 00H
	ORG $+1
$SG12034 DB	',', 00H
	ORG $+2
$SG12432 DB	'push %r', 00H
$SG12440 DB	'push %r', 00H
$SG12442 DB	'%r %r', 00H
	ORG $+2
$SG12452 DB	'write_win64_default_prologue: localsize=%u resstack=%u', 0aH
	DB	00H
$SG11429 DB	'watc_pcheck(%s.%s): size=%u ptr=%u far=%u reg=%s', 0aH, 00H
	ORG $+2
$SG11437 DB	'%d%c', 00H
	ORG $+3
$SG12463 DB	'dec %r', 00H
	ORG $+1
$SG12037 DB	'dw', 00H
	ORG $+1
$SG12462 DB	'mov %r, %u', 00H
	ORG $+5
$SG12464 DB	'mov byte ptr [%r + %r], 0', 00H
	ORG $+6
$SG12465 DB	'dw 0F875h', 00H
	ORG $+6
$SG12466 DB	'push %r', 00H
$SG12467 DB	'push %r', 00H
$SG12468 DB	'xor %r, %r', 00H
	ORG $+5
$SG12469 DB	'mov %r, %u', 00H
	ORG $+5
$SG12471 DB	'lea %r, [%r+16]', 00H
$SG12472 DB	'rep stosb', 00H
	ORG $+2
$SG12473 DB	'pop %r', 00H
	ORG $+1
$SG12474 DB	'pop %r', 00H
	ORG $+1
$SG11455 DB	'%d%c', 00H
	ORG $+7
$SG12485 DB	'vmovdqu [%r+%u+%s], %r', 00H
	ORG $+1
$SG12486 DB	'%r %r, %u+%s', 00H
	ORG $+3
$SG12488 DB	'vmovdqu [%r+%u+%s], %r', 00H
	ORG $+1
$SG12489 DB	'%r %r, %u+%s', 00H
	ORG $+3
$SG12493 DB	'vmovdqu [%r+%u], %r', 00H
	ORG $+4
$SG12494 DB	'%r %r, %u', 00H
	ORG $+6
$SG12496 DB	'vmovdqu [%r+%u], %r', 00H
	ORG $+4
$SG12497 DB	'%r %r, %u', 00H
	ORG $+6
$SG12505 DB	'lea %r,[%r + %d]', 00H
	ORG $+7
$SG12507 DB	'mov [%r + %d], %r', 00H
	ORG $+6
$SG12515 DB	'mov [%r + %d], %r', 00H
	ORG $+6
$SG12524 DB	'vmovss dword ptr [rsp+%d],%r', 00H
	ORG $+3
$SG12527 DB	'vmovsd qword ptr [rsp+%d],%r', 00H
	ORG $+3
$SG12531 DB	'vmovups oword ptr [rsp+%d],%r', 00H
	ORG $+2
$SG12532 DB	'vmovups oword ptr [rsp+%d],%r', 00H
	ORG $+2
$SG12536 DB	'vmovups ymmword ptr [rsp+%d],%r', 00H
$SG12537 DB	'vmovups ymmword ptr [rsp+%d],%r', 00H
$SG11530 DB	'LocalDir(%u) entry', 0aH, 00H
	ORG $+4
$SG11535 DB	'LocalDir: item=%s', 0aH, 00H
	ORG $+5
$SG11539 DB	'LocalDir: SymLCreate( %s ) failed', 0aH, 00H
	ORG $+5
$SG12564 DB	'push %r', 00H
$SG12565 DB	'mov %r, %r', 00H
	ORG $+5
$SG12569 DB	'push %r', 00H
$SG12570 DB	'sub %r, %d + %s', 00H
$SG12575 DB	'add %r, %d', 00H
	ORG $+5
$SG12576 DB	'sub %r, %d', 00H
	ORG $+5
$SG12578 DB	'push %r', 00H
$SG11554 DB	'NULL', 00H
	ORG $+3
$SG12579 DB	'mov %r, %s', 00H
	ORG $+5
$SG11555 DB	'LocalDir: memtype=%X, type=%s, size=%u*%u', 0aH, 00H
	ORG $+5
$SG12580 DB	'mov %r, %r', 00H
	ORG $+5
$SG12582 DB	'push %r', 00H
$SG12645 DB	'SetLocalOffsets(%s): cntxmm=%u cntstd=%u start=%u align='
	DB	'%u localsize=%u', 0aH, 00H
	ORG $+7
$SG12652 DB	'SetLocalOffsets(%s): offset of %s (size=%u) set to %d', 0aH
	DB	00H
	ORG $+1
$SG12657 DB	'SetLocalOffsets(%s): localsize=%u after processing local'
	DB	's', 0aH, 00H
	ORG $+5
$SG12663 DB	'SetLocalOffsets(%s): FPO, adjusting offsets', 0aH, 00H
	ORG $+3
$SG12664 DB	'SetLocalOffsets(%s): FPO, offset for %s %4d -> %4d', 0aH
	DB	00H
	ORG $+4
$SG12665 DB	'SetLocalOffsets(%s): FPO, offset for %s %4d -> %4d', 0aH
	DB	00H
	ORG $+4
$SG12668 DB	'SetLocalOffsets(%s): final localsize=%u', 0aH, 00H
	ORG $+7
$SG12678 DB	'write_prologue(%s): default prologue', 0aH, 00H
	ORG $+2
$SG11656 DB	'ParseParams: name missing/invalid for parameter %u, i=%u'
	DB	0aH, 00H
	ORG $+6
$SG12681 DB	'write_prologue(%s): prologue is NULL', 0aH, 00H
	ORG $+2
$SG12682 DB	'write_prologue(%s): userdefined prologue %s', 0aH, 00H
	ORG $+3
$SG11671 DB	'ParseParams: %s defined already, state=%u, local=%u', 0aH
	DB	00H
	ORG $+3
$SG12700 DB	'pop %r', 00H
	ORG $+1
$SG12703 DB	'pop %r', 00H
	ORG $+1
$SG11682 DB	'ParseParams: old-new memtype=%X-%X type=%X(%s)-%X(%s) fa'
	DB	'r=%u-%u ind=%u-%u ofss=%d-%d pmt=%X-%X', 0aH, 00H
$SG11684 DB	'ParseParams: calling SymAddLocal(%s, %s)', 0aH, 00H
	ORG $+6
$SG11692 DB	'ParseParams: different param count', 0aH, 00H
	ORG $+4
$SG11698 DB	'ParseParams: SymLCreate(%s) failed', 0aH, 00H
	ORG $+4
$SG12731 DB	'write_win64_default_epilogue(%s): %u xmm registers to re'
	DB	'store', 0aH, 00H
	ORG $+1
$SG12737 DB	'write_win64_default_epilogue(%s): restore %s, offset=%d', 0aH
	DB	00H
	ORG $+7
$SG12740 DB	'vmovdqu %r, [%r + %u + %s]', 00H
	ORG $+5
$SG12741 DB	'vmovdqu %r, [%r + %u]', 00H
	ORG $+2
$SG11721 DB	'ParseParams: error, cntParam=%u, found %s', 0aH, 00H
	ORG $+5
$SG11724 DB	'ParseParams: a param is left over, cntParam=%u', 0aH, 00H
$SG12749 DB	'add %r, %d + %s', 00H
$SG12750 DB	'add %r, %d + %s', 00H
$SG12751 DB	'add %r, %d', 00H
	ORG $+5
$SG11734 DB	'ParseParams: parm=%s, ofs=%u, size=%d', 0aH, 00H
	ORG $+1
$SG12761 DB	'mov %r, [%r+%u]', 00H
$SG12764 DB	'pop %r', 00H
	ORG $+1
$SG12774 DB	'add %r, %d + %s', 00H
$SG12776 DB	'pop %r', 00H
	ORG $+1
$SG12782 DB	'leave', 00H
	ORG $+2
$SG12787 DB	'add %r, %d', 00H
	ORG $+5
$SG12789 DB	'mov %r, %r', 00H
	ORG $+1
$SG12790 DB	'pop %r', 00H
	ORG $+5
$SG11792 DB	'ParseProc: error, memtype changed, old-new memtype=%X-%X'
	DB	', ofssize=%X-%X', 0aH, 00H
	ORG $+7
$SG12821 DB	'%s, 0%XH, 0%XH, 0%XH, <<%s>>, <%s>', 00H
	ORG $+5
$SG12823 DB	'option epilogue:none', 0aH, 00H
	ORG $+2
$SG11800 DB	'ParseProc: error, language changed, %u - %u', 0aH, 00H
	ORG $+3
$SG11806 DB	'PRIVATE', 00H
$SG11811 DB	'PUBLIC', 00H
	ORG $+1
$SG11813 DB	'EXPORT', 00H
	ORG $+1
$SG11814 DB	'ParseProc(%s): EXPORT detected', 0aH, 00H
$SG12839 DB	'RetInstr() enter', 0aH, 00H
	ORG $+6
$SG12845 DB	'RetInstr() exit', 0aH, 00H
	ORG $+7
$SG12846 DB	'RetInstr() exit', 0aH, 00H
	ORG $+7
$SG11826 DB	'FORCEFRAME', 00H
	ORG $+1
$SG11829 DB	'LOADDS', 00H
	ORG $+1
$SG12858 DB	'%d%c', 00H
	ORG $+3
$SG12862 DB	'%d%c', 00H
	ORG $+7
$SG12863 DB	'RetInstr() exit', 0aH, 00H
	ORG $+3
$SG11842 DB	'USES', 00H
	ORG $+7
$SG11844 DB	'ParseProc: USES found in PROTO', 0aH, 00H
$SG11847 DB	'ParseProc: no registers for regslist', 0aH, 00H
	ORG $+2
$SG11852 DB	'ParseProc(%s): i=%u, Token_Count=%u, CurrWordSize=%u', 0aH
	DB	00H
	ORG $+2
$SG11861 DB	'ParseProc(%s): memtype=%Xh parasize=%u', 0aH, 00H
$SG11907 DB	'DeleteProc(%s) enter', 0aH, 00H
	ORG $+2
$SG11910 DB	'DeleteProc(%s): free %s [next=%p]', 0aH, 00H
	ORG $+5
$SG11914 DB	'DeleteProc(%s): free %p (%s) [next=%p]', 0aH, 00H
$SG11944 DB	'ProcDir enter, curr ofs=%X', 0aH, 00H
$SG11968 DB	'proc.c', 00H
	ORG $+5
$SG11971 DB	'phase error ', 00H
	ORG $+3
$SG11972 DB	'ProcDir(%s): %spass %u, old ofs=%X, new ofs=%X', 0aH, 00H
$SG12001 DB	'CopyPrototype(%s,src=%s): ofssize=%u', 0aH, 00H
	ORG $+2
$SG12021 DB	'.xdata', 00H
	ORG $+1
$SG12026 DB	'%s %r', 00H
	ORG $+2
$SG12027 DB	'%s %r align(%u) flat read ''DATA''', 00H
	ORG $+7
$SG12028 DB	'$xdatasym label near', 00H
	ORG $+3
$SG12030 DB	'db %ut + (0%xh shl 3), %ut, %ut, 0%xh + (0%xh shl 4)', 00H
	ORG $+3
$SG12033 DB	'%s 0%xh', 00H
$SG12038 DB	'%r 4', 00H
	ORG $+3
$SG12040 DB	'dd %r %s', 00H
	ORG $+3
$SG12041 DB	'%r 8', 00H
	ORG $+3
$SG12042 DB	'%s %r', 00H
	ORG $+2
$SG12045 DB	'.pdata', 00H
	ORG $+5
$SG12046 DB	'.pdata$%04u', 00H
$SG12049 DB	'%s %r', 00H
	ORG $+6
$SG12050 DB	'%s %r align(%u) flat read ''DATA''', 00H
	ORG $+7
$SG12051 DB	'dd %r %s, %r %s+0%xh, %r $xdatasym+0%xh', 00H
$SG12052 DB	'%s %r', 00H
	ORG $+2
$SG12078 DB	'NULL', 00H
	ORG $+3
$SG12079 DB	'ProcFini(%s): unmatched block nesting error, proc->seg=%'
	DB	's, CurrSeg=%s', 0aH, 00H
	ORG $+1
$SG12084 DB	'ProcFini(%s): localsize=%u ReservedStack=%u', 0aH, 00H
	ORG $+3
$SG12086 DB	'ProcFini(%s): FPO, offset for %s %8d -> %8d', 0aH, 00H
	ORG $+3
$SG12087 DB	'ProcFini(%s): FPO, offset for %s %8d -> %8d', 0aH, 00H
	ORG $+3
$SG12099 DB	'NULL', 00H
	ORG $+3
$SG12100 DB	'EndpDir(%s) enter, curr ofs=% X, CurrProc=%s', 0aH, 00H
	ORG $+2
$SG12125 DB	'ExcFrameDirective(%s) enter', 0aH, 00H
	ORG $+3
$SG12142 DB	'ExcFrameDirective: UWOP_ALLOC_LARGE, operation info 1, s'
	DB	'ize=%Xh', 0aH, 00H
	ORG $+7
$SG12144 DB	'ExcFrameDirective: UWOP_ALLOC_SMALL, size=%Xh', 0aH, 00H
	ORG $+1
$SG12149 DB	'CODE', 00H
	ORG $+3
$SG12143 DB	'ExcFrameDirective: UWOP_ALLOC_LARGE, operation info 0, s'
	DB	'ize=%Xh', 0aH, 00H
	ORG $+7
$SG12181 DB	'ExcFrameDirective() exit, ok', 0aH, 00H
	ORG $+2
$SG12187 DB	'ProcCheckOpen: unmatched block nesting error, CurrProc=%'
	DB	's', 0aH, 00H
	ORG $+5
$SG12218 DB	'option prologue:none', 0aH, 00H
	ORG $+2
$SG12222 DB	' (%s, 0%XH, 0%XH, 0%XH, <<%s>>, <%s>)', 00H
	ORG $+2
$SG12223 DB	'write_userdef_prologue: macro %s returned >%s<', 0aH, 00H
$SG12253 DB	'movsd qword ptr[%r+%u], %r', 00H
	ORG $+5
$SG12255 DB	'movss dword ptr[%r+%u], %r', 00H
	ORG $+5
$SG12260 DB	'mov [%r+%u], %r', 00H
$SG12261 DB	'mov [%r+%u], %r', 00H
$SG12266 DB	'movq [%r+%u], %r', 00H
	ORG $+7
$SG12268 DB	'mov [%r+%u], %r', 00H
$SG12269 DB	'mov [%r+%u], %r', 00H
$SG12274 DB	'movq [%r+%u], %r', 00H
	ORG $+7
$SG12275 DB	'mov [%r+%u], %r', 00H
$SG12276 DB	'mov [%r+%u], %r', 00H
_DATA	ENDS
PUBLIC	__local_stdio_printf_options
PUBLIC	_vfprintf_l
PUBLIC	printf
PUBLIC	_vsnprintf_l
PUBLIC	_vsprintf_l
PUBLIC	sprintf
PUBLIC	ParseProc
PUBLIC	CreateProc
PUBLIC	DeleteProc
PUBLIC	CopyPrototype
PUBLIC	RetInstr
PUBLIC	write_prologue
PUBLIC	ProcInit
PUBLIC	ProcCheckOpen
PUBLIC	LocalDir
PUBLIC	UpdateStackBase
PUBLIC	UpdateProcStatus
PUBLIC	ProcDir
PUBLIC	EndpDir
PUBLIC	ExcFrameDirective
EXTRN	__report_rangecheckfailure:PROC
EXTRN	__acrt_iob_func:PROC
EXTRN	__stdio_common_vfprintf:PROC
EXTRN	__stdio_common_vsprintf:PROC
EXTRN	atoi:PROC
EXTRN	memcpy:PROC
EXTRN	memset:PROC
EXTRN	strcat:PROC
EXTRN	strcmp:PROC
EXTRN	strcpy:PROC
EXTRN	_stricmp:PROC
EXTRN	strlen:PROC
EXTRN	DoDebugMsg:PROC
EXTRN	DoDebugMsg1:PROC
EXTRN	EmitError:PROC
EXTRN	EmitErr:PROC
EXTRN	EmitWarn:PROC
EXTRN	AddLinnumDataRef:PROC
EXTRN	LclAlloc:PROC
EXTRN	SymAlloc:PROC
EXTRN	SymFree:PROC
EXTRN	SymCreate:PROC
EXTRN	SymLCreate:PROC
EXTRN	SymAddLocal:PROC
EXTRN	SymFind:PROC
EXTRN	SymClearLocal:PROC
EXTRN	SymSetLocal:PROC
EXTRN	SymGetLocal:PROC
EXTRN	SizeFromMemtype:PROC
EXTRN	SizeFromRegister:PROC
EXTRN	GetLangType:PROC
EXTRN	sym_add_table:PROC
EXTRN	sym_remove_table:PROC
EXTRN	sym_ext2int:PROC
EXTRN	ParseLine:PROC
EXTRN	SetSymSegOfs:PROC
EXTRN	GetSymOfssize:PROC
EXTRN	GetCurrOffset:PROC
EXTRN	GetSegIdx:PROC
EXTRN	SimGetSegName:PROC
EXTRN	AddPublicData:PROC
EXTRN	BackPatch:PROC
EXTRN	GetLineNumber:PROC
EXTRN	get_curr_srcfile:PROC
EXTRN	AddLineQueue:PROC
EXTRN	AddLineQueueX:PROC
EXTRN	RunLineQueue:PROC
EXTRN	Tokenize:PROC
EXTRN	EvalOperand:PROC
EXTRN	EmitConstError:PROC
EXTRN	GetQualifiedType:PROC
EXTRN	RunMacro:PROC
EXTRN	SkipSavedState:PROC
EXTRN	LstWrite:PROC
EXTRN	LstSetPosition:PROC
EXTRN	AlignCurrOffset:PROC
EXTRN	InternalError:PROC
EXTRN	GetResWName:PROC
EXTRN	__GSHandlerCheck:PROC
EXTRN	__security_check_cookie:PROC
EXTRN	Options:BYTE
EXTRN	ModuleInfo:BYTE
EXTRN	Parse_Pass:DWORD
EXTRN	SymCmpFunc:QWORD
EXTRN	SymTables:BYTE
EXTRN	SpecialTable:BYTE
EXTRN	LineStoreCurr:QWORD
EXTRN	UseSavedState:BYTE
EXTRN	szDgroup:BYTE
EXTRN	list_pos:DWORD
EXTRN	__ImageBase:BYTE
EXTRN	__security_cookie:QWORD
_DATA	SEGMENT
COMM	?_OptionsStorage@?1??__local_stdio_printf_options@@9@9:QWORD							; `__local_stdio_printf_options'::`2'::_OptionsStorage
_DATA	ENDS
_BSS	SEGMENT
	ALIGN	8

ProcStack DQ	01H DUP (?)
endprolog_found DB 01H DUP (?)
	ALIGN	4

unw_segs_defined DB 01H DUP (?)
	ALIGN	4

unw_info DD	01H DUP (?)
unw_code DW	0102H DUP (?)
?regname@?1??watc_pcheck@@9@9 DB 040H DUP (?)		; `watc_pcheck'::`2'::regname
?regist@?1??watc_pcheck@@9@9 DB 020H DUP (?)		; `watc_pcheck'::`2'::regist
_BSS	ENDS
;	COMDAT pdata
pdata	SEGMENT
$pdata$_vfprintf_l DD imagerel $LN3
	DD	imagerel $LN3+67
	DD	imagerel $unwind$_vfprintf_l
pdata	ENDS
;	COMDAT pdata
pdata	SEGMENT
$pdata$printf DD imagerel $LN3
	DD	imagerel $LN3+87
	DD	imagerel $unwind$printf
pdata	ENDS
;	COMDAT pdata
pdata	SEGMENT
$pdata$_vsnprintf_l DD imagerel $LN5
	DD	imagerel $LN5+117
	DD	imagerel $unwind$_vsnprintf_l
pdata	ENDS
;	COMDAT pdata
pdata	SEGMENT
$pdata$_vsprintf_l DD imagerel $LN3
	DD	imagerel $LN3+66
	DD	imagerel $unwind$_vsprintf_l
pdata	ENDS
;	COMDAT pdata
pdata	SEGMENT
$pdata$sprintf DD imagerel $LN3
	DD	imagerel $LN3+79
	DD	imagerel $unwind$sprintf
pdata	ENDS
pdata	SEGMENT
$pdata$ParseProc DD imagerel $LN93
	DD	imagerel $LN93+4261
	DD	imagerel $unwind$ParseProc
$pdata$CreateProc DD imagerel $LN18
	DD	imagerel $LN18+628
	DD	imagerel $unwind$CreateProc
$pdata$DeleteProc DD imagerel $LN14
	DD	imagerel $LN14+304
	DD	imagerel $unwind$DeleteProc
$pdata$CopyPrototype DD imagerel $LN12
	DD	imagerel $LN12+476
	DD	imagerel $unwind$CopyPrototype
$pdata$RetInstr DD imagerel $LN28
	DD	imagerel $LN28+941
	DD	imagerel $unwind$RetInstr
$pdata$write_prologue DD imagerel $LN12
	DD	imagerel $LN12+335
	DD	imagerel $unwind$write_prologue
$pdata$ProcInit DD imagerel $LN5
	DD	imagerel $LN5+178
	DD	imagerel $unwind$ProcInit
$pdata$ProcCheckOpen DD imagerel $LN5
	DD	imagerel $LN5+77
	DD	imagerel $unwind$ProcCheckOpen
$pdata$ms32_pcheck DD imagerel ms32_pcheck
	DD	imagerel ms32_pcheck+390
	DD	imagerel $unwind$ms32_pcheck
$pdata$ms32_return DD imagerel ms32_return
	DD	imagerel ms32_return+187
	DD	imagerel $unwind$ms32_return
$pdata$watc_pcheck DD imagerel watc_pcheck
	DD	imagerel watc_pcheck+1293
	DD	imagerel $unwind$watc_pcheck
$pdata$watc_return DD imagerel watc_return
	DD	imagerel watc_return+176
	DD	imagerel $unwind$watc_return
$pdata$pushitem DD imagerel pushitem
	DD	imagerel pushitem+87
	DD	imagerel $unwind$pushitem
$pdata$popitem DD imagerel popitem
	DD	imagerel popitem+69
	DD	imagerel $unwind$popitem
$pdata$push_proc DD imagerel push_proc
	DD	imagerel push_proc+50
	DD	imagerel $unwind$push_proc
$pdata$pop_proc DD imagerel pop_proc
	DD	imagerel pop_proc+35
	DD	imagerel $unwind$pop_proc
$pdata$LocalDir DD imagerel $LN44
	DD	imagerel $LN44+1496
	DD	imagerel $unwind$LocalDir
$pdata$UpdateProcStatus DD imagerel $LN5
	DD	imagerel $LN5+58
	DD	imagerel $unwind$UpdateProcStatus
$pdata$ParseParams DD imagerel ParseParams
	DD	imagerel ParseParams+4907
	DD	imagerel $unwind$ParseParams
$pdata$ProcDir DD imagerel $LN42
	DD	imagerel $LN42+1732
	DD	imagerel $unwind$ProcDir
$pdata$WriteSEHData DD imagerel WriteSEHData
	DD	imagerel WriteSEHData+1144
	DD	imagerel $unwind$WriteSEHData
$pdata$SetLocalOffsets DD imagerel SetLocalOffsets
	DD	imagerel SetLocalOffsets+2108
	DD	imagerel $unwind$SetLocalOffsets
$pdata$ProcFini DD imagerel ProcFini
	DD	imagerel ProcFini+982
	DD	imagerel $unwind$ProcFini
$pdata$EndpDir DD imagerel $LN9
	DD	imagerel $LN9+277
	DD	imagerel $unwind$EndpDir
$pdata$ExcFrameDirective DD imagerel $LN59
	DD	imagerel $LN59+2944
	DD	imagerel $unwind$ExcFrameDirective
$pdata$write_userdef_prologue DD imagerel write_userdef_prologue
	DD	imagerel write_userdef_prologue+1016
	DD	imagerel $unwind$write_userdef_prologue
$pdata$win64_SaveRegParams DD imagerel win64_SaveRegParams
	DD	imagerel win64_SaveRegParams+1360
	DD	imagerel $unwind$win64_SaveRegParams
$pdata$win64_StoreRegHome DD imagerel win64_StoreRegHome
	DD	imagerel win64_StoreRegHome+1078
	DD	imagerel $unwind$win64_StoreRegHome
$pdata$write_win64_default_prologue DD imagerel write_win64_default_prologue
	DD	imagerel write_win64_default_prologue+4961
	DD	imagerel $unwind$write_win64_default_prologue
$pdata$write_default_prologue DD imagerel write_default_prologue
	DD	imagerel write_default_prologue+1130
	DD	imagerel $unwind$write_default_prologue
$pdata$pop_register DD imagerel pop_register
	DD	imagerel pop_register+344
	DD	imagerel $unwind$pop_register
$pdata$write_win64_default_epilogue DD imagerel write_win64_default_epilogue
	DD	imagerel write_win64_default_epilogue+1352
	DD	imagerel $unwind$write_win64_default_epilogue
$pdata$write_default_epilogue DD imagerel write_default_epilogue
	DD	imagerel write_default_epilogue+658
	DD	imagerel $unwind$write_default_epilogue
$pdata$write_userdef_epilogue DD imagerel write_userdef_epilogue
	DD	imagerel write_userdef_epilogue+895
	DD	imagerel $unwind$write_userdef_epilogue
pdata	ENDS
xdata	SEGMENT
$unwind$ParseProc DD 021a01H
	DD	011011aH
$unwind$CreateProc DD 011301H
	DD	08213H
$unwind$DeleteProc DD 010901H
	DD	08209H
$unwind$CopyPrototype DD 010e01H
	DD	0820eH
$unwind$RetInstr DD 022719H
	DD	08f0115H
	DD	imagerel __GSHandlerCheck
	DD	0460H
$unwind$write_prologue DD 010901H
	DD	06209H
$unwind$ProcInit DD 010401H
	DD	02204H
$unwind$ProcCheckOpen DD 010401H
	DD	04204H
$unwind$ms32_pcheck DD 012219H
	DD	0c213H
	DD	imagerel __GSHandlerCheck
	DD	050H
$unwind$ms32_return DD 010e01H
	DD	0620eH
$unwind$watc_pcheck DD 021601H
	DD	0110116H
$unwind$watc_return DD 010e01H
	DD	0620eH
$unwind$pushitem DD 010e01H
	DD	0620eH
$unwind$popitem DD 010901H
	DD	04209H
$unwind$push_proc DD 010901H
	DD	04209H
$unwind$pop_proc DD 010401H
	DD	04204H
$unwind$LocalDir DD 021001H
	DD	0210110H
$unwind$UpdateProcStatus DD 010e01H
	DD	0220eH
$unwind$ParseParams DD 031b01H
	DD	02c011bH
	DD	03014H
$unwind$ProcDir DD 010d01H
	DD	0e20dH
$unwind$WriteSEHData DD 021e19H
	DD	027010cH
	DD	imagerel __GSHandlerCheck
	DD	0120H
$unwind$SetLocalOffsets DD 020c01H
	DD	013010cH
$unwind$ProcFini DD 010901H
	DD	08209H
$unwind$EndpDir DD 010d01H
	DD	0620dH
$unwind$ExcFrameDirective DD 021001H
	DD	0190110H
$unwind$write_userdef_prologue DD 021e19H
	DD	0a5010cH
	DD	imagerel __GSHandlerCheck
	DD	0510H
$unwind$win64_SaveRegParams DD 010901H
	DD	08209H
$unwind$win64_StoreRegHome DD 010901H
	DD	08209H
$unwind$write_win64_default_prologue DD 021e19H
	DD	01b010cH
	DD	imagerel __GSHandlerCheck
	DD	0c8H
$unwind$write_default_prologue DD 010401H
	DD	08204H
$unwind$pop_register DD 010901H
	DD	06209H
$unwind$write_win64_default_epilogue DD 010901H
	DD	0c209H
$unwind$write_default_epilogue DD 010401H
	DD	06204H
$unwind$write_userdef_epilogue DD 022219H
	DD	0a50110H
	DD	imagerel __GSHandlerCheck
	DD	0510H
xdata	ENDS
;	COMDAT xdata
xdata	SEGMENT
$unwind$sprintf DD 011801H
	DD	06218H
xdata	ENDS
;	COMDAT xdata
xdata	SEGMENT
$unwind$_vsprintf_l DD 011801H
	DD	06218H
xdata	ENDS
;	COMDAT xdata
xdata	SEGMENT
$unwind$_vsnprintf_l DD 011801H
	DD	08218H
xdata	ENDS
;	COMDAT xdata
xdata	SEGMENT
$unwind$printf DD 011801H
	DD	06218H
xdata	ENDS
;	COMDAT xdata
xdata	SEGMENT
$unwind$_vfprintf_l DD 011801H
	DD	06218H
xdata	ENDS
; Function compile flags: /Odtp
; File d:\hjwasm\hjwasm2.13.1s\hjwasm2.13.1s\proc.c
_TEXT	SEGMENT
flags$ = 64
cnt$1 = 68
p$ = 72
info$ = 80
is_exitm$ = 88
i$ = 92
tv91 = 96
tv130 = 100
tv137 = 104
tv141 = 108
dir$ = 112
regs$ = 120
tv167 = 128
reglst$ = 144
buffer$ = 272
__$ArrayPad$ = 1296
flag_iret$ = 1328
tokenarray$ = 1336
write_userdef_epilogue PROC

; 3554 : {

	mov	QWORD PTR [rsp+16], rdx
	mov	BYTE PTR [rsp+8], cl
	sub	rsp, 1320				; 00000528H
	mov	rax, QWORD PTR __security_cookie
	xor	rax, rsp
	mov	QWORD PTR __$ArrayPad$[rsp], rax

; 3555 :     uint_16 *regs;
; 3556 :     int i;
; 3557 :     char *p;
; 3558 :     bool is_exitm;
; 3559 :     struct proc_info   *info;
; 3560 :     int flags = CurrProc->sym.langtype; /* set bits 0-2 */

	mov	rax, QWORD PTR CurrProc
	mov	eax, DWORD PTR [rax+76]
	mov	DWORD PTR flags$[rsp], eax

; 3561 :     struct dsym *dir;
; 3562 :     char reglst[128];
; 3563 :     char buffer[MAX_LINE_LEN]; /* stores string for RunMacro() */
; 3564 : 
; 3565 :     dir = (struct dsym *)SymSearch( ModuleInfo.proc_epilogue );

	mov	rcx, QWORD PTR ModuleInfo+328
	call	SymFind
	mov	QWORD PTR dir$[rsp], rax

; 3566 :     if (dir == NULL ||
; 3567 :         dir->sym.state != SYM_MACRO ||

	cmp	QWORD PTR dir$[rsp], 0
	je	SHORT $LN6@write_user
	mov	rax, QWORD PTR dir$[rsp]
	cmp	DWORD PTR [rax+32], 9
	jne	SHORT $LN6@write_user
	mov	rax, QWORD PTR dir$[rsp]
	movzx	eax, BYTE PTR [rax+44]
	shr	al, 1
	and	al, 1
	movzx	eax, al
	cmp	eax, 1
	jne	SHORT $LN5@write_user
$LN6@write_user:

; 3568 :         dir->sym.isfunc == TRUE ) {
; 3569 :         return( EmitErr( EPILOGUE_MUST_BE_MACRO_PROC, ModuleInfo.proc_epilogue ) );

	mov	rdx, QWORD PTR ModuleInfo+328
	mov	ecx, 157				; 0000009dH
	call	EmitErr
	jmp	$LN1@write_user
$LN5@write_user:

; 3570 :     }
; 3571 : 
; 3572 :     info = CurrProc->e.procinfo;

	mov	rax, QWORD PTR CurrProc
	mov	rax, QWORD PTR [rax+96]
	mov	QWORD PTR info$[rsp], rax

; 3573 : 
; 3574 : #if AMD64_SUPPORT
; 3575 :     /* to be compatible with ML64, translate FASTCALL to 0 (not 7) */
; 3576 :     if ( CurrProc->sym.langtype == LANG_FASTCALL && ModuleInfo.fctype == FCT_WIN64 )

	mov	rax, QWORD PTR CurrProc
	cmp	DWORD PTR [rax+76], 7
	jne	SHORT $LN7@write_user
	cmp	DWORD PTR ModuleInfo+376, 2
	jne	SHORT $LN7@write_user

; 3577 :         flags = 0;

	mov	DWORD PTR flags$[rsp], 0
$LN7@write_user:

; 3578 : #endif
; 3579 :     if ( CurrProc->sym.langtype == LANG_C ||
; 3580 :          CurrProc->sym.langtype == LANG_SYSCALL ||

	mov	rax, QWORD PTR CurrProc
	cmp	DWORD PTR [rax+76], 1
	je	SHORT $LN9@write_user
	mov	rax, QWORD PTR CurrProc
	cmp	DWORD PTR [rax+76], 2
	je	SHORT $LN9@write_user
	mov	rax, QWORD PTR CurrProc
	cmp	DWORD PTR [rax+76], 7
	jne	SHORT $LN8@write_user
$LN9@write_user:

; 3581 :          CurrProc->sym.langtype == LANG_FASTCALL)
; 3582 :         flags |= 0x10;

	mov	eax, DWORD PTR flags$[rsp]
	or	eax, 16
	mov	DWORD PTR flags$[rsp], eax
$LN8@write_user:

; 3583 : 
; 3584 :     flags |= ( CurrProc->sym.mem_type == MT_FAR ? 0x20 : 0 );

	mov	rax, QWORD PTR CurrProc
	cmp	DWORD PTR [rax+36], 130			; 00000082H
	jne	SHORT $LN14@write_user
	mov	DWORD PTR tv91[rsp], 32			; 00000020H
	jmp	SHORT $LN15@write_user
$LN14@write_user:
	mov	DWORD PTR tv91[rsp], 0
$LN15@write_user:
	mov	eax, DWORD PTR tv91[rsp]
	mov	ecx, DWORD PTR flags$[rsp]
	or	ecx, eax
	mov	eax, ecx
	mov	DWORD PTR flags$[rsp], eax

; 3585 :     flags |= ( CurrProc->sym.ispublic ? 0 : 0x40 );

	mov	rax, QWORD PTR CurrProc
	movzx	eax, BYTE PTR [rax+40]
	shr	al, 7
	and	al, 1
	movzx	eax, al
	test	eax, eax
	je	SHORT $LN16@write_user
	mov	DWORD PTR tv130[rsp], 0
	jmp	SHORT $LN17@write_user
$LN16@write_user:
	mov	DWORD PTR tv130[rsp], 64		; 00000040H
$LN17@write_user:
	mov	eax, DWORD PTR tv130[rsp]
	mov	ecx, DWORD PTR flags$[rsp]
	or	ecx, eax
	mov	eax, ecx
	mov	DWORD PTR flags$[rsp], eax

; 3586 :     /* v2.11: set bit 7, the export flag */
; 3587 :     flags |= ( info->isexport ? 0x80 : 0 );

	mov	rax, QWORD PTR info$[rsp]
	movzx	eax, BYTE PTR [rax+128]
	shr	al, 2
	and	al, 1
	movzx	eax, al
	test	eax, eax
	je	SHORT $LN18@write_user
	mov	DWORD PTR tv137[rsp], 128		; 00000080H
	jmp	SHORT $LN19@write_user
$LN18@write_user:
	mov	DWORD PTR tv137[rsp], 0
$LN19@write_user:
	mov	eax, DWORD PTR tv137[rsp]
	mov	ecx, DWORD PTR flags$[rsp]
	or	ecx, eax
	mov	eax, ecx
	mov	DWORD PTR flags$[rsp], eax

; 3588 :     flags |= flag_iret ? 0x100 : 0;  /* bit 8: 1 if IRET    */

	movzx	eax, BYTE PTR flag_iret$[rsp]
	test	eax, eax
	je	SHORT $LN20@write_user
	mov	DWORD PTR tv141[rsp], 256		; 00000100H
	jmp	SHORT $LN21@write_user
$LN20@write_user:
	mov	DWORD PTR tv141[rsp], 0
$LN21@write_user:
	mov	eax, DWORD PTR tv141[rsp]
	mov	ecx, DWORD PTR flags$[rsp]
	or	ecx, eax
	mov	eax, ecx
	mov	DWORD PTR flags$[rsp], eax

; 3589 : 
; 3590 :     p = reglst;

	lea	rax, QWORD PTR reglst$[rsp]
	mov	QWORD PTR p$[rsp], rax

; 3591 :     if ( info->regslist ) {

	mov	rax, QWORD PTR info$[rsp]
	cmp	QWORD PTR [rax], 0
	je	$LN10@write_user

; 3592 :         int cnt = *info->regslist;

	mov	rax, QWORD PTR info$[rsp]
	mov	rax, QWORD PTR [rax]
	movzx	eax, WORD PTR [rax]
	mov	DWORD PTR cnt$1[rsp], eax

; 3593 :         regs = info->regslist + cnt;

	movsxd	rax, DWORD PTR cnt$1[rsp]
	mov	rcx, QWORD PTR info$[rsp]
	mov	rcx, QWORD PTR [rcx]
	lea	rax, QWORD PTR [rcx+rax*2]
	mov	QWORD PTR regs$[rsp], rax

; 3594 :         for ( ; cnt; regs--, cnt-- ) {

	jmp	SHORT $LN4@write_user
$LN2@write_user:
	mov	rax, QWORD PTR regs$[rsp]
	sub	rax, 2
	mov	QWORD PTR regs$[rsp], rax
	mov	eax, DWORD PTR cnt$1[rsp]
	dec	eax
	mov	DWORD PTR cnt$1[rsp], eax
$LN4@write_user:
	cmp	DWORD PTR cnt$1[rsp], 0
	je	SHORT $LN3@write_user

; 3595 :             GetResWName( *regs, p );

	mov	rax, QWORD PTR regs$[rsp]
	movzx	eax, WORD PTR [rax]
	mov	rdx, QWORD PTR p$[rsp]
	mov	ecx, eax
	call	GetResWName

; 3596 :             p += strlen( p );

	mov	rcx, QWORD PTR p$[rsp]
	call	strlen
	mov	rcx, QWORD PTR p$[rsp]
	add	rcx, rax
	mov	rax, rcx
	mov	QWORD PTR p$[rsp], rax

; 3597 :             if ( cnt != 1 )

	cmp	DWORD PTR cnt$1[rsp], 1
	je	SHORT $LN11@write_user

; 3598 :                 *p++ = ',';

	mov	rax, QWORD PTR p$[rsp]
	mov	BYTE PTR [rax], 44			; 0000002cH
	mov	rax, QWORD PTR p$[rsp]
	inc	rax
	mov	QWORD PTR p$[rsp], rax
$LN11@write_user:

; 3599 :         }

	jmp	SHORT $LN2@write_user
$LN3@write_user:
$LN10@write_user:

; 3600 :     }
; 3601 :     *p = NULLC;

	mov	rax, QWORD PTR p$[rsp]
	mov	BYTE PTR [rax], 0

; 3602 :     //strcat( reglst, ">" );
; 3603 : 
; 3604 :     /* v2.07: make the numeric arguments more Masm-compatible */
; 3605 :     //sprintf( buffer,"%s %s, %02XH, %02XH, %02XH, <<%s>>, <%s>", ModuleInfo.proc_epilogue,
; 3606 :     sprintf( buffer,"%s, 0%XH, 0%XH, 0%XH, <<%s>>, <%s>",

	mov	rax, QWORD PTR info$[rsp]
	cmp	QWORD PTR [rax+48], 0
	je	SHORT $LN22@write_user
	mov	rax, QWORD PTR info$[rsp]
	mov	rax, QWORD PTR [rax+48]
	mov	QWORD PTR tv167[rsp], rax
	jmp	SHORT $LN23@write_user
$LN22@write_user:
	lea	rax, OFFSET FLAT:$SG12820
	mov	QWORD PTR tv167[rsp], rax
$LN23@write_user:
	mov	rax, QWORD PTR tv167[rsp]
	mov	QWORD PTR [rsp+56], rax
	lea	rax, QWORD PTR reglst$[rsp]
	mov	QWORD PTR [rsp+48], rax
	mov	rax, QWORD PTR info$[rsp]
	mov	eax, DWORD PTR [rax+36]
	mov	DWORD PTR [rsp+40], eax
	mov	rax, QWORD PTR info$[rsp]
	mov	eax, DWORD PTR [rax+32]
	mov	DWORD PTR [rsp+32], eax
	mov	r9d, DWORD PTR flags$[rsp]
	mov	rax, QWORD PTR CurrProc
	mov	r8, QWORD PTR [rax+8]
	lea	rdx, OFFSET FLAT:$SG12821
	lea	rcx, QWORD PTR buffer$[rsp]
	call	sprintf

; 3607 :             CurrProc->sym.name, flags, info->parasize, info->localsize,
; 3608 :             reglst, info->prologuearg ? info->prologuearg : "" );
; 3609 :     i = Token_Count + 1;

	mov	eax, DWORD PTR ModuleInfo+496
	inc	eax
	mov	DWORD PTR i$[rsp], eax

; 3610 :     Tokenize( buffer, i, tokenarray, TOK_RESCAN );

	mov	r9d, 1
	mov	r8, QWORD PTR tokenarray$[rsp]
	mov	edx, DWORD PTR i$[rsp]
	lea	rcx, QWORD PTR buffer$[rsp]
	call	Tokenize

; 3611 : 
; 3612 :     /* if -EP is on, emit "epilogue: none" */
; 3613 :     if ( Options.preprocessor_stdout )

	movzx	eax, BYTE PTR Options+141
	test	eax, eax
	je	SHORT $LN12@write_user

; 3614 :         printf( "option epilogue:none\n" );

	lea	rcx, OFFSET FLAT:$SG12823
	call	printf
$LN12@write_user:

; 3615 : 
; 3616 :     RunMacro( dir, i, tokenarray, NULL, 0, &is_exitm );

	lea	rax, QWORD PTR is_exitm$[rsp]
	mov	QWORD PTR [rsp+40], rax
	mov	DWORD PTR [rsp+32], 0
	xor	r9d, r9d
	mov	r8, QWORD PTR tokenarray$[rsp]
	mov	edx, DWORD PTR i$[rsp]
	mov	rcx, QWORD PTR dir$[rsp]
	call	RunMacro

; 3617 :     Token_Count = i - 1;

	mov	eax, DWORD PTR i$[rsp]
	dec	eax
	mov	DWORD PTR ModuleInfo+496, eax

; 3618 :     return( NOT_ERROR );

	xor	eax, eax
$LN1@write_user:

; 3619 : }

	mov	rcx, QWORD PTR __$ArrayPad$[rsp]
	xor	rcx, rsp
	call	__security_check_cookie
	add	rsp, 1320				; 00000528H
	ret	0
write_userdef_epilogue ENDP
_TEXT	ENDS
; Function compile flags: /Odtp
; File d:\hjwasm\hjwasm2.13.1s\hjwasm2.13.1s\proc.c
_TEXT	SEGMENT
resstack$ = 32
info$ = 40
write_default_epilogue PROC

; 3465 : {

	sub	rsp, 56					; 00000038H

; 3466 :     struct proc_info   *info;
; 3467 : #if AMD64_SUPPORT
; 3468 :     int resstack = 0;

	mov	DWORD PTR resstack$[rsp], 0

; 3469 : #endif
; 3470 : 
; 3471 :     info = CurrProc->e.procinfo;

	mov	rax, QWORD PTR CurrProc
	mov	rax, QWORD PTR [rax+96]
	mov	QWORD PTR info$[rsp], rax

; 3472 : 
; 3473 : #if AMD64_SUPPORT
; 3474 :     if ( info->isframe ) {

	mov	rax, QWORD PTR info$[rsp]
	movzx	eax, BYTE PTR [rax+128]
	shr	al, 6
	and	al, 1
	movzx	eax, al
	test	eax, eax
	je	SHORT $LN2@write_defa

; 3475 :         if ( ModuleInfo.frame_auto )

	mov	eax, DWORD PTR ModuleInfo+408
	shr	eax, 17
	and	eax, 1
	test	eax, eax
	je	SHORT $LN3@write_defa

; 3476 :             write_win64_default_epilogue( info );

	mov	rcx, QWORD PTR info$[rsp]
	call	write_win64_default_epilogue
$LN3@write_defa:

; 3477 :         return;

	jmp	$LN1@write_defa
$LN2@write_defa:

; 3478 :     }
; 3479 :     if ( ModuleInfo.Ofssize == USE64 && ModuleInfo.fctype == FCT_WIN64 && ( ModuleInfo.win64_flags & W64F_AUTOSTACKSP ) ) {

	movzx	eax, BYTE PTR ModuleInfo+404
	cmp	eax, 2
	jne	SHORT $LN4@write_defa
	cmp	DWORD PTR ModuleInfo+376, 2
	jne	SHORT $LN4@write_defa
	movzx	eax, BYTE PTR ModuleInfo+413
	and	eax, 2
	test	eax, eax
	je	SHORT $LN4@write_defa

; 3480 :         resstack  = sym_ReservedStack->value;

	mov	rax, QWORD PTR sym_ReservedStack
	mov	eax, DWORD PTR [rax+16]
	mov	DWORD PTR resstack$[rsp], eax

; 3481 :         /* if no framepointer was pushed, add 8 to align stack on OWORD
; 3482 :          * v2.12: obsolete; localsize contains correct value.
; 3483 :          */
; 3484 :         //if( !(info->localsize || info->stackparam || info->has_vararg || info->forceframe ))
; 3485 :         //    AddLineQueueX( "add %r, 8 + %s", stackreg[ModuleInfo.Ofssize], sym_ReservedStack->name );
; 3486 :         //else
; 3487 :         AddLineQueueX( "add %r, %d + %s", stackreg[ModuleInfo.Ofssize], NUMQUAL info->localsize, sym_ReservedStack->name );

	movzx	eax, BYTE PTR ModuleInfo+404
	lea	rcx, OFFSET FLAT:stackreg
	mov	rdx, QWORD PTR sym_ReservedStack
	mov	r9, QWORD PTR [rdx+8]
	mov	rdx, QWORD PTR info$[rsp]
	mov	r8d, DWORD PTR [rdx+36]
	mov	edx, DWORD PTR [rcx+rax*4]
	lea	rcx, OFFSET FLAT:$SG12774
	call	AddLineQueueX
$LN4@write_defa:

; 3488 :     }
; 3489 : #endif
; 3490 : 
; 3491 :     /* Pop the registers */
; 3492 :     pop_register( CurrProc->e.procinfo->regslist );

	mov	rax, QWORD PTR CurrProc
	mov	rax, QWORD PTR [rax+96]
	mov	rcx, QWORD PTR [rax]
	call	pop_register

; 3493 : 
; 3494 :     if ( info->loadds ) {

	mov	rax, QWORD PTR info$[rsp]
	movzx	eax, BYTE PTR [rax+128]
	shr	al, 4
	and	al, 1
	movzx	eax, al
	test	eax, eax
	je	SHORT $LN5@write_defa

; 3495 :         AddLineQueueX( "pop %r", T_DS );

	mov	edx, 28
	lea	rcx, OFFSET FLAT:$SG12776
	call	AddLineQueueX
$LN5@write_defa:

; 3496 :     }
; 3497 : 
; 3498 :     if( ( info->locallist == NULL ) &&
; 3499 :        info->stackparam == FALSE &&
; 3500 :        info->has_vararg == FALSE &&
; 3501 : #if AMD64_SUPPORT
; 3502 :        resstack == 0 &&

	mov	rax, QWORD PTR info$[rsp]
	cmp	QWORD PTR [rax+16], 0
	jne	SHORT $LN6@write_defa
	mov	rax, QWORD PTR info$[rsp]
	movzx	eax, BYTE PTR [rax+128]
	shr	al, 5
	and	al, 1
	movzx	eax, al
	test	eax, eax
	jne	SHORT $LN6@write_defa
	mov	rax, QWORD PTR info$[rsp]
	movzx	eax, BYTE PTR [rax+128]
	and	al, 1
	movzx	eax, al
	test	eax, eax
	jne	SHORT $LN6@write_defa
	cmp	DWORD PTR resstack$[rsp], 0
	jne	SHORT $LN6@write_defa
	mov	rax, QWORD PTR info$[rsp]
	movzx	eax, BYTE PTR [rax+128]
	shr	al, 3
	and	al, 1
	movzx	eax, al
	test	eax, eax
	jne	SHORT $LN6@write_defa

; 3503 : #endif
; 3504 :        info->forceframe == FALSE )
; 3505 :         return;

	jmp	$LN1@write_defa
$LN6@write_defa:

; 3506 : 
; 3507 :     /* restore registers e/sp and e/bp.
; 3508 :      * emit either "leave" or "mov e/sp,e/bp, pop e/bp".
; 3509 :      */
; 3510 : #if AMD64_SUPPORT
; 3511 :     if( !(info->locallist || info->stackparam || info->has_vararg || info->forceframe ))

	mov	rax, QWORD PTR info$[rsp]
	cmp	QWORD PTR [rax+16], 0
	jne	SHORT $LN7@write_defa
	mov	rax, QWORD PTR info$[rsp]
	movzx	eax, BYTE PTR [rax+128]
	shr	al, 5
	and	al, 1
	movzx	eax, al
	test	eax, eax
	jne	SHORT $LN7@write_defa
	mov	rax, QWORD PTR info$[rsp]
	movzx	eax, BYTE PTR [rax+128]
	and	al, 1
	movzx	eax, al
	test	eax, eax
	jne	SHORT $LN7@write_defa
	mov	rax, QWORD PTR info$[rsp]
	movzx	eax, BYTE PTR [rax+128]
	shr	al, 3
	and	al, 1
	movzx	eax, al
	test	eax, eax
	jne	SHORT $LN7@write_defa

; 3512 :         ;

	jmp	$LN8@write_defa
$LN7@write_defa:

; 3513 :     else
; 3514 : #endif
; 3515 :     if( info->pe_type ) {

	mov	rax, QWORD PTR info$[rsp]
	movzx	eax, BYTE PTR [rax+128]
	shr	al, 1
	and	al, 1
	movzx	eax, al
	test	eax, eax
	je	SHORT $LN9@write_defa

; 3516 :         AddLineQueue( "leave" );

	lea	rcx, OFFSET FLAT:$SG12782
	call	AddLineQueue

; 3517 :     } else  {

	jmp	$LN10@write_defa
$LN9@write_defa:

; 3518 : #if STACKBASESUPP
; 3519 :         if ( info->fpo ) {

	mov	rax, QWORD PTR info$[rsp]
	movzx	eax, BYTE PTR [rax+128]
	shr	al, 7
	and	al, 1
	movzx	eax, al
	test	eax, eax
	je	SHORT $LN11@write_defa

; 3520 : #if AMD64_SUPPORT
; 3521 :             if ( ModuleInfo.Ofssize == USE64 && ModuleInfo.fctype == FCT_WIN64 && ( ModuleInfo.win64_flags & W64F_AUTOSTACKSP ) )

	movzx	eax, BYTE PTR ModuleInfo+404
	cmp	eax, 2
	jne	SHORT $LN12@write_defa
	cmp	DWORD PTR ModuleInfo+376, 2
	jne	SHORT $LN12@write_defa
	movzx	eax, BYTE PTR ModuleInfo+413
	and	eax, 2
	test	eax, eax
	je	SHORT $LN12@write_defa

; 3522 :                 ;

	jmp	SHORT $LN13@write_defa
$LN12@write_defa:

; 3523 :             else
; 3524 : #endif
; 3525 :             if ( info->localsize )

	mov	rax, QWORD PTR info$[rsp]
	cmp	DWORD PTR [rax+36], 0
	je	SHORT $LN14@write_defa

; 3526 :                 AddLineQueueX( "add %r, %d", stackreg[ModuleInfo.Ofssize], NUMQUAL info->localsize );

	movzx	eax, BYTE PTR ModuleInfo+404
	lea	rcx, OFFSET FLAT:stackreg
	mov	rdx, QWORD PTR info$[rsp]
	mov	r8d, DWORD PTR [rdx+36]
	mov	edx, DWORD PTR [rcx+rax*4]
	lea	rcx, OFFSET FLAT:$SG12787
	call	AddLineQueueX
$LN14@write_defa:
$LN13@write_defa:

; 3527 :             return;

	jmp	SHORT $LN1@write_defa
$LN11@write_defa:

; 3528 :         }
; 3529 : #endif
; 3530 :         /*
; 3531 :          MOV [E|R]SP, [E|R]BP
; 3532 :          POP [E|R]BP
; 3533 :          */
; 3534 :         if( info->localsize != 0 ) {

	mov	rax, QWORD PTR info$[rsp]
	cmp	DWORD PTR [rax+36], 0
	je	SHORT $LN15@write_defa

; 3535 : #if STACKBASESUPP
; 3536 :             AddLineQueueX( "mov %r, %r", stackreg[ModuleInfo.Ofssize], info->basereg );

	mov	rax, QWORD PTR info$[rsp]
	movzx	eax, WORD PTR [rax+130]
	movzx	ecx, BYTE PTR ModuleInfo+404
	lea	rdx, OFFSET FLAT:stackreg
	mov	r8d, eax
	mov	edx, DWORD PTR [rdx+rcx*4]
	lea	rcx, OFFSET FLAT:$SG12789
	call	AddLineQueueX
$LN15@write_defa:

; 3537 : #else
; 3538 :             AddLineQueueX( "mov %r, %r", stackreg[ModuleInfo.Ofssize], basereg[ModuleInfo.Ofssize] );
; 3539 : #endif
; 3540 :         }
; 3541 : #if STACKBASESUPP
; 3542 :         AddLineQueueX( "pop %r", info->basereg );

	mov	rax, QWORD PTR info$[rsp]
	movzx	eax, WORD PTR [rax+130]
	mov	edx, eax
	lea	rcx, OFFSET FLAT:$SG12790
	call	AddLineQueueX
$LN10@write_defa:
$LN8@write_defa:
$LN1@write_defa:

; 3543 : #else
; 3544 :         AddLineQueueX( "pop %r", basereg[ModuleInfo.Ofssize] );
; 3545 : #endif
; 3546 :     }
; 3547 : }

	add	rsp, 56					; 00000038H
	ret	0
write_default_epilogue ENDP
_TEXT	ENDS
; Function compile flags: /Odtp
; File d:\hjwasm\hjwasm2.13.1s\hjwasm2.13.1s\proc.c
_TEXT	SEGMENT
i$1 = 48
regs$2 = 56
cnt$3 = 64
cnt$4 = 68
regist$5 = 72
stackSize$6 = 80
gprzize$7 = 84
anysize$ = 88
i$8 = 92
info$ = 112
write_win64_default_epilogue PROC

; 3291 : {

	mov	QWORD PTR [rsp+8], rcx
	sub	rsp, 104				; 00000068H

; 3292 :   int anysize;
; 3293 : #if STACKBASESUPP
; 3294 :     /* v2.12: obsolete */
; 3295 :     //if ( GetRegNo( info->basereg ) == 4 || ( info->parasize == 0 && info->locallist == NULL ) )
; 3296 :     //    sizestd = 8;
; 3297 : #endif
; 3298 :     /* restore non-volatile xmm registers */
; 3299 :     if ( info->regslist ) {

	mov	rax, QWORD PTR info$[rsp]
	cmp	QWORD PTR [rax], 0
	je	$LN11@write_win6

; 3300 :         uint_16 *regs;
; 3301 :         int cnt;
; 3302 :         int i;
; 3303 :         
; 3304 : 
; 3305 :         /* v2.12: space for xmm saves is now included in localsize
; 3306 :          * so first thing to do is to count the xmm regs that were saved
; 3307 :          */
; 3308 :         for( regs = info->regslist, cnt = *regs++, i = 0; cnt; cnt--, regs++ )

	mov	rax, QWORD PTR info$[rsp]
	mov	rax, QWORD PTR [rax]
	mov	QWORD PTR regs$2[rsp], rax
	mov	rax, QWORD PTR regs$2[rsp]
	movzx	eax, WORD PTR [rax]
	mov	DWORD PTR cnt$3[rsp], eax
	mov	rax, QWORD PTR regs$2[rsp]
	add	rax, 2
	mov	QWORD PTR regs$2[rsp], rax
	mov	DWORD PTR i$1[rsp], 0
	jmp	SHORT $LN4@write_win6
$LN2@write_win6:
	mov	eax, DWORD PTR cnt$3[rsp]
	dec	eax
	mov	DWORD PTR cnt$3[rsp], eax
	mov	rax, QWORD PTR regs$2[rsp]
	add	rax, 2
	mov	QWORD PTR regs$2[rsp], rax
$LN4@write_win6:
	cmp	DWORD PTR cnt$3[rsp], 0
	je	SHORT $LN3@write_win6

; 3309 :                 if (( GetValueSp( *regs ) & OP_XMM )||( GetValueSp( *regs ) & OP_YMM )

	mov	rax, QWORD PTR regs$2[rsp]
	movzx	eax, WORD PTR [rax]
	imul	rax, rax, 12
	lea	rcx, OFFSET FLAT:SpecialTable
	mov	eax, DWORD PTR [rcx+rax]
	and	eax, 32					; 00000020H
	test	eax, eax
	jne	SHORT $LN13@write_win6
	mov	rax, QWORD PTR regs$2[rsp]
	movzx	eax, WORD PTR [rax]
	imul	rax, rax, 12
	lea	rcx, OFFSET FLAT:SpecialTable
	mov	eax, DWORD PTR [rcx+rax]
	and	eax, 128				; 00000080H
	test	eax, eax
	je	SHORT $LN12@write_win6
$LN13@write_win6:

; 3310 : #if EVEXSUPP    
; 3311 :                   || ( GetValueSp( *regs ) & OP_ZMM )
; 3312 : #endif
; 3313 :                 )i++;

	mov	eax, DWORD PTR i$1[rsp]
	inc	eax
	mov	DWORD PTR i$1[rsp], eax
$LN12@write_win6:
	jmp	SHORT $LN2@write_win6
$LN3@write_win6:

; 3314 : 
; 3315 :         DebugMsg1(("write_win64_default_epilogue(%s): %u xmm registers to restore\n", CurrProc->sym.name , i ));

	mov	r8d, DWORD PTR i$1[rsp]
	mov	rax, QWORD PTR CurrProc
	mov	rdx, QWORD PTR [rax+8]
	lea	rcx, OFFSET FLAT:$SG12731
	call	DoDebugMsg1

; 3316 : 
; 3317 :         if ( i ) {

	cmp	DWORD PTR i$1[rsp], 0
	je	$LN14@write_win6

; 3318 :             if (info->locallist)

	mov	rax, QWORD PTR info$[rsp]
	cmp	QWORD PTR [rax+16], 0
	je	SHORT $LN15@write_win6

; 3319 :               i = (info->localsize - i * XYZMMsize) & ~(16 - 1);

	mov	eax, DWORD PTR i$1[rsp]
	imul	eax, DWORD PTR XYZMMsize
	mov	rcx, QWORD PTR info$[rsp]
	mov	ecx, DWORD PTR [rcx+36]
	sub	ecx, eax
	mov	eax, ecx
	and	eax, -16				; fffffff0H
	mov	DWORD PTR i$1[rsp], eax
	jmp	SHORT $LN16@write_win6
$LN15@write_win6:

; 3320 :             else
; 3321 :             i = ( info->localsize) & ~(16-1);

	mov	rax, QWORD PTR info$[rsp]
	mov	eax, DWORD PTR [rax+36]
	and	eax, -16				; fffffff0H
	mov	DWORD PTR i$1[rsp], eax
$LN16@write_win6:

; 3322 :             for( regs = info->regslist, cnt = *regs++; cnt; cnt--, regs++ ) {

	mov	rax, QWORD PTR info$[rsp]
	mov	rax, QWORD PTR [rax]
	mov	QWORD PTR regs$2[rsp], rax
	mov	rax, QWORD PTR regs$2[rsp]
	movzx	eax, WORD PTR [rax]
	mov	DWORD PTR cnt$3[rsp], eax
	mov	rax, QWORD PTR regs$2[rsp]
	add	rax, 2
	mov	QWORD PTR regs$2[rsp], rax
	jmp	SHORT $LN7@write_win6
$LN5@write_win6:
	mov	eax, DWORD PTR cnt$3[rsp]
	dec	eax
	mov	DWORD PTR cnt$3[rsp], eax
	mov	rax, QWORD PTR regs$2[rsp]
	add	rax, 2
	mov	QWORD PTR regs$2[rsp], rax
$LN7@write_win6:
	cmp	DWORD PTR cnt$3[rsp], 0
	je	$LN6@write_win6

; 3323 :                 if (( GetValueSp( *regs ) & OP_XMM )||( GetValueSp( *regs ) & OP_YMM )

	mov	rax, QWORD PTR regs$2[rsp]
	movzx	eax, WORD PTR [rax]
	imul	rax, rax, 12
	lea	rcx, OFFSET FLAT:SpecialTable
	mov	eax, DWORD PTR [rcx+rax]
	and	eax, 32					; 00000020H
	test	eax, eax
	jne	SHORT $LN18@write_win6
	mov	rax, QWORD PTR regs$2[rsp]
	movzx	eax, WORD PTR [rax]
	imul	rax, rax, 12
	lea	rcx, OFFSET FLAT:SpecialTable
	mov	eax, DWORD PTR [rcx+rax]
	and	eax, 128				; 00000080H
	test	eax, eax
	je	$LN17@write_win6
$LN18@write_win6:

; 3324 : #if EVEXSUPP    
; 3325 :                   || ( GetValueSp( *regs ) & OP_ZMM )
; 3326 : #endif
; 3327 :                 ){
; 3328 :                     DebugMsg1(("write_win64_default_epilogue(%s): restore %s, offset=%d\n", CurrProc->sym.name , GetResWName( *regs, NULL ), i ));

	mov	rax, QWORD PTR regs$2[rsp]
	movzx	eax, WORD PTR [rax]
	xor	edx, edx
	mov	ecx, eax
	call	GetResWName
	mov	r9d, DWORD PTR i$1[rsp]
	mov	r8, rax
	mov	rax, QWORD PTR CurrProc
	mov	rdx, QWORD PTR [rax+8]
	lea	rcx, OFFSET FLAT:$SG12737
	call	DoDebugMsg1

; 3329 :                     //AddLineQueueX( "movdqa %r, [%r+%u]", *regist, stackreg[ModuleInfo.Ofssize], NUMQUAL info->localsize + sizexmm );
; 3330 :                     /* v2.11: use @ReservedStack only if option win64:2 is set */
; 3331 :                     if (ModuleInfo.win64_flags & W64F_AUTOSTACKSP){

	movzx	eax, BYTE PTR ModuleInfo+413
	and	eax, 2
	test	eax, eax
	je	SHORT $LN19@write_win6

; 3332 :                         AddLineQueueX("vmovdqu %r, [%r + %u + %s]", *regs, stackreg[ModuleInfo.Ofssize], NUMQUAL i, sym_ReservedStack->name);

	movzx	eax, BYTE PTR ModuleInfo+404
	lea	rcx, OFFSET FLAT:stackreg
	mov	rdx, QWORD PTR regs$2[rsp]
	movzx	edx, WORD PTR [rdx]
	mov	r8, QWORD PTR sym_ReservedStack
	mov	r8, QWORD PTR [r8+8]
	mov	QWORD PTR [rsp+32], r8
	mov	r9d, DWORD PTR i$1[rsp]
	mov	r8d, DWORD PTR [rcx+rax*4]
	lea	rcx, OFFSET FLAT:$SG12740
	call	AddLineQueueX

; 3333 :                     }

	jmp	SHORT $LN20@write_win6
$LN19@write_win6:

; 3334 :                     else{
; 3335 :                         AddLineQueueX("vmovdqu %r, [%r + %u]", *regs, stackreg[ModuleInfo.Ofssize], NUMQUAL i );

	movzx	eax, BYTE PTR ModuleInfo+404
	lea	rcx, OFFSET FLAT:stackreg
	mov	rdx, QWORD PTR regs$2[rsp]
	movzx	edx, WORD PTR [rdx]
	mov	r9d, DWORD PTR i$1[rsp]
	mov	r8d, DWORD PTR [rcx+rax*4]
	lea	rcx, OFFSET FLAT:$SG12741
	call	AddLineQueueX
$LN20@write_win6:

; 3336 :                     }
; 3337 :                     i += XYZMMsize;

	mov	eax, DWORD PTR XYZMMsize
	mov	ecx, DWORD PTR i$1[rsp]
	add	ecx, eax
	mov	eax, ecx
	mov	DWORD PTR i$1[rsp], eax
$LN17@write_win6:

; 3338 :                 }
; 3339 :             }

	jmp	$LN5@write_win6
$LN6@write_win6:
$LN14@write_win6:
$LN11@write_win6:

; 3340 :         }
; 3341 :     }
; 3342 : 
; 3343 :     if (ModuleInfo.fctype == FCT_WIN64 && (ModuleInfo.win64_flags & W64F_AUTOSTACKSP)){

	cmp	DWORD PTR ModuleInfo+376, 2
	jne	$LN21@write_win6
	movzx	eax, BYTE PTR ModuleInfo+413
	and	eax, 2
	test	eax, eax
	je	$LN21@write_win6

; 3344 :       if (ModuleInfo.win64_flags & W64F_HABRAN){

	movzx	eax, BYTE PTR ModuleInfo+413
	and	eax, 11
	test	eax, eax
	je	$LN23@write_win6

; 3345 :         anysize = info->localsize + sym_ReservedStack->value + info->xmmsize;

	mov	rax, QWORD PTR info$[rsp]
	mov	eax, DWORD PTR [rax+36]
	mov	rcx, QWORD PTR sym_ReservedStack
	add	eax, DWORD PTR [rcx+16]
	mov	rcx, QWORD PTR info$[rsp]
	add	eax, DWORD PTR [rcx+112]
	mov	DWORD PTR anysize$[rsp], eax

; 3346 :         if (info->vecused) anysize += info->vsize;

	mov	rax, QWORD PTR info$[rsp]
	movzx	eax, BYTE PTR [rax+80]
	test	eax, eax
	je	SHORT $LN25@write_win6
	mov	rax, QWORD PTR info$[rsp]
	mov	eax, DWORD PTR [rax+44]
	mov	ecx, DWORD PTR anysize$[rsp]
	add	ecx, eax
	mov	eax, ecx
	mov	DWORD PTR anysize$[rsp], eax
$LN25@write_win6:

; 3347 : 		if (anysize)

	cmp	DWORD PTR anysize$[rsp], 0
	je	SHORT $LN26@write_win6

; 3348 : 		{
; 3349 : 			int stackSize = info->localsize + info->vsize + info->xmmsize;

	mov	rax, QWORD PTR info$[rsp]
	mov	eax, DWORD PTR [rax+36]
	mov	rcx, QWORD PTR info$[rsp]
	add	eax, DWORD PTR [rcx+44]
	mov	rcx, QWORD PTR info$[rsp]
	add	eax, DWORD PTR [rcx+112]
	mov	DWORD PTR stackSize$6[rsp], eax

; 3350 : 			if ((stackSize & 7) != 0) stackSize = (stackSize + 7)&(-8);

	mov	eax, DWORD PTR stackSize$6[rsp]
	and	eax, 7
	test	eax, eax
	je	SHORT $LN27@write_win6
	mov	eax, DWORD PTR stackSize$6[rsp]
	add	eax, 7
	and	eax, -8
	mov	DWORD PTR stackSize$6[rsp], eax
$LN27@write_win6:

; 3351 : 			AddLineQueueX("add %r, %d + %s", stackreg[ModuleInfo.Ofssize], NUMQUAL stackSize, sym_ReservedStack->name);

	movzx	eax, BYTE PTR ModuleInfo+404
	lea	rcx, OFFSET FLAT:stackreg
	mov	rdx, QWORD PTR sym_ReservedStack
	mov	r9, QWORD PTR [rdx+8]
	mov	r8d, DWORD PTR stackSize$6[rsp]
	mov	edx, DWORD PTR [rcx+rax*4]
	lea	rcx, OFFSET FLAT:$SG12749
	call	AddLineQueueX
$LN26@write_win6:

; 3352 : 		}
; 3353 :       }

	jmp	SHORT $LN24@write_win6
$LN23@write_win6:

; 3354 :         else
; 3355 :           AddLineQueueX("add %r, %d + %s", stackreg[ModuleInfo.Ofssize], NUMQUAL info->localsize + info->xmmsize, sym_ReservedStack->name);

	mov	rax, QWORD PTR info$[rsp]
	mov	eax, DWORD PTR [rax+36]
	mov	rcx, QWORD PTR info$[rsp]
	add	eax, DWORD PTR [rcx+112]
	movzx	ecx, BYTE PTR ModuleInfo+404
	lea	rdx, OFFSET FLAT:stackreg
	mov	r8, QWORD PTR sym_ReservedStack
	mov	r9, QWORD PTR [r8+8]
	mov	r8d, eax
	mov	edx, DWORD PTR [rdx+rcx*4]
	lea	rcx, OFFSET FLAT:$SG12750
	call	AddLineQueueX
$LN24@write_win6:

; 3356 :     }

	jmp	SHORT $LN22@write_win6
$LN21@write_win6:

; 3357 :     else
; 3358 :         AddLineQueueX( "add %r, %d", stackreg[ModuleInfo.Ofssize], NUMQUAL info->localsize);

	movzx	eax, BYTE PTR ModuleInfo+404
	lea	rcx, OFFSET FLAT:stackreg
	mov	rdx, QWORD PTR info$[rsp]
	mov	r8d, DWORD PTR [rdx+36]
	mov	edx, DWORD PTR [rcx+rax*4]
	lea	rcx, OFFSET FLAT:$SG12751
	call	AddLineQueueX
$LN22@write_win6:

; 3359 :     pop_register( CurrProc->e.procinfo->regslist );

	mov	rax, QWORD PTR CurrProc
	mov	rax, QWORD PTR [rax+96]
	mov	rcx, QWORD PTR [rax]
	call	pop_register

; 3360 : #if STACKBASESUPP
; 3361 :     if (ModuleInfo.win64_flags & W64F_HABRAN){

	movzx	eax, BYTE PTR ModuleInfo+413
	and	eax, 11
	test	eax, eax
	je	$LN28@write_win6

; 3362 :       /* restore non-volatile registers from shadow space */
; 3363 :       if (info->regslist) {

	mov	rax, QWORD PTR info$[rsp]
	cmp	QWORD PTR [rax], 0
	je	$LN29@write_win6

; 3364 :         uint_16 *regist = info->regslist;

	mov	rax, QWORD PTR info$[rsp]
	mov	rax, QWORD PTR [rax]
	mov	QWORD PTR regist$5[rsp], rax

; 3365 :         int cnt;
; 3366 :         if (ModuleInfo.win64_flags){

	movzx	eax, BYTE PTR ModuleInfo+413
	test	eax, eax
	je	$LN30@write_win6

; 3367 :           int i = 0;

	mov	DWORD PTR i$8[rsp], 0

; 3368 :           int gprzize = 0;

	mov	DWORD PTR gprzize$7[rsp], 0

; 3369 :           for (cnt = *regist++; cnt; cnt--, regist++)

	mov	rax, QWORD PTR regist$5[rsp]
	movzx	eax, WORD PTR [rax]
	mov	DWORD PTR cnt$4[rsp], eax
	mov	rax, QWORD PTR regist$5[rsp]
	add	rax, 2
	mov	QWORD PTR regist$5[rsp], rax
	jmp	SHORT $LN10@write_win6
$LN8@write_win6:
	mov	eax, DWORD PTR cnt$4[rsp]
	dec	eax
	mov	DWORD PTR cnt$4[rsp], eax
	mov	rax, QWORD PTR regist$5[rsp]
	add	rax, 2
	mov	QWORD PTR regist$5[rsp], rax
$LN10@write_win6:
	cmp	DWORD PTR cnt$4[rsp], 0
	je	$LN9@write_win6

; 3370 :           {
; 3371 :                 if (( GetValueSp( *regist ) & OP_XMM )||( GetValueSp( *regist ) & OP_YMM )

	mov	rax, QWORD PTR regist$5[rsp]
	movzx	eax, WORD PTR [rax]
	imul	rax, rax, 12
	lea	rcx, OFFSET FLAT:SpecialTable
	mov	eax, DWORD PTR [rcx+rax]
	and	eax, 32					; 00000020H
	test	eax, eax
	jne	SHORT $LN33@write_win6
	mov	rax, QWORD PTR regist$5[rsp]
	movzx	eax, WORD PTR [rax]
	imul	rax, rax, 12
	lea	rcx, OFFSET FLAT:SpecialTable
	mov	eax, DWORD PTR [rcx+rax]
	and	eax, 128				; 00000080H
	test	eax, eax
	je	SHORT $LN31@write_win6
$LN33@write_win6:

; 3372 : #if EVEXSUPP    
; 3373 :                   || ( GetValueSp( *regist ) & OP_ZMM )
; 3374 : #endif
; 3375 :                 ) continue;

	jmp	SHORT $LN8@write_win6
	jmp	SHORT $LN32@write_win6
$LN31@write_win6:

; 3376 :             else {
; 3377 :               gprzize += 8;

	mov	eax, DWORD PTR gprzize$7[rsp]
	add	eax, 8
	mov	DWORD PTR gprzize$7[rsp], eax

; 3378 :               if (gprzize <= 0x20)

	cmp	DWORD PTR gprzize$7[rsp], 32		; 00000020H
	jg	SHORT $LN34@write_win6

; 3379 :               {
; 3380 :                 if (info->home_used[i] == 0){

	movsxd	rax, DWORD PTR i$8[rsp]
	mov	rcx, QWORD PTR info$[rsp]
	movsx	eax, BYTE PTR [rcx+rax+116]
	test	eax, eax
	jne	SHORT $LN35@write_win6

; 3381 :                   AddLineQueueX("mov %r, [%r+%u]", *regist, stackreg[ModuleInfo.Ofssize], NUMQUAL gprzize);

	movzx	eax, BYTE PTR ModuleInfo+404
	lea	rcx, OFFSET FLAT:stackreg
	mov	rdx, QWORD PTR regist$5[rsp]
	movzx	edx, WORD PTR [rdx]
	mov	r9d, DWORD PTR gprzize$7[rsp]
	mov	r8d, DWORD PTR [rcx+rax*4]
	lea	rcx, OFFSET FLAT:$SG12761
	call	AddLineQueueX

; 3382 :                 }

	jmp	SHORT $LN36@write_win6
$LN35@write_win6:

; 3383 :                 else {
; 3384 :                   cnt++; regist--;

	mov	eax, DWORD PTR cnt$4[rsp]
	inc	eax
	mov	DWORD PTR cnt$4[rsp], eax
	mov	rax, QWORD PTR regist$5[rsp]
	sub	rax, 2
	mov	QWORD PTR regist$5[rsp], rax
$LN36@write_win6:

; 3385 :                 }
; 3386 :                 i++;

	mov	eax, DWORD PTR i$8[rsp]
	inc	eax
	mov	DWORD PTR i$8[rsp], eax
$LN34@write_win6:
$LN32@write_win6:

; 3387 :               }
; 3388 :             }
; 3389 :           }

	jmp	$LN8@write_win6
$LN9@write_win6:
$LN30@write_win6:
$LN29@write_win6:
$LN28@write_win6:

; 3390 :         }
; 3391 :       }
; 3392 :     }
; 3393 :     //if ( !info->fpo )
; 3394 :     if ( GetRegNo( info->basereg ) != 4 && ( info->parasize != 0 || info->locallist != NULL ) )

	mov	rax, QWORD PTR info$[rsp]
	movzx	eax, WORD PTR [rax+130]
	imul	rax, rax, 12
	lea	rcx, OFFSET FLAT:SpecialTable
	movzx	eax, BYTE PTR [rcx+rax+10]
	cmp	eax, 4
	je	SHORT $LN37@write_win6
	mov	rax, QWORD PTR info$[rsp]
	cmp	DWORD PTR [rax+32], 0
	jne	SHORT $LN38@write_win6
	mov	rax, QWORD PTR info$[rsp]
	cmp	QWORD PTR [rax+16], 0
	je	SHORT $LN37@write_win6
$LN38@write_win6:

; 3395 :         AddLineQueueX( "pop %r", info->basereg );

	mov	rax, QWORD PTR info$[rsp]
	movzx	eax, WORD PTR [rax+130]
	mov	edx, eax
	lea	rcx, OFFSET FLAT:$SG12764
	call	AddLineQueueX
$LN37@write_win6:

; 3396 : #else
; 3397 :     AddLineQueueX( "pop %r", basereg[ModuleInfo.Ofssize] );
; 3398 : #endif
; 3399 : 
; 3400 :     return;
; 3401 : }

	add	rsp, 104				; 00000068H
	ret	0
write_win64_default_epilogue ENDP
_TEXT	ENDS
; Function compile flags: /Odtp
; File d:\hjwasm\hjwasm2.13.1s\hjwasm2.13.1s\proc.c
_TEXT	SEGMENT
cnt$ = 32
regist$ = 64
pop_register PROC

; 3248 : {

	mov	QWORD PTR [rsp+8], rcx
	sub	rsp, 56					; 00000038H

; 3249 :     int cnt;
; 3250 :     if( regist == NULL )

	cmp	QWORD PTR regist$[rsp], 0
	jne	SHORT $LN8@pop_regist

; 3251 :         return;

	jmp	$LN1@pop_regist
$LN8@pop_regist:

; 3252 :     cnt = *regist;

	mov	rax, QWORD PTR regist$[rsp]
	movzx	eax, WORD PTR [rax]
	mov	DWORD PTR cnt$[rsp], eax

; 3253 :     regist += cnt;

	movsxd	rax, DWORD PTR cnt$[rsp]
	mov	rcx, QWORD PTR regist$[rsp]
	lea	rax, QWORD PTR [rcx+rax*2]
	mov	QWORD PTR regist$[rsp], rax

; 3254 :     if (ModuleInfo.win64_flags & W64F_HABRAN)

	movzx	eax, BYTE PTR ModuleInfo+413
	and	eax, 11
	test	eax, eax
	je	$LN9@pop_regist

; 3255 :     {
; 3256 :       for (cnt = CurrProc->e.procinfo->pushed_reg; cnt; cnt--, regist--) {

	mov	rax, QWORD PTR CurrProc
	mov	rax, QWORD PTR [rax+96]
	mov	eax, DWORD PTR [rax+104]
	mov	DWORD PTR cnt$[rsp], eax
	jmp	SHORT $LN4@pop_regist
$LN2@pop_regist:
	mov	eax, DWORD PTR cnt$[rsp]
	dec	eax
	mov	DWORD PTR cnt$[rsp], eax
	mov	rax, QWORD PTR regist$[rsp]
	sub	rax, 2
	mov	QWORD PTR regist$[rsp], rax
$LN4@pop_regist:
	cmp	DWORD PTR cnt$[rsp], 0
	je	SHORT $LN3@pop_regist

; 3257 :         /* don't "pop" xmm registers */
; 3258 :                 if (( GetValueSp( *regist ) & OP_XMM )||( GetValueSp( *regist ) & OP_YMM )

	mov	rax, QWORD PTR regist$[rsp]
	movzx	eax, WORD PTR [rax]
	imul	rax, rax, 12
	lea	rcx, OFFSET FLAT:SpecialTable
	mov	eax, DWORD PTR [rcx+rax]
	and	eax, 32					; 00000020H
	test	eax, eax
	jne	SHORT $LN12@pop_regist
	mov	rax, QWORD PTR regist$[rsp]
	movzx	eax, WORD PTR [rax]
	imul	rax, rax, 12
	lea	rcx, OFFSET FLAT:SpecialTable
	mov	eax, DWORD PTR [rcx+rax]
	and	eax, 128				; 00000080H
	test	eax, eax
	je	SHORT $LN11@pop_regist
$LN12@pop_regist:

; 3259 : #if EVEXSUPP    
; 3260 :                   || ( GetValueSp( *regist ) & OP_ZMM )
; 3261 : #endif
; 3262 :                 )
; 3263 : {
; 3264 :           cnt++;

	mov	eax, DWORD PTR cnt$[rsp]
	inc	eax
	mov	DWORD PTR cnt$[rsp], eax

; 3265 :           continue;

	jmp	SHORT $LN2@pop_regist
$LN11@pop_regist:

; 3266 :         }
; 3267 :         AddLineQueueX("pop %r", *regist);

	mov	rax, QWORD PTR regist$[rsp]
	movzx	eax, WORD PTR [rax]
	mov	edx, eax
	lea	rcx, OFFSET FLAT:$SG12700
	call	AddLineQueueX

; 3268 :       }

	jmp	SHORT $LN2@pop_regist
$LN3@pop_regist:

; 3269 :     }

	jmp	SHORT $LN10@pop_regist
$LN9@pop_regist:

; 3270 :     else {
; 3271 :       for (; cnt; cnt--, regist--) {

	jmp	SHORT $LN7@pop_regist
$LN5@pop_regist:
	mov	eax, DWORD PTR cnt$[rsp]
	dec	eax
	mov	DWORD PTR cnt$[rsp], eax
	mov	rax, QWORD PTR regist$[rsp]
	sub	rax, 2
	mov	QWORD PTR regist$[rsp], rax
$LN7@pop_regist:
	cmp	DWORD PTR cnt$[rsp], 0
	je	SHORT $LN6@pop_regist

; 3272 :         /* don't "pop" xmm registers */
; 3273 :                 if (( GetValueSp( *regist ) & OP_XMM )||( GetValueSp( *regist ) & OP_YMM )

	mov	rax, QWORD PTR regist$[rsp]
	movzx	eax, WORD PTR [rax]
	imul	rax, rax, 12
	lea	rcx, OFFSET FLAT:SpecialTable
	mov	eax, DWORD PTR [rcx+rax]
	and	eax, 32					; 00000020H
	test	eax, eax
	jne	SHORT $LN14@pop_regist
	mov	rax, QWORD PTR regist$[rsp]
	movzx	eax, WORD PTR [rax]
	imul	rax, rax, 12
	lea	rcx, OFFSET FLAT:SpecialTable
	mov	eax, DWORD PTR [rcx+rax]
	and	eax, 128				; 00000080H
	test	eax, eax
	je	SHORT $LN13@pop_regist
$LN14@pop_regist:

; 3274 : #if EVEXSUPP    
; 3275 :                   || ( GetValueSp( *regist ) & OP_ZMM )
; 3276 : #endif
; 3277 :                 )continue;

	jmp	SHORT $LN5@pop_regist
$LN13@pop_regist:

; 3278 :         AddLineQueueX("pop %r", *regist);

	mov	rax, QWORD PTR regist$[rsp]
	movzx	eax, WORD PTR [rax]
	mov	edx, eax
	lea	rcx, OFFSET FLAT:$SG12703
	call	AddLineQueueX

; 3279 :       }

	jmp	SHORT $LN5@pop_regist
$LN6@pop_regist:
$LN10@pop_regist:
$LN1@pop_regist:

; 3280 :     }
; 3281 : 
; 3282 : }

	add	rsp, 56					; 00000038H
	ret	0
pop_register ENDP
_TEXT	ENDS
; Function compile flags: /Odtp
; File d:\hjwasm\hjwasm2.13.1s\hjwasm2.13.1s\proc.c
_TEXT	SEGMENT
oldlinenumbers$ = 32
cnt$ = 36
resstack$ = 40
tv226 = 44
info$ = 48
regist$ = 56
write_default_prologue PROC

; 2874 : {

	sub	rsp, 72					; 00000048H

; 2875 :     struct proc_info    *info;
; 2876 :     uint_16             *regist;
; 2877 :     uint_8              oldlinenumbers;
; 2878 :     int                 cnt;
; 2879 : #if AMD64_SUPPORT
; 2880 :     int                 resstack = 0;

	mov	DWORD PTR resstack$[rsp], 0

; 2881 : #endif
; 2882 : 
; 2883 :     info = CurrProc->e.procinfo;

	mov	rax, QWORD PTR CurrProc
	mov	rax, QWORD PTR [rax+96]
	mov	QWORD PTR info$[rsp], rax

; 2884 : 
; 2885 : #if AMD64_SUPPORT
; 2886 :     if ( info->isframe ) {

	mov	rax, QWORD PTR info$[rsp]
	movzx	eax, BYTE PTR [rax+128]
	shr	al, 6
	and	al, 1
	movzx	eax, al
	test	eax, eax
	je	SHORT $LN8@write_defa

; 2887 :         //DebugMsg(("write_default_prologue: isframe\n"));
; 2888 :         if ( ModuleInfo.frame_auto ) {

	mov	eax, DWORD PTR ModuleInfo+408
	shr	eax, 17
	and	eax, 1
	test	eax, eax
	je	SHORT $LN9@write_defa

; 2889 :             write_win64_default_prologue( info );

	mov	rcx, QWORD PTR info$[rsp]
	call	write_win64_default_prologue

; 2890 :             /* v2.11: line queue is now run here */
; 2891 :             goto runqueue;

	jmp	$runqueue$32
$LN9@write_defa:

; 2892 :         }
; 2893 :         return( NOT_ERROR );

	xor	eax, eax
	jmp	$LN1@write_defa
$LN8@write_defa:

; 2894 :     }
; 2895 :     if ( ModuleInfo.Ofssize == USE64 && ModuleInfo.fctype == FCT_WIN64 && ( ModuleInfo.win64_flags & W64F_AUTOSTACKSP ) )

	movzx	eax, BYTE PTR ModuleInfo+404
	cmp	eax, 2
	jne	SHORT $LN10@write_defa
	cmp	DWORD PTR ModuleInfo+376, 2
	jne	SHORT $LN10@write_defa
	movzx	eax, BYTE PTR ModuleInfo+413
	and	eax, 2
	test	eax, eax
	je	SHORT $LN10@write_defa

; 2896 :         resstack = sym_ReservedStack->value;

	mov	rax, QWORD PTR sym_ReservedStack
	mov	eax, DWORD PTR [rax+16]
	mov	DWORD PTR resstack$[rsp], eax
$LN10@write_defa:

; 2897 : #endif
; 2898 :     /* default processing. if no params/locals are defined, continue */
; 2899 :     if( info->forceframe == FALSE &&
; 2900 :        info->localsize == 0 &&
; 2901 :        info->stackparam == FALSE &&
; 2902 :        info->has_vararg == FALSE &&
; 2903 : #if AMD64_SUPPORT
; 2904 :        resstack == 0 &&

	mov	rax, QWORD PTR info$[rsp]
	movzx	eax, BYTE PTR [rax+128]
	shr	al, 3
	and	al, 1
	movzx	eax, al
	test	eax, eax
	jne	SHORT $LN11@write_defa
	mov	rax, QWORD PTR info$[rsp]
	cmp	DWORD PTR [rax+36], 0
	jne	SHORT $LN11@write_defa
	mov	rax, QWORD PTR info$[rsp]
	movzx	eax, BYTE PTR [rax+128]
	shr	al, 5
	and	al, 1
	movzx	eax, al
	test	eax, eax
	jne	SHORT $LN11@write_defa
	mov	rax, QWORD PTR info$[rsp]
	movzx	eax, BYTE PTR [rax+128]
	and	al, 1
	movzx	eax, al
	test	eax, eax
	jne	SHORT $LN11@write_defa
	cmp	DWORD PTR resstack$[rsp], 0
	jne	SHORT $LN11@write_defa
	mov	rax, QWORD PTR info$[rsp]
	cmp	QWORD PTR [rax], 0
	jne	SHORT $LN11@write_defa

; 2905 : #endif
; 2906 :        info->regslist == NULL )
; 2907 :         return( NOT_ERROR );

	xor	eax, eax
	jmp	$LN1@write_defa
$LN11@write_defa:

; 2908 : 
; 2909 :     /* v2.11: now done in write_prologue() */
; 2910 :     //info->localsize = ROUND_UP( info->localsize, CurrWordSize );
; 2911 :     regist = info->regslist;

	mov	rax, QWORD PTR info$[rsp]
	mov	rax, QWORD PTR [rax]
	mov	QWORD PTR regist$[rsp], rax

; 2912 : 
; 2913 : #if AMD64_SUPPORT
; 2914 :     /* initialize shadow space for register params */
; 2915 :     if ( ModuleInfo.Ofssize == USE64 &&
; 2916 :         CurrProc->sym.langtype == LANG_FASTCALL &&
; 2917 :         ModuleInfo.fctype == FCT_WIN64 &&

	movzx	eax, BYTE PTR ModuleInfo+404
	cmp	eax, 2
	jne	SHORT $LN12@write_defa
	mov	rax, QWORD PTR CurrProc
	cmp	DWORD PTR [rax+76], 7
	jne	SHORT $LN12@write_defa
	cmp	DWORD PTR ModuleInfo+376, 2
	jne	SHORT $LN12@write_defa
	movzx	eax, BYTE PTR ModuleInfo+413
	and	eax, 1
	test	eax, eax
	je	SHORT $LN12@write_defa

; 2918 :         ( ModuleInfo.win64_flags & W64F_SAVEREGPARAMS ) )
; 2919 :         win64_SaveRegParams( info );

	mov	rcx, QWORD PTR info$[rsp]
	call	win64_SaveRegParams
$LN12@write_defa:

; 2920 : #endif
; 2921 :     if( info->locallist || info->stackparam || info->has_vararg || info->forceframe ) {

	mov	rax, QWORD PTR info$[rsp]
	cmp	QWORD PTR [rax+16], 0
	jne	SHORT $LN14@write_defa
	mov	rax, QWORD PTR info$[rsp]
	movzx	eax, BYTE PTR [rax+128]
	shr	al, 5
	and	al, 1
	movzx	eax, al
	test	eax, eax
	jne	SHORT $LN14@write_defa
	mov	rax, QWORD PTR info$[rsp]
	movzx	eax, BYTE PTR [rax+128]
	and	al, 1
	movzx	eax, al
	test	eax, eax
	jne	SHORT $LN14@write_defa
	mov	rax, QWORD PTR info$[rsp]
	movzx	eax, BYTE PTR [rax+128]
	shr	al, 3
	and	al, 1
	movzx	eax, al
	test	eax, eax
	je	SHORT $LN13@write_defa
$LN14@write_defa:

; 2922 : 
; 2923 :         /* write 80386 prolog code
; 2924 :          * PUSH [E|R]BP
; 2925 :          * MOV  [E|R]BP, [E|R]SP
; 2926 :          * SUB  [E|R]SP, localsize
; 2927 :          */
; 2928 : #if STACKBASESUPP
; 2929 :         if ( !info->fpo ) {

	mov	rax, QWORD PTR info$[rsp]
	movzx	eax, BYTE PTR [rax+128]
	shr	al, 7
	and	al, 1
	movzx	eax, al
	test	eax, eax
	jne	SHORT $LN15@write_defa

; 2930 :             AddLineQueueX( "push %r", info->basereg );

	mov	rax, QWORD PTR info$[rsp]
	movzx	eax, WORD PTR [rax+130]
	mov	edx, eax
	lea	rcx, OFFSET FLAT:$SG12564
	call	AddLineQueueX

; 2931 :             AddLineQueueX( "mov %r, %r", info->basereg, stackreg[ModuleInfo.Ofssize] );

	movzx	eax, BYTE PTR ModuleInfo+404
	lea	rcx, OFFSET FLAT:stackreg
	mov	rdx, QWORD PTR info$[rsp]
	movzx	edx, WORD PTR [rdx+130]
	mov	r8d, DWORD PTR [rcx+rax*4]
	lea	rcx, OFFSET FLAT:$SG12565
	call	AddLineQueueX
$LN15@write_defa:
$LN13@write_defa:

; 2932 :         }
; 2933 : #else
; 2934 :         AddLineQueueX( "push %r", basereg[ModuleInfo.Ofssize] );
; 2935 :         AddLineQueueX( "mov %r, %r", basereg[ModuleInfo.Ofssize], stackreg[ModuleInfo.Ofssize] );
; 2936 : #endif
; 2937 :     }
; 2938 : #if AMD64_SUPPORT
; 2939 :     if( resstack ) {

	cmp	DWORD PTR resstack$[rsp], 0
	je	$LN16@write_defa

; 2940 :         /* in this case, push the USES registers BEFORE the stack space is reserved */
; 2941 :         if ( regist ) {

	cmp	QWORD PTR regist$[rsp], 0
	je	SHORT $LN18@write_defa

; 2942 :             for( cnt = *regist++; cnt; cnt--, regist++ )

	mov	rax, QWORD PTR regist$[rsp]
	movzx	eax, WORD PTR [rax]
	mov	DWORD PTR cnt$[rsp], eax
	mov	rax, QWORD PTR regist$[rsp]
	add	rax, 2
	mov	QWORD PTR regist$[rsp], rax
	jmp	SHORT $LN4@write_defa
$LN2@write_defa:
	mov	eax, DWORD PTR cnt$[rsp]
	dec	eax
	mov	DWORD PTR cnt$[rsp], eax
	mov	rax, QWORD PTR regist$[rsp]
	add	rax, 2
	mov	QWORD PTR regist$[rsp], rax
$LN4@write_defa:
	cmp	DWORD PTR cnt$[rsp], 0
	je	SHORT $LN3@write_defa

; 2943 :                 AddLineQueueX( "push %r", *regist );

	mov	rax, QWORD PTR regist$[rsp]
	movzx	eax, WORD PTR [rax]
	mov	edx, eax
	lea	rcx, OFFSET FLAT:$SG12569
	call	AddLineQueueX
	jmp	SHORT $LN2@write_defa
$LN3@write_defa:

; 2944 :             regist = NULL;

	mov	QWORD PTR regist$[rsp], 0
$LN18@write_defa:

; 2945 :         }
; 2946 :         /* if no framepointer was pushed, add 8 to align stack on OWORD.
; 2947 :          * v2.12: obsolete, localsize contains correct value in this case.
; 2948 :          */
; 2949 :         //if( !(info->localsize || info->stackparam || info->has_vararg || info->forceframe ))
; 2950 :         //    AddLineQueueX( "sub %r, 8 + %s", stackreg[ModuleInfo.Ofssize], sym_ReservedStack->name );
; 2951 :         //else
; 2952 :         AddLineQueueX( "sub %r, %d + %s", stackreg[ModuleInfo.Ofssize], NUMQUAL info->localsize, sym_ReservedStack->name );

	movzx	eax, BYTE PTR ModuleInfo+404
	lea	rcx, OFFSET FLAT:stackreg
	mov	rdx, QWORD PTR sym_ReservedStack
	mov	r9, QWORD PTR [rdx+8]
	mov	rdx, QWORD PTR info$[rsp]
	mov	r8d, DWORD PTR [rdx+36]
	mov	edx, DWORD PTR [rcx+rax*4]
	lea	rcx, OFFSET FLAT:$SG12570
	call	AddLineQueueX

; 2953 :     } else

	jmp	SHORT $LN17@write_defa
$LN16@write_defa:

; 2954 : #endif
; 2955 :     if( info->localsize  ) {

	mov	rax, QWORD PTR info$[rsp]
	cmp	DWORD PTR [rax+36], 0
	je	SHORT $LN19@write_defa

; 2956 :         /* using ADD and the 2-complement has one advantage:
; 2957 :          * it will generate short instructions up to a size of 128.
; 2958 :          * with SUB, short instructions work up to 127 only.
; 2959 :          */
; 2960 :         if ( Options.masm_compat_gencode || info->localsize == 128 )

	movzx	eax, BYTE PTR Options+144
	test	eax, eax
	jne	SHORT $LN22@write_defa
	mov	rax, QWORD PTR info$[rsp]
	cmp	DWORD PTR [rax+36], 128			; 00000080H
	jne	SHORT $LN20@write_defa
$LN22@write_defa:

; 2961 :             AddLineQueueX( "add %r, %d", stackreg[ModuleInfo.Ofssize], NUMQUAL info->localsize );

	movzx	eax, BYTE PTR ModuleInfo+404
	lea	rcx, OFFSET FLAT:stackreg
	mov	rdx, QWORD PTR info$[rsp]
	mov	r8d, DWORD PTR [rdx+36]
	mov	edx, DWORD PTR [rcx+rax*4]
	lea	rcx, OFFSET FLAT:$SG12575
	call	AddLineQueueX
	jmp	SHORT $LN21@write_defa
$LN20@write_defa:

; 2962 :         else
; 2963 :             AddLineQueueX( "sub %r, %d", stackreg[ModuleInfo.Ofssize], NUMQUAL info->localsize );

	movzx	eax, BYTE PTR ModuleInfo+404
	lea	rcx, OFFSET FLAT:stackreg
	mov	rdx, QWORD PTR info$[rsp]
	mov	r8d, DWORD PTR [rdx+36]
	mov	edx, DWORD PTR [rcx+rax*4]
	lea	rcx, OFFSET FLAT:$SG12576
	call	AddLineQueueX
$LN21@write_defa:
$LN19@write_defa:
$LN17@write_defa:

; 2964 :     }
; 2965 : 
; 2966 :     if ( info->loadds ) {

	mov	rax, QWORD PTR info$[rsp]
	movzx	eax, BYTE PTR [rax+128]
	shr	al, 4
	and	al, 1
	movzx	eax, al
	test	eax, eax
	je	SHORT $LN23@write_defa

; 2967 :         AddLineQueueX( "push %r", T_DS );

	mov	edx, 28
	lea	rcx, OFFSET FLAT:$SG12578
	call	AddLineQueueX

; 2968 :         AddLineQueueX( "mov %r, %s", T_AX, szDgroup );

	lea	r8, OFFSET FLAT:szDgroup
	mov	edx, 9
	lea	rcx, OFFSET FLAT:$SG12579
	call	AddLineQueueX

; 2969 :         AddLineQueueX( "mov %r, %r", T_DS, ModuleInfo.Ofssize ? T_EAX : T_AX );

	movzx	eax, BYTE PTR ModuleInfo+404
	test	eax, eax
	je	SHORT $LN30@write_defa
	mov	DWORD PTR tv226[rsp], 17
	jmp	SHORT $LN31@write_defa
$LN30@write_defa:
	mov	DWORD PTR tv226[rsp], 9
$LN31@write_defa:
	mov	r8d, DWORD PTR tv226[rsp]
	mov	edx, 28
	lea	rcx, OFFSET FLAT:$SG12580
	call	AddLineQueueX
$LN23@write_defa:

; 2970 :     }
; 2971 : 
; 2972 :     /* Push the GPR registers of the USES clause */
; 2973 :     if ( regist ) {

	cmp	QWORD PTR regist$[rsp], 0
	je	SHORT $LN24@write_defa

; 2974 :         for( cnt = *regist++; cnt; cnt--, regist++ ) {

	mov	rax, QWORD PTR regist$[rsp]
	movzx	eax, WORD PTR [rax]
	mov	DWORD PTR cnt$[rsp], eax
	mov	rax, QWORD PTR regist$[rsp]
	add	rax, 2
	mov	QWORD PTR regist$[rsp], rax
	jmp	SHORT $LN7@write_defa
$LN5@write_defa:
	mov	eax, DWORD PTR cnt$[rsp]
	dec	eax
	mov	DWORD PTR cnt$[rsp], eax
	mov	rax, QWORD PTR regist$[rsp]
	add	rax, 2
	mov	QWORD PTR regist$[rsp], rax
$LN7@write_defa:
	cmp	DWORD PTR cnt$[rsp], 0
	je	SHORT $LN6@write_defa

; 2975 :             AddLineQueueX( "push %r", *regist );

	mov	rax, QWORD PTR regist$[rsp]
	movzx	eax, WORD PTR [rax]
	mov	edx, eax
	lea	rcx, OFFSET FLAT:$SG12582
	call	AddLineQueueX

; 2976 :         }

	jmp	SHORT $LN5@write_defa
$LN6@write_defa:
$LN24@write_defa:
$runqueue$32:

; 2977 :     }
; 2978 : 
; 2979 : #if AMD64_SUPPORT
; 2980 : runqueue:
; 2981 : #endif
; 2982 : 
; 2983 : #if FASTPASS
; 2984 :     /* special case: generated code runs BEFORE the line.*/
; 2985 :     if ( ModuleInfo.list && UseSavedState )

	mov	eax, DWORD PTR ModuleInfo+408
	shr	eax, 11
	and	eax, 1
	test	eax, eax
	je	SHORT $LN25@write_defa
	movzx	eax, BYTE PTR UseSavedState
	test	eax, eax
	je	SHORT $LN25@write_defa

; 2986 :         if ( Parse_Pass == PASS_1 )

	cmp	DWORD PTR Parse_Pass, 0
	jne	SHORT $LN26@write_defa

; 2987 :             info->prolog_list_pos = list_pos;

	mov	rax, QWORD PTR info$[rsp]
	mov	ecx, DWORD PTR list_pos
	mov	DWORD PTR [rax+124], ecx
	jmp	SHORT $LN27@write_defa
$LN26@write_defa:

; 2988 :         else
; 2989 :             list_pos = info->prolog_list_pos;

	mov	rax, QWORD PTR info$[rsp]
	mov	eax, DWORD PTR [rax+124]
	mov	DWORD PTR list_pos, eax
$LN27@write_defa:
$LN25@write_defa:

; 2990 : #endif
; 2991 :     /* line number debug info also needs special treatment
; 2992 :      * because current line number is the first true src line
; 2993 :      * IN the proc.
; 2994 :      */
; 2995 :     oldlinenumbers = Options.line_numbers;

	movzx	eax, BYTE PTR Options+1
	mov	BYTE PTR oldlinenumbers$[rsp], al

; 2996 :     Options.line_numbers = FALSE; /* temporarily disable line numbers */

	mov	BYTE PTR Options+1, 0

; 2997 :     RunLineQueue();

	call	RunLineQueue

; 2998 :     Options.line_numbers = oldlinenumbers;

	movzx	eax, BYTE PTR oldlinenumbers$[rsp]
	mov	BYTE PTR Options+1, al

; 2999 : 
; 3000 : #if FASTPASS
; 3001 :     if ( ModuleInfo.list && UseSavedState && (Parse_Pass > PASS_1))

	mov	eax, DWORD PTR ModuleInfo+408
	shr	eax, 11
	and	eax, 1
	test	eax, eax
	je	SHORT $LN28@write_defa
	movzx	eax, BYTE PTR UseSavedState
	test	eax, eax
	je	SHORT $LN28@write_defa
	cmp	DWORD PTR Parse_Pass, 0
	jbe	SHORT $LN28@write_defa

; 3002 :          LineStoreCurr->list_pos = list_pos;

	mov	rax, QWORD PTR LineStoreCurr
	mov	ecx, DWORD PTR list_pos
	mov	DWORD PTR [rax+12], ecx
$LN28@write_defa:

; 3003 : #endif
; 3004 : 
; 3005 :     return( NOT_ERROR );

	xor	eax, eax
$LN1@write_defa:

; 3006 : }

	add	rsp, 72					; 00000048H
	ret	0
write_default_prologue ENDP
_TEXT	ENDS
; Function compile flags: /Odtp
; File d:\hjwasm\hjwasm2.13.1s\hjwasm2.13.1s\proc.c
_TEXT	SEGMENT
xreg$ = 48
i$ = 52
xsize$ = 56
n$ = 60
j$ = 64
regist$ = 72
vsize$ = 80
ymmflag$ = 84
stackSize$ = 88
cntxmm$ = 92
vectstart$ = 96
resstack$ = 100
j$1 = 104
m$ = 108
tv679 = 112
pp$2 = 120
xmmflag$ = 128
cnt$ = 132
cnt$3 = 136
cnt$4 = 140
tv68 = 144
tv871 = 148
tv891 = 152
tv964 = 156
tv987 = 160
tv288 = 168
ppfmt$ = 176
$T5 = 184
xyused$ = 192
__$ArrayPad$ = 200
info$ = 224
write_win64_default_prologue PROC

; 2450 : {

	mov	QWORD PTR [rsp+8], rcx
	sub	rsp, 216				; 000000d8H
	mov	rax, QWORD PTR __security_cookie
	xor	rax, rsp
	mov	QWORD PTR __$ArrayPad$[rsp], rax

; 2451 :     uint_16             *regist;
; 2452 :     const char * const  *ppfmt;
; 2453 :     struct    dsym      *param;
; 2454 :     int                 cntxmm;
; 2455 :     unsigned char xyused[6];  /* flags for used sse registers in vectorcall */
; 2456 :     unsigned char       xreg;
; 2457 :     unsigned char       xsize;
; 2458 :     unsigned char       xmmflag = 1;

	mov	BYTE PTR xmmflag$[rsp], 1

; 2459 :     unsigned char       ymmflag = 0;

	mov	BYTE PTR ymmflag$[rsp], 0

; 2460 : #if EVEXSUPP
; 2461 :     unsigned char       zmmflag = 0;
; 2462 : #endif
; 2463 :     int                 vsize = 0;

	mov	DWORD PTR vsize$[rsp], 0

; 2464 :     int                 vectstart = 0;

	mov	DWORD PTR vectstart$[rsp], 0

; 2465 :     int                 n;
; 2466 :     int                 m;
; 2467 :     int                 i;
; 2468 :     int                 j;
; 2469 :     int                 cnt;
; 2470 :     int                 homestart;
; 2471 :     int                 stackSize;
; 2472 :     int                 resstack = ( ( ModuleInfo.win64_flags & W64F_AUTOSTACKSP ) ? sym_ReservedStack->value : 0 );

	movzx	eax, BYTE PTR ModuleInfo+413
	and	eax, 2
	test	eax, eax
	je	SHORT $LN131@write_win6
	mov	rax, QWORD PTR sym_ReservedStack
	mov	eax, DWORD PTR [rax+16]
	mov	DWORD PTR tv68[rsp], eax
	jmp	SHORT $LN132@write_win6
$LN131@write_win6:
	mov	DWORD PTR tv68[rsp], 0
$LN132@write_win6:
	mov	eax, DWORD PTR tv68[rsp]
	mov	DWORD PTR resstack$[rsp], eax

; 2473 : 
; 2474 :     DebugMsg1(("write_win64_default_prologue enter\n"));

	lea	rcx, OFFSET FLAT:$SG12412
	call	DoDebugMsg1

; 2475 :     memset(xyused, 0, 6);

	mov	r8d, 6
	xor	edx, edx
	lea	rcx, QWORD PTR xyused$[rsp]
	call	memset

; 2476 :     info->vecused = 0;

	mov	rax, QWORD PTR info$[rsp]
	mov	BYTE PTR [rax+80], 0

; 2477 :     XYZMMsize = 16;

	mov	DWORD PTR XYZMMsize, 16

; 2478 :     if ( ModuleInfo.win64_flags & W64F_SAVEREGPARAMS )

	movzx	eax, BYTE PTR ModuleInfo+413
	and	eax, 1
	test	eax, eax
	je	SHORT $LN45@write_win6

; 2479 :         win64_SaveRegParams( info );

	mov	rcx, QWORD PTR info$[rsp]
	call	win64_SaveRegParams
$LN45@write_win6:

; 2480 :     if (ModuleInfo.win64_flags & W64F_HABRAN) 

	movzx	eax, BYTE PTR ModuleInfo+413
	and	eax, 11
	test	eax, eax
	je	SHORT $LN46@write_win6

; 2481 :       win64_StoreRegHome(info);

	mov	rcx, QWORD PTR info$[rsp]
	call	win64_StoreRegHome
$LN46@write_win6:

; 2482 :     /*
; 2483 :      * PUSH RBP
; 2484 :      * .PUSHREG RBP
; 2485 :      * MOV RBP, RSP
; 2486 :      * .SETFRAME RBP, 0
; 2487 :      */
; 2488 : 
; 2489 : #if STACKBASESUPP
; 2490 :     /* info->locallist tells whether there are local variables ( info->localsize doesn't! ) */
; 2491 :     if ( info->fpo || ( info->parasize == 0 && info->locallist == NULL ) ) {

	mov	rax, QWORD PTR info$[rsp]
	movzx	eax, BYTE PTR [rax+128]
	shr	al, 7
	and	al, 1
	movzx	eax, al
	test	eax, eax
	jne	SHORT $LN49@write_win6
	mov	rax, QWORD PTR info$[rsp]
	cmp	DWORD PTR [rax+32], 0
	jne	SHORT $LN47@write_win6
	mov	rax, QWORD PTR info$[rsp]
	cmp	QWORD PTR [rax+16], 0
	jne	SHORT $LN47@write_win6
$LN49@write_win6:

; 2492 :         DebugMsg1(("write_win64_default_prologue: no frame register needed\n"));

	lea	rcx, OFFSET FLAT:$SG12418
	call	DoDebugMsg1

; 2493 :         //sizestd += 8; /* v2.12: obsolete */
; 2494 :     } else {

	jmp	$LN48@write_win6
$LN47@write_win6:

; 2495 :         AddLineQueueX( "push %r", info->basereg );

	mov	rax, QWORD PTR info$[rsp]
	movzx	eax, WORD PTR [rax+130]
	mov	edx, eax
	lea	rcx, OFFSET FLAT:$SG12419
	call	AddLineQueueX

; 2496 :         AddLineQueueX( "%r %r", T_DOT_PUSHREG, info->basereg );

	mov	rax, QWORD PTR info$[rsp]
	movzx	eax, WORD PTR [rax+130]
	mov	r8d, eax
	mov	edx, 417				; 000001a1H
	lea	rcx, OFFSET FLAT:$SG12420
	call	AddLineQueueX

; 2497 :         AddLineQueueX( "mov %r, %r", info->basereg, T_RSP );

	mov	rax, QWORD PTR info$[rsp]
	movzx	eax, WORD PTR [rax+130]
	mov	r8d, 119				; 00000077H
	mov	edx, eax
	lea	rcx, OFFSET FLAT:$SG12421
	call	AddLineQueueX

; 2498 :         AddLineQueueX( "%r %r, 0", T_DOT_SETFRAME, info->basereg );

	mov	rax, QWORD PTR info$[rsp]
	movzx	eax, WORD PTR [rax+130]
	mov	r8d, eax
	mov	edx, 421				; 000001a5H
	lea	rcx, OFFSET FLAT:$SG12422
	call	AddLineQueueX
$LN48@write_win6:

; 2499 :     }
; 2500 : #else
; 2501 :     AddLineQueueX( "push %r", basereg[USE64] );
; 2502 :     AddLineQueueX( "%r %r", T_DOT_PUSHREG, basereg[USE64] );
; 2503 :     AddLineQueueX( "mov %r, %r", basereg[USE64], T_RSP );
; 2504 :     AddLineQueueX( "%r %r, 0", T_DOT_SETFRAME, basereg[USE64] );
; 2505 : #endif
; 2506 :     if (ModuleInfo.win64_flags & W64F_HABRAN){

	movzx	eax, BYTE PTR ModuleInfo+413
	and	eax, 11
	test	eax, eax
	je	$LN50@write_win6

; 2507 :       cntxmm = 0;

	mov	DWORD PTR cntxmm$[rsp], 0

; 2508 :       if (info->regslist) {

	mov	rax, QWORD PTR info$[rsp]
	cmp	QWORD PTR [rax], 0
	je	$LN52@write_win6

; 2509 :         n = 0;

	mov	DWORD PTR n$[rsp], 0

; 2510 :         info->pushed_reg = 0; /*count of pushed registers */

	mov	rax, QWORD PTR info$[rsp]
	mov	DWORD PTR [rax+104], 0

; 2511 :         regist = info->regslist;

	mov	rax, QWORD PTR info$[rsp]
	mov	rax, QWORD PTR [rax]
	mov	QWORD PTR regist$[rsp], rax

; 2512 :         for (cnt = *regist++; cnt; cnt--, regist++) {

	mov	rax, QWORD PTR regist$[rsp]
	movzx	eax, WORD PTR [rax]
	mov	DWORD PTR cnt$[rsp], eax
	mov	rax, QWORD PTR regist$[rsp]
	add	rax, 2
	mov	QWORD PTR regist$[rsp], rax
	jmp	SHORT $LN4@write_win6
$LN2@write_win6:
	mov	eax, DWORD PTR cnt$[rsp]
	dec	eax
	mov	DWORD PTR cnt$[rsp], eax
	mov	rax, QWORD PTR regist$[rsp]
	add	rax, 2
	mov	QWORD PTR regist$[rsp], rax
$LN4@write_win6:
	cmp	DWORD PTR cnt$[rsp], 0
	je	$LN3@write_win6

; 2513 :           if (GetValueSp(*regist) & OP_XMM){

	mov	rax, QWORD PTR regist$[rsp]
	movzx	eax, WORD PTR [rax]
	imul	rax, rax, 12
	lea	rcx, OFFSET FLAT:SpecialTable
	mov	eax, DWORD PTR [rcx+rax]
	and	eax, 32					; 00000020H
	test	eax, eax
	je	SHORT $LN53@write_win6

; 2514 :             cntxmm += 1;

	mov	eax, DWORD PTR cntxmm$[rsp]
	inc	eax
	mov	DWORD PTR cntxmm$[rsp], eax

; 2515 :           }

	jmp	$LN54@write_win6
$LN53@write_win6:

; 2516 :           else if (GetValueSp(*regist) & OP_YMM){

	mov	rax, QWORD PTR regist$[rsp]
	movzx	eax, WORD PTR [rax]
	imul	rax, rax, 12
	lea	rcx, OFFSET FLAT:SpecialTable
	mov	eax, DWORD PTR [rcx+rax]
	and	eax, 128				; 00000080H
	test	eax, eax
	je	SHORT $LN55@write_win6

; 2517 :             cntxmm += 1;

	mov	eax, DWORD PTR cntxmm$[rsp]
	inc	eax
	mov	DWORD PTR cntxmm$[rsp], eax

; 2518 :             ymmflag = 1;

	mov	BYTE PTR ymmflag$[rsp], 1

; 2519 :           }

	jmp	$LN56@write_win6
$LN55@write_win6:

; 2520 : #if EVEXSUPP    
; 2521 :           else if (GetValueSp(*regist) & OP_ZMM){
; 2522 :             cntxmm += 1;
; 2523 :             zmmflag = 1;
; 2524 :           }
; 2525 : #endif
; 2526 :           else {
; 2527 :             if (n < info->stored_reg) n++;

	mov	rax, QWORD PTR info$[rsp]
	mov	eax, DWORD PTR [rax+100]
	cmp	DWORD PTR n$[rsp], eax
	jge	SHORT $LN57@write_win6
	mov	eax, DWORD PTR n$[rsp]
	inc	eax
	mov	DWORD PTR n$[rsp], eax
	jmp	$LN58@write_win6
$LN57@write_win6:

; 2528 :             else{
; 2529 :               info->pushed_reg += 1;

	mov	rax, QWORD PTR info$[rsp]
	mov	eax, DWORD PTR [rax+104]
	inc	eax
	mov	rcx, QWORD PTR info$[rsp]
	mov	DWORD PTR [rcx+104], eax

; 2530 :               AddLineQueueX("push %r", *regist);

	mov	rax, QWORD PTR regist$[rsp]
	movzx	eax, WORD PTR [rax]
	mov	edx, eax
	lea	rcx, OFFSET FLAT:$SG12432
	call	AddLineQueueX

; 2531 :               if ((1 << GetRegNo(*regist)) & win64_nvgpr) {

	mov	rax, QWORD PTR regist$[rsp]
	movzx	eax, WORD PTR [rax]
	imul	rax, rax, 12
	lea	rcx, OFFSET FLAT:SpecialTable
	movzx	eax, BYTE PTR [rcx+rax+10]
	mov	ecx, 1
	mov	DWORD PTR tv871[rsp], ecx
	movzx	ecx, al
	mov	eax, DWORD PTR tv871[rsp]
	shl	eax, cl
	movzx	ecx, WORD PTR win64_nvgpr
	and	eax, ecx
	test	eax, eax
	je	SHORT $LN59@write_win6

; 2532 :                 AddLineQueueX("%r %r", T_DOT_PUSHREG, *regist);

	mov	rax, QWORD PTR regist$[rsp]
	movzx	eax, WORD PTR [rax]
	mov	r8d, eax
	mov	edx, 417				; 000001a1H
	lea	rcx, OFFSET FLAT:$SG12434
	call	AddLineQueueX
$LN59@write_win6:
$LN58@write_win6:
$LN56@write_win6:
$LN54@write_win6:

; 2533 :               }
; 2534 :             }
; 2535 :           }
; 2536 :         } /* end for */

	jmp	$LN2@write_win6
$LN3@write_win6:
$LN52@write_win6:

; 2537 :       }
; 2538 :     }

	jmp	$LN51@write_win6
$LN50@write_win6:

; 2539 :     else{
; 2540 :       /* after the "push rbp", the stack is xmmword aligned */
; 2541 :       /* Push the registers */
; 2542 :       cntxmm = 0;

	mov	DWORD PTR cntxmm$[rsp], 0

; 2543 :       if (info->regslist) {

	mov	rax, QWORD PTR info$[rsp]
	cmp	QWORD PTR [rax], 0
	je	$LN60@write_win6

; 2544 :         int cnt;
; 2545 :         regist = info->regslist;

	mov	rax, QWORD PTR info$[rsp]
	mov	rax, QWORD PTR [rax]
	mov	QWORD PTR regist$[rsp], rax

; 2546 :         for (cnt = *regist++; cnt; cnt--, regist++) {

	mov	rax, QWORD PTR regist$[rsp]
	movzx	eax, WORD PTR [rax]
	mov	DWORD PTR cnt$3[rsp], eax
	mov	rax, QWORD PTR regist$[rsp]
	add	rax, 2
	mov	QWORD PTR regist$[rsp], rax
	jmp	SHORT $LN7@write_win6
$LN5@write_win6:
	mov	eax, DWORD PTR cnt$3[rsp]
	dec	eax
	mov	DWORD PTR cnt$3[rsp], eax
	mov	rax, QWORD PTR regist$[rsp]
	add	rax, 2
	mov	QWORD PTR regist$[rsp], rax
$LN7@write_win6:
	cmp	DWORD PTR cnt$3[rsp], 0
	je	$LN6@write_win6

; 2547 :           if (GetValueSp(*regist) & OP_XMM)

	mov	rax, QWORD PTR regist$[rsp]
	movzx	eax, WORD PTR [rax]
	imul	rax, rax, 12
	lea	rcx, OFFSET FLAT:SpecialTable
	mov	eax, DWORD PTR [rcx+rax]
	and	eax, 32					; 00000020H
	test	eax, eax
	je	SHORT $LN61@write_win6

; 2548 :             cntxmm += 1;

	mov	eax, DWORD PTR cntxmm$[rsp]
	inc	eax
	mov	DWORD PTR cntxmm$[rsp], eax
	jmp	$LN62@write_win6
$LN61@write_win6:

; 2549 :           else if (GetValueSp(*regist) & OP_YMM){

	mov	rax, QWORD PTR regist$[rsp]
	movzx	eax, WORD PTR [rax]
	imul	rax, rax, 12
	lea	rcx, OFFSET FLAT:SpecialTable
	mov	eax, DWORD PTR [rcx+rax]
	and	eax, 128				; 00000080H
	test	eax, eax
	je	SHORT $LN63@write_win6

; 2550 :             cntxmm += 1;

	mov	eax, DWORD PTR cntxmm$[rsp]
	inc	eax
	mov	DWORD PTR cntxmm$[rsp], eax

; 2551 :             ymmflag = 1;

	mov	BYTE PTR ymmflag$[rsp], 1

; 2552 :           }

	jmp	SHORT $LN64@write_win6
$LN63@write_win6:

; 2553 : #if EVEXSUPP    
; 2554 :           else if (GetValueSp(*regist) & OP_ZMM){
; 2555 :             cntxmm += 1;
; 2556 :             zmmflag = 1;
; 2557 :           }
; 2558 : #endif
; 2559 :           else {
; 2560 :             AddLineQueueX("push %r", *regist);

	mov	rax, QWORD PTR regist$[rsp]
	movzx	eax, WORD PTR [rax]
	mov	edx, eax
	lea	rcx, OFFSET FLAT:$SG12440
	call	AddLineQueueX

; 2561 :             if ((1 << GetRegNo(*regist)) & win64_nvgpr) {

	mov	rax, QWORD PTR regist$[rsp]
	movzx	eax, WORD PTR [rax]
	imul	rax, rax, 12
	lea	rcx, OFFSET FLAT:SpecialTable
	movzx	eax, BYTE PTR [rcx+rax+10]
	mov	ecx, 1
	mov	DWORD PTR tv891[rsp], ecx
	movzx	ecx, al
	mov	eax, DWORD PTR tv891[rsp]
	shl	eax, cl
	movzx	ecx, WORD PTR win64_nvgpr
	and	eax, ecx
	test	eax, eax
	je	SHORT $LN65@write_win6

; 2562 :               AddLineQueueX("%r %r", T_DOT_PUSHREG, *regist);

	mov	rax, QWORD PTR regist$[rsp]
	movzx	eax, WORD PTR [rax]
	mov	r8d, eax
	mov	edx, 417				; 000001a1H
	lea	rcx, OFFSET FLAT:$SG12442
	call	AddLineQueueX
$LN65@write_win6:
$LN64@write_win6:
$LN62@write_win6:

; 2563 :             }
; 2564 :           }
; 2565 :         } /* end for */

	jmp	$LN5@write_win6
$LN6@write_win6:
$LN60@write_win6:
$LN51@write_win6:

; 2566 :       }
; 2567 :     }
; 2568 : #if EVEXSUPP   
; 2569 :     if (zmmflag) XYZMMsize = 64;
; 2570 :     else
; 2571 : #endif
; 2572 :     if (ymmflag) XYZMMsize = 32;

	movzx	eax, BYTE PTR ymmflag$[rsp]
	test	eax, eax
	je	SHORT $LN66@write_win6
	mov	DWORD PTR XYZMMsize, 32			; 00000020H
	jmp	SHORT $LN67@write_win6
$LN66@write_win6:

; 2573 :     else XYZMMsize = 16;

	mov	DWORD PTR XYZMMsize, 16
$LN67@write_win6:

; 2574 :     /* v2.11: now done in write_prologue() */
; 2575 :     if (ModuleInfo.win64_flags & W64F_HABRAN){

	movzx	eax, BYTE PTR ModuleInfo+413
	and	eax, 11
	test	eax, eax
	je	$LN68@write_win6

; 2576 :       if (Parse_Pass && sym_ReservedStack->hasinvoke == 0) resstack = 0;

	cmp	DWORD PTR Parse_Pass, 0
	je	SHORT $LN69@write_win6
	mov	rax, QWORD PTR sym_ReservedStack
	cmp	DWORD PTR [rax+16], 0
	jne	SHORT $LN69@write_win6
	mov	DWORD PTR resstack$[rsp], 0
$LN69@write_win6:

; 2577 :       if (!(info->locallist) && !(resstack)) info->localsize = 0;

	mov	rax, QWORD PTR info$[rsp]
	cmp	QWORD PTR [rax+16], 0
	jne	SHORT $LN70@write_win6
	cmp	DWORD PTR resstack$[rsp], 0
	jne	SHORT $LN70@write_win6
	mov	rax, QWORD PTR info$[rsp]
	mov	DWORD PTR [rax+36], 0
$LN70@write_win6:

; 2578 :       if ((info->localsize == 0) && (cntxmm)){

	mov	rax, QWORD PTR info$[rsp]
	cmp	DWORD PTR [rax+36], 0
	jne	SHORT $LN71@write_win6
	cmp	DWORD PTR cntxmm$[rsp], 0
	je	SHORT $LN71@write_win6

; 2579 :         CurrProc->e.procinfo->xmmsize = cntxmm * XYZMMsize;

	mov	eax, DWORD PTR cntxmm$[rsp]
	imul	eax, DWORD PTR XYZMMsize
	mov	rcx, QWORD PTR CurrProc
	mov	rcx, QWORD PTR [rcx+96]
	mov	DWORD PTR [rcx+112], eax

; 2580 :         if ((info->pushed_reg & 1) == 0)

	mov	rax, QWORD PTR info$[rsp]
	mov	eax, DWORD PTR [rax+104]
	and	eax, 1
	test	eax, eax
	jne	SHORT $LN72@write_win6

; 2581 :         info->localsize = 8;

	mov	rax, QWORD PTR info$[rsp]
	mov	DWORD PTR [rax+36], 8
$LN72@write_win6:
$LN71@write_win6:
$LN68@write_win6:

; 2582 :       }
; 2583 :     }
; 2584 :     if (( info->locallist + resstack) || info->vecused)  {

	movsxd	rax, DWORD PTR resstack$[rsp]
	imul	rax, rax, 120				; 00000078H
	mov	rcx, QWORD PTR info$[rsp]
	add	rax, QWORD PTR [rcx+16]
	test	rax, rax
	jne	SHORT $LN74@write_win6
	mov	rax, QWORD PTR info$[rsp]
	movzx	eax, BYTE PTR [rax+80]
	test	eax, eax
	je	$LN73@write_win6
$LN74@write_win6:

; 2585 :         DebugMsg1(("write_win64_default_prologue: localsize=%u resstack=%u\n", info->localsize, resstack ));

	mov	r8d, DWORD PTR resstack$[rsp]
	mov	rax, QWORD PTR info$[rsp]
	mov	edx, DWORD PTR [rax+36]
	lea	rcx, OFFSET FLAT:$SG12452
	call	DoDebugMsg1

; 2586 :         if (ModuleInfo.win64_flags & W64F_HABRAN){

	movzx	eax, BYTE PTR ModuleInfo+413
	and	eax, 11
	test	eax, eax
	je	$LN75@write_win6

; 2587 :           if (((info->pushed_reg & 1) && (info->localsize & 0xF)) ||

	mov	rax, QWORD PTR info$[rsp]
	mov	eax, DWORD PTR [rax+104]
	and	eax, 1
	test	eax, eax
	je	SHORT $LN78@write_win6
	mov	rax, QWORD PTR info$[rsp]
	mov	eax, DWORD PTR [rax+36]
	and	eax, 15
	test	eax, eax
	jne	SHORT $LN77@write_win6
$LN78@write_win6:
	mov	rax, QWORD PTR info$[rsp]
	mov	eax, DWORD PTR [rax+104]
	and	eax, 1
	test	eax, eax
	jne	SHORT $LN76@write_win6
	mov	rax, QWORD PTR info$[rsp]
	mov	eax, DWORD PTR [rax+36]
	and	eax, 15
	test	eax, eax
	jne	SHORT $LN76@write_win6
	mov	rax, QWORD PTR info$[rsp]
	mov	eax, DWORD PTR [rax+104]
	and	eax, 1
	test	eax, eax
	jne	SHORT $LN76@write_win6
	cmp	DWORD PTR cntxmm$[rsp], 0
	jne	SHORT $LN76@write_win6
$LN77@write_win6:

; 2588 :             ((!(info->pushed_reg & 1)) && (!(info->localsize & 0xF))) && (!(info->pushed_reg & 1)) && (!(cntxmm))){
; 2589 :             info->localsize += 8;

	mov	rax, QWORD PTR info$[rsp]
	mov	eax, DWORD PTR [rax+36]
	add	eax, 8
	mov	rcx, QWORD PTR info$[rsp]
	mov	DWORD PTR [rcx+36], eax

; 2590 :             if (CurrProc->sym.langtype == LANG_VECTORCALL){

	mov	rax, QWORD PTR CurrProc
	cmp	DWORD PTR [rax+76], 8
	jne	SHORT $LN79@write_win6

; 2591 :               vectstart = 0 ;

	mov	DWORD PTR vectstart$[rsp], 0
$LN79@write_win6:
$LN76@write_win6:
$LN75@write_win6:

; 2592 :             }
; 2593 :           }
; 2594 :         }
; 2595 :           /*
; 2596 :          * SUB  RSP, localsize
; 2597 :          * .ALLOCSTACK localsize
; 2598 :          */
; 2599 :         
; 2600 :         ppfmt = ( resstack ? fmtstk1 : fmtstk0 );

	cmp	DWORD PTR resstack$[rsp], 0
	je	SHORT $LN133@write_win6
	lea	rax, OFFSET FLAT:fmtstk1
	mov	QWORD PTR tv288[rsp], rax
	jmp	SHORT $LN134@write_win6
$LN133@write_win6:
	lea	rax, OFFSET FLAT:fmtstk0
	mov	QWORD PTR tv288[rsp], rax
$LN134@write_win6:
	mov	rax, QWORD PTR tv288[rsp]
	mov	QWORD PTR ppfmt$[rsp], rax

; 2601 : #if STACKPROBE
; 2602 : 		if (info->localsize + resstack > 0x1000) {
; 2603 : 			AddLineQueueX(*(ppfmt + 2), T_RAX, NUMQUAL info->localsize, sym_ReservedStack->name);
; 2604 : 			AddLineQueue("externdef __chkstk:PROC");
; 2605 : 			AddLineQueue("call __chkstk");
; 2606 : 			AddLineQueueX("mov %r, %r", T_RSP, T_RAX);
; 2607 : 		}
; 2608 : 		else
; 2609 : #endif
; 2610 : 			stackSize = info->localsize + info->vsize + info->xmmsize;

	mov	rax, QWORD PTR info$[rsp]
	mov	eax, DWORD PTR [rax+36]
	mov	rcx, QWORD PTR info$[rsp]
	add	eax, DWORD PTR [rcx+44]
	mov	rcx, QWORD PTR info$[rsp]
	add	eax, DWORD PTR [rcx+112]
	mov	DWORD PTR stackSize$[rsp], eax

; 2611 : 
; 2612 : 		if ((stackSize & 7) != 0) stackSize = (stackSize + 7)&(-8);

	mov	eax, DWORD PTR stackSize$[rsp]
	and	eax, 7
	test	eax, eax
	je	SHORT $LN80@write_win6
	mov	eax, DWORD PTR stackSize$[rsp]
	add	eax, 7
	and	eax, -8
	mov	DWORD PTR stackSize$[rsp], eax
$LN80@write_win6:

; 2613 :             AddLineQueueX( *(ppfmt+0), T_RSP, NUMQUAL stackSize, sym_ReservedStack->name );

	mov	rax, QWORD PTR sym_ReservedStack
	mov	r9, QWORD PTR [rax+8]
	mov	r8d, DWORD PTR stackSize$[rsp]
	mov	edx, 119				; 00000077H
	mov	rax, QWORD PTR ppfmt$[rsp]
	mov	rcx, QWORD PTR [rax]
	call	AddLineQueueX

; 2614 :         AddLineQueueX( *(ppfmt+1), T_DOT_ALLOCSTACK, NUMQUAL stackSize, sym_ReservedStack->name );

	mov	rax, QWORD PTR sym_ReservedStack
	mov	r9, QWORD PTR [rax+8]
	mov	r8d, DWORD PTR stackSize$[rsp]
	mov	edx, 414				; 0000019eH
	mov	rax, QWORD PTR ppfmt$[rsp]
	mov	rcx, QWORD PTR [rax+8]
	call	AddLineQueueX

; 2615 : 		    /* Handle ZEROLOCALS option */
; 2616 : 		    if (ZEROLOCALS && info->localsize) 

	movzx	eax, BYTE PTR ZEROLOCALS
	test	eax, eax
	je	$LN81@write_win6
	mov	rax, QWORD PTR info$[rsp]
	cmp	DWORD PTR [rax+36], 0
	je	$LN81@write_win6

; 2617 : 		    {
; 2618 : 			    if (info->localsize <= 128) 

	mov	rax, QWORD PTR info$[rsp]
	cmp	DWORD PTR [rax+36], 128			; 00000080H
	ja	SHORT $LN82@write_win6

; 2619 : 			    {
; 2620 : 				    AddLineQueueX("mov %r, %u", T_EAX, info->localsize);

	mov	rax, QWORD PTR info$[rsp]
	mov	r8d, DWORD PTR [rax+36]
	mov	edx, 17
	lea	rcx, OFFSET FLAT:$SG12462
	call	AddLineQueueX

; 2621 : 				    AddLineQueueX("dec %r", T_EAX);

	mov	edx, 17
	lea	rcx, OFFSET FLAT:$SG12463
	call	AddLineQueueX

; 2622 : 				    AddLineQueueX("mov byte ptr [%r + %r], 0", T_RSP, T_RAX);

	mov	r8d, 115				; 00000073H
	mov	edx, 119				; 00000077H
	lea	rcx, OFFSET FLAT:$SG12464
	call	AddLineQueueX

; 2623 : 				    AddLineQueueX("dw 0F875h");

	lea	rcx, OFFSET FLAT:$SG12465
	call	AddLineQueueX

; 2624 : 			    }

	jmp	$LN83@write_win6
$LN82@write_win6:

; 2625 : 			    else
; 2626 : 			    {
; 2627 : 				    AddLineQueueX("push %r", T_RDI);

	mov	edx, 122				; 0000007aH
	lea	rcx, OFFSET FLAT:$SG12466
	call	AddLineQueueX

; 2628 : 				    AddLineQueueX("push %r", T_RCX);

	mov	edx, 116				; 00000074H
	lea	rcx, OFFSET FLAT:$SG12467
	call	AddLineQueueX

; 2629 : 				    AddLineQueueX("xor %r, %r", T_EAX, T_EAX);

	mov	r8d, 17
	mov	edx, 17
	lea	rcx, OFFSET FLAT:$SG12468
	call	AddLineQueueX

; 2630 : 				    AddLineQueueX("mov %r, %u", T_ECX, info->localsize);

	mov	rax, QWORD PTR info$[rsp]
	mov	r8d, DWORD PTR [rax+36]
	mov	edx, 18
	lea	rcx, OFFSET FLAT:$SG12469
	call	AddLineQueueX

; 2631 : 				    AddLineQueueX("cld");

	lea	rcx, OFFSET FLAT:$SG12470
	call	AddLineQueueX

; 2632 : 				    AddLineQueueX("lea %r, [%r+16]", T_RDI, T_RSP);

	mov	r8d, 119				; 00000077H
	mov	edx, 122				; 0000007aH
	lea	rcx, OFFSET FLAT:$SG12471
	call	AddLineQueueX

; 2633 : 				    AddLineQueueX("rep stosb");

	lea	rcx, OFFSET FLAT:$SG12472
	call	AddLineQueueX

; 2634 : 				    AddLineQueueX("pop %r", T_RCX);

	mov	edx, 116				; 00000074H
	lea	rcx, OFFSET FLAT:$SG12473
	call	AddLineQueueX

; 2635 : 				    AddLineQueueX("pop %r", T_RDI);

	mov	edx, 122				; 0000007aH
	lea	rcx, OFFSET FLAT:$SG12474
	call	AddLineQueueX
$LN83@write_win6:
$LN81@write_win6:

; 2636 : 			    }
; 2637 : 		    }
; 2638 :         /* save xmm registers */
; 2639 :         if ( cntxmm ) {

	cmp	DWORD PTR cntxmm$[rsp], 0
	je	$LN84@write_win6

; 2640 :             int cnt;
; 2641 :             regist = info->regslist;

	mov	rax, QWORD PTR info$[rsp]
	mov	rax, QWORD PTR [rax]
	mov	QWORD PTR regist$[rsp], rax

; 2642 :             if (info->locallist)

	mov	rax, QWORD PTR info$[rsp]
	cmp	QWORD PTR [rax+16], 0
	je	SHORT $LN85@write_win6

; 2643 :               i = (info->localsize - cntxmm * XYZMMsize) & ~(16 - 1);

	mov	eax, DWORD PTR cntxmm$[rsp]
	imul	eax, DWORD PTR XYZMMsize
	mov	rcx, QWORD PTR info$[rsp]
	mov	ecx, DWORD PTR [rcx+36]
	sub	ecx, eax
	mov	eax, ecx
	and	eax, -16				; fffffff0H
	mov	DWORD PTR i$[rsp], eax
	jmp	SHORT $LN86@write_win6
$LN85@write_win6:

; 2644 :             else
; 2645 :               i = info->localsize  & ~(16 - 1);

	mov	rax, QWORD PTR info$[rsp]
	mov	eax, DWORD PTR [rax+36]
	and	eax, -16				; fffffff0H
	mov	DWORD PTR i$[rsp], eax
$LN86@write_win6:

; 2646 : 
; 2647 :             for( cnt = *regist++; cnt; cnt--, regist++ ) {

	mov	rax, QWORD PTR regist$[rsp]
	movzx	eax, WORD PTR [rax]
	mov	DWORD PTR cnt$4[rsp], eax
	mov	rax, QWORD PTR regist$[rsp]
	add	rax, 2
	mov	QWORD PTR regist$[rsp], rax
	jmp	SHORT $LN10@write_win6
$LN8@write_win6:
	mov	eax, DWORD PTR cnt$4[rsp]
	dec	eax
	mov	DWORD PTR cnt$4[rsp], eax
	mov	rax, QWORD PTR regist$[rsp]
	add	rax, 2
	mov	QWORD PTR regist$[rsp], rax
$LN10@write_win6:
	cmp	DWORD PTR cnt$4[rsp], 0
	je	$LN9@write_win6

; 2648 :                 if (( GetValueSp( *regist ) & OP_XMM )||( GetValueSp( *regist ) & OP_YMM )

	mov	rax, QWORD PTR regist$[rsp]
	movzx	eax, WORD PTR [rax]
	imul	rax, rax, 12
	lea	rcx, OFFSET FLAT:SpecialTable
	mov	eax, DWORD PTR [rcx+rax]
	and	eax, 32					; 00000020H
	test	eax, eax
	jne	SHORT $LN88@write_win6
	mov	rax, QWORD PTR regist$[rsp]
	movzx	eax, WORD PTR [rax]
	imul	rax, rax, 12
	lea	rcx, OFFSET FLAT:SpecialTable
	mov	eax, DWORD PTR [rcx+rax]
	and	eax, 128				; 00000080H
	test	eax, eax
	je	$LN87@write_win6
$LN88@write_win6:

; 2649 : #if EVEXSUPP    
; 2650 :                   || ( GetValueSp( *regist ) & OP_ZMM )
; 2651 : #endif
; 2652 :                 ){
; 2653 :                     if ( resstack ) {

	cmp	DWORD PTR resstack$[rsp], 0
	je	$LN89@write_win6

; 2654 :                         if ( ( 1 << GetRegNo( *regist ) ) & win64_nvxmm )  {

	mov	rax, QWORD PTR regist$[rsp]
	movzx	eax, WORD PTR [rax]
	imul	rax, rax, 12
	lea	rcx, OFFSET FLAT:SpecialTable
	movzx	eax, BYTE PTR [rcx+rax+10]
	mov	ecx, 1
	mov	DWORD PTR tv964[rsp], ecx
	movzx	ecx, al
	mov	eax, DWORD PTR tv964[rsp]
	shl	eax, cl
	movzx	ecx, WORD PTR win64_nvxmm
	and	eax, ecx
	test	eax, eax
	je	$LN91@write_win6

; 2655 :                           if (GetValueSp(*regist) & OP_XMM){

	mov	rax, QWORD PTR regist$[rsp]
	movzx	eax, WORD PTR [rax]
	imul	rax, rax, 12
	lea	rcx, OFFSET FLAT:SpecialTable
	mov	eax, DWORD PTR [rcx+rax]
	and	eax, 32					; 00000020H
	test	eax, eax
	je	SHORT $LN92@write_win6

; 2656 :                             AddLineQueueX( "vmovdqu [%r+%u+%s], %r", T_RSP, NUMQUAL i, sym_ReservedStack->name, *regist );

	mov	rax, QWORD PTR regist$[rsp]
	movzx	eax, WORD PTR [rax]
	mov	DWORD PTR [rsp+32], eax
	mov	rax, QWORD PTR sym_ReservedStack
	mov	r9, QWORD PTR [rax+8]
	mov	r8d, DWORD PTR i$[rsp]
	mov	edx, 119				; 00000077H
	lea	rcx, OFFSET FLAT:$SG12485
	call	AddLineQueueX

; 2657 :                             AddLineQueueX("%r %r, %u+%s", T_DOT_SAVEXMM128, *regist, NUMQUAL i, sym_ReservedStack->name);

	mov	rax, QWORD PTR regist$[rsp]
	movzx	eax, WORD PTR [rax]
	mov	rcx, QWORD PTR sym_ReservedStack
	mov	rcx, QWORD PTR [rcx+8]
	mov	QWORD PTR [rsp+32], rcx
	mov	r9d, DWORD PTR i$[rsp]
	mov	r8d, eax
	mov	edx, 419				; 000001a3H
	lea	rcx, OFFSET FLAT:$SG12486
	call	AddLineQueueX

; 2658 :                             i += XYZMMsize;

	mov	eax, DWORD PTR XYZMMsize
	mov	ecx, DWORD PTR i$[rsp]
	add	ecx, eax
	mov	eax, ecx
	mov	DWORD PTR i$[rsp], eax

; 2659 :                           }

	jmp	$LN93@write_win6
$LN92@write_win6:

; 2660 :                           else if (GetValueSp(*regist) & OP_YMM){

	mov	rax, QWORD PTR regist$[rsp]
	movzx	eax, WORD PTR [rax]
	imul	rax, rax, 12
	lea	rcx, OFFSET FLAT:SpecialTable
	mov	eax, DWORD PTR [rcx+rax]
	and	eax, 128				; 00000080H
	test	eax, eax
	je	SHORT $LN94@write_win6

; 2661 :                             AddLineQueueX( "vmovdqu [%r+%u+%s], %r", T_RSP, NUMQUAL i, sym_ReservedStack->name, *regist );

	mov	rax, QWORD PTR regist$[rsp]
	movzx	eax, WORD PTR [rax]
	mov	DWORD PTR [rsp+32], eax
	mov	rax, QWORD PTR sym_ReservedStack
	mov	r9, QWORD PTR [rax+8]
	mov	r8d, DWORD PTR i$[rsp]
	mov	edx, 119				; 00000077H
	lea	rcx, OFFSET FLAT:$SG12488
	call	AddLineQueueX

; 2662 :                             AddLineQueueX("%r %r, %u+%s", T_DOT_SAVEYMM256, *regist, NUMQUAL i, sym_ReservedStack->name);

	mov	rax, QWORD PTR regist$[rsp]
	movzx	eax, WORD PTR [rax]
	mov	rcx, QWORD PTR sym_ReservedStack
	mov	rcx, QWORD PTR [rcx+8]
	mov	QWORD PTR [rsp+32], rcx
	mov	r9d, DWORD PTR i$[rsp]
	mov	r8d, eax
	mov	edx, 420				; 000001a4H
	lea	rcx, OFFSET FLAT:$SG12489
	call	AddLineQueueX

; 2663 :                             i += XYZMMsize;

	mov	eax, DWORD PTR XYZMMsize
	mov	ecx, DWORD PTR i$[rsp]
	add	ecx, eax
	mov	eax, ecx
	mov	DWORD PTR i$[rsp], eax
$LN94@write_win6:
$LN93@write_win6:
$LN91@write_win6:

; 2664 :                           }
; 2665 : #if EVEXSUPP    
; 2666 :                           else (GetValueSp(*regist) & OP_ZMM){
; 2667 :                             AddLineQueueX( "vmovdqu [%r+%u+%s], %r", T_RSP, NUMQUAL i, sym_ReservedStack->name, *regist );
; 2668 :                             AddLineQueueX("%r %r, %u+%s", T_DOT_SAVEZMM512, *regist, NUMQUAL i, sym_ReservedStack->name);
; 2669 :                             i += XYZMMsize;
; 2670 :                           }
; 2671 : #endif
; 2672 :                         }
; 2673 :                     } else {

	jmp	$LN90@write_win6
$LN89@write_win6:

; 2674 :                         if ( ( 1 << GetRegNo( *regist ) ) & win64_nvxmm )  {

	mov	rax, QWORD PTR regist$[rsp]
	movzx	eax, WORD PTR [rax]
	imul	rax, rax, 12
	lea	rcx, OFFSET FLAT:SpecialTable
	movzx	eax, BYTE PTR [rcx+rax+10]
	mov	ecx, 1
	mov	DWORD PTR tv987[rsp], ecx
	movzx	ecx, al
	mov	eax, DWORD PTR tv987[rsp]
	shl	eax, cl
	movzx	ecx, WORD PTR win64_nvxmm
	and	eax, ecx
	test	eax, eax
	je	$LN95@write_win6

; 2675 :                           if (GetValueSp(*regist) & OP_XMM){

	mov	rax, QWORD PTR regist$[rsp]
	movzx	eax, WORD PTR [rax]
	imul	rax, rax, 12
	lea	rcx, OFFSET FLAT:SpecialTable
	mov	eax, DWORD PTR [rcx+rax]
	and	eax, 32					; 00000020H
	test	eax, eax
	je	SHORT $LN96@write_win6

; 2676 :                             AddLineQueueX("vmovdqu [%r+%u], %r", T_RSP, NUMQUAL i, *regist);

	mov	rax, QWORD PTR regist$[rsp]
	movzx	eax, WORD PTR [rax]
	mov	r9d, eax
	mov	r8d, DWORD PTR i$[rsp]
	mov	edx, 119				; 00000077H
	lea	rcx, OFFSET FLAT:$SG12493
	call	AddLineQueueX

; 2677 :                             AddLineQueueX("%r %r, %u", T_DOT_SAVEXMM128, *regist, NUMQUAL i);

	mov	rax, QWORD PTR regist$[rsp]
	movzx	eax, WORD PTR [rax]
	mov	r9d, DWORD PTR i$[rsp]
	mov	r8d, eax
	mov	edx, 419				; 000001a3H
	lea	rcx, OFFSET FLAT:$SG12494
	call	AddLineQueueX

; 2678 :                             i += XYZMMsize;

	mov	eax, DWORD PTR XYZMMsize
	mov	ecx, DWORD PTR i$[rsp]
	add	ecx, eax
	mov	eax, ecx
	mov	DWORD PTR i$[rsp], eax

; 2679 :                           }

	jmp	SHORT $LN97@write_win6
$LN96@write_win6:

; 2680 :                           else if (GetValueSp(*regist) & OP_YMM){

	mov	rax, QWORD PTR regist$[rsp]
	movzx	eax, WORD PTR [rax]
	imul	rax, rax, 12
	lea	rcx, OFFSET FLAT:SpecialTable
	mov	eax, DWORD PTR [rcx+rax]
	and	eax, 128				; 00000080H
	test	eax, eax
	je	SHORT $LN98@write_win6

; 2681 :                             AddLineQueueX("vmovdqu [%r+%u], %r", T_RSP, NUMQUAL i, *regist);

	mov	rax, QWORD PTR regist$[rsp]
	movzx	eax, WORD PTR [rax]
	mov	r9d, eax
	mov	r8d, DWORD PTR i$[rsp]
	mov	edx, 119				; 00000077H
	lea	rcx, OFFSET FLAT:$SG12496
	call	AddLineQueueX

; 2682 :                             AddLineQueueX("%r %r, %u", T_DOT_SAVEYMM256, *regist, NUMQUAL i);

	mov	rax, QWORD PTR regist$[rsp]
	movzx	eax, WORD PTR [rax]
	mov	r9d, DWORD PTR i$[rsp]
	mov	r8d, eax
	mov	edx, 420				; 000001a4H
	lea	rcx, OFFSET FLAT:$SG12497
	call	AddLineQueueX

; 2683 :                             i += XYZMMsize;

	mov	eax, DWORD PTR XYZMMsize
	mov	ecx, DWORD PTR i$[rsp]
	add	ecx, eax
	mov	eax, ecx
	mov	DWORD PTR i$[rsp], eax
$LN98@write_win6:
$LN97@write_win6:
$LN95@write_win6:
$LN90@write_win6:
$LN87@write_win6:

; 2684 :                           }
; 2685 : #if EVEXSUPP    
; 2686 :                           else (GetValueSp(*regist) & OP_ZMM){
; 2687 :                             AddLineQueueX( "vmovdqu [%r+%u+%s], %r", T_RSP, NUMQUAL i, *regist );
; 2688 :                             AddLineQueueX("%r %r, %u+%s", T_DOT_SAVEZMM512, *regist, NUMQUAL i);
; 2689 :                             i += XYZMMsize;
; 2690 :                           }
; 2691 : #endif
; 2692 :                         }
; 2693 :                     }
; 2694 :                 }
; 2695 :             }

	jmp	$LN8@write_win6
$LN9@write_win6:
$LN84@write_win6:

; 2696 :         }
; 2697 :     /* For VECTORCALL save vectors in the space provided */
; 2698 :         if (CurrProc->sym.langtype == LANG_VECTORCALL){

	mov	rax, QWORD PTR CurrProc
	cmp	DWORD PTR [rax+76], 8
	jne	$LN99@write_win6

; 2699 :           vectstart = info->localsize  + info->xmmsize & ~(16 - 1);

	mov	rax, QWORD PTR info$[rsp]
	mov	eax, DWORD PTR [rax+36]
	mov	rcx, QWORD PTR info$[rsp]
	add	eax, DWORD PTR [rcx+112]
	and	eax, -16				; fffffff0H
	mov	DWORD PTR vectstart$[rsp], eax

; 2700 :           if (info->vecused){

	mov	rax, QWORD PTR info$[rsp]
	movzx	eax, BYTE PTR [rax+80]
	test	eax, eax
	je	$LN100@write_win6

; 2701 :             if (info->vecregs){

	mov	rax, QWORD PTR info$[rsp]
	add	rax, 56					; 00000038H
	test	rax, rax
	je	$LN101@write_win6

; 2702 :               for (n = 0, m = 0, xsize = 0; n < 6; n++){

	mov	DWORD PTR n$[rsp], 0
	mov	DWORD PTR m$[rsp], 0
	mov	BYTE PTR xsize$[rsp], 0
	jmp	SHORT $LN13@write_win6
$LN11@write_win6:
	mov	eax, DWORD PTR n$[rsp]
	inc	eax
	mov	DWORD PTR n$[rsp], eax
$LN13@write_win6:
	cmp	DWORD PTR n$[rsp], 6
	jge	$LN12@write_win6

; 2703 :                 xreg = info->vecregs[n];

	movsxd	rax, DWORD PTR n$[rsp]
	mov	rcx, QWORD PTR info$[rsp]
	movzx	eax, BYTE PTR [rcx+rax+56]
	mov	BYTE PTR xreg$[rsp], al

; 2704 :                 if (xreg == 1 && info->vecregsize[n] < 16)

	movzx	eax, BYTE PTR xreg$[rsp]
	cmp	eax, 1
	jne	SHORT $LN102@write_win6
	movsxd	rax, DWORD PTR n$[rsp]
	mov	rcx, QWORD PTR info$[rsp]
	movzx	eax, BYTE PTR [rcx+rax+62]
	cmp	eax, 16
	jge	SHORT $LN102@write_win6

; 2705 :                   continue;//REAL4, FLOAT and REAL8 are stored in homespace

	jmp	SHORT $LN11@write_win6
	jmp	$LN103@write_win6
$LN102@write_win6:

; 2706 :                 else if (xreg)

	movzx	eax, BYTE PTR xreg$[rsp]
	test	eax, eax
	je	$LN104@write_win6

; 2707 : 				{  
; 2708 :                   AddLineQueueX("lea %r,[%r + %d]", T_RAX,T_RSP,vectstart  + xsize );

	movzx	eax, BYTE PTR xsize$[rsp]
	mov	ecx, DWORD PTR vectstart$[rsp]
	add	ecx, eax
	mov	eax, ecx
	mov	r9d, eax
	mov	r8d, 119				; 00000077H
	mov	edx, 115				; 00000073H
	lea	rcx, OFFSET FLAT:$SG12505
	call	AddLineQueueX

; 2709 :                   stackSize = info->localsize + resstack + info->vsize + info->xmmsize + 8 + info->pushed_reg * 8  + n * 8;

	mov	rax, QWORD PTR info$[rsp]
	mov	eax, DWORD PTR [rax+36]
	add	eax, DWORD PTR resstack$[rsp]
	mov	rcx, QWORD PTR info$[rsp]
	add	eax, DWORD PTR [rcx+44]
	mov	rcx, QWORD PTR info$[rsp]
	add	eax, DWORD PTR [rcx+112]
	mov	rcx, QWORD PTR info$[rsp]
	mov	ecx, DWORD PTR [rcx+104]
	lea	eax, DWORD PTR [rax+rcx*8+8]
	mov	ecx, DWORD PTR n$[rsp]
	lea	eax, DWORD PTR [rax+rcx*8]
	mov	DWORD PTR stackSize$[rsp], eax

; 2710 :                   if ((stackSize & 7) != 0) stackSize = (stackSize + 7)&(-8);

	mov	eax, DWORD PTR stackSize$[rsp]
	and	eax, 7
	test	eax, eax
	je	SHORT $LN106@write_win6
	mov	eax, DWORD PTR stackSize$[rsp]
	add	eax, 7
	and	eax, -8
	mov	DWORD PTR stackSize$[rsp], eax
$LN106@write_win6:

; 2711 :                   AddLineQueueX("mov [%r + %d], %r", T_RSP, stackSize, T_RAX);

	mov	r9d, 115				; 00000073H
	mov	r8d, DWORD PTR stackSize$[rsp]
	mov	edx, 119				; 00000077H
	lea	rcx, OFFSET FLAT:$SG12507
	call	AddLineQueueX

; 2712 :                   xsize += info->vecregsize[n] * xreg;

	movsxd	rax, DWORD PTR n$[rsp]
	mov	rcx, QWORD PTR info$[rsp]
	movzx	eax, BYTE PTR [rcx+rax+62]
	movzx	ecx, BYTE PTR xreg$[rsp]
	imul	eax, ecx
	movzx	ecx, BYTE PTR xsize$[rsp]
	add	ecx, eax
	mov	eax, ecx
	mov	BYTE PTR xsize$[rsp], al

; 2713 :                 }

	jmp	$LN105@write_win6
$LN104@write_win6:

; 2714 : 				else if (info->vregs[n] != 0 && xreg == 0 && n < 4) /* JPH */

	movsxd	rax, DWORD PTR n$[rsp]
	mov	rcx, QWORD PTR info$[rsp]
	movzx	eax, BYTE PTR [rcx+rax+68]
	test	eax, eax
	je	$LN107@write_win6
	movzx	eax, BYTE PTR xreg$[rsp]
	test	eax, eax
	jne	$LN107@write_win6
	cmp	DWORD PTR n$[rsp], 4
	jge	$LN107@write_win6

; 2715 : 				{
; 2716 : 					struct dsym *pp = info->paralist;

	mov	rax, QWORD PTR info$[rsp]
	mov	rax, QWORD PTR [rax+8]
	mov	QWORD PTR pp$2[rsp], rax

; 2717 : 					int j = 0;

	mov	DWORD PTR j$1[rsp], 0

; 2718 : 					for (j = 0; j < n; j++)

	mov	DWORD PTR j$1[rsp], 0
	jmp	SHORT $LN16@write_win6
$LN14@write_win6:
	mov	eax, DWORD PTR j$1[rsp]
	inc	eax
	mov	DWORD PTR j$1[rsp], eax
$LN16@write_win6:
	mov	eax, DWORD PTR n$[rsp]
	cmp	DWORD PTR j$1[rsp], eax
	jge	SHORT $LN15@write_win6

; 2719 : 					{
; 2720 : 						if(pp) pp = pp->nextparam;

	cmp	QWORD PTR pp$2[rsp], 0
	je	SHORT $LN108@write_win6
	mov	rax, QWORD PTR pp$2[rsp]
	mov	rax, QWORD PTR [rax+112]
	mov	QWORD PTR pp$2[rsp], rax
$LN108@write_win6:

; 2721 : 					}

	jmp	SHORT $LN14@write_win6
$LN15@write_win6:

; 2722 : 					if (pp)

	cmp	QWORD PTR pp$2[rsp], 0
	je	$LN109@write_win6

; 2723 : 					{
; 2724 : 							if (pp->sym.ttype)

	mov	rax, QWORD PTR pp$2[rsp]
	cmp	QWORD PTR [rax+80], 0
	je	$LN110@write_win6

; 2725 : 							{
; 2726 : 								if (pp->sym.ttype->e.structinfo->isHFA == 1 || pp->sym.ttype->e.structinfo->isHVA == 1 || pp->sym.ttype->e.structinfo->stype == MM128 || pp->sym.ttype->e.structinfo->stype == MM256)

	mov	rax, QWORD PTR pp$2[rsp]
	mov	rax, QWORD PTR [rax+80]
	mov	rax, QWORD PTR [rax+96]
	movzx	eax, BYTE PTR [rax+22]
	cmp	eax, 1
	je	SHORT $LN112@write_win6
	mov	rax, QWORD PTR pp$2[rsp]
	mov	rax, QWORD PTR [rax+80]
	mov	rax, QWORD PTR [rax+96]
	movzx	eax, BYTE PTR [rax+21]
	cmp	eax, 1
	je	SHORT $LN112@write_win6
	mov	rax, QWORD PTR pp$2[rsp]
	mov	rax, QWORD PTR [rax+80]
	mov	rax, QWORD PTR [rax+96]
	cmp	DWORD PTR [rax+16], 1
	je	SHORT $LN112@write_win6
	mov	rax, QWORD PTR pp$2[rsp]
	mov	rax, QWORD PTR [rax+80]
	mov	rax, QWORD PTR [rax+96]
	cmp	DWORD PTR [rax+16], 2
	jne	$LN111@write_win6
$LN112@write_win6:

; 2727 : 								{
; 2728 : 									stackSize = info->localsize + resstack + info->vsize + info->xmmsize + 8 + info->pushed_reg * 8 + n * 8;

	mov	rax, QWORD PTR info$[rsp]
	mov	eax, DWORD PTR [rax+36]
	add	eax, DWORD PTR resstack$[rsp]
	mov	rcx, QWORD PTR info$[rsp]
	add	eax, DWORD PTR [rcx+44]
	mov	rcx, QWORD PTR info$[rsp]
	add	eax, DWORD PTR [rcx+112]
	mov	rcx, QWORD PTR info$[rsp]
	mov	ecx, DWORD PTR [rcx+104]
	lea	eax, DWORD PTR [rax+rcx*8+8]
	mov	ecx, DWORD PTR n$[rsp]
	lea	eax, DWORD PTR [rax+rcx*8]
	mov	DWORD PTR stackSize$[rsp], eax

; 2729 : 									if ((stackSize & 7) != 0) stackSize = (stackSize + 7)&(-8);

	mov	eax, DWORD PTR stackSize$[rsp]
	and	eax, 7
	test	eax, eax
	je	SHORT $LN113@write_win6
	mov	eax, DWORD PTR stackSize$[rsp]
	add	eax, 7
	and	eax, -8
	mov	DWORD PTR stackSize$[rsp], eax
$LN113@write_win6:

; 2730 : 									AddLineQueueX("mov [%r + %d], %r", T_RSP, stackSize, ms64_regs[n]);

	movsxd	rax, DWORD PTR n$[rsp]
	lea	rcx, OFFSET FLAT:ms64_regs
	mov	r9d, DWORD PTR [rcx+rax*4]
	mov	r8d, DWORD PTR stackSize$[rsp]
	mov	edx, 119				; 00000077H
	lea	rcx, OFFSET FLAT:$SG12515
	call	AddLineQueueX

; 2731 : 									//xsize += 8;
; 2732 : 									xsize += info->vecregsize[n] * xreg;

	movsxd	rax, DWORD PTR n$[rsp]
	mov	rcx, QWORD PTR info$[rsp]
	movzx	eax, BYTE PTR [rcx+rax+62]
	movzx	ecx, BYTE PTR xreg$[rsp]
	imul	eax, ecx
	movzx	ecx, BYTE PTR xsize$[rsp]
	add	ecx, eax
	mov	eax, ecx
	mov	BYTE PTR xsize$[rsp], al
$LN111@write_win6:
$LN110@write_win6:
$LN109@write_win6:
$LN107@write_win6:
$LN105@write_win6:
$LN103@write_win6:

; 2733 : 								}
; 2734 : 							}
; 2735 : 					}
; 2736 : 				}
; 2737 :               }

	jmp	$LN11@write_win6
$LN12@write_win6:

; 2738 :               /* set available registers to zero including the ones that are greater than 1 */
; 2739 :               for (i = 0; i < 6; i++){

	mov	DWORD PTR i$[rsp], 0
	jmp	SHORT $LN19@write_win6
$LN17@write_win6:
	mov	eax, DWORD PTR i$[rsp]
	inc	eax
	mov	DWORD PTR i$[rsp], eax
$LN19@write_win6:
	cmp	DWORD PTR i$[rsp], 6
	jge	$LN18@write_win6

; 2740 :                 if (info->vecregs[i] == 1) xyused[i] = 1;

	movsxd	rax, DWORD PTR i$[rsp]
	mov	rcx, QWORD PTR info$[rsp]
	movzx	eax, BYTE PTR [rcx+rax+56]
	cmp	eax, 1
	jne	SHORT $LN114@write_win6
	movsxd	rax, DWORD PTR i$[rsp]
	mov	BYTE PTR xyused$[rsp+rax], 1
	jmp	SHORT $LN115@write_win6
$LN114@write_win6:

; 2741 :                 else if ((info->vecregs[i] >= 1) && (xyused[i] != 1))

	movsxd	rax, DWORD PTR i$[rsp]
	mov	rcx, QWORD PTR info$[rsp]
	movzx	eax, BYTE PTR [rcx+rax+56]
	cmp	eax, 1
	jl	SHORT $LN116@write_win6
	movsxd	rax, DWORD PTR i$[rsp]
	movzx	eax, BYTE PTR xyused$[rsp+rax]
	cmp	eax, 1
	je	SHORT $LN116@write_win6

; 2742 :                   xyused[i] = 0;

	movsxd	rax, DWORD PTR i$[rsp]
	mov	QWORD PTR $T5[rsp], rax
	cmp	QWORD PTR $T5[rsp], 6
	jae	SHORT $LN135@write_win6
	jmp	SHORT $LN136@write_win6
$LN135@write_win6:
	call	__report_rangecheckfailure
$LN136@write_win6:
	mov	rax, QWORD PTR $T5[rsp]
	mov	BYTE PTR xyused$[rsp+rax], 0
$LN116@write_win6:
$LN115@write_win6:

; 2743 :               }

	jmp	$LN17@write_win6
$LN18@write_win6:

; 2744 :               for (n = 0, m = 0; n < 6; n++){

	mov	DWORD PTR n$[rsp], 0
	mov	DWORD PTR m$[rsp], 0
	jmp	SHORT $LN22@write_win6
$LN20@write_win6:
	mov	eax, DWORD PTR n$[rsp]
	inc	eax
	mov	DWORD PTR n$[rsp], eax
$LN22@write_win6:
	cmp	DWORD PTR n$[rsp], 6
	jge	$LN21@write_win6

; 2745 :                 xreg = info->vecregs[n];       // it can be 0, 1, 2 or 4 eg: 0, 4, 0, 2, 0, 0

	movsxd	rax, DWORD PTR n$[rsp]
	mov	rcx, QWORD PTR info$[rsp]
	movzx	eax, BYTE PTR [rcx+rax+56]
	mov	BYTE PTR xreg$[rsp], al

; 2746 :                 xsize = info->vecregsize[n];   // xmm = 16, ymm = 32 or zmm = 64

	movsxd	rax, DWORD PTR n$[rsp]
	mov	rcx, QWORD PTR info$[rsp]
	movzx	eax, BYTE PTR [rcx+rax+62]
	mov	BYTE PTR xsize$[rsp], al

; 2747 :                 m += xreg;

	movzx	eax, BYTE PTR xreg$[rsp]
	mov	ecx, DWORD PTR m$[rsp]
	add	ecx, eax
	mov	eax, ecx
	mov	DWORD PTR m$[rsp], eax

; 2748 :                 if (m > 6) break;              // max 6 AVX registers

	cmp	DWORD PTR m$[rsp], 6
	jle	SHORT $LN117@write_win6
	jmp	$LN21@write_win6
$LN117@write_win6:

; 2749 :                 if (xreg == 1 && info->vecregsize[n] < 16)

	movzx	eax, BYTE PTR xreg$[rsp]
	cmp	eax, 1
	jne	SHORT $LN118@write_win6
	movsxd	rax, DWORD PTR n$[rsp]
	mov	rcx, QWORD PTR info$[rsp]
	movzx	eax, BYTE PTR [rcx+rax+62]
	cmp	eax, 16
	jge	SHORT $LN118@write_win6

; 2750 :                   continue;                    //REAL4, FLOAT and REAL8 are stored in homespace

	jmp	$LN20@write_win6
	jmp	$LN119@write_win6
$LN118@write_win6:

; 2751 :                 else if (xreg){

	movzx	eax, BYTE PTR xreg$[rsp]
	test	eax, eax
	je	$LN120@write_win6

; 2752 :                   switch (xsize){

	movzx	eax, BYTE PTR xsize$[rsp]
	mov	BYTE PTR tv679[rsp], al
	cmp	BYTE PTR tv679[rsp], 4
	je	SHORT $LN121@write_win6
	cmp	BYTE PTR tv679[rsp], 8
	je	$LN122@write_win6
	cmp	BYTE PTR tv679[rsp], 16
	je	$LN124@write_win6
	cmp	BYTE PTR tv679[rsp], 32			; 00000020H
	je	$LN127@write_win6
	jmp	$LN23@write_win6
$LN121@write_win6:

; 2753 :                     case 4:
; 2754 :                       //if (xreg == 2){
; 2755 :                       //  /* this can only happen if there is 2 real4 */
; 2756 :                       //  AddLineQueueX("vmovsd qword ptr [rsp+%d],%r", vsize + vectstart, T_XMM0 + n);
; 2757 :                       //  vsize += 8;
; 2758 :                       //  }
; 2759 :                       //else{
; 2760 :                         for (i = 0, j = 0; i < xreg; i++){

	mov	DWORD PTR i$[rsp], 0
	mov	DWORD PTR j$[rsp], 0
	jmp	SHORT $LN27@write_win6
$LN25@write_win6:
	mov	eax, DWORD PTR i$[rsp]
	inc	eax
	mov	DWORD PTR i$[rsp], eax
$LN27@write_win6:
	movzx	eax, BYTE PTR xreg$[rsp]
	cmp	DWORD PTR i$[rsp], eax
	jge	SHORT $LN26@write_win6
$LN28@write_win6:

; 2761 :                           while (xyused[j] != 0) j++;

	movsxd	rax, DWORD PTR j$[rsp]
	movzx	eax, BYTE PTR xyused$[rsp+rax]
	test	eax, eax
	je	SHORT $LN29@write_win6
	mov	eax, DWORD PTR j$[rsp]
	inc	eax
	mov	DWORD PTR j$[rsp], eax
	jmp	SHORT $LN28@write_win6
$LN29@write_win6:

; 2762 :                           AddLineQueueX("vmovss dword ptr [rsp+%d],%r", vsize + vectstart, T_XMM0 + j);

	mov	eax, DWORD PTR j$[rsp]
	add	eax, 40					; 00000028H
	mov	ecx, DWORD PTR vectstart$[rsp]
	mov	edx, DWORD PTR vsize$[rsp]
	add	edx, ecx
	mov	ecx, edx
	mov	r8d, eax
	mov	edx, ecx
	lea	rcx, OFFSET FLAT:$SG12524
	call	AddLineQueueX

; 2763 :                           xyused[j] = 1;

	movsxd	rax, DWORD PTR j$[rsp]
	mov	BYTE PTR xyused$[rsp+rax], 1

; 2764 :                           vsize += 4;

	mov	eax, DWORD PTR vsize$[rsp]
	add	eax, 4
	mov	DWORD PTR vsize$[rsp], eax

; 2765 :                           }

	jmp	SHORT $LN25@write_win6
$LN26@write_win6:

; 2766 :                         //}
; 2767 :                       break;

	jmp	$LN23@write_win6
$LN122@write_win6:

; 2768 :                     case 8:
; 2769 :                       if (xreg <= 3){

	movzx	eax, BYTE PTR xreg$[rsp]
	cmp	eax, 3
	jg	$LN123@write_win6

; 2770 :                         for (i = 0, j = 0; i < xreg; i++){

	mov	DWORD PTR i$[rsp], 0
	mov	DWORD PTR j$[rsp], 0
	jmp	SHORT $LN32@write_win6
$LN30@write_win6:
	mov	eax, DWORD PTR i$[rsp]
	inc	eax
	mov	DWORD PTR i$[rsp], eax
$LN32@write_win6:
	movzx	eax, BYTE PTR xreg$[rsp]
	cmp	DWORD PTR i$[rsp], eax
	jge	SHORT $LN31@write_win6
$LN33@write_win6:

; 2771 :                           while (xyused[j] != 0) j++;

	movsxd	rax, DWORD PTR j$[rsp]
	movzx	eax, BYTE PTR xyused$[rsp+rax]
	test	eax, eax
	je	SHORT $LN34@write_win6
	mov	eax, DWORD PTR j$[rsp]
	inc	eax
	mov	DWORD PTR j$[rsp], eax
	jmp	SHORT $LN33@write_win6
$LN34@write_win6:

; 2772 :                           AddLineQueueX("vmovsd qword ptr [rsp+%d],%r", vsize + vectstart, T_XMM0 + j);

	mov	eax, DWORD PTR j$[rsp]
	add	eax, 40					; 00000028H
	mov	ecx, DWORD PTR vectstart$[rsp]
	mov	edx, DWORD PTR vsize$[rsp]
	add	edx, ecx
	mov	ecx, edx
	mov	r8d, eax
	mov	edx, ecx
	lea	rcx, OFFSET FLAT:$SG12527
	call	AddLineQueueX

; 2773 :                           xyused[j] = 1;

	movsxd	rax, DWORD PTR j$[rsp]
	mov	BYTE PTR xyused$[rsp+rax], 1

; 2774 :                           vsize += 8;

	mov	eax, DWORD PTR vsize$[rsp]
	add	eax, 8
	mov	DWORD PTR vsize$[rsp], eax

; 2775 :                           }

	jmp	SHORT $LN30@write_win6
$LN31@write_win6:
$LN123@write_win6:

; 2776 :                         }
; 2777 :                       /* this can only happen if there is 8 real8 */
; 2778 : #if EVEXSUPP
; 2779 :                       else {
; 2780 :                         AddLineQueueX("vmovups ymmword ptr [rsp+%d],%r",vsize + vectstart , T_YMM0 + n);
; 2781 :                         vsize += 64;
; 2782 :                         xyused[n] = 1;
; 2783 :                     }
; 2784 : #endif
; 2785 :                     break;

	jmp	$LN23@write_win6
$LN124@write_win6:

; 2786 :                   case 16:
; 2787 :                     if (xreg == 1){

	movzx	eax, BYTE PTR xreg$[rsp]
	cmp	eax, 1
	jne	SHORT $LN125@write_win6

; 2788 :                         AddLineQueueX("vmovups oword ptr [rsp+%d],%r",vsize + vectstart , T_XMM0 + n);

	mov	eax, DWORD PTR n$[rsp]
	add	eax, 40					; 00000028H
	mov	ecx, DWORD PTR vectstart$[rsp]
	mov	edx, DWORD PTR vsize$[rsp]
	add	edx, ecx
	mov	ecx, edx
	mov	r8d, eax
	mov	edx, ecx
	lea	rcx, OFFSET FLAT:$SG12531
	call	AddLineQueueX

; 2789 :                       xyused[n] = 1;

	movsxd	rax, DWORD PTR n$[rsp]
	mov	BYTE PTR xyused$[rsp+rax], 1

; 2790 :                       vsize += 16;

	mov	eax, DWORD PTR vsize$[rsp]
	add	eax, 16
	mov	DWORD PTR vsize$[rsp], eax

; 2791 :                     }

	jmp	$LN126@write_win6
$LN125@write_win6:

; 2792 :                     else{
; 2793 :                       for (i = 0, j = 0; i < xreg; i++){

	mov	DWORD PTR i$[rsp], 0
	mov	DWORD PTR j$[rsp], 0
	jmp	SHORT $LN37@write_win6
$LN35@write_win6:
	mov	eax, DWORD PTR i$[rsp]
	inc	eax
	mov	DWORD PTR i$[rsp], eax
$LN37@write_win6:
	movzx	eax, BYTE PTR xreg$[rsp]
	cmp	DWORD PTR i$[rsp], eax
	jge	SHORT $LN36@write_win6
$LN38@write_win6:

; 2794 :                         while (xyused[j] != 0) j++;

	movsxd	rax, DWORD PTR j$[rsp]
	movzx	eax, BYTE PTR xyused$[rsp+rax]
	test	eax, eax
	je	SHORT $LN39@write_win6
	mov	eax, DWORD PTR j$[rsp]
	inc	eax
	mov	DWORD PTR j$[rsp], eax
	jmp	SHORT $LN38@write_win6
$LN39@write_win6:

; 2795 :                           AddLineQueueX("vmovups oword ptr [rsp+%d],%r",vsize + vectstart , T_XMM0 + j);

	mov	eax, DWORD PTR j$[rsp]
	add	eax, 40					; 00000028H
	mov	ecx, DWORD PTR vectstart$[rsp]
	mov	edx, DWORD PTR vsize$[rsp]
	add	edx, ecx
	mov	ecx, edx
	mov	r8d, eax
	mov	edx, ecx
	lea	rcx, OFFSET FLAT:$SG12532
	call	AddLineQueueX

; 2796 :                         xyused[j] = 1;

	movsxd	rax, DWORD PTR j$[rsp]
	mov	BYTE PTR xyused$[rsp+rax], 1

; 2797 :                         vsize += 16;

	mov	eax, DWORD PTR vsize$[rsp]
	add	eax, 16
	mov	DWORD PTR vsize$[rsp], eax

; 2798 :                       }

	jmp	SHORT $LN35@write_win6
$LN36@write_win6:
$LN126@write_win6:

; 2799 :                     }
; 2800 :                     break;

	jmp	$LN23@write_win6
$LN127@write_win6:

; 2801 :                   case 32:
; 2802 :                     if (xreg == 1){

	movzx	eax, BYTE PTR xreg$[rsp]
	cmp	eax, 1
	jne	SHORT $LN128@write_win6

; 2803 :                         AddLineQueueX("vmovups ymmword ptr [rsp+%d],%r",vsize + vectstart  , T_YMM0 + n);

	mov	eax, DWORD PTR n$[rsp]
	add	eax, 56					; 00000038H
	mov	ecx, DWORD PTR vectstart$[rsp]
	mov	edx, DWORD PTR vsize$[rsp]
	add	edx, ecx
	mov	ecx, edx
	mov	r8d, eax
	mov	edx, ecx
	lea	rcx, OFFSET FLAT:$SG12536
	call	AddLineQueueX

; 2804 :                       xyused[n] = 1;

	movsxd	rax, DWORD PTR n$[rsp]
	mov	BYTE PTR xyused$[rsp+rax], 1

; 2805 :                       vsize += 32;

	mov	eax, DWORD PTR vsize$[rsp]
	add	eax, 32					; 00000020H
	mov	DWORD PTR vsize$[rsp], eax

; 2806 :                     }

	jmp	$LN129@write_win6
$LN128@write_win6:

; 2807 :                     else{
; 2808 :                       for (i = 0, j = 0; i < xreg; i++){

	mov	DWORD PTR i$[rsp], 0
	mov	DWORD PTR j$[rsp], 0
	jmp	SHORT $LN42@write_win6
$LN40@write_win6:
	mov	eax, DWORD PTR i$[rsp]
	inc	eax
	mov	DWORD PTR i$[rsp], eax
$LN42@write_win6:
	movzx	eax, BYTE PTR xreg$[rsp]
	cmp	DWORD PTR i$[rsp], eax
	jge	SHORT $LN41@write_win6
$LN43@write_win6:

; 2809 :                         while (xyused[j] != 0) j++;

	movsxd	rax, DWORD PTR j$[rsp]
	movzx	eax, BYTE PTR xyused$[rsp+rax]
	test	eax, eax
	je	SHORT $LN44@write_win6
	mov	eax, DWORD PTR j$[rsp]
	inc	eax
	mov	DWORD PTR j$[rsp], eax
	jmp	SHORT $LN43@write_win6
$LN44@write_win6:

; 2810 :                           AddLineQueueX("vmovups ymmword ptr [rsp+%d],%r",vsize + vectstart , T_YMM0 + j);

	mov	eax, DWORD PTR j$[rsp]
	add	eax, 56					; 00000038H
	mov	ecx, DWORD PTR vectstart$[rsp]
	mov	edx, DWORD PTR vsize$[rsp]
	add	edx, ecx
	mov	ecx, edx
	mov	r8d, eax
	mov	edx, ecx
	lea	rcx, OFFSET FLAT:$SG12537
	call	AddLineQueueX

; 2811 :                         xyused[j] = 1;

	movsxd	rax, DWORD PTR j$[rsp]
	mov	BYTE PTR xyused$[rsp+rax], 1

; 2812 :                         vsize += 32;

	mov	eax, DWORD PTR vsize$[rsp]
	add	eax, 32					; 00000020H
	mov	DWORD PTR vsize$[rsp], eax

; 2813 :                       }

	jmp	SHORT $LN40@write_win6
$LN41@write_win6:
$LN129@write_win6:
$LN23@write_win6:
$LN120@write_win6:
$LN119@write_win6:

; 2814 :                     }
; 2815 :                     break;
; 2816 : #if EVEXSUPP 
; 2817 :                   case 64: 
; 2818 :                     if (xreg == 1){
; 2819 :                         AddLineQueueX("vmovups zmmword ptr [rsp+%d],%r",vsize + vectstart + xsize, T_ZMM0 + n);
; 2820 :                       xyused[n] = 1;
; 2821 :                       vsize += 64;
; 2822 :                     }
; 2823 :                     else{
; 2824 :                       for (i=0,j=0; i < xreg; i++){
; 2825 :                         while (xyused[j] != 0) j++;
; 2826 :                           AddLineQueueX("vmovups zmmword ptr [rsp+%d],%r", vsize + vectstart + xsize, T_ZMM0 + j);
; 2827 :                         xyused[j] = 1;
; 2828 :                         vsize += 64;
; 2829 :                       }
; 2830 :                     }
; 2831 :                     break;
; 2832 : #endif
; 2833 :                   }
; 2834 :                 }
; 2835 :               }

	jmp	$LN20@write_win6
$LN21@write_win6:
$LN101@write_win6:
$LN100@write_win6:
$LN99@write_win6:
$LN73@write_win6:

; 2836 :             }
; 2837 :           }
; 2838 :         }
; 2839 :     }
; 2840 :     AddLineQueueX( "%r", T_DOT_ENDPROLOG );

	mov	edx, 415				; 0000019fH
	lea	rcx, OFFSET FLAT:$SG12538
	call	AddLineQueueX
$LN130@write_win6:

; 2841 : 
; 2842 :     /* v2.11: linequeue is now run in write_default_prologue() */
; 2843 :     return;
; 2844 : }

	mov	rcx, QWORD PTR __$ArrayPad$[rsp]
	xor	rcx, rsp
	call	__security_check_cookie
	add	rsp, 216				; 000000d8H
	ret	0
write_win64_default_prologue ENDP
_TEXT	ENDS
; Function compile flags: /Odtp
; File d:\hjwasm\hjwasm2.13.1s\hjwasm2.13.1s\proc.c
_TEXT	SEGMENT
i$ = 32
freeshadow$ = 36
cnt$ = 40
grcount$ = 44
sizestd$ = 48
regist$ = 56
info$ = 80
win64_StoreRegHome PROC

; 2365 : {

	mov	QWORD PTR [rsp+8], rcx
	sub	rsp, 72					; 00000048H

; 2366 :   int			       i = 0;

	mov	DWORD PTR i$[rsp], 0

; 2367 :   int			       cnt;
; 2368 :   int            grcount = 0;

	mov	DWORD PTR grcount$[rsp], 0

; 2369 :   int			       sizestd = 0;

	mov	DWORD PTR sizestd$[rsp], 0

; 2370 :   int            freeshadow = 4;

	mov	DWORD PTR freeshadow$[rsp], 4

; 2371 :   uint_16        *regist;
; 2372 :   info->stored_reg = 0;

	mov	rax, QWORD PTR info$[rsp]
	mov	DWORD PTR [rax+100], 0

; 2373 :   if (info->regslist) {

	mov	rax, QWORD PTR info$[rsp]
	cmp	QWORD PTR [rax], 0
	je	$LN26@win64_Stor

; 2374 :     for (regist = info->regslist, cnt = *regist++; cnt; cnt--, regist++, i++) {

	mov	rax, QWORD PTR info$[rsp]
	mov	rax, QWORD PTR [rax]
	mov	QWORD PTR regist$[rsp], rax
	mov	rax, QWORD PTR regist$[rsp]
	movzx	eax, WORD PTR [rax]
	mov	DWORD PTR cnt$[rsp], eax
	mov	rax, QWORD PTR regist$[rsp]
	add	rax, 2
	mov	QWORD PTR regist$[rsp], rax
	jmp	SHORT $LN4@win64_Stor
$LN2@win64_Stor:
	mov	eax, DWORD PTR cnt$[rsp]
	dec	eax
	mov	DWORD PTR cnt$[rsp], eax
	mov	rax, QWORD PTR regist$[rsp]
	add	rax, 2
	mov	QWORD PTR regist$[rsp], rax
	mov	eax, DWORD PTR i$[rsp]
	inc	eax
	mov	DWORD PTR i$[rsp], eax
$LN4@win64_Stor:
	cmp	DWORD PTR cnt$[rsp], 0
	je	SHORT $LN3@win64_Stor

; 2375 :       if ((GetValueSp(*regist) & OP_YMM)||(GetValueSp(*regist) & OP_XMM)

	mov	rax, QWORD PTR regist$[rsp]
	movzx	eax, WORD PTR [rax]
	imul	rax, rax, 12
	lea	rcx, OFFSET FLAT:SpecialTable
	mov	eax, DWORD PTR [rcx+rax]
	and	eax, 128				; 00000080H
	test	eax, eax
	jne	SHORT $LN29@win64_Stor
	mov	rax, QWORD PTR regist$[rsp]
	movzx	eax, WORD PTR [rax]
	imul	rax, rax, 12
	lea	rcx, OFFSET FLAT:SpecialTable
	mov	eax, DWORD PTR [rcx+rax]
	and	eax, 32					; 00000020H
	test	eax, eax
	je	SHORT $LN27@win64_Stor
$LN29@win64_Stor:

; 2376 : #if EVEXSUPP    
; 2377 :                   || ( GetValueSp( *regist ) & OP_ZMM )
; 2378 : #endif
; 2379 :         )continue;

	jmp	SHORT $LN2@win64_Stor
	jmp	SHORT $LN28@win64_Stor
$LN27@win64_Stor:

; 2380 :       else ++grcount;                                       //find how many general registers to save

	mov	eax, DWORD PTR grcount$[rsp]
	inc	eax
	mov	DWORD PTR grcount$[rsp], eax
$LN28@win64_Stor:

; 2381 :     }

	jmp	SHORT $LN2@win64_Stor
$LN3@win64_Stor:

; 2382 :     //for (i = 0, freeshadow = 0; i<4; i++){                  
; 2383 :     //  if (info->home_used[i] == 0) ++freeshadow;
; 2384 :     //}
; 2385 :     freeshadow -= info->home_taken;                         //find out how many free shadows

	mov	rax, QWORD PTR info$[rsp]
	mov	eax, DWORD PTR [rax+108]
	mov	ecx, DWORD PTR freeshadow$[rsp]
	sub	ecx, eax
	mov	eax, ecx
	mov	DWORD PTR freeshadow$[rsp], eax

; 2386 :     if (freeshadow){                                        //skip if all shadow spaces are taken  

	cmp	DWORD PTR freeshadow$[rsp], 0
	je	$LN30@win64_Stor

; 2387 :       if (grcount == 1) memset(info->home_used, 1, 4);      //1 register only? don't store it, push it to prevent 'sub rsp,...8'

	cmp	DWORD PTR grcount$[rsp], 1
	jne	SHORT $LN31@win64_Stor
	mov	rax, QWORD PTR info$[rsp]
	add	rax, 116				; 00000074H
	mov	r8d, 4
	mov	edx, 1
	mov	rcx, rax
	call	memset
	jmp	$LN32@win64_Stor
$LN31@win64_Stor:

; 2388 :       else if (grcount == 2 && freeshadow >= 2){            //store only one egister, another push to prevent 'sub rsp,...8'

	cmp	DWORD PTR grcount$[rsp], 2
	jne	SHORT $LN33@win64_Stor
	cmp	DWORD PTR freeshadow$[rsp], 2
	jl	SHORT $LN33@win64_Stor

; 2389 :         for (i = 0; i<4; i++){

	mov	DWORD PTR i$[rsp], 0
	jmp	SHORT $LN7@win64_Stor
$LN5@win64_Stor:
	mov	eax, DWORD PTR i$[rsp]
	inc	eax
	mov	DWORD PTR i$[rsp], eax
$LN7@win64_Stor:
	cmp	DWORD PTR i$[rsp], 4
	jge	SHORT $LN6@win64_Stor

; 2390 :           if (info->home_used[i] == 0) break;               //we need only one space   

	movsxd	rax, DWORD PTR i$[rsp]
	mov	rcx, QWORD PTR info$[rsp]
	movsx	eax, BYTE PTR [rcx+rax+116]
	test	eax, eax
	jne	SHORT $LN35@win64_Stor
	jmp	SHORT $LN6@win64_Stor
$LN35@win64_Stor:

; 2391 :         }

	jmp	SHORT $LN5@win64_Stor
$LN6@win64_Stor:

; 2392 :         for (++i; i<4; i++)                                 //the rest of free spaces render as taken

	mov	eax, DWORD PTR i$[rsp]
	inc	eax
	mov	DWORD PTR i$[rsp], eax
	jmp	SHORT $LN10@win64_Stor
$LN8@win64_Stor:
	mov	eax, DWORD PTR i$[rsp]
	inc	eax
	mov	DWORD PTR i$[rsp], eax
$LN10@win64_Stor:
	cmp	DWORD PTR i$[rsp], 4
	jge	SHORT $LN9@win64_Stor

; 2393 :           info->home_used[i] = 1;

	movsxd	rax, DWORD PTR i$[rsp]
	mov	rcx, QWORD PTR info$[rsp]
	mov	BYTE PTR [rcx+rax+116], 1
	jmp	SHORT $LN8@win64_Stor
$LN9@win64_Stor:

; 2394 :       }

	jmp	$LN34@win64_Stor
$LN33@win64_Stor:

; 2395 :       else if (grcount == 3){                               //3 registers?

	cmp	DWORD PTR grcount$[rsp], 3
	jne	$LN36@win64_Stor

; 2396 :         if (freeshadow == 1) memset(info->home_used, 1, 4); //if only 1 free shadow, don't store it, push them

	cmp	DWORD PTR freeshadow$[rsp], 1
	jne	SHORT $LN38@win64_Stor
	mov	rax, QWORD PTR info$[rsp]
	add	rax, 116				; 00000074H
	mov	r8d, 4
	mov	edx, 1
	mov	rcx, rax
	call	memset
$LN38@win64_Stor:

; 2397 :         if (freeshadow >= 3){                               //enen if there is enough space we will store only two

	cmp	DWORD PTR freeshadow$[rsp], 3
	jl	$LN39@win64_Stor

; 2398 :           for (i = 0; i<4; i++){                            //the third one we will push to keep uneven stack 

	mov	DWORD PTR i$[rsp], 0
	jmp	SHORT $LN13@win64_Stor
$LN11@win64_Stor:
	mov	eax, DWORD PTR i$[rsp]
	inc	eax
	mov	DWORD PTR i$[rsp], eax
$LN13@win64_Stor:
	cmp	DWORD PTR i$[rsp], 4
	jge	SHORT $LN12@win64_Stor

; 2399 :             if (info->home_used[i] == 0) break;             //found first availible

	movsxd	rax, DWORD PTR i$[rsp]
	mov	rcx, QWORD PTR info$[rsp]
	movsx	eax, BYTE PTR [rcx+rax+116]
	test	eax, eax
	jne	SHORT $LN40@win64_Stor
	jmp	SHORT $LN12@win64_Stor
$LN40@win64_Stor:

; 2400 :           }

	jmp	SHORT $LN11@win64_Stor
$LN12@win64_Stor:

; 2401 :           for (++i; i<4; i++){

	mov	eax, DWORD PTR i$[rsp]
	inc	eax
	mov	DWORD PTR i$[rsp], eax
	jmp	SHORT $LN16@win64_Stor
$LN14@win64_Stor:
	mov	eax, DWORD PTR i$[rsp]
	inc	eax
	mov	DWORD PTR i$[rsp], eax
$LN16@win64_Stor:
	cmp	DWORD PTR i$[rsp], 4
	jge	SHORT $LN15@win64_Stor

; 2402 :             if (info->home_used[i] == 0) break;            //found second availible

	movsxd	rax, DWORD PTR i$[rsp]
	mov	rcx, QWORD PTR info$[rsp]
	movsx	eax, BYTE PTR [rcx+rax+116]
	test	eax, eax
	jne	SHORT $LN41@win64_Stor
	jmp	SHORT $LN15@win64_Stor
$LN41@win64_Stor:

; 2403 :           }

	jmp	SHORT $LN14@win64_Stor
$LN15@win64_Stor:

; 2404 :           for (++i; i<4; i++)

	mov	eax, DWORD PTR i$[rsp]
	inc	eax
	mov	DWORD PTR i$[rsp], eax
	jmp	SHORT $LN19@win64_Stor
$LN17@win64_Stor:
	mov	eax, DWORD PTR i$[rsp]
	inc	eax
	mov	DWORD PTR i$[rsp], eax
$LN19@win64_Stor:
	cmp	DWORD PTR i$[rsp], 4
	jge	SHORT $LN18@win64_Stor

; 2405 :             info->home_used[i] = 1;                        //render the rest of the shadow spaces as taken

	movsxd	rax, DWORD PTR i$[rsp]
	mov	rcx, QWORD PTR info$[rsp]
	mov	BYTE PTR [rcx+rax+116], 1
	jmp	SHORT $LN17@win64_Stor
$LN18@win64_Stor:
$LN39@win64_Stor:

; 2406 :         }
; 2407 :       }

	jmp	$LN37@win64_Stor
$LN36@win64_Stor:

; 2408 :       else if (grcount == 4 && freeshadow == 4){          //easy case

	cmp	DWORD PTR grcount$[rsp], 4
	jne	SHORT $LN42@win64_Stor
	cmp	DWORD PTR freeshadow$[rsp], 4
	jne	SHORT $LN42@win64_Stor

; 2409 :         info->home_used[3] = 1;                           //render the last shadow spaces as taken

	mov	eax, 1
	imul	rax, rax, 3
	mov	rcx, QWORD PTR info$[rsp]
	mov	BYTE PTR [rcx+rax+116], 1

; 2410 :       }                                                   //remember the first space is 0 than 1, 2 and 3 follow 

	jmp	SHORT $LN43@win64_Stor
$LN42@win64_Stor:

; 2411 :       else if (grcount > 4){                              //if more registars than spaces

	cmp	DWORD PTR grcount$[rsp], 4
	jle	SHORT $LN44@win64_Stor

; 2412 :         freeshadow = grcount - freeshadow;                //find out how many we can store

	mov	eax, DWORD PTR freeshadow$[rsp]
	mov	ecx, DWORD PTR grcount$[rsp]
	sub	ecx, eax
	mov	eax, ecx
	mov	DWORD PTR freeshadow$[rsp], eax

; 2413 :         if (!(freeshadow & 1)){                           //if it is even number

	mov	eax, DWORD PTR freeshadow$[rsp]
	and	eax, 1
	test	eax, eax
	jne	SHORT $LN45@win64_Stor

; 2414 :           for (i = 0; i<4; i++){                          //than we have to disable one space

	mov	DWORD PTR i$[rsp], 0
	jmp	SHORT $LN22@win64_Stor
$LN20@win64_Stor:
	mov	eax, DWORD PTR i$[rsp]
	inc	eax
	mov	DWORD PTR i$[rsp], eax
$LN22@win64_Stor:
	cmp	DWORD PTR i$[rsp], 4
	jge	SHORT $LN21@win64_Stor

; 2415 :             if (info->home_used[i] == 0) break;           //find the first free space 

	movsxd	rax, DWORD PTR i$[rsp]
	mov	rcx, QWORD PTR info$[rsp]
	movsx	eax, BYTE PTR [rcx+rax+116]
	test	eax, eax
	jne	SHORT $LN46@win64_Stor
	jmp	SHORT $LN21@win64_Stor
$LN46@win64_Stor:

; 2416 :           }

	jmp	SHORT $LN20@win64_Stor
$LN21@win64_Stor:

; 2417 :           info->home_used[i] = 1;                         //and render it as taken

	movsxd	rax, DWORD PTR i$[rsp]
	mov	rcx, QWORD PTR info$[rsp]
	mov	BYTE PTR [rcx+rax+116], 1
$LN45@win64_Stor:
$LN44@win64_Stor:
$LN43@win64_Stor:
$LN37@win64_Stor:
$LN34@win64_Stor:
$LN32@win64_Stor:
$LN30@win64_Stor:

; 2418 :         }
; 2419 :       }
; 2420 :     }
; 2421 :     for (i = 0, regist = info->regslist, cnt = *regist++; cnt; cnt--, regist++, i++) {

	mov	DWORD PTR i$[rsp], 0
	mov	rax, QWORD PTR info$[rsp]
	mov	rax, QWORD PTR [rax]
	mov	QWORD PTR regist$[rsp], rax
	mov	rax, QWORD PTR regist$[rsp]
	movzx	eax, WORD PTR [rax]
	mov	DWORD PTR cnt$[rsp], eax
	mov	rax, QWORD PTR regist$[rsp]
	add	rax, 2
	mov	QWORD PTR regist$[rsp], rax
	jmp	SHORT $LN25@win64_Stor
$LN23@win64_Stor:
	mov	eax, DWORD PTR cnt$[rsp]
	dec	eax
	mov	DWORD PTR cnt$[rsp], eax
	mov	rax, QWORD PTR regist$[rsp]
	add	rax, 2
	mov	QWORD PTR regist$[rsp], rax
	mov	eax, DWORD PTR i$[rsp]
	inc	eax
	mov	DWORD PTR i$[rsp], eax
$LN25@win64_Stor:
	cmp	DWORD PTR cnt$[rsp], 0
	je	$LN24@win64_Stor

; 2422 :       if ((GetValueSp(*regist) & OP_YMM)||(GetValueSp(*regist) & OP_XMM)

	mov	rax, QWORD PTR regist$[rsp]
	movzx	eax, WORD PTR [rax]
	imul	rax, rax, 12
	lea	rcx, OFFSET FLAT:SpecialTable
	mov	eax, DWORD PTR [rcx+rax]
	and	eax, 128				; 00000080H
	test	eax, eax
	jne	SHORT $LN49@win64_Stor
	mov	rax, QWORD PTR regist$[rsp]
	movzx	eax, WORD PTR [rax]
	imul	rax, rax, 12
	lea	rcx, OFFSET FLAT:SpecialTable
	mov	eax, DWORD PTR [rcx+rax]
	and	eax, 32					; 00000020H
	test	eax, eax
	je	SHORT $LN47@win64_Stor
$LN49@win64_Stor:

; 2423 : #if EVEXSUPP    
; 2424 :                   || ( GetValueSp( *regist ) & OP_ZMM )
; 2425 : #endif
; 2426 :         )continue;

	jmp	SHORT $LN23@win64_Stor
	jmp	$LN48@win64_Stor
$LN47@win64_Stor:

; 2427 :       else {
; 2428 :         sizestd += 8;

	mov	eax, DWORD PTR sizestd$[rsp]
	add	eax, 8
	mov	DWORD PTR sizestd$[rsp], eax

; 2429 :         if (i < 4)

	cmp	DWORD PTR i$[rsp], 4
	jge	$LN50@win64_Stor

; 2430 :         {
; 2431 :           if (info->home_used[i] == 0){

	movsxd	rax, DWORD PTR i$[rsp]
	mov	rcx, QWORD PTR info$[rsp]
	movsx	eax, BYTE PTR [rcx+rax+116]
	test	eax, eax
	jne	SHORT $LN51@win64_Stor

; 2432 :             AddLineQueueX("mov [%r+%u], %r", T_RSP, NUMQUAL sizestd, *regist);

	mov	rax, QWORD PTR regist$[rsp]
	movzx	eax, WORD PTR [rax]
	mov	r9d, eax
	mov	r8d, DWORD PTR sizestd$[rsp]
	mov	edx, 119				; 00000077H
	lea	rcx, OFFSET FLAT:$SG12338
	call	AddLineQueueX

; 2433 :             AddLineQueueX("%r %r, %u", T_DOT_SAVEREG, *regist, NUMQUAL sizestd);

	mov	rax, QWORD PTR regist$[rsp]
	movzx	eax, WORD PTR [rax]
	mov	r9d, DWORD PTR sizestd$[rsp]
	mov	r8d, eax
	mov	edx, 418				; 000001a2H
	lea	rcx, OFFSET FLAT:$SG12339
	call	AddLineQueueX

; 2434 :             info->stored_reg++;

	mov	rax, QWORD PTR info$[rsp]
	mov	eax, DWORD PTR [rax+100]
	inc	eax
	mov	rcx, QWORD PTR info$[rsp]
	mov	DWORD PTR [rcx+100], eax

; 2435 :           }

	jmp	SHORT $LN52@win64_Stor
$LN51@win64_Stor:

; 2436 :           else {
; 2437 :             cnt++; regist--;

	mov	eax, DWORD PTR cnt$[rsp]
	inc	eax
	mov	DWORD PTR cnt$[rsp], eax
	mov	rax, QWORD PTR regist$[rsp]
	sub	rax, 2
	mov	QWORD PTR regist$[rsp], rax
$LN52@win64_Stor:
$LN50@win64_Stor:
$LN48@win64_Stor:

; 2438 :           }
; 2439 :         }
; 2440 :       }
; 2441 :     }/* end for */

	jmp	$LN23@win64_Stor
$LN24@win64_Stor:
$LN26@win64_Stor:

; 2442 :   }
; 2443 :   return;
; 2444 : }

	add	rsp, 72					; 00000048H
	ret	0
win64_StoreRegHome ENDP
_TEXT	ENDS
; Function compile flags: /Odtp
; File d:\hjwasm\hjwasm2.13.1s\hjwasm2.13.1s\proc.c
_TEXT	SEGMENT
i$ = 32
param$ = 40
regist$1 = 48
info$ = 80
win64_SaveRegParams PROC

; 2269 : {

	mov	QWORD PTR [rsp+8], rcx
	sub	rsp, 72					; 00000048H

; 2270 : 	int i;
; 2271 : 	struct dsym *param;
; 2272 : 	if (ModuleInfo.win64_flags & W64F_HABRAN) {

	movzx	eax, BYTE PTR ModuleInfo+413
	and	eax, 11
	test	eax, eax
	je	$LN11@win64_Save

; 2273 : 		int			   cnt;
; 2274 : 		uint_16        *regist;
; 2275 : 		info->home_taken = 0;

	mov	rax, QWORD PTR info$[rsp]
	mov	DWORD PTR [rax+108], 0

; 2276 : 		memset(info->home_used, 0, 6);

	mov	rax, QWORD PTR info$[rsp]
	add	rax, 116				; 00000074H
	mov	r8d, 6
	xor	edx, edx
	mov	rcx, rax
	call	memset

; 2277 : 		if (info->regslist)

	mov	rax, QWORD PTR info$[rsp]
	cmp	QWORD PTR [rax], 0
	je	SHORT $LN13@win64_Save

; 2278 : 			regist = info->regslist;

	mov	rax, QWORD PTR info$[rsp]
	mov	rax, QWORD PTR [rax]
	mov	QWORD PTR regist$1[rsp], rax
$LN13@win64_Save:

; 2279 : 		if (CurrProc->sym.langtype == LANG_VECTORCALL) {

	mov	rax, QWORD PTR CurrProc
	cmp	DWORD PTR [rax+76], 8
	jne	$LN14@win64_Save

; 2280 : 			for (i = 0, param = info->paralist; param && (i < 6); i++) {

	mov	DWORD PTR i$[rsp], 0
	mov	rax, QWORD PTR info$[rsp]
	mov	rax, QWORD PTR [rax+8]
	mov	QWORD PTR param$[rsp], rax
	jmp	SHORT $LN4@win64_Save
$LN2@win64_Save:
	mov	eax, DWORD PTR i$[rsp]
	inc	eax
	mov	DWORD PTR i$[rsp], eax
$LN4@win64_Save:
	cmp	QWORD PTR param$[rsp], 0
	je	$LN3@win64_Save
	cmp	DWORD PTR i$[rsp], 6
	jge	$LN3@win64_Save

; 2281 : 				/* v2.05: save XMMx if type is float/double */
; 2282 : 				if (param->sym.is_vararg == FALSE) {

	mov	rax, QWORD PTR param$[rsp]
	movzx	eax, BYTE PTR [rax+47]
	shr	al, 5
	and	al, 1
	movzx	eax, al
	test	eax, eax
	jne	$LN16@win64_Save

; 2283 : 					if ((param->sym.mem_type & MT_FLOAT) && param->sym.used) {  // added  && param->sym.used

	mov	rax, QWORD PTR param$[rsp]
	mov	eax, DWORD PTR [rax+36]
	and	eax, 32					; 00000020H
	test	eax, eax
	je	$LN18@win64_Save
	mov	rax, QWORD PTR param$[rsp]
	movzx	eax, BYTE PTR [rax+40]
	and	al, 1
	movzx	eax, al
	test	eax, eax
	je	$LN18@win64_Save

; 2284 : 						if (param->sym.mem_type == MT_REAL8)

	mov	rax, QWORD PTR param$[rsp]
	cmp	DWORD PTR [rax+36], 39			; 00000027H
	jne	SHORT $LN20@win64_Save

; 2285 : 							AddLineQueueX("movsd qword ptr[%r+%u], %r", T_RSP, 8 + i * 8, T_XMM0 + i);

	mov	eax, DWORD PTR i$[rsp]
	add	eax, 40					; 00000028H
	mov	ecx, DWORD PTR i$[rsp]
	lea	ecx, DWORD PTR [rcx*8+8]
	mov	r9d, eax
	mov	r8d, ecx
	mov	edx, 119				; 00000077H
	lea	rcx, OFFSET FLAT:$SG12253
	call	AddLineQueueX
	jmp	SHORT $LN21@win64_Save
$LN20@win64_Save:

; 2286 : 						else if (param->sym.mem_type == MT_REAL4)

	mov	rax, QWORD PTR param$[rsp]
	cmp	DWORD PTR [rax+36], 35			; 00000023H
	jne	SHORT $LN22@win64_Save

; 2287 : 							AddLineQueueX("movss dword ptr[%r+%u], %r", T_RSP, 8 + i * 8, T_XMM0 + i);

	mov	eax, DWORD PTR i$[rsp]
	add	eax, 40					; 00000028H
	mov	ecx, DWORD PTR i$[rsp]
	lea	ecx, DWORD PTR [rcx*8+8]
	mov	r9d, eax
	mov	r8d, ecx
	mov	edx, 119				; 00000077H
	lea	rcx, OFFSET FLAT:$SG12255
	call	AddLineQueueX
$LN22@win64_Save:
$LN21@win64_Save:

; 2288 : 						info->home_used[i] = 1;

	movsxd	rax, DWORD PTR i$[rsp]
	mov	rcx, QWORD PTR info$[rsp]
	mov	BYTE PTR [rcx+rax+116], 1

; 2289 : 						++info->home_taken;

	mov	rax, QWORD PTR info$[rsp]
	mov	eax, DWORD PTR [rax+108]
	inc	eax
	mov	rcx, QWORD PTR info$[rsp]
	mov	DWORD PTR [rcx+108], eax

; 2290 : 					}

	jmp	$LN19@win64_Save
$LN18@win64_Save:

; 2291 : 					else if ((param->sym.mem_type == MT_TYPE) && param->sym.used) 

	mov	rax, QWORD PTR param$[rsp]
	cmp	DWORD PTR [rax+36], 196			; 000000c4H
	jne	SHORT $LN23@win64_Save
	mov	rax, QWORD PTR param$[rsp]
	movzx	eax, BYTE PTR [rax+40]
	and	al, 1
	movzx	eax, al
	test	eax, eax
	je	SHORT $LN23@win64_Save

; 2292 : 					{
; 2293 : //						if(info->vecregs[i] == 0)
; 2294 : 	//						AddLineQueueX("mov [%r+%u], %r", T_RSP, 8 + i * 8, ms64_regs[i]);
; 2295 : 						info->home_used[i] = 1;

	movsxd	rax, DWORD PTR i$[rsp]
	mov	rcx, QWORD PTR info$[rsp]
	mov	BYTE PTR [rcx+rax+116], 1

; 2296 : 						++info->home_taken;

	mov	rax, QWORD PTR info$[rsp]
	mov	eax, DWORD PTR [rax+108]
	inc	eax
	mov	rcx, QWORD PTR info$[rsp]
	mov	DWORD PTR [rcx+108], eax

; 2297 : 						info->vecused = TRUE;

	mov	rax, QWORD PTR info$[rsp]
	mov	BYTE PTR [rax+80], 1

; 2298 : 					}

	jmp	$LN24@win64_Save
$LN23@win64_Save:

; 2299 : 					else {
; 2300 : 						if (((param->sym.mem_type != MT_TYPE) && param->sym.used) &&
; 2301 : 							(param->sym.mem_type <= MT_QWORD) && param->sym.used) {   //here as well   

	mov	rax, QWORD PTR param$[rsp]
	cmp	DWORD PTR [rax+36], 196			; 000000c4H
	je	$LN25@win64_Save
	mov	rax, QWORD PTR param$[rsp]
	movzx	eax, BYTE PTR [rax+40]
	and	al, 1
	movzx	eax, al
	test	eax, eax
	je	SHORT $LN25@win64_Save
	mov	rax, QWORD PTR param$[rsp]
	cmp	DWORD PTR [rax+36], 7
	jg	SHORT $LN25@win64_Save
	mov	rax, QWORD PTR param$[rsp]
	movzx	eax, BYTE PTR [rax+40]
	and	al, 1
	movzx	eax, al
	test	eax, eax
	je	SHORT $LN25@win64_Save

; 2302 : 							if (i < 4) {

	cmp	DWORD PTR i$[rsp], 4
	jge	SHORT $LN26@win64_Save

; 2303 : 								AddLineQueueX("mov [%r+%u], %r", T_RSP, 8 + i * 8, ms64_regs[i]);

	movsxd	rax, DWORD PTR i$[rsp]
	lea	rcx, OFFSET FLAT:ms64_regs
	mov	edx, DWORD PTR i$[rsp]
	lea	edx, DWORD PTR [rdx*8+8]
	mov	r9d, DWORD PTR [rcx+rax*4]
	mov	r8d, edx
	mov	edx, 119				; 00000077H
	lea	rcx, OFFSET FLAT:$SG12260
	call	AddLineQueueX

; 2304 : 								info->home_used[i] = 1;

	movsxd	rax, DWORD PTR i$[rsp]
	mov	rcx, QWORD PTR info$[rsp]
	mov	BYTE PTR [rcx+rax+116], 1

; 2305 : 								++info->home_taken;

	mov	rax, QWORD PTR info$[rsp]
	mov	eax, DWORD PTR [rax+108]
	inc	eax
	mov	rcx, QWORD PTR info$[rsp]
	mov	DWORD PTR [rcx+108], eax
$LN26@win64_Save:
$LN25@win64_Save:
$LN24@win64_Save:
$LN19@win64_Save:

; 2306 : 							}
; 2307 : 						}
; 2308 : 					}
; 2309 : 					param = param->nextparam;

	mov	rax, QWORD PTR param$[rsp]
	mov	rax, QWORD PTR [rax+112]
	mov	QWORD PTR param$[rsp], rax

; 2310 : 				}

	jmp	SHORT $LN17@win64_Save
$LN16@win64_Save:

; 2311 : 				else { /* v2.09: else branch added */
; 2312 : 					AddLineQueueX("mov [%r+%u], %r", T_RSP, 8 + i * 8, ms64_regs[i]);

	movsxd	rax, DWORD PTR i$[rsp]
	lea	rcx, OFFSET FLAT:ms64_regs
	mov	edx, DWORD PTR i$[rsp]
	lea	edx, DWORD PTR [rdx*8+8]
	mov	r9d, DWORD PTR [rcx+rax*4]
	mov	r8d, edx
	mov	edx, 119				; 00000077H
	lea	rcx, OFFSET FLAT:$SG12261
	call	AddLineQueueX

; 2313 : 					info->home_used[i] = 1;

	movsxd	rax, DWORD PTR i$[rsp]
	mov	rcx, QWORD PTR info$[rsp]
	mov	BYTE PTR [rcx+rax+116], 1

; 2314 : 					++info->home_taken;

	mov	rax, QWORD PTR info$[rsp]
	mov	eax, DWORD PTR [rax+108]
	inc	eax
	mov	rcx, QWORD PTR info$[rsp]
	mov	DWORD PTR [rcx+108], eax
$LN17@win64_Save:

; 2315 : 				}
; 2316 : 			}

	jmp	$LN2@win64_Save
$LN3@win64_Save:

; 2317 : 		}

	jmp	$LN15@win64_Save
$LN14@win64_Save:

; 2318 : 		else {
; 2319 : 			for (i = 0, param = info->paralist; param && (i < 4); i++) {

	mov	DWORD PTR i$[rsp], 0
	mov	rax, QWORD PTR info$[rsp]
	mov	rax, QWORD PTR [rax+8]
	mov	QWORD PTR param$[rsp], rax
	jmp	SHORT $LN7@win64_Save
$LN5@win64_Save:
	mov	eax, DWORD PTR i$[rsp]
	inc	eax
	mov	DWORD PTR i$[rsp], eax
$LN7@win64_Save:
	cmp	QWORD PTR param$[rsp], 0
	je	$LN6@win64_Save
	cmp	DWORD PTR i$[rsp], 4
	jge	$LN6@win64_Save

; 2320 : 				/* v2.05: save XMMx if type is float/double */
; 2321 : 				if (param->sym.is_vararg == FALSE) {

	mov	rax, QWORD PTR param$[rsp]
	movzx	eax, BYTE PTR [rax+47]
	shr	al, 5
	and	al, 1
	movzx	eax, al
	test	eax, eax
	jne	$LN27@win64_Save

; 2322 : 					if ((param->sym.mem_type & MT_FLOAT) && param->sym.used) {  // added  && param->sym.used

	mov	rax, QWORD PTR param$[rsp]
	mov	eax, DWORD PTR [rax+36]
	and	eax, 32					; 00000020H
	test	eax, eax
	je	SHORT $LN29@win64_Save
	mov	rax, QWORD PTR param$[rsp]
	movzx	eax, BYTE PTR [rax+40]
	and	al, 1
	movzx	eax, al
	test	eax, eax
	je	SHORT $LN29@win64_Save

; 2323 : 						AddLineQueueX("movq [%r+%u], %r", T_RSP, 8 + i * 8, T_XMM0 + i);

	mov	eax, DWORD PTR i$[rsp]
	add	eax, 40					; 00000028H
	mov	ecx, DWORD PTR i$[rsp]
	lea	ecx, DWORD PTR [rcx*8+8]
	mov	r9d, eax
	mov	r8d, ecx
	mov	edx, 119				; 00000077H
	lea	rcx, OFFSET FLAT:$SG12266
	call	AddLineQueueX

; 2324 : 						info->home_used[i] = 1;

	movsxd	rax, DWORD PTR i$[rsp]
	mov	rcx, QWORD PTR info$[rsp]
	mov	BYTE PTR [rcx+rax+116], 1

; 2325 : 						++info->home_taken;

	mov	rax, QWORD PTR info$[rsp]
	mov	eax, DWORD PTR [rax+108]
	inc	eax
	mov	rcx, QWORD PTR info$[rsp]
	mov	DWORD PTR [rcx+108], eax

; 2326 : 					}

	jmp	SHORT $LN30@win64_Save
$LN29@win64_Save:

; 2327 : 					else {
; 2328 : 						if (param->sym.used) {                                    //here as well 

	mov	rax, QWORD PTR param$[rsp]
	movzx	eax, BYTE PTR [rax+40]
	and	al, 1
	movzx	eax, al
	test	eax, eax
	je	SHORT $LN31@win64_Save

; 2329 : 							AddLineQueueX("mov [%r+%u], %r", T_RSP, 8 + i * 8, ms64_regs[i]);

	movsxd	rax, DWORD PTR i$[rsp]
	lea	rcx, OFFSET FLAT:ms64_regs
	mov	edx, DWORD PTR i$[rsp]
	lea	edx, DWORD PTR [rdx*8+8]
	mov	r9d, DWORD PTR [rcx+rax*4]
	mov	r8d, edx
	mov	edx, 119				; 00000077H
	lea	rcx, OFFSET FLAT:$SG12268
	call	AddLineQueueX

; 2330 : 							info->home_used[i] = 1;

	movsxd	rax, DWORD PTR i$[rsp]
	mov	rcx, QWORD PTR info$[rsp]
	mov	BYTE PTR [rcx+rax+116], 1

; 2331 : 							++info->home_taken;

	mov	rax, QWORD PTR info$[rsp]
	mov	eax, DWORD PTR [rax+108]
	inc	eax
	mov	rcx, QWORD PTR info$[rsp]
	mov	DWORD PTR [rcx+108], eax
$LN31@win64_Save:
$LN30@win64_Save:

; 2332 : 						}
; 2333 : 					}
; 2334 : 					param = param->nextparam;

	mov	rax, QWORD PTR param$[rsp]
	mov	rax, QWORD PTR [rax+112]
	mov	QWORD PTR param$[rsp], rax

; 2335 : 				}

	jmp	SHORT $LN28@win64_Save
$LN27@win64_Save:

; 2336 : 				else { /* v2.09: else branch added */
; 2337 : 					AddLineQueueX("mov [%r+%u], %r", T_RSP, 8 + i * 8, ms64_regs[i]);

	movsxd	rax, DWORD PTR i$[rsp]
	lea	rcx, OFFSET FLAT:ms64_regs
	mov	edx, DWORD PTR i$[rsp]
	lea	edx, DWORD PTR [rdx*8+8]
	mov	r9d, DWORD PTR [rcx+rax*4]
	mov	r8d, edx
	mov	edx, 119				; 00000077H
	lea	rcx, OFFSET FLAT:$SG12269
	call	AddLineQueueX

; 2338 : 					info->home_used[i] = 1;

	movsxd	rax, DWORD PTR i$[rsp]
	mov	rcx, QWORD PTR info$[rsp]
	mov	BYTE PTR [rcx+rax+116], 1

; 2339 : 					++info->home_taken;

	mov	rax, QWORD PTR info$[rsp]
	mov	eax, DWORD PTR [rax+108]
	inc	eax
	mov	rcx, QWORD PTR info$[rsp]
	mov	DWORD PTR [rcx+108], eax
$LN28@win64_Save:

; 2340 : 				}
; 2341 : 			}

	jmp	$LN5@win64_Save
$LN6@win64_Save:
$LN15@win64_Save:

; 2342 : 		}
; 2343 : 	}

	jmp	$LN12@win64_Save
$LN11@win64_Save:

; 2344 : 	else {
; 2345 : 		for (i = 0, param = info->paralist; param && (i < 4); i++) {

	mov	DWORD PTR i$[rsp], 0
	mov	rax, QWORD PTR info$[rsp]
	mov	rax, QWORD PTR [rax+8]
	mov	QWORD PTR param$[rsp], rax
	jmp	SHORT $LN10@win64_Save
$LN8@win64_Save:
	mov	eax, DWORD PTR i$[rsp]
	inc	eax
	mov	DWORD PTR i$[rsp], eax
$LN10@win64_Save:
	cmp	QWORD PTR param$[rsp], 0
	je	$LN9@win64_Save
	cmp	DWORD PTR i$[rsp], 4
	jge	$LN9@win64_Save

; 2346 : 			/* v2.05: save XMMx if type is float/double */
; 2347 : 			if (param->sym.is_vararg == FALSE) {

	mov	rax, QWORD PTR param$[rsp]
	movzx	eax, BYTE PTR [rax+47]
	shr	al, 5
	and	al, 1
	movzx	eax, al
	test	eax, eax
	jne	SHORT $LN32@win64_Save

; 2348 : 				if (param->sym.mem_type & MT_FLOAT)

	mov	rax, QWORD PTR param$[rsp]
	mov	eax, DWORD PTR [rax+36]
	and	eax, 32					; 00000020H
	test	eax, eax
	je	SHORT $LN34@win64_Save

; 2349 : 					AddLineQueueX("movq [%r+%u], %r", T_RSP, 8 + i * 8, T_XMM0 + i);

	mov	eax, DWORD PTR i$[rsp]
	add	eax, 40					; 00000028H
	mov	ecx, DWORD PTR i$[rsp]
	lea	ecx, DWORD PTR [rcx*8+8]
	mov	r9d, eax
	mov	r8d, ecx
	mov	edx, 119				; 00000077H
	lea	rcx, OFFSET FLAT:$SG12274
	call	AddLineQueueX
	jmp	SHORT $LN35@win64_Save
$LN34@win64_Save:

; 2350 : 				else
; 2351 : 					AddLineQueueX("mov [%r+%u], %r", T_RSP, 8 + i * 8, ms64_regs[i]);

	movsxd	rax, DWORD PTR i$[rsp]
	lea	rcx, OFFSET FLAT:ms64_regs
	mov	edx, DWORD PTR i$[rsp]
	lea	edx, DWORD PTR [rdx*8+8]
	mov	r9d, DWORD PTR [rcx+rax*4]
	mov	r8d, edx
	mov	edx, 119				; 00000077H
	lea	rcx, OFFSET FLAT:$SG12275
	call	AddLineQueueX
$LN35@win64_Save:

; 2352 : 				param = param->nextparam;

	mov	rax, QWORD PTR param$[rsp]
	mov	rax, QWORD PTR [rax+112]
	mov	QWORD PTR param$[rsp], rax

; 2353 : 			}

	jmp	SHORT $LN33@win64_Save
$LN32@win64_Save:

; 2354 : 			else { /* v2.09: else branch added */
; 2355 : 				AddLineQueueX("mov [%r+%u], %r", T_RSP, 8 + i * 8, ms64_regs[i]);

	movsxd	rax, DWORD PTR i$[rsp]
	lea	rcx, OFFSET FLAT:ms64_regs
	mov	edx, DWORD PTR i$[rsp]
	lea	edx, DWORD PTR [rdx*8+8]
	mov	r9d, DWORD PTR [rcx+rax*4]
	mov	r8d, edx
	mov	edx, 119				; 00000077H
	lea	rcx, OFFSET FLAT:$SG12276
	call	AddLineQueueX
$LN33@win64_Save:

; 2356 : 			}
; 2357 : 		}

	jmp	$LN8@win64_Save
$LN9@win64_Save:
$LN12@win64_Save:

; 2358 : 	}
; 2359 : 	return;
; 2360 : }

	add	rsp, 72					; 00000048H
	ret	0
win64_SaveRegParams ENDP
_TEXT	ENDS
; Function compile flags: /Odtp
; File d:\hjwasm\hjwasm2.13.1s\hjwasm2.13.1s\proc.c
_TEXT	SEGMENT
flags$ = 64
len$ = 68
info$ = 72
p$ = 80
is_exitm$ = 88
i$ = 92
regs$ = 96
tv81 = 104
tv88 = 108
tv95 = 112
curr$1 = 120
dir$ = 128
tv164 = 136
reglst$ = 144
buffer$ = 272
__$ArrayPad$ = 1296
tokenarray$ = 1328
write_userdef_prologue PROC

; 2179 : {

	mov	QWORD PTR [rsp+8], rcx
	sub	rsp, 1320				; 00000528H
	mov	rax, QWORD PTR __security_cookie
	xor	rax, rsp
	mov	QWORD PTR __$ArrayPad$[rsp], rax

; 2180 :     int                 len;
; 2181 :     int                 i;
; 2182 :     struct proc_info    *info;
; 2183 :     char                *p;
; 2184 :     bool                is_exitm;
; 2185 :     struct dsym         *dir;
; 2186 :     //int                 align = CurrWordSize;
; 2187 :     int                 flags = CurrProc->sym.langtype; /* set bits 0-2 */

	mov	rax, QWORD PTR CurrProc
	mov	eax, DWORD PTR [rax+76]
	mov	DWORD PTR flags$[rsp], eax

; 2188 :     uint_16             *regs;
; 2189 :     char                reglst[128];
; 2190 :     char                buffer[MAX_LINE_LEN];
; 2191 : 
; 2192 : #if FASTPASS
; 2193 :     if ( Parse_Pass > PASS_1 && UseSavedState )

	cmp	DWORD PTR Parse_Pass, 0
	jbe	SHORT $LN8@write_user
	movzx	eax, BYTE PTR UseSavedState
	test	eax, eax
	je	SHORT $LN8@write_user

; 2194 :         return( NOT_ERROR );

	xor	eax, eax
	jmp	$LN1@write_user
$LN8@write_user:

; 2195 : #endif
; 2196 : 
; 2197 :     info = CurrProc->e.procinfo;

	mov	rax, QWORD PTR CurrProc
	mov	rax, QWORD PTR [rax+96]
	mov	QWORD PTR info$[rsp], rax

; 2198 :     /* v2.11: now done in write_prologue() */
; 2199 :     //info->localsize = ROUND_UP( info->localsize, CurrWordSize );
; 2200 : #if AMD64_SUPPORT
; 2201 :     /* to be compatible with ML64, translate FASTCALL to 0 (not 7) */
; 2202 :     if ( CurrProc->sym.langtype == LANG_FASTCALL && ModuleInfo.fctype == FCT_WIN64 )

	mov	rax, QWORD PTR CurrProc
	cmp	DWORD PTR [rax+76], 7
	jne	SHORT $LN9@write_user
	cmp	DWORD PTR ModuleInfo+376, 2
	jne	SHORT $LN9@write_user

; 2203 :         flags = 0;

	mov	DWORD PTR flags$[rsp], 0
$LN9@write_user:

; 2204 : #endif
; 2205 :     /* set bit 4 if the caller restores (E)SP */
; 2206 :     if ( CurrProc->sym.langtype == LANG_C ||
; 2207 :         CurrProc->sym.langtype == LANG_SYSCALL ||

	mov	rax, QWORD PTR CurrProc
	cmp	DWORD PTR [rax+76], 1
	je	SHORT $LN11@write_user
	mov	rax, QWORD PTR CurrProc
	cmp	DWORD PTR [rax+76], 2
	je	SHORT $LN11@write_user
	mov	rax, QWORD PTR CurrProc
	cmp	DWORD PTR [rax+76], 7
	jne	SHORT $LN10@write_user
$LN11@write_user:

; 2208 :         CurrProc->sym.langtype == LANG_FASTCALL )
; 2209 :         flags |= 0x10;

	mov	eax, DWORD PTR flags$[rsp]
	or	eax, 16
	mov	DWORD PTR flags$[rsp], eax
$LN10@write_user:

; 2210 : 
; 2211 :     /* set bit 5 if proc is far */
; 2212 :     /* set bit 6 if proc is private */
; 2213 :     /* v2.11: set bit 7 if proc is export */
; 2214 :     flags |= ( CurrProc->sym.mem_type == MT_FAR ? 0x20 : 0 );

	mov	rax, QWORD PTR CurrProc
	cmp	DWORD PTR [rax+36], 130			; 00000082H
	jne	SHORT $LN19@write_user
	mov	DWORD PTR tv81[rsp], 32			; 00000020H
	jmp	SHORT $LN20@write_user
$LN19@write_user:
	mov	DWORD PTR tv81[rsp], 0
$LN20@write_user:
	mov	eax, DWORD PTR tv81[rsp]
	mov	ecx, DWORD PTR flags$[rsp]
	or	ecx, eax
	mov	eax, ecx
	mov	DWORD PTR flags$[rsp], eax

; 2215 :     flags |= ( CurrProc->sym.ispublic ? 0 : 0x40 );

	mov	rax, QWORD PTR CurrProc
	movzx	eax, BYTE PTR [rax+40]
	shr	al, 7
	and	al, 1
	movzx	eax, al
	test	eax, eax
	je	SHORT $LN21@write_user
	mov	DWORD PTR tv88[rsp], 0
	jmp	SHORT $LN22@write_user
$LN21@write_user:
	mov	DWORD PTR tv88[rsp], 64			; 00000040H
$LN22@write_user:
	mov	eax, DWORD PTR tv88[rsp]
	mov	ecx, DWORD PTR flags$[rsp]
	or	ecx, eax
	mov	eax, ecx
	mov	DWORD PTR flags$[rsp], eax

; 2216 :     flags |= ( info->isexport ? 0x80 : 0 );

	mov	rax, QWORD PTR info$[rsp]
	movzx	eax, BYTE PTR [rax+128]
	shr	al, 2
	and	al, 1
	movzx	eax, al
	test	eax, eax
	je	SHORT $LN23@write_user
	mov	DWORD PTR tv95[rsp], 128		; 00000080H
	jmp	SHORT $LN24@write_user
$LN23@write_user:
	mov	DWORD PTR tv95[rsp], 0
$LN24@write_user:
	mov	eax, DWORD PTR tv95[rsp]
	mov	ecx, DWORD PTR flags$[rsp]
	or	ecx, eax
	mov	eax, ecx
	mov	DWORD PTR flags$[rsp], eax

; 2217 : 
; 2218 :     dir = (struct dsym *)SymSearch( ModuleInfo.proc_prologue );

	mov	rcx, QWORD PTR ModuleInfo+320
	call	SymFind
	mov	QWORD PTR dir$[rsp], rax

; 2219 :     if ( dir == NULL || dir->sym.state != SYM_MACRO || dir->sym.isfunc != TRUE ) {

	cmp	QWORD PTR dir$[rsp], 0
	je	SHORT $LN13@write_user
	mov	rax, QWORD PTR dir$[rsp]
	cmp	DWORD PTR [rax+32], 9
	jne	SHORT $LN13@write_user
	mov	rax, QWORD PTR dir$[rsp]
	movzx	eax, BYTE PTR [rax+44]
	shr	al, 1
	and	al, 1
	movzx	eax, al
	cmp	eax, 1
	je	SHORT $LN12@write_user
$LN13@write_user:

; 2220 :         return( EmitError( PROLOGUE_MUST_BE_MACRO_FUNC ) );

	mov	ecx, 156				; 0000009cH
	call	EmitError
	jmp	$LN1@write_user
$LN12@write_user:

; 2221 :     }
; 2222 : 
; 2223 :     /* if -EP is on, emit "prologue: none" */
; 2224 :     if ( Options.preprocessor_stdout )

	movzx	eax, BYTE PTR Options+141
	test	eax, eax
	je	SHORT $LN14@write_user

; 2225 :         printf( "option prologue:none\n" );

	lea	rcx, OFFSET FLAT:$SG12218
	call	printf
$LN14@write_user:

; 2226 : 
; 2227 :     p = reglst;

	lea	rax, QWORD PTR reglst$[rsp]
	mov	QWORD PTR p$[rsp], rax

; 2228 :     if ( info->regslist ) {

	mov	rax, QWORD PTR info$[rsp]
	cmp	QWORD PTR [rax], 0
	je	$LN15@write_user

; 2229 :         regs = info->regslist;

	mov	rax, QWORD PTR info$[rsp]
	mov	rax, QWORD PTR [rax]
	mov	QWORD PTR regs$[rsp], rax

; 2230 :         for ( len = *regs++; len; len--, regs++ ) {

	mov	rax, QWORD PTR regs$[rsp]
	movzx	eax, WORD PTR [rax]
	mov	DWORD PTR len$[rsp], eax
	mov	rax, QWORD PTR regs$[rsp]
	add	rax, 2
	mov	QWORD PTR regs$[rsp], rax
	jmp	SHORT $LN4@write_user
$LN2@write_user:
	mov	eax, DWORD PTR len$[rsp]
	dec	eax
	mov	DWORD PTR len$[rsp], eax
	mov	rax, QWORD PTR regs$[rsp]
	add	rax, 2
	mov	QWORD PTR regs$[rsp], rax
$LN4@write_user:
	cmp	DWORD PTR len$[rsp], 0
	je	SHORT $LN3@write_user

; 2231 :             GetResWName( *regs, p );

	mov	rax, QWORD PTR regs$[rsp]
	movzx	eax, WORD PTR [rax]
	mov	rdx, QWORD PTR p$[rsp]
	mov	ecx, eax
	call	GetResWName

; 2232 :             p += strlen( p );

	mov	rcx, QWORD PTR p$[rsp]
	call	strlen
	mov	rcx, QWORD PTR p$[rsp]
	add	rcx, rax
	mov	rax, rcx
	mov	QWORD PTR p$[rsp], rax

; 2233 :             if ( len > 1 )

	cmp	DWORD PTR len$[rsp], 1
	jle	SHORT $LN16@write_user

; 2234 :                 *p++ = ',';

	mov	rax, QWORD PTR p$[rsp]
	mov	BYTE PTR [rax], 44			; 0000002cH
	mov	rax, QWORD PTR p$[rsp]
	inc	rax
	mov	QWORD PTR p$[rsp], rax
$LN16@write_user:

; 2235 :         }

	jmp	SHORT $LN2@write_user
$LN3@write_user:
$LN15@write_user:

; 2236 :     }
; 2237 :     *p = NULLC;

	mov	rax, QWORD PTR p$[rsp]
	mov	BYTE PTR [rax], 0

; 2238 : 
; 2239 :     /* v2.07: make this work with radix != 10 */
; 2240 :     /* leave a space at pos 0 of buffer, because the buffer is used for
; 2241 :      * both macro arguments and EXITM return value.
; 2242 :      */
; 2243 :     sprintf( buffer," (%s, 0%XH, 0%XH, 0%XH, <<%s>>, <%s>)",

	mov	rax, QWORD PTR info$[rsp]
	cmp	QWORD PTR [rax+48], 0
	je	SHORT $LN25@write_user
	mov	rax, QWORD PTR info$[rsp]
	mov	rax, QWORD PTR [rax+48]
	mov	QWORD PTR tv164[rsp], rax
	jmp	SHORT $LN26@write_user
$LN25@write_user:
	lea	rax, OFFSET FLAT:$SG12221
	mov	QWORD PTR tv164[rsp], rax
$LN26@write_user:
	mov	rax, QWORD PTR tv164[rsp]
	mov	QWORD PTR [rsp+56], rax
	lea	rax, QWORD PTR reglst$[rsp]
	mov	QWORD PTR [rsp+48], rax
	mov	rax, QWORD PTR info$[rsp]
	mov	eax, DWORD PTR [rax+36]
	mov	DWORD PTR [rsp+40], eax
	mov	rax, QWORD PTR info$[rsp]
	mov	eax, DWORD PTR [rax+32]
	mov	DWORD PTR [rsp+32], eax
	mov	r9d, DWORD PTR flags$[rsp]
	mov	rax, QWORD PTR CurrProc
	mov	r8, QWORD PTR [rax+8]
	lea	rdx, OFFSET FLAT:$SG12222
	lea	rcx, QWORD PTR buffer$[rsp]
	call	sprintf

; 2244 :              CurrProc->sym.name, flags, info->parasize, info->localsize,
; 2245 :             reglst, info->prologuearg ? info->prologuearg : "" );
; 2246 :     i = Token_Count + 1;

	mov	eax, DWORD PTR ModuleInfo+496
	inc	eax
	mov	DWORD PTR i$[rsp], eax

; 2247 :     Token_Count = Tokenize( buffer, i, tokenarray, TOK_RESCAN );

	mov	r9d, 1
	mov	r8, QWORD PTR tokenarray$[rsp]
	mov	edx, DWORD PTR i$[rsp]
	lea	rcx, QWORD PTR buffer$[rsp]
	call	Tokenize
	mov	DWORD PTR ModuleInfo+496, eax

; 2248 : 
; 2249 :     RunMacro( dir, i, tokenarray, buffer, 0, &is_exitm );

	lea	rax, QWORD PTR is_exitm$[rsp]
	mov	QWORD PTR [rsp+40], rax
	mov	DWORD PTR [rsp+32], 0
	lea	r9, QWORD PTR buffer$[rsp]
	mov	r8, QWORD PTR tokenarray$[rsp]
	mov	edx, DWORD PTR i$[rsp]
	mov	rcx, QWORD PTR dir$[rsp]
	call	RunMacro

; 2250 :     Token_Count = i - 1;

	mov	eax, DWORD PTR i$[rsp]
	dec	eax
	mov	DWORD PTR ModuleInfo+496, eax

; 2251 :     DebugMsg(("write_userdef_prologue: macro %s returned >%s<\n", ModuleInfo.proc_prologue, buffer ));

	lea	r8, QWORD PTR buffer$[rsp]
	mov	rdx, QWORD PTR ModuleInfo+320
	lea	rcx, OFFSET FLAT:$SG12223
	call	DoDebugMsg

; 2252 : 
; 2253 :     if ( Parse_Pass == PASS_1 ) {

	cmp	DWORD PTR Parse_Pass, 0
	jne	SHORT $LN17@write_user

; 2254 :         struct dsym *curr;
; 2255 :         len = atoi( buffer ) - info->localsize;

	lea	rcx, QWORD PTR buffer$[rsp]
	call	atoi
	mov	rcx, QWORD PTR info$[rsp]
	sub	eax, DWORD PTR [rcx+36]
	mov	DWORD PTR len$[rsp], eax

; 2256 :         for ( curr = info->locallist; curr; curr = curr->nextlocal ) {

	mov	rax, QWORD PTR info$[rsp]
	mov	rax, QWORD PTR [rax+16]
	mov	QWORD PTR curr$1[rsp], rax
	jmp	SHORT $LN7@write_user
$LN5@write_user:
	mov	rax, QWORD PTR curr$1[rsp]
	mov	rax, QWORD PTR [rax+112]
	mov	QWORD PTR curr$1[rsp], rax
$LN7@write_user:
	cmp	QWORD PTR curr$1[rsp], 0
	je	SHORT $LN6@write_user

; 2257 :             curr->sym.offset -= len;

	mov	rax, QWORD PTR curr$1[rsp]
	mov	ecx, DWORD PTR len$[rsp]
	mov	eax, DWORD PTR [rax+16]
	sub	eax, ecx
	mov	rcx, QWORD PTR curr$1[rsp]
	mov	DWORD PTR [rcx+16], eax

; 2258 :         }

	jmp	SHORT $LN5@write_user
$LN6@write_user:
$LN17@write_user:

; 2259 :     }
; 2260 : 
; 2261 :     return ( NOT_ERROR );

	xor	eax, eax
$LN1@write_user:

; 2262 : }

	mov	rcx, QWORD PTR __$ArrayPad$[rsp]
	xor	rcx, rsp
	call	__security_check_cookie
	add	rsp, 1320				; 00000528H
	ret	0
write_userdef_prologue ENDP
_TEXT	ENDS
; Function compile flags: /Odtp
; File d:\hjwasm\hjwasm2.13.1s\hjwasm2.13.1s\proc.c
_TEXT	SEGMENT
puc$ = 48
ofs$ = 56
reg$ = 57
oldcodes$ = 58
token$ = 60
tv140 = 64
tv401 = 68
size$ = 72
opndx$ = 80
i$ = 208
tokenarray$ = 216
ExcFrameDirective PROC

; 1891 : {

$LN59:
	mov	QWORD PTR [rsp+16], rdx
	mov	DWORD PTR [rsp+8], ecx
	sub	rsp, 200				; 000000c8H

; 1892 :     struct expr opndx;
; 1893 :     int token;
; 1894 :     unsigned int size;
; 1895 :     uint_8 oldcodes = unw_info.CountOfCodes;

	movzx	eax, BYTE PTR unw_info+2
	mov	BYTE PTR oldcodes$[rsp], al

; 1896 :     uint_8 reg;
; 1897 :     uint_8 ofs;
; 1898 :     UNWIND_CODE *puc;
; 1899 : 
; 1900 :     DebugMsg1(("ExcFrameDirective(%s) enter\n", tokenarray[i].string_ptr ));

	movsxd	rax, DWORD PTR i$[rsp]
	imul	rax, rax, 32				; 00000020H
	mov	rcx, QWORD PTR tokenarray$[rsp]
	mov	rdx, QWORD PTR [rcx+rax+8]
	lea	rcx, OFFSET FLAT:$SG12125
	call	DoDebugMsg1

; 1901 :     /* v2.05: accept directives for windows only */
; 1902 : 	if (Options.output_format != OFORMAT_COFF && Options.output_format != OFORMAT_ELF /* John Hankinson 2016-02-10 Added elf win64 hack */
; 1903 : #if PE_SUPPORT
; 1904 :         && ModuleInfo.sub_format != SFORMAT_PE

	cmp	DWORD PTR Options+160, 2
	je	SHORT $LN6@ExcFrameDi
	cmp	DWORD PTR Options+160, 3
	je	SHORT $LN6@ExcFrameDi
	cmp	DWORD PTR ModuleInfo+372, 2
	je	SHORT $LN6@ExcFrameDi

; 1905 : #endif
; 1906 :        ) {
; 1907 :         return( EmitErr( NOT_SUPPORTED_WITH_CURR_FORMAT, GetResWName( tokenarray[i].tokval, NULL ) ) );

	movsxd	rax, DWORD PTR i$[rsp]
	imul	rax, rax, 32				; 00000020H
	xor	edx, edx
	mov	rcx, QWORD PTR tokenarray$[rsp]
	mov	ecx, DWORD PTR [rcx+rax+16]
	call	GetResWName
	mov	rdx, rax
	mov	ecx, 224				; 000000e0H
	call	EmitErr
	jmp	$LN1@ExcFrameDi
$LN6@ExcFrameDi:

; 1908 :     }
; 1909 :     if ( CurrProc == NULL || endprolog_found == TRUE ) {

	cmp	QWORD PTR CurrProc, 0
	je	SHORT $LN8@ExcFrameDi
	movzx	eax, BYTE PTR endprolog_found
	cmp	eax, 1
	jne	SHORT $LN7@ExcFrameDi
$LN8@ExcFrameDi:

; 1910 :         return( EmitError( ENDPROLOG_FOUND_BEFORE_EH_DIRECTIVES ) );

	mov	ecx, 255				; 000000ffH
	call	EmitError
	jmp	$LN1@ExcFrameDi
$LN7@ExcFrameDi:

; 1911 :     }
; 1912 :     if ( CurrProc->e.procinfo->isframe == FALSE ) {

	mov	rax, QWORD PTR CurrProc
	mov	rax, QWORD PTR [rax+96]
	movzx	eax, BYTE PTR [rax+128]
	shr	al, 6
	and	al, 1
	movzx	eax, al
	test	eax, eax
	jne	SHORT $LN9@ExcFrameDi

; 1913 :         return( EmitError( MISSING_FRAME_IN_PROC ) );

	mov	ecx, 256				; 00000100H
	call	EmitError
	jmp	$LN1@ExcFrameDi
$LN9@ExcFrameDi:

; 1914 :     }
; 1915 : 
; 1916 :     puc = &unw_code[unw_info.CountOfCodes];

	movzx	eax, BYTE PTR unw_info+2
	lea	rcx, OFFSET FLAT:unw_code
	lea	rax, QWORD PTR [rcx+rax*2]
	mov	QWORD PTR puc$[rsp], rax

; 1917 : 
; 1918 :     ofs = GetCurrOffset() - CurrProc->sym.offset;

	call	GetCurrOffset
	mov	rcx, QWORD PTR CurrProc
	sub	eax, DWORD PTR [rcx+16]
	mov	BYTE PTR ofs$[rsp], al

; 1919 :     token = tokenarray[i].tokval;

	movsxd	rax, DWORD PTR i$[rsp]
	imul	rax, rax, 32				; 00000020H
	mov	rcx, QWORD PTR tokenarray$[rsp]
	mov	eax, DWORD PTR [rcx+rax+16]
	mov	DWORD PTR token$[rsp], eax

; 1920 :     i++;

	mov	eax, DWORD PTR i$[rsp]
	inc	eax
	mov	DWORD PTR i$[rsp], eax

; 1921 : 
; 1922 :     /* note: since the codes will be written from "right to left",
; 1923 :      * the opcode item has to be written last!
; 1924 :      */
; 1925 : 
; 1926 :     switch ( token ) {

	mov	eax, DWORD PTR token$[rsp]
	mov	DWORD PTR tv140[rsp], eax
	mov	eax, DWORD PTR tv140[rsp]
	sub	eax, 414				; 0000019eH
	mov	DWORD PTR tv140[rsp], eax
	cmp	DWORD PTR tv140[rsp], 7
	ja	$LN2@ExcFrameDi
	movsxd	rax, DWORD PTR tv140[rsp]
	lea	rcx, OFFSET FLAT:__ImageBase
	mov	eax, DWORD PTR $LN58@ExcFrameDi[rcx+rax*4]
	add	rax, rcx
	jmp	rax
$LN10@ExcFrameDi:

; 1927 :     case T_DOT_ALLOCSTACK: /* syntax: .ALLOCSTACK size */
; 1928 :         if ( ERROR == EvalOperand( &i, tokenarray, Token_Count, &opndx, 0 ) )

	mov	BYTE PTR [rsp+32], 0
	lea	r9, QWORD PTR opndx$[rsp]
	mov	r8d, DWORD PTR ModuleInfo+496
	mov	rdx, QWORD PTR tokenarray$[rsp]
	lea	rcx, QWORD PTR i$[rsp]
	call	EvalOperand
	cmp	eax, -1
	jne	SHORT $LN11@ExcFrameDi

; 1929 :             return( ERROR );

	mov	eax, -1
	jmp	$LN1@ExcFrameDi
$LN11@ExcFrameDi:

; 1930 :         if ( opndx.kind == EXPR_ADDR && opndx.sym->state == SYM_UNDEFINED ) /* v2.11: allow forward references */

	cmp	DWORD PTR opndx$[rsp+60], 1
	jne	SHORT $LN12@ExcFrameDi
	mov	rax, QWORD PTR opndx$[rsp+80]
	cmp	DWORD PTR [rax+32], 0
	jne	SHORT $LN12@ExcFrameDi

; 1931 :              ;

	jmp	SHORT $LN13@ExcFrameDi
$LN12@ExcFrameDi:

; 1932 :         else if ( opndx.kind != EXPR_CONST ) {

	cmp	DWORD PTR opndx$[rsp+60], 0
	je	SHORT $LN14@ExcFrameDi

; 1933 :             return( EmitError( CONSTANT_EXPECTED ) );

	mov	ecx, 65					; 00000041H
	call	EmitError
	jmp	$LN1@ExcFrameDi
$LN14@ExcFrameDi:
$LN13@ExcFrameDi:

; 1934 :         }
; 1935 :         /* v2.11: check added */
; 1936 :         if ( opndx.hvalue ) {

	cmp	DWORD PTR opndx$[rsp+4], 0
	je	SHORT $LN15@ExcFrameDi

; 1937 :             return( EmitConstError( &opndx ) );

	lea	rcx, QWORD PTR opndx$[rsp]
	call	EmitConstError
	jmp	$LN1@ExcFrameDi
$LN15@ExcFrameDi:

; 1938 :         }
; 1939 :         if ( opndx.uvalue == 0 ) {

	cmp	DWORD PTR opndx$[rsp], 0
	jne	SHORT $LN16@ExcFrameDi

; 1940 :             return( EmitError( NONZERO_VALUE_EXPECTED ) );

	mov	ecx, 258				; 00000102H
	call	EmitError
	jmp	$LN1@ExcFrameDi
$LN16@ExcFrameDi:

; 1941 :         }
; 1942 :         if ( opndx.value & 7 ) {

	mov	eax, DWORD PTR opndx$[rsp]
	and	eax, 7
	test	eax, eax
	je	SHORT $LN17@ExcFrameDi

; 1943 :             return( EmitError( BAD_ALIGNMENT_FOR_OFFSET_IN_UNWIND_CODE ) );

	mov	ecx, 257				; 00000101H
	call	EmitError
	jmp	$LN1@ExcFrameDi
$LN17@ExcFrameDi:

; 1944 :         }
; 1945 :         //opndx.value -= 8; /* v2.11: subtract 8 only for UWOP_ALLOC_SMALL! */
; 1946 :         if ( opndx.uvalue > 16*8 ) {

	cmp	DWORD PTR opndx$[rsp], 128		; 00000080H
	jbe	$LN18@ExcFrameDi

; 1947 :             if ( opndx.uvalue >= 65536*8 ) {

	cmp	DWORD PTR opndx$[rsp], 524288		; 00080000H
	jb	SHORT $LN20@ExcFrameDi

; 1948 :                 /* allocation size 512k - 4G-8 */
; 1949 :                 /* v2.11: value is stored UNSCALED in 2 WORDs! */
; 1950 :                 puc->FrameOffset = ( opndx.uvalue >> 16 );

	mov	eax, DWORD PTR opndx$[rsp]
	shr	eax, 16
	mov	rcx, QWORD PTR puc$[rsp]
	mov	WORD PTR [rcx], ax

; 1951 :                 puc++;

	mov	rax, QWORD PTR puc$[rsp]
	add	rax, 2
	mov	QWORD PTR puc$[rsp], rax

; 1952 :                 puc->FrameOffset = opndx.uvalue & 0xFFFF;

	mov	eax, DWORD PTR opndx$[rsp]
	and	eax, 65535				; 0000ffffH
	mov	rcx, QWORD PTR puc$[rsp]
	mov	WORD PTR [rcx], ax

; 1953 :                 puc++;

	mov	rax, QWORD PTR puc$[rsp]
	add	rax, 2
	mov	QWORD PTR puc$[rsp], rax

; 1954 :                 unw_info.CountOfCodes += 2;

	movzx	eax, BYTE PTR unw_info+2
	add	eax, 2
	mov	BYTE PTR unw_info+2, al

; 1955 :                 puc->OpInfo = 1;

	mov	rax, QWORD PTR puc$[rsp]
	movzx	eax, BYTE PTR [rax+1]
	and	al, 15
	or	al, 16
	mov	rcx, QWORD PTR puc$[rsp]
	mov	BYTE PTR [rcx+1], al

; 1956 :                 DebugMsg1(("ExcFrameDirective: UWOP_ALLOC_LARGE, operation info 1, size=%Xh\n", opndx.value ));

	mov	edx, DWORD PTR opndx$[rsp]
	lea	rcx, OFFSET FLAT:$SG12142
	call	DoDebugMsg1

; 1957 :             } else {

	jmp	SHORT $LN21@ExcFrameDi
$LN20@ExcFrameDi:

; 1958 :                 /* allocation size 128+8 - 512k-8 */
; 1959 :                 puc->FrameOffset = ( opndx.uvalue >> 3 );

	mov	eax, DWORD PTR opndx$[rsp]
	shr	eax, 3
	mov	rcx, QWORD PTR puc$[rsp]
	mov	WORD PTR [rcx], ax

; 1960 :                 puc++;

	mov	rax, QWORD PTR puc$[rsp]
	add	rax, 2
	mov	QWORD PTR puc$[rsp], rax

; 1961 :                 unw_info.CountOfCodes++;

	movzx	eax, BYTE PTR unw_info+2
	inc	al
	mov	BYTE PTR unw_info+2, al

; 1962 :                 puc->OpInfo = 0;

	mov	rax, QWORD PTR puc$[rsp]
	movzx	eax, BYTE PTR [rax+1]
	and	al, 15
	mov	rcx, QWORD PTR puc$[rsp]
	mov	BYTE PTR [rcx+1], al

; 1963 :                 DebugMsg1(("ExcFrameDirective: UWOP_ALLOC_LARGE, operation info 0, size=%Xh\n", opndx.value ));

	mov	edx, DWORD PTR opndx$[rsp]
	lea	rcx, OFFSET FLAT:$SG12143
	call	DoDebugMsg1
$LN21@ExcFrameDi:

; 1964 :             }
; 1965 :             puc->UnwindOp = UWOP_ALLOC_LARGE;

	mov	rax, QWORD PTR puc$[rsp]
	movzx	eax, BYTE PTR [rax+1]
	and	al, 240					; 000000f0H
	or	al, 1
	mov	rcx, QWORD PTR puc$[rsp]
	mov	BYTE PTR [rcx+1], al

; 1966 :         } else {

	jmp	SHORT $LN19@ExcFrameDi
$LN18@ExcFrameDi:

; 1967 :             /* allocation size 8-128 bytes */
; 1968 :             puc->UnwindOp = UWOP_ALLOC_SMALL;

	mov	rax, QWORD PTR puc$[rsp]
	movzx	eax, BYTE PTR [rax+1]
	and	al, 240					; 000000f0H
	or	al, 2
	mov	rcx, QWORD PTR puc$[rsp]
	mov	BYTE PTR [rcx+1], al

; 1969 :             /* v2.11: subtract 8 only for UWOP_ALLOC_SMALL! */
; 1970 :             //puc->OpInfo = ( opndx.value >> 3 );
; 1971 :             puc->OpInfo = ( (opndx.uvalue - 8 ) >> 3 );

	mov	eax, DWORD PTR opndx$[rsp]
	sub	eax, 8
	shr	eax, 3
	and	al, 15
	shl	al, 4
	mov	rcx, QWORD PTR puc$[rsp]
	movzx	ecx, BYTE PTR [rcx+1]
	and	cl, 15
	or	cl, al
	movzx	eax, cl
	mov	rcx, QWORD PTR puc$[rsp]
	mov	BYTE PTR [rcx+1], al

; 1972 :             DebugMsg1(("ExcFrameDirective: UWOP_ALLOC_SMALL, size=%Xh\n", opndx.value ));

	mov	edx, DWORD PTR opndx$[rsp]
	lea	rcx, OFFSET FLAT:$SG12144
	call	DoDebugMsg1
$LN19@ExcFrameDi:

; 1973 :         }
; 1974 :         puc->CodeOffset = ofs;

	mov	rax, QWORD PTR puc$[rsp]
	movzx	ecx, BYTE PTR ofs$[rsp]
	mov	BYTE PTR [rax], cl

; 1975 :         unw_info.CountOfCodes++;

	movzx	eax, BYTE PTR unw_info+2
	inc	al
	mov	BYTE PTR unw_info+2, al

; 1976 :         break;

	jmp	$LN2@ExcFrameDi
$LN22@ExcFrameDi:

; 1977 :     case T_DOT_ENDPROLOG: /* syntax: .ENDPROLOG */
; 1978 :         opndx.value = GetCurrOffset() - CurrProc->sym.offset;

	call	GetCurrOffset
	mov	rcx, QWORD PTR CurrProc
	sub	eax, DWORD PTR [rcx+16]
	mov	DWORD PTR opndx$[rsp], eax

; 1979 :         if ( opndx.uvalue > 255 ) {

	cmp	DWORD PTR opndx$[rsp], 255		; 000000ffH
	jbe	SHORT $LN23@ExcFrameDi

; 1980 :             return( EmitError( SIZE_OF_PROLOG_TOO_BIG ) );

	mov	ecx, 259				; 00000103H
	call	EmitError
	jmp	$LN1@ExcFrameDi
$LN23@ExcFrameDi:

; 1981 :         }
; 1982 :         unw_info.SizeOfProlog = (uint_8)opndx.uvalue;

	movzx	eax, BYTE PTR opndx$[rsp]
	mov	BYTE PTR unw_info+1, al

; 1983 :         endprolog_found = TRUE;

	mov	BYTE PTR endprolog_found, 1

; 1984 :         break;

	jmp	$LN2@ExcFrameDi
$LN24@ExcFrameDi:

; 1985 :     case T_DOT_PUSHFRAME: /* syntax: .PUSHFRAME [code] */
; 1986 :         puc->CodeOffset = ofs;

	mov	rax, QWORD PTR puc$[rsp]
	movzx	ecx, BYTE PTR ofs$[rsp]
	mov	BYTE PTR [rax], cl

; 1987 :         puc->UnwindOp = UWOP_PUSH_MACHFRAME;

	mov	rax, QWORD PTR puc$[rsp]
	movzx	eax, BYTE PTR [rax+1]
	and	al, 240					; 000000f0H
	or	al, 10
	mov	rcx, QWORD PTR puc$[rsp]
	mov	BYTE PTR [rcx+1], al

; 1988 :         puc->OpInfo = 0;

	mov	rax, QWORD PTR puc$[rsp]
	movzx	eax, BYTE PTR [rax+1]
	and	al, 15
	mov	rcx, QWORD PTR puc$[rsp]
	mov	BYTE PTR [rcx+1], al

; 1989 :         if ( tokenarray[i].token == T_ID && (_stricmp( tokenarray[i].string_ptr, "CODE") == 0 ) ) {

	movsxd	rax, DWORD PTR i$[rsp]
	imul	rax, rax, 32				; 00000020H
	mov	rcx, QWORD PTR tokenarray$[rsp]
	movzx	eax, BYTE PTR [rcx+rax]
	cmp	eax, 8
	jne	SHORT $LN25@ExcFrameDi
	movsxd	rax, DWORD PTR i$[rsp]
	imul	rax, rax, 32				; 00000020H
	lea	rdx, OFFSET FLAT:$SG12149
	mov	rcx, QWORD PTR tokenarray$[rsp]
	mov	rcx, QWORD PTR [rcx+rax+8]
	call	_stricmp
	test	eax, eax
	jne	SHORT $LN25@ExcFrameDi

; 1990 :             puc->OpInfo = 1;

	mov	rax, QWORD PTR puc$[rsp]
	movzx	eax, BYTE PTR [rax+1]
	and	al, 15
	or	al, 16
	mov	rcx, QWORD PTR puc$[rsp]
	mov	BYTE PTR [rcx+1], al

; 1991 :             i++;

	mov	eax, DWORD PTR i$[rsp]
	inc	eax
	mov	DWORD PTR i$[rsp], eax
$LN25@ExcFrameDi:

; 1992 :         }
; 1993 :         unw_info.CountOfCodes++;

	movzx	eax, BYTE PTR unw_info+2
	inc	al
	mov	BYTE PTR unw_info+2, al

; 1994 :         break;

	jmp	$LN2@ExcFrameDi
$LN26@ExcFrameDi:

; 1995 :     case T_DOT_PUSHREG: /* syntax: .PUSHREG r64 */
; 1996 :         if ( tokenarray[i].token != T_REG || !( GetValueSp( tokenarray[i].tokval ) & OP_R64 ) ) {

	movsxd	rax, DWORD PTR i$[rsp]
	imul	rax, rax, 32				; 00000020H
	mov	rcx, QWORD PTR tokenarray$[rsp]
	movzx	eax, BYTE PTR [rcx+rax]
	cmp	eax, 2
	jne	SHORT $LN28@ExcFrameDi
	movsxd	rax, DWORD PTR i$[rsp]
	imul	rax, rax, 32				; 00000020H
	mov	rcx, QWORD PTR tokenarray$[rsp]
	mov	eax, DWORD PTR [rcx+rax+16]
	imul	rax, rax, 12
	lea	rcx, OFFSET FLAT:SpecialTable
	mov	eax, DWORD PTR [rcx+rax]
	and	eax, 8
	test	eax, eax
	jne	SHORT $LN27@ExcFrameDi
$LN28@ExcFrameDi:

; 1997 :             return( EmitErr( SYNTAX_ERROR_EX, tokenarray[i].string_ptr ) );

	movsxd	rax, DWORD PTR i$[rsp]
	imul	rax, rax, 32				; 00000020H
	mov	rcx, QWORD PTR tokenarray$[rsp]
	mov	rdx, QWORD PTR [rcx+rax+8]
	mov	ecx, 209				; 000000d1H
	call	EmitErr
	jmp	$LN1@ExcFrameDi
$LN27@ExcFrameDi:

; 1998 :         }
; 1999 :         puc->CodeOffset = ofs;

	mov	rax, QWORD PTR puc$[rsp]
	movzx	ecx, BYTE PTR ofs$[rsp]
	mov	BYTE PTR [rax], cl

; 2000 :         puc->UnwindOp = UWOP_PUSH_NONVOL;

	mov	rax, QWORD PTR puc$[rsp]
	movzx	eax, BYTE PTR [rax+1]
	and	al, 240					; 000000f0H
	mov	rcx, QWORD PTR puc$[rsp]
	mov	BYTE PTR [rcx+1], al

; 2001 :         puc->OpInfo = GetRegNo( tokenarray[i].tokval );

	movsxd	rax, DWORD PTR i$[rsp]
	imul	rax, rax, 32				; 00000020H
	mov	rcx, QWORD PTR tokenarray$[rsp]
	mov	eax, DWORD PTR [rcx+rax+16]
	imul	rax, rax, 12
	lea	rcx, OFFSET FLAT:SpecialTable
	movzx	eax, BYTE PTR [rcx+rax+10]
	and	al, 15
	shl	al, 4
	mov	rcx, QWORD PTR puc$[rsp]
	movzx	ecx, BYTE PTR [rcx+1]
	and	cl, 15
	or	cl, al
	movzx	eax, cl
	mov	rcx, QWORD PTR puc$[rsp]
	mov	BYTE PTR [rcx+1], al

; 2002 :         unw_info.CountOfCodes++;

	movzx	eax, BYTE PTR unw_info+2
	inc	al
	mov	BYTE PTR unw_info+2, al

; 2003 :         i++;

	mov	eax, DWORD PTR i$[rsp]
	inc	eax
	mov	DWORD PTR i$[rsp], eax

; 2004 :         break;

	jmp	$LN2@ExcFrameDi
$LN29@ExcFrameDi:

; 2005 :     case T_DOT_SAVEREG:    /* syntax: .SAVEREG r64, offset       */
; 2006 :     case T_DOT_SAVEXMM128: /* syntax: .SAVEXMM128 xmmreg, offset */
; 2007 :     case T_DOT_SAVEYMM256: /* syntax: .SAVEYMM256 ymmreg, offset */
; 2008 : #if EVEXSUPP
; 2009 :     case T_DOT_SAVEZMM512: /* syntax: .SAVEXMM512 zmmreg, offset */
; 2010 : #endif
; 2011 :     case T_DOT_SETFRAME:   /* syntax: .SETFRAME r64, offset      */
; 2012 :         if ( tokenarray[i].token != T_REG ) {

	movsxd	rax, DWORD PTR i$[rsp]
	imul	rax, rax, 32				; 00000020H
	mov	rcx, QWORD PTR tokenarray$[rsp]
	movzx	eax, BYTE PTR [rcx+rax]
	cmp	eax, 2
	je	SHORT $LN30@ExcFrameDi

; 2013 :             return( EmitErr( SYNTAX_ERROR_EX, tokenarray[i].string_ptr ) );

	movsxd	rax, DWORD PTR i$[rsp]
	imul	rax, rax, 32				; 00000020H
	mov	rcx, QWORD PTR tokenarray$[rsp]
	mov	rdx, QWORD PTR [rcx+rax+8]
	mov	ecx, 209				; 000000d1H
	call	EmitErr
	jmp	$LN1@ExcFrameDi
$LN30@ExcFrameDi:

; 2014 :         }
; 2015 :         if ( token == T_DOT_SAVEXMM128 ) {

	cmp	DWORD PTR token$[rsp], 419		; 000001a3H
	jne	SHORT $LN31@ExcFrameDi

; 2016 :             if ( !( GetValueSp( tokenarray[i].tokval ) & OP_XMM ) ) {

	movsxd	rax, DWORD PTR i$[rsp]
	imul	rax, rax, 32				; 00000020H
	mov	rcx, QWORD PTR tokenarray$[rsp]
	mov	eax, DWORD PTR [rcx+rax+16]
	imul	rax, rax, 12
	lea	rcx, OFFSET FLAT:SpecialTable
	mov	eax, DWORD PTR [rcx+rax]
	and	eax, 32					; 00000020H
	test	eax, eax
	jne	SHORT $LN33@ExcFrameDi

; 2017 :                 return( EmitErr( SYNTAX_ERROR_EX, tokenarray[i].string_ptr ) );

	movsxd	rax, DWORD PTR i$[rsp]
	imul	rax, rax, 32				; 00000020H
	mov	rcx, QWORD PTR tokenarray$[rsp]
	mov	rdx, QWORD PTR [rcx+rax+8]
	mov	ecx, 209				; 000000d1H
	call	EmitErr
	jmp	$LN1@ExcFrameDi
$LN33@ExcFrameDi:

; 2018 :             }
; 2019 :         } 

	jmp	$LN32@ExcFrameDi
$LN31@ExcFrameDi:

; 2020 :         else if (token == T_DOT_SAVEYMM256) {

	cmp	DWORD PTR token$[rsp], 420		; 000001a4H
	jne	SHORT $LN34@ExcFrameDi

; 2021 :           if (!(GetValueSp(tokenarray[i].tokval) & OP_YMM)) {

	movsxd	rax, DWORD PTR i$[rsp]
	imul	rax, rax, 32				; 00000020H
	mov	rcx, QWORD PTR tokenarray$[rsp]
	mov	eax, DWORD PTR [rcx+rax+16]
	imul	rax, rax, 12
	lea	rcx, OFFSET FLAT:SpecialTable
	mov	eax, DWORD PTR [rcx+rax]
	and	eax, 128				; 00000080H
	test	eax, eax
	jne	SHORT $LN36@ExcFrameDi

; 2022 :             return(EmitErr(SYNTAX_ERROR_EX, tokenarray[i].string_ptr));

	movsxd	rax, DWORD PTR i$[rsp]
	imul	rax, rax, 32				; 00000020H
	mov	rcx, QWORD PTR tokenarray$[rsp]
	mov	rdx, QWORD PTR [rcx+rax+8]
	mov	ecx, 209				; 000000d1H
	call	EmitErr
	jmp	$LN1@ExcFrameDi
$LN36@ExcFrameDi:

; 2023 :           }
; 2024 :         }

	jmp	SHORT $LN35@ExcFrameDi
$LN34@ExcFrameDi:

; 2025 : #if EVEXSUPP
; 2026 :         else if (token == T_DOT_SAVEZMM512) {
; 2027 :           if (!(GetValueSp(tokenarray[i].tokval) & OP_ZMM)) {
; 2028 :             return(EmitErr(SYNTAX_ERROR_EX, tokenarray[i].string_ptr));
; 2029 :           }
; 2030 :         }
; 2031 : #endif
; 2032 :         else {
; 2033 :             if ( !( GetValueSp( tokenarray[i].tokval ) & OP_R64 ) ) {

	movsxd	rax, DWORD PTR i$[rsp]
	imul	rax, rax, 32				; 00000020H
	mov	rcx, QWORD PTR tokenarray$[rsp]
	mov	eax, DWORD PTR [rcx+rax+16]
	imul	rax, rax, 12
	lea	rcx, OFFSET FLAT:SpecialTable
	mov	eax, DWORD PTR [rcx+rax]
	and	eax, 8
	test	eax, eax
	jne	SHORT $LN37@ExcFrameDi

; 2034 :                 return( EmitErr( SYNTAX_ERROR_EX, tokenarray[i].string_ptr ) );

	movsxd	rax, DWORD PTR i$[rsp]
	imul	rax, rax, 32				; 00000020H
	mov	rcx, QWORD PTR tokenarray$[rsp]
	mov	rdx, QWORD PTR [rcx+rax+8]
	mov	ecx, 209				; 000000d1H
	call	EmitErr
	jmp	$LN1@ExcFrameDi
$LN37@ExcFrameDi:
$LN35@ExcFrameDi:
$LN32@ExcFrameDi:

; 2035 :             }
; 2036 :         }
; 2037 :         reg = GetRegNo( tokenarray[i].tokval );

	movsxd	rax, DWORD PTR i$[rsp]
	imul	rax, rax, 32				; 00000020H
	mov	rcx, QWORD PTR tokenarray$[rsp]
	mov	eax, DWORD PTR [rcx+rax+16]
	imul	rax, rax, 12
	lea	rcx, OFFSET FLAT:SpecialTable
	movzx	eax, BYTE PTR [rcx+rax+10]
	mov	BYTE PTR reg$[rsp], al

; 2038 :         // here is the problem
; 2039 :         if ( token == T_DOT_SAVEREG || token == T_DOT_SAVEXMM128 || token == T_DOT_SAVEYMM256

	cmp	DWORD PTR token$[rsp], 418		; 000001a2H
	je	SHORT $LN40@ExcFrameDi
	cmp	DWORD PTR token$[rsp], 419		; 000001a3H
	je	SHORT $LN40@ExcFrameDi
	cmp	DWORD PTR token$[rsp], 420		; 000001a4H
	jne	SHORT $LN38@ExcFrameDi
$LN40@ExcFrameDi:

; 2040 : #if EVEXSUPP
; 2041 :           || token == T_DOT_SAVEZMM512
; 2042 : #endif   
; 2043 :           )
; 2044 :             size = 8;

	mov	DWORD PTR size$[rsp], 8
	jmp	SHORT $LN39@ExcFrameDi
$LN38@ExcFrameDi:

; 2045 :         else
; 2046 :             size = 16;

	mov	DWORD PTR size$[rsp], 16
$LN39@ExcFrameDi:

; 2047 : 
; 2048 :         i++;

	mov	eax, DWORD PTR i$[rsp]
	inc	eax
	mov	DWORD PTR i$[rsp], eax

; 2049 :         if ( tokenarray[i].token != T_COMMA ) {

	movsxd	rax, DWORD PTR i$[rsp]
	imul	rax, rax, 32				; 00000020H
	mov	rcx, QWORD PTR tokenarray$[rsp]
	movzx	eax, BYTE PTR [rcx+rax]
	cmp	eax, 44					; 0000002cH
	je	SHORT $LN41@ExcFrameDi

; 2050 :             return( EmitErr( SYNTAX_ERROR_EX, tokenarray[i].string_ptr ) );

	movsxd	rax, DWORD PTR i$[rsp]
	imul	rax, rax, 32				; 00000020H
	mov	rcx, QWORD PTR tokenarray$[rsp]
	mov	rdx, QWORD PTR [rcx+rax+8]
	mov	ecx, 209				; 000000d1H
	call	EmitErr
	jmp	$LN1@ExcFrameDi
$LN41@ExcFrameDi:

; 2051 :         }
; 2052 :         i++;

	mov	eax, DWORD PTR i$[rsp]
	inc	eax
	mov	DWORD PTR i$[rsp], eax

; 2053 :         if ( ERROR == EvalOperand( &i, tokenarray, Token_Count, &opndx, 0 ) )

	mov	BYTE PTR [rsp+32], 0
	lea	r9, QWORD PTR opndx$[rsp]
	mov	r8d, DWORD PTR ModuleInfo+496
	mov	rdx, QWORD PTR tokenarray$[rsp]
	lea	rcx, QWORD PTR i$[rsp]
	call	EvalOperand
	cmp	eax, -1
	jne	SHORT $LN42@ExcFrameDi

; 2054 :             return( ERROR );

	mov	eax, -1
	jmp	$LN1@ExcFrameDi
$LN42@ExcFrameDi:

; 2055 :         if ( opndx.kind == EXPR_ADDR && opndx.sym->state == SYM_UNDEFINED ) /* v2.11: allow forward references */

	cmp	DWORD PTR opndx$[rsp+60], 1
	jne	SHORT $LN43@ExcFrameDi
	mov	rax, QWORD PTR opndx$[rsp+80]
	cmp	DWORD PTR [rax+32], 0
	jne	SHORT $LN43@ExcFrameDi

; 2056 :              ;

	jmp	SHORT $LN44@ExcFrameDi
$LN43@ExcFrameDi:

; 2057 :         else if ( opndx.kind != EXPR_CONST ) {

	cmp	DWORD PTR opndx$[rsp+60], 0
	je	SHORT $LN45@ExcFrameDi

; 2058 :             return( EmitError( CONSTANT_EXPECTED ) );

	mov	ecx, 65					; 00000041H
	call	EmitError
	jmp	$LN1@ExcFrameDi
$LN45@ExcFrameDi:
$LN44@ExcFrameDi:

; 2059 :         }
; 2060 :         if ( opndx.value & (size - 1) ) {

	mov	eax, DWORD PTR size$[rsp]
	dec	eax
	mov	ecx, DWORD PTR opndx$[rsp]
	and	ecx, eax
	mov	eax, ecx
	test	eax, eax
	je	SHORT $LN46@ExcFrameDi

; 2061 :             return( EmitError( BAD_ALIGNMENT_FOR_OFFSET_IN_UNWIND_CODE ) );

	mov	ecx, 257				; 00000101H
	call	EmitError
	jmp	$LN1@ExcFrameDi
$LN46@ExcFrameDi:

; 2062 :         }
; 2063 :         switch ( token ) {

	mov	eax, DWORD PTR token$[rsp]
	mov	DWORD PTR tv401[rsp], eax
	cmp	DWORD PTR tv401[rsp], 418		; 000001a2H
	je	SHORT $LN47@ExcFrameDi
	cmp	DWORD PTR tv401[rsp], 418		; 000001a2H
	jle	$LN4@ExcFrameDi
	cmp	DWORD PTR tv401[rsp], 420		; 000001a4H
	jle	$LN50@ExcFrameDi
	cmp	DWORD PTR tv401[rsp], 421		; 000001a5H
	je	$LN53@ExcFrameDi
	jmp	$LN4@ExcFrameDi
$LN47@ExcFrameDi:

; 2064 :         case T_DOT_SAVEREG:
; 2065 :             puc->OpInfo = reg;

	movzx	eax, BYTE PTR reg$[rsp]
	and	al, 15
	shl	al, 4
	mov	rcx, QWORD PTR puc$[rsp]
	movzx	ecx, BYTE PTR [rcx+1]
	and	cl, 15
	or	cl, al
	movzx	eax, cl
	mov	rcx, QWORD PTR puc$[rsp]
	mov	BYTE PTR [rcx+1], al

; 2066 :             if ( opndx.value > 65536 * size ) {

	imul	eax, DWORD PTR size$[rsp], 65536	; 00010000H
	cmp	DWORD PTR opndx$[rsp], eax
	jbe	SHORT $LN48@ExcFrameDi

; 2067 :                 puc->FrameOffset = ( opndx.value >> 19 );

	mov	eax, DWORD PTR opndx$[rsp]
	sar	eax, 19
	mov	rcx, QWORD PTR puc$[rsp]
	mov	WORD PTR [rcx], ax

; 2068 :                 puc++;

	mov	rax, QWORD PTR puc$[rsp]
	add	rax, 2
	mov	QWORD PTR puc$[rsp], rax

; 2069 :                 puc->FrameOffset = ( opndx.value >> 3 );

	mov	eax, DWORD PTR opndx$[rsp]
	sar	eax, 3
	mov	rcx, QWORD PTR puc$[rsp]
	mov	WORD PTR [rcx], ax

; 2070 :                 puc++;

	mov	rax, QWORD PTR puc$[rsp]
	add	rax, 2
	mov	QWORD PTR puc$[rsp], rax

; 2071 :                 puc->UnwindOp = UWOP_SAVE_NONVOL_FAR;

	mov	rax, QWORD PTR puc$[rsp]
	movzx	eax, BYTE PTR [rax+1]
	and	al, 240					; 000000f0H
	or	al, 5
	mov	rcx, QWORD PTR puc$[rsp]
	mov	BYTE PTR [rcx+1], al

; 2072 :                 unw_info.CountOfCodes += 3;

	movzx	eax, BYTE PTR unw_info+2
	add	eax, 3
	mov	BYTE PTR unw_info+2, al

; 2073 :             } else {

	jmp	SHORT $LN49@ExcFrameDi
$LN48@ExcFrameDi:

; 2074 :                 puc->FrameOffset = ( opndx.value >> 3 );

	mov	eax, DWORD PTR opndx$[rsp]
	sar	eax, 3
	mov	rcx, QWORD PTR puc$[rsp]
	mov	WORD PTR [rcx], ax

; 2075 :                 puc++;

	mov	rax, QWORD PTR puc$[rsp]
	add	rax, 2
	mov	QWORD PTR puc$[rsp], rax

; 2076 :                 puc->UnwindOp = UWOP_SAVE_NONVOL;

	mov	rax, QWORD PTR puc$[rsp]
	movzx	eax, BYTE PTR [rax+1]
	and	al, 240					; 000000f0H
	or	al, 4
	mov	rcx, QWORD PTR puc$[rsp]
	mov	BYTE PTR [rcx+1], al

; 2077 :                 unw_info.CountOfCodes += 2;

	movzx	eax, BYTE PTR unw_info+2
	add	eax, 2
	mov	BYTE PTR unw_info+2, al
$LN49@ExcFrameDi:

; 2078 :             }
; 2079 :             puc->CodeOffset = ofs;

	mov	rax, QWORD PTR puc$[rsp]
	movzx	ecx, BYTE PTR ofs$[rsp]
	mov	BYTE PTR [rax], cl

; 2080 :             puc->OpInfo = reg;

	movzx	eax, BYTE PTR reg$[rsp]
	and	al, 15
	shl	al, 4
	mov	rcx, QWORD PTR puc$[rsp]
	movzx	ecx, BYTE PTR [rcx+1]
	and	cl, 15
	or	cl, al
	movzx	eax, cl
	mov	rcx, QWORD PTR puc$[rsp]
	mov	BYTE PTR [rcx+1], al

; 2081 :             break;

	jmp	$LN4@ExcFrameDi
$LN50@ExcFrameDi:

; 2082 :         case T_DOT_SAVEXMM128:
; 2083 :         case T_DOT_SAVEYMM256:
; 2084 :             if ( opndx.value > 65536 * size ) {

	imul	eax, DWORD PTR size$[rsp], 65536	; 00010000H
	cmp	DWORD PTR opndx$[rsp], eax
	jbe	SHORT $LN51@ExcFrameDi

; 2085 :                 puc->FrameOffset = ( opndx.value >> 20 );

	mov	eax, DWORD PTR opndx$[rsp]
	sar	eax, 20
	mov	rcx, QWORD PTR puc$[rsp]
	mov	WORD PTR [rcx], ax

; 2086 :                 puc++;

	mov	rax, QWORD PTR puc$[rsp]
	add	rax, 2
	mov	QWORD PTR puc$[rsp], rax

; 2087 :                 puc->FrameOffset = ( opndx.value >> 4 );

	mov	eax, DWORD PTR opndx$[rsp]
	sar	eax, 4
	mov	rcx, QWORD PTR puc$[rsp]
	mov	WORD PTR [rcx], ax

; 2088 :                 puc++;

	mov	rax, QWORD PTR puc$[rsp]
	add	rax, 2
	mov	QWORD PTR puc$[rsp], rax

; 2089 :                 puc->UnwindOp = UWOP_SAVE_XMM128_FAR;

	mov	rax, QWORD PTR puc$[rsp]
	movzx	eax, BYTE PTR [rax+1]
	and	al, 240					; 000000f0H
	or	al, 9
	mov	rcx, QWORD PTR puc$[rsp]
	mov	BYTE PTR [rcx+1], al

; 2090 :                 unw_info.CountOfCodes += 3;

	movzx	eax, BYTE PTR unw_info+2
	add	eax, 3
	mov	BYTE PTR unw_info+2, al

; 2091 :             } else {

	jmp	SHORT $LN52@ExcFrameDi
$LN51@ExcFrameDi:

; 2092 :                 puc->FrameOffset = ( opndx.value >> 4 );

	mov	eax, DWORD PTR opndx$[rsp]
	sar	eax, 4
	mov	rcx, QWORD PTR puc$[rsp]
	mov	WORD PTR [rcx], ax

; 2093 :                 puc++;

	mov	rax, QWORD PTR puc$[rsp]
	add	rax, 2
	mov	QWORD PTR puc$[rsp], rax

; 2094 :                 puc->UnwindOp = UWOP_SAVE_XMM128;

	mov	rax, QWORD PTR puc$[rsp]
	movzx	eax, BYTE PTR [rax+1]
	and	al, 240					; 000000f0H
	or	al, 8
	mov	rcx, QWORD PTR puc$[rsp]
	mov	BYTE PTR [rcx+1], al

; 2095 :                 unw_info.CountOfCodes += 2;

	movzx	eax, BYTE PTR unw_info+2
	add	eax, 2
	mov	BYTE PTR unw_info+2, al
$LN52@ExcFrameDi:

; 2096 :             }
; 2097 :             puc->CodeOffset = ofs;

	mov	rax, QWORD PTR puc$[rsp]
	movzx	ecx, BYTE PTR ofs$[rsp]
	mov	BYTE PTR [rax], cl

; 2098 :             puc->OpInfo = reg;

	movzx	eax, BYTE PTR reg$[rsp]
	and	al, 15
	shl	al, 4
	mov	rcx, QWORD PTR puc$[rsp]
	movzx	ecx, BYTE PTR [rcx+1]
	and	cl, 15
	or	cl, al
	movzx	eax, cl
	mov	rcx, QWORD PTR puc$[rsp]
	mov	BYTE PTR [rcx+1], al

; 2099 :             break;

	jmp	$LN4@ExcFrameDi
$LN53@ExcFrameDi:

; 2100 :         //case T_DOT_SAVEYMM256:
; 2101 :         //    if ( opndx.value > 65536 * size ) {
; 2102 :         //        puc->FrameOffset = ( opndx.value >> 20 );
; 2103 :         //        puc++;
; 2104 :         //        puc->FrameOffset = ( opndx.value >> 4 );
; 2105 :         //        puc++;
; 2106 :         //        puc->UnwindOp = UWOP_SAVE_YMM256_FAR;
; 2107 :         //        unw_info.CountOfCodes += 3;
; 2108 :         //    } else {
; 2109 :         //        puc->FrameOffset = ( opndx.value >> 4 );
; 2110 :         //        puc++;
; 2111 :         //        puc->UnwindOp = UWOP_SAVE_YMM256;
; 2112 :         //        unw_info.CountOfCodes += 2;
; 2113 :         //    }
; 2114 :         //    puc->CodeOffset = ofs;
; 2115 :         //    puc->OpInfo = reg;
; 2116 :         //    break;
; 2117 : #if EVEXSUPP
; 2118 :         case T_DOT_SAVEZMM512:
; 2119 :             if ( opndx.value > 65536 * size ) {
; 2120 :                 puc->FrameOffset = ( opndx.value >> 20 );
; 2121 :                 puc++;
; 2122 :                 puc->FrameOffset = ( opndx.value >> 4 );
; 2123 :                 puc++;
; 2124 :                 puc->UnwindOp = UWOP_SAVE_ZMM512_FAR;
; 2125 :                 unw_info.CountOfCodes += 3;
; 2126 :             } else {
; 2127 :                 puc->FrameOffset = ( opndx.value >> 4 );
; 2128 :                 puc++;
; 2129 :                 puc->UnwindOp = UWOP_SAVE_ZMM512;
; 2130 :                 unw_info.CountOfCodes += 2;
; 2131 :             }
; 2132 :             puc->CodeOffset = ofs;
; 2133 :             puc->OpInfo = reg;
; 2134 :             break;
; 2135 : #endif
; 2136 : 
; 2137 :         case T_DOT_SETFRAME:
; 2138 :             if ( opndx.uvalue > 240 ) {

	cmp	DWORD PTR opndx$[rsp], 240		; 000000f0H
	jbe	SHORT $LN54@ExcFrameDi

; 2139 :                 return( EmitConstError( &opndx ) );

	lea	rcx, QWORD PTR opndx$[rsp]
	call	EmitConstError
	jmp	$LN1@ExcFrameDi
$LN54@ExcFrameDi:

; 2140 :             }
; 2141 :             unw_info.FrameRegister = reg;

	movzx	eax, BYTE PTR reg$[rsp]
	and	al, 15
	movzx	ecx, BYTE PTR unw_info+3
	and	cl, 240					; 000000f0H
	or	cl, al
	movzx	eax, cl
	mov	BYTE PTR unw_info+3, al

; 2142 :             unw_info.FrameOffset = ( opndx.uvalue >> 4 );

	mov	eax, DWORD PTR opndx$[rsp]
	shr	eax, 4
	and	al, 15
	shl	al, 4
	movzx	ecx, BYTE PTR unw_info+3
	and	cl, 15
	or	cl, al
	movzx	eax, cl
	mov	BYTE PTR unw_info+3, al

; 2143 :             puc->CodeOffset = ofs;

	mov	rax, QWORD PTR puc$[rsp]
	movzx	ecx, BYTE PTR ofs$[rsp]
	mov	BYTE PTR [rax], cl

; 2144 :             puc->UnwindOp = UWOP_SET_FPREG;

	mov	rax, QWORD PTR puc$[rsp]
	movzx	eax, BYTE PTR [rax+1]
	and	al, 240					; 000000f0H
	or	al, 3
	mov	rcx, QWORD PTR puc$[rsp]
	mov	BYTE PTR [rcx+1], al

; 2145 :             //puc->OpInfo = ( opndx.uvalue >> 4 );
; 2146 :             puc->OpInfo = reg;

	movzx	eax, BYTE PTR reg$[rsp]
	and	al, 15
	shl	al, 4
	mov	rcx, QWORD PTR puc$[rsp]
	movzx	ecx, BYTE PTR [rcx+1]
	and	cl, 15
	or	cl, al
	movzx	eax, cl
	mov	rcx, QWORD PTR puc$[rsp]
	mov	BYTE PTR [rcx+1], al

; 2147 :             unw_info.CountOfCodes++;

	movzx	eax, BYTE PTR unw_info+2
	inc	al
	mov	BYTE PTR unw_info+2, al
$LN4@ExcFrameDi:
$LN2@ExcFrameDi:

; 2148 :             break;
; 2149 :         }
; 2150 :         break;
; 2151 :     }
; 2152 :     if ( tokenarray[i].token != T_FINAL ) {

	movsxd	rax, DWORD PTR i$[rsp]
	imul	rax, rax, 32				; 00000020H
	mov	rcx, QWORD PTR tokenarray$[rsp]
	movzx	eax, BYTE PTR [rcx+rax]
	test	eax, eax
	je	SHORT $LN55@ExcFrameDi

; 2153 :         return( EmitErr( SYNTAX_ERROR_EX, tokenarray[i].string_ptr ) );

	movsxd	rax, DWORD PTR i$[rsp]
	imul	rax, rax, 32				; 00000020H
	mov	rcx, QWORD PTR tokenarray$[rsp]
	mov	rdx, QWORD PTR [rcx+rax+8]
	mov	ecx, 209				; 000000d1H
	call	EmitErr
	jmp	SHORT $LN1@ExcFrameDi
$LN55@ExcFrameDi:

; 2154 :     }
; 2155 :     /* v2.11: check if the table of codes has been exceeded */
; 2156 :     if ( oldcodes > unw_info.CountOfCodes ) {

	movzx	eax, BYTE PTR oldcodes$[rsp]
	movzx	ecx, BYTE PTR unw_info+2
	cmp	eax, ecx
	jle	SHORT $LN56@ExcFrameDi

; 2157 :         return( EmitErr( TOO_MANY_UNWIND_CODES_IN_FRAME_PROC ) );

	mov	ecx, 210				; 000000d2H
	call	EmitErr
	jmp	SHORT $LN1@ExcFrameDi
$LN56@ExcFrameDi:

; 2158 :     }
; 2159 :     DebugMsg1(("ExcFrameDirective() exit, ok\n" ));

	lea	rcx, OFFSET FLAT:$SG12181
	call	DoDebugMsg1

; 2160 :     return( NOT_ERROR );

	xor	eax, eax
$LN1@ExcFrameDi:

; 2161 : }

	add	rsp, 200				; 000000c8H
	ret	0
	npad	2
$LN58@ExcFrameDi:
	DD	$LN10@ExcFrameDi
	DD	$LN22@ExcFrameDi
	DD	$LN24@ExcFrameDi
	DD	$LN26@ExcFrameDi
	DD	$LN29@ExcFrameDi
	DD	$LN29@ExcFrameDi
	DD	$LN29@ExcFrameDi
	DD	$LN29@ExcFrameDi
ExcFrameDirective ENDP
_TEXT	ENDS
; Function compile flags: /Odtp
; File d:\hjwasm\hjwasm2.13.1s\hjwasm2.13.1s\proc.c
_TEXT	SEGMENT
tv66 = 32
i$ = 64
tokenarray$ = 72
EndpDir	PROC

; 1862 : {

$LN9:
	mov	QWORD PTR [rsp+16], rdx
	mov	DWORD PTR [rsp+8], ecx
	sub	rsp, 56					; 00000038H

; 1863 :     DebugMsg1(("EndpDir(%s) enter, curr ofs=% " I32_SPEC "X, CurrProc=%s\n", tokenarray[0].string_ptr, GetCurrOffset(), CurrProc ? CurrProc->sym.name : "NULL" ));

	cmp	QWORD PTR CurrProc, 0
	je	SHORT $LN7@EndpDir
	mov	rax, QWORD PTR CurrProc
	mov	rax, QWORD PTR [rax+8]
	mov	QWORD PTR tv66[rsp], rax
	jmp	SHORT $LN8@EndpDir
$LN7@EndpDir:
	lea	rax, OFFSET FLAT:$SG12099
	mov	QWORD PTR tv66[rsp], rax
$LN8@EndpDir:
	call	GetCurrOffset
	mov	ecx, 32					; 00000020H
	imul	rcx, rcx, 0
	mov	r9, QWORD PTR tv66[rsp]
	mov	r8d, eax
	mov	rax, QWORD PTR tokenarray$[rsp]
	mov	rdx, QWORD PTR [rax+rcx+8]
	lea	rcx, OFFSET FLAT:$SG12100
	call	DoDebugMsg1

; 1864 :     if( i != 1 || tokenarray[2].token != T_FINAL ) {

	cmp	DWORD PTR i$[rsp], 1
	jne	SHORT $LN3@EndpDir
	mov	eax, 32					; 00000020H
	imul	rax, rax, 2
	mov	rcx, QWORD PTR tokenarray$[rsp]
	movzx	eax, BYTE PTR [rcx+rax]
	test	eax, eax
	je	SHORT $LN2@EndpDir
$LN3@EndpDir:

; 1865 :         return( EmitErr( SYNTAX_ERROR_EX, tokenarray[i].tokpos ) );

	movsxd	rax, DWORD PTR i$[rsp]
	imul	rax, rax, 32				; 00000020H
	mov	rcx, QWORD PTR tokenarray$[rsp]
	mov	rdx, QWORD PTR [rcx+rax+24]
	mov	ecx, 209				; 000000d1H
	call	EmitErr
	jmp	SHORT $LN1@EndpDir
$LN2@EndpDir:

; 1866 :     }
; 1867 :     /* v2.10: "+ 1" added to CurrProc->sym.name_size */
; 1868 :     if( CurrProc &&

	cmp	QWORD PTR CurrProc, 0
	je	SHORT $LN4@EndpDir
	mov	rax, QWORD PTR CurrProc
	movzx	eax, BYTE PTR [rax+72]
	inc	eax
	cdqe
	mov	ecx, 32					; 00000020H
	imul	rcx, rcx, 0
	mov	r8, rax
	mov	rax, QWORD PTR tokenarray$[rsp]
	mov	rdx, QWORD PTR [rax+rcx+8]
	mov	rax, QWORD PTR CurrProc
	mov	rcx, QWORD PTR [rax+8]
	call	QWORD PTR SymCmpFunc
	test	eax, eax
	jne	SHORT $LN4@EndpDir

; 1869 :        ( SymCmpFunc(CurrProc->sym.name, tokenarray[0].string_ptr, CurrProc->sym.name_size + 1 ) == 0 ) ) {
; 1870 :         ProcFini( CurrProc );

	mov	rcx, QWORD PTR CurrProc
	call	ProcFini

; 1871 :     } else {

	jmp	SHORT $LN5@EndpDir
$LN4@EndpDir:

; 1872 :         return( EmitErr( UNMATCHED_BLOCK_NESTING, tokenarray[0].string_ptr ) );

	mov	eax, 32					; 00000020H
	imul	rax, rax, 0
	mov	rcx, QWORD PTR tokenarray$[rsp]
	mov	rdx, QWORD PTR [rcx+rax+8]
	mov	ecx, 142				; 0000008eH
	call	EmitErr
	jmp	SHORT $LN1@EndpDir
$LN5@EndpDir:

; 1873 :     }
; 1874 :     return( NOT_ERROR );

	xor	eax, eax
$LN1@EndpDir:

; 1875 : }

	add	rsp, 56					; 00000038H
	ret	0
EndpDir	ENDP
_TEXT	ENDS
; Function compile flags: /Odtp
; File d:\hjwasm\hjwasm2.13.1s\hjwasm2.13.1s\proc.c
_TEXT	SEGMENT
curr$ = 48
tv73 = 56
proc$ = 80
ProcFini PROC

; 1786 : {

	mov	QWORD PTR [rsp+8], rcx
	sub	rsp, 72					; 00000048H

; 1787 :     struct dsym *curr;
; 1788 :     /* v2.06: emit an error if current segment isn't equal to
; 1789 :      * the one of the matching PROC directive. Close the proc anyway!
; 1790 :      */
; 1791 :     if ( proc->sym.segment == &CurrSeg->sym ) {

	mov	rax, QWORD PTR ModuleInfo+432
	mov	rcx, QWORD PTR proc$[rsp]
	cmp	QWORD PTR [rcx+24], rax
	jne	SHORT $LN14@ProcFini

; 1792 :         proc->sym.total_size = GetCurrOffset() - proc->sym.offset;

	call	GetCurrOffset
	mov	rcx, QWORD PTR proc$[rsp]
	sub	eax, DWORD PTR [rcx+16]
	mov	rcx, QWORD PTR proc$[rsp]
	mov	DWORD PTR [rcx+56], eax

; 1793 :     } else {

	jmp	$LN15@ProcFini
$LN14@ProcFini:

; 1794 :         DebugMsg1(("ProcFini(%s): unmatched block nesting error, proc->seg=%s, CurrSeg=%s\n",

	cmp	QWORD PTR ModuleInfo+432, 0
	je	SHORT $LN27@ProcFini
	mov	rax, QWORD PTR ModuleInfo+432
	mov	rax, QWORD PTR [rax+8]
	mov	QWORD PTR tv73[rsp], rax
	jmp	SHORT $LN28@ProcFini
$LN27@ProcFini:
	lea	rax, OFFSET FLAT:$SG12078
	mov	QWORD PTR tv73[rsp], rax
$LN28@ProcFini:
	mov	rax, QWORD PTR proc$[rsp]
	mov	rax, QWORD PTR [rax+24]
	mov	r9, QWORD PTR tv73[rsp]
	mov	r8, QWORD PTR [rax+8]
	mov	rax, QWORD PTR proc$[rsp]
	mov	rdx, QWORD PTR [rax+8]
	lea	rcx, OFFSET FLAT:$SG12079
	call	DoDebugMsg1

; 1795 :                    proc->sym.name, proc->sym.segment->name, CurrSeg ? CurrSeg->sym.name : "NULL" ));
; 1796 :         EmitErr( UNMATCHED_BLOCK_NESTING, proc->sym.name );

	mov	rax, QWORD PTR proc$[rsp]
	mov	rdx, QWORD PTR [rax+8]
	mov	ecx, 142				; 0000008eH
	call	EmitErr

; 1797 :         proc->sym.total_size = CurrProc->sym.segment->offset - proc->sym.offset;

	mov	rax, QWORD PTR CurrProc
	mov	rax, QWORD PTR [rax+24]
	mov	rcx, QWORD PTR proc$[rsp]
	mov	ecx, DWORD PTR [rcx+16]
	mov	eax, DWORD PTR [rax+16]
	sub	eax, ecx
	mov	rcx, QWORD PTR proc$[rsp]
	mov	DWORD PTR [rcx+56], eax
$LN15@ProcFini:

; 1798 :     }
; 1799 : 
; 1800 :     /* v2.03: for W3+, check for unused params and locals */
; 1801 :     if ( Options.warning_level > 2 && Parse_Pass == PASS_1 ) {

	movzx	eax, BYTE PTR Options+13
	cmp	eax, 2
	jle	$LN16@ProcFini
	cmp	DWORD PTR Parse_Pass, 0
	jne	$LN16@ProcFini

; 1802 :         for ( curr = proc->e.procinfo->paralist; curr; curr = curr->nextparam ) {

	mov	rax, QWORD PTR proc$[rsp]
	mov	rax, QWORD PTR [rax+96]
	mov	rax, QWORD PTR [rax+8]
	mov	QWORD PTR curr$[rsp], rax
	jmp	SHORT $LN4@ProcFini
$LN2@ProcFini:
	mov	rax, QWORD PTR curr$[rsp]
	mov	rax, QWORD PTR [rax+112]
	mov	QWORD PTR curr$[rsp], rax
$LN4@ProcFini:
	cmp	QWORD PTR curr$[rsp], 0
	je	SHORT $LN3@ProcFini

; 1803 :             if ( curr->sym.used == FALSE )

	mov	rax, QWORD PTR curr$[rsp]
	movzx	eax, BYTE PTR [rax+40]
	and	al, 1
	movzx	eax, al
	test	eax, eax
	jne	SHORT $LN17@ProcFini

; 1804 :                 EmitWarn( 3, PROCEDURE_ARGUMENT_OR_LOCAL_NOT_REFERENCED, curr->sym.name );

	mov	rax, QWORD PTR curr$[rsp]
	mov	r8, QWORD PTR [rax+8]
	mov	edx, 266				; 0000010aH
	mov	ecx, 3
	call	EmitWarn
$LN17@ProcFini:

; 1805 :         }

	jmp	SHORT $LN2@ProcFini
$LN3@ProcFini:

; 1806 :         for ( curr = proc->e.procinfo->locallist; curr; curr = curr->nextlocal ) {

	mov	rax, QWORD PTR proc$[rsp]
	mov	rax, QWORD PTR [rax+96]
	mov	rax, QWORD PTR [rax+16]
	mov	QWORD PTR curr$[rsp], rax
	jmp	SHORT $LN7@ProcFini
$LN5@ProcFini:
	mov	rax, QWORD PTR curr$[rsp]
	mov	rax, QWORD PTR [rax+112]
	mov	QWORD PTR curr$[rsp], rax
$LN7@ProcFini:
	cmp	QWORD PTR curr$[rsp], 0
	je	SHORT $LN6@ProcFini

; 1807 :             if ( curr->sym.used == FALSE )

	mov	rax, QWORD PTR curr$[rsp]
	movzx	eax, BYTE PTR [rax+40]
	and	al, 1
	movzx	eax, al
	test	eax, eax
	jne	SHORT $LN18@ProcFini

; 1808 :                 EmitWarn( 3, PROCEDURE_ARGUMENT_OR_LOCAL_NOT_REFERENCED, curr->sym.name );

	mov	rax, QWORD PTR curr$[rsp]
	mov	r8, QWORD PTR [rax+8]
	mov	edx, 266				; 0000010aH
	mov	ecx, 3
	call	EmitWarn
$LN18@ProcFini:

; 1809 :         }

	jmp	SHORT $LN5@ProcFini
$LN6@ProcFini:
$LN16@ProcFini:

; 1810 :     }
; 1811 : #if AMD64_SUPPORT
; 1812 :     /* save stack space reserved for INVOKE if OPTION WIN64:2 is set */
; 1813 :     if ( Parse_Pass == PASS_1 &&
; 1814 :         ModuleInfo.fctype == FCT_WIN64 &&

	cmp	DWORD PTR Parse_Pass, 0
	jne	$LN19@ProcFini
	cmp	DWORD PTR ModuleInfo+376, 2
	jne	$LN19@ProcFini
	movzx	eax, BYTE PTR ModuleInfo+413
	and	eax, 2
	test	eax, eax
	je	$LN19@ProcFini

; 1815 :         ( ModuleInfo.win64_flags & W64F_AUTOSTACKSP ) ) {
; 1816 : 		proc->e.procinfo->ReservedStack = sym_ReservedStack->value;

	mov	rax, QWORD PTR proc$[rsp]
	mov	rax, QWORD PTR [rax+96]
	mov	rcx, QWORD PTR sym_ReservedStack
	mov	ecx, DWORD PTR [rcx+16]
	mov	DWORD PTR [rax+96], ecx

; 1817 :         DebugMsg1(("ProcFini(%s): localsize=%u ReservedStack=%u\n", proc->sym.name, proc->e.procinfo->localsize, proc->e.procinfo->ReservedStack ));

	mov	rax, QWORD PTR proc$[rsp]
	mov	rax, QWORD PTR [rax+96]
	mov	rcx, QWORD PTR proc$[rsp]
	mov	rcx, QWORD PTR [rcx+96]
	mov	r9d, DWORD PTR [rax+96]
	mov	r8d, DWORD PTR [rcx+36]
	mov	rax, QWORD PTR proc$[rsp]
	mov	rdx, QWORD PTR [rax+8]
	lea	rcx, OFFSET FLAT:$SG12084
	call	DoDebugMsg1

; 1818 : #if STACKBASESUPP
; 1819 :         if ( proc->e.procinfo->fpo ) {

	mov	rax, QWORD PTR proc$[rsp]
	mov	rax, QWORD PTR [rax+96]
	movzx	eax, BYTE PTR [rax+128]
	shr	al, 7
	and	al, 1
	movzx	eax, al
	test	eax, eax
	je	$LN20@ProcFini

; 1820 :             for ( curr = proc->e.procinfo->locallist; curr; curr = curr->nextlocal ) {

	mov	rax, QWORD PTR proc$[rsp]
	mov	rax, QWORD PTR [rax+96]
	mov	rax, QWORD PTR [rax+16]
	mov	QWORD PTR curr$[rsp], rax
	jmp	SHORT $LN10@ProcFini
$LN8@ProcFini:
	mov	rax, QWORD PTR curr$[rsp]
	mov	rax, QWORD PTR [rax+112]
	mov	QWORD PTR curr$[rsp], rax
$LN10@ProcFini:
	cmp	QWORD PTR curr$[rsp], 0
	je	SHORT $LN9@ProcFini

; 1821 :                 DebugMsg1(("ProcFini(%s): FPO, offset for %s %8d -> %8d\n", proc->sym.name, curr->sym.name, curr->sym.offset, curr->sym.offset + proc->e.procinfo->ReservedStack ));

	mov	rax, QWORD PTR proc$[rsp]
	mov	rax, QWORD PTR [rax+96]
	mov	rcx, QWORD PTR curr$[rsp]
	mov	ecx, DWORD PTR [rcx+16]
	add	ecx, DWORD PTR [rax+96]
	mov	eax, ecx
	mov	DWORD PTR [rsp+32], eax
	mov	rax, QWORD PTR curr$[rsp]
	mov	r9d, DWORD PTR [rax+16]
	mov	rax, QWORD PTR curr$[rsp]
	mov	r8, QWORD PTR [rax+8]
	mov	rax, QWORD PTR proc$[rsp]
	mov	rdx, QWORD PTR [rax+8]
	lea	rcx, OFFSET FLAT:$SG12086
	call	DoDebugMsg1

; 1822 :                 curr->sym.offset += proc->e.procinfo->ReservedStack;

	mov	rax, QWORD PTR proc$[rsp]
	mov	rax, QWORD PTR [rax+96]
	mov	rcx, QWORD PTR curr$[rsp]
	mov	ecx, DWORD PTR [rcx+16]
	add	ecx, DWORD PTR [rax+96]
	mov	eax, ecx
	mov	rcx, QWORD PTR curr$[rsp]
	mov	DWORD PTR [rcx+16], eax

; 1823 :             }

	jmp	SHORT $LN8@ProcFini
$LN9@ProcFini:

; 1824 :             for ( curr = proc->e.procinfo->paralist; curr; curr = curr->nextparam ) {

	mov	rax, QWORD PTR proc$[rsp]
	mov	rax, QWORD PTR [rax+96]
	mov	rax, QWORD PTR [rax+8]
	mov	QWORD PTR curr$[rsp], rax
	jmp	SHORT $LN13@ProcFini
$LN11@ProcFini:
	mov	rax, QWORD PTR curr$[rsp]
	mov	rax, QWORD PTR [rax+112]
	mov	QWORD PTR curr$[rsp], rax
$LN13@ProcFini:
	cmp	QWORD PTR curr$[rsp], 0
	je	SHORT $LN12@ProcFini

; 1825 :                 DebugMsg1(("ProcFini(%s): FPO, offset for %s %8d -> %8d\n", proc->sym.name, curr->sym.name, curr->sym.offset, curr->sym.offset + proc->e.procinfo->ReservedStack ));

	mov	rax, QWORD PTR proc$[rsp]
	mov	rax, QWORD PTR [rax+96]
	mov	rcx, QWORD PTR curr$[rsp]
	mov	ecx, DWORD PTR [rcx+16]
	add	ecx, DWORD PTR [rax+96]
	mov	eax, ecx
	mov	DWORD PTR [rsp+32], eax
	mov	rax, QWORD PTR curr$[rsp]
	mov	r9d, DWORD PTR [rax+16]
	mov	rax, QWORD PTR curr$[rsp]
	mov	r8, QWORD PTR [rax+8]
	mov	rax, QWORD PTR proc$[rsp]
	mov	rdx, QWORD PTR [rax+8]
	lea	rcx, OFFSET FLAT:$SG12087
	call	DoDebugMsg1

; 1826 :                 curr->sym.offset += proc->e.procinfo->ReservedStack;

	mov	rax, QWORD PTR proc$[rsp]
	mov	rax, QWORD PTR [rax+96]
	mov	rcx, QWORD PTR curr$[rsp]
	mov	ecx, DWORD PTR [rcx+16]
	add	ecx, DWORD PTR [rax+96]
	mov	eax, ecx
	mov	rcx, QWORD PTR curr$[rsp]
	mov	DWORD PTR [rcx+16], eax

; 1827 :             }

	jmp	SHORT $LN11@ProcFini
$LN12@ProcFini:
$LN20@ProcFini:
$LN19@ProcFini:

; 1828 :         }
; 1829 : #endif
; 1830 :     }
; 1831 : 
; 1832 :     /* create the .pdata and .xdata stuff */
; 1833 :     if ( proc->e.procinfo->isframe ) {

	mov	rax, QWORD PTR proc$[rsp]
	mov	rax, QWORD PTR [rax+96]
	movzx	eax, BYTE PTR [rax+128]
	shr	al, 6
	and	al, 1
	movzx	eax, al
	test	eax, eax
	je	SHORT $LN21@ProcFini

; 1834 : #if FASTPASS
; 1835 :         LstSetPosition(); /* needed if generated code is done BEFORE the line is listed */

	call	LstSetPosition

; 1836 : #endif
; 1837 :         WriteSEHData( proc );

	mov	rcx, QWORD PTR proc$[rsp]
	call	WriteSEHData
$LN21@ProcFini:

; 1838 :     }
; 1839 : #endif
; 1840 :     if ( ModuleInfo.list )

	mov	eax, DWORD PTR ModuleInfo+408
	shr	eax, 11
	and	eax, 1
	test	eax, eax
	je	SHORT $LN22@ProcFini

; 1841 :         LstWrite( LSTTYPE_LABEL, 0, NULL );

	xor	r8d, r8d
	xor	edx, edx
	mov	ecx, 7
	call	LstWrite
$LN22@ProcFini:

; 1842 : 
; 1843 :     /* create the list of locals */
; 1844 :     if ( Parse_Pass == PASS_1 ) {

	cmp	DWORD PTR Parse_Pass, 0
	jne	SHORT $LN23@ProcFini

; 1845 :         /* in case the procedure is empty, init addresses of local variables ( for proper listing ) */
; 1846 :         if( ProcStatus & PRST_PROLOGUE_NOT_DONE )

	mov	eax, DWORD PTR ProcStatus
	and	eax, 128				; 00000080H
	test	eax, eax
	je	SHORT $LN24@ProcFini

; 1847 :             SetLocalOffsets( CurrProc->e.procinfo );

	mov	rax, QWORD PTR CurrProc
	mov	rcx, QWORD PTR [rax+96]
	call	SetLocalOffsets
$LN24@ProcFini:

; 1848 :         SymGetLocal( (struct asym *)CurrProc );

	mov	rcx, QWORD PTR CurrProc
	call	SymGetLocal
$LN23@ProcFini:

; 1849 :     }
; 1850 : 
; 1851 :     CurrProc = pop_proc();

	call	pop_proc
	mov	QWORD PTR CurrProc, rax

; 1852 :     if ( CurrProc )

	cmp	QWORD PTR CurrProc, 0
	je	SHORT $LN25@ProcFini

; 1853 :         SymSetLocal( (struct asym *)CurrProc );  /* restore local symbol table */

	mov	rcx, QWORD PTR CurrProc
	call	SymSetLocal
$LN25@ProcFini:

; 1854 : 
; 1855 :     ProcStatus = 0; /* in case there was an empty PROC/ENDP pair */

	mov	DWORD PTR ProcStatus, 0

; 1856 : }

	add	rsp, 72					; 00000048H
	ret	0
ProcFini ENDP
_TEXT	ENDS
; Function compile flags: /Odtp
; File d:\hjwasm\hjwasm2.13.1s\hjwasm2.13.1s\proc.c
_TEXT	SEGMENT
curr$ = 64
ymmflag$ = 72
cntstd$ = 76
xmmflag$ = 80
cntxmm$ = 84
rspalign$ = 88
start$ = 92
align$ = 96
itemsize$1 = 100
cnt$ = 104
cnt$2 = 108
localadj$3 = 112
paramadj$4 = 116
regist$ = 120
regs$5 = 128
tv219 = 136
n$6 = 140
info$ = 160
SetLocalOffsets PROC

; 3021 : {

	mov	QWORD PTR [rsp+8], rcx
	sub	rsp, 152				; 00000098H

; 3022 :     struct dsym *curr;
; 3023 : #if AMD64_SUPPORT || STACKBASESUPP
; 3024 :     int         cntxmm = 0;

	mov	DWORD PTR cntxmm$[rsp], 0

; 3025 :     int         cntstd = 0;

	mov	DWORD PTR cntstd$[rsp], 0

; 3026 :     int         start = 0;

	mov	DWORD PTR start$[rsp], 0

; 3027 :     uint_16             *regist;
; 3028 :     int                 cnt;
; 3029 : 
; 3030 : #endif
; 3031 : #if AMD64_SUPPORT
; 3032 :     unsigned char       xmmflag = 1;

	mov	BYTE PTR xmmflag$[rsp], 1

; 3033 :     unsigned char       ymmflag = 0;

	mov	BYTE PTR ymmflag$[rsp], 0

; 3034 :     int         rspalign = FALSE;

	mov	DWORD PTR rspalign$[rsp], 0

; 3035 : #endif
; 3036 :     int         align = CurrWordSize;

	movzx	eax, BYTE PTR ModuleInfo+406
	mov	DWORD PTR align$[rsp], eax

; 3037 : #if EVEXSUPP
; 3038 :     unsigned char       zmmflag = 0;
; 3039 : #endif
; 3040 :     //if ( Parse_Pass != PASS_1 ) /* everything is done in pass 1 */
; 3041 :     //    return;
; 3042 : 
; 3043 : #if AMD64_SUPPORT
; 3044 :     regist = info->regslist;

	mov	rax, QWORD PTR info$[rsp]
	mov	rax, QWORD PTR [rax]
	mov	QWORD PTR regist$[rsp], rax

; 3045 :     if ( info->isframe || ( ModuleInfo.fctype == FCT_WIN64 && ( ModuleInfo.win64_flags & W64F_AUTOSTACKSP ) ) ) {

	mov	rax, QWORD PTR info$[rsp]
	movzx	eax, BYTE PTR [rax+128]
	shr	al, 6
	and	al, 1
	movzx	eax, al
	test	eax, eax
	jne	SHORT $LN18@SetLocalOf
	cmp	DWORD PTR ModuleInfo+376, 2
	jne	SHORT $LN17@SetLocalOf
	movzx	eax, BYTE PTR ModuleInfo+413
	and	eax, 2
	test	eax, eax
	je	SHORT $LN17@SetLocalOf
$LN18@SetLocalOf:

; 3046 :         rspalign = TRUE;

	mov	DWORD PTR rspalign$[rsp], 1

; 3047 :         if ( ModuleInfo.win64_flags & W64F_STACKALIGN16 )

	movzx	eax, BYTE PTR ModuleInfo+413
	and	eax, 4
	test	eax, eax
	je	SHORT $LN19@SetLocalOf

; 3048 :             align = 16;

	mov	DWORD PTR align$[rsp], 16
$LN19@SetLocalOf:
$LN17@SetLocalOf:

; 3049 :     }
; 3050 : #endif
; 3051 : #if AMD64_SUPPORT || STACKBASESUPP
; 3052 :     /* in 64-bit, if the FRAME attribute is set, the space for the registers
; 3053 :      * saved by the USES clause is located ABOVE the local variables!
; 3054 :      * v2.09: if stack space is to be reserved for INVOKE ( option WIN64:2 ),
; 3055 :      * the registers are also saved ABOVE the local variables.
; 3056 :      */
; 3057 :     if (info->regslist){

	mov	rax, QWORD PTR info$[rsp]
	cmp	QWORD PTR [rax], 0
	je	$LN20@SetLocalOf

; 3058 :       for (cnt = *regist++; cnt; cnt--, regist++) {

	mov	rax, QWORD PTR regist$[rsp]
	movzx	eax, WORD PTR [rax]
	mov	DWORD PTR cnt$[rsp], eax
	mov	rax, QWORD PTR regist$[rsp]
	add	rax, 2
	mov	QWORD PTR regist$[rsp], rax
	jmp	SHORT $LN4@SetLocalOf
$LN2@SetLocalOf:
	mov	eax, DWORD PTR cnt$[rsp]
	dec	eax
	mov	DWORD PTR cnt$[rsp], eax
	mov	rax, QWORD PTR regist$[rsp]
	add	rax, 2
	mov	QWORD PTR regist$[rsp], rax
$LN4@SetLocalOf:
	cmp	DWORD PTR cnt$[rsp], 0
	je	SHORT $LN3@SetLocalOf

; 3059 :         if (GetValueSp(*regist) & OP_XMM)

	mov	rax, QWORD PTR regist$[rsp]
	movzx	eax, WORD PTR [rax]
	imul	rax, rax, 12
	lea	rcx, OFFSET FLAT:SpecialTable
	mov	eax, DWORD PTR [rcx+rax]
	and	eax, 32					; 00000020H
	test	eax, eax
	je	SHORT $LN21@SetLocalOf

; 3060 :           xmmflag = 1;

	mov	BYTE PTR xmmflag$[rsp], 1
	jmp	SHORT $LN22@SetLocalOf
$LN21@SetLocalOf:

; 3061 :         else if (GetValueSp(*regist) & OP_YMM){

	mov	rax, QWORD PTR regist$[rsp]
	movzx	eax, WORD PTR [rax]
	imul	rax, rax, 12
	lea	rcx, OFFSET FLAT:SpecialTable
	mov	eax, DWORD PTR [rcx+rax]
	and	eax, 128				; 00000080H
	test	eax, eax
	je	SHORT $LN23@SetLocalOf

; 3062 :           ymmflag = 1;

	mov	BYTE PTR ymmflag$[rsp], 1
$LN23@SetLocalOf:
$LN22@SetLocalOf:

; 3063 :         }
; 3064 : #if EVEXSUPP    
; 3065 :         else if (GetValueSp(*regist) & OP_ZMM){
; 3066 :           zmmflag = 1;
; 3067 :         }
; 3068 : #endif
; 3069 :       }

	jmp	SHORT $LN2@SetLocalOf
$LN3@SetLocalOf:
$LN20@SetLocalOf:

; 3070 :     }
; 3071 :     if (ymmflag) XYZMMsize = 32;

	movzx	eax, BYTE PTR ymmflag$[rsp]
	test	eax, eax
	je	SHORT $LN24@SetLocalOf
	mov	DWORD PTR XYZMMsize, 32			; 00000020H
	jmp	SHORT $LN25@SetLocalOf
$LN24@SetLocalOf:

; 3072 :     else XYZMMsize = 16;

	mov	DWORD PTR XYZMMsize, 16
$LN25@SetLocalOf:

; 3073 : 
; 3074 :     if (
; 3075 : #if STACKBASESUPP
; 3076 :         info->fpo
; 3077 : #endif
; 3078 : #if AMD64_SUPPORT
; 3079 :         || rspalign

	mov	rax, QWORD PTR info$[rsp]
	movzx	eax, BYTE PTR [rax+128]
	shr	al, 7
	and	al, 1
	movzx	eax, al
	test	eax, eax
	jne	SHORT $LN27@SetLocalOf
	cmp	DWORD PTR rspalign$[rsp], 0
	je	$LN26@SetLocalOf
$LN27@SetLocalOf:

; 3080 : #endif
; 3081 :        ) {
; 3082 :         /* count registers to be saved ABOVE local variables.
; 3083 :          * v2.06: the list may contain xmm registers, which have size 16!
; 3084 :          */
; 3085 :         if ( info->regslist ) {

	mov	rax, QWORD PTR info$[rsp]
	cmp	QWORD PTR [rax], 0
	je	$LN28@SetLocalOf

; 3086 :             int         cnt;
; 3087 :             uint_16     *regs;
; 3088 :             for( regs = info->regslist, cnt = *regs++; cnt; cnt--, regs++ )

	mov	rax, QWORD PTR info$[rsp]
	mov	rax, QWORD PTR [rax]
	mov	QWORD PTR regs$5[rsp], rax
	mov	rax, QWORD PTR regs$5[rsp]
	movzx	eax, WORD PTR [rax]
	mov	DWORD PTR cnt$2[rsp], eax
	mov	rax, QWORD PTR regs$5[rsp]
	add	rax, 2
	mov	QWORD PTR regs$5[rsp], rax
	jmp	SHORT $LN7@SetLocalOf
$LN5@SetLocalOf:
	mov	eax, DWORD PTR cnt$2[rsp]
	dec	eax
	mov	DWORD PTR cnt$2[rsp], eax
	mov	rax, QWORD PTR regs$5[rsp]
	add	rax, 2
	mov	QWORD PTR regs$5[rsp], rax
$LN7@SetLocalOf:
	cmp	DWORD PTR cnt$2[rsp], 0
	je	SHORT $LN6@SetLocalOf

; 3089 :                 if (( GetValueSp( *regs ) & OP_XMM )||( GetValueSp( *regs ) & OP_YMM )

	mov	rax, QWORD PTR regs$5[rsp]
	movzx	eax, WORD PTR [rax]
	imul	rax, rax, 12
	lea	rcx, OFFSET FLAT:SpecialTable
	mov	eax, DWORD PTR [rcx+rax]
	and	eax, 32					; 00000020H
	test	eax, eax
	jne	SHORT $LN31@SetLocalOf
	mov	rax, QWORD PTR regs$5[rsp]
	movzx	eax, WORD PTR [rax]
	imul	rax, rax, 12
	lea	rcx, OFFSET FLAT:SpecialTable
	mov	eax, DWORD PTR [rcx+rax]
	and	eax, 128				; 00000080H
	test	eax, eax
	je	SHORT $LN29@SetLocalOf
$LN31@SetLocalOf:

; 3090 : #if EVEXSUPP    
; 3091 :                   || ( GetValueSp( *regs ) & OP_ZMM )
; 3092 : #endif
; 3093 :                 )cntxmm++;

	mov	eax, DWORD PTR cntxmm$[rsp]
	inc	eax
	mov	DWORD PTR cntxmm$[rsp], eax
	jmp	SHORT $LN30@SetLocalOf
$LN29@SetLocalOf:

; 3094 :                 else
; 3095 :                   cntstd++;

	mov	eax, DWORD PTR cntstd$[rsp]
	inc	eax
	mov	DWORD PTR cntstd$[rsp], eax
$LN30@SetLocalOf:
	jmp	SHORT $LN5@SetLocalOf
$LN6@SetLocalOf:
$LN28@SetLocalOf:

; 3096 :         }        
; 3097 :         /* in case there's no frame register, adjust start offset. */
; 3098 :         if ( info->parasize == 0 && info->locallist == NULL  )

	mov	rax, QWORD PTR info$[rsp]
	cmp	DWORD PTR [rax+32], 0
	jne	SHORT $LN32@SetLocalOf
	mov	rax, QWORD PTR info$[rsp]
	cmp	QWORD PTR [rax+16], 0
	jne	SHORT $LN32@SetLocalOf

; 3099 :             start = CurrWordSize;

	movzx	eax, BYTE PTR ModuleInfo+406
	mov	DWORD PTR start$[rsp], eax
$LN32@SetLocalOf:

; 3100 :         if (info->fpo && !(ModuleInfo.win64_flags & W64F_HABRAN)) start = CurrWordSize;

	mov	rax, QWORD PTR info$[rsp]
	movzx	eax, BYTE PTR [rax+128]
	shr	al, 7
	and	al, 1
	movzx	eax, al
	test	eax, eax
	je	SHORT $LN33@SetLocalOf
	movzx	eax, BYTE PTR ModuleInfo+413
	and	eax, 11
	test	eax, eax
	jne	SHORT $LN33@SetLocalOf
	movzx	eax, BYTE PTR ModuleInfo+406
	mov	DWORD PTR start$[rsp], eax
$LN33@SetLocalOf:

; 3101 : #if AMD64_SUPPORT
; 3102 :         if (ModuleInfo.win64_flags & W64F_HABRAN){

	movzx	eax, BYTE PTR ModuleInfo+413
	and	eax, 11
	test	eax, eax
	je	SHORT $LN34@SetLocalOf

; 3103 :          // info->localsize += start;
; 3104 :           cntstd = info->pushed_reg;

	mov	rax, QWORD PTR info$[rsp]
	mov	eax, DWORD PTR [rax+104]
	mov	DWORD PTR cntstd$[rsp], eax

; 3105 :           if (rspalign && cntxmm) {

	cmp	DWORD PTR rspalign$[rsp], 0
	je	SHORT $LN36@SetLocalOf
	cmp	DWORD PTR cntxmm$[rsp], 0
	je	SHORT $LN36@SetLocalOf

; 3106 :               if (!(cntstd & 1)) info->localsize += 8;

	mov	eax, DWORD PTR cntstd$[rsp]
	and	eax, 1
	test	eax, eax
	jne	SHORT $LN37@SetLocalOf
	mov	rax, QWORD PTR info$[rsp]
	mov	eax, DWORD PTR [rax+36]
	add	eax, 8
	mov	rcx, QWORD PTR info$[rsp]
	mov	DWORD PTR [rcx+36], eax
$LN37@SetLocalOf:

; 3107 :               info->localsize += XYZMMsize * cntxmm;

	mov	eax, DWORD PTR XYZMMsize
	imul	eax, DWORD PTR cntxmm$[rsp]
	mov	rcx, QWORD PTR info$[rsp]
	add	eax, DWORD PTR [rcx+36]
	mov	rcx, QWORD PTR info$[rsp]
	mov	DWORD PTR [rcx+36], eax
$LN36@SetLocalOf:

; 3108 :               }
; 3109 :            }

	jmp	SHORT $LN35@SetLocalOf
$LN34@SetLocalOf:

; 3110 :         else 
; 3111 :         {
; 3112 :           if (rspalign) {

	cmp	DWORD PTR rspalign$[rsp], 0
	je	SHORT $LN38@SetLocalOf

; 3113 :             info->localsize = start + cntstd * CurrWordSize;

	movzx	eax, BYTE PTR ModuleInfo+406
	mov	ecx, DWORD PTR cntstd$[rsp]
	imul	ecx, eax
	mov	eax, ecx
	mov	ecx, DWORD PTR start$[rsp]
	add	ecx, eax
	mov	eax, ecx
	mov	rcx, QWORD PTR info$[rsp]
	mov	DWORD PTR [rcx+36], eax

; 3114 :             if (cntxmm) {

	cmp	DWORD PTR cntxmm$[rsp], 0
	je	SHORT $LN39@SetLocalOf

; 3115 :               info->localsize += XYZMMsize * cntxmm;

	mov	eax, DWORD PTR XYZMMsize
	imul	eax, DWORD PTR cntxmm$[rsp]
	mov	rcx, QWORD PTR info$[rsp]
	add	eax, DWORD PTR [rcx+36]
	mov	rcx, QWORD PTR info$[rsp]
	mov	DWORD PTR [rcx+36], eax

; 3116 :               info->localsize = ROUND_UP(info->localsize, 16);

	mov	rax, QWORD PTR info$[rsp]
	mov	eax, DWORD PTR [rax+36]
	add	eax, 15
	and	eax, -16				; fffffff0H
	mov	rcx, QWORD PTR info$[rsp]
	mov	DWORD PTR [rcx+36], eax
$LN39@SetLocalOf:
$LN38@SetLocalOf:
$LN35@SetLocalOf:

; 3117 :             }
; 3118 :           }
; 3119 :         }
; 3120 : #endif
; 3121 :         DebugMsg1(("SetLocalOffsets(%s): cntxmm=%u cntstd=%u start=%u align=%u localsize=%u\n", CurrProc->sym.name, cntxmm, cntstd, start, align, info->localsize ));

	mov	rax, QWORD PTR info$[rsp]
	mov	eax, DWORD PTR [rax+36]
	mov	DWORD PTR [rsp+48], eax
	mov	eax, DWORD PTR align$[rsp]
	mov	DWORD PTR [rsp+40], eax
	mov	eax, DWORD PTR start$[rsp]
	mov	DWORD PTR [rsp+32], eax
	mov	r9d, DWORD PTR cntstd$[rsp]
	mov	r8d, DWORD PTR cntxmm$[rsp]
	mov	rax, QWORD PTR CurrProc
	mov	rdx, QWORD PTR [rax+8]
	lea	rcx, OFFSET FLAT:$SG12645
	call	DoDebugMsg1
$LN26@SetLocalOf:

; 3122 :     }
; 3123 : #endif
; 3124 : 
; 3125 :     /* scan the locals list and set member sym.offset */
; 3126 :     for( curr = info->locallist; curr; curr = curr->nextlocal ) {

	mov	rax, QWORD PTR info$[rsp]
	mov	rax, QWORD PTR [rax+16]
	mov	QWORD PTR curr$[rsp], rax
	jmp	SHORT $LN10@SetLocalOf
$LN8@SetLocalOf:
	mov	rax, QWORD PTR curr$[rsp]
	mov	rax, QWORD PTR [rax+112]
	mov	QWORD PTR curr$[rsp], rax
$LN10@SetLocalOf:
	cmp	QWORD PTR curr$[rsp], 0
	je	$LN9@SetLocalOf

; 3127 :         uint_32 itemsize = ( curr->sym.total_size == 0 ? 0 : curr->sym.total_size / curr->sym.total_length );

	mov	rax, QWORD PTR curr$[rsp]
	cmp	DWORD PTR [rax+56], 0
	jne	SHORT $LN58@SetLocalOf
	mov	DWORD PTR tv219[rsp], 0
	jmp	SHORT $LN59@SetLocalOf
$LN58@SetLocalOf:
	xor	edx, edx
	mov	rax, QWORD PTR curr$[rsp]
	mov	eax, DWORD PTR [rax+56]
	mov	rcx, QWORD PTR curr$[rsp]
	div	DWORD PTR [rcx+64]
	mov	DWORD PTR tv219[rsp], eax
$LN59@SetLocalOf:
	mov	eax, DWORD PTR tv219[rsp]
	mov	DWORD PTR itemsize$1[rsp], eax

; 3128 :         if (ModuleInfo.win64_flags & W64F_HABRAN){

	movzx	eax, BYTE PTR ModuleInfo+413
	and	eax, 11
	test	eax, eax
	je	SHORT $LN40@SetLocalOf

; 3129 :           int n = 0;

	mov	DWORD PTR n$6[rsp], 0

; 3130 :           if (curr->sym.isarray) n = curr->sym.total_size & 0x7;

	mov	rax, QWORD PTR curr$[rsp]
	movzx	eax, BYTE PTR [rax+41]
	shr	al, 1
	and	al, 1
	movzx	eax, al
	test	eax, eax
	je	SHORT $LN41@SetLocalOf
	mov	rax, QWORD PTR curr$[rsp]
	mov	eax, DWORD PTR [rax+56]
	and	eax, 7
	mov	DWORD PTR n$6[rsp], eax
$LN41@SetLocalOf:

; 3131 :           curr->sym.offset = info->localsize + n; //that works

	mov	rax, QWORD PTR info$[rsp]
	mov	eax, DWORD PTR [rax+36]
	add	eax, DWORD PTR n$6[rsp]
	mov	rcx, QWORD PTR curr$[rsp]
	mov	DWORD PTR [rcx+16], eax
$LN40@SetLocalOf:

; 3132 :         }
; 3133 :         info->localsize += curr->sym.total_size;

	mov	rax, QWORD PTR info$[rsp]
	mov	eax, DWORD PTR [rax+36]
	mov	rcx, QWORD PTR curr$[rsp]
	add	eax, DWORD PTR [rcx+56]
	mov	rcx, QWORD PTR info$[rsp]
	mov	DWORD PTR [rcx+36], eax

; 3134 :         if ( itemsize > align )

	mov	eax, DWORD PTR align$[rsp]
	cmp	DWORD PTR itemsize$1[rsp], eax
	jbe	SHORT $LN42@SetLocalOf

; 3135 :             info->localsize = ROUND_UP( info->localsize, align );

	mov	rax, QWORD PTR info$[rsp]
	mov	eax, DWORD PTR [rax+36]
	mov	ecx, DWORD PTR align$[rsp]
	lea	eax, DWORD PTR [rax+rcx-1]
	mov	ecx, DWORD PTR align$[rsp]
	dec	ecx
	not	ecx
	and	eax, ecx
	mov	rcx, QWORD PTR info$[rsp]
	mov	DWORD PTR [rcx+36], eax
	jmp	SHORT $LN43@SetLocalOf
$LN42@SetLocalOf:

; 3136 :         else if ( itemsize ) /* v2.04: skip if size == 0 */

	cmp	DWORD PTR itemsize$1[rsp], 0
	je	SHORT $LN44@SetLocalOf

; 3137 :             info->localsize = ROUND_UP( info->localsize, itemsize );

	mov	rax, QWORD PTR info$[rsp]
	mov	eax, DWORD PTR [rax+36]
	mov	ecx, DWORD PTR itemsize$1[rsp]
	lea	eax, DWORD PTR [rax+rcx-1]
	mov	ecx, DWORD PTR itemsize$1[rsp]
	dec	ecx
	not	ecx
	and	eax, ecx
	mov	rcx, QWORD PTR info$[rsp]
	mov	DWORD PTR [rcx+36], eax
$LN44@SetLocalOf:
$LN43@SetLocalOf:

; 3138 :         if (!(ModuleInfo.win64_flags & W64F_HABRAN))

	movzx	eax, BYTE PTR ModuleInfo+413
	and	eax, 11
	test	eax, eax
	jne	SHORT $LN45@SetLocalOf

; 3139 :         curr->sym.offset = - info->localsize;

	mov	rax, QWORD PTR info$[rsp]
	mov	eax, DWORD PTR [rax+36]
	neg	eax
	mov	rcx, QWORD PTR curr$[rsp]
	mov	DWORD PTR [rcx+16], eax
$LN45@SetLocalOf:

; 3140 :         DebugMsg1(("SetLocalOffsets(%s): offset of %s (size=%u) set to %d\n", CurrProc->sym.name, curr->sym.name, curr->sym.total_size, curr->sym.offset));

	mov	rax, QWORD PTR curr$[rsp]
	mov	eax, DWORD PTR [rax+16]
	mov	DWORD PTR [rsp+32], eax
	mov	rax, QWORD PTR curr$[rsp]
	mov	r9d, DWORD PTR [rax+56]
	mov	rax, QWORD PTR curr$[rsp]
	mov	r8, QWORD PTR [rax+8]
	mov	rax, QWORD PTR CurrProc
	mov	rdx, QWORD PTR [rax+8]
	lea	rcx, OFFSET FLAT:$SG12652
	call	DoDebugMsg1

; 3141 :     }

	jmp	$LN8@SetLocalOf
$LN9@SetLocalOf:

; 3142 : 
; 3143 :     /* v2.11: localsize must be rounded before offset adjustment if fpo */
; 3144 :     if (!(ModuleInfo.win64_flags & W64F_HABRAN))

	movzx	eax, BYTE PTR ModuleInfo+413
	and	eax, 11
	test	eax, eax
	jne	SHORT $LN46@SetLocalOf

; 3145 :     info->localsize = ROUND_UP( info->localsize, CurrWordSize );

	movzx	eax, BYTE PTR ModuleInfo+406
	mov	rcx, QWORD PTR info$[rsp]
	mov	ecx, DWORD PTR [rcx+36]
	lea	eax, DWORD PTR [rcx+rax-1]
	movzx	ecx, BYTE PTR ModuleInfo+406
	dec	ecx
	not	ecx
	and	eax, ecx
	mov	rcx, QWORD PTR info$[rsp]
	mov	DWORD PTR [rcx+36], eax
$LN46@SetLocalOf:

; 3146 : #if AMD64_SUPPORT
; 3147 :     /* RSP 16-byte alignment? */
; 3148 :     if ( rspalign ) {

	cmp	DWORD PTR rspalign$[rsp], 0
	je	SHORT $LN47@SetLocalOf

; 3149 :       if (ModuleInfo.win64_flags & W64F_HABRAN)info->localsize = ROUND_UP(info->localsize, 8);

	movzx	eax, BYTE PTR ModuleInfo+413
	and	eax, 11
	test	eax, eax
	je	SHORT $LN48@SetLocalOf
	mov	rax, QWORD PTR info$[rsp]
	mov	eax, DWORD PTR [rax+36]
	add	eax, 7
	and	eax, -8					; fffffff8H
	mov	rcx, QWORD PTR info$[rsp]
	mov	DWORD PTR [rcx+36], eax
	jmp	SHORT $LN49@SetLocalOf
$LN48@SetLocalOf:

; 3150 :       else  info->localsize = ROUND_UP( info->localsize, 16 );

	mov	rax, QWORD PTR info$[rsp]
	mov	eax, DWORD PTR [rax+36]
	add	eax, 15
	and	eax, -16				; fffffff0H
	mov	rcx, QWORD PTR info$[rsp]
	mov	DWORD PTR [rcx+36], eax
$LN49@SetLocalOf:
$LN47@SetLocalOf:

; 3151 :     }
; 3152 : #endif
; 3153 : 
; 3154 :     DebugMsg1(("SetLocalOffsets(%s): localsize=%u after processing locals\n", CurrProc->sym.name, info->localsize ));

	mov	rax, QWORD PTR info$[rsp]
	mov	r8d, DWORD PTR [rax+36]
	mov	rax, QWORD PTR CurrProc
	mov	rdx, QWORD PTR [rax+8]
	lea	rcx, OFFSET FLAT:$SG12657
	call	DoDebugMsg1

; 3155 : 
; 3156 : #if STACKBASESUPP
; 3157 :     /* v2.11: recalculate offsets for params and locals if there's no frame pointer.
; 3158 :      * Problem in 64-bit: option win64:2 triggers the "stack space reservation" feature -
; 3159 :      * but the final value of this space is known at the procedure's END only.
; 3160 :      * Hence in this case the values calculated below are "preliminary".
; 3161 :      */
; 3162 :     if (info->fpo) {

	mov	rax, QWORD PTR info$[rsp]
	movzx	eax, BYTE PTR [rax+128]
	shr	al, 7
	and	al, 1
	movzx	eax, al
	test	eax, eax
	je	$LN50@SetLocalOf

; 3163 :       unsigned localadj;
; 3164 :       unsigned paramadj;
; 3165 : #if AMD64_SUPPORT
; 3166 :       if (rspalign) {

	cmp	DWORD PTR rspalign$[rsp], 0
	je	SHORT $LN51@SetLocalOf

; 3167 :         localadj = info->localsize;

	mov	rax, QWORD PTR info$[rsp]
	mov	eax, DWORD PTR [rax+36]
	mov	DWORD PTR localadj$3[rsp], eax

; 3168 :         if (!(ModuleInfo.win64_flags & W64F_HABRAN))

	movzx	eax, BYTE PTR ModuleInfo+413
	and	eax, 11
	test	eax, eax
	jne	SHORT $LN53@SetLocalOf

; 3169 :           paramadj = info->localsize - CurrWordSize - start;

	movzx	eax, BYTE PTR ModuleInfo+406
	mov	rcx, QWORD PTR info$[rsp]
	mov	ecx, DWORD PTR [rcx+36]
	sub	ecx, eax
	mov	eax, ecx
	sub	eax, DWORD PTR start$[rsp]
	mov	DWORD PTR paramadj$4[rsp], eax
$LN53@SetLocalOf:

; 3170 :       }

	jmp	SHORT $LN52@SetLocalOf
$LN51@SetLocalOf:

; 3171 :       else 
; 3172 :       {
; 3173 : #endif
; 3174 :         localadj = info->localsize + cntstd * CurrWordSize;

	movzx	eax, BYTE PTR ModuleInfo+406
	mov	ecx, DWORD PTR cntstd$[rsp]
	imul	ecx, eax
	mov	eax, ecx
	mov	rcx, QWORD PTR info$[rsp]
	add	eax, DWORD PTR [rcx+36]
	mov	DWORD PTR localadj$3[rsp], eax

; 3175 :         paramadj = info->localsize + cntstd * CurrWordSize - CurrWordSize;

	movzx	eax, BYTE PTR ModuleInfo+406
	mov	ecx, DWORD PTR cntstd$[rsp]
	imul	ecx, eax
	mov	eax, ecx
	mov	rcx, QWORD PTR info$[rsp]
	mov	ecx, DWORD PTR [rcx+36]
	add	ecx, eax
	mov	eax, ecx
	movzx	ecx, BYTE PTR ModuleInfo+406
	sub	eax, ecx
	mov	DWORD PTR paramadj$4[rsp], eax
$LN52@SetLocalOf:

; 3176 : #if AMD64_SUPPORT
; 3177 :       }
; 3178 : #endif
; 3179 :       if (!(ModuleInfo.win64_flags & W64F_HABRAN)){

	movzx	eax, BYTE PTR ModuleInfo+413
	and	eax, 11
	test	eax, eax
	jne	$LN54@SetLocalOf

; 3180 :         DebugMsg1(("SetLocalOffsets(%s): FPO, adjusting offsets\n", CurrProc->sym.name));

	mov	rax, QWORD PTR CurrProc
	mov	rdx, QWORD PTR [rax+8]
	lea	rcx, OFFSET FLAT:$SG12663
	call	DoDebugMsg1

; 3181 :         /* subtract CurrWordSize value for params, since no space is required to save the frame pointer value */
; 3182 :         for (curr = info->locallist; curr; curr = curr->nextlocal) {

	mov	rax, QWORD PTR info$[rsp]
	mov	rax, QWORD PTR [rax+16]
	mov	QWORD PTR curr$[rsp], rax
	jmp	SHORT $LN13@SetLocalOf
$LN11@SetLocalOf:
	mov	rax, QWORD PTR curr$[rsp]
	mov	rax, QWORD PTR [rax+112]
	mov	QWORD PTR curr$[rsp], rax
$LN13@SetLocalOf:
	cmp	QWORD PTR curr$[rsp], 0
	je	SHORT $LN12@SetLocalOf

; 3183 :           DebugMsg1(("SetLocalOffsets(%s): FPO, offset for %s %4d -> %4d\n", CurrProc->sym.name, curr->sym.name, curr->sym.offset, curr->sym.offset + localadj));

	mov	rax, QWORD PTR curr$[rsp]
	mov	eax, DWORD PTR [rax+16]
	add	eax, DWORD PTR localadj$3[rsp]
	mov	DWORD PTR [rsp+32], eax
	mov	rax, QWORD PTR curr$[rsp]
	mov	r9d, DWORD PTR [rax+16]
	mov	rax, QWORD PTR curr$[rsp]
	mov	r8, QWORD PTR [rax+8]
	mov	rax, QWORD PTR CurrProc
	mov	rdx, QWORD PTR [rax+8]
	lea	rcx, OFFSET FLAT:$SG12664
	call	DoDebugMsg1

; 3184 :           curr->sym.offset += localadj;

	mov	rax, QWORD PTR curr$[rsp]
	mov	eax, DWORD PTR [rax+16]
	add	eax, DWORD PTR localadj$3[rsp]
	mov	rcx, QWORD PTR curr$[rsp]
	mov	DWORD PTR [rcx+16], eax

; 3185 :         }

	jmp	SHORT $LN11@SetLocalOf
$LN12@SetLocalOf:

; 3186 :         for (curr = info->paralist; curr; curr = curr->nextparam) {

	mov	rax, QWORD PTR info$[rsp]
	mov	rax, QWORD PTR [rax+8]
	mov	QWORD PTR curr$[rsp], rax
	jmp	SHORT $LN16@SetLocalOf
$LN14@SetLocalOf:
	mov	rax, QWORD PTR curr$[rsp]
	mov	rax, QWORD PTR [rax+112]
	mov	QWORD PTR curr$[rsp], rax
$LN16@SetLocalOf:
	cmp	QWORD PTR curr$[rsp], 0
	je	SHORT $LN15@SetLocalOf

; 3187 :           DebugMsg1(("SetLocalOffsets(%s): FPO, offset for %s %4d -> %4d\n", CurrProc->sym.name, curr->sym.name, curr->sym.offset, curr->sym.offset + paramadj));

	mov	rax, QWORD PTR curr$[rsp]
	mov	eax, DWORD PTR [rax+16]
	add	eax, DWORD PTR paramadj$4[rsp]
	mov	DWORD PTR [rsp+32], eax
	mov	rax, QWORD PTR curr$[rsp]
	mov	r9d, DWORD PTR [rax+16]
	mov	rax, QWORD PTR curr$[rsp]
	mov	r8, QWORD PTR [rax+8]
	mov	rax, QWORD PTR CurrProc
	mov	rdx, QWORD PTR [rax+8]
	lea	rcx, OFFSET FLAT:$SG12665
	call	DoDebugMsg1

; 3188 :           curr->sym.offset += paramadj;

	mov	rax, QWORD PTR curr$[rsp]
	mov	eax, DWORD PTR [rax+16]
	add	eax, DWORD PTR paramadj$4[rsp]
	mov	rcx, QWORD PTR curr$[rsp]
	mov	DWORD PTR [rcx+16], eax

; 3189 :         }

	jmp	SHORT $LN14@SetLocalOf
$LN15@SetLocalOf:
$LN54@SetLocalOf:
$LN50@SetLocalOf:

; 3190 :       }
; 3191 :     }
; 3192 : #endif
; 3193 : 
; 3194 : #if AMD64_SUPPORT
; 3195 :     /* v2.12: if the space used for register saves has been added to localsize,
; 3196 :      * the part that covers "pushed" GPRs has to be subtracted now, before prologue code is generated.
; 3197 :      */
; 3198 :     if (!(ModuleInfo.win64_flags & W64F_HABRAN)){

	movzx	eax, BYTE PTR ModuleInfo+413
	and	eax, 11
	test	eax, eax
	jne	SHORT $LN55@SetLocalOf

; 3199 :       if (rspalign) {

	cmp	DWORD PTR rspalign$[rsp], 0
	je	SHORT $LN56@SetLocalOf

; 3200 :         info->localsize -= cntstd * 8 + start;

	mov	eax, DWORD PTR start$[rsp]
	mov	ecx, DWORD PTR cntstd$[rsp]
	lea	eax, DWORD PTR [rax+rcx*8]
	mov	rcx, QWORD PTR info$[rsp]
	mov	ecx, DWORD PTR [rcx+36]
	sub	ecx, eax
	mov	eax, ecx
	mov	rcx, QWORD PTR info$[rsp]
	mov	DWORD PTR [rcx+36], eax

; 3201 :         DebugMsg1(("SetLocalOffsets(%s): final localsize=%u\n", CurrProc->sym.name, info->localsize));

	mov	rax, QWORD PTR info$[rsp]
	mov	r8d, DWORD PTR [rax+36]
	mov	rax, QWORD PTR CurrProc
	mov	rdx, QWORD PTR [rax+8]
	lea	rcx, OFFSET FLAT:$SG12668
	call	DoDebugMsg1
$LN56@SetLocalOf:
$LN55@SetLocalOf:

; 3202 :       }
; 3203 :     }
; 3204 : #endif
; 3205 : }

	add	rsp, 152				; 00000098H
	ret	0
SetLocalOffsets ENDP
_TEXT	ENDS
; Function compile flags: /Odtp
; File d:\hjwasm\hjwasm2.13.1s\hjwasm2.13.1s\proc.c
_TEXT	SEGMENT
olddotname$ = 64
i$ = 68
segname$ = 72
xdataofs$ = 80
simplespec$ = 84
tv129 = 88
tv147 = 92
pfx$1 = 96
xdata$ = 104
$T2 = 112
$T3 = 120
tv261 = 128
segnamebuff$ = 136
buffer$ = 160
__$ArrayPad$ = 288
proc$ = 320
WriteSEHData PROC

; 1686 : {

	mov	QWORD PTR [rsp+8], rcx
	sub	rsp, 312				; 00000138H
	mov	rax, QWORD PTR __security_cookie
	xor	rax, rsp
	mov	QWORD PTR __$ArrayPad$[rsp], rax

; 1687 :     struct dsym *xdata;
; 1688 :     char *segname = ".xdata";

	lea	rax, OFFSET FLAT:$SG12021
	mov	QWORD PTR segname$[rsp], rax

; 1689 :     int i;
; 1690 :     int simplespec;
; 1691 :     uint_8 olddotname;
; 1692 :     uint_32 xdataofs = 0;

	mov	DWORD PTR xdataofs$[rsp], 0

; 1693 :     char segnamebuff[12];
; 1694 :     char buffer[128];
; 1695 : 
; 1696 : 	/* 2016-02-10 John Hankinson - Don't bother writing SEH data for ELF64 Win64 ABI hack */
; 1697 : 	if (Options.output_format == OFORMAT_ELF)

	cmp	DWORD PTR Options+160, 3
	jne	SHORT $LN5@WriteSEHDa

; 1698 : 	return;

	jmp	$LN1@WriteSEHDa
$LN5@WriteSEHDa:

; 1699 : 
; 1700 :     if ( endprolog_found == FALSE ) {

	movzx	eax, BYTE PTR endprolog_found
	test	eax, eax
	jne	SHORT $LN6@WriteSEHDa

; 1701 :         EmitErr( MISSING_ENDPROLOG, proc->sym.name );

	mov	rax, QWORD PTR proc$[rsp]
	mov	rdx, QWORD PTR [rax+8]
	mov	ecx, 260				; 00000104H
	call	EmitErr
$LN6@WriteSEHDa:

; 1702 :     }
; 1703 :     if ( unw_segs_defined )

	movzx	eax, BYTE PTR unw_segs_defined
	test	eax, eax
	je	SHORT $LN7@WriteSEHDa

; 1704 :         AddLineQueueX("%s %r", segname, T_SEGMENT );

	mov	r8d, 441				; 000001b9H
	mov	rdx, QWORD PTR segname$[rsp]
	lea	rcx, OFFSET FLAT:$SG12026
	call	AddLineQueueX
	jmp	SHORT $LN8@WriteSEHDa
$LN7@WriteSEHDa:

; 1705 :     else {
; 1706 :         AddLineQueueX("%s %r align(%u) flat read 'DATA'", segname, T_SEGMENT, 8 );

	mov	r9d, 8
	mov	r8d, 441				; 000001b9H
	mov	rdx, QWORD PTR segname$[rsp]
	lea	rcx, OFFSET FLAT:$SG12027
	call	AddLineQueueX

; 1707 :         AddLineQueue("$xdatasym label near");

	lea	rcx, OFFSET FLAT:$SG12028
	call	AddLineQueue
$LN8@WriteSEHDa:

; 1708 :     }
; 1709 :     xdataofs = 0;

	mov	DWORD PTR xdataofs$[rsp], 0

; 1710 :     xdata = (struct dsym *)SymSearch( segname );

	mov	rcx, QWORD PTR segname$[rsp]
	call	SymFind
	mov	QWORD PTR xdata$[rsp], rax

; 1711 :     if ( xdata ) {

	cmp	QWORD PTR xdata$[rsp], 0
	je	SHORT $LN9@WriteSEHDa

; 1712 :         /* v2.11: changed offset to max_offset.
; 1713 :          * However, value structinfo.current_loc might even be better.
; 1714 :          */
; 1715 :         xdataofs = xdata->sym.max_offset;

	mov	rax, QWORD PTR xdata$[rsp]
	mov	eax, DWORD PTR [rax+56]
	mov	DWORD PTR xdataofs$[rsp], eax
$LN9@WriteSEHDa:

; 1716 :     }
; 1717 : 
; 1718 :     /* write the .xdata stuff (a UNWIND_INFO entry )
; 1719 :      * v2.11: 't'-suffix added to ensure the values are correct if radix is != 10.
; 1720 :      */
; 1721 :     AddLineQueueX( "db %ut + (0%xh shl 3), %ut, %ut, 0%xh + (0%xh shl 4)",

	movzx	eax, BYTE PTR unw_info+3
	shr	al, 4
	and	al, 15
	movzx	eax, al
	movzx	ecx, BYTE PTR unw_info+3
	and	cl, 15
	movzx	ecx, cl
	movzx	edx, BYTE PTR unw_info+2
	movzx	r8d, BYTE PTR unw_info+1
	movzx	r9d, BYTE PTR unw_info
	shr	r9b, 3
	and	r9b, 31
	movzx	r9d, r9b
	mov	DWORD PTR tv129[rsp], r9d
	mov	DWORD PTR [rsp+48], eax
	mov	DWORD PTR [rsp+40], ecx
	mov	DWORD PTR [rsp+32], edx
	mov	r9d, r8d
	mov	eax, DWORD PTR tv129[rsp]
	mov	r8d, eax
	mov	edx, 1
	lea	rcx, OFFSET FLAT:$SG12030
	call	AddLineQueueX

; 1722 :             UNW_VERSION, unw_info.Flags, unw_info.SizeOfProlog,
; 1723 :             unw_info.CountOfCodes, unw_info.FrameRegister, unw_info.FrameOffset );
; 1724 :     if ( unw_info.CountOfCodes ) {

	movzx	eax, BYTE PTR unw_info+2
	test	eax, eax
	je	$LN10@WriteSEHDa

; 1725 :         char *pfx = "dw";

	lea	rax, OFFSET FLAT:$SG12032
	mov	QWORD PTR pfx$1[rsp], rax

; 1726 :         buffer[0] = NULLC;

	mov	eax, 1
	imul	rax, rax, 0
	mov	QWORD PTR $T2[rsp], rax
	cmp	QWORD PTR $T2[rsp], 128			; 00000080H
	jae	SHORT $LN19@WriteSEHDa
	jmp	SHORT $LN20@WriteSEHDa
$LN19@WriteSEHDa:
	call	__report_rangecheckfailure
$LN20@WriteSEHDa:
	mov	rax, QWORD PTR $T2[rsp]
	mov	BYTE PTR buffer$[rsp+rax], 0

; 1727 :         /* write the codes from right to left */
; 1728 :         for ( i = unw_info.CountOfCodes; i ; i-- ) {

	movzx	eax, BYTE PTR unw_info+2
	mov	DWORD PTR i$[rsp], eax
	jmp	SHORT $LN4@WriteSEHDa
$LN2@WriteSEHDa:
	mov	eax, DWORD PTR i$[rsp]
	dec	eax
	mov	DWORD PTR i$[rsp], eax
$LN4@WriteSEHDa:
	cmp	DWORD PTR i$[rsp], 0
	je	$LN3@WriteSEHDa

; 1729 :             /* v2.11: use field FrameOffset */
; 1730 :             //sprintf( buffer + strlen( buffer ), "%s 0%xh", pfx, unw_code[i-1] );
; 1731 :             sprintf( buffer + strlen( buffer ), "%s 0%xh", pfx, unw_code[i-1].FrameOffset );

	mov	eax, DWORD PTR i$[rsp]
	dec	eax
	cdqe
	lea	rcx, OFFSET FLAT:unw_code
	movzx	eax, WORD PTR [rcx+rax*2]
	mov	DWORD PTR tv147[rsp], eax
	lea	rcx, QWORD PTR buffer$[rsp]
	call	strlen
	lea	rax, QWORD PTR buffer$[rsp+rax]
	mov	ecx, DWORD PTR tv147[rsp]
	mov	r9d, ecx
	mov	r8, QWORD PTR pfx$1[rsp]
	lea	rdx, OFFSET FLAT:$SG12033
	mov	rcx, rax
	call	sprintf

; 1732 :             pfx = ",";

	lea	rax, OFFSET FLAT:$SG12034
	mov	QWORD PTR pfx$1[rsp], rax

; 1733 :             if ( i == 1 || strlen( buffer ) > 72 ) {

	cmp	DWORD PTR i$[rsp], 1
	je	SHORT $LN12@WriteSEHDa
	lea	rcx, QWORD PTR buffer$[rsp]
	call	strlen
	cmp	rax, 72					; 00000048H
	jbe	SHORT $LN11@WriteSEHDa
$LN12@WriteSEHDa:

; 1734 :                 AddLineQueue( buffer );

	lea	rcx, QWORD PTR buffer$[rsp]
	call	AddLineQueue

; 1735 :                 buffer[0] = NULLC;

	mov	eax, 1
	imul	rax, rax, 0
	mov	QWORD PTR $T3[rsp], rax
	cmp	QWORD PTR $T3[rsp], 128			; 00000080H
	jae	SHORT $LN21@WriteSEHDa
	jmp	SHORT $LN22@WriteSEHDa
$LN21@WriteSEHDa:
	call	__report_rangecheckfailure
$LN22@WriteSEHDa:
	mov	rax, QWORD PTR $T3[rsp]
	mov	BYTE PTR buffer$[rsp+rax], 0

; 1736 :                 pfx = "dw";

	lea	rax, OFFSET FLAT:$SG12037
	mov	QWORD PTR pfx$1[rsp], rax
$LN11@WriteSEHDa:

; 1737 :             }
; 1738 :         }

	jmp	$LN2@WriteSEHDa
$LN3@WriteSEHDa:
$LN10@WriteSEHDa:

; 1739 :     }
; 1740 :     /* make sure the unwind codes array has an even number of entries */
; 1741 :     AddLineQueueX( "%r 4", T_ALIGN );

	mov	edx, 439				; 000001b7H
	lea	rcx, OFFSET FLAT:$SG12038
	call	AddLineQueueX

; 1742 : 
; 1743 :     if ( proc->e.procinfo->exc_handler ) {

	mov	rax, QWORD PTR proc$[rsp]
	mov	rax, QWORD PTR [rax+96]
	cmp	QWORD PTR [rax+88], 0
	je	SHORT $LN13@WriteSEHDa

; 1744 :         AddLineQueueX( "dd %r %s", T_IMAGEREL, proc->e.procinfo->exc_handler->name );

	mov	rax, QWORD PTR proc$[rsp]
	mov	rax, QWORD PTR [rax+96]
	mov	rax, QWORD PTR [rax+88]
	mov	r8, QWORD PTR [rax+8]
	mov	edx, 233				; 000000e9H
	lea	rcx, OFFSET FLAT:$SG12040
	call	AddLineQueueX

; 1745 :         AddLineQueueX( "%r 8", T_ALIGN );

	mov	edx, 439				; 000001b7H
	lea	rcx, OFFSET FLAT:$SG12041
	call	AddLineQueueX
$LN13@WriteSEHDa:

; 1746 :     }
; 1747 :     AddLineQueueX( "%s %r", segname, T_ENDS );

	mov	r8d, 442				; 000001baH
	mov	rdx, QWORD PTR segname$[rsp]
	lea	rcx, OFFSET FLAT:$SG12042
	call	AddLineQueueX

; 1748 : 
; 1749 :     /* v2.07: ensure that .pdata items are sorted */
; 1750 :     if ( 0 == strcmp( SimGetSegName( SIM_CODE ), proc->sym.segment->name ) ) {

	mov	rax, QWORD PTR proc$[rsp]
	mov	rax, QWORD PTR [rax+24]
	mov	QWORD PTR tv261[rsp], rax
	xor	ecx, ecx
	call	SimGetSegName
	mov	rcx, QWORD PTR tv261[rsp]
	mov	rdx, QWORD PTR [rcx+8]
	mov	rcx, rax
	call	strcmp
	test	eax, eax
	jne	SHORT $LN14@WriteSEHDa

; 1751 :         segname = ".pdata";

	lea	rax, OFFSET FLAT:$SG12045
	mov	QWORD PTR segname$[rsp], rax

; 1752 :         simplespec = ( unw_segs_defined & 1 );

	movzx	eax, BYTE PTR unw_segs_defined
	and	eax, 1
	mov	DWORD PTR simplespec$[rsp], eax

; 1753 :         unw_segs_defined = 3;

	mov	BYTE PTR unw_segs_defined, 3

; 1754 :     } else {

	jmp	SHORT $LN15@WriteSEHDa
$LN14@WriteSEHDa:

; 1755 :         segname = segnamebuff;

	lea	rax, QWORD PTR segnamebuff$[rsp]
	mov	QWORD PTR segname$[rsp], rax

; 1756 :         sprintf( segname, ".pdata$%04u", GetSegIdx( proc->sym.segment ) );

	mov	rax, QWORD PTR proc$[rsp]
	mov	rcx, QWORD PTR [rax+24]
	call	GetSegIdx
	mov	r8d, eax
	lea	rdx, OFFSET FLAT:$SG12046
	mov	rcx, QWORD PTR segname$[rsp]
	call	sprintf

; 1757 :         simplespec = 0;

	mov	DWORD PTR simplespec$[rsp], 0

; 1758 :         unw_segs_defined |= 2;

	movzx	eax, BYTE PTR unw_segs_defined
	or	eax, 2
	mov	BYTE PTR unw_segs_defined, al
$LN15@WriteSEHDa:

; 1759 :     }
; 1760 : 
; 1761 :     if ( simplespec )

	cmp	DWORD PTR simplespec$[rsp], 0
	je	SHORT $LN16@WriteSEHDa

; 1762 :         AddLineQueueX( "%s %r", segname, T_SEGMENT );

	mov	r8d, 441				; 000001b9H
	mov	rdx, QWORD PTR segname$[rsp]
	lea	rcx, OFFSET FLAT:$SG12049
	call	AddLineQueueX
	jmp	SHORT $LN17@WriteSEHDa
$LN16@WriteSEHDa:

; 1763 :     else
; 1764 :         AddLineQueueX( "%s %r align(%u) flat read 'DATA'", segname, T_SEGMENT, 4 );

	mov	r9d, 4
	mov	r8d, 441				; 000001b9H
	mov	rdx, QWORD PTR segname$[rsp]
	lea	rcx, OFFSET FLAT:$SG12050
	call	AddLineQueueX
$LN17@WriteSEHDa:

; 1765 :     /* write the .pdata stuff ( type IMAGE_RUNTIME_FUNCTION_ENTRY )*/
; 1766 :     AddLineQueueX( "dd %r %s, %r %s+0%xh, %r $xdatasym+0%xh",

	mov	eax, DWORD PTR xdataofs$[rsp]
	mov	DWORD PTR [rsp+56], eax
	mov	DWORD PTR [rsp+48], 233			; 000000e9H
	mov	rax, QWORD PTR proc$[rsp]
	mov	eax, DWORD PTR [rax+56]
	mov	DWORD PTR [rsp+40], eax
	mov	rax, QWORD PTR proc$[rsp]
	mov	rax, QWORD PTR [rax+8]
	mov	QWORD PTR [rsp+32], rax
	mov	r9d, 233				; 000000e9H
	mov	rax, QWORD PTR proc$[rsp]
	mov	r8, QWORD PTR [rax+8]
	mov	edx, 233				; 000000e9H
	lea	rcx, OFFSET FLAT:$SG12051
	call	AddLineQueueX

; 1767 :                   T_IMAGEREL, proc->sym.name,
; 1768 :                   T_IMAGEREL, proc->sym.name, proc->sym.total_size,
; 1769 :                   T_IMAGEREL, xdataofs );
; 1770 :     AddLineQueueX("%s %r", segname, T_ENDS );

	mov	r8d, 442				; 000001baH
	mov	rdx, QWORD PTR segname$[rsp]
	lea	rcx, OFFSET FLAT:$SG12052
	call	AddLineQueueX

; 1771 :     olddotname = ModuleInfo.dotname;

	mov	eax, DWORD PTR ModuleInfo+408
	shr	eax, 4
	and	eax, 1
	mov	BYTE PTR olddotname$[rsp], al

; 1772 :     ModuleInfo.dotname = TRUE; /* set OPTION DOTNAME because .pdata and .xdata */

	mov	eax, DWORD PTR ModuleInfo+408
	or	eax, 16
	mov	DWORD PTR ModuleInfo+408, eax

; 1773 :     RunLineQueue();

	call	RunLineQueue

; 1774 :     ModuleInfo.dotname = olddotname;

	movzx	eax, BYTE PTR olddotname$[rsp]
	and	eax, 1
	shl	eax, 4
	mov	ecx, DWORD PTR ModuleInfo+408
	and	ecx, -17				; ffffffefH
	or	ecx, eax
	mov	eax, ecx
	mov	DWORD PTR ModuleInfo+408, eax
$LN1@WriteSEHDa:
$LN18@WriteSEHDa:

; 1775 :     return;
; 1776 : }

	mov	rcx, QWORD PTR __$ArrayPad$[rsp]
	xor	rcx, rsp
	call	__security_check_cookie
	add	rsp, 312				; 00000138H
	ret	0
WriteSEHData ENDP
_TEXT	ENDS
; Function compile flags: /Odtp
; File d:\hjwasm\hjwasm2.13.1s\hjwasm2.13.1s\proc.c
_TEXT	SEGMENT
sym$ = 48
is_global$ = 56
oldpubstate$ = 57
ofs$ = 60
tv146 = 64
tv306 = 68
tv365 = 72
name$ = 80
tv260 = 88
tv276 = 96
i$ = 128
tokenarray$ = 136
ProcDir	PROC

; 1452 : {

$LN42:
	mov	QWORD PTR [rsp+16], rdx
	mov	DWORD PTR [rsp+8], ecx
	sub	rsp, 120				; 00000078H

; 1453 :     struct asym         *sym;
; 1454 :     unsigned int        ofs;
; 1455 :     char                *name;
; 1456 :     bool                oldpubstate;
; 1457 :     bool                is_global;
; 1458 : 
; 1459 :     DebugMsg1(("ProcDir enter, curr ofs=%X\n", GetCurrOffset() ));

	call	GetCurrOffset
	mov	edx, eax
	lea	rcx, OFFSET FLAT:$SG11944
	call	DoDebugMsg1

; 1460 :     if( i != 1 ) {

	cmp	DWORD PTR i$[rsp], 1
	je	SHORT $LN2@ProcDir

; 1461 :         return( EmitErr( SYNTAX_ERROR_EX, tokenarray[i].string_ptr ) );

	movsxd	rax, DWORD PTR i$[rsp]
	imul	rax, rax, 32				; 00000020H
	mov	rcx, QWORD PTR tokenarray$[rsp]
	mov	rdx, QWORD PTR [rcx+rax+8]
	mov	ecx, 209				; 000000d1H
	call	EmitErr
	jmp	$LN1@ProcDir
$LN2@ProcDir:

; 1462 :     }
; 1463 :     /* v2.04b: check was missing */
; 1464 :     if( CurrSeg == NULL ) {

	cmp	QWORD PTR ModuleInfo+432, 0
	jne	SHORT $LN3@ProcDir

; 1465 :         return( EmitError( MUST_BE_IN_SEGMENT_BLOCK ) );

	mov	ecx, 82					; 00000052H
	call	EmitError
	jmp	$LN1@ProcDir
$LN3@ProcDir:

; 1466 :     }
; 1467 : 
; 1468 :     name = tokenarray[0].string_ptr;

	mov	eax, 32					; 00000020H
	imul	rax, rax, 0
	mov	rcx, QWORD PTR tokenarray$[rsp]
	mov	rax, QWORD PTR [rcx+rax+8]
	mov	QWORD PTR name$[rsp], rax

; 1469 : 
; 1470 :     if( CurrProc != NULL ) {

	cmp	QWORD PTR CurrProc, 0
	je	SHORT $LN4@ProcDir

; 1471 : 
; 1472 :         /* this is not needed for HJWasm, but Masm will reject nested
; 1473 :          * procs if there are params, locals or used registers.
; 1474 :          */
; 1475 :         if ( CurrProc->e.procinfo->paralist ||
; 1476 : #if AMD64_SUPPORT
; 1477 :             CurrProc->e.procinfo->isframe ||
; 1478 : #endif
; 1479 :             CurrProc->e.procinfo->locallist ||

	mov	rax, QWORD PTR CurrProc
	mov	rax, QWORD PTR [rax+96]
	cmp	QWORD PTR [rax+8], 0
	jne	SHORT $LN6@ProcDir
	mov	rax, QWORD PTR CurrProc
	mov	rax, QWORD PTR [rax+96]
	movzx	eax, BYTE PTR [rax+128]
	shr	al, 6
	and	al, 1
	movzx	eax, al
	test	eax, eax
	jne	SHORT $LN6@ProcDir
	mov	rax, QWORD PTR CurrProc
	mov	rax, QWORD PTR [rax+96]
	cmp	QWORD PTR [rax+16], 0
	jne	SHORT $LN6@ProcDir
	mov	rax, QWORD PTR CurrProc
	mov	rax, QWORD PTR [rax+96]
	cmp	QWORD PTR [rax], 0
	je	SHORT $LN5@ProcDir
$LN6@ProcDir:

; 1480 :             CurrProc->e.procinfo->regslist ) {
; 1481 :             return( EmitErr( CANNOT_NEST_PROCEDURES, name ) );

	mov	rdx, QWORD PTR name$[rsp]
	mov	ecx, 93					; 0000005dH
	call	EmitErr
	jmp	$LN1@ProcDir
$LN5@ProcDir:

; 1482 :         }
; 1483 :         /* nested procs ... push currproc on a stack */
; 1484 :         push_proc( CurrProc );

	mov	rcx, QWORD PTR CurrProc
	call	push_proc
$LN4@ProcDir:

; 1485 :     }
; 1486 : 
; 1487 : 
; 1488 :     if ( ModuleInfo.procalign ) {

	movzx	eax, BYTE PTR ModuleInfo+399
	test	eax, eax
	je	SHORT $LN7@ProcDir

; 1489 :         AlignCurrOffset( ModuleInfo.procalign );

	movzx	eax, BYTE PTR ModuleInfo+399
	mov	ecx, eax
	call	AlignCurrOffset
$LN7@ProcDir:

; 1490 :     }
; 1491 : 
; 1492 :     i++; /* go past PROC */

	mov	eax, DWORD PTR i$[rsp]
	inc	eax
	mov	DWORD PTR i$[rsp], eax

; 1493 : 
; 1494 :     sym = SymSearch( name );

	mov	rcx, QWORD PTR name$[rsp]
	call	SymFind
	mov	QWORD PTR sym$[rsp], rax

; 1495 : 
; 1496 :     if( Parse_Pass == PASS_1 ) {

	cmp	DWORD PTR Parse_Pass, 0
	jne	$LN8@ProcDir

; 1497 : 
; 1498 :         oldpubstate = sym ? sym->ispublic : FALSE;

	cmp	QWORD PTR sym$[rsp], 0
	je	SHORT $LN32@ProcDir
	mov	rax, QWORD PTR sym$[rsp]
	movzx	eax, BYTE PTR [rax+40]
	shr	al, 7
	and	al, 1
	movzx	eax, al
	mov	DWORD PTR tv146[rsp], eax
	jmp	SHORT $LN33@ProcDir
$LN32@ProcDir:
	mov	DWORD PTR tv146[rsp], 0
$LN33@ProcDir:
	movzx	eax, BYTE PTR tv146[rsp]
	mov	BYTE PTR oldpubstate$[rsp], al

; 1499 :         if( sym == NULL || sym->state == SYM_UNDEFINED ) {

	cmp	QWORD PTR sym$[rsp], 0
	je	SHORT $LN12@ProcDir
	mov	rax, QWORD PTR sym$[rsp]
	cmp	DWORD PTR [rax+32], 0
	jne	SHORT $LN10@ProcDir
$LN12@ProcDir:

; 1500 :             sym = CreateProc( sym, name, SYM_INTERNAL );

	mov	r8d, 1
	mov	rdx, QWORD PTR name$[rsp]
	mov	rcx, QWORD PTR sym$[rsp]
	call	CreateProc
	mov	QWORD PTR sym$[rsp], rax

; 1501 :             is_global = FALSE;

	mov	BYTE PTR is_global$[rsp], 0
	jmp	$LN11@ProcDir
$LN10@ProcDir:

; 1502 :         } else if ( sym->state == SYM_EXTERNAL && sym->weak == TRUE ) {

	mov	rax, QWORD PTR sym$[rsp]
	cmp	DWORD PTR [rax+32], 2
	jne	$LN13@ProcDir
	mov	rax, QWORD PTR sym$[rsp]
	movzx	eax, BYTE PTR [rax+47]
	shr	al, 3
	and	al, 1
	movzx	eax, al
	cmp	eax, 1
	jne	SHORT $LN13@ProcDir

; 1503 :             /* PROTO or EXTERNDEF item */
; 1504 :             is_global = TRUE;

	mov	BYTE PTR is_global$[rsp], 1

; 1505 :             if ( sym->isproc == TRUE  ) {

	mov	rax, QWORD PTR sym$[rsp]
	movzx	eax, BYTE PTR [rax+41]
	shr	al, 3
	and	al, 1
	movzx	eax, al
	cmp	eax, 1
	jne	SHORT $LN15@ProcDir

; 1506 :                 /* don't create the procinfo extension; it exists already */
; 1507 :                 procidx++; /* v2.04: added */

	mov	eax, DWORD PTR procidx
	inc	eax
	mov	DWORD PTR procidx, eax

; 1508 :                 if ( Options.line_numbers ) {

	movzx	eax, BYTE PTR Options+1
	test	eax, eax
	je	SHORT $LN17@ProcDir

; 1509 :                     sym->debuginfo = LclAlloc( sizeof( struct debug_info ) );

	mov	ecx, 24
	call	LclAlloc
	mov	rcx, QWORD PTR sym$[rsp]
	mov	QWORD PTR [rcx+64], rax

; 1510 :                     sym->debuginfo->file = get_curr_srcfile();

	call	get_curr_srcfile
	mov	rcx, QWORD PTR sym$[rsp]
	mov	rcx, QWORD PTR [rcx+64]
	mov	WORD PTR [rcx+14], ax
$LN17@ProcDir:

; 1511 :                 }
; 1512 :             } else {

	jmp	SHORT $LN16@ProcDir
$LN15@ProcDir:

; 1513 :                 /* it's a simple EXTERNDEF. Create a PROC item!
; 1514 :                  * this will be SYM_INTERNAL */
; 1515 :                 /* v2.03: don't call dir_free(), it'll clear field Ofssize */
; 1516 :                 //dir_free( (struct dsym *)sym );
; 1517 :                 sym = CreateProc( sym, name, SYM_INTERNAL );

	mov	r8d, 1
	mov	rdx, QWORD PTR name$[rsp]
	mov	rcx, QWORD PTR sym$[rsp]
	call	CreateProc
	mov	QWORD PTR sym$[rsp], rax
$LN16@ProcDir:

; 1518 :             }
; 1519 :         } else {

	jmp	SHORT $LN14@ProcDir
$LN13@ProcDir:

; 1520 :             /* Masm won't reject a redefinition if "certain" parameters
; 1521 :              * won't change. However, in a lot of cases one gets "internal assembler error".
; 1522 :              * Hence this "feature" isn't active in hjwasm.
; 1523 :              */
; 1524 :             //} else if ( sym->state != SYM_INTERNAL || sym->isproc != TRUE ||
; 1525 :             //           sym->offset != GetCurrOffset() || sym->segment != &CurrSeg->sym ) {
; 1526 :             return( EmitErr( SYMBOL_REDEFINITION, sym->name ) );

	mov	rax, QWORD PTR sym$[rsp]
	mov	rdx, QWORD PTR [rax+8]
	mov	ecx, 143				; 0000008fH
	call	EmitErr
	jmp	$LN1@ProcDir
$LN14@ProcDir:
$LN11@ProcDir:

; 1527 :         }
; 1528 :         SetSymSegOfs( sym );

	mov	rcx, QWORD PTR sym$[rsp]
	call	SetSymSegOfs

; 1529 : 
; 1530 :         SymClearLocal();

	call	SymClearLocal

; 1531 : 
; 1532 : #if STACKBASESUPP
; 1533 :         /* v2.11: added. Note that fpo flag is only set if there ARE params! */
; 1534 :         ((struct dsym *)sym)->e.procinfo->basereg = ModuleInfo.basereg[ModuleInfo.Ofssize];

	movzx	eax, BYTE PTR ModuleInfo+404
	lea	rcx, OFFSET FLAT:ModuleInfo+500
	mov	rdx, QWORD PTR sym$[rsp]
	mov	rdx, QWORD PTR [rdx+96]
	movzx	eax, WORD PTR [rcx+rax*4]
	mov	WORD PTR [rdx+130], ax

; 1535 : #endif
; 1536 :         /* CurrProc must be set, it's used inside SymFind() and SymLCreate()! */
; 1537 :         CurrProc = (struct dsym *)sym;

	mov	rax, QWORD PTR sym$[rsp]
	mov	QWORD PTR CurrProc, rax

; 1538 :         if( ParseProc( (struct dsym *)sym, i, tokenarray, TRUE, ModuleInfo.langtype ) == ERROR ) {

	mov	eax, DWORD PTR ModuleInfo+364
	mov	DWORD PTR [rsp+32], eax
	mov	r9b, 1
	mov	r8, QWORD PTR tokenarray$[rsp]
	mov	edx, DWORD PTR i$[rsp]
	mov	rcx, QWORD PTR sym$[rsp]
	call	ParseProc
	cmp	eax, -1
	jne	SHORT $LN18@ProcDir

; 1539 :             CurrProc = NULL;

	mov	QWORD PTR CurrProc, 0

; 1540 :             return( ERROR );

	mov	eax, -1
	jmp	$LN1@ProcDir
$LN18@ProcDir:

; 1541 :         }
; 1542 :         /* v2.04: added */
; 1543 :         if ( is_global && Options.masm8_proc_visibility )

	movzx	eax, BYTE PTR is_global$[rsp]
	test	eax, eax
	je	SHORT $LN19@ProcDir
	movzx	eax, BYTE PTR Options+145
	test	eax, eax
	je	SHORT $LN19@ProcDir

; 1544 :             sym->ispublic = TRUE;

	mov	rax, QWORD PTR sym$[rsp]
	movzx	eax, BYTE PTR [rax+40]
	or	al, 128					; 00000080H
	mov	rcx, QWORD PTR sym$[rsp]
	mov	BYTE PTR [rcx+40], al
$LN19@ProcDir:

; 1545 : 
; 1546 :         /* if there was a PROTO (or EXTERNDEF name:PROTO ...),
; 1547 :          * change symbol to SYM_INTERNAL!
; 1548 :          */
; 1549 :         if ( sym->state == SYM_EXTERNAL && sym->isproc == TRUE ) {

	mov	rax, QWORD PTR sym$[rsp]
	cmp	DWORD PTR [rax+32], 2
	jne	$LN20@ProcDir
	mov	rax, QWORD PTR sym$[rsp]
	movzx	eax, BYTE PTR [rax+41]
	shr	al, 3
	and	al, 1
	movzx	eax, al
	cmp	eax, 1
	jne	SHORT $LN20@ProcDir

; 1550 :             sym_ext2int( sym );

	mov	rcx, QWORD PTR sym$[rsp]
	call	sym_ext2int

; 1551 :             /* v2.11: added ( may be better to call CreateProc() - currently not possible ) */
; 1552 :             if ( SymTables[TAB_PROC].head == NULL )

	mov	eax, 16
	imul	rax, rax, 4
	lea	rcx, OFFSET FLAT:SymTables
	cmp	QWORD PTR [rcx+rax], 0
	jne	SHORT $LN21@ProcDir

; 1553 :                 SymTables[TAB_PROC].head = (struct dsym *)sym;

	mov	eax, 16
	imul	rax, rax, 4
	lea	rcx, OFFSET FLAT:SymTables
	mov	rdx, QWORD PTR sym$[rsp]
	mov	QWORD PTR [rcx+rax], rdx
	jmp	SHORT $LN22@ProcDir
$LN21@ProcDir:

; 1554 :             else {
; 1555 :                 SymTables[TAB_PROC].tail->nextproc = (struct dsym *)sym;

	mov	eax, 16
	imul	rax, rax, 4
	lea	rcx, OFFSET FLAT:SymTables
	mov	rax, QWORD PTR [rcx+rax+8]
	mov	rcx, QWORD PTR sym$[rsp]
	mov	QWORD PTR [rax+112], rcx
$LN22@ProcDir:

; 1556 :             }
; 1557 :             SymTables[TAB_PROC].tail = (struct dsym *)sym;

	mov	eax, 16
	imul	rax, rax, 4
	lea	rcx, OFFSET FLAT:SymTables
	mov	rdx, QWORD PTR sym$[rsp]
	mov	QWORD PTR [rcx+rax+8], rdx
$LN20@ProcDir:

; 1558 :         }
; 1559 : 
; 1560 :         /* v2.11: sym->isproc is set inside ParseProc() */
; 1561 :         //sym->isproc = TRUE;
; 1562 : #if STACKBASESUPP
; 1563 :         /* v2.11: Note that fpo flag is only set if there ARE params ( or locals )! */
; 1564 :         if ( CurrProc->e.procinfo->paralist && GetRegNo( CurrProc->e.procinfo->basereg ) == 4 )

	mov	rax, QWORD PTR CurrProc
	mov	rax, QWORD PTR [rax+96]
	cmp	QWORD PTR [rax+8], 0
	je	SHORT $LN23@ProcDir
	mov	rax, QWORD PTR CurrProc
	mov	rax, QWORD PTR [rax+96]
	movzx	eax, WORD PTR [rax+130]
	imul	rax, rax, 12
	lea	rcx, OFFSET FLAT:SpecialTable
	movzx	eax, BYTE PTR [rcx+rax+10]
	cmp	eax, 4
	jne	SHORT $LN23@ProcDir

; 1565 :             CurrProc->e.procinfo->fpo = TRUE;

	mov	rax, QWORD PTR CurrProc
	mov	rax, QWORD PTR [rax+96]
	movzx	eax, BYTE PTR [rax+128]
	or	al, 128					; 00000080H
	mov	rcx, QWORD PTR CurrProc
	mov	rcx, QWORD PTR [rcx+96]
	mov	BYTE PTR [rcx+128], al
$LN23@ProcDir:

; 1566 : #endif
; 1567 :         if( sym->ispublic == TRUE && oldpubstate == FALSE )

	mov	rax, QWORD PTR sym$[rsp]
	movzx	eax, BYTE PTR [rax+40]
	shr	al, 7
	and	al, 1
	movzx	eax, al
	cmp	eax, 1
	jne	SHORT $LN24@ProcDir
	movzx	eax, BYTE PTR oldpubstate$[rsp]
	test	eax, eax
	jne	SHORT $LN24@ProcDir

; 1568 :             AddPublicData( sym );

	mov	rcx, QWORD PTR sym$[rsp]
	call	AddPublicData
$LN24@ProcDir:

; 1569 : 
; 1570 :         /* v2.04: add the proc to the list of labels attached to curr segment.
; 1571 :          * this allows to reduce the number of passes (see fixup.c)
; 1572 :          */
; 1573 :         ((struct dsym *)sym)->next = (struct dsym *)CurrSeg->e.seginfo->label_list;

	mov	rax, QWORD PTR ModuleInfo+432
	mov	rax, QWORD PTR [rax+96]
	mov	rcx, QWORD PTR sym$[rsp]
	mov	rax, QWORD PTR [rax+32]
	mov	QWORD PTR [rcx+104], rax

; 1574 :         CurrSeg->e.seginfo->label_list = sym;

	mov	rax, QWORD PTR ModuleInfo+432
	mov	rax, QWORD PTR [rax+96]
	mov	rcx, QWORD PTR sym$[rsp]
	mov	QWORD PTR [rax+32], rcx

; 1575 : 
; 1576 :     } else {

	jmp	$LN9@ProcDir
$LN8@ProcDir:

; 1577 :         /**/myassert( sym != NULL );

	cmp	QWORD PTR sym$[rsp], 0
	je	SHORT $LN34@ProcDir
	mov	DWORD PTR tv260[rsp], 0
	jmp	SHORT $LN35@ProcDir
$LN34@ProcDir:
	mov	edx, 1577				; 00000629H
	lea	rcx, OFFSET FLAT:$SG11968
	call	InternalError
	mov	DWORD PTR tv260[rsp], eax
$LN35@ProcDir:

; 1578 : 
; 1579 :         procidx++;

	mov	eax, DWORD PTR procidx
	inc	eax
	mov	DWORD PTR procidx, eax

; 1580 :         sym->isdefined = TRUE;

	mov	rax, QWORD PTR sym$[rsp]
	movzx	eax, BYTE PTR [rax+40]
	or	al, 2
	mov	rcx, QWORD PTR sym$[rsp]
	mov	BYTE PTR [rcx+40], al

; 1581 : 
; 1582 :         SymSetLocal( sym );

	mov	rcx, QWORD PTR sym$[rsp]
	call	SymSetLocal

; 1583 : 
; 1584 :         /* it's necessary to check for a phase error here
; 1585 :          as it is done in LabelCreate() and data_dir()!
; 1586 :          */
; 1587 :         ofs = GetCurrOffset();

	call	GetCurrOffset
	mov	DWORD PTR ofs$[rsp], eax

; 1588 : 
; 1589 :         if ( ofs != sym->offset) {

	mov	rax, QWORD PTR sym$[rsp]
	mov	eax, DWORD PTR [rax+16]
	cmp	DWORD PTR ofs$[rsp], eax
	je	SHORT $LN25@ProcDir

; 1590 :             DebugMsg(("ProcDir(%s): %spass %u, old ofs=%" I32_SPEC "X, new ofs=%" I32_SPEC "X\n",

	movzx	eax, BYTE PTR ModuleInfo+422
	test	eax, eax
	je	SHORT $LN36@ProcDir
	lea	rax, OFFSET FLAT:$SG11970
	mov	QWORD PTR tv276[rsp], rax
	jmp	SHORT $LN37@ProcDir
$LN36@ProcDir:
	lea	rax, OFFSET FLAT:$SG11971
	mov	QWORD PTR tv276[rsp], rax
$LN37@ProcDir:
	mov	eax, DWORD PTR Parse_Pass
	inc	eax
	mov	ecx, DWORD PTR ofs$[rsp]
	mov	DWORD PTR [rsp+40], ecx
	mov	rcx, QWORD PTR sym$[rsp]
	mov	ecx, DWORD PTR [rcx+16]
	mov	DWORD PTR [rsp+32], ecx
	mov	r9d, eax
	mov	r8, QWORD PTR tv276[rsp]
	mov	rax, QWORD PTR sym$[rsp]
	mov	rdx, QWORD PTR [rax+8]
	lea	rcx, OFFSET FLAT:$SG11972
	call	DoDebugMsg

; 1591 :                     sym->name,
; 1592 :                     ModuleInfo.PhaseError ? "" : "phase error ",
; 1593 :                     Parse_Pass+1, sym->offset, ofs ));
; 1594 :             sym->offset = ofs;

	mov	rax, QWORD PTR sym$[rsp]
	mov	ecx, DWORD PTR ofs$[rsp]
	mov	DWORD PTR [rax+16], ecx

; 1595 :             ModuleInfo.PhaseError = TRUE;

	mov	BYTE PTR ModuleInfo+422, 1
$LN25@ProcDir:

; 1596 :         }
; 1597 :         CurrProc = (struct dsym *)sym;

	mov	rax, QWORD PTR sym$[rsp]
	mov	QWORD PTR CurrProc, rax

; 1598 : #if AMD64_SUPPORT
