; Listing generated by Microsoft (R) Optimizing Compiler Version 14.00.40310.41 

include listing.inc

INCLUDELIB LIBCMT
INCLUDELIB OLDNAMES

_BSS	SEGMENT
$SG6464	DB	01H DUP (?)
	ALIGN	4

$SG6326	DB	01H DUP (?)
	ALIGN	4

$SG5825	DB	01H DUP (?)
_BSS	ENDS
_DATA	SEGMENT
COMM	decoflags:BYTE
COMM	MODULEARCH:BYTE
COMM	broadflags:BYTE
COMM	ZEROLOCALS:BYTE
COMM	evex:BYTE
$SG5721	DB	'.', 00H
	ORG $+2
$SG5722	DB	'%s%s', 00H
	ORG $+3
$SG5730	DB	'.', 00H
	ORG $+2
$SG5731	DB	'%s%s', 00H
	ORG $+3
$SG5741	DB	'rn-sae', 00H
	ORG $+1
$SG5745	DB	'rd-sae', 00H
	ORG $+1
$SG5749	DB	'ru-sae', 00H
	ORG $+1
$SG5753	DB	'rz-sae', 00H
	ORG $+1
$SG5757	DB	'sae', 00H
$SG5829	DB	'@@', 00H
_DATA	ENDS
CONST	SEGMENT
unaryop	DQ	FLAT:low_op
	DQ	FLAT:high_op
	DQ	FLAT:lowword_op
	DQ	FLAT:highword_op
	DQ	FLAT:low32_op
	DQ	FLAT:high32_op
	DQ	FLAT:offset_op
	DQ	FLAT:offset_op
	DQ	FLAT:offset_op
	DQ	FLAT:offset_op
	DQ	FLAT:seg_op
	DQ	FLAT:opattr_op
	DQ	FLAT:opattr_op
	DQ	FLAT:sizlen_op
	DQ	FLAT:sizlen_op
	DQ	FLAT:sizlen_op
	DQ	FLAT:sizlen_op
	DQ	FLAT:short_op
	DQ	FLAT:this_op
	DQ	FLAT:type_op
	DQ	FLAT:wimask_op
	DQ	FLAT:wimask_op
CONST	ENDS
_DATA	SEGMENT
	ORG $+1
$SG6818	DB	'.', 00H
	ORG $+2
$SG6819	DB	'%s%s', 00H
	ORG $+3
$SG6827	DB	'.', 00H
	ORG $+2
$SG6828	DB	'%s%s', 00H
	ORG $+3
$SG6835	DB	'.', 00H
	ORG $+2
$SG6836	DB	'%s%s', 00H
	ORG $+3
$SG6844	DB	'.', 00H
	ORG $+2
$SG6845	DB	'%s%s', 00H
; Function compile flags: /Ogtpy
; File d:\hjwasm\hjwasm2.13.1s\hjwasm2.13.1s\expreval.c
_DATA	ENDS
_TEXT	SEGMENT
opnd$ = 8
init_expr PROC NEAR

; 91   :     opnd->value    = 0;

	xor	eax, eax

; 92   :     opnd->hvalue   = 0;
; 93   :     opnd->hlvalue  = 0;
; 94   :     opnd->quoted_string   = NULL;
; 95   :     opnd->base_reg = NULL;
; 96   :     opnd->idx_reg  = NULL;
; 97   :     opnd->label_tok = NULL;
; 98   :     opnd->override = NULL;
; 99   :     opnd->instr    = EMPTY;

	mov	DWORD PTR [rcx+56], -2

; 100  :     opnd->kind     = EXPR_EMPTY;

	mov	DWORD PTR [rcx+60], -2

; 101  :     opnd->mem_type = MT_EMPTY;

	mov	DWORD PTR [rcx+64], 192			; 000000c0H

; 102  :     opnd->scale    = 0;
; 103  :     opnd->Ofssize  = USE_EMPTY;

	mov	BYTE PTR [rcx+69], 254			; 000000feH
	mov	DWORD PTR [rcx], eax
	mov	DWORD PTR [rcx+4], eax
	mov	QWORD PTR [rcx+8], rax
	mov	QWORD PTR [rcx+16], rax
	mov	QWORD PTR [rcx+24], rax
	mov	QWORD PTR [rcx+32], rax
	mov	QWORD PTR [rcx+40], rax
	mov	QWORD PTR [rcx+48], rax
	mov	BYTE PTR [rcx+68], al

; 104  :     opnd->flags1   = 0;

	mov	BYTE PTR [rcx+72], al

; 105  :     opnd->sym      = NULL;

	mov	QWORD PTR [rcx+80], rax

; 106  :     opnd->mbr      = NULL;

	mov	QWORD PTR [rcx+88], rax

; 107  :     opnd->type     = NULL;

	mov	QWORD PTR [rcx+96], rax

; 108  : }

	ret	0
init_expr ENDP
_TEXT	ENDS
EXTRN	memcpy:NEAR
; Function compile flags: /Ogtpy
_TEXT	SEGMENT
opnd1$ = 8
opnd2$ = 16
TokenAssign PROC NEAR

; 113  : #if 1
; 114  :     /* note that offsetof() is used. This means, don't change position
; 115  :      of field <type> in expr! */
; 116  :     memcpy( opnd1, opnd2, offsetof( struct expr, type ) );

	mov	r8d, 96					; 00000060H

; 117  : #else
; 118  :     opnd1->llvalue  = opnd2->llvalue;
; 119  :     opnd1->hlvalue  = opnd2->hlvalue;
; 120  :     opnd1->quoted_string   = opnd2->quoted_string; /* probably useless */
; 121  :     opnd1->base_reg = opnd2->base_reg;
; 122  :     opnd1->idx_reg  = opnd2->idx_reg;
; 123  :     opnd1->label_tok = opnd2->label_tok;
; 124  :     opnd1->override = opnd2->override;
; 125  :     opnd1->instr    = opnd2->instr;
; 126  :     opnd1->kind     = opnd2->kind;
; 127  :     opnd1->mem_type = opnd2->mem_type;
; 128  :     opnd1->scale    = opnd2->scale;
; 129  :     opnd1->Ofssize  = opnd2->Ofssize;
; 130  :     opnd1->flags1   = opnd2->flags1;
; 131  :     opnd1->sym      = opnd2->sym;
; 132  :     opnd1->mbr      = opnd2->mbr;
; 133  : //  opnd1->type     = opnd2->type;
; 134  : #endif
; 135  : }

	jmp	memcpy
TokenAssign ENDP
_TEXT	ENDS
EXTRN	ModuleInfo:BYTE
EXTRN	__ImageBase:BYTE
_BSS	SEGMENT
	ALIGN	8

fnEmitErr DQ	01H DUP (?)
_BSS	ENDS
xdata	SEGMENT
$unwind$get_precedence DD 010401H
	DD	04204H
xdata	ENDS
pdata	SEGMENT
$pdata$get_precedence DD @imagerel(get_precedence#)
	DD	@imagerel(get_precedence#+272)
	DD	@imagerel($unwind$get_precedence#)
; Function compile flags: /Ogtpy
pdata	ENDS
_TEXT	SEGMENT
item$ = 48
get_precedence PROC NEAR

; 144  : {

	sub	rsp, 40					; 00000028H

; 145  :     /* The following table is taken verbatim from MASM 6.1 Programmer's Guide,
; 146  :      * page 14, Table 1.3.
; 147  : 
; 148  :      * 1            (), []
; 149  :      * 2            LENGTH, SIZE, WIDTH, MASK, LENGTHOF, SIZEOF
; 150  :      * 3            . (structure-field-name operator)
; 151  :      * 4            : (segment override operator), PTR
; 152  :      * 5            LROFFSET, OFFSET, SEG, THIS, TYPE
; 153  :      * 6            HIGH, HIGHWORD, LOW, LOWWORD
; 154  :      * 7            +, - (unary)
; 155  :      * 8            *, /, MOD, SHL, SHR
; 156  :      * 9            +, - (binary)
; 157  :      * 10           EQ, NE, LT, LE, GT, GE
; 158  :      * 11           NOT
; 159  :      * 12           AND
; 160  :      * 13           OR, XOR
; 161  :      * 14           OPATTR, SHORT, .TYPE
; 162  : 
; 163  :      * The following table appears in QuickHelp online documentation for
; 164  :      * both MASM 6.0 and 6.1. It's slightly different!
; 165  : 
; 166  :      * 1            LENGTH, SIZE, WIDTH, MASK
; 167  :      * 2            (), []
; 168  :      * 3            . (structure-field-name operator)
; 169  :      * 4            : (segment override operator), PTR
; 170  :      * 5            THIS, OFFSET, SEG, TYPE
; 171  :      * 6            HIGH, LOW
; 172  :      * 7            +, - (unary)
; 173  :      * 8            *, /, MOD, SHL, SHR
; 174  :      * 9            +, - (binary)
; 175  :      * 10           EQ, NE, LT, LE, GT, GE
; 176  :      * 11           NOT
; 177  :      * 12           AND
; 178  :      * 13           OR, XOR
; 179  :      * 14           SHORT, OPATTR, .TYPE, ADDR
; 180  : 
; 181  :      * japheth: the first table is the prefered one. Reasons:
; 182  :      * - () and [] must be first.
; 183  :      * - it contains operators SIZEOF, LENGTHOF, HIGHWORD, LOWWORD, LROFFSET
; 184  :      * - ADDR is no operator for expressions. It's exclusively used inside
; 185  :      *   INVOKE directive.
; 186  : 
; 187  :      * However, what's wrong in both tables is the precedence of
; 188  :      * the dot operator: Actually for both HJWasm and Wasm the dot precedence
; 189  :      * is 2 and LENGTH, SIZE, ... have precedence 3 instead.
; 190  : 
; 191  :      * Precedence of operator TYPE was 5 in original Wasm source. It has
; 192  :      * been changed to 4, as described in the Masm docs. This allows syntax
; 193  :      * "TYPE DWORD ptr xxx"
; 194  : 
; 195  :      * v2.02: another case which is problematic:
; 196  :      *     mov al,BYTE PTR CS:[]
; 197  :      * Since PTR and ':' have the very same priority, the evaluator will
; 198  :      * first calculate 'BYTE PTR CS'. This is invalid, but didn't matter
; 199  :      * prior to v2.02 because register coercion was never checked for
; 200  :      * plausibility. Solution: priority of ':' is changed from 4 to 3.
; 201  :      */
; 202  : 
; 203  :     switch( item->token ) {

	movzx	eax, BYTE PTR [rcx]
	add	eax, -4
	cmp	eax, 87					; 00000057H
	ja	SHORT $LN7@get_preced
	lea	r8, OFFSET FLAT:__ImageBase
	cdqe
	movzx	eax, BYTE PTR $LN11@get_preced[r8+rax]
	mov	edx, DWORD PTR $LN12@get_preced[r8+rax*4]
	add	rdx, r8
	jmp	rdx
$LN6@get_preced:

; 204  :     case T_UNARY_OPERATOR:
; 205  :     case T_BINARY_OPERATOR:
; 206  :         return( item->precedence );

	movzx	eax, BYTE PTR [rcx+1]

; 232  : }

	add	rsp, 40					; 00000028H
	ret	0
$LN5@get_preced:

; 207  :     case T_OP_BRACKET:
; 208  :     case T_OP_SQ_BRACKET:
; 209  :         /* v2.08: with -Zm, the priority of [] and (), if
; 210  :          * used as binary operator, is 9 (like binary +/-).
; 211  :          * test cases: mov ax,+5[bx]
; 212  :          *             mov ax,-5[bx]
; 213  :          */
; 214  :         //return( 1 );
; 215  :         return( ModuleInfo.m510 ? 9 : 1 );

	mov	eax, DWORD PTR ModuleInfo+408
	and	eax, 128				; 00000080H
	or	eax, 16
	shr	eax, 4

; 232  : }

	add	rsp, 40					; 00000028H
	ret	0
$LN4@get_preced:

; 216  :     case T_DOT:
; 217  :         return( 2 );

	mov	eax, 2

; 232  : }

	add	rsp, 40					; 00000028H
	ret	0
$LN3@get_preced:

; 218  :     case T_COLON:
; 219  :         //return( 4 );
; 220  :         return( 3 ); /* changed for v2.02 */

	mov	eax, 3

; 232  : }

	add	rsp, 40					; 00000028H
	ret	0
$LN2@get_preced:

; 221  :     case '*':
; 222  :     case '/':
; 223  :         return( 8 );

	mov	eax, 8

; 232  : }

	add	rsp, 40					; 00000028H
	ret	0
$LN1@get_preced:

; 224  :     case '+':
; 225  :     case '-':
; 226  :         return( item->specval ? 9 : 7 );

	cmp	BYTE PTR [rcx+1], 0
	mov	eax, 7
	mov	edx, 9
	cmovne	eax, edx

; 232  : }

	add	rsp, 40					; 00000028H
	ret	0
$LN7@get_preced:

; 227  :     }
; 228  :     /* shouldn't happen! */
; 229  :     DebugMsg(("get_precedence: unexpected operator=%s\n", item->string_ptr));
; 230  :     fnEmitErr( SYNTAX_ERROR_EX, item->string_ptr );

	mov	rdx, QWORD PTR [rcx+8]
	mov	ecx, 209				; 000000d1H
	call	QWORD PTR fnEmitErr

; 231  :     return( ERROR );

	mov	eax, -1

; 232  : }

	add	rsp, 40					; 00000028H
	ret	0
	npad	2
$LN12@get_preced:
	DD	$LN6@get_preced
	DD	$LN5@get_preced
	DD	$LN2@get_preced
	DD	$LN1@get_preced
	DD	$LN4@get_preced
	DD	$LN3@get_preced
	DD	$LN7@get_preced
$LN11@get_preced:
	DB	0
	DB	0
	DB	6
	DB	6
	DB	6
	DB	6
	DB	6
	DB	6
	DB	6
	DB	6
	DB	6
	DB	6
	DB	6
	DB	6
	DB	6
	DB	6
	DB	6
	DB	6
	DB	6
	DB	6
	DB	6
	DB	6
	DB	6
	DB	6
	DB	6
	DB	6
	DB	6
	DB	6
	DB	6
	DB	6
	DB	6
	DB	6
	DB	6
	DB	6
	DB	6
	DB	6
	DB	1
	DB	6
	DB	2
	DB	3
	DB	6
	DB	3
	DB	4
	DB	2
	DB	6
	DB	6
	DB	6
	DB	6
	DB	6
	DB	6
	DB	6
	DB	6
	DB	6
	DB	6
	DB	5
	DB	6
	DB	6
	DB	6
	DB	6
	DB	6
	DB	6
	DB	6
	DB	6
	DB	6
	DB	6
	DB	6
	DB	6
	DB	6
	DB	6
	DB	6
	DB	6
	DB	6
	DB	6
	DB	6
	DB	6
	DB	6
	DB	6
	DB	6
	DB	6
	DB	6
	DB	6
	DB	6
	DB	6
	DB	6
	DB	6
	DB	6
	DB	6
	DB	1
get_precedence ENDP
; Function compile flags: /Ogtpy
mem_type$ = 8
Ofssize$ = 16
GetTypeSize PROC NEAR

; 265  : 	if ((mem_type & MT_SPECIAL) == 0) {

	test	cl, cl
	js	SHORT $LN6@GetTypeSiz

; 266  : #if AVXSUPP
; 267  : 		if (mem_type == MT_ZMMWORD)

	cmp	ecx, 63					; 0000003fH
	jne	SHORT $LN7@GetTypeSiz

; 268  : 			return (0x40);

	lea	eax, QWORD PTR [rcx+1]

; 281  : }

	ret	0
$LN7@GetTypeSiz:

; 269  : 		else
; 270  : #endif
; 271  : 			return((mem_type & MT_SIZE_MASK) + 1);

	and	ecx, 31
	lea	eax, DWORD PTR [rcx+1]

; 281  : }

	ret	0
$LN6@GetTypeSiz:

; 272  : 	}
; 273  : 	if (Ofssize == USE_EMPTY)

	cmp	edx, 254				; 000000feH
	jne	SHORT $LN5@GetTypeSiz

; 274  : 		Ofssize = ModuleInfo.Ofssize;

	movzx	edx, BYTE PTR ModuleInfo+404
$LN5@GetTypeSiz:

; 275  : 	switch (mem_type) {

	sub	ecx, 129				; 00000081H
	je	SHORT $LN2@GetTypeSiz
	dec	ecx
	je	SHORT $LN1@GetTypeSiz

; 278  : 	}
; 279  : 	/* shouldn't happen */
; 280  : 	return(0);

	xor	eax, eax

; 281  : }

	ret	0
$LN1@GetTypeSiz:

; 277  : 	case MT_FAR:  return ((Ofssize == USE16) ? LS_FAR16 : 0xFF00 | ((2 << Ofssize) + 2));

	test	edx, edx
	jne	SHORT $LN11@GetTypeSiz
	mov	eax, 65285				; 0000ff05H

; 281  : }

	ret	0
$LN11@GetTypeSiz:

; 277  : 	case MT_FAR:  return ((Ofssize == USE16) ? LS_FAR16 : 0xFF00 | ((2 << Ofssize) + 2));

	mov	ecx, edx
	mov	eax, 2
	shl	eax, cl
	add	eax, 2
	or	eax, 65280				; 0000ff00H

; 281  : }

	ret	0
$LN2@GetTypeSiz:

; 276  : 	case MT_NEAR: return (0xFF00 | (2 << Ofssize));

	mov	ecx, edx
	mov	eax, 2
	shl	eax, cl
	or	eax, 65280				; 0000ff00H

; 281  : }

	ret	0
GetTypeSize ENDP
; Function compile flags: /Ogtpy
record$ = 8
GetRecordMask PROC NEAR

; 291  : #if AMD64_SUPPORT
; 292  :     uint_64 mask = 0;
; 293  : #else
; 294  :     uint_32 mask = 0;
; 295  : #endif
; 296  :     int i;
; 297  :     struct sfield *fl;
; 298  : 
; 299  :     for ( fl = record->e.structinfo->head; fl; fl = fl->next ) {

	mov	rax, QWORD PTR [rcx+104]
	xor	r8d, r8d
	mov	r9, QWORD PTR [rax]
	test	r9, r9
	je	SHORT $LN13@GetRecordM
	npad	1
$LL6@GetRecordM:

; 300  :         struct asym *sym = &fl->sym;
; 301  :         for ( i = sym->offset ;i < sym->offset + sym->total_size; i++ )

	mov	ecx, DWORD PTR [r9+16]
	mov	eax, DWORD PTR [r9+64]
	mov	edx, 1
	lea	r10d, DWORD PTR [rcx+rax]
	rol	edx, cl
	cmp	ecx, r10d
	jae	SHORT $LN5@GetRecordM
	sub	r10d, ecx
	mov	eax, r10d
	npad	2
$LL3@GetRecordM:

; 302  :             mask |= 1 << i;

	movsxd	rcx, edx
	or	r8, rcx
	rol	edx, 1
	dec	rax
	jne	SHORT $LL3@GetRecordM
$LN5@GetRecordM:

; 291  : #if AMD64_SUPPORT
; 292  :     uint_64 mask = 0;
; 293  : #else
; 294  :     uint_32 mask = 0;
; 295  : #endif
; 296  :     int i;
; 297  :     struct sfield *fl;
; 298  : 
; 299  :     for ( fl = record->e.structinfo->head; fl; fl = fl->next ) {

	mov	r9, QWORD PTR [r9+104]
	test	r9, r9
	jne	SHORT $LL6@GetRecordM
$LN13@GetRecordM:

; 303  :     }
; 304  :     return( mask );

	mov	rax, r8

; 305  : }

	ret	0
GetRecordMask ENDP
_TEXT	ENDS
PUBLIC	myatoi128
xdata	SEGMENT
$unwind$myatoi128 DD 010201H
	DD	03002H
xdata	ENDS
pdata	SEGMENT
$pdata$myatoi128 DD @imagerel($LN21#)
	DD	@imagerel($LN21#+116)
	DD	@imagerel($unwind$myatoi128#)
; Function compile flags: /Ogtpy
pdata	ENDS
_TEXT	SEGMENT
src$ = 16
dst$ = 24
base$ = 32
size$ = 40
myatoi128 PROC NEAR

; 316  : {

$LN21:
	push	rbx

; 317  :     uint_32             val;
; 318  :     unsigned            len;
; 319  :     const char          *end = src + size;
; 320  :     uint_16             *px;
; 321  : 
; 322  :     dst[0] = 0;

	xor	eax, eax
	movsxd	r9, r9d
	mov	r11d, r8d
	mov	QWORD PTR [rdx], rax

; 323  :     dst[1] = 0;

	mov	QWORD PTR [rdx+8], rax

; 324  : #if CHEXPREFIX
; 325  :     if (((src[1] | 0x20) == 'x') && (*src == '0')){

	movzx	eax, BYTE PTR [rcx+1]
	or	al, 32					; 00000020H
	add	r9, rcx
	mov	rbx, rdx
	cmp	al, 120					; 00000078H
	mov	r10, rcx
	jne	SHORT $LL6@myatoi128
	cmp	BYTE PTR [rcx], 48			; 00000030H
	jne	SHORT $LL6@myatoi128

; 326  :       src += 2;

	add	r10, 2

; 327  :       end += 2;

	add	r9, 2
$LL6@myatoi128:

; 328  :     }
; 329  : #endif
; 330  :     do {
; 331  :         val = ( *src <= '9' ? *src - '0' : ( *src | 0x20 ) - 'a' + 10 );

	movzx	eax, BYTE PTR [r10]
	cmp	al, 57					; 00000039H
	movsx	ecx, al
	jg	SHORT $LN10@myatoi128
	sub	ecx, 48					; 00000030H
	jmp	SHORT $LN11@myatoi128
$LN10@myatoi128:
	or	ecx, 32					; 00000020H
	sub	ecx, 87					; 00000057H
$LN11@myatoi128:

; 332  :         px = (uint_16 *)dst;

	mov	rdx, rbx

; 333  :         for ( len = ( 2 * sizeof( uint_64 ) ) >> 1; len; len-- ) {

	mov	r8d, 8
$LL3@myatoi128:

; 334  :             val += (uint_32)*px * base;

	movzx	eax, WORD PTR [rdx]

; 335  :             *(px++) = val;

	add	rdx, 2
	imul	eax, r11d
	add	ecx, eax
	mov	WORD PTR [rdx-2], cx

; 336  :             val >>= 16;

	shr	ecx, 16
	add	r8d, -1					; ffffffffH
	jne	SHORT $LL3@myatoi128

; 337  :         };
; 338  :         //myassert( val == 0 ); /* if number doesn't fit in 128 bits */
; 339  :         src++;

	inc	r10

; 340  :     } while( src < end );

	cmp	r10, r9
	jb	SHORT $LL6@myatoi128

; 341  :     return;
; 342  : }

	pop	rbx
	ret	0
myatoi128 ENDP
_TEXT	ENDS
EXTRN	isalpha:NEAR
EXTRN	DefineFlatGroup:NEAR
EXTRN	StackAdj:DWORD
EXTRN	CurrProc:QWORD
EXTRN	SymAlloc:NEAR
EXTRN	sym_add_table:NEAR
EXTRN	SymTables:BYTE
EXTRN	SymLookup:NEAR
EXTRN	Parse_Pass:DWORD
EXTRN	GetAnonymousLabel:NEAR
EXTRN	Options:BYTE
EXTRN	SpecialTable:BYTE
EXTRN	EmitError:NEAR
EXTRN	SearchNameInStruct:NEAR
EXTRN	SymFind:NEAR
EXTRN	sprintf:NEAR
_BSS	SEGMENT
nullmbr	DQ	01H DUP (?)
_BSS	ENDS
xdata	SEGMENT
$unwind$get_operand DD 0123701H
	DD	01bf437H
	DD	01ce429H
	DD	01dd425H
	DD	01ec421H
	DD	023741dH
	DD	0226419H
	DD	0215412H
	DD	020340eH
	DD	01f010aH
xdata	ENDS
pdata	SEGMENT
$pdata$get_operand DD @imagerel(get_operand#)
	DD	@imagerel(get_operand#+3033)
	DD	@imagerel($unwind$get_operand#)
; Function compile flags: /Ogtpy
pdata	ENDS
_TEXT	SEGMENT
labelbuff$ = 32
tok$ = 56
clabel$ = 96
opnd$ = 256
idx$ = 264
tokenarray$ = 272
flags$ = 280
get_operand PROC NEAR

; 360  : {

	mov	rax, rsp
	sub	rsp, 248				; 000000f8H
	mov	QWORD PTR [rax+8], rbx
	mov	QWORD PTR [rax+16], rbp

; 361  :     char        *tmp;
; 362  :     struct asym *sym;
; 363  :     int         i = *idx;

	movsxd	rbp, DWORD PTR [rdx]
	mov	QWORD PTR [rax+24], rsi
	mov	QWORD PTR [rax+32], rdi
	mov	QWORD PTR [rax-8], r12
	mov	QWORD PTR [rax-16], r13
	mov	QWORD PTR [rax-24], r14

; 364  :     int         j;
; 365  :     char        labelbuff[16];/* for anonymous labels */
; 366  : 	int         cnt;
; 367  : 
; 368  : 	char clabel[100];
; 369  : 	struct asym *labelsym;
; 370  : 	struct asym *labelsym2;
; 371  : 	struct asm_tok tok;
; 372  : 
; 373  :     DebugMsg1(("%u get_operand(idx=%u >%s<) enter [memtype=%Xh]\n", evallvl, i, tokenarray[i].tokpos, opnd->mem_type ));
; 374  :     switch( tokenarray[i].token ) {

	mov	rbx, rbp
	shl	rbx, 5
	mov	rsi, r8
	mov	QWORD PTR [rax-32], r15
	add	rbx, r8
	movzx	r13d, r9b
	mov	r14, rdx
	movzx	r8d, BYTE PTR [rbx]
	mov	rdi, rcx
	mov	r12, rbp
	lea	eax, DWORD PTR [r8-2]
	cmp	eax, 44					; 0000002cH
	ja	$LN10@get_operan
	lea	r15, OFFSET FLAT:__ImageBase
	cdqe
	movzx	eax, BYTE PTR $LN209@get_operan[r15+rax]
	mov	ecx, DWORD PTR $LN210@get_operan[r15+rax*4]
	add	rcx, r15
	jmp	rcx
$LN139@get_operan:

; 375  : 	case T_DOT:
; 376  : 		/* Allow .labelname to be used as an operand */
; 377  : 		if ((tokenarray[*idx].token == T_DOT && tokenarray[(*idx) + 1].token == T_ID))

	mov	r9, rbp
	shl	r9, 5
	cmp	BYTE PTR [r9+rsi], 46			; 0000002eH
	jne	$LN138@get_operan
	cmp	BYTE PTR [r9+rsi+32], 8
	jne	$LN138@get_operan

; 378  : 		{
; 379  : 			// check that T_ID is a label
; 380  : 			sprintf(&clabel, "%s%s", ".", tokenarray[(*idx) + 1].string_ptr);

	mov	r9, QWORD PTR [r9+rsi+40]
	lea	r8, OFFSET FLAT:$SG5721
	lea	rdx, OFFSET FLAT:$SG5722
	lea	rcx, QWORD PTR clabel$[rsp]
	call	sprintf

; 381  : 			labelsym = SymFind(&clabel);

	lea	rcx, QWORD PTR clabel$[rsp]
	call	SymFind

; 382  : 			labelsym2 = SymFind(tokenarray[(*idx) + 1].string_ptr);

	movsxd	rcx, DWORD PTR [r14]
	shl	rcx, 5
	mov	rbx, rax
	mov	rcx, QWORD PTR [rcx+rsi+40]
	call	SymFind

; 383  : 
; 384  : 			if ((*idx) > 0)

	movsxd	r8, DWORD PTR [r14]
	test	r8d, r8d
	jle	SHORT $LN137@get_operan

; 385  : 			{
; 386  : 				tok = tokenarray[(*idx) - 1];

	lea	r9, QWORD PTR tok$[rsp]
	mov	rdx, r8
	shl	rdx, 5
	mov	rax, QWORD PTR [rdx+rsi-24]
	mov	rcx, QWORD PTR [rdx+rsi-32]
	mov	QWORD PTR [r9], rcx
	mov	QWORD PTR [r9+8], rax
	mov	rax, QWORD PTR [rdx+rsi-16]
	mov	QWORD PTR [r9+16], rax
	mov	rax, QWORD PTR [rdx+rsi-8]
	mov	QWORD PTR [r9+24], rax
$LN137@get_operan:

; 387  : 			}
; 388  : 			if (labelsym != NULL ||
; 389  : 				(labelsym == NULL && tok.token != T_ID && tok.token != T_CL_SQ_BRACKET && tok.token != T_CL_BRACKET) ||
; 390  : 				(labelsym != NULL && labelsym->label))

	test	rbx, rbx
	jne	SHORT $LN135@get_operan
	movzx	eax, BYTE PTR tok$[rsp]
	cmp	al, 8
	je	SHORT $LN132@get_operan
	cmp	al, 93					; 0000005dH
	je	SHORT $LN132@get_operan
	cmp	al, 41					; 00000029H

; 395  : 			}
; 396  : 			else if (labelsym == NULL && labelsym2 == NULL)

	je	SHORT $LN132@get_operan
$LN135@get_operan:

; 391  : 			{
; 392  : 				(*idx)++;

	lea	eax, DWORD PTR [r8+1]

; 393  : 				strcpy(&clabel, tokenarray[(*idx)].string_ptr);

	lea	rdx, QWORD PTR clabel$[rsp]
	movsxd	r10, eax
	mov	DWORD PTR [r14], eax
	shl	r10, 5
	mov	rcx, QWORD PTR [r10+rsi+8]
	npad	11
$LL144@get_operan:
	movzx	eax, BYTE PTR [rcx]
	inc	rdx
	inc	rcx
	test	al, al
	mov	BYTE PTR [rdx-1], al
	jne	SHORT $LL144@get_operan

; 394  : 				sprintf(tokenarray[(*idx)].string_ptr, "%s%s", ".", &clabel);

	mov	rcx, QWORD PTR [r10+rsi+8]
	lea	r9, QWORD PTR clabel$[rsp]
	lea	r8, OFFSET FLAT:$SG5730
	lea	rdx, OFFSET FLAT:$SG5731
	call	sprintf
$LN132@get_operan:

; 397  : 			{
; 398  : 
; 399  : 			}
; 400  : 			i++;

	inc	ebp
$isNowID$5736:

; 521  :                     //return( fnEmitErr( MUST_BE_INDEX_OR_BASE_REGISTER ) );
; 522  :             }
; 523  :         }
; 524  :         break;
; 525  :     case T_ID:
; 526  : 		isNowID:
; 527  :         tmp = tokenarray[i].string_ptr;

	movsxd	rax, ebp
	shl	rax, 5
	lea	r12, QWORD PTR [rax+rsi]

; 528  :         //if ( opnd->type ) { /* v2.11 */
; 529  :         if ( opnd->is_dot ) {

	xor	esi, esi
	test	BYTE PTR [rdi+72], 128			; 00000080H
	mov	rbp, QWORD PTR [r12+8]
	je	$LN90@get_operan

; 530  :             DebugMsg1(("%u get_operand: T_ID, is_dot=1, id=%s, opnd.type=%s\n", evallvl, tokenarray[i].string_ptr, opnd->type ? opnd->type->name : "NULL" ));
; 531  :             //__debugbreak();
; 532  :             opnd->value = 0;
; 533  :             sym = ( opnd->type ? SearchNameInStruct( opnd->type, tmp, &opnd->uvalue, 0 ) : NULL );

	mov	rcx, QWORD PTR [rdi+96]
	mov	DWORD PTR [rdi], esi
	test	rcx, rcx
	je	SHORT $LN192@get_operan
	xor	r9d, r9d
	mov	r8, rdi
	mov	rdx, rbp
	call	SearchNameInStruct

; 534  :             DebugMsg1(("get_operand(%s): is_dot, sym=%s, offset=%" I32_SPEC "Xh\n",
; 535  :                        tmp, sym ? sym->name : "NULL", opnd->uvalue ));
; 536  :             if ( sym == NULL ) {

	test	rax, rax
	mov	rbx, rax
	jne	$LN182@get_operan
$LN192@get_operan:

; 537  :                 sym = SymSearch( tmp );

	mov	rcx, rbp
	call	SymFind

; 538  :                 if ( sym ) {

	test	rax, rax
	mov	rbx, rax
	je	SHORT $LN70@get_operan

; 539  :                     /*
; 540  :                      * skip a type specifier matching the data item's type
; 541  :                      * that's something like "<item>.<type>.<member>"
; 542  :                      */
; 543  :                     if ( sym->state == SYM_TYPE ) {

	mov	eax, DWORD PTR [rax+40]
	cmp	eax, 7
	jne	$LN87@get_operan

; 544  :                         /*
; 545  :                          * v2.07: "if" added.
; 546  :                          * Masm accepts a different type spec if the "assumed"
; 547  :                          * type is undefined
; 548  :                          * v2.09: the change in v2.07 is a regression. if it's a type,
; 549  :                          * then "usually" assume a type coercion and "switch" to the
; 550  :                          * new type - but not for register assume. This isn't fixed
; 551  :                          * yet, because there's no way to find out if a register assume
; 552  :                          * did set field 'type'.
; 553  :                          * v2.09: oldstructs condition added, see regression test dotop4.asm.
; 554  :                          * v2.11: fixme? opnd->type may be NULL here?
; 555  :                          * v2.12: for opnd->type==NULL test case, see expr5.aso.
; 556  :                          */
; 557  :                         //if ( sym == opnd->type || opnd->type->isdefined == FALSE )
; 558  :                         //if ( sym == opnd->type || opnd->type->isdefined == FALSE || ModuleInfo.oldstructs )
; 559  :                         if ( sym == opnd->type || ( opnd->type && opnd->type->isdefined == FALSE ) || ModuleInfo.oldstructs )

	mov	rax, QWORD PTR [rdi+96]
	cmp	rbx, rax
	je	$LN78@get_operan
	test	rax, rax
	je	SHORT $LN84@get_operan
	test	BYTE PTR [rax+48], 2
	je	$LN78@get_operan
$LN84@get_operan:
	bt	DWORD PTR ModuleInfo+408, 9
	jb	$LN78@get_operan

; 560  :                             ; //opnd->sym = sym;
; 561  :                         else {
; 562  :                             sym = NULL;

	mov	rbx, rsi
$LN70@get_operan:

; 609  : 
; 610  :             /* for OPATTR, anything is ok */
; 611  :             if ( opnd->is_opattr ) {

	test	BYTE PTR [rdi+72], 16
	je	$LN68@get_operan

; 612  :                 DebugMsg1(( "get_operand(%s): OPATTR, symbol invalid\n", tokenarray[i].string_ptr ));
; 613  :                 opnd->kind = EXPR_ERROR;

	mov	DWORD PTR [rdi+60], -1

; 884  :     }
; 885  :     (*idx)++;

	inc	DWORD PTR [r14]

; 886  :     DebugMsg1(("%u get_operand exit, ok, kind=%d value=%" I64_SPEC "X hvalue=%" I64_SPEC "X mem_type=%Xh abs=%u string=%s is_type=%u type=>%s< sym=%s mbr=%s\n",
; 887  :                evallvl, opnd->kind, opnd->llvalue, opnd->hlvalue, opnd->mem_type, opnd->is_abs,
; 888  :                opnd->quoted_string ? opnd->quoted_string->string_ptr : "NULL",
; 889  :                opnd->is_type, opnd->type ? opnd->type->name : "NULL",
; 890  :                opnd->sym ? opnd->sym->name : "NULL",
; 891  :                opnd->mbr ? opnd->mbr->name : "NULL" ));
; 892  :     return( NOT_ERROR );

	xor	eax, eax
	jmp	$LN142@get_operan
$LN138@get_operan:

; 401  : 			goto isNowID;
; 402  : 		}
; 403  :     case T_NUM:
; 404  :         DebugMsg1(("%u get_operand: T_NUM, %s, base=%u, len=%u\n", evallvl, tokenarray[i].string_ptr, tokenarray[i].numbase, tokenarray[i].itemlen ));
; 405  :         opnd->kind = EXPR_CONST;

	xor	esi, esi
	mov	DWORD PTR [rdi+60], esi

; 406  :         myatoi128( tokenarray[i].string_ptr, &opnd->llvalue, tokenarray[i].numbase, tokenarray[i].itemlen );

	mov	r9, QWORD PTR [rbx+8]
	movsxd	r11, DWORD PTR [rbx+16]
	movsx	r10d, BYTE PTR [rbx+1]
	mov	QWORD PTR [rdi], rsi
	mov	QWORD PTR [rdi+8], rsi
	movzx	eax, BYTE PTR [r9+1]
	add	r11, r9
	or	al, 32					; 00000020H
	cmp	al, 120					; 00000078H
	jne	SHORT $LL158@get_operan
	cmp	BYTE PTR [r9], 48			; 00000030H
	jne	SHORT $LL158@get_operan
	add	r9, 2
	add	r11, 2
	npad	7
$LL158@get_operan:
	movzx	eax, BYTE PTR [r9]
	cmp	al, 57					; 00000039H
	jg	SHORT $LN162@get_operan
	movsx	ecx, al
	sub	ecx, 48					; 00000030H
	jmp	SHORT $LN163@get_operan
$LN162@get_operan:
	movsx	ecx, al
	or	ecx, 32					; 00000020H
	sub	ecx, 87					; 00000057H
$LN163@get_operan:
	mov	rdx, rdi
	mov	r8d, 8
$LL155@get_operan:
	movzx	eax, WORD PTR [rdx]
	add	rdx, 2
	imul	eax, r10d
	add	ecx, eax
	mov	WORD PTR [rdx-2], cx
	shr	ecx, 16
	add	r8d, -1					; ffffffffH
	jne	SHORT $LL155@get_operan
	inc	r9
	cmp	r9, r11
	jb	SHORT $LL158@get_operan

; 884  :     }
; 885  :     (*idx)++;

	inc	DWORD PTR [r14]

; 886  :     DebugMsg1(("%u get_operand exit, ok, kind=%d value=%" I64_SPEC "X hvalue=%" I64_SPEC "X mem_type=%Xh abs=%u string=%s is_type=%u type=>%s< sym=%s mbr=%s\n",
; 887  :                evallvl, opnd->kind, opnd->llvalue, opnd->hlvalue, opnd->mem_type, opnd->is_abs,
; 888  :                opnd->quoted_string ? opnd->quoted_string->string_ptr : "NULL",
; 889  :                opnd->is_type, opnd->type ? opnd->type->name : "NULL",
; 890  :                opnd->sym ? opnd->sym->name : "NULL",
; 891  :                opnd->mbr ? opnd->mbr->name : "NULL" ));
; 892  :     return( NOT_ERROR );

	xor	eax, eax
	jmp	$LN142@get_operan
$LN130@get_operan:

; 407  :         //opnd->llvalue = tokenarray[i].value64;
; 408  :         //opnd->hlvalue = ( tokenarray[i].numflg == NF_NULL ? 0 : *(uint_64 *)( tokenarray[i].string_ptr - sizeof(uint_64) ) );
; 409  :         break;
; 410  :     case T_STRING:
; 411  :         DebugMsg1(("%u get_operand: T_STRING, %s, size=%u\n", evallvl, tokenarray[i].string_ptr, tokenarray[i].stringlen ));
; 412  :         /* string enclosed in <> or {} are rejected since v1.94! */
; 413  : 		if (tokenarray[i].string_delim != '"' && tokenarray[i].string_delim != '\'') {

	movzx	ecx, BYTE PTR [rbx+1]
	cmp	cl, 34					; 00000022H
	je	$LN129@get_operan
	cmp	cl, 39					; 00000027H
	je	$LN129@get_operan

; 414  : 			/* here is handled EVEX Static Rounding Mode
; 415  : 			* {sae},   {rn-sae},{rd-sae},{ru-sae} {rz-sae}
; 416  : 			* ZLLBVAAA ZLLBVAAA ZLLBVAAA ZLLBVAAA ZLLBVAAA
; 417  : 			* 00010000 00010000 00110000 01010000 01110000
; 418  : 			* to destinguish between SAE and RN  I added 0x10
; 419  : 			* to all 4 other decorators
; 420  : 			* which will be subtracted in codegen.c
; 421  : 			*/
; 422  : 			if ((tokenarray[i].string_delim == '{') &&
; 423  : 				(0 == memcmp(tokenarray[i].string_ptr, "rn-sae", 6))) {

	xor	esi, esi
	cmp	cl, 123					; 0000007bH
	jne	SHORT $LN128@get_operan
	mov	rax, QWORD PTR [rbx+8]
	mov	r8d, DWORD PTR [rax]
	cmp	r8d, DWORD PTR $SG5741[r15]
	jne	SHORT $LN207@get_operan
	mov	r8w, WORD PTR [rax+4]
	cmp	r8w, WORD PTR $SG5741[r15+4]
	jne	SHORT $LN207@get_operan
	mov	eax, esi
	jmp	SHORT $LN208@get_operan
$LN207@get_operan:
	sbb	eax, eax
	sbb	eax, -1
$LN208@get_operan:
	test	eax, eax
	jne	SHORT $LN128@get_operan

; 424  : 				if (!evex) EmitError(UNAUTHORISED_USE_OF_EVEX_ENCODING);

	cmp	BYTE PTR evex, sil
	jne	SHORT $LN127@get_operan
	mov	ecx, 278				; 00000116H
	call	EmitError
$LN127@get_operan:

; 425  : 				opnd->kind = EXPR_DECORATOR;

	mov	DWORD PTR [rdi+60], 5

; 426  : 				opnd->saeflags = 0x20;

	mov	BYTE PTR [rdi+70], 32			; 00000020H

; 884  :     }
; 885  :     (*idx)++;

	inc	DWORD PTR [r14]

; 886  :     DebugMsg1(("%u get_operand exit, ok, kind=%d value=%" I64_SPEC "X hvalue=%" I64_SPEC "X mem_type=%Xh abs=%u string=%s is_type=%u type=>%s< sym=%s mbr=%s\n",
; 887  :                evallvl, opnd->kind, opnd->llvalue, opnd->hlvalue, opnd->mem_type, opnd->is_abs,
; 888  :                opnd->quoted_string ? opnd->quoted_string->string_ptr : "NULL",
; 889  :                opnd->is_type, opnd->type ? opnd->type->name : "NULL",
; 890  :                opnd->sym ? opnd->sym->name : "NULL",
; 891  :                opnd->mbr ? opnd->mbr->name : "NULL" ));
; 892  :     return( NOT_ERROR );

	xor	eax, eax
	jmp	$LN142@get_operan
$LN128@get_operan:

; 427  : 				break;
; 428  : 			}
; 429  : 			else if ((tokenarray[i].string_delim == '{') &&
; 430  : 				(0 == memcmp(tokenarray[i].string_ptr, "rd-sae", 6))) {

	cmp	cl, 123					; 0000007bH
	jne	SHORT $LN125@get_operan
	mov	rax, QWORD PTR [rbx+8]
	mov	r8d, DWORD PTR [rax]
	cmp	r8d, DWORD PTR $SG5745[r15]
	jne	SHORT $LN205@get_operan
	mov	r8w, WORD PTR [rax+4]
	cmp	r8w, WORD PTR $SG5745[r15+4]
	jne	SHORT $LN205@get_operan
	mov	eax, esi
	jmp	SHORT $LN206@get_operan
$LN205@get_operan:
	sbb	eax, eax
	sbb	eax, -1
$LN206@get_operan:
	test	eax, eax
	jne	SHORT $LN125@get_operan

; 431  : 				if (!evex) EmitError(UNAUTHORISED_USE_OF_EVEX_ENCODING);

	cmp	BYTE PTR evex, sil
	jne	SHORT $LN124@get_operan
	mov	ecx, 278				; 00000116H
	call	EmitError
$LN124@get_operan:

; 432  : 				opnd->kind = EXPR_DECORATOR;

	mov	DWORD PTR [rdi+60], 5

; 433  : 				opnd->saeflags = 0x40;

	mov	BYTE PTR [rdi+70], 64			; 00000040H

; 884  :     }
; 885  :     (*idx)++;

	inc	DWORD PTR [r14]

; 886  :     DebugMsg1(("%u get_operand exit, ok, kind=%d value=%" I64_SPEC "X hvalue=%" I64_SPEC "X mem_type=%Xh abs=%u string=%s is_type=%u type=>%s< sym=%s mbr=%s\n",
; 887  :                evallvl, opnd->kind, opnd->llvalue, opnd->hlvalue, opnd->mem_type, opnd->is_abs,
; 888  :                opnd->quoted_string ? opnd->quoted_string->string_ptr : "NULL",
; 889  :                opnd->is_type, opnd->type ? opnd->type->name : "NULL",
; 890  :                opnd->sym ? opnd->sym->name : "NULL",
; 891  :                opnd->mbr ? opnd->mbr->name : "NULL" ));
; 892  :     return( NOT_ERROR );

	xor	eax, eax
	jmp	$LN142@get_operan
$LN125@get_operan:

; 434  : 				break;
; 435  : 			}
; 436  : 			else if ((tokenarray[i].string_delim == '{') &&
; 437  : 				(0 == memcmp(tokenarray[i].string_ptr, "ru-sae", 6))) {

	cmp	cl, 123					; 0000007bH
	jne	SHORT $LN122@get_operan
	mov	rax, QWORD PTR [rbx+8]
	mov	r8d, DWORD PTR [rax]
	cmp	r8d, DWORD PTR $SG5749[r15]
	jne	SHORT $LN203@get_operan
	mov	r8w, WORD PTR [rax+4]
	cmp	r8w, WORD PTR $SG5749[r15+4]
	jne	SHORT $LN203@get_operan
	mov	eax, esi
	jmp	SHORT $LN204@get_operan
$LN203@get_operan:
	sbb	eax, eax
	sbb	eax, -1
$LN204@get_operan:
	test	eax, eax
	jne	SHORT $LN122@get_operan

; 438  : 				if (!evex) EmitError(UNAUTHORISED_USE_OF_EVEX_ENCODING);

	cmp	BYTE PTR evex, sil
	jne	SHORT $LN121@get_operan
	mov	ecx, 278				; 00000116H
	call	EmitError
$LN121@get_operan:

; 439  : 				opnd->kind = EXPR_DECORATOR;

	mov	DWORD PTR [rdi+60], 5

; 440  : 				opnd->saeflags = 0x60;

	mov	BYTE PTR [rdi+70], 96			; 00000060H

; 884  :     }
; 885  :     (*idx)++;

	inc	DWORD PTR [r14]

; 886  :     DebugMsg1(("%u get_operand exit, ok, kind=%d value=%" I64_SPEC "X hvalue=%" I64_SPEC "X mem_type=%Xh abs=%u string=%s is_type=%u type=>%s< sym=%s mbr=%s\n",
; 887  :                evallvl, opnd->kind, opnd->llvalue, opnd->hlvalue, opnd->mem_type, opnd->is_abs,
; 888  :                opnd->quoted_string ? opnd->quoted_string->string_ptr : "NULL",
; 889  :                opnd->is_type, opnd->type ? opnd->type->name : "NULL",
; 890  :                opnd->sym ? opnd->sym->name : "NULL",
; 891  :                opnd->mbr ? opnd->mbr->name : "NULL" ));
; 892  :     return( NOT_ERROR );

	xor	eax, eax
	jmp	$LN142@get_operan
$LN122@get_operan:

; 441  : 				break;
; 442  : 			}
; 443  : 			else if ((tokenarray[i].string_delim == '{') &&
; 444  : 				(0 == memcmp(tokenarray[i].string_ptr, "rz-sae", 6))) {

	cmp	cl, 123					; 0000007bH
	jne	SHORT $LN119@get_operan
	mov	rax, QWORD PTR [rbx+8]
	mov	r8d, DWORD PTR [rax]
	cmp	r8d, DWORD PTR $SG5753[r15]
	jne	SHORT $LN201@get_operan
	mov	r8w, WORD PTR [rax+4]
	cmp	r8w, WORD PTR $SG5753[r15+4]
	jne	SHORT $LN201@get_operan
	mov	eax, esi
	jmp	SHORT $LN202@get_operan
$LN201@get_operan:
	sbb	eax, eax
	sbb	eax, -1
$LN202@get_operan:
	test	eax, eax
	jne	SHORT $LN119@get_operan

; 445  : 				if (!evex) EmitError(UNAUTHORISED_USE_OF_EVEX_ENCODING);

	cmp	BYTE PTR evex, sil
	jne	SHORT $LN118@get_operan
	mov	ecx, 278				; 00000116H
	call	EmitError
$LN118@get_operan:

; 446  : 				opnd->kind = EXPR_DECORATOR;

	mov	DWORD PTR [rdi+60], 5

; 447  : 				opnd->saeflags = 0x80;

	mov	BYTE PTR [rdi+70], 128			; 00000080H

; 884  :     }
; 885  :     (*idx)++;

	inc	DWORD PTR [r14]

; 886  :     DebugMsg1(("%u get_operand exit, ok, kind=%d value=%" I64_SPEC "X hvalue=%" I64_SPEC "X mem_type=%Xh abs=%u string=%s is_type=%u type=>%s< sym=%s mbr=%s\n",
; 887  :                evallvl, opnd->kind, opnd->llvalue, opnd->hlvalue, opnd->mem_type, opnd->is_abs,
; 888  :                opnd->quoted_string ? opnd->quoted_string->string_ptr : "NULL",
; 889  :                opnd->is_type, opnd->type ? opnd->type->name : "NULL",
; 890  :                opnd->sym ? opnd->sym->name : "NULL",
; 891  :                opnd->mbr ? opnd->mbr->name : "NULL" ));
; 892  :     return( NOT_ERROR );

	xor	eax, eax
	jmp	$LN142@get_operan
$LN119@get_operan:

; 448  : 				break;
; 449  : 			}
; 450  : 			else if ((tokenarray[i].string_delim == '{') &&
; 451  : 				(0 == memcmp(tokenarray[i].string_ptr, "sae", 3))) {

	cmp	cl, 123					; 0000007bH
	jne	SHORT $LN116@get_operan
	mov	rax, QWORD PTR [rbx+8]
	mov	r8w, WORD PTR [rax]
	cmp	r8w, WORD PTR $SG5757[r15]
	jne	SHORT $LN199@get_operan
	mov	r8b, BYTE PTR [rax+2]
	cmp	r8b, BYTE PTR $SG5757[r15+2]
	je	SHORT $LN200@get_operan
$LN199@get_operan:
	sbb	eax, eax
	sbb	eax, -1
	mov	esi, eax
$LN200@get_operan:
	test	esi, esi
	jne	SHORT $LN116@get_operan

; 452  : 				if (!evex) EmitError(UNAUTHORISED_USE_OF_EVEX_ENCODING);

	cmp	BYTE PTR evex, sil
	jne	SHORT $LN115@get_operan
	mov	ecx, 278				; 00000116H
	call	EmitError
$LN115@get_operan:

; 453  : 				opnd->kind = EXPR_DECORATOR;

	mov	DWORD PTR [rdi+60], 5

; 454  : 				opnd->saeflags = 0x10;

	mov	BYTE PTR [rdi+70], 16

; 884  :     }
; 885  :     (*idx)++;

	inc	DWORD PTR [r14]

; 886  :     DebugMsg1(("%u get_operand exit, ok, kind=%d value=%" I64_SPEC "X hvalue=%" I64_SPEC "X mem_type=%Xh abs=%u string=%s is_type=%u type=>%s< sym=%s mbr=%s\n",
; 887  :                evallvl, opnd->kind, opnd->llvalue, opnd->hlvalue, opnd->mem_type, opnd->is_abs,
; 888  :                opnd->quoted_string ? opnd->quoted_string->string_ptr : "NULL",
; 889  :                opnd->is_type, opnd->type ? opnd->type->name : "NULL",
; 890  :                opnd->sym ? opnd->sym->name : "NULL",
; 891  :                opnd->mbr ? opnd->mbr->name : "NULL" ));
; 892  :     return( NOT_ERROR );

	xor	eax, eax
	jmp	$LN142@get_operan
$LN116@get_operan:

; 455  : 				break;
; 456  : 			}
; 457  : 			else if (opnd->is_opattr) /* OPATTR operator accepts anything! */

	test	BYTE PTR [rdi+72], 16
	jne	$LN8@get_operan

; 458  : 				break;
; 459  : 			/* v2.0: display a comprehensible error msg if a quote is missing */
; 460  : 			if (tokenarray[i].string_delim == NULLC &&
; 461  : 				(*tokenarray[i].string_ptr == '"' || *tokenarray[i].string_ptr == '\''))

	test	cl, cl
	jne	SHORT $LN112@get_operan
	mov	rax, QWORD PTR [rbx+8]
	movzx	ecx, BYTE PTR [rax]
	cmp	cl, 34					; 00000022H
	je	SHORT $LN111@get_operan
	cmp	cl, 39					; 00000027H
	jne	SHORT $LN112@get_operan
$LN111@get_operan:

; 462  : 				fnEmitErr(MISSING_QUOTATION_MARK_IN_STRING);

	mov	ecx, 166				; 000000a6H
	call	QWORD PTR fnEmitErr

; 463  : 			else

	jmp	$LN1@get_operan
$LN112@get_operan:

; 464  : 				fnEmitErr(MISSING_QUOTATION_MARK_IN_STRING, tokenarray[i].tokpos);

	mov	ecx, 166				; 000000a6H

; 465  : 			return(ERROR);

	jmp	$LN224@get_operan
$LN129@get_operan:

; 466  : 		}
; 467  :         opnd->kind = EXPR_CONST;

	xor	esi, esi

; 468  :         opnd->quoted_string = &tokenarray[i];
; 469  :         //opnd->value = 0;
; 470  :         tmp = tokenarray[i].string_ptr + 1; /* skip the quote */
; 471  : 
; 472  :         /* v2.06: use max. 16 bytes to create the "value".
; 473  :          * Prior to 2.06, max 8 bytes were used for 64-bit and
; 474  :          * max 4 bytes were used for 16-/32-bit.
; 475  :          */
; 476  :         j = ( tokenarray[i].stringlen > sizeof( opnd->chararray ) ? sizeof( opnd->chararray ) : tokenarray[i].stringlen );

	mov	edx, 16
	mov	QWORD PTR [rdi+16], rbx
	mov	DWORD PTR [rdi+60], esi
	mov	eax, DWORD PTR [rbx+16]
	mov	rcx, QWORD PTR [rbx+8]
	inc	rcx
	cmp	eax, edx
	cmova	eax, edx

; 477  :         for( ; j; j-- )

	test	eax, eax
	movsxd	rdx, eax
	je	$LN8@get_operan
$LL109@get_operan:

; 478  :             opnd->chararray[j-1] = *tmp++;

	movzx	eax, BYTE PTR [rcx]
	inc	rcx
	dec	rdx
	mov	BYTE PTR [rdi+rdx], al
	jne	SHORT $LL109@get_operan

; 884  :     }
; 885  :     (*idx)++;

	inc	DWORD PTR [r14]

; 886  :     DebugMsg1(("%u get_operand exit, ok, kind=%d value=%" I64_SPEC "X hvalue=%" I64_SPEC "X mem_type=%Xh abs=%u string=%s is_type=%u type=>%s< sym=%s mbr=%s\n",
; 887  :                evallvl, opnd->kind, opnd->llvalue, opnd->hlvalue, opnd->mem_type, opnd->is_abs,
; 888  :                opnd->quoted_string ? opnd->quoted_string->string_ptr : "NULL",
; 889  :                opnd->is_type, opnd->type ? opnd->type->name : "NULL",
; 890  :                opnd->sym ? opnd->sym->name : "NULL",
; 891  :                opnd->mbr ? opnd->mbr->name : "NULL" ));
; 892  :     return( NOT_ERROR );

	xor	eax, eax
	jmp	$LN142@get_operan
$LN106@get_operan:

; 479  :         break;
; 480  :     case T_REG:
; 481  :         DebugMsg1(( "%u get_operand: T_REG, string=%s, tokval=%u, regno=%u\n", evallvl, tokenarray[i].string_ptr, tokenarray[i].tokval, tokenarray[i].bytval ));        
; 482  :         opnd->kind = EXPR_REG;

	mov	DWORD PTR [rdi+60], 2

; 483  :         opnd->base_reg = &tokenarray[i];

	mov	QWORD PTR [rdi+24], rbx

; 484  :         j = tokenarray[i].tokval;
; 485  :         
; 486  :         /* check if cpu is sufficient for register */
; 487  :         if( ( ( GetCpuSp( j ) & P_EXT_MASK ) &&
; 488  :              (( GetCpuSp( j ) & ModuleInfo.curr_cpu & P_EXT_MASK) == 0) ||
; 489  :              ( ModuleInfo.curr_cpu & P_CPU_MASK ) < ( GetCpuSp( j ) & P_CPU_MASK ) ) ) {

	movsxd	rax, DWORD PTR [rbx+16]
	mov	edx, DWORD PTR ModuleInfo+392
	lea	rbp, QWORD PTR [rax+rax*2]
	mov	cx, WORD PTR SpecialTable[r15+rbp*4+8]
	test	cx, 65280				; 0000ff00H
	je	SHORT $LN103@get_operan
	mov	eax, ecx
	and	eax, 65280				; 0000ff00H
	test	eax, edx
	je	SHORT $LN104@get_operan
$LN103@get_operan:
	and	ecx, 240				; 000000f0H
	and	edx, 240				; 000000f0H
	cmp	edx, ecx
	jge	SHORT $LN101@get_operan
$LN104@get_operan:

; 490  :             /* v2.11: do not exit in indirect mode; avoids additional syntax error caused by ']' */
; 491  :             if ( flags & EXPF_IN_SQBR ) {

	test	r13b, 8
	je	SHORT $LN102@get_operan

; 492  :                 opnd->kind = EXPR_ERROR;
; 493  :                 fnEmitErr( INSTRUCTION_OR_REGISTER_NOT_ACCEPTED_IN_CURRENT_CPU_MODE );

	mov	ecx, 30
	mov	DWORD PTR [rdi+60], -1
	call	QWORD PTR fnEmitErr
$LN101@get_operan:

; 496  :         }
; 497  : 
; 498  :         if( flags & EXPF_IN_SQBR ) {

	test	r13b, 8
	je	$LN8@get_operan

; 499  :             /* a valid index register? */
; 500  :             if ( GetSflagsSp( j ) & SFR_IREG ) {

	test	BYTE PTR SpecialTable[r15+rbp*4+4], 32	; 00000020H
	je	SHORT $LN99@get_operan

; 501  :                 opnd->indirect = TRUE;
; 502  :                 opnd->assumecheck = TRUE;

	or	DWORD PTR [rdi+72], 65			; 00000041H

; 884  :     }
; 885  :     (*idx)++;

	inc	DWORD PTR [r14]

; 886  :     DebugMsg1(("%u get_operand exit, ok, kind=%d value=%" I64_SPEC "X hvalue=%" I64_SPEC "X mem_type=%Xh abs=%u string=%s is_type=%u type=>%s< sym=%s mbr=%s\n",
; 887  :                evallvl, opnd->kind, opnd->llvalue, opnd->hlvalue, opnd->mem_type, opnd->is_abs,
; 888  :                opnd->quoted_string ? opnd->quoted_string->string_ptr : "NULL",
; 889  :                opnd->is_type, opnd->type ? opnd->type->name : "NULL",
; 890  :                opnd->sym ? opnd->sym->name : "NULL",
; 891  :                opnd->mbr ? opnd->mbr->name : "NULL" ));
; 892  :     return( NOT_ERROR );

	xor	eax, eax
	jmp	$LN142@get_operan
$LN102@get_operan:

; 494  :             } else
; 495  :                 return( fnEmitErr( INSTRUCTION_OR_REGISTER_NOT_ACCEPTED_IN_CURRENT_CPU_MODE ) );

	mov	ecx, 30
	call	QWORD PTR fnEmitErr
	jmp	$LN142@get_operan
$LN99@get_operan:

; 503  :             } else if ( GetValueSp( j ) & OP_SR ) {

	test	DWORD PTR SpecialTable[r15+rbp*4], 24576 ; 00006000H
	je	SHORT $LN97@get_operan

; 504  :                 /* a segment register inside square brackets is only
; 505  :                  * accepted by Masm if it is the segment part of an
; 506  :                  * address (mov ax,[bx+cs:label])!
; 507  :                  */
; 508  :                 /* v2.10: check moved here avain. regression v2.08-2.09, where
; 509  :                  * it was in colon_op(). see regression test OVERRID3.ASC.
; 510  :                  */
; 511  :                 //if( tokenarray[i+1].token != T_COLON ) {
; 512  :                 if( tokenarray[i+1].token != T_COLON ||
; 513  :                    ( Options.strict_masm_compat && tokenarray[i+2].token == T_REG ) ) {

	cmp	BYTE PTR [rbx+32], 58			; 0000003aH
	jne	SHORT $LN95@get_operan
	cmp	BYTE PTR Options+136, 0
	je	$LN8@get_operan
	lea	rax, QWORD PTR [r12+2]
	shl	rax, 5
	cmp	BYTE PTR [rax+rsi], 2

; 515  :                 }
; 516  :             } else {

	jne	$LN8@get_operan
$LN95@get_operan:

; 514  :                     return( fnEmitErr( INVALID_USE_OF_REGISTER ) );

	mov	ecx, 170				; 000000aaH
	call	QWORD PTR fnEmitErr
	jmp	$LN142@get_operan
$LN97@get_operan:

; 517  :                 if ( opnd->is_opattr ) /* v2.11: just set error for opattr */

	mov	eax, DWORD PTR [rdi+72]
	test	al, 16
	je	SHORT $LN93@get_operan

; 518  :                     opnd->kind = EXPR_ERROR;

	mov	DWORD PTR [rdi+60], -1

; 884  :     }
; 885  :     (*idx)++;

	inc	DWORD PTR [r14]

; 886  :     DebugMsg1(("%u get_operand exit, ok, kind=%d value=%" I64_SPEC "X hvalue=%" I64_SPEC "X mem_type=%Xh abs=%u string=%s is_type=%u type=>%s< sym=%s mbr=%s\n",
; 887  :                evallvl, opnd->kind, opnd->llvalue, opnd->hlvalue, opnd->mem_type, opnd->is_abs,
; 888  :                opnd->quoted_string ? opnd->quoted_string->string_ptr : "NULL",
; 889  :                opnd->is_type, opnd->type ? opnd->type->name : "NULL",
; 890  :                opnd->sym ? opnd->sym->name : "NULL",
; 891  :                opnd->mbr ? opnd->mbr->name : "NULL" ));
; 892  :     return( NOT_ERROR );

	xor	eax, eax
	jmp	$LN142@get_operan
$LN93@get_operan:

; 519  :                 else
; 520  :                   opnd->indirect = TRUE;

	or	eax, 1
	mov	DWORD PTR [rdi+72], eax

; 884  :     }
; 885  :     (*idx)++;

	inc	DWORD PTR [r14]

; 886  :     DebugMsg1(("%u get_operand exit, ok, kind=%d value=%" I64_SPEC "X hvalue=%" I64_SPEC "X mem_type=%Xh abs=%u string=%s is_type=%u type=>%s< sym=%s mbr=%s\n",
; 887  :                evallvl, opnd->kind, opnd->llvalue, opnd->hlvalue, opnd->mem_type, opnd->is_abs,
; 888  :                opnd->quoted_string ? opnd->quoted_string->string_ptr : "NULL",
; 889  :                opnd->is_type, opnd->type ? opnd->type->name : "NULL",
; 890  :                opnd->sym ? opnd->sym->name : "NULL",
; 891  :                opnd->mbr ? opnd->mbr->name : "NULL" ));
; 892  :     return( NOT_ERROR );

	xor	eax, eax
	jmp	$LN142@get_operan
$LN87@get_operan:

; 563  :                         }
; 564  :                     } else if ( ModuleInfo.oldstructs &&
; 565  :                                ( sym->state == SYM_STRUCT_FIELD ||
; 566  :                                 sym->state == SYM_EXTERNAL || /* v2.01: added */
; 567  :                                 /* v2.05: changed */
; 568  :                                 //( sym->state == SYM_INTERNAL && sym->mem_type == MT_ABS ) ) )
; 569  :                                 sym->state == SYM_INTERNAL ) )

	bt	DWORD PTR ModuleInfo+408, 9
	jae	SHORT $LN81@get_operan
	cmp	eax, 6
	je	SHORT $LN78@get_operan
	cmp	eax, 2
	je	SHORT $LN78@get_operan
	cmp	eax, 1

; 570  :                         //opnd->sym = sym;
; 571  :                         ;
; 572  :                     else {

	je	SHORT $LN78@get_operan
$LN81@get_operan:

; 573  :                         /* fixme: clear sym?
; 574  :                          * if the symbol is not a type, it's an error which can
; 575  :                          * be detected in pass 1 already. dot_op() will emit
; 576  :                          * 'struct field expected' if sym isn't cleared.
; 577  :                          * v2.11: always clear sym.
; 578  :                          */
; 579  :                         //if ( opnd->type != nullstruct )
; 580  :                         sym = NULL;

	mov	rbx, rsi

; 581  :                     }
; 582  :                 }
; 583  :             }
; 584  :         } else {

	jmp	$LN70@get_operan
$LN90@get_operan:

; 585  :             DebugMsg1(("%u get_operand: T_ID, id=%s\n", evallvl, tokenarray[i].string_ptr ));
; 586  :             /* ensure anonym labels are uppercase */
; 587  :             /* v2.06: changed. Previously member 'string_ptr' was used to
; 588  :              * store the anonymous label, but one cannot safely assume that
; 589  :              * there's enough free space for a larger symbol name! It (partly)
; 590  :              * worked by accident, because @F/@B usually are the last tokens
; 591  :              * in a line [ but see: .if ( eax == @F && ecx == 2 ) ].
; 592  :              */
; 593  :             if ( *tmp == '@' && *(tmp+2 ) == NULLC ) {

	cmp	BYTE PTR [rbp], 64			; 00000040H
	jne	SHORT $LN73@get_operan
	cmp	BYTE PTR [rbp+2], sil
	jne	SHORT $LN73@get_operan

; 594  :                 if ( *(tmp+1) == 'b' || *(tmp+1 ) == 'B' )

	movzx	eax, BYTE PTR [rbp+1]
	cmp	al, 98					; 00000062H
	je	SHORT $LN75@get_operan
	cmp	al, 66					; 00000042H
	je	SHORT $LN75@get_operan

; 596  :                 else if (*(tmp+1) == 'f' || *(tmp+1 ) == 'F' )

	cmp	al, 102					; 00000066H
	je	SHORT $LN72@get_operan
	cmp	al, 70					; 00000046H
	jne	SHORT $LN73@get_operan
$LN72@get_operan:

; 597  :                     tmp = GetAnonymousLabel( labelbuff, 1 );

	lea	rcx, QWORD PTR labelbuff$[rsp]
	mov	edx, 1
	call	GetAnonymousLabel
	mov	rbp, rax
	jmp	SHORT $LN73@get_operan
$LN75@get_operan:

; 595  :                     tmp = GetAnonymousLabel( labelbuff, 0 );

	lea	rcx, QWORD PTR labelbuff$[rsp]
	xor	edx, edx
	call	GetAnonymousLabel
	mov	rbp, rax
$LN73@get_operan:

; 598  :             }
; 599  :             sym = SymSearch( tmp );

	mov	rcx, rbp
	call	SymFind
	mov	rbx, rax
$LN78@get_operan:

; 600  :         }
; 601  :         if ( sym == NULL ||
; 602  :             sym->state == SYM_UNDEFINED ||
; 603  :             ( sym->state == SYM_TYPE && sym->typekind == TYPE_NONE ) ||  /* v2.10: added */
; 604  : #if ALIAS_IN_EXPR == 0
; 605  :             sym->state == SYM_ALIAS || /* v2.04: added */
; 606  : #endif
; 607  :             sym->state == SYM_MACRO ||
; 608  :             sym->state == SYM_TMACRO ) {

	test	rbx, rbx
	je	$LN70@get_operan
$LN182@get_operan:
	mov	eax, DWORD PTR [rbx+40]
	test	eax, eax
	je	$LN70@get_operan
	cmp	eax, 7
	jne	SHORT $LN69@get_operan
	cmp	BYTE PTR [rbx+74], sil
	je	$LN70@get_operan
$LN69@get_operan:
	cmp	eax, 9
	je	$LN70@get_operan
	cmp	eax, 10
	je	$LN70@get_operan

; 680  :             }
; 681  : #if ALIAS_IN_EXPR /* v2.04b: added */
; 682  :         } else if ( sym->state == SYM_ALIAS ) {

	cmp	eax, 8
	jne	SHORT $LN58@get_operan

; 683  :             /* ALIAS symbols are not really useable in expressions.
; 684  :              * The alias' substitute symbol is, however.
; 685  :              */
; 686  :             sym = sym->substitute; /* can't be NULL */

	mov	rbx, QWORD PTR [rbx+16]
$LN58@get_operan:

; 687  : #endif
; 688  :         }
; 689  :         /* set default values */
; 690  :         sym->used = TRUE;
; 691  :         DebugMsg1(("get_operand(%s): sym->state=%u type=>%s< ofs=%X memtype=%Xh total_size=%u defined=%u\n",
; 692  :                 tokenarray[i].string_ptr, sym->state, sym->type ? sym->type->name : "NULL", sym->offset, sym->mem_type, sym->total_size, sym->isdefined ));
; 693  :         switch ( sym->state ) {

	mov	ecx, DWORD PTR [rbx+40]
	or	BYTE PTR [rbx+48], 1
	sub	ecx, 6
	je	$LN38@get_operan
	dec	ecx
	je	$LN49@get_operan

; 744  :             DebugMsg1(("get_operand: mem_type=%Xh type=%s\n", opnd->mem_type, opnd->type ? opnd->type->name : "NULL" ));
; 745  :             break;
; 746  :         default: /* SYM_INTERNAL, SYM_EXTERNAL, SYM_SEG, SYM_GRP, SYM_STACK */
; 747  :             opnd->kind = EXPR_ADDR;

	mov	DWORD PTR [rdi+60], 1

; 748  :             /* call internal function (@Line, ... ) */
; 749  :             if ( sym->predefined && sym->sfunc_ptr )

	test	BYTE PTR [rbx+48], 32			; 00000020H
	je	SHORT $LN33@get_operan
	mov	rax, QWORD PTR [rbx+72]
	test	rax, rax
	je	SHORT $LN33@get_operan

; 750  :                 sym->sfunc_ptr( sym, NULL );

	xor	edx, edx
	mov	rcx, rbx
	call	rax
$LN33@get_operan:

; 751  :             //if( opnd->sym->mem_type == MT_ABS ) {
; 752  :             if( sym->state == SYM_INTERNAL && sym->segment == NULL ) {

	mov	eax, DWORD PTR [rbx+40]
	cmp	eax, 1
	jne	$LN32@get_operan
	cmp	QWORD PTR [rbx+32], rsi
	jne	$LN32@get_operan

; 753  :                 opnd->kind = EXPR_CONST;

	mov	DWORD PTR [rdi+60], esi

; 754  :                 opnd->uvalue = sym->uvalue;

	mov	eax, DWORD PTR [rbx+16]
	mov	DWORD PTR [rdi], eax

; 755  :                 opnd->hvalue = sym->value3264;

	mov	eax, DWORD PTR [rbx+64]
	mov	DWORD PTR [rdi+4], eax

; 756  :                 DebugMsg1(("get_operand(%s): equate hval=%Xh, lval=%Xh\n", sym->name, opnd->hvalue, opnd->uvalue ));
; 757  :                 opnd->mem_type = sym->mem_type;

	mov	eax, DWORD PTR [rbx+44]
	mov	DWORD PTR [rdi+64], eax

; 884  :     }
; 885  :     (*idx)++;

	inc	DWORD PTR [r14]

; 886  :     DebugMsg1(("%u get_operand exit, ok, kind=%d value=%" I64_SPEC "X hvalue=%" I64_SPEC "X mem_type=%Xh abs=%u string=%s is_type=%u type=>%s< sym=%s mbr=%s\n",
; 887  :                evallvl, opnd->kind, opnd->llvalue, opnd->hlvalue, opnd->mem_type, opnd->is_abs,
; 888  :                opnd->quoted_string ? opnd->quoted_string->string_ptr : "NULL",
; 889  :                opnd->is_type, opnd->type ? opnd->type->name : "NULL",
; 890  :                opnd->sym ? opnd->sym->name : "NULL",
; 891  :                opnd->mbr ? opnd->mbr->name : "NULL" ));
; 892  :     return( NOT_ERROR );

	xor	eax, eax
	jmp	$LN142@get_operan
$LN68@get_operan:

; 614  :                 break;
; 615  :             }
; 616  : #if 0 /* v2.10: obsolete, since fnEmitErr() won't display anything in "EQU" mode */
; 617  :             /* if it is EQU, don't display an error, but return ERROR */
; 618  :             if ( flags & EXPF_NOERRMSG ) {
; 619  :                 DebugMsg1(("get_operand(%s): EQU, symbol invalid\n", tokenarray[i].string_ptr));
; 620  :                 return( ERROR );
; 621  :             }
; 622  : #endif
; 623  :             if ( sym && ( sym->state == SYM_MACRO ||
; 624  : #if ALIAS_IN_EXPR == 0
; 625  :                          sym->state == SYM_ALIAS || /* v2.04: added */
; 626  : #endif
; 627  :                          sym->state == SYM_TMACRO ) ) {

	test	rbx, rbx
	je	SHORT $LN67@get_operan
	mov	eax, DWORD PTR [rbx+40]
	cmp	eax, 9
	je	SHORT $LN66@get_operan
	cmp	eax, 10
	jne	SHORT $LN67@get_operan
$LN66@get_operan:

; 628  :                 DebugMsg1(("get_operand(%s): symbol is macro/textmacro/alias!\n", tokenarray[i].string_ptr));
; 629  :                 fnEmitErr( INVALID_SYMBOL_TYPE_IN_EXPRESSION, sym->name );

	mov	rdx, QWORD PTR [rbx+8]
	mov	ecx, 243				; 000000f3H

; 630  :                 return( ERROR );

	jmp	$LN223@get_operan
$LN67@get_operan:

; 631  :             }
; 632  :             /* v2.11: flag EXPF_NOUNDEF won't accept undefined symbols anymore.
; 633  :              * previously, it did just avoid to create a label with state SYM_UNDEFINED -
; 634  :              * hence the old name, EXPF_NOLCREATE
; 635  :              */
; 636  :             //if( Parse_Pass == PASS_1 ) {
; 637  :             if( Parse_Pass == PASS_1 && !( flags & EXPF_NOUNDEF ) ) {

	cmp	DWORD PTR Parse_Pass, esi
	jne	$LN65@get_operan
	test	r13b, 2
	jne	$LN65@get_operan

; 638  :                 /* if symbol wasn't found, assume it is a forward ref! */
; 639  :                 if ( sym == NULL ) {

	test	rbx, rbx
	jne	$LN58@get_operan

; 640  :                     /* v2.11: flag EXPF_NOLCREATE has got another meaning */
; 641  :                     //if ( opnd->type == NULL && !( flags & EXPF_NOLCREATE ) ) { /* added v1.95 */
; 642  :                     if ( opnd->type == NULL ) {

	mov	rax, QWORD PTR [rdi+96]
	test	rax, rax
	jne	SHORT $LN63@get_operan

; 643  :                         sym = SymLookup( tmp );

	mov	rcx, rbp
	call	SymLookup

; 644  :                         sym->state = SYM_UNDEFINED;
; 645  :                         sym_add_table( &SymTables[TAB_UNDEF], (struct dsym *)sym ); /* add UNDEFINED */

	lea	rcx, OFFSET FLAT:SymTables
	mov	rdx, rax
	mov	rbx, rax
	mov	DWORD PTR [rax+40], esi
	call	sym_add_table
	jmp	$LN58@get_operan
$LN63@get_operan:

; 646  :                         DebugMsg1(("get_operand(%s): symbol not (yet) defined, CurrProc=%s\n", tmp, CurrProc ? CurrProc->sym.name : "NULL" ));
; 647  :                     
; 648  :                     // } else if ( opnd->type == NULL || opnd->type != nullstruct ) { /* v2.08: if changed */
; 649  :                     // } else if ( opnd->type == NULL || opnd->type->typekind != TYPE_NONE ) { /* v2.11: if changed */
; 650  :                     } else if ( opnd->type->typekind != TYPE_NONE ) {

	cmp	BYTE PTR [rax+74], sil
	je	SHORT $LN61@get_operan

; 651  :                         /* no struct or struct is known and defined */
; 652  :                         DebugMsg(("get_operand(%s): symbol error (type=%s typekind=%u)\n", tmp, opnd->type ? opnd->type->name : "NULL", opnd->type ? opnd->type->typekind : 0 ));
; 653  :                         if ( *opnd->type->name )

	mov	rdx, QWORD PTR [rax+8]
	cmp	BYTE PTR [rdx], sil
	je	$LN60@get_operan
$LN226@get_operan:

; 654  :                             fnEmitErr( MEMBER_NOT_DEFINED, opnd->type->name, tmp );

	mov	r8, rbp
	mov	ecx, 63					; 0000003fH
	call	QWORD PTR fnEmitErr

; 655  :                         else

	jmp	$LN1@get_operan
$LN61@get_operan:

; 656  :                             fnEmitErr( SYMBOL_NOT_DEFINED, tmp );
; 657  :                         return( ERROR );
; 658  :                     } else {
; 659  :                         /* forward reference to a struct.
; 660  :                          * In these cases, assume everything is ok.
; 661  :                          */
; 662  :                         if ( !nullmbr ) {

	mov	rax, QWORD PTR nullmbr
	test	rax, rax
	jne	SHORT $LN57@get_operan

; 663  :                             nullmbr = SymAlloc( "" );

	lea	rcx, OFFSET FLAT:$SG5825
	call	SymAlloc
	mov	QWORD PTR nullmbr, rax
$LN57@get_operan:

; 664  :                         }
; 665  :                         DebugMsg(("get_operand(%s): forward reference to a struct (using nullmbr)\n", tmp ));
; 666  :                         /* "break" because nullmbr has state SYM_UNDEFINED */
; 667  :                         opnd->mbr = nullmbr;

	mov	QWORD PTR [rdi+88], rax

; 668  :                         opnd->kind = EXPR_CONST;

	mov	DWORD PTR [rdi+60], esi

; 884  :     }
; 885  :     (*idx)++;

	inc	DWORD PTR [r14]

; 886  :     DebugMsg1(("%u get_operand exit, ok, kind=%d value=%" I64_SPEC "X hvalue=%" I64_SPEC "X mem_type=%Xh abs=%u string=%s is_type=%u type=>%s< sym=%s mbr=%s\n",
; 887  :                evallvl, opnd->kind, opnd->llvalue, opnd->hlvalue, opnd->mem_type, opnd->is_abs,
; 888  :                opnd->quoted_string ? opnd->quoted_string->string_ptr : "NULL",
; 889  :                opnd->is_type, opnd->type ? opnd->type->name : "NULL",
; 890  :                opnd->sym ? opnd->sym->name : "NULL",
; 891  :                opnd->mbr ? opnd->mbr->name : "NULL" ));
; 892  :     return( NOT_ERROR );

	xor	eax, eax
	jmp	$LN142@get_operan
$LN32@get_operan:

; 758  :                 /* don't set the symbol reference, it isn't a label */
; 759  :             } else if( sym->state == SYM_EXTERNAL &&
; 760  :                       sym->mem_type == MT_EMPTY &&
; 761  :                       sym->iscomm == FALSE ) {

	cmp	eax, 2
	jne	SHORT $LN30@get_operan
	cmp	DWORD PTR [rbx+44], 192			; 000000c0H
	jne	SHORT $LN30@get_operan
	test	BYTE PTR [rbx+55], 4
	jne	SHORT $LN30@get_operan

; 762  :                 /* type remains EXPR_ADDR, to force fixup creation */
; 763  :                 //opnd->mem_type = sym->mem_type; /* v2.10: unnecessary, init value IS MT_EMPTY */
; 764  :                 opnd->is_abs = TRUE;

	or	DWORD PTR [rdi+72], 4

; 765  :                 opnd->sym = sym;

	mov	QWORD PTR [rdi+80], rbx

; 884  :     }
; 885  :     (*idx)++;

	inc	DWORD PTR [r14]

; 886  :     DebugMsg1(("%u get_operand exit, ok, kind=%d value=%" I64_SPEC "X hvalue=%" I64_SPEC "X mem_type=%Xh abs=%u string=%s is_type=%u type=>%s< sym=%s mbr=%s\n",
; 887  :                evallvl, opnd->kind, opnd->llvalue, opnd->hlvalue, opnd->mem_type, opnd->is_abs,
; 888  :                opnd->quoted_string ? opnd->quoted_string->string_ptr : "NULL",
; 889  :                opnd->is_type, opnd->type ? opnd->type->name : "NULL",
; 890  :                opnd->sym ? opnd->sym->name : "NULL",
; 891  :                opnd->mbr ? opnd->mbr->name : "NULL" ));
; 892  :     return( NOT_ERROR );

	xor	eax, eax
	jmp	$LN142@get_operan
$LN30@get_operan:

; 766  :             } else {
; 767  :                 opnd->label_tok = &tokenarray[i];

	mov	QWORD PTR [rdi+40], r12

; 768  : 
; 769  :                 /* a variable with arbitrary type? */
; 770  :                 /* v2.05: added check for MT_EMPTY */
; 771  :                 //if( opnd->sym->type ) { 
; 772  :                 if( sym->type && sym->type->mem_type != MT_EMPTY ) {

	mov	rax, QWORD PTR [rbx+88]
	test	rax, rax
	je	SHORT $LN28@get_operan
	mov	ecx, DWORD PTR [rax+44]
	cmp	ecx, 192				; 000000c0H
	je	SHORT $LN28@get_operan

; 773  :                     /* skip "alias" types */
; 774  :                     /* v2.05: obsolete */
; 775  :                     //for ( sym2 = opnd->sym; sym2->type; sym2 = sym2->type );
; 776  :                     //opnd->mem_type = sym2->mem_type;
; 777  :                     opnd->mem_type = sym->type->mem_type;

	mov	DWORD PTR [rdi+64], ecx

; 778  :                 } else {

	jmp	SHORT $LN27@get_operan
$LN28@get_operan:

; 779  :                     opnd->mem_type = sym->mem_type;

	mov	eax, DWORD PTR [rbx+44]
	mov	DWORD PTR [rdi+64], eax
$LN27@get_operan:

; 780  :                 }
; 781  :                 /* since there is no fixup for auto variables, the "offset"
; 782  :                  must be stored in the <value> field */
; 783  :                 if ( sym->state == SYM_STACK ) {

	cmp	DWORD PTR [rbx+40], 5
	jne	$LN26@get_operan

; 784  : #if STACKBASESUPP
; 785  :                   
; 786  :                     if ((ModuleInfo.win64_flags & W64F_HABRAN) && sym->isparam){

	test	BYTE PTR ModuleInfo+413, 11
	je	SHORT $LN25@get_operan
	test	BYTE PTR [rbx+49], 128			; 00000080H
	je	SHORT $LN25@get_operan

; 787  :                       opnd->llvalue = sym->offset;// +StackAdj;

	movsxd	rax, DWORD PTR [rbx+16]
	mov	QWORD PTR [rdi], rax

; 788  :                       cnt = CurrProc->e.procinfo->pushed_reg;

	mov	r9, QWORD PTR CurrProc
	mov	rdx, QWORD PTR [r9+104]

; 789  :                       cnt = cnt * 8;

	mov	ecx, DWORD PTR [rdx+104]

; 790  :                       cnt += sym->offset + CurrProc->e.procinfo->localsize + CurrProc->e.procinfo->xmmsize; //pointing to RSP

	mov	eax, DWORD PTR [rdx+112]
	lea	r8d, DWORD PTR [rax+rcx*8]
	add	r8d, DWORD PTR [rdx+36]
	add	r8d, DWORD PTR [rbx+16]

; 791  :                       if (CurrProc->sym.langtype == LANG_VECTORCALL)

	cmp	DWORD PTR [r9+84], 8
	jne	SHORT $LN24@get_operan

; 792  :                         cnt += CurrProc->e.procinfo->vsize ;     //pointing abowe RSP to the shadow space off RCX RDX R8 R9                      

	add	r8d, DWORD PTR [rdx+44]
$LN24@get_operan:

; 793  :                       //else 
; 794  :                         cnt -= 8;

	sub	r8d, 8

; 795  :                         if ((cnt & 7) != 0) cnt = (cnt + 7)&(-8);

	test	r8b, 7
	je	SHORT $LN23@get_operan
	add	r8d, 7
	and	r8d, -8
$LN23@get_operan:

; 796  :                       opnd->llvalue = cnt;

	movsxd	rax, r8d
	mov	QWORD PTR [rdi], rax

; 797  :                     }
; 798  :                     else 

	jmp	SHORT $LN22@get_operan
$LN25@get_operan:

; 799  :                       opnd->llvalue = sym->offset + StackAdj;

	mov	eax, DWORD PTR [rbx+16]
	add	eax, DWORD PTR StackAdj
	mov	QWORD PTR [rdi], rax
$LN22@get_operan:

; 800  : #else
; 801  :                     opnd->llvalue = sym->offset;
; 802  : #endif
; 803  :                     opnd->indirect = TRUE;

	or	DWORD PTR [rdi+72], 1

; 804  :                     /* v2.10: base register values now set here */
; 805  :                     opnd->base_reg = &tokenarray[i];

	mov	QWORD PTR [rdi+24], r12

; 806  : #if STACKBASESUPP
; 807  :                     tokenarray[i].tokval = CurrProc->e.procinfo->basereg;

	mov	rax, QWORD PTR CurrProc
	mov	rcx, QWORD PTR [rax+104]
	movzx	eax, WORD PTR [rcx+130]
	mov	DWORD PTR [r12+16], eax

; 808  : #else
; 809  :                     tokenarray[i].tokval = basereg[ModuleInfo.Ofssize];
; 810  : #endif
; 811  :                     tokenarray[i].bytval = GetRegNo( tokenarray[i].tokval );

	lea	rcx, QWORD PTR [rax+rax*2]
	movzx	eax, BYTE PTR SpecialTable[r15+rcx*4+10]
	mov	BYTE PTR [r12+1], al
$LN26@get_operan:

; 812  :                 }
; 813  :                 opnd->sym = sym;

	mov	QWORD PTR [rdi+80], rbx

; 814  :                 /* v2.09: added (also see change in PrepareOp() )
; 815  :                  * and see case SYM_STRUCT_FIELD.
; 816  :                  */
; 817  :                 for ( ; sym->type; sym = sym->type );

	mov	rax, QWORD PTR [rbx+88]
	test	rax, rax
	je	SHORT $LN19@get_operan
$LL21@get_operan:
	mov	rbx, rax
	mov	rax, QWORD PTR [rax+88]
	test	rax, rax
	jne	SHORT $LL21@get_operan
$LN19@get_operan:

; 818  :                 opnd->type = ( sym->state == SYM_TYPE && sym->typekind != TYPE_TYPEDEF ) ? sym : NULL;

	cmp	DWORD PTR [rbx+40], 7
	jne	SHORT $LN151@get_operan
	cmp	BYTE PTR [rbx+74], 3
	jne	SHORT $LN152@get_operan
$LN151@get_operan:
	mov	rbx, rsi
$LN152@get_operan:
	mov	QWORD PTR [rdi+96], rbx

; 884  :     }
; 885  :     (*idx)++;

	inc	DWORD PTR [r14]

; 886  :     DebugMsg1(("%u get_operand exit, ok, kind=%d value=%" I64_SPEC "X hvalue=%" I64_SPEC "X mem_type=%Xh abs=%u string=%s is_type=%u type=>%s< sym=%s mbr=%s\n",
; 887  :                evallvl, opnd->kind, opnd->llvalue, opnd->hlvalue, opnd->mem_type, opnd->is_abs,
; 888  :                opnd->quoted_string ? opnd->quoted_string->string_ptr : "NULL",
; 889  :                opnd->is_type, opnd->type ? opnd->type->name : "NULL",
; 890  :                opnd->sym ? opnd->sym->name : "NULL",
; 891  :                opnd->mbr ? opnd->mbr->name : "NULL" ));
; 892  :     return( NOT_ERROR );

	xor	eax, eax
	jmp	$LN142@get_operan
$LN49@get_operan:

; 694  :         case SYM_TYPE: /* STRUCT, UNION, RECORD, TYPEDEF */
; 695  :             /* v2.09: no structinfo data for typedefs */
; 696  :             if ( sym->typekind != TYPE_TYPEDEF && ((struct dsym *)sym)->e.structinfo->isOpen ) {

	cmp	BYTE PTR [rbx+74], 3
	je	SHORT $LN48@get_operan
	mov	rax, QWORD PTR [rbx+104]
	test	BYTE PTR [rax+29], 2
	je	SHORT $LN48@get_operan

; 697  :                 DebugMsg1(("get_operand(%s): struct/union definition isn't closed!\n", sym->name ));
; 698  :                 opnd->kind = EXPR_ERROR;

	mov	DWORD PTR [rdi+60], -1

; 884  :     }
; 885  :     (*idx)++;

	inc	DWORD PTR [r14]

; 886  :     DebugMsg1(("%u get_operand exit, ok, kind=%d value=%" I64_SPEC "X hvalue=%" I64_SPEC "X mem_type=%Xh abs=%u string=%s is_type=%u type=>%s< sym=%s mbr=%s\n",
; 887  :                evallvl, opnd->kind, opnd->llvalue, opnd->hlvalue, opnd->mem_type, opnd->is_abs,
; 888  :                opnd->quoted_string ? opnd->quoted_string->string_ptr : "NULL",
; 889  :                opnd->is_type, opnd->type ? opnd->type->name : "NULL",
; 890  :                opnd->sym ? opnd->sym->name : "NULL",
; 891  :                opnd->mbr ? opnd->mbr->name : "NULL" ));
; 892  :     return( NOT_ERROR );

	xor	eax, eax
	jmp	$LN142@get_operan
$LN48@get_operan:

; 699  :                 break;
; 700  :             }
; 701  :             /* skip "alias" types */
; 702  :             for ( ; sym->type; sym = sym->type );

	mov	rax, QWORD PTR [rbx+88]
	test	rax, rax
	je	SHORT $LN45@get_operan
$LL47@get_operan:
	mov	rbx, rax
	mov	rax, QWORD PTR [rax+88]
	test	rax, rax
	jne	SHORT $LL47@get_operan
$LN45@get_operan:

; 703  :             opnd->kind = EXPR_CONST;

	mov	DWORD PTR [rdi+60], esi

; 704  :             opnd->mem_type = sym->mem_type;

	mov	eax, DWORD PTR [rbx+44]

; 705  :             opnd->is_type = TRUE;

	or	DWORD PTR [rdi+72], 8
	mov	DWORD PTR [rdi+64], eax

; 706  :             opnd->type = sym;

	mov	QWORD PTR [rdi+96], rbx

; 707  :             DebugMsg1(("get_operand(%s): symbol.typekind=%u (STRUCT/UNION/TYPEDEF/RECORD)\n", sym->name, sym->typekind ));
; 708  : 
; 709  :             /* v2.08: if() removed. This was an old hack. */
; 710  :             //if ( tokenarray[i-1].token != T_DOT && tokenarray[i+1].token != T_DOT )
; 711  :             /* v2.06: the default value for RECORD types is the mask value */
; 712  :             if ( sym->typekind == TYPE_RECORD ) {

	cmp	BYTE PTR [rbx+74], 4
	jne	SHORT $LN44@get_operan

; 713  : #if AMD64_SUPPORT
; 714  :                 opnd->llvalue = GetRecordMask( (struct dsym *)sym );

	mov	rcx, rbx
	call	GetRecordMask
	mov	QWORD PTR [rdi], rax

; 884  :     }
; 885  :     (*idx)++;

	inc	DWORD PTR [r14]

; 886  :     DebugMsg1(("%u get_operand exit, ok, kind=%d value=%" I64_SPEC "X hvalue=%" I64_SPEC "X mem_type=%Xh abs=%u string=%s is_type=%u type=>%s< sym=%s mbr=%s\n",
; 887  :                evallvl, opnd->kind, opnd->llvalue, opnd->hlvalue, opnd->mem_type, opnd->is_abs,
; 888  :                opnd->quoted_string ? opnd->quoted_string->string_ptr : "NULL",
; 889  :                opnd->is_type, opnd->type ? opnd->type->name : "NULL",
; 890  :                opnd->sym ? opnd->sym->name : "NULL",
; 891  :                opnd->mbr ? opnd->mbr->name : "NULL" ));
; 892  :     return( NOT_ERROR );

	xor	eax, eax
	jmp	$LN142@get_operan
$LN44@get_operan:

; 715  : #else
; 716  :                 opnd->value = GetRecordMask( (struct dsym *)sym );
; 717  : #endif
; 718  :             } else if ( ( sym->mem_type & MT_SPECIAL_MASK ) == MT_ADDRESS ) { /* v2.09: added */

	mov	ecx, DWORD PTR [rbx+44]
	mov	eax, ecx
	and	eax, 192				; 000000c0H
	cmp	al, -128				; ffffffffffffff80H
	jne	SHORT $LN42@get_operan

; 719  :                 if ( sym->mem_type == MT_PROC ) {

	cmp	ecx, 128				; 00000080H
	jne	SHORT $LN41@get_operan

; 720  :                     opnd->value = sym->total_size;

	mov	eax, DWORD PTR [rbx+64]
	mov	DWORD PTR [rdi], eax

; 721  :                     opnd->Ofssize = sym->Ofssize;

	movzx	eax, BYTE PTR [rbx+52]
	mov	BYTE PTR [rdi+69], al

; 884  :     }
; 885  :     (*idx)++;

	inc	DWORD PTR [r14]

; 886  :     DebugMsg1(("%u get_operand exit, ok, kind=%d value=%" I64_SPEC "X hvalue=%" I64_SPEC "X mem_type=%Xh abs=%u string=%s is_type=%u type=>%s< sym=%s mbr=%s\n",
; 887  :                evallvl, opnd->kind, opnd->llvalue, opnd->hlvalue, opnd->mem_type, opnd->is_abs,
; 888  :                opnd->quoted_string ? opnd->quoted_string->string_ptr : "NULL",
; 889  :                opnd->is_type, opnd->type ? opnd->type->name : "NULL",
; 890  :                opnd->sym ? opnd->sym->name : "NULL",
; 891  :                opnd->mbr ? opnd->mbr->name : "NULL" ));
; 892  :     return( NOT_ERROR );

	xor	eax, eax
	jmp	$LN142@get_operan
$LN41@get_operan:

; 722  :                 } else
; 723  :                     opnd->value = GetTypeSize( sym->mem_type, sym->Ofssize );

	movzx	edx, BYTE PTR [rbx+52]
	call	GetTypeSize
	mov	DWORD PTR [rdi], eax

; 884  :     }
; 885  :     (*idx)++;

	inc	DWORD PTR [r14]

; 886  :     DebugMsg1(("%u get_operand exit, ok, kind=%d value=%" I64_SPEC "X hvalue=%" I64_SPEC "X mem_type=%Xh abs=%u string=%s is_type=%u type=>%s< sym=%s mbr=%s\n",
; 887  :                evallvl, opnd->kind, opnd->llvalue, opnd->hlvalue, opnd->mem_type, opnd->is_abs,
; 888  :                opnd->quoted_string ? opnd->quoted_string->string_ptr : "NULL",
; 889  :                opnd->is_type, opnd->type ? opnd->type->name : "NULL",
; 890  :                opnd->sym ? opnd->sym->name : "NULL",
; 891  :                opnd->mbr ? opnd->mbr->name : "NULL" ));
; 892  :     return( NOT_ERROR );

	xor	eax, eax
	jmp	$LN142@get_operan
$LN42@get_operan:

; 724  :             } else
; 725  :                 opnd->value = sym->total_size;

	mov	eax, DWORD PTR [rbx+64]
	mov	DWORD PTR [rdi], eax

; 884  :     }
; 885  :     (*idx)++;

	inc	DWORD PTR [r14]

; 886  :     DebugMsg1(("%u get_operand exit, ok, kind=%d value=%" I64_SPEC "X hvalue=%" I64_SPEC "X mem_type=%Xh abs=%u string=%s is_type=%u type=>%s< sym=%s mbr=%s\n",
; 887  :                evallvl, opnd->kind, opnd->llvalue, opnd->hlvalue, opnd->mem_type, opnd->is_abs,
; 888  :                opnd->quoted_string ? opnd->quoted_string->string_ptr : "NULL",
; 889  :                opnd->is_type, opnd->type ? opnd->type->name : "NULL",
; 890  :                opnd->sym ? opnd->sym->name : "NULL",
; 891  :                opnd->mbr ? opnd->mbr->name : "NULL" ));
; 892  :     return( NOT_ERROR );

	xor	eax, eax
	jmp	$LN142@get_operan
$LN38@get_operan:

; 726  : 
; 727  :             break;
; 728  :         case SYM_STRUCT_FIELD:
; 729  :             DebugMsg1(("get_operand(%s): structure field, ofs=%Xh\n", sym->name, sym->offset ));
; 730  : 
; 731  :             /* opnd->value might have been set by SearchNameInStruct() already! */
; 732  :             opnd->value += sym->offset;

	mov	eax, DWORD PTR [rbx+16]

; 733  :             opnd->kind = EXPR_CONST;

	mov	DWORD PTR [rdi+60], esi

; 734  :             opnd->mbr = sym;

	mov	QWORD PTR [rdi+88], rbx
	add	DWORD PTR [rdi], eax

; 735  :             /* skip "alias" types (probably obsolete by now!) */
; 736  :             for ( ; sym->type; sym = sym->type );

	mov	rax, QWORD PTR [rbx+88]
	test	rax, rax
	je	SHORT $LN35@get_operan
$LL37@get_operan:
	mov	rbx, rax
	mov	rax, QWORD PTR [rax+88]
	test	rax, rax
	jne	SHORT $LL37@get_operan
$LN35@get_operan:

; 737  :             opnd->mem_type = sym->mem_type;

	mov	eax, DWORD PTR [rbx+44]
	mov	DWORD PTR [rdi+64], eax

; 738  :             /*
; 739  :              * check if the member field is a type (struct or union).
; 740  :              * If yes, set the <type> member!
; 741  :              * this cannot be done in PrepareOp()
; 742  :              */
; 743  :             opnd->type = ( sym->state == SYM_TYPE && sym->typekind != TYPE_TYPEDEF ) ? sym : NULL;

	cmp	DWORD PTR [rbx+40], 7
	jne	SHORT $LN149@get_operan
	cmp	BYTE PTR [rbx+74], 3
	jne	SHORT $LN150@get_operan
$LN149@get_operan:
	mov	rbx, rsi
$LN150@get_operan:
	mov	QWORD PTR [rdi+96], rbx

; 884  :     }
; 885  :     (*idx)++;

	inc	DWORD PTR [r14]

; 886  :     DebugMsg1(("%u get_operand exit, ok, kind=%d value=%" I64_SPEC "X hvalue=%" I64_SPEC "X mem_type=%Xh abs=%u string=%s is_type=%u type=>%s< sym=%s mbr=%s\n",
; 887  :                evallvl, opnd->kind, opnd->llvalue, opnd->hlvalue, opnd->mem_type, opnd->is_abs,
; 888  :                opnd->quoted_string ? opnd->quoted_string->string_ptr : "NULL",
; 889  :                opnd->is_type, opnd->type ? opnd->type->name : "NULL",
; 890  :                opnd->sym ? opnd->sym->name : "NULL",
; 891  :                opnd->mbr ? opnd->mbr->name : "NULL" ));
; 892  :     return( NOT_ERROR );

	xor	eax, eax
	jmp	$LN142@get_operan
$LN65@get_operan:

; 669  :                         break;
; 670  :                     }
; 671  :                 }
; 672  :             } else {
; 673  :                 DebugMsg1(("get_operand(%s): symbol %s not defined, pass > 1, curr proc=>%s<, \n", tokenarray[i].string_ptr, tmp, CurrProc ? CurrProc->sym.name : "NULL" ));
; 674  :                 if ( opnd->type && *opnd->type->name ) {

	mov	rax, QWORD PTR [rdi+96]
	test	rax, rax
	je	SHORT $LN55@get_operan
	mov	rdx, QWORD PTR [rax+8]
	cmp	BYTE PTR [rdx], sil

; 675  :                     fnEmitErr( MEMBER_NOT_DEFINED, opnd->type->name, tmp );
; 676  :                 } else {

	jne	$LN226@get_operan
$LN55@get_operan:

; 677  :                     fnEmitErr( SYMBOL_NOT_DEFINED, *(tmp+1) == '&' ? "@@" : tmp );

	cmp	BYTE PTR [rbp+1], 38			; 00000026H
	lea	rax, OFFSET FLAT:$SG5829
	cmove	rbp, rax
$LN60@get_operan:
	mov	rdx, rbp
	mov	ecx, 102				; 00000066H

; 678  :                 }
; 679  :                 return( ERROR );

	jmp	$LN223@get_operan
$LN18@get_operan:

; 819  :             }
; 820  :             break;
; 821  :         }
; 822  :         break;
; 823  :     case T_STYPE:
; 824  :         DebugMsg1(("%u get_operand: T_STYPE (>%s<, value=%X)\n", evallvl, tokenarray[i].string_ptr, tokenarray[i].tokval));
; 825  :         opnd->kind = EXPR_CONST;

	xor	esi, esi
	mov	DWORD PTR [rdi+60], esi

; 826  :         /* for types, return the size as numeric constant */
; 827  :         /* fixme: mem_type should be set only when used as first arg of PTR op! */
; 828  :         opnd->mem_type = GetMemtypeSp( tokenarray[i].tokval );

	mov	eax, DWORD PTR [rbx+16]
	lea	rcx, QWORD PTR [rax+rax*2]
	movzx	eax, BYTE PTR SpecialTable[r15+rcx*4+10]
	mov	DWORD PTR [rdi+64], eax

; 829  :         opnd->Ofssize = GetSflagsSp( tokenarray[i].tokval );

	mov	eax, DWORD PTR [rbx+16]
	lea	rcx, QWORD PTR [rax+rax*2]
	movzx	eax, BYTE PTR SpecialTable[r15+rcx*4+4]

; 830  :         opnd->value = GetTypeSize( opnd->mem_type, opnd->Ofssize );

	mov	ecx, DWORD PTR [rdi+64]
	mov	edx, eax
	mov	BYTE PTR [rdi+69], al
	call	GetTypeSize

; 831  :         opnd->is_type = TRUE;

	or	DWORD PTR [rdi+72], 8

; 832  :         opnd->type = NULL; /* v2.08: added */

	mov	QWORD PTR [rdi+96], rsi
	mov	DWORD PTR [rdi], eax

; 884  :     }
; 885  :     (*idx)++;

	inc	DWORD PTR [r14]

; 886  :     DebugMsg1(("%u get_operand exit, ok, kind=%d value=%" I64_SPEC "X hvalue=%" I64_SPEC "X mem_type=%Xh abs=%u string=%s is_type=%u type=>%s< sym=%s mbr=%s\n",
; 887  :                evallvl, opnd->kind, opnd->llvalue, opnd->hlvalue, opnd->mem_type, opnd->is_abs,
; 888  :                opnd->quoted_string ? opnd->quoted_string->string_ptr : "NULL",
; 889  :                opnd->is_type, opnd->type ? opnd->type->name : "NULL",
; 890  :                opnd->sym ? opnd->sym->name : "NULL",
; 891  :                opnd->mbr ? opnd->mbr->name : "NULL" ));
; 892  :     return( NOT_ERROR );

	xor	eax, eax
	jmp	$LN142@get_operan
$LN17@get_operan:

; 833  :         break;
; 834  :     case T_RES_ID:
; 835  :         DebugMsg1(("%u get_operand: T_RES_ID (>%s<, value=%X)\n", evallvl, tokenarray[i].string_ptr, tokenarray[i].tokval));
; 836  :         if ( tokenarray[i].tokval == T_FLAT ) {

	cmp	DWORD PTR [rbx+16], 261			; 00000105H
	jne	SHORT $LN16@get_operan

; 837  :             /* v2.09: query NOUNDEF flag */
; 838  :             //if ( error_msg ) { /* don't define FLAT group in EQU expression! */
; 839  :             if ( ( flags & EXPF_NOUNDEF ) == 0 ) {

	test	r13b, 2
	jne	SHORT $LN15@get_operan

; 840  :                 /* v2.08 cpu check added */
; 841  :                 if( ( ModuleInfo.curr_cpu & P_CPU_MASK ) < P_386 ) {

	mov	eax, DWORD PTR ModuleInfo+392
	and	eax, 240				; 000000f0H
	cmp	eax, 48					; 00000030H
	jge	SHORT $LN14@get_operan

; 842  :                     fnEmitErr( INSTRUCTION_OR_REGISTER_NOT_ACCEPTED_IN_CURRENT_CPU_MODE );

	mov	ecx, 30
	call	QWORD PTR fnEmitErr

; 843  :                     return( ERROR );

	jmp	$LN1@get_operan
$LN14@get_operan:

; 844  :                 }
; 845  :                 DefineFlatGroup();

	call	DefineFlatGroup
$LN15@get_operan:

; 846  :             }
; 847  :             if ( !( opnd->sym = &ModuleInfo.flat_grp->sym ) )

	mov	rax, QWORD PTR ModuleInfo+440
	mov	QWORD PTR [rdi+80], rax
	cmp	QWORD PTR ModuleInfo+440, 0

; 848  :                 return( ERROR );

	je	$LN1@get_operan

; 849  : 
; 850  :             opnd->label_tok = &tokenarray[i];

	mov	QWORD PTR [rdi+40], rbx

; 851  :             opnd->kind = EXPR_ADDR;

	mov	DWORD PTR [rdi+60], 1

; 884  :     }
; 885  :     (*idx)++;

	inc	DWORD PTR [r14]

; 886  :     DebugMsg1(("%u get_operand exit, ok, kind=%d value=%" I64_SPEC "X hvalue=%" I64_SPEC "X mem_type=%Xh abs=%u string=%s is_type=%u type=>%s< sym=%s mbr=%s\n",
; 887  :                evallvl, opnd->kind, opnd->llvalue, opnd->hlvalue, opnd->mem_type, opnd->is_abs,
; 888  :                opnd->quoted_string ? opnd->quoted_string->string_ptr : "NULL",
; 889  :                opnd->is_type, opnd->type ? opnd->type->name : "NULL",
; 890  :                opnd->sym ? opnd->sym->name : "NULL",
; 891  :                opnd->mbr ? opnd->mbr->name : "NULL" ));
; 892  :     return( NOT_ERROR );

	xor	eax, eax
	jmp	$LN142@get_operan
$LN16@get_operan:

; 852  : 
; 853  :         } else {
; 854  :             return( fnEmitErr( SYNTAX_ERROR_EX, tokenarray[i].string_ptr ) );

	mov	rdx, QWORD PTR [rbx+8]
	mov	ecx, 209				; 000000d1H
	call	QWORD PTR fnEmitErr
	jmp	$LN142@get_operan
$LN11@get_operan:

; 855  :         }
; 856  :         break;
; 857  :     case T_FLOAT: /* v2.05 */
; 858  :         DebugMsg1(("%u get_operand: T_FLOAT (>%s<)\n", evallvl, tokenarray[i].string_ptr ));
; 859  :         opnd->kind = EXPR_FLOAT;

	mov	DWORD PTR [rdi+60], 3

; 860  :         opnd->float_tok = &tokenarray[i];

	mov	QWORD PTR [rdi+16], rbx

; 884  :     }
; 885  :     (*idx)++;

	inc	DWORD PTR [r14]

; 886  :     DebugMsg1(("%u get_operand exit, ok, kind=%d value=%" I64_SPEC "X hvalue=%" I64_SPEC "X mem_type=%Xh abs=%u string=%s is_type=%u type=>%s< sym=%s mbr=%s\n",
; 887  :                evallvl, opnd->kind, opnd->llvalue, opnd->hlvalue, opnd->mem_type, opnd->is_abs,
; 888  :                opnd->quoted_string ? opnd->quoted_string->string_ptr : "NULL",
; 889  :                opnd->is_type, opnd->type ? opnd->type->name : "NULL",
; 890  :                opnd->sym ? opnd->sym->name : "NULL",
; 891  :                opnd->mbr ? opnd->mbr->name : "NULL" ));
; 892  :     return( NOT_ERROR );

	xor	eax, eax
	jmp	SHORT $LN142@get_operan
$LN10@get_operan:

; 861  :         //opnd->ftype = ( tokenarray[i].floattype != 0 );
; 862  :         break;
; 863  :     //case T_CL_BRACKET:
; 864  :     //case T_CL_SQ_BRACKET:
; 865  :     default:
; 866  :         DebugMsg1(("%u get_operand: default (token=%u, string=%s)\n", evallvl, tokenarray[i].token, tokenarray[i].string_ptr));
; 867  :         if ( opnd->is_opattr ) {    /* for OPATTR, allow any operand */

	test	BYTE PTR [rdi+72], 16
	je	SHORT $LN9@get_operan

; 868  :             if ( tokenarray[i].token == T_FINAL ||
; 869  :                 tokenarray[i].token == T_CL_BRACKET ||
; 870  :                 tokenarray[i].token == T_CL_SQ_BRACKET ) /* don't go beyond T_FINAL, ) or ] ! */

	test	r8b, r8b
	je	SHORT $LN7@get_operan
	cmp	r8b, 41					; 00000029H
	je	SHORT $LN7@get_operan
	cmp	r8b, 93					; 0000005dH
	je	SHORT $LN7@get_operan
$LN8@get_operan:

; 884  :     }
; 885  :     (*idx)++;

	inc	DWORD PTR [r14]
$LN7@get_operan:

; 886  :     DebugMsg1(("%u get_operand exit, ok, kind=%d value=%" I64_SPEC "X hvalue=%" I64_SPEC "X mem_type=%Xh abs=%u string=%s is_type=%u type=>%s< sym=%s mbr=%s\n",
; 887  :                evallvl, opnd->kind, opnd->llvalue, opnd->hlvalue, opnd->mem_type, opnd->is_abs,
; 888  :                opnd->quoted_string ? opnd->quoted_string->string_ptr : "NULL",
; 889  :                opnd->is_type, opnd->type ? opnd->type->name : "NULL",
; 890  :                opnd->sym ? opnd->sym->name : "NULL",
; 891  :                opnd->mbr ? opnd->mbr->name : "NULL" ));
; 892  :     return( NOT_ERROR );

	xor	eax, eax
	jmp	SHORT $LN142@get_operan
$LN9@get_operan:

; 871  :                 return( NOT_ERROR );
; 872  :             break;
; 873  :         }
; 874  :         if ( tokenarray[i].token == T_BAD_NUM )

	cmp	r8b, 12
	jne	SHORT $LN6@get_operan

; 875  :             /* Masm complains even if in EQU-mode */
; 876  :             fnEmitErr( NONDIGIT_IN_NUMBER, tokenarray[i].string_ptr );

	mov	rdx, QWORD PTR [rbx+8]
	mov	ecx, 217				; 000000d9H
	jmp	SHORT $LN223@get_operan
$LN6@get_operan:

; 877  :         else if ( tokenarray[i].token == T_COLON )

	cmp	r8b, 58					; 0000003aH
	jne	SHORT $LN4@get_operan

; 878  :             fnEmitErr( SYNTAX_ERROR_UNEXPECTED_COLON );

	mov	ecx, 47					; 0000002fH
	call	QWORD PTR fnEmitErr
	jmp	SHORT $LN1@get_operan
$LN4@get_operan:

; 879  :         else if ( isalpha( *tokenarray[i].string_ptr ) )

	mov	rax, QWORD PTR [rbx+8]
	movsx	ecx, BYTE PTR [rax]
	call	isalpha
	test	eax, eax
	je	SHORT $LN2@get_operan

; 880  :             fnEmitErr( EXPRESSION_EXPECTED, tokenarray[i].tokpos ); /* better error msg */

	mov	ecx, 64					; 00000040H

; 881  :         else

	jmp	SHORT $LN224@get_operan
$LN2@get_operan:

; 882  :             fnEmitErr( SYNTAX_ERROR_EX, tokenarray[i].tokpos );

	mov	ecx, 209				; 000000d1H
$LN224@get_operan:
	mov	rdx, QWORD PTR [rbx+24]
$LN223@get_operan:
	call	QWORD PTR fnEmitErr
$LN1@get_operan:

; 883  :         return( ERROR );

	mov	eax, -1
$LN142@get_operan:
	mov	r15, QWORD PTR [rsp+216]
	mov	r14, QWORD PTR [rsp+224]
	mov	r13, QWORD PTR [rsp+232]
	mov	r12, QWORD PTR [rsp+240]
	mov	rdi, QWORD PTR [rsp+280]
	mov	rsi, QWORD PTR [rsp+272]
	mov	rbp, QWORD PTR [rsp+264]
	mov	rbx, QWORD PTR [rsp+256]

; 893  : }

	add	rsp, 248				; 000000f8H
	ret	0
	npad	1
$LN210@get_operan:
	DD	$LN106@get_operan
	DD	$LN18@get_operan
	DD	$LN17@get_operan
	DD	$isNowID$5736
	DD	$LN130@get_operan
	DD	$LN138@get_operan
	DD	$LN11@get_operan
	DD	$LN139@get_operan
	DD	$LN10@get_operan
$LN209@get_operan:
	DB	0
	DB	8
	DB	8
	DB	8
	DB	1
	DB	2
	DB	3
	DB	4
	DB	5
	DB	6
	DB	8
	DB	8
	DB	8
	DB	8
	DB	8
	DB	8
	DB	8
	DB	8
	DB	8
	DB	8
	DB	8
	DB	8
	DB	8
	DB	8
	DB	8
	DB	8
	DB	8
	DB	8
	DB	8
	DB	8
	DB	8
	DB	8
	DB	8
	DB	8
	DB	8
	DB	8
	DB	8
	DB	8
	DB	8
	DB	8
	DB	8
	DB	8
	DB	8
	DB	8
	DB	7
get_operand ENDP
; Function compile flags: /Ogtpy
opnd1$ = 8
opnd2$ = 16
type1$ = 24
type2$ = 32
check_both PROC NEAR

; 910  :     if( opnd1->kind == type1 && opnd2->kind == type2 )

	mov	eax, DWORD PTR [rcx+60]
	cmp	eax, r8d
	jne	SHORT $LN2@check_both
	cmp	DWORD PTR [rdx+60], r9d

; 911  :         return( TRUE );

	je	SHORT $LN5@check_both
$LN2@check_both:

; 912  :     if( opnd1->kind == type2 && opnd2->kind == type1 )

	cmp	eax, r9d
	jne	SHORT $LN1@check_both
	cmp	DWORD PTR [rdx+60], r8d
	jne	SHORT $LN1@check_both
$LN5@check_both:

; 913  :         return( TRUE );

	mov	al, 1

; 915  : }

	ret	0
$LN1@check_both:

; 914  :     return( FALSE );

	xor	al, al

; 915  : }

	ret	0
check_both ENDP
; Function compile flags: /Ogtpy
opnd1$ = 8
opnd2$ = 16
index_connect PROC NEAR

; 921  :     /* move opnd2.base to either opnd1.base or opnd1.idx */
; 922  :     if ( opnd2->base_reg != NULL ) {

	mov	rax, QWORD PTR [rdx+24]
	test	rax, rax
	je	SHORT $LN10@index_conn

; 923  :         if ( opnd1->base_reg == NULL )

	mov	r8, QWORD PTR [rcx+24]
	test	r8, r8
	jne	SHORT $LN9@index_conn

; 924  :             opnd1->base_reg = opnd2->base_reg;

	mov	QWORD PTR [rcx+24], rax
	jmp	SHORT $LN5@index_conn
$LN9@index_conn:

; 925  :         else if ( opnd1->idx_reg == NULL ) {

	cmp	QWORD PTR [rcx+32], 0
	jne	SHORT $LN2@index_conn

; 926  :             /* v2.10: exchange base and index register.
; 927  :              * was previously in parser.c, and only done
; 928  :              * if -Zg was active.
; 929  :              */
; 930  :             if ( opnd1->base_reg->bytval != 4 ) {   /* if base isn't [E|R]SP, exchange regs */

	cmp	BYTE PTR [r8+1], 4
	je	SHORT $LN6@index_conn

; 931  :                 opnd1->idx_reg = opnd1->base_reg;

	mov	QWORD PTR [rcx+32], r8

; 932  :                 opnd1->base_reg = opnd2->base_reg;

	mov	rax, QWORD PTR [rdx+24]
	mov	QWORD PTR [rcx+24], rax

; 933  :             } else {

	jmp	SHORT $LN5@index_conn
$LN6@index_conn:

; 934  :                 opnd1->idx_reg = opnd2->base_reg;

	mov	QWORD PTR [rcx+32], rax
$LN5@index_conn:

; 935  :             }
; 936  :         } else {
; 937  :             return( fnEmitErr( MULTIPLE_INDEX_REGISTERS_NOT_ALLOWED ) );
; 938  :         }
; 939  :         opnd1->indirect = TRUE;

	or	DWORD PTR [rcx+72], 1
$LN10@index_conn:

; 940  :     }
; 941  :     /* move opnd2.idx to opnd1.index - if it is free */
; 942  :     if( opnd2->idx_reg != NULL ) {

	mov	rax, QWORD PTR [rdx+32]
	test	rax, rax
	je	SHORT $LN3@index_conn

; 943  :         //if ( opnd2->scale == 0 && opnd1->base_reg == NULL ) {
; 944  :         //    opnd1->base_reg = opnd2->idx_reg;
; 945  :         //} else if ( opnd1->idx_reg == NULL ) {
; 946  :         if ( opnd1->idx_reg == NULL ) {

	cmp	QWORD PTR [rcx+32], 0
	jne	SHORT $LN2@index_conn

; 947  :             opnd1->idx_reg = opnd2->idx_reg;

	mov	QWORD PTR [rcx+32], rax

; 948  :             opnd1->scale = opnd2->scale;

	movzx	eax, BYTE PTR [rdx+68]

; 951  :         }
; 952  :         opnd1->indirect = TRUE;

	or	DWORD PTR [rcx+72], 1
	mov	BYTE PTR [rcx+68], al
$LN3@index_conn:

; 953  :     }
; 954  :     return( NOT_ERROR );

	xor	eax, eax

; 955  : }

	ret	0
$LN2@index_conn:

; 949  :         } else {
; 950  :             return( fnEmitErr( MULTIPLE_INDEX_REGISTERS_NOT_ALLOWED ) );

	mov	ecx, 34					; 00000022H

; 955  : }

	rex_jmp	QWORD PTR fnEmitErr
index_connect ENDP
; Function compile flags: /Ogtpy
opnd$ = 8
MakeConst PROC NEAR

; 966  :     if( ( opnd->kind != EXPR_ADDR ) || opnd->indirect ) /* v2.09: check for indirect added */

	cmp	DWORD PTR [rcx+60], 1
	jne	SHORT $LN11@MakeConst
	mov	r8d, DWORD PTR [rcx+72]
	test	r8b, 1
	jne	SHORT $LN11@MakeConst

; 967  :         return;
; 968  : 
; 969  :     if( opnd->sym ) {

	mov	rax, QWORD PTR [rcx+80]
	test	rax, rax
	je	SHORT $LN10@MakeConst

; 970  :         if ( Parse_Pass > PASS_1 )

	cmp	DWORD PTR Parse_Pass, 0
	ja	SHORT $LN11@MakeConst

; 971  :             return;
; 972  :         /* added for v1.94: if the evaluator assumed an address because
; 973  :          * the label wasn't defined yet, then negate this. Also, an
; 974  :          * EXTERNDEF:ABS is to be accepted.
; 975  :          * v2.07: if the "not yet defined" label was an argument of
; 976  :          * an (OFFSET) operator, do NOT change the type!
; 977  :          */
; 978  :         if ( ( opnd->sym->state == SYM_UNDEFINED && opnd->instr == EMPTY ) ||
; 979  :             ( opnd->sym->state == SYM_EXTERNAL && opnd->sym->weak == TRUE && opnd->is_abs == TRUE ) )

	mov	edx, DWORD PTR [rax+40]
	test	edx, edx
	jne	SHORT $LN6@MakeConst
	cmp	DWORD PTR [rcx+56], -2
	je	SHORT $LN7@MakeConst
$LN6@MakeConst:
	cmp	edx, 2
	jne	SHORT $LN11@MakeConst
	test	BYTE PTR [rax+55], 8
	je	SHORT $LN11@MakeConst
	test	r8b, 4
	je	SHORT $LN11@MakeConst
$LN7@MakeConst:

; 980  :             ;
; 981  :         else
; 982  :             return;
; 983  :         /* assume a value != 0 to avoid problems with div */
; 984  :         opnd->value = 1;

	mov	DWORD PTR [rcx], 1
$LN10@MakeConst:

; 985  :     }
; 986  : 
; 987  :     opnd->label_tok = NULL;
; 988  :     if( opnd->mbr != NULL ) {

	mov	rax, QWORD PTR [rcx+88]
	xor	edx, edx
	test	rax, rax
	mov	QWORD PTR [rcx+40], rdx
	je	SHORT $LN2@MakeConst

; 989  :         if( opnd->mbr->state == SYM_STRUCT_FIELD ) {

	cmp	DWORD PTR [rax+40], 6
	jne	SHORT $LN11@MakeConst
$LN2@MakeConst:

; 990  : #if 0 /* v2.09: mbr can only be SYM_STRUCT_FIELD or SYM_UNDEFINED (if nullmbr) */
; 991  :         } else if( opnd->mbr->state == SYM_TYPE ) {
; 992  :             opnd->value += opnd->mbr->total_size;
; 993  :             opnd->mbr = NULL;
; 994  : #endif
; 995  :         } else {
; 996  :             return;
; 997  :         }
; 998  :     }
; 999  : #if 0 /* v2.09: obsolete */
; 1000 :     if( opnd->base_reg != NULL )
; 1001 :         return;
; 1002 :     if( opnd->idx_reg  != NULL )
; 1003 :         return;
; 1004 : #endif
; 1005 :     if( opnd->override != NULL )

	cmp	QWORD PTR [rcx+48], rdx
	jne	SHORT $LN11@MakeConst

; 1006 :         return;
; 1007 :     opnd->instr = EMPTY;
; 1008 :     opnd->kind = EXPR_CONST;
; 1009 :     //opnd->indirect = FALSE; /* not needed */
; 1010 :     opnd->explicit = FALSE;

	and	r8d, -3					; fffffffdH
	mov	DWORD PTR [rcx+56], -2
	mov	DWORD PTR [rcx+60], edx
	mov	DWORD PTR [rcx+72], r8d

; 1011 :     opnd->mem_type = MT_EMPTY;

	mov	DWORD PTR [rcx+64], 192			; 000000c0H
$LN11@MakeConst:

; 1012 : }

	ret	0
MakeConst ENDP
; Function compile flags: /Ogtpy
opnd1$ = 8
opnd2$ = 16
MakeConst2 PROC NEAR

; 1019 : {

	mov	r9, rdx

; 1020 : 
; 1021 :     if ( opnd1->sym->state == SYM_EXTERNAL ) {

	mov	rdx, QWORD PTR [rcx+80]
	mov	r10, rcx
	mov	r8d, DWORD PTR [rdx+40]
	cmp	r8d, 2
	jne	SHORT $LN5@MakeConst2

; 1022 :         return( fnEmitErr( INVALID_USE_OF_EXTERNAL_SYMBOL, opnd1->sym->name ) );

	mov	rdx, QWORD PTR [rdx+8]
	mov	ecx, 193				; 000000c1H

; 1035 : }

	rex_jmp	QWORD PTR fnEmitErr
$LN5@MakeConst2:

; 1023 :     } else if ( ( opnd1->sym->segment != opnd2->sym->segment &&
; 1024 :                  /* v2.07: ignore segments if at least one label is a fwd ref */
; 1025 :                  opnd1->sym->state != SYM_UNDEFINED &&
; 1026 :                  opnd2->sym->state != SYM_UNDEFINED ) ||
; 1027 :                opnd2->sym->state == SYM_EXTERNAL ) {

	mov	rcx, QWORD PTR [r9+80]
	mov	rax, QWORD PTR [rcx+32]
	cmp	QWORD PTR [rdx+32], rax
	je	SHORT $LN1@MakeConst2
	test	r8d, r8d
	je	SHORT $LN1@MakeConst2
	cmp	DWORD PTR [rcx+40], 0
	jne	SHORT $LN2@MakeConst2
$LN1@MakeConst2:
	cmp	DWORD PTR [rcx+40], 2
	jne	SHORT $LN3@MakeConst2
$LN2@MakeConst2:

; 1028 :         return( fnEmitErr( OPERANDS_MUST_BE_IN_SAME_SEGMENT ) );

	mov	ecx, 192				; 000000c0H

; 1035 : }

	rex_jmp	QWORD PTR fnEmitErr
$LN3@MakeConst2:

; 1029 :     }
; 1030 :     opnd1->kind = EXPR_CONST;

	xor	ecx, ecx
	mov	DWORD PTR [r10+60], ecx

; 1031 :     opnd1->value += opnd1->sym->offset;

	mov	eax, DWORD PTR [rdx+16]
	add	DWORD PTR [r10], eax

; 1032 :     opnd2->kind = EXPR_CONST;
; 1033 :     opnd2->value += opnd2->sym->offset;

	mov	rax, QWORD PTR [r9+80]
	mov	DWORD PTR [r9+60], ecx
	mov	ecx, DWORD PTR [rax+16]
	add	DWORD PTR [r9], ecx

; 1034 :     return( NOT_ERROR );

	xor	eax, eax

; 1035 : }

	ret	0
MakeConst2 ENDP
_TEXT	ENDS
xdata	SEGMENT
$unwind$ConstError DD 010401H
	DD	04204H
xdata	ENDS
pdata	SEGMENT
$pdata$ConstError DD @imagerel(ConstError#)
	DD	@imagerel(ConstError#+55)
	DD	@imagerel($unwind$ConstError#)
; Function compile flags: /Ogtpy
pdata	ENDS
_TEXT	SEGMENT
opnd1$ = 48
opnd2$ = 56
ConstError PROC NEAR

; 1039 : {

	sub	rsp, 40					; 00000028H

; 1040 :     if ( opnd1->is_opattr )

	test	BYTE PTR [rcx+72], 16
	je	SHORT $LN4@ConstError

; 1041 :         return( NOT_ERROR );

	xor	eax, eax

; 1047 : }

	add	rsp, 40					; 00000028H
	ret	0
$LN4@ConstError:

; 1042 :     if ( opnd1->kind == EXPR_FLOAT || opnd2->kind == EXPR_FLOAT )

	cmp	DWORD PTR [rcx+60], 3
	je	SHORT $LN2@ConstError
	cmp	DWORD PTR [rdx+60], 3

; 1044 :     else
; 1045 :         fnEmitErr( CONSTANT_EXPECTED );

	mov	ecx, 65					; 00000041H
	jne	SHORT $LN7@ConstError
$LN2@ConstError:

; 1043 :         fnEmitErr( REAL_OR_BCD_NUMBER_NOT_ALLOWED );

	mov	ecx, 271				; 0000010fH
$LN7@ConstError:
	call	QWORD PTR fnEmitErr

; 1046 :     return( ERROR );

	mov	eax, -1

; 1047 : }

	add	rsp, 40					; 00000028H
	ret	0
ConstError ENDP
; Function compile flags: /Ogtpy
opnd$ = 8
fix_struct_value PROC NEAR

; 1054 :     if( opnd->mbr && ( opnd->mbr->state == SYM_TYPE ) ) {

	mov	rax, QWORD PTR [rcx+88]
	test	rax, rax
	je	SHORT $LN1@fix_struct
	cmp	DWORD PTR [rax+40], 7
	jne	SHORT $LN1@fix_struct

; 1055 :         opnd->value += opnd->mbr->total_size;

	mov	eax, DWORD PTR [rax+64]

; 1056 :         opnd->mbr = NULL;

	mov	QWORD PTR [rcx+88], 0
	add	DWORD PTR [rcx], eax
$LN1@fix_struct:

; 1057 :     }
; 1058 : }

	ret	0
fix_struct_value ENDP
; Function compile flags: /Ogtpy
opnd1$ = 8
opnd2$ = 16
check_direct_reg PROC NEAR

; 1063 :     if( ( opnd1->kind == EXPR_REG ) && ( opnd1->indirect == FALSE )
; 1064 :         || ( opnd2->kind == EXPR_REG ) && ( opnd2->indirect == FALSE ) ) {

	cmp	DWORD PTR [rcx+60], 2
	jne	SHORT $LN1@check_dire
	test	BYTE PTR [rcx+72], 1
	je	SHORT $LN2@check_dire
$LN1@check_dire:
	cmp	DWORD PTR [rdx+60], 2
	jne	SHORT $LN3@check_dire
	test	BYTE PTR [rdx+72], 1
	jne	SHORT $LN3@check_dire
$LN2@check_dire:

; 1065 :         return( ERROR );

	mov	eax, -1

; 1068 : }

	ret	0
$LN3@check_dire:

; 1066 :     }
; 1067 :     return( NOT_ERROR );

	xor	eax, eax

; 1068 : }

	ret	0
check_direct_reg ENDP
_TEXT	ENDS
EXTRN	SizeFromMemtype:NEAR
; Function compile flags: /Ogtpy
_TEXT	SEGMENT
sym$ = 8
GetSizeValue PROC NEAR

; 1072 : {

	mov	r8, rcx

; 1073 :     if ( sym->mem_type == MT_PTR )

	mov	ecx, DWORD PTR [rcx+44]
	cmp	ecx, 195				; 000000c3H

; 1074 :         return( SizeFromMemtype( sym->isfar ? MT_FAR : MT_NEAR, sym->Ofssize, sym->type ) );

	movzx	edx, BYTE PTR [r8+52]
	jne	SHORT $LN1@GetSizeVal
	test	BYTE PTR [r8+55], 16
	mov	ecx, 0
	setne	cl
	add	ecx, 129				; 00000081H
$LN1@GetSizeVal:

; 1075 :     return( SizeFromMemtype( sym->mem_type, sym->Ofssize, sym->type ) );

	mov	r8, QWORD PTR [r8+88]

; 1076 : }

	jmp	SizeFromMemtype
GetSizeValue ENDP
; Function compile flags: /Ogtpy
opnd$ = 8
IsOffset PROC NEAR

; 1081 :     if ( opnd->mem_type == MT_EMPTY )

	cmp	DWORD PTR [rcx+64], 192			; 000000c0H
	jne	SHORT $LN2@IsOffset

; 1082 :         if ( opnd->instr == T_OFFSET ||
; 1083 : #if IMAGERELSUPP
; 1084 :             opnd->instr == T_IMAGEREL ||
; 1085 : #endif
; 1086 : #if SECTIONRELSUPP
; 1087 :             opnd->instr == T_SECTIONREL ||
; 1088 : #endif
; 1089 :             opnd->instr == T_LROFFSET )

	mov	eax, DWORD PTR [rcx+56]
	cmp	eax, 241				; 000000f1H
	je	SHORT $LN1@IsOffset
	cmp	eax, 233				; 000000e9H
	je	SHORT $LN1@IsOffset
	cmp	eax, 243				; 000000f3H
	je	SHORT $LN1@IsOffset
	cmp	eax, 239				; 000000efH
	jne	SHORT $LN2@IsOffset
$LN1@IsOffset:

; 1090 :             return( 1 );

	mov	eax, 1

; 1092 : }

	ret	0
$LN2@IsOffset:

; 1091 :     return( 0 );

	xor	eax, eax

; 1092 : }

	ret	0
IsOffset ENDP
_TEXT	ENDS
EXTRN	_strupr:NEAR
xdata	SEGMENT
$unwind$invalid_operand DD 020601H
	DD	030023206H
xdata	ENDS
pdata	SEGMENT
$pdata$invalid_operand DD @imagerel(invalid_operand#)
	DD	@imagerel(invalid_operand#+51)
	DD	@imagerel($unwind$invalid_operand#)
; Function compile flags: /Ogtpy
pdata	ENDS
_TEXT	SEGMENT
opnd$ = 48
oprtr$ = 56
operand$ = 64
invalid_operand PROC NEAR

; 1096 : {

	push	rbx
	sub	rsp, 32					; 00000020H

; 1097 :     if ( !opnd->is_opattr )

	test	BYTE PTR [rcx+72], 16
	mov	rbx, r8
	jne	SHORT $LN4@invalid_op

; 1098 :         fnEmitErr( INVALID_OPERAND_FOR_OPERATOR, _strupr( oprtr), operand );

	mov	rcx, rdx
	call	_strupr
	mov	r8, rbx
	mov	ecx, 228				; 000000e4H
	mov	rdx, rax
	call	QWORD PTR fnEmitErr
$LN4@invalid_op:

; 1099 :     return( ERROR );

	mov	eax, -1

; 1100 : }

	add	rsp, 32					; 00000020H
	pop	rbx
	ret	0
invalid_operand ENDP
_TEXT	ENDS
EXTRN	GetSymOfssize:NEAR
xdata	SEGMENT
$unwind$sizlen_op DD 050e01H
	DD	09740eH
	DD	083409H
	DD	04204H
xdata	ENDS
pdata	SEGMENT
$pdata$sizlen_op DD @imagerel(sizlen_op#)
	DD	@imagerel(sizlen_op#+626)
	DD	@imagerel($unwind$sizlen_op#)
; Function compile flags: /Ogtpy
pdata	ENDS
_TEXT	SEGMENT
oper$ = 48
opnd1$ = 56
opnd2$ = 64
sym$ = 72
name$ = 80
sizlen_op PROC NEAR

; 1116 : {

	sub	rsp, 40					; 00000028H
	mov	QWORD PTR [rsp+64], rbx
	mov	QWORD PTR [rsp+72], rdi

; 1117 :     opnd1->kind = EXPR_CONST;

	xor	edi, edi

; 1118 : 
; 1119 :     DebugMsg1(("sizlen_op(%s): sym=%X, mbr=%X, type=>%s<\n", GetResWName( oper, NULL ),
; 1120 :                opnd2->sym, opnd2->mbr, opnd2->type ? opnd2->type->name : "NULL" ));
; 1121 : 
; 1122 :     if ( sym ) {

	test	r9, r9
	mov	rbx, rdx
	mov	DWORD PTR [rdx+60], edi
	lea	edx, QWORD PTR [rdi+1]
	je	SHORT $LN41@sizlen_op

; 1123 :         if ( sym->state == SYM_STRUCT_FIELD || sym->state == SYM_STACK )

	mov	eax, DWORD PTR [r9+40]
	cmp	eax, 6
	je	SHORT $LN41@sizlen_op
	cmp	eax, 5
	je	SHORT $LN41@sizlen_op

; 1124 :             ;
; 1125 :         else if ( sym->state == SYM_UNDEFINED ) {

	test	eax, eax
	jne	SHORT $LN39@sizlen_op

; 1126 :             /* v2.10: forward references should have attributes EXPR_ADDR + sym.state=SYM_UNDEFINED */
; 1127 :             opnd1->kind = EXPR_ADDR;

	mov	DWORD PTR [rbx+60], edx

; 1128 :             opnd1->sym = sym;

	mov	QWORD PTR [rbx+80], r9
$LN41@sizlen_op:

; 1143 :         }
; 1144 :     }
; 1145 : 
; 1146 :     switch( oper ) {

	sub	ecx, 234				; 000000eaH
	je	$LN26@sizlen_op
	dec	ecx
	je	$LN25@sizlen_op
	sub	ecx, 11
	je	$LN20@sizlen_op
	dec	ecx
	jne	$LN27@sizlen_op

; 1193 :         } else {
; 1194 :             opnd1->value = GetSizeValue( sym );
; 1195 :         }
; 1196 :         DebugMsg1(("sizlen_op(SIZE): result=%u [symbol %s, first_size=%u]\n", opnd1->value, sym ? sym->name : "NULL", sym ? sym->first_size : 0 ));
; 1197 :         break;
; 1198 :     case T_SIZEOF:
; 1199 : #ifdef DEBUG_OUT
; 1200 :         if (sym)
; 1201 :             DebugMsg1(("sizlen_op(sizeof): symbol %s, state=%u, size=%u\n", sym->name, sym->state, sym->total_size ));
; 1202 :         else if ( opnd2->is_type && opnd2->type )
; 1203 :             DebugMsg1(("sizlen_op(sizeof): symbol %s (TYPE), opnd2.value=%u\n", opnd2->type->name, opnd2->value ));
; 1204 :         else
; 1205 :             DebugMsg1(("sizlen_op(sizeof): symbol NULL, opnd2.value=%u\n", opnd2->value ));
; 1206 : #endif
; 1207 :         /* if sym is NULL, then operand is a type constant */
; 1208 :         if ( sym == NULL ) {

	test	r9, r9
	jne	$LN6@sizlen_op

; 1209 :             /* v2.06: default value of RECORD types is the mask! */
; 1210 :             if ( opnd2->is_type && opnd2->type && opnd2->type->typekind == TYPE_RECORD )

	test	BYTE PTR [r8+72], 8
	je	$LN18@sizlen_op
	mov	rax, QWORD PTR [r8+96]
	test	rax, rax
	je	$LN18@sizlen_op
	cmp	BYTE PTR [rax+74], 4
	jne	$LN18@sizlen_op

; 1211 :                 opnd1->value = opnd2->type->total_size;

	mov	eax, DWORD PTR [rax+64]
	mov	DWORD PTR [rbx], eax

; 1222 :         break;
; 1223 :     }
; 1224 :     return( NOT_ERROR );

	xor	eax, eax
	mov	rdi, QWORD PTR [rsp+72]
	mov	rbx, QWORD PTR [rsp+64]

; 1225 : }

	add	rsp, 40					; 00000028H
	ret	0
$LN39@sizlen_op:

; 1129 :         } else if ( ( sym->state == SYM_EXTERNAL ||
; 1130 :                  sym->state == SYM_INTERNAL) &&
; 1131 :                  //sym->mem_type != MT_ABS &&
; 1132 :                  sym->mem_type != MT_EMPTY &&
; 1133 :                  //sym->mem_type != MT_PROC && /* MT_PROC probably obsolete */
; 1134 :                  sym->mem_type != MT_FAR &&
; 1135 :                  sym->mem_type != MT_NEAR )

	cmp	eax, 2
	je	SHORT $LN36@sizlen_op
	cmp	eax, edx
	jne	SHORT $LN37@sizlen_op
$LN36@sizlen_op:
	mov	r10d, DWORD PTR [r9+44]
	cmp	r10d, 192				; 000000c0H
	je	SHORT $LN37@sizlen_op
	cmp	r10d, 130				; 00000082H
	je	SHORT $LN37@sizlen_op
	cmp	r10d, 129				; 00000081H
	jne	$LN41@sizlen_op
$LN37@sizlen_op:

; 1136 :             ;
; 1137 :         else if ( sym->state == SYM_GRP || sym->state == SYM_SEG ) {

	cmp	eax, 4
	je	SHORT $LN33@sizlen_op
	cmp	eax, 3
	je	SHORT $LN33@sizlen_op

; 1138 :             return( fnEmitErr( EXPECTED_DATA_LABEL ) );
; 1139 :         } else if ( oper == T_SIZE || oper == T_LENGTH )

	cmp	ecx, 246				; 000000f6H
	je	$LN41@sizlen_op
	cmp	ecx, 234				; 000000eaH
	je	$LN41@sizlen_op
$LN33@sizlen_op:

; 1140 :             ;
; 1141 :         else {
; 1142 :             return( fnEmitErr( EXPECTED_DATA_LABEL ) );

	mov	ecx, 232				; 000000e8H
	mov	rdi, QWORD PTR [rsp+72]
	mov	rbx, QWORD PTR [rsp+64]

; 1225 : }

	add	rsp, 40					; 00000028H
	rex_jmp	QWORD PTR fnEmitErr
$LN6@sizlen_op:

; 1212 :             else
; 1213 :                 opnd1->value = opnd2->value;
; 1214 : #if 1 /* v2.05: don't use total_size for externals anymore! */
; 1215 :         } else if ( sym->state == SYM_EXTERNAL && sym->iscomm == FALSE ) {

	cmp	DWORD PTR [r9+40], 2
	jne	SHORT $LN2@sizlen_op
	test	BYTE PTR [r9+55], 4

; 1216 :             opnd1->value = GetSizeValue( sym );
; 1217 :             //if ( sym->iscomm == TRUE )
; 1218 :             //    opnd1->value *= sym->total_length;
; 1219 : #endif
; 1220 :         } else

	je	SHORT $LN48@sizlen_op
$LN2@sizlen_op:

; 1221 :             opnd1->value = sym->total_size;

	mov	eax, DWORD PTR [r9+64]
	mov	DWORD PTR [rbx], eax

; 1222 :         break;
; 1223 :     }
; 1224 :     return( NOT_ERROR );

	xor	eax, eax
	mov	rdi, QWORD PTR [rsp+72]
	mov	rbx, QWORD PTR [rsp+64]

; 1225 : }

	add	rsp, 40					; 00000028H
	ret	0
$LN20@sizlen_op:

; 1169 :         }
; 1170 :         break;
; 1171 :     case T_SIZE:
; 1172 :         /* v2.04: first_size is no longer set for SYM_STACK. */
; 1173 :         if( sym == NULL ) {

	test	r9, r9
	jne	SHORT $LN19@sizlen_op

; 1174 :             /* v2.09: check memtype */
; 1175 :             if ( ( opnd2->mem_type & MT_SPECIAL_MASK ) == MT_ADDRESS )

	mov	eax, DWORD PTR [r8+64]
	and	eax, 192				; 000000c0H
	cmp	al, -128				; ffffffffffffff80H
	jne	SHORT $LN18@sizlen_op

; 1176 :                 opnd1->value = 0xFF00 | opnd2->value;

	mov	eax, DWORD PTR [r8]
	or	eax, 65280				; 0000ff00H
	mov	DWORD PTR [rbx], eax

; 1222 :         break;
; 1223 :     }
; 1224 :     return( NOT_ERROR );

	xor	eax, eax
	mov	rdi, QWORD PTR [rsp+72]
	mov	rbx, QWORD PTR [rsp+64]

; 1225 : }

	add	rsp, 40					; 00000028H
	ret	0
$LN18@sizlen_op:

; 1177 :             else
; 1178 :                 opnd1->value = opnd2->value;

	mov	eax, DWORD PTR [r8]
	mov	DWORD PTR [rbx], eax

; 1222 :         break;
; 1223 :     }
; 1224 :     return( NOT_ERROR );

	xor	eax, eax
	mov	rdi, QWORD PTR [rsp+72]
	mov	rbx, QWORD PTR [rsp+64]

; 1225 : }

	add	rsp, 40					; 00000028H
	ret	0
$LN19@sizlen_op:

; 1179 :         } else if ( sym->isdata ) {

	test	BYTE PTR [r9+49], 4
	je	SHORT $LN15@sizlen_op

; 1180 :             opnd1->value = sym->first_size;

	mov	eax, DWORD PTR [r9+52]
	mov	DWORD PTR [rbx], eax

; 1222 :         break;
; 1223 :     }
; 1224 :     return( NOT_ERROR );

	xor	eax, eax
	mov	rdi, QWORD PTR [rsp+72]
	mov	rbx, QWORD PTR [rsp+64]

; 1225 : }

	add	rsp, 40					; 00000028H
	ret	0
$LN15@sizlen_op:

; 1181 : #if 0 /* v2.09: can't happen, since for a type, sym is NULL */
; 1182 :         } else if( sym->state == SYM_TYPE ) {
; 1183 :             opnd1->value = sym->total_size;
; 1184 : #endif
; 1185 :         } else if( sym->state == SYM_STACK ) {

	cmp	DWORD PTR [r9+40], 5
	jne	SHORT $LN13@sizlen_op
$LN48@sizlen_op:

; 1186 :             opnd1->value = GetSizeValue( sym );

	mov	rcx, r9
	call	GetSizeValue
	mov	DWORD PTR [rbx], eax

; 1222 :         break;
; 1223 :     }
; 1224 :     return( NOT_ERROR );

	xor	eax, eax
	mov	rdi, QWORD PTR [rsp+72]
	mov	rbx, QWORD PTR [rsp+64]

; 1225 : }

	add	rsp, 40					; 00000028H
	ret	0
$LN13@sizlen_op:

; 1187 :         } else if( sym->mem_type == MT_NEAR ) {

	mov	eax, DWORD PTR [r9+44]
	cmp	eax, 129				; 00000081H
	jne	SHORT $LN11@sizlen_op

; 1188 :             /* v2.09: also handle 64-bit */
; 1189 :             //opnd1->value = GetSymOfssize( sym ) ? LS_NEAR32 : LS_NEAR16;
; 1190 :             opnd1->value = 0xFF00 | ( 2 << GetSymOfssize( sym ) );

	mov	rcx, r9
	call	GetSymOfssize
	mov	ecx, eax
	mov	eax, 2
	shl	eax, cl
	or	eax, 65280				; 0000ff00H
	mov	DWORD PTR [rbx], eax

; 1222 :         break;
; 1223 :     }
; 1224 :     return( NOT_ERROR );

	xor	eax, eax
	mov	rdi, QWORD PTR [rsp+72]
	mov	rbx, QWORD PTR [rsp+64]

; 1225 : }

	add	rsp, 40					; 00000028H
	ret	0
$LN11@sizlen_op:

; 1191 :         } else if( sym->mem_type == MT_FAR ) {

	cmp	eax, 130				; 00000082H
	jne	SHORT $LN48@sizlen_op

; 1192 :             opnd1->value = GetSymOfssize( sym ) ? LS_FAR32 : LS_FAR16;

	mov	rcx, r9
	call	GetSymOfssize
	test	eax, eax
	setne	dil
	add	edi, 65285				; 0000ff05H

; 1222 :         break;
; 1223 :     }
; 1224 :     return( NOT_ERROR );

	xor	eax, eax
	mov	DWORD PTR [rbx], edi
	mov	rdi, QWORD PTR [rsp+72]
	mov	rbx, QWORD PTR [rsp+64]

; 1225 : }

	add	rsp, 40					; 00000028H
	ret	0
$LN25@sizlen_op:

; 1154 :         break;
; 1155 :     case T_LENGTHOF:
; 1156 :         /* LENGTHOF needs either a data label or a structure field */
; 1157 :         /* a TYPE (structure, typedef) is invalid */
; 1158 :         if( opnd2->kind == EXPR_CONST ) {

	cmp	DWORD PTR [r8+60], edi
	jne	SHORT $LN24@sizlen_op

; 1159 :             opnd1->value = opnd2->mbr->total_length;

	mov	rax, QWORD PTR [r8+88]
	mov	ecx, DWORD PTR [rax+72]

; 1222 :         break;
; 1223 :     }
; 1224 :     return( NOT_ERROR );

	xor	eax, eax
	mov	DWORD PTR [rbx], ecx
	mov	rdi, QWORD PTR [rsp+72]
	mov	rbx, QWORD PTR [rsp+64]

; 1225 : }

	add	rsp, 40					; 00000028H
	ret	0
$LN24@sizlen_op:

; 1160 : #if 0 /* v2.09: unnecessary */
; 1161 :         } else if( sym->state == SYM_UNDEFINED && Parse_Pass == PASS_1 ) {
; 1162 :             opnd1->value = sym->total_length;
; 1163 : #endif
; 1164 :         } else if ( sym->state == SYM_EXTERNAL && sym->iscomm == FALSE ) {

	cmp	DWORD PTR [r9+40], 2
	jne	SHORT $LN22@sizlen_op
	test	BYTE PTR [r9+55], 4

; 1165 :             /* for externals other than COMM, total_length field is used otherwise */
; 1166 :             opnd1->value = 1;
; 1167 :         } else {

	je	SHORT $LN46@sizlen_op
$LN22@sizlen_op:

; 1168 :             opnd1->value = sym->total_length;

	mov	eax, DWORD PTR [r9+72]
	mov	DWORD PTR [rbx], eax

; 1222 :         break;
; 1223 :     }
; 1224 :     return( NOT_ERROR );

	xor	eax, eax
	mov	rdi, QWORD PTR [rsp+72]
	mov	rbx, QWORD PTR [rsp+64]

; 1225 : }

	add	rsp, 40					; 00000028H
	ret	0
$LN26@sizlen_op:

; 1147 :     case T_LENGTH:
; 1148 :         /* data items and struct fields have a "first" count.
; 1149 :          * for procedure locals (+arguments) and code labels, always 1 is returned.
; 1150 :          */
; 1151 :         /* v2.09: first_length is valid if isdata is set */
; 1152 :         //opnd1->value = ( sym->state != SYM_STACK && sym->isarray ) ? sym->first_length : 1;
; 1153 :         opnd1->value = sym->isdata ? sym->first_length : 1;

	test	BYTE PTR [r9+49], 4
	je	SHORT $LN46@sizlen_op
	mov	edx, DWORD PTR [r9+56]
$LN46@sizlen_op:
	mov	DWORD PTR [rbx], edx
$LN27@sizlen_op:
	mov	rdi, QWORD PTR [rsp+72]
	mov	rbx, QWORD PTR [rsp+64]

; 1222 :         break;
; 1223 :     }
; 1224 :     return( NOT_ERROR );

	xor	eax, eax

; 1225 : }

	add	rsp, 40					; 00000028H
	ret	0
sizlen_op ENDP
_TEXT	ENDS
EXTRN	MemtypeFromSize:NEAR
EXTRN	GetStdAssumeEx:NEAR
EXTRN	SizeFromRegister:NEAR
xdata	SEGMENT
$unwind$type_op DD 092201H
	DD	057422H
	DD	066415H
	DD	07540eH
	DD	083409H
	DD	08204H
xdata	ENDS
pdata	SEGMENT
$pdata$type_op DD @imagerel(type_op#)
	DD	@imagerel(type_op#+860)
	DD	@imagerel($unwind$type_op#)
; Function compile flags: /Ogtpy
pdata	ENDS
_TEXT	SEGMENT
oper$ = 80
opnd1$ = 88
opnd2$ = 96
sym$ = 104
name$ = 112
type_op	PROC NEAR

; 1231 : {

	sub	rsp, 72					; 00000048H
	mov	QWORD PTR [rsp+64], rbx
	mov	QWORD PTR [rsp+56], rbp

; 1232 :     DebugMsg1(("type_op: opnd2 kind=%d memtype=%X sym=%s type=%s instr=%d istype=%u explicit=%u\n",
; 1233 :                opnd2->kind,
; 1234 :                opnd2->mem_type,
; 1235 :                sym ? sym->name : "NULL",
; 1236 :                opnd2->type ? opnd2->type->name : "NULL",
; 1237 :                opnd2->instr,
; 1238 :                opnd2->is_type,
; 1239 :                opnd2->explicit ));
; 1240 :     opnd1->kind = EXPR_CONST;

	xor	ebp, ebp
	mov	QWORD PTR [rsp+48], rsi
	mov	DWORD PTR [rdx+60], ebp

; 1241 :     /* TYPE accepts arrays/structs/unions */
; 1242 :     /* v2.11: if memtype isn't empty, ignore any unary operator
; 1243 :      * test cases:
; 1244 :      * - type qword ptr sym.
; 1245 :      * - type qword ptr offset sym
; 1246 :      * operators LOW, HIGH, LOWWORD, HIGHWORD, LOW32, HIGH32,
; 1247 :      * OFFSET, IMAGEREL, SECTIONREL and LROFFSET
; 1248 :      * will set opnd.memtype to MT_EMPTY.
; 1249 :      */
; 1250 :     if( opnd2->instr != EMPTY && opnd2->mem_type != MT_EMPTY ) {

	cmp	DWORD PTR [r8+56], -2
	mov	QWORD PTR [rsp+40], rdi
	mov	rsi, r9
	mov	rbx, rdx
	mov	rdi, r8
	je	SHORT $LN39@type_op
	cmp	DWORD PTR [r8+64], 192			; 000000c0H
	je	SHORT $LN39@type_op

; 1251 :         opnd2->instr = EMPTY;

	mov	DWORD PTR [r8+56], -2

; 1252 :         sym = NULL;

	mov	rsi, rbp
$LN39@type_op:

; 1253 :     }
; 1254 :     if( opnd2->instr != EMPTY ) {

	mov	eax, DWORD PTR [r8+56]
	cmp	eax, -2
	je	SHORT $LN38@type_op

; 1255 :         if ( opnd2->sym ) {

	mov	rcx, QWORD PTR [r8+80]
	test	rcx, rcx
	je	$LN1@type_op

; 1256 :             switch ( opnd2->instr ) {

	add	eax, -230				; ffffffffffffff1aH
	cmp	eax, 13
	ja	$LN1@type_op
	lea	rdx, OFFSET FLAT:__ImageBase
	cdqe
	mov	eax, DWORD PTR $LN44@type_op[rdx+rax*4]
	add	rax, rdx
	jmp	rax
$LN34@type_op:

; 1257 :             case T_LOW:
; 1258 :             case T_HIGH:
; 1259 :                 opnd1->value = 1;

	mov	DWORD PTR [rbx], 1

; 1260 :                 break;

	jmp	$LN1@type_op
$LN33@type_op:

; 1261 :             case T_LOWWORD:
; 1262 :             case T_HIGHWORD:
; 1263 :                 //case T_SEG: /* masm returns 0 for TYPE SEG <label>! */
; 1264 :                 opnd1->value = 2;

	mov	eax, 2

; 1265 :                 break;

	jmp	$LN45@type_op
$LN32@type_op:

; 1266 : #if LOHI32
; 1267 :             case T_LOW32:
; 1268 :             case T_HIGH32:
; 1269 :                 opnd1->value = 4;

	mov	DWORD PTR [rbx], 4

; 1270 :                 break;

	jmp	$LN1@type_op
$LN31@type_op:

; 1271 : #endif
; 1272 :             case T_OFFSET:
; 1273 :             case T_LROFFSET:
; 1274 : #if SECTIONRELSUPP
; 1275 :             case T_SECTIONREL: /* masm returns 0 for TYPE SECTIONREL <label>! */
; 1276 : #endif
; 1277 : #if IMAGERELSUPP
; 1278 :             case T_IMAGEREL: /* masm returns 0 for TYPE IMAGEREL <label>! */
; 1279 : #endif
; 1280 :                 opnd1->value = 2 << GetSymOfssize( opnd2->sym );

	call	GetSymOfssize
	mov	ecx, eax
	mov	eax, 2
	shl	eax, cl

; 1281 :                 opnd1->is_type = TRUE; /* v2.03: added */

	or	DWORD PTR [rbx+72], 8

; 1282 :                 break;
; 1283 :             }
; 1284 :         }

	jmp	$LN45@type_op
$LN38@type_op:

; 1285 :     } else if ( sym == NULL ) {

	test	rsi, rsi
	jne	$LN29@type_op

; 1286 :         //printf( "sym=NULL kind=%d mem_type=%X indirect=%u is_type=%u type=%s\n", opnd2->kind, opnd2->mem_type, opnd2->indirect, opnd2->is_type, opnd2->type ? opnd2->type->name : "NULL" );
; 1287 :         /* for types, return total_size */
; 1288 :         if ( opnd2->is_type == TRUE ) {

	mov	eax, DWORD PTR [r8+72]
	test	al, 8
	je	SHORT $LN28@type_op

; 1289 :             /* v2.06: default value of RECORD types is the mask! */
; 1290 :             if ( opnd2->type && opnd2->type->typekind == TYPE_RECORD )

	mov	rax, QWORD PTR [r8+96]
	test	rax, rax
	je	SHORT $LN27@type_op
	cmp	BYTE PTR [rax+74], 4
	jne	SHORT $LN27@type_op

; 1291 :                 opnd2->value = opnd2->type->total_size;

	mov	eax, DWORD PTR [rax+64]
	mov	DWORD PTR [r8], eax
$LN27@type_op:

; 1292 :             //opnd1->value = opnd2->value;
; 1293 :             TokenAssign( opnd1, opnd2 );

	mov	rcx, rdx
	mov	rdx, r8
	mov	r8d, 96					; 00000060H
	call	memcpy

; 1294 :             /* v2.05: added, (type procptr) ptr <reg>
; 1295 :              * the type probably should be set generally,
; 1296 :              * but this variant is the one used by INVOKE, other
; 1297 :              * usages are virtually irrelevant.
; 1298 :              * v2.10: opnd1->type now always set. Example:
; 1299 :              *   ( type x ) eq ( type y )
; 1300 :              * also see new function cmp_types()
; 1301 :              */
; 1302 :             //if ( opnd2->mem_type == MT_PROC )
; 1303 :             opnd1->type = opnd2->type;

	mov	r11, QWORD PTR [rdi+96]
	mov	QWORD PTR [rbx+96], r11
	jmp	$LN1@type_op
$LN28@type_op:

; 1304 : 
; 1305 :         } else if ( opnd2->kind == EXPR_REG && opnd2->indirect == FALSE ) {

	cmp	DWORD PTR [r8+60], 2
	jne	$LN25@type_op
	test	al, 1
	jne	$LN25@type_op

; 1306 :             opnd1->value = SizeFromRegister( opnd2->base_reg->tokval );

	mov	rax, QWORD PTR [r8+24]
	mov	ecx, DWORD PTR [rax+16]
	call	SizeFromRegister

; 1307 :             opnd1->is_type = TRUE; /* v2.03: added */

	or	DWORD PTR [rbx+72], 8
	mov	DWORD PTR [rbx], eax

; 1308 :             /* v2.10: check for assumes if it's a full size GPR */
; 1309 :             if ( opnd1->value == CurrWordSize &&
; 1310 :                 opnd1->mem_type == MT_EMPTY &&
; 1311 :                 ( GetValueSp( opnd2->base_reg->tokval ) & OP_RGT8 ) &&
; 1312 :                 ( sym = GetStdAssumeEx( opnd2->base_reg->bytval ) ) ) {

	movzx	ecx, BYTE PTR ModuleInfo+406
	cmp	eax, ecx
	jne	SHORT $LN24@type_op
	cmp	DWORD PTR [rbx+64], 192			; 000000c0H
	jne	SHORT $LN24@type_op
	mov	r8, QWORD PTR [rdi+24]
	lea	rdx, OFFSET FLAT:__ImageBase
	mov	eax, DWORD PTR [r8+16]
	lea	rcx, QWORD PTR [rax+rax*2]
	test	BYTE PTR SpecialTable[rdx+rcx*4], 14
	je	SHORT $LN24@type_op
	movzx	ecx, BYTE PTR [r8+1]
	call	GetStdAssumeEx
	test	rax, rax
	je	SHORT $LN24@type_op

; 1313 :                 DebugMsg1(("type_op: assume type=%X [name=>%s< memtype=%X]\n", sym, sym->name, sym->mem_type ));
; 1314 :                 opnd1->type = sym;

	mov	QWORD PTR [rbx+96], rax

; 1315 :                 opnd1->mem_type = sym->mem_type;

	mov	ecx, DWORD PTR [rax+44]
	mov	DWORD PTR [rbx+64], ecx

; 1316 :                 opnd1->value = sym->total_size;

	mov	eax, DWORD PTR [rax+64]

; 1317 :             } else {

	jmp	$LN45@type_op
$LN24@type_op:

; 1318 :                 opnd1->mem_type = opnd2->mem_type; /* v2.10: added */

	mov	eax, DWORD PTR [rdi+64]
	lea	rdx, QWORD PTR [rbx+64]
	mov	DWORD PTR [rdx], eax

; 1319 :                 opnd1->type = opnd2->type; /* v2.10: added */
; 1320 :                 if ( opnd1->mem_type == MT_EMPTY )

	cmp	DWORD PTR [rdx], 192			; 000000c0H
	mov	rax, QWORD PTR [rdi+96]
	mov	QWORD PTR [rbx+96], rax
	jne	$LN1@type_op

; 1321 :                     MemtypeFromSize( opnd1->value, &opnd1->mem_type ); /* v2.03: added */

	mov	ecx, DWORD PTR [rbx]
	call	MemtypeFromSize

; 1322 :             }

	jmp	$LN1@type_op
$LN25@type_op:

; 1323 : 
; 1324 : #if 0 /* Masm returns 0 for TYPE <segment_register> */
; 1325 :             /* if it is a segment register, use default word size */
; 1326 :             if ( opnd1->value == 0 )
; 1327 :                 opnd1->value = Use32 ? 4 : 2;
; 1328 : #endif
; 1329 :         //} else if ( opnd2->explicit ) { /* v2.05: changed */
; 1330 :         //} else if ( opnd2->mem_type != MT_EMPTY ) { /* v2.10: changed */
; 1331 :         } else if ( opnd2->mem_type != MT_EMPTY || opnd2->explicit ) {

	mov	ecx, DWORD PTR [r8+64]
	cmp	ecx, 192				; 000000c0H
	jne	SHORT $LN19@type_op
	test	al, 2
	jne	SHORT $LN19@type_op

; 1343 :         } else /* it is a number or EXPR_REG + indirect */
; 1344 :             opnd1->value = 0;

	mov	DWORD PTR [rdx], ebp
	jmp	$LN1@type_op
$LN19@type_op:

; 1332 :             if ( opnd2->mem_type != MT_EMPTY ) {

	cmp	ecx, 192				; 000000c0H
	je	SHORT $LN18@type_op

; 1333 :                 opnd1->value = SizeFromMemtype( opnd2->mem_type, opnd2->Ofssize, opnd2->type );

	movzx	edx, BYTE PTR [r8+69]
	mov	r8, QWORD PTR [r8+96]
	call	SizeFromMemtype
	mov	DWORD PTR [rbx], eax

; 1334 :                 opnd1->mem_type = opnd2->mem_type; /* v2.04: added */

	mov	eax, DWORD PTR [rdi+64]

; 1339 :                 }
; 1340 :             }
; 1341 :             opnd1->is_type = TRUE; /* v2.04: added */

	or	DWORD PTR [rbx+72], 8
	mov	DWORD PTR [rbx+64], eax

; 1342 :             opnd1->type = opnd2->type; /* v2.09: added */

	mov	rax, QWORD PTR [rdi+96]
	mov	QWORD PTR [rbx+96], rax

; 1345 : #if 0
; 1346 :     } else if ( sym->state == SYM_TYPE ) {
; 1347 :         TokenAssign( opnd1, opnd2 );
; 1348 :         opnd1->type = sym;
; 1349 : #endif
; 1350 :     } else if ( sym->state == SYM_UNDEFINED ) { /* v2.10: added */

	jmp	$LN1@type_op
$LN18@type_op:

; 1335 :             } else {
; 1336 :                 if ( opnd2->type ) {

	mov	rax, QWORD PTR [r8+96]
	test	rax, rax
	je	SHORT $LN16@type_op

; 1337 :                     opnd1->value = opnd2->type->total_size;

	mov	eax, DWORD PTR [rax+64]
	mov	DWORD PTR [rdx], eax

; 1338 :                     opnd1->mem_type = opnd2->type->mem_type;

	mov	rax, QWORD PTR [r8+96]
	mov	ecx, DWORD PTR [rax+44]
	mov	DWORD PTR [rdx+64], ecx
$LN16@type_op:

; 1339 :                 }
; 1340 :             }
; 1341 :             opnd1->is_type = TRUE; /* v2.04: added */

	or	DWORD PTR [rbx+72], 8

; 1342 :             opnd1->type = opnd2->type; /* v2.09: added */

	mov	rax, QWORD PTR [rdi+96]
	mov	QWORD PTR [rbx+96], rax

; 1345 : #if 0
; 1346 :     } else if ( sym->state == SYM_TYPE ) {
; 1347 :         TokenAssign( opnd1, opnd2 );
; 1348 :         opnd1->type = sym;
; 1349 : #endif
; 1350 :     } else if ( sym->state == SYM_UNDEFINED ) { /* v2.10: added */

	jmp	$LN1@type_op
$LN29@type_op:
	cmp	DWORD PTR [rsi+40], ebp
	jne	SHORT $LN13@type_op

; 1351 :         opnd1->kind = EXPR_ADDR;
; 1352 :         opnd1->sym = sym;
; 1353 :         /* is_type must be set, to avoid the forward referenced symbol be changed
; 1354 :          * to a type if the type expression is the left operand of PTR
; 1355 :          */
; 1356 :         opnd1->is_type = TRUE;

	or	DWORD PTR [rdx+72], 8
	mov	DWORD PTR [rdx+60], 1
	mov	QWORD PTR [rdx+80], rsi
	jmp	$LN1@type_op
$LN13@type_op:

; 1357 :         //} else if( sym->mem_type == MT_TYPE ) { /* v2.04: check for explicit */
; 1358 :     } else if( sym->mem_type == MT_TYPE && opnd2->explicit == FALSE ) {

	cmp	DWORD PTR [rsi+44], 196			; 000000c4H
	jne	SHORT $LN11@type_op
	test	BYTE PTR [r8+72], 2
	jne	SHORT $LN11@type_op

; 1359 :         opnd1->value = sym->type->total_size;

	mov	rax, QWORD PTR [rsi+88]
	mov	ecx, DWORD PTR [rax+64]

; 1360 :         opnd1->is_type = TRUE; /* v2.03: added */

	or	DWORD PTR [rdx+72], 8
	mov	DWORD PTR [rdx], ecx

; 1361 :         //if ( opnd1->mem_type == MT_EMPTY ) /* v2.09 */
; 1362 :         opnd1->mem_type = sym->type->mem_type; /* v2.09 */

	mov	rax, QWORD PTR [rsi+88]
	mov	ecx, DWORD PTR [rax+44]
	mov	DWORD PTR [rdx+64], ecx

; 1363 :         opnd1->type = sym->type; /* v2.09 */

	mov	rax, QWORD PTR [rsi+88]
	mov	QWORD PTR [rdx+96], rax

; 1364 :         //printf( "sym=%s MT_TYPE type=%s type->memt=%X\n", sym->name, sym->type->name, sym->type->mem_type );
; 1365 :     } else {

	jmp	$LN1@type_op
$LN11@type_op:

; 1366 : #if 1 /* v2.03: added */
; 1367 :         opnd1->is_type = TRUE;

	or	DWORD PTR [rdx+72], 8

; 1368 :         if ( opnd1->mem_type == MT_EMPTY )

	cmp	DWORD PTR [rdx+64], 192			; 000000c0H
	jne	SHORT $LN9@type_op

; 1369 :             opnd1->mem_type = opnd2->mem_type;

	mov	eax, DWORD PTR [r8+64]
	mov	DWORD PTR [rdx+64], eax
$LN9@type_op:

; 1370 : #endif
; 1371 :         //if ( opnd2->type ) { /* v2.10a: see types14.asm */
; 1372 :         if ( opnd2->type && opnd2->mbr == NULL ) {

	cmp	QWORD PTR [r8+96], rbp
	je	SHORT $LN8@type_op
	cmp	QWORD PTR [r8+88], rbp
	jne	SHORT $LN8@type_op

; 1373 :             opnd1->type_tok = opnd2->type_tok;

	mov	rax, QWORD PTR [r8+40]
	mov	QWORD PTR [rdx+40], rax

; 1374 :             opnd1->type = opnd2->type;

	mov	rax, QWORD PTR [r8+96]
	mov	QWORD PTR [rdx+96], rax

; 1375 :             opnd1->value = opnd1->type->total_size;

	mov	eax, DWORD PTR [rax+64]
	mov	DWORD PTR [rdx], eax
	jmp	SHORT $LN1@type_op
$LN8@type_op:

; 1376 :         } else if ( sym->mem_type == MT_PTR ) {

	mov	eax, DWORD PTR [rsi+44]
	cmp	eax, 195				; 000000c3H
	jne	SHORT $LN6@type_op

; 1377 :             //printf( "sym=%s MT_PTR target_memt=%X target=%s\n", sym->name, sym->ptr_memtype, sym->target_type ? sym->target_type->name : "NULL" );
; 1378 :             opnd1->type_tok = opnd2->type_tok; /* v2.10: added */

	mov	rax, QWORD PTR [r8+40]
	mov	QWORD PTR [rdx+40], rax

; 1379 :             opnd1->value = SizeFromMemtype( sym->isfar ? MT_FAR : MT_NEAR, sym->Ofssize, NULL );

	test	BYTE PTR [rsi+55], 16
	movzx	edx, BYTE PTR [rsi+52]
	setne	bpl
	xor	r8d, r8d
	lea	ecx, DWORD PTR [rbp+129]
	jmp	SHORT $LN46@type_op
$LN6@type_op:

; 1380 :         } else if( sym->mem_type == MT_NEAR ) {

	cmp	eax, 129				; 00000081H
	jne	SHORT $LN4@type_op

; 1381 :             /* v2.09: also handle 64-bit */
; 1382 :             //opnd1->value = GetSymOfssize( sym ) ? LS_NEAR32 : LS_NEAR16;
; 1383 :             opnd1->value = 0xFF00 | ( 2 << GetSymOfssize( sym ) );

	mov	rcx, rsi
	call	GetSymOfssize
	mov	ecx, eax
	mov	eax, 2
	shl	eax, cl
	or	eax, 65280				; 0000ff00H
	jmp	SHORT $LN45@type_op
$LN4@type_op:

; 1384 :         } else if( sym->mem_type == MT_FAR ) {

	cmp	eax, 130				; 00000082H
	jne	SHORT $LN2@type_op

; 1385 :             opnd1->value = GetSymOfssize( sym ) ? LS_FAR32 : LS_FAR16;

	mov	rcx, rsi
	call	GetSymOfssize
	test	eax, eax
	setne	bpl
	add	ebp, 65285				; 0000ff05H
	mov	DWORD PTR [rbx], ebp

; 1386 :         } else

	jmp	SHORT $LN1@type_op
$LN2@type_op:

; 1387 :             opnd1->value = SizeFromMemtype( opnd2->mem_type, GetSymOfssize( sym ), sym->type );

	mov	rcx, rsi
	call	GetSymOfssize
	mov	r8, QWORD PTR [rsi+88]
	mov	ecx, DWORD PTR [rdi+64]
	mov	edx, eax
$LN46@type_op:
	call	SizeFromMemtype
$LN45@type_op:
	mov	DWORD PTR [rbx], eax
$LN1@type_op:
	mov	rdi, QWORD PTR [rsp+40]
	mov	rsi, QWORD PTR [rsp+48]
	mov	rbp, QWORD PTR [rsp+56]
	mov	rbx, QWORD PTR [rsp+64]

; 1388 :     }
; 1389 :     DebugMsg1(("type_op: result value=%u is_type=%u type=%s\n", opnd1->value, opnd1->is_type, opnd1->type ? opnd1->type->name : "NULL" ));
; 1390 :     return( NOT_ERROR );

	xor	eax, eax

; 1391 : }

	add	rsp, 72					; 00000048H
	ret	0
	npad	1
$LN44@type_op:
	DD	$LN34@type_op
	DD	$LN32@type_op
	DD	$LN33@type_op
	DD	$LN31@type_op
	DD	$LN1@type_op
	DD	$LN1@type_op
	DD	$LN34@type_op
	DD	$LN32@type_op
	DD	$LN33@type_op
	DD	$LN31@type_op
	DD	$LN1@type_op
	DD	$LN31@type_op
	DD	$LN1@type_op
	DD	$LN31@type_op
type_op	ENDP
; Function compile flags: /Ogtpy
oper$ = 8
opnd1$ = 16
opnd2$ = 24
sym$ = 32
name$ = 40
opattr_op PROC NEAR

; 1413 : 
; 1414 :     DebugMsg1(("opattr_op: arg kind=%d memtype=%X sym=%s\n",
; 1415 :                opnd2->kind, opnd2->mem_type,
; 1416 :                opnd2->sym ? opnd2->sym->name : "NULL" ));
; 1417 :     opnd1->kind = EXPR_CONST;
; 1418 :     opnd1->sym = NULL;  /* clear symbol in case it is undef */
; 1419 :     opnd1->value = 0;
; 1420 :     opnd1->mem_type = MT_EMPTY;
; 1421 :     opnd1->is_opattr = FALSE; /* v2: added */

	and	DWORD PTR [rdx+72], -17			; ffffffefH
	xor	eax, eax
	mov	DWORD PTR [rdx+64], 192			; 000000c0H
	mov	DWORD PTR [rdx+60], eax
	mov	QWORD PTR [rdx+80], rax
	mov	DWORD PTR [rdx], eax

; 1422 : 
; 1423 :     if ( opnd2->kind == EXPR_EMPTY )

	mov	eax, DWORD PTR [r8+60]
	mov	r9d, ecx
	cmp	eax, -2

; 1424 :         return( NOT_ERROR );

	je	$LN1@opattr_op

; 1425 : 
; 1426 :     /* bit 0: code label (near|far)? */
; 1427 :     if ( opnd2->kind == EXPR_ADDR ) {

	cmp	eax, 1
	jne	$LN25@opattr_op

; 1428 :         if ( opnd2->sym && opnd2->sym->state != SYM_STACK &&
; 1429 :             ( opnd2->mem_type & MT_SPECIAL_MASK ) == MT_ADDRESS )

	mov	rax, QWORD PTR [r8+80]
	test	rax, rax
	je	SHORT $LN27@opattr_op
	cmp	DWORD PTR [rax+40], 5
	je	SHORT $LN27@opattr_op
	mov	eax, DWORD PTR [r8+64]
	and	eax, 192				; 000000c0H
	cmp	al, -128				; ffffffffffffff80H
	jne	SHORT $LN27@opattr_op

; 1430 :             opnd1->value |= OPATTR_CODELABEL;

	mov	DWORD PTR [rdx], 1
$LN27@opattr_op:

; 1431 : 
; 1432 :         if ( IsOffset( opnd2 ) &&
; 1433 :             opnd2->sym &&
; 1434 :             ( opnd2->sym->mem_type & MT_SPECIAL_MASK ) == MT_ADDRESS )

	cmp	DWORD PTR [r8+64], 192			; 000000c0H
	jne	SHORT $LN26@opattr_op
	mov	eax, DWORD PTR [r8+56]
	cmp	eax, 241				; 000000f1H
	je	SHORT $LN42@opattr_op
	cmp	eax, 233				; 000000e9H
	je	SHORT $LN42@opattr_op
	cmp	eax, 243				; 000000f3H
	je	SHORT $LN42@opattr_op
	cmp	eax, 239				; 000000efH
	jne	SHORT $LN26@opattr_op
$LN42@opattr_op:
	mov	rax, QWORD PTR [r8+80]
	test	rax, rax
	je	SHORT $LN26@opattr_op
	mov	eax, DWORD PTR [rax+44]
	and	eax, 192				; 000000c0H
	cmp	al, -128				; ffffffffffffff80H
	jne	SHORT $LN26@opattr_op

; 1435 :             opnd1->value |= OPATTR_CODELABEL;

	or	DWORD PTR [rdx], 1
$LN26@opattr_op:

; 1436 : 
; 1437 :         /* bit 1: memory variable, relocatable data label? */
; 1438 :         if ( opnd2->sym &&
; 1439 :             (( opnd2->sym->mem_type == MT_TYPE ||
; 1440 :               ( opnd2->mem_type & MT_SPECIAL ) == 0 ) ||
; 1441 :              ( opnd2->mem_type == MT_EMPTY &&
; 1442 :               ( opnd2->sym->mem_type & MT_SPECIAL ) == 0 )))

	mov	rax, QWORD PTR [r8+80]
	test	rax, rax
	je	SHORT $LN25@opattr_op
	mov	ecx, DWORD PTR [rax+44]
	cmp	ecx, 196				; 000000c4H
	je	SHORT $LN24@opattr_op
	mov	eax, DWORD PTR [r8+64]
	test	al, al
	jns	SHORT $LN24@opattr_op
	cmp	eax, 192				; 000000c0H
	jne	SHORT $LN25@opattr_op
	test	cl, cl
	js	SHORT $LN25@opattr_op
$LN24@opattr_op:

; 1443 :             opnd1->value |= OPATTR_DATALABEL;

	or	DWORD PTR [rdx], 2
$LN25@opattr_op:

; 1444 :     }
; 1445 :     /* kind==EXPR_ADDR is not reliably set for indirect register addressing! */
; 1446 :     /* v2.12: check if operand is valid */
; 1447 :     //if ( opnd2->indirect )
; 1448 :     if ( opnd2->kind != EXPR_ERROR && opnd2->indirect )

	cmp	DWORD PTR [r8+60], -1
	je	SHORT $LN23@opattr_op
	test	BYTE PTR [r8+72], 1
	je	SHORT $LN23@opattr_op

; 1449 :         opnd1->value |= OPATTR_DATALABEL;

	or	DWORD PTR [rdx], 2
$LN23@opattr_op:

; 1450 : 
; 1451 : 
; 1452 :     /* bit 2: immediate value? */
; 1453 : 	/* John Hankinson modified here to allow -Zne switch to treat literal string macro argument with opattr type = 0 */
; 1454 : 	if (Options.strict_masm_compat && opnd2->kind == EXPR_CONST && opnd2->mem_type != MT_SQWORD && opnd2->quoted_string != NULL)

	cmp	BYTE PTR Options+136, 0
	je	SHORT $LN22@opattr_op
	cmp	DWORD PTR [r8+60], 0
	jne	SHORT $LN22@opattr_op
	cmp	DWORD PTR [r8+64], 71			; 00000047H
	je	SHORT $LN22@opattr_op
	cmp	QWORD PTR [r8+16], 0
	jne	SHORT $LN20@opattr_op
$LN22@opattr_op:

; 1455 : 	{
; 1456 : 	}
; 1457 :     else if ( opnd2->kind == EXPR_CONST ||
; 1458 :         ( opnd2->kind == EXPR_ADDR &&
; 1459 :          opnd2->indirect == FALSE &&
; 1460 :          (( opnd2->mem_type == MT_EMPTY && IsOffset(opnd2) ) ||
; 1461 :           //( opnd2->mem_type == MT_ABS ) ||  /* v2.06: added (abs. external) */
; 1462 :           ( opnd2->mem_type == MT_EMPTY ) ||  /* v2.06: added (abs. external) */
; 1463 :           (( opnd2->mem_type & MT_SPECIAL_MASK ) == MT_ADDRESS )) &&
; 1464 :          ( opnd2->sym->state == SYM_INTERNAL ||
; 1465 :           opnd2->sym->state == SYM_EXTERNAL ) ) )

	mov	eax, DWORD PTR [r8+60]
	test	eax, eax
	je	SHORT $LN16@opattr_op
	cmp	eax, 1
	jne	SHORT $LN20@opattr_op
	test	BYTE PTR [r8+72], al
	jne	SHORT $LN20@opattr_op
	mov	eax, DWORD PTR [r8+64]
	cmp	eax, 192				; 000000c0H
	jne	SHORT $LN44@opattr_op
	mov	ecx, DWORD PTR [r8+56]
	cmp	ecx, 241				; 000000f1H
	je	SHORT $LN18@opattr_op
	cmp	ecx, 233				; 000000e9H
	je	SHORT $LN18@opattr_op
	cmp	ecx, 243				; 000000f3H
	je	SHORT $LN18@opattr_op
	cmp	ecx, 239				; 000000efH
	je	SHORT $LN18@opattr_op
	cmp	eax, eax
	je	SHORT $LN18@opattr_op
$LN44@opattr_op:
	and	eax, 192				; 000000c0H
	cmp	al, -128				; ffffffffffffff80H
	jne	SHORT $LN20@opattr_op
$LN18@opattr_op:
	mov	rax, QWORD PTR [r8+80]
	mov	ecx, DWORD PTR [rax+40]
	cmp	ecx, 1
	je	SHORT $LN16@opattr_op
	cmp	ecx, 2
	jne	SHORT $LN20@opattr_op
$LN16@opattr_op:

; 1466 :         opnd1->value |= OPATTR_IMMEDIATE;

	or	DWORD PTR [rdx], 4
$LN20@opattr_op:

; 1467 : 
; 1468 :     /* bit 3: uses direct memory addressing?
; 1469 :      */
; 1470 :     if ( opnd2->kind == EXPR_ADDR &&
; 1471 :         opnd2->indirect == FALSE &&
; 1472 :         //opnd2->base_reg == NULL &&
; 1473 :         (( opnd2->mem_type == MT_EMPTY && opnd2->instr == EMPTY ) ||
; 1474 :          ( opnd2->mem_type == MT_TYPE ) || /* v2.05: added */
; 1475 :          (( opnd2->mem_type & MT_SPECIAL ) == 0 ) ||
; 1476 :          opnd2->mem_type == MT_PTR ) &&
; 1477 :         (opnd2->sym == NULL ||
; 1478 :          opnd2->sym->state == SYM_INTERNAL ||
; 1479 :          opnd2->sym->state == SYM_EXTERNAL ) )

	cmp	DWORD PTR [r8+60], 1
	jne	SHORT $LN15@opattr_op
	test	BYTE PTR [r8+72], 1
	jne	SHORT $LN15@opattr_op
	mov	eax, DWORD PTR [r8+64]
	cmp	eax, 192				; 000000c0H
	jne	SHORT $LN13@opattr_op
	cmp	DWORD PTR [r8+56], -2
	je	SHORT $LN14@opattr_op
$LN13@opattr_op:
	cmp	eax, 196				; 000000c4H
	je	SHORT $LN14@opattr_op
	test	al, al
	jns	SHORT $LN14@opattr_op
	cmp	eax, 195				; 000000c3H
	jne	SHORT $LN15@opattr_op
$LN14@opattr_op:
	mov	rax, QWORD PTR [r8+80]
	test	rax, rax
	je	SHORT $LN12@opattr_op
	mov	ecx, DWORD PTR [rax+40]
	cmp	ecx, 1
	je	SHORT $LN12@opattr_op
	cmp	ecx, 2
	jne	SHORT $LN15@opattr_op
$LN12@opattr_op:

; 1480 :         opnd1->value |= OPATTR_DIRECTMEM;

	or	DWORD PTR [rdx], 8
$LN15@opattr_op:

; 1481 : 
; 1482 :     if ( opnd2->kind == EXPR_REG && opnd2->indirect == FALSE )

	cmp	DWORD PTR [r8+60], 2
	jne	SHORT $LN11@opattr_op
	test	BYTE PTR [r8+72], 1
	jne	SHORT $LN11@opattr_op

; 1483 :         opnd1->value |= OPATTR_REGISTER;

	or	DWORD PTR [rdx], 16
$LN11@opattr_op:

; 1484 : 
; 1485 :     //if ( opnd2->kind != EXPR_ERROR && ( opnd2->sym == 0 || opnd2->sym->isdefined == TRUE ) )
; 1486 : 	/* John Hankinson modified here to allow -Zne switch to treat literal string macro argument with opattr type = 0 */
; 1487 : 	if (Options.strict_masm_compat && opnd2->kind == EXPR_CONST && opnd2->mem_type != MT_SQWORD && opnd2->quoted_string != NULL)

	cmp	BYTE PTR Options+136, 0
	je	SHORT $LN10@opattr_op
	cmp	DWORD PTR [r8+60], 0
	jne	SHORT $LN10@opattr_op
	cmp	DWORD PTR [r8+64], 71			; 00000047H
	je	SHORT $LN10@opattr_op
	cmp	QWORD PTR [r8+16], 0
	jne	SHORT $LN8@opattr_op
$LN10@opattr_op:

; 1488 : 	{
; 1489 : 	}
; 1490 :     else if ( opnd2->kind != EXPR_ERROR && opnd2->kind != EXPR_FLOAT && ( opnd2->sym == NULL || opnd2->sym->isdefined == TRUE ) )

	mov	eax, DWORD PTR [r8+60]
	cmp	eax, -1
	je	SHORT $LN8@opattr_op
	cmp	eax, 3
	je	SHORT $LN8@opattr_op
	mov	rax, QWORD PTR [r8+80]
	test	rax, rax
	je	SHORT $LN7@opattr_op
	test	BYTE PTR [rax+48], 2
	je	SHORT $LN8@opattr_op
$LN7@opattr_op:

; 1491 :         opnd1->value |= OPATTR_DEFINED; 

	or	DWORD PTR [rdx], 32			; 00000020H
$LN8@opattr_op:

; 1492 : 
; 1493 :     if ( ( opnd2->sym && opnd2->sym->state == SYM_STACK ) ||
; 1494 :         ( opnd2->indirect && opnd2->base_reg &&
; 1495 :          /* v2.11: use new flag SFR_SSBASED */
; 1496 :          //( opnd2->base_reg->tokval == T_ESP || opnd2->base_reg->tokval == T_EBP || opnd2->base_reg->tokval == T_BP ) ) )
; 1497 :          ( GetSflagsSp( opnd2->base_reg->tokval ) & SFR_SSBASED ) ) )

	mov	rax, QWORD PTR [r8+80]
	test	rax, rax
	je	SHORT $LN4@opattr_op
	cmp	DWORD PTR [rax+40], 5
	je	SHORT $LN5@opattr_op
$LN4@opattr_op:
	test	BYTE PTR [r8+72], 1
	je	SHORT $LN6@opattr_op
	mov	rax, QWORD PTR [r8+24]
	test	rax, rax
	je	SHORT $LN6@opattr_op
	mov	eax, DWORD PTR [rax+16]
	lea	rcx, QWORD PTR [rax+rax*2]
	lea	rax, OFFSET FLAT:SpecialTable+4
	test	BYTE PTR [rax+rcx*4], 64		; 00000040H
	je	SHORT $LN6@opattr_op
$LN5@opattr_op:

; 1498 :             opnd1->value |= OPATTR_SSREL;

	or	DWORD PTR [rdx], 64			; 00000040H
$LN6@opattr_op:

; 1499 :     
; 1500 :     if ( opnd2->sym && opnd2->sym->state == SYM_EXTERNAL )

	mov	rax, QWORD PTR [r8+80]
	test	rax, rax
	je	SHORT $LN3@opattr_op
	cmp	DWORD PTR [rax+40], 2
	jne	SHORT $LN3@opattr_op

; 1501 :         opnd1->value |= OPATTR_EXTRNREF;

	or	DWORD PTR [rdx], 128			; 00000080H
$LN3@opattr_op:

; 1502 : 
; 1503 :     if ( oper == T_OPATTR )

	cmp	r9d, 242				; 000000f2H
	jne	SHORT $LN1@opattr_op

; 1504 :         /* v2.12: no language if symbol isn't defined properly */
; 1505 :         //if ( opnd2->sym )
; 1506 :         if ( opnd2->sym && opnd2->kind != EXPR_ERROR )

	mov	rax, QWORD PTR [r8+80]
	test	rax, rax
	je	SHORT $LN1@opattr_op
	cmp	DWORD PTR [r8+60], -1
	je	SHORT $LN1@opattr_op

; 1507 :             opnd1->value |= opnd2->sym->langtype << 8;

	mov	eax, DWORD PTR [rax+84]
	shl	eax, 8
	or	DWORD PTR [rdx], eax
$LN1@opattr_op:

; 1508 : 
; 1509 :     DebugMsg1(("opattr_op returns %Xh\n", opnd1->value));
; 1510 :     return( NOT_ERROR );

	xor	eax, eax

; 1511 : }

	ret	0
opattr_op ENDP
_TEXT	ENDS
xdata	SEGMENT
$unwind$short_op DD 051301H
	DD	057413H
	DD	06340eH
	DD	06204H
xdata	ENDS
pdata	SEGMENT
$pdata$short_op DD @imagerel(short_op#)
	DD	@imagerel(short_op#+114)
	DD	@imagerel($unwind$short_op#)
; Function compile flags: /Ogtpy
pdata	ENDS
_TEXT	SEGMENT
oper$ = 64
opnd1$ = 72
opnd2$ = 80
sym$ = 88
name$ = 96
short_op PROC NEAR

; 1515 : {

	sub	rsp, 56					; 00000038H

; 1516 :     if ( opnd2->kind != EXPR_ADDR ||
; 1517 :         ( opnd2->mem_type != MT_EMPTY &&
; 1518 :          opnd2->mem_type != MT_NEAR &&
; 1519 :          opnd2->mem_type != MT_FAR ) ) {

	cmp	DWORD PTR [r8+60], 1
	mov	QWORD PTR [rsp+48], rbx
	mov	QWORD PTR [rsp+40], rdi
	mov	edi, ecx
	mov	rbx, rdx
	jne	SHORT $LN1@short_op
	mov	eax, DWORD PTR [r8+64]
	cmp	eax, 192				; 000000c0H
	je	SHORT $LN2@short_op
	cmp	eax, 129				; 00000081H
	je	SHORT $LN2@short_op
	cmp	eax, 130				; 00000082H
	jne	SHORT $LN1@short_op
$LN2@short_op:

; 1521 :     }
; 1522 :     TokenAssign( opnd1, opnd2 );

	mov	rcx, rdx
	mov	rdx, r8
	mov	r8d, 96					; 00000060H
	call	memcpy

; 1523 :     opnd1->instr = oper;

	mov	DWORD PTR [rbx+56], edi

; 1524 :     return( NOT_ERROR );

	xor	eax, eax
	mov	rdi, QWORD PTR [rsp+40]
	mov	rbx, QWORD PTR [rsp+48]

; 1525 : }

	add	rsp, 56					; 00000038H
	ret	0
$LN1@short_op:

; 1520 :         return( fnEmitErr( EXPRESSION_MUST_BE_A_CODE_ADDRESS ) );

	mov	ecx, 233				; 000000e9H
	mov	rdi, QWORD PTR [rsp+40]
	mov	rbx, QWORD PTR [rsp+48]

; 1525 : }

	add	rsp, 56					; 00000038H
	rex_jmp	QWORD PTR fnEmitErr
short_op ENDP
_TEXT	ENDS
xdata	SEGMENT
$unwind$seg_op DD 051201H
	DD	057412H
	DD	06340dH
	DD	06204H
xdata	ENDS
pdata	SEGMENT
$pdata$seg_op DD @imagerel(seg_op#)
	DD	@imagerel(seg_op#+124)
	DD	@imagerel($unwind$seg_op#)
; Function compile flags: /Ogtpy
pdata	ENDS
_TEXT	SEGMENT
oper$ = 64
opnd1$ = 72
opnd2$ = 80
sym$ = 88
name$ = 96
seg_op	PROC NEAR

; 1529 : {

	sub	rsp, 56					; 00000038H

; 1530 :     /* v2.10: check for sym==NULL ( seg ds:[0] ) added */
; 1531 :     if ( opnd2->sym == NULL || opnd2->sym->state == SYM_STACK || opnd2->is_abs ) {

	mov	rax, QWORD PTR [r8+80]
	mov	QWORD PTR [rsp+48], rbx
	mov	QWORD PTR [rsp+40], rdi
	test	rax, rax
	mov	rbx, rdx
	mov	edi, ecx
	je	SHORT $LN2@seg_op
	cmp	DWORD PTR [rax+40], 5
	je	SHORT $LN2@seg_op
	test	BYTE PTR [r8+72], 4
	jne	SHORT $LN2@seg_op

; 1533 :     }
; 1534 :     TokenAssign( opnd1, opnd2 );

	mov	rcx, rdx
	mov	rdx, r8
	mov	r8d, 96					; 00000060H
	call	memcpy

; 1535 :     opnd1->instr = oper;
; 1536 :     if ( opnd1->mbr ) /* v2.08: set value more selectively */

	cmp	QWORD PTR [rbx+88], 0
	mov	DWORD PTR [rbx+56], edi
	je	SHORT $LN1@seg_op

; 1537 :         opnd1->value = 0;    /* v2.07: added ( SEG <member> ) */

	mov	DWORD PTR [rbx], 0
$LN1@seg_op:

; 1538 :     opnd1->mem_type = MT_EMPTY; /* v2.04a */

	mov	DWORD PTR [rbx+64], 192			; 000000c0H

; 1539 :     return( NOT_ERROR );

	xor	eax, eax
	mov	rdi, QWORD PTR [rsp+40]
	mov	rbx, QWORD PTR [rsp+48]

; 1540 : }

	add	rsp, 56					; 00000038H
	ret	0
$LN2@seg_op:

; 1532 :         return( fnEmitErr( OPERAND_MUST_BE_RELOCATABLE ) );

	mov	ecx, 188				; 000000bcH
	mov	rdi, QWORD PTR [rsp+40]
	mov	rbx, QWORD PTR [rsp+48]

; 1540 : }

	add	rsp, 56					; 00000038H
	rex_jmp	QWORD PTR fnEmitErr
seg_op	ENDP
_TEXT	ENDS
EXTRN	GetResWName:NEAR
xdata	SEGMENT
$unwind$offset_op DD 071901H
	DD	047419H
	DD	056414H
	DD	06340fH
	DD	06204H
xdata	ENDS
pdata	SEGMENT
$pdata$offset_op DD @imagerel(offset_op#)
	DD	@imagerel(offset_op#+226)
	DD	@imagerel($unwind$offset_op#)
; Function compile flags: /Ogtpy
pdata	ENDS
_TEXT	SEGMENT
oper$ = 64
opnd1$ = 72
opnd2$ = 80
sym$ = 88
name$ = 96
offset_op PROC NEAR

; 1548 : {

	sub	rsp, 56					; 00000038H

; 1549 :     if ( oper == T_OFFSET ) {

	cmp	ecx, 241				; 000000f1H
	mov	QWORD PTR [rsp+48], rbx
	mov	QWORD PTR [rsp+40], rsi
	mov	QWORD PTR [rsp+32], rdi
	mov	rbx, r8
	mov	esi, ecx
	mov	rdi, rdx
	jne	SHORT $LN6@offset_op

; 1550 :         /* if operand is a constant value, skip OFFSET operator */
; 1551 :         if ( opnd2->kind == EXPR_CONST ) {

	cmp	DWORD PTR [r8+60], 0
	jne	SHORT $LN6@offset_op

; 1552 :             TokenAssign( opnd1, opnd2 );

	mov	rcx, rdx
	mov	rdx, r8
	mov	r8d, 96					; 00000060H
	call	memcpy

; 1553 :             return( NOT_ERROR );

	jmp	$LN21@offset_op
$LN6@offset_op:

; 1554 :         }
; 1555 :     }
; 1556 :     if ( (sym && sym->state == SYM_GRP) || opnd2->instr == T_SEG ) {

	test	r9, r9
	je	SHORT $LN3@offset_op
	cmp	DWORD PTR [r9+40], 4
	je	SHORT $LN4@offset_op
$LN3@offset_op:
	cmp	DWORD PTR [r8+56], 244			; 000000f4H
	jne	SHORT $LN5@offset_op
$LN4@offset_op:

; 1557 :         return( invalid_operand( opnd2, GetResWName( oper, NULL ), name ) );

	xor	edx, edx
	jmp	SHORT $LN20@offset_op
$LN5@offset_op:

; 1558 :     }
; 1559 :     /* offset operator accepts types, but returns always 0 */
; 1560 :     if ( opnd2->is_type )

	test	BYTE PTR [r8+72], 8
	je	SHORT $LN2@offset_op

; 1561 :         opnd2->value = 0;

	mov	DWORD PTR [r8], 0
$LN2@offset_op:

; 1562 : 
; 1563 :     TokenAssign( opnd1, opnd2 );

	mov	rcx, rdx
	mov	r8d, 96					; 00000060H
	mov	rdx, rbx
	call	memcpy

; 1564 :     opnd1->instr = oper;

	mov	DWORD PTR [rdi+56], esi

; 1565 : 
; 1566 :     if ( opnd2->indirect ) {

	test	BYTE PTR [rbx+72], 1
	je	SHORT $LN1@offset_op

; 1567 :         /* Masm v5.1 allows indirect operands, but Masm v6 with -Zm
; 1568 :          * won't accept it.
; 1569 :          */
; 1570 :         return( invalid_operand( opnd2, GetResWName( oper, NULL ), name ) );

	xor	edx, edx
	mov	ecx, esi
$LN20@offset_op:
	call	GetResWName
	test	BYTE PTR [rbx+72], 16
	jne	SHORT $LN17@offset_op
	mov	rcx, rax
	call	_strupr
	mov	r8, QWORD PTR name$[rsp]
	mov	ecx, 228				; 000000e4H
	mov	rdx, rax
	call	QWORD PTR fnEmitErr
$LN17@offset_op:
	mov	eax, -1
	mov	rdi, QWORD PTR [rsp+32]
	mov	rsi, QWORD PTR [rsp+40]
	mov	rbx, QWORD PTR [rsp+48]

; 1582 : }

	add	rsp, 56					; 00000038H
	ret	0
$LN1@offset_op:

; 1571 :     }
; 1572 :     /* skip memory type of operand, just address is needed */
; 1573 :     //opnd1->mem_type = MT_NEAR;
; 1574 :     opnd1->mem_type = MT_EMPTY;

	mov	DWORD PTR [rdi+64], 192			; 000000c0H
$LN21@offset_op:
	mov	rdi, QWORD PTR [rsp+32]
	mov	rsi, QWORD PTR [rsp+40]
	mov	rbx, QWORD PTR [rsp+48]

; 1575 :     /* clear overrides ("offset SEG:xxx") */
; 1576 :     /* v2.01: override information is important for fixup creation!
; 1577 :      * the reason why it was cleared probably was to avoid creation
; 1578 :      * of a segment prefix. This case is now handled in the parser.
; 1579 :      */
; 1580 :     // opnd1->override = NULL;
; 1581 :     return( NOT_ERROR );

	xor	eax, eax

; 1582 : }

	add	rsp, 56					; 00000038H
	ret	0
offset_op ENDP
_TEXT	ENDS
xdata	SEGMENT
$unwind$lowword_op DD 051701H
	DD	057417H
	DD	063409H
	DD	06204H
xdata	ENDS
pdata	SEGMENT
$pdata$lowword_op DD @imagerel(lowword_op#)
	DD	@imagerel(lowword_op#+90)
	DD	@imagerel($unwind$lowword_op#)
; Function compile flags: /Ogtpy
pdata	ENDS
_TEXT	SEGMENT
oper$ = 64
opnd1$ = 72
opnd2$ = 80
sym$ = 88
name$ = 96
lowword_op PROC NEAR

; 1586 : {

	sub	rsp, 56					; 00000038H
	mov	QWORD PTR [rsp+48], rbx

; 1587 :     TokenAssign( opnd1, opnd2 );

	mov	rcx, rdx
	mov	rbx, rdx
	mov	rdx, r8
	mov	QWORD PTR [rsp+40], rdi
	mov	rdi, r8
	mov	r8d, 96					; 00000060H
	call	memcpy

; 1588 :     if ( opnd2->kind == EXPR_ADDR && opnd2->instr != T_SEG ) {

	cmp	DWORD PTR [rdi+60], 1
	jne	SHORT $LN7@lowword_op
	cmp	DWORD PTR [rdi+56], 244			; 000000f4H
	je	SHORT $LN7@lowword_op

; 1589 :         opnd1->instr = T_LOWWORD;

	mov	DWORD PTR [rbx+56], 238			; 000000eeH

; 1590 :         //opnd1->mem_type = MT_WORD; /* v2.05 */
; 1591 :         opnd1->mem_type = MT_EMPTY;

	mov	DWORD PTR [rbx+64], 192			; 000000c0H
$LN7@lowword_op:

; 1592 :     }
; 1593 :     opnd1->llvalue &= 0xffff;

	and	QWORD PTR [rbx], 65535			; 0000ffffH
	mov	rdi, QWORD PTR [rsp+40]
	mov	rbx, QWORD PTR [rsp+48]

; 1594 :     return( NOT_ERROR );

	xor	eax, eax

; 1595 : }

	add	rsp, 56					; 00000038H
	ret	0
lowword_op ENDP
_TEXT	ENDS
xdata	SEGMENT
$unwind$highword_op DD 051701H
	DD	057417H
	DD	063409H
	DD	06204H
xdata	ENDS
pdata	SEGMENT
$pdata$highword_op DD @imagerel(highword_op#)
	DD	@imagerel(highword_op#+90)
	DD	@imagerel($unwind$highword_op#)
; Function compile flags: /Ogtpy
pdata	ENDS
_TEXT	SEGMENT
oper$ = 64
opnd1$ = 72
opnd2$ = 80
sym$ = 88
name$ = 96
highword_op PROC NEAR

; 1599 : {

	sub	rsp, 56					; 00000038H
	mov	QWORD PTR [rsp+48], rbx

; 1600 :     TokenAssign( opnd1, opnd2 );

	mov	rcx, rdx
	mov	rbx, rdx
	mov	rdx, r8
	mov	QWORD PTR [rsp+40], rdi
	mov	rdi, r8
	mov	r8d, 96					; 00000060H
	call	memcpy

; 1601 :     if ( opnd2->kind == EXPR_ADDR && opnd2->instr != T_SEG ) {

	cmp	DWORD PTR [rdi+60], 1
	jne	SHORT $LN1@highword_o
	cmp	DWORD PTR [rdi+56], 244			; 000000f4H
	je	SHORT $LN1@highword_o

; 1602 :         opnd1->instr = T_HIGHWORD;

	mov	DWORD PTR [rbx+56], 232			; 000000e8H

; 1603 :         //opnd1->mem_type = MT_WORD; /* v2.05 */
; 1604 :         opnd1->mem_type = MT_EMPTY;

	mov	DWORD PTR [rbx+64], 192			; 000000c0H
$LN1@highword_o:

; 1605 :     }
; 1606 : 	opnd1->llvalue = (opnd1->value >> 16) & 0xFFFF; /* ASMC v2.14 (fix borrowed from nidud) */

	movzx	eax, WORD PTR [rbx+2]
	mov	rdi, QWORD PTR [rsp+40]
	mov	QWORD PTR [rbx], rax
	mov	rbx, QWORD PTR [rsp+48]

; 1607 :     return( NOT_ERROR );

	xor	eax, eax

; 1608 : }

	add	rsp, 56					; 00000038H
	ret	0
highword_op ENDP
_TEXT	ENDS
xdata	SEGMENT
$unwind$low_op DD 051701H
	DD	057417H
	DD	063409H
	DD	06204H
xdata	ENDS
pdata	SEGMENT
$pdata$low_op DD @imagerel(low_op#)
	DD	@imagerel(low_op#+90)
	DD	@imagerel($unwind$low_op#)
; Function compile flags: /Ogtpy
pdata	ENDS
_TEXT	SEGMENT
oper$ = 64
opnd1$ = 72
opnd2$ = 80
sym$ = 88
name$ = 96
low_op	PROC NEAR

; 1612 : {

	sub	rsp, 56					; 00000038H
	mov	QWORD PTR [rsp+48], rbx

; 1613 :     TokenAssign( opnd1, opnd2 );

	mov	rcx, rdx
	mov	rbx, rdx
	mov	rdx, r8
	mov	QWORD PTR [rsp+40], rdi
	mov	rdi, r8
	mov	r8d, 96					; 00000060H
	call	memcpy

; 1614 :     if ( opnd2->kind == EXPR_ADDR && opnd2->instr != T_SEG ) {

	cmp	DWORD PTR [rdi+60], 1
	jne	SHORT $LN7@low_op
	cmp	DWORD PTR [rdi+56], 244			; 000000f4H
	je	SHORT $LN7@low_op

; 1615 : #if 0
; 1616 :         /* LOW works for OMF/BIN only */
; 1617 :         /* v2.07: don't check any format-specific rules in the
; 1618 :          * expression evaluator!
; 1619 :          */
; 1620 :         if ( Options.output_format != OFORMAT_OMF &&
; 1621 :             Options.output_format != OFORMAT_BIN && opnd2->sym ) {
; 1622 :             return( fnEmitErr( SYMBOL_TYPE_CONFLICT, opnd2->sym->name ) );
; 1623 :         }
; 1624 : #endif
; 1625 :         opnd1->instr = T_LOW;

	mov	DWORD PTR [rbx+56], 236			; 000000ecH

; 1626 :         opnd1->mem_type = MT_EMPTY;

	mov	DWORD PTR [rbx+64], 192			; 000000c0H
$LN7@low_op:

; 1627 :     }
; 1628 :     opnd1->llvalue &= 0xff;

	and	QWORD PTR [rbx], 255			; 000000ffH
	mov	rdi, QWORD PTR [rsp+40]
	mov	rbx, QWORD PTR [rsp+48]

; 1629 :     return( NOT_ERROR );

	xor	eax, eax

; 1630 : }

	add	rsp, 56					; 00000038H
	ret	0
low_op	ENDP
_TEXT	ENDS
xdata	SEGMENT
$unwind$high_op DD 051701H
	DD	057417H
	DD	063409H
	DD	06204H
xdata	ENDS
pdata	SEGMENT
$pdata$high_op DD @imagerel(high_op#)
	DD	@imagerel(high_op#+93)
	DD	@imagerel($unwind$high_op#)
; Function compile flags: /Ogtpy
pdata	ENDS
_TEXT	SEGMENT
oper$ = 64
opnd1$ = 72
opnd2$ = 80
sym$ = 88
name$ = 96
high_op	PROC NEAR

; 1634 : {

	sub	rsp, 56					; 00000038H
	mov	QWORD PTR [rsp+48], rbx

; 1635 :     TokenAssign( opnd1, opnd2 );

	mov	rcx, rdx
	mov	rbx, rdx
	mov	rdx, r8
	mov	QWORD PTR [rsp+40], rdi
	mov	rdi, r8
	mov	r8d, 96					; 00000060H
	call	memcpy

; 1636 :     if ( opnd2->kind == EXPR_ADDR && opnd2->instr != T_SEG ) {

	cmp	DWORD PTR [rdi+60], 1
	jne	SHORT $LN1@high_op
	cmp	DWORD PTR [rdi+56], 244			; 000000f4H
	je	SHORT $LN1@high_op

; 1637 :         /* v2.07: don't check any format-specific rules in the
; 1638 :          * expression evaluator!
; 1639 :          */
; 1640 : #if 0
; 1641 :         if ( Options.output_format != OFORMAT_OMF &&
; 1642 :             Options.output_format != OFORMAT_BIN && opnd2->sym ) {
; 1643 :             return( fnEmitErr( SYMBOL_TYPE_CONFLICT, opnd2->sym->name ) );
; 1644 :         }
; 1645 : #endif
; 1646 :         opnd1->instr = T_HIGH;

	mov	DWORD PTR [rbx+56], 230			; 000000e6H

; 1647 :         opnd1->mem_type = MT_EMPTY;

	mov	DWORD PTR [rbx+64], 192			; 000000c0H
$LN1@high_op:

; 1648 :     }
; 1649 :     opnd1->value = opnd1->value >> 8;

	sar	DWORD PTR [rbx], 8

; 1650 :     opnd1->llvalue &= 0xff;

	and	QWORD PTR [rbx], 255			; 000000ffH
	mov	rdi, QWORD PTR [rsp+40]
	mov	rbx, QWORD PTR [rsp+48]

; 1651 :     return( NOT_ERROR );

	xor	eax, eax

; 1652 : }

	add	rsp, 56					; 00000038H
	ret	0
high_op	ENDP
_TEXT	ENDS
EXTRN	atofloat:NEAR
xdata	SEGMENT
$unwind$low32_op DD 071301H
	DD	067413H
	DD	07640eH
	DD	083409H
	DD	08204H
xdata	ENDS
pdata	SEGMENT
$pdata$low32_op DD @imagerel(low32_op#)
	DD	@imagerel(low32_op#+207)
	DD	@imagerel($unwind$low32_op#)
; Function compile flags: /Ogtpy
pdata	ENDS
_TEXT	SEGMENT
oper$ = 80
opnd1$ = 88
opnd2$ = 96
sym$ = 104
name$ = 112
low32_op PROC NEAR

; 1658 : {

	sub	rsp, 72					; 00000048H
	mov	QWORD PTR [rsp+64], rbx
	mov	QWORD PTR [rsp+56], rsi
	mov	QWORD PTR [rsp+48], rdi

; 1659 :     /* v2.06: added support for double constants */
; 1660 :     if ( opnd2->kind == EXPR_FLOAT ) {

	xor	edi, edi
	cmp	DWORD PTR [r8+60], 3
	mov	rsi, r8
	mov	rbx, rdx
	jne	SHORT $LN3@low32_op

; 1661 :         if ( Options.strict_masm_compat )

	cmp	BYTE PTR Options+136, dil
	je	SHORT $LN2@low32_op

; 1662 :             return( ConstError( opnd1, opnd2 ) );

	test	BYTE PTR [rdx+72], 16
	jne	SHORT $LN10@low32_op
	mov	ecx, 271				; 0000010fH
	call	QWORD PTR fnEmitErr
	mov	edi, -1
$LN10@low32_op:
	mov	eax, edi
	mov	rdi, QWORD PTR [rsp+48]
	mov	rsi, QWORD PTR [rsp+56]
	mov	rbx, QWORD PTR [rsp+64]

; 1675 : }

	add	rsp, 72					; 00000048H
	ret	0
$LN2@low32_op:

; 1663 :         atofloat( &opnd2->llvalue, opnd2->float_tok->string_ptr, sizeof( opnd2->llvalue), opnd2->negative, opnd2->float_tok->floattype );

	mov	rdx, QWORD PTR [r8+16]
	mov	r9d, DWORD PTR [r8+72]
	mov	rcx, rsi
	movzx	eax, BYTE PTR [rdx+1]
	mov	rdx, QWORD PTR [rdx+8]
	shr	r9d, 5
	and	r9b, 1
	mov	r8d, 8
	mov	BYTE PTR [rsp+32], al
	call	atofloat

; 1664 :         opnd2->kind = EXPR_CONST;

	mov	DWORD PTR [rsi+60], edi

; 1665 :         opnd2->float_tok = NULL;

	mov	QWORD PTR [rsi+16], rdi
$LN3@low32_op:

; 1666 :     }
; 1667 :     TokenAssign( opnd1, opnd2 );

	mov	rcx, rbx
	mov	rdx, rsi
	mov	r8d, 96					; 00000060H
	call	memcpy

; 1668 :     if ( opnd2->kind == EXPR_ADDR && opnd2->instr != T_SEG ) {

	cmp	DWORD PTR [rsi+60], 1
	jne	SHORT $LN1@low32_op
	cmp	DWORD PTR [rsi+56], 244			; 000000f4H
	je	SHORT $LN1@low32_op

; 1669 :         opnd1->instr = T_LOW32;

	mov	DWORD PTR [rbx+56], 237			; 000000edH

; 1670 :         //opnd1->mem_type = MT_DWORD; /* v2.10: changed - also see change in parser.c, idata_fixup() */
; 1671 :         opnd1->mem_type = MT_EMPTY;

	mov	DWORD PTR [rbx+64], 192			; 000000c0H
$LN1@low32_op:
	mov	rsi, QWORD PTR [rsp+56]

; 1672 :     }
; 1673 :     opnd1->llvalue &= 0xffffffff;

	mov	DWORD PTR [rbx+4], edi
	mov	rdi, QWORD PTR [rsp+48]
	mov	rbx, QWORD PTR [rsp+64]

; 1674 :     return( NOT_ERROR );

	xor	eax, eax

; 1675 : }

	add	rsp, 72					; 00000048H
	ret	0
low32_op ENDP
_TEXT	ENDS
xdata	SEGMENT
$unwind$high32_op DD 051301H
	DD	077413H
	DD	08340eH
	DD	08204H
xdata	ENDS
pdata	SEGMENT
$pdata$high32_op DD @imagerel(high32_op#)
	DD	@imagerel(high32_op#+195)
	DD	@imagerel($unwind$high32_op#)
; Function compile flags: /Ogtpy
pdata	ENDS
_TEXT	SEGMENT
oper$ = 80
opnd1$ = 88
opnd2$ = 96
sym$ = 104
name$ = 112
high32_op PROC NEAR

; 1679 : {

	sub	rsp, 72					; 00000048H

; 1680 :     /* v2.06: added support for double constants */
; 1681 :     if ( opnd2->kind == EXPR_FLOAT ) {

	cmp	DWORD PTR [r8+60], 3
	mov	QWORD PTR [rsp+64], rbx
	mov	QWORD PTR [rsp+56], rdi
	mov	rdi, r8
	mov	rbx, rdx
	jne	SHORT $LN3@high32_op

; 1682 :         if ( Options.strict_masm_compat )

	cmp	BYTE PTR Options+136, 0
	je	SHORT $LN2@high32_op

; 1683 :             return( ConstError( opnd1, opnd2 ) );

	test	BYTE PTR [rdx+72], 16
	jne	$LN14@high32_op
	mov	ecx, 271				; 0000010fH
	call	QWORD PTR fnEmitErr
	mov	eax, -1
	mov	rdi, QWORD PTR [rsp+56]
	mov	rbx, QWORD PTR [rsp+64]

; 1696 : }

	add	rsp, 72					; 00000048H
	ret	0
$LN2@high32_op:

; 1684 :         atofloat( &opnd2->llvalue, opnd2->float_tok->string_ptr, sizeof( opnd2->llvalue), opnd2->negative, opnd2->float_tok->floattype );

	mov	rdx, QWORD PTR [r8+16]
	mov	r9d, DWORD PTR [r8+72]
	mov	rcx, rdi
	movzx	eax, BYTE PTR [rdx+1]
	mov	rdx, QWORD PTR [rdx+8]
	shr	r9d, 5
	and	r9b, 1
	mov	r8d, 8
	mov	BYTE PTR [rsp+32], al
	call	atofloat

; 1685 :         opnd2->kind = EXPR_CONST;

	xor	eax, eax

; 1686 :         opnd2->float_tok = NULL;

	mov	QWORD PTR [rdi+16], rax
	mov	DWORD PTR [rdi+60], eax
$LN3@high32_op:

; 1687 :     }
; 1688 :     TokenAssign( opnd1, opnd2 );

	mov	rcx, rbx
	mov	rdx, rdi
	mov	r8d, 96					; 00000060H
	call	memcpy

; 1689 :     if ( opnd2->kind == EXPR_ADDR && opnd2->instr != T_SEG ) {

	cmp	DWORD PTR [rdi+60], 1
	jne	SHORT $LN1@high32_op
	cmp	DWORD PTR [rdi+56], 244			; 000000f4H
	je	SHORT $LN1@high32_op

; 1690 :         opnd1->instr = T_HIGH32;

	mov	DWORD PTR [rbx+56], 231			; 000000e7H

; 1691 :         //opnd1->mem_type = MT_DWORD; /* v2.10: changed - also see change in parser.c, idata_fixup() */
; 1692 :         opnd1->mem_type = MT_EMPTY;

	mov	DWORD PTR [rbx+64], 192			; 000000c0H
$LN1@high32_op:

; 1693 :     }
; 1694 :     opnd1->llvalue = opnd1->llvalue >> 32;

	shr	QWORD PTR [rbx], 32			; 00000020H
$LN14@high32_op:
	mov	rdi, QWORD PTR [rsp+56]
	mov	rbx, QWORD PTR [rsp+64]

; 1695 :     return( NOT_ERROR );

	xor	eax, eax

; 1696 : }

	add	rsp, 72					; 00000048H
	ret	0
high32_op ENDP
_TEXT	ENDS
EXTRN	SetSymSegOfs:NEAR
EXTRN	EmitErr:NEAR
EXTRN	CurrStruct:QWORD
_BSS	SEGMENT
thissym	DQ	01H DUP (?)
_BSS	ENDS
xdata	SEGMENT
$unwind$this_op DD 051301H
	DD	057413H
	DD	06340eH
	DD	06204H
xdata	ENDS
pdata	SEGMENT
$pdata$this_op DD @imagerel(this_op#)
	DD	@imagerel(this_op#+248)
	DD	@imagerel($unwind$this_op#)
; Function compile flags: /Ogtpy
pdata	ENDS
_TEXT	SEGMENT
oper$ = 64
opnd1$ = 72
opnd2$ = 80
sym$ = 88
name$ = 96
this_op	PROC NEAR

; 1702 : {

	sub	rsp, 56					; 00000038H

; 1703 :     if ( opnd2->is_type == FALSE ) {

	test	BYTE PTR [r8+72], 8
	mov	QWORD PTR [rsp+48], rbx
	mov	QWORD PTR [rsp+40], rdi
	mov	rdi, rdx
	mov	rbx, r8
	jne	SHORT $LN6@this_op

; 1704 :         return( fnEmitErr( INVALID_TYPE_EXPRESSION ) );

	mov	ecx, 179				; 000000b3H
	mov	rdi, QWORD PTR [rsp+40]
	mov	rbx, QWORD PTR [rsp+48]

; 1739 : }

	add	rsp, 56					; 00000038H
	rex_jmp	QWORD PTR fnEmitErr
$LN6@this_op:

; 1705 :     }
; 1706 :     /* v2.06: won't work inside structs */
; 1707 :     if ( CurrStruct ) {

	cmp	QWORD PTR CurrStruct, 0
	je	SHORT $LN5@this_op

; 1708 :         return( fnEmitErr( MUST_BE_IN_SEGMENT_BLOCK ) );

	mov	ecx, 82					; 00000052H
	mov	rdi, QWORD PTR [rsp+40]
	mov	rbx, QWORD PTR [rsp+48]

; 1739 : }

	add	rsp, 56					; 00000038H
	rex_jmp	QWORD PTR fnEmitErr
$LN5@this_op:

; 1709 :     }
; 1710 :     /* v2.06: won't work outside segments */
; 1711 :     if ( CurrSeg == NULL ) {

	cmp	QWORD PTR ModuleInfo+432, 0
	jne	SHORT $LN4@this_op

; 1712 :         return( EmitErr( MUST_BE_IN_SEGMENT_BLOCK ) ); /* error displayed even in EQU, hence EmitErr()! */

	mov	ecx, 82					; 00000052H
	mov	rdi, QWORD PTR [rsp+40]
	mov	rbx, QWORD PTR [rsp+48]

; 1739 : }

	add	rsp, 56					; 00000038H
	jmp	EmitErr
$LN4@this_op:

; 1713 :     }
; 1714 : 
; 1715 :     if ( thissym == NULL ) {

	mov	rdx, QWORD PTR thissym
	test	rdx, rdx
	jne	SHORT $LN3@this_op

; 1716 :         thissym = SymAlloc( "" );

	lea	rcx, OFFSET FLAT:$SG6326
	call	SymAlloc
	mov	rdx, rax
	mov	QWORD PTR thissym, rax

; 1717 :         /* fixme: set thissym->variable? */
; 1718 :         thissym->state = SYM_INTERNAL;
; 1719 :         thissym->isdefined = TRUE;

	or	BYTE PTR [rax+48], 2
	mov	DWORD PTR [rax+40], 1
$LN3@this_op:

; 1720 :     }
; 1721 : 
; 1722 :     DebugMsg1(("this_op: memtype=%Xh type=%s\n", opnd2->mem_type, opnd2->type ? opnd2->type->name : "NULL" ));
; 1723 :     opnd1->kind = EXPR_ADDR;

	mov	DWORD PTR [rdi+60], 1

; 1724 : 
; 1725 :     /* v2.09: a label is not a valid argument */
; 1726 :     //if ( opnd2->sym && opnd2->sym->mem_type == MT_TYPE )
; 1727 :     //    thissym->type = opnd2->sym->type;
; 1728 :     /* v2.09: set structured type */
; 1729 :     thissym->type = opnd2->type;

	mov	rcx, QWORD PTR [rbx+96]
	mov	QWORD PTR [rdx+88], rcx

; 1730 :     if ( opnd2->type ) {

	cmp	QWORD PTR [rbx+96], 0
	je	SHORT $LN2@this_op

; 1731 :         thissym->mem_type = MT_TYPE;

	mov	DWORD PTR [rdx+44], 196			; 000000c4H

; 1732 :     } else

	jmp	SHORT $LN1@this_op
$LN2@this_op:

; 1733 :         thissym->mem_type = opnd2->mem_type;

	mov	eax, DWORD PTR [rbx+64]
	mov	DWORD PTR [rdx+44], eax
$LN1@this_op:

; 1734 : 
; 1735 :     opnd1->sym  = thissym;
; 1736 :     SetSymSegOfs( thissym );

	mov	rcx, rdx
	mov	QWORD PTR [rdi+80], rdx
	call	SetSymSegOfs

; 1737 :     opnd1->mem_type = thissym->mem_type;

	mov	r11, QWORD PTR thissym
	mov	rbx, QWORD PTR [rsp+48]
	mov	eax, DWORD PTR [r11+44]
	mov	DWORD PTR [rdi+64], eax
	mov	rdi, QWORD PTR [rsp+40]

; 1738 :     return( NOT_ERROR );

	xor	eax, eax

; 1739 : }

	add	rsp, 56					; 00000038H
	ret	0
this_op	ENDP
; Function compile flags: /Ogtpy
oper$ = 8
opnd1$ = 16
opnd2$ = 24
sym$ = 32
name$ = 40
wimask_op PROC NEAR

; 1746 :     /* additional check needed if operand is a type */
; 1747 :     if ( opnd2->is_type ) {

	mov	eax, DWORD PTR [r8+72]
	mov	r9, rdx
	shr	eax, 3
	and	eax, 1
	je	SHORT $LN17@wimask_op

; 1748 :         sym = opnd2->type;

	mov	rdx, QWORD PTR [r8+96]

; 1749 :         if (sym->typekind != TYPE_RECORD ) {

	cmp	BYTE PTR [rdx+74], 4
	je	SHORT $LN13@wimask_op

; 1750 :             return( fnEmitErr( OPERAND_MUST_BE_RECORD ) );

	mov	ecx, 161				; 000000a1H

; 1789 : }

	rex_jmp	QWORD PTR fnEmitErr
$LN17@wimask_op:

; 1751 :         }
; 1752 :     } else if ( opnd2->kind == EXPR_CONST ) {

	cmp	DWORD PTR [r8+60], 0
	jne	SHORT $LN14@wimask_op

; 1753 :         sym = opnd2->mbr;

	mov	rdx, QWORD PTR [r8+88]

; 1754 :     } else {

	jmp	SHORT $LN13@wimask_op
$LN14@wimask_op:

; 1755 :         sym = opnd2->sym;

	mov	rdx, QWORD PTR [r8+80]
$LN13@wimask_op:

; 1756 :     }
; 1757 :     if ( oper == T_MASK ) {

	cmp	ecx, 240				; 000000f0H
	jne	$LN12@wimask_op

; 1758 :         int i;
; 1759 :         opnd1->value = 0;

	mov	DWORD PTR [r9], 0

; 1760 :         if ( opnd2->is_type ) { /* get mask of the RECORD? */

	test	BYTE PTR [r8+72], 8
	je	SHORT $LN11@wimask_op

; 1761 : #if AMD64_SUPPORT
; 1762 :             opnd1->llvalue = GetRecordMask( (struct dsym *)sym );

	mov	rax, QWORD PTR [rdx+104]
	xor	r8d, r8d
	mov	r10, QWORD PTR [rax]
	test	r10, r10
	je	SHORT $LN23@wimask_op
	npad	1
$LL25@wimask_op:
	mov	ecx, DWORD PTR [r10+16]
	mov	eax, DWORD PTR [r10+64]
	mov	edx, 1
	lea	r11d, DWORD PTR [rcx+rax]
	rol	edx, cl
	cmp	ecx, r11d
	jae	SHORT $LN24@wimask_op
	sub	r11d, ecx
	mov	ecx, r11d
	npad	2
$LL22@wimask_op:
	movsxd	rax, edx
	or	r8, rax
	rol	edx, 1
	dec	rcx
	jne	SHORT $LL22@wimask_op
$LN24@wimask_op:
	mov	r10, QWORD PTR [r10+104]
	test	r10, r10
	jne	SHORT $LL25@wimask_op
$LN23@wimask_op:
	mov	QWORD PTR [r9], r8

; 1786 :     }
; 1787 :     opnd1->kind = EXPR_CONST;

	mov	DWORD PTR [r9+60], 0

; 1788 :     return( NOT_ERROR );

	xor	eax, eax

; 1789 : }

	ret	0
$LN11@wimask_op:

; 1763 : #else
; 1764 :             opnd1->value = GetRecordMask( (struct dsym *)sym );
; 1765 : #endif
; 1766 :         } else { /* get mask of the bitfield */
; 1767 :             for ( i = sym->offset ;i < sym->offset + sym->total_size; i++ )

	mov	r8d, DWORD PTR [rdx+16]
	mov	eax, DWORD PTR [rdx+64]
	lea	ecx, DWORD PTR [r8+rax]
	cmp	r8d, ecx
	jae	SHORT $LN1@wimask_op
	npad	12
$LL9@wimask_op:

; 1768 : #if AMD64_SUPPORT
; 1769 : #if defined(LLONG_MAX) || defined(__GNUC__) || defined(__TINYC__)
; 1770 :                 opnd1->llvalue |= 1ULL << i;
; 1771 : #else
; 1772 :                 opnd1->llvalue |= 1i64 << i;

	mov	ecx, r8d
	mov	eax, 1
	inc	r8d
	shl	rax, cl
	or	QWORD PTR [r9], rax
	mov	eax, DWORD PTR [rdx+16]
	add	eax, DWORD PTR [rdx+64]
	cmp	r8d, eax
	jb	SHORT $LL9@wimask_op

; 1786 :     }
; 1787 :     opnd1->kind = EXPR_CONST;

	mov	DWORD PTR [r9+60], 0

; 1788 :     return( NOT_ERROR );

	xor	eax, eax

; 1789 : }

	ret	0
$LN12@wimask_op:

; 1773 : #endif
; 1774 : #else
; 1775 :                 opnd1->value |= 1 << i;
; 1776 : #endif
; 1777 :         }
; 1778 :     } else {
; 1779 :         if ( opnd2->is_type ) { /* get width of the RECORD? */

	test	eax, eax
	je	SHORT $LN5@wimask_op

; 1780 :             struct dsym *dir = (struct dsym *)sym;
; 1781 :             struct sfield *fl;
; 1782 :             for ( fl = dir->e.structinfo->head; fl; fl = fl->next )

	mov	rax, QWORD PTR [rdx+104]
	mov	rcx, QWORD PTR [rax]
	test	rcx, rcx
	je	SHORT $LN1@wimask_op
	npad	9
$LL4@wimask_op:

; 1783 :                 opnd1->value += fl->sym.total_size;

	mov	eax, DWORD PTR [rcx+64]
	add	DWORD PTR [r9], eax
	mov	rcx, QWORD PTR [rcx+104]
	test	rcx, rcx
	jne	SHORT $LL4@wimask_op

; 1786 :     }
; 1787 :     opnd1->kind = EXPR_CONST;

	mov	DWORD PTR [r9+60], ecx

; 1788 :     return( NOT_ERROR );

	xor	eax, eax

; 1789 : }

	ret	0
$LN5@wimask_op:

; 1784 :         } else
; 1785 :             opnd1->value = sym->total_size;

	mov	eax, DWORD PTR [rdx+64]
	mov	DWORD PTR [r9], eax
$LN1@wimask_op:

; 1786 :     }
; 1787 :     opnd1->kind = EXPR_CONST;

	mov	DWORD PTR [r9+60], 0

; 1788 :     return( NOT_ERROR );

	xor	eax, eax

; 1789 : }

	ret	0
wimask_op ENDP
_TEXT	ENDS
xdata	SEGMENT
$unwind$plus_op DD 051101H
	DD	097411H
	DD	08340cH
	DD	04204H
xdata	ENDS
pdata	SEGMENT
$pdata$plus_op DD @imagerel(plus_op#)
	DD	@imagerel(plus_op#+831)
	DD	@imagerel($unwind$plus_op#)
; Function compile flags: /Ogtpy
pdata	ENDS
_TEXT	SEGMENT
opnd1$ = 48
opnd2$ = 56
plus_op	PROC NEAR

; 1801 : {

	sub	rsp, 40					; 00000028H

; 1802 :     DebugMsg1(("plus_op: kind=%d/%d memtype=%Xh-%Xh value=%d-%d sym=%s-%s mbr=%s-%s type=%s-%s\n",
; 1803 :                opnd1->kind, opnd2->kind,
; 1804 :                opnd1->mem_type, opnd2->mem_type, 
; 1805 :                opnd1->value, opnd2->value,
; 1806 :                opnd1->sym ? opnd1->sym->name : "NULL",
; 1807 :                opnd2->sym ? opnd2->sym->name : "NULL",
; 1808 :                opnd1->mbr ? opnd1->mbr->name : "NULL",
; 1809 :                opnd2->mbr ? opnd2->mbr->name : "NULL",
; 1810 :                opnd1->type ? opnd1->type->name : "NULL",
; 1811 :                opnd2->type ? opnd2->type->name : "NULL" ));
; 1812 :     /*
; 1813 :      * The formats allowed are (registers inside [] only!):
; 1814 :      *        constant + constant  CONST-CONST
; 1815 :      *        constant + address   CONST-ADDR
; 1816 :      *        register + constant  ADDR-CONST
; 1817 :      *        address + register   ADDR-ADDR
; 1818 :      *        register + register  ADDR-ADDR
; 1819 :      *        address  + address   ADDR-ADDR
; 1820 :      */
; 1821 : 
; 1822 :     if( check_direct_reg( opnd1, opnd2 ) == ERROR ) {

	mov	eax, DWORD PTR [rcx+60]
	mov	QWORD PTR [rsp+64], rbx
	mov	QWORD PTR [rsp+72], rdi
	cmp	eax, 2
	mov	rdi, rdx
	mov	rbx, rcx
	jne	SHORT $LN31@plus_op
	test	BYTE PTR [rcx+72], 1
	je	SHORT $LN69@plus_op
$LN31@plus_op:
	cmp	DWORD PTR [rdx+60], 2
	jne	SHORT $LN28@plus_op
	test	BYTE PTR [rdx+72], 1
	jne	SHORT $LN28@plus_op
$LN69@plus_op:

; 1823 :         DebugMsg(("plus_op: error direct register\n" ));
; 1824 :         return( fnEmitErr( INVALID_USE_OF_REGISTER ) );

	mov	ecx, 170				; 000000aaH
	mov	rdi, QWORD PTR [rsp+72]
	mov	rbx, QWORD PTR [rsp+64]

; 1924 : }

	add	rsp, 40					; 00000028H
	rex_jmp	QWORD PTR fnEmitErr
$LN28@plus_op:

; 1825 :     }
; 1826 :     /* v2.08: remove EXPR_REG variants */
; 1827 :     if ( opnd1->kind == EXPR_REG )

	cmp	eax, 2
	jne	SHORT $LN27@plus_op

; 1828 :         opnd1->kind = EXPR_ADDR;

	mov	DWORD PTR [rcx+60], 1
$LN27@plus_op:

; 1829 :     if ( opnd2->kind == EXPR_REG )

	cmp	DWORD PTR [rdx+60], 2
	jne	SHORT $LN26@plus_op

; 1830 :         opnd2->kind = EXPR_ADDR;

	mov	DWORD PTR [rdx+60], 1
$LN26@plus_op:

; 1831 : 
; 1832 :     /* v2.07: don't allow multiple overrides */
; 1833 :     if ( opnd2->override ) {

	mov	rcx, QWORD PTR [rdx+48]
	test	rcx, rcx
	je	SHORT $LN25@plus_op

; 1834 :         if ( opnd1->override ) {

	mov	rdx, QWORD PTR [rbx+48]
	test	rdx, rdx
	je	SHORT $LN23@plus_op

; 1835 :             /* v2.07a: both T_REG or both T_ID is rejected */
; 1836 :             if ( opnd1->override->token == opnd2->override->token ) {

	movzx	eax, BYTE PTR [rcx]
	cmp	BYTE PTR [rdx], al
	jne	SHORT $LN23@plus_op

; 1837 :                 DebugMsg(("plus_op: multiple overrides\n" ));
; 1838 :                 return( fnEmitErr( MULTIPLE_OVERRIDES ) );

	mov	ecx, 68					; 00000044H
	mov	rdi, QWORD PTR [rsp+72]
	mov	rbx, QWORD PTR [rsp+64]

; 1924 : }

	add	rsp, 40					; 00000028H
	rex_jmp	QWORD PTR fnEmitErr
$LN23@plus_op:

; 1839 :             }
; 1840 :         }
; 1841 :         opnd1->override = opnd2->override;

	mov	QWORD PTR [rbx+48], rcx
$LN25@plus_op:

; 1842 :     }
; 1843 : 
; 1844 :     if( check_same( opnd1, opnd2, EXPR_CONST ) ) {

	mov	eax, DWORD PTR [rbx+60]
	test	eax, eax
	jne	SHORT $LN22@plus_op
	cmp	DWORD PTR [rdi+60], eax
	jne	SHORT $LN22@plus_op

; 1845 : 
; 1846 :         DebugMsg1(("plus_op: CONST - CONST\n" ));
; 1847 :         opnd1->llvalue += opnd2->llvalue;

	mov	rax, QWORD PTR [rdi]
	add	QWORD PTR [rbx], rax

; 1922 :     }
; 1923 :     return( NOT_ERROR );

	xor	eax, eax
	mov	rdi, QWORD PTR [rsp+72]
	mov	rbx, QWORD PTR [rsp+64]

; 1924 : }

	add	rsp, 40					; 00000028H
	ret	0
$LN22@plus_op:

; 1848 : 
; 1849 :     } else if( check_same( opnd1, opnd2, EXPR_ADDR ) ) {

	cmp	eax, 1
	jne	$LN20@plus_op
	cmp	DWORD PTR [rdi+60], eax
	jne	$LN20@plus_op

; 1850 : 
; 1851 :         DebugMsg1(("plus_op: ADDR - ADDR\n" ));
; 1852 :         fix_struct_value( opnd1 );

	mov	rax, QWORD PTR [rbx+88]
	xor	ecx, ecx
	test	rax, rax
	je	SHORT $LN36@plus_op
	cmp	DWORD PTR [rax+40], 7
	jne	SHORT $LN36@plus_op
	mov	eax, DWORD PTR [rax+64]
	mov	QWORD PTR [rbx+88], rcx
	add	DWORD PTR [rbx], eax
$LN36@plus_op:

; 1853 :         fix_struct_value( opnd2 );

	mov	rax, QWORD PTR [rdi+88]
	test	rax, rax
	je	SHORT $LN39@plus_op
	cmp	DWORD PTR [rax+40], 7
	jne	SHORT $LN39@plus_op
	mov	eax, DWORD PTR [rax+64]
	mov	QWORD PTR [rdi+88], rcx
	add	DWORD PTR [rdi], eax
$LN39@plus_op:

; 1854 :         if ( index_connect( opnd1, opnd2 ) == ERROR )

	mov	rax, QWORD PTR [rdi+24]
	test	rax, rax
	je	SHORT $LN51@plus_op
	mov	rcx, QWORD PTR [rbx+24]
	test	rcx, rcx
	jne	SHORT $LN50@plus_op
	mov	QWORD PTR [rbx+24], rax
	jmp	SHORT $LN46@plus_op
$LN50@plus_op:
	cmp	QWORD PTR [rbx+32], 0
	jne	SHORT $LN48@plus_op
	cmp	BYTE PTR [rcx+1], 4
	je	SHORT $LN47@plus_op
	mov	QWORD PTR [rbx+32], rcx
	mov	rax, QWORD PTR [rdi+24]
	mov	QWORD PTR [rbx+24], rax
	jmp	SHORT $LN46@plus_op
$LN47@plus_op:
	mov	QWORD PTR [rbx+32], rax
$LN46@plus_op:
	or	DWORD PTR [rbx+72], 1
$LN51@plus_op:
	mov	rax, QWORD PTR [rdi+32]
	test	rax, rax
	je	SHORT $LN19@plus_op
	cmp	QWORD PTR [rbx+32], 0
	jne	SHORT $LN43@plus_op
	mov	QWORD PTR [rbx+32], rax
	movzx	eax, BYTE PTR [rdi+68]
	or	DWORD PTR [rbx+72], 1
	mov	BYTE PTR [rbx+68], al
$LN19@plus_op:

; 1855 :             return( ERROR );
; 1856 :         if( opnd2->sym != NULL ) {

	mov	rax, QWORD PTR [rdi+80]
	test	rax, rax
	je	$LN15@plus_op

; 1857 :             /* two relocatable labels not allowed */
; 1858 :             /* v2.05: changed */
; 1859 :             //if ( ( opnd1->sym != NULL ) && ( Parse_Pass > PASS_1 || error_msg == FALSE ) ) {
; 1860 :             if ( opnd1->sym != NULL &&
; 1861 :                 opnd1->sym->state != SYM_UNDEFINED &&
; 1862 :                 opnd2->sym->state != SYM_UNDEFINED ) {

	mov	rcx, QWORD PTR [rbx+80]
	test	rcx, rcx
	je	SHORT $LN17@plus_op
	cmp	DWORD PTR [rcx+40], 0
	je	SHORT $LN17@plus_op
	cmp	DWORD PTR [rax+40], 0
	je	SHORT $LN17@plus_op

; 1863 :                 DebugMsg(("plus_op: two relocatable labels: %s - %s \n", opnd1->sym->name, opnd2->sym->name ));
; 1864 :                 return( fnEmitErr( CANNOT_ADD_TWO_RELOCATABLE_LABELS ) );

	mov	ecx, 173				; 000000adH
	mov	rdi, QWORD PTR [rsp+72]
	mov	rbx, QWORD PTR [rsp+64]

; 1924 : }

	add	rsp, 40					; 00000028H
	rex_jmp	QWORD PTR fnEmitErr

; 1854 :         if ( index_connect( opnd1, opnd2 ) == ERROR )

$LN48@plus_op:
	mov	ecx, 34					; 00000022H
	call	QWORD PTR fnEmitErr
	jmp	SHORT $LN52@plus_op
$LN43@plus_op:
	mov	ecx, 34					; 00000022H
	call	QWORD PTR fnEmitErr
$LN52@plus_op:
	cmp	eax, -1
	jne	SHORT $LN19@plus_op
	mov	rdi, QWORD PTR [rsp+72]
	mov	rbx, QWORD PTR [rsp+64]

; 1924 : }

	add	rsp, 40					; 00000028H
	ret	0
$LN17@plus_op:

; 1865 :             }
; 1866 :             opnd1->label_tok = opnd2->label_tok;
; 1867 :             opnd1->sym = opnd2->sym;
; 1868 :             /* v2.05: added */
; 1869 :             if ( opnd1->mem_type == MT_EMPTY )

	cmp	DWORD PTR [rbx+64], 192			; 000000c0H
	mov	rax, QWORD PTR [rdi+40]
	mov	QWORD PTR [rbx+40], rax
	mov	rax, QWORD PTR [rdi+80]
	mov	QWORD PTR [rbx+80], rax
	jne	SHORT $LN16@plus_op

; 1870 :                 opnd1->mem_type = opnd2->mem_type;

	mov	eax, DWORD PTR [rdi+64]
	mov	DWORD PTR [rbx+64], eax
$LN16@plus_op:

; 1871 :             /* v2.10: copy qualifier ( [<reg>+imagerel xxx] */
; 1872 :             if ( opnd2->instr != EMPTY )

	mov	eax, DWORD PTR [rdi+56]
	cmp	eax, -2
	je	SHORT $LN15@plus_op

; 1873 :                 opnd1->instr = opnd2->instr;

	mov	DWORD PTR [rbx+56], eax
$LN15@plus_op:

; 1874 :         }
; 1875 :         opnd1->llvalue += opnd2->llvalue;

	mov	rax, QWORD PTR [rdi]
	add	QWORD PTR [rbx], rax

; 1876 :         /* v2.08: added, test case [ecx+ebx.<struc>].<mbr> */
; 1877 :         if ( opnd2->type )

	mov	rax, QWORD PTR [rdi+96]
	test	rax, rax
	je	$LN60@plus_op

; 1878 :             opnd1->type = opnd2->type;

	mov	QWORD PTR [rbx+96], rax

; 1922 :     }
; 1923 :     return( NOT_ERROR );

	xor	eax, eax
	mov	rdi, QWORD PTR [rsp+72]
	mov	rbx, QWORD PTR [rsp+64]

; 1924 : }

	add	rsp, 40					; 00000028H
	ret	0
$LN20@plus_op:

; 1879 : 
; 1880 :     } else if( check_both( opnd1, opnd2, EXPR_CONST, EXPR_ADDR ) ) {

	test	eax, eax
	jne	SHORT $LN55@plus_op
	cmp	DWORD PTR [rdi+60], 1
	je	SHORT $LN70@plus_op
$LN55@plus_op:
	cmp	eax, 1
	jne	$LN12@plus_op
	cmp	DWORD PTR [rdi+60], 0
	jne	$LN12@plus_op
$LN70@plus_op:

; 1881 : 
; 1882 :         if( opnd1->kind == EXPR_CONST ) {

	test	eax, eax
	jne	SHORT $LN11@plus_op

; 1883 :             DebugMsg1(("plus_op: CONST - ADDR\n" ));
; 1884 :             opnd2->llvalue += opnd1->llvalue;

	mov	rax, QWORD PTR [rbx]
	add	QWORD PTR [rdi], rax

; 1885 :             opnd2->indirect |= opnd1->indirect;

	mov	eax, DWORD PTR [rbx+72]
	and	eax, 1
	or	eax, DWORD PTR [rdi+72]
	mov	DWORD PTR [rdi+72], eax

; 1886 : 
; 1887 :             if( opnd1->explicit == TRUE ) {

	test	BYTE PTR [rbx+72], 2
	je	SHORT $LN10@plus_op

; 1888 :                 opnd2->explicit = TRUE;

	or	eax, 2
	mov	DWORD PTR [rdi+72], eax

; 1889 :                 opnd2->mem_type = opnd1->mem_type;

	mov	eax, DWORD PTR [rbx+64]
	mov	DWORD PTR [rdi+64], eax
	jmp	SHORT $LN8@plus_op
$LN10@plus_op:

; 1890 :             } else if ( opnd2->mem_type == MT_EMPTY )

	cmp	DWORD PTR [rdi+64], 192			; 000000c0H
	jne	SHORT $LN8@plus_op

; 1891 :                 opnd2->mem_type = opnd1->mem_type;

	mov	eax, DWORD PTR [rbx+64]
	mov	DWORD PTR [rdi+64], eax
$LN8@plus_op:

; 1892 : 
; 1893 :             /* v2.05: added. See dotop2.asm, "mov eax, v2.f1[ebx*2]" */
; 1894 :             if ( opnd2->mbr == NULL )

	cmp	QWORD PTR [rdi+88], 0
	jne	SHORT $LN7@plus_op

; 1895 :                 opnd2->mbr = opnd1->mbr;

	mov	rax, QWORD PTR [rbx+88]
	mov	QWORD PTR [rdi+88], rax
$LN7@plus_op:

; 1896 : 
; 1897 :             /* v2.08: added, test case [4+ebx.<struc>].<mbr> */
; 1898 :             if ( opnd2->type )

	mov	rax, QWORD PTR [rdi+96]
	test	rax, rax
	je	SHORT $LN6@plus_op

; 1899 :                 opnd1->type = opnd2->type; /* set <type> in op1! */

	mov	QWORD PTR [rbx+96], rax
$LN6@plus_op:

; 1900 : 
; 1901 :             TokenAssign( opnd1, opnd2 );

	mov	rcx, rbx
	mov	rdx, rdi
	mov	r8d, 96					; 00000060H
	call	memcpy

; 1902 : 
; 1903 :         } else {

	jmp	SHORT $LN2@plus_op
$LN11@plus_op:

; 1904 :             DebugMsg1(("plus_op: ADDR - CONST\n" ));
; 1905 :             opnd1->llvalue += opnd2->llvalue;

	mov	rax, QWORD PTR [rdi]
	add	QWORD PTR [rbx], rax

; 1906 :             /* v2.04: added. to make this case behave like
; 1907 :              * the CONST - REG case (see below).
; 1908 :              */
; 1909 :             /* v2.08: changed, test case [reg+struct] */
; 1910 :             //if ( opnd1->mem_type == MT_EMPTY )
; 1911 :             if ( opnd2->mbr ) { /* v2.10: added; regression test dotop5.asm */

	mov	rax, QWORD PTR [rdi+88]
	test	rax, rax
	je	SHORT $LN4@plus_op

; 1912 :                 opnd1->mbr = opnd2->mbr;

	mov	QWORD PTR [rbx+88], rax

; 1913 :                 opnd1->mem_type = opnd2->mem_type;

	mov	eax, DWORD PTR [rdi+64]
	mov	DWORD PTR [rbx+64], eax

; 1914 :             } else

	jmp	SHORT $LN2@plus_op
$LN4@plus_op:

; 1915 :             if ( opnd1->mem_type == MT_EMPTY && opnd2->is_type == FALSE )

	cmp	DWORD PTR [rbx+64], 192			; 000000c0H
	jne	SHORT $LN2@plus_op
	test	BYTE PTR [rdi+72], 8
	jne	SHORT $LN2@plus_op

; 1916 :                 opnd1->mem_type = opnd2->mem_type;

	mov	eax, DWORD PTR [rdi+64]
	mov	DWORD PTR [rbx+64], eax
$LN2@plus_op:

; 1917 :         }
; 1918 :         fix_struct_value( opnd1 );

	mov	rax, QWORD PTR [rbx+88]
	test	rax, rax
	je	SHORT $LN60@plus_op
	cmp	DWORD PTR [rax+40], 7
	jne	SHORT $LN60@plus_op
	mov	eax, DWORD PTR [rax+64]
	add	DWORD PTR [rbx], eax
	xor	ecx, ecx
	mov	QWORD PTR [rbx+88], rcx
$LN60@plus_op:

; 1922 :     }
; 1923 :     return( NOT_ERROR );

	xor	eax, eax
	mov	rdi, QWORD PTR [rsp+72]
	mov	rbx, QWORD PTR [rsp+64]

; 1924 : }

	add	rsp, 40					; 00000028H
	ret	0
$LN12@plus_op:

; 1919 :     } else {
; 1920 :         DebugMsg(("plus_op: error, unexpected format: %u - %u\n", opnd1->kind, opnd2->kind ));
; 1921 :         return( ConstError( opnd1, opnd2 ) );

	test	BYTE PTR [rbx+72], 16
	je	SHORT $LN66@plus_op
	xor	ecx, ecx
	mov	eax, ecx
	mov	rdi, QWORD PTR [rsp+72]
	mov	rbx, QWORD PTR [rsp+64]

; 1924 : }

	add	rsp, 40					; 00000028H
	ret	0

; 1919 :     } else {
; 1920 :         DebugMsg(("plus_op: error, unexpected format: %u - %u\n", opnd1->kind, opnd2->kind ));
; 1921 :         return( ConstError( opnd1, opnd2 ) );

$LN66@plus_op:
	cmp	eax, 3
	je	SHORT $LN64@plus_op
	cmp	DWORD PTR [rdi+60], 3
	je	SHORT $LN64@plus_op
	mov	ecx, 65					; 00000041H
	jmp	SHORT $LN71@plus_op
$LN64@plus_op:
	mov	ecx, 271				; 0000010fH
$LN71@plus_op:
	call	QWORD PTR fnEmitErr
	mov	rdi, QWORD PTR [rsp+72]
	mov	rbx, QWORD PTR [rsp+64]
	mov	ecx, -1
	mov	eax, ecx

; 1924 : }

	add	rsp, 40					; 00000028H
	ret	0
plus_op	ENDP
_TEXT	ENDS
xdata	SEGMENT
$unwind$minus_op DD 010401H
	DD	04204H
xdata	ENDS
pdata	SEGMENT
$pdata$minus_op DD @imagerel(minus_op#)
	DD	@imagerel(minus_op#+782)
	DD	@imagerel($unwind$minus_op#)
; Function compile flags: /Ogtpy
pdata	ENDS
_TEXT	SEGMENT
opnd1$ = 48
opnd2$ = 56
minus_op PROC NEAR

; 1928 : {

	sub	rsp, 40					; 00000028H

; 1929 :     struct asym      *sym;
; 1930 :     /*
; 1931 :      * The only formats allowed are:
; 1932 :      *        constant - constant
; 1933 :      *         address - constant       ( only in this order )
; 1934 :      *         address - address
; 1935 :      *        register - constant       ( only inside [] and in this
; 1936 :      *                                    order )
; 1937 :      */
; 1938 : 
; 1939 :     DebugMsg1(("minus_op: kind tok1=%u, tok2=%u\n", opnd1->kind, opnd2->kind ));
; 1940 : 
; 1941 :     if( check_direct_reg( opnd1, opnd2 ) == ERROR ) {

	mov	r8d, DWORD PTR [rcx+60]
	cmp	r8d, 2
	jne	SHORT $LN30@minus_op
	test	BYTE PTR [rcx+72], 1
	je	$LN64@minus_op
$LN30@minus_op:
	mov	eax, DWORD PTR [rdx+60]
	cmp	eax, 2
	jne	SHORT $LN27@minus_op
	test	BYTE PTR [rdx+72], 1

; 1942 :         DebugMsg(("minus_op: error direct register\n"));
; 1943 :         return( fnEmitErr( INVALID_USE_OF_REGISTER ) );

	je	$LN64@minus_op
$LN27@minus_op:

; 1944 :     }
; 1945 : 
; 1946 :     /* added for v1.94. It's related to the change done in MakeConst()!
; 1947 :      * todo: find out why flag no_error_msg was checked in v1.94-2.09.
; 1948 :      */
; 1949 :     if ( opnd1->kind == EXPR_ADDR &&
; 1950 :         opnd2->kind == EXPR_ADDR &&
; 1951 :         opnd2->sym &&
; 1952 :         opnd2->sym->state == SYM_UNDEFINED /* && !no_error_msg */ )

	xor	r9d, r9d
	cmp	r8d, 1
	jne	SHORT $LN26@minus_op
	cmp	eax, r8d
	jne	$LN45@minus_op
	mov	r8, QWORD PTR [rdx+80]
	test	r8, r8
	je	SHORT $LN26@minus_op
	cmp	DWORD PTR [r8+40], r9d
	je	SHORT $LN45@minus_op
$LN26@minus_op:

; 1953 :         ; /* don't convert token2 to a constant! */
; 1954 :     else
; 1955 :         MakeConst( opnd2 );

	cmp	eax, 1
	jne	SHORT $LN45@minus_op
	mov	r8d, DWORD PTR [rdx+72]
	test	r8b, al
	jne	SHORT $LN45@minus_op
	mov	rax, QWORD PTR [rdx+80]
	test	rax, rax
	je	SHORT $LN44@minus_op
	cmp	DWORD PTR Parse_Pass, r9d
	ja	SHORT $LN45@minus_op
	mov	r10d, DWORD PTR [rax+40]
	test	r10d, r10d
	jne	SHORT $LN40@minus_op
	cmp	DWORD PTR [rdx+56], -2
	je	SHORT $LN41@minus_op
$LN40@minus_op:
	cmp	r10d, 2
	jne	SHORT $LN45@minus_op
	test	BYTE PTR [rax+55], 8
	je	SHORT $LN45@minus_op
	test	r8b, 4
	je	SHORT $LN45@minus_op
$LN41@minus_op:
	mov	DWORD PTR [rdx], 1
$LN44@minus_op:
	mov	rax, QWORD PTR [rdx+88]
	mov	QWORD PTR [rdx+40], r9
	test	rax, rax
	je	SHORT $LN36@minus_op
	cmp	DWORD PTR [rax+40], 6
	jne	SHORT $LN45@minus_op
$LN36@minus_op:
	cmp	QWORD PTR [rdx+48], r9
	jne	SHORT $LN45@minus_op
	and	r8d, -3					; fffffffdH
	mov	DWORD PTR [rdx+56], -2
	mov	DWORD PTR [rdx+60], r9d
	mov	DWORD PTR [rdx+72], r8d
	mov	DWORD PTR [rdx+64], 192			; 000000c0H
$LN45@minus_op:

; 1956 : 
; 1957 :     if( check_same( opnd1, opnd2, EXPR_CONST ) ) {

	mov	eax, DWORD PTR [rcx+60]
	test	eax, eax
	jne	SHORT $LN24@minus_op
	cmp	DWORD PTR [rdx+60], r9d
	jne	SHORT $LN24@minus_op

; 1958 : 
; 1959 :         DebugMsg1(("minus_op: CONST-CONST\n" ));
; 1960 :         opnd1->llvalue -= opnd2->llvalue;

	mov	rax, QWORD PTR [rdx]
	sub	QWORD PTR [rcx], rax

; 2066 :     }
; 2067 :     return( NOT_ERROR );

	xor	eax, eax

; 2068 : }

	add	rsp, 40					; 00000028H
	ret	0
$LN24@minus_op:

; 1961 : 
; 1962 :     } else if( opnd1->kind == EXPR_ADDR &&
; 1963 :               opnd2->kind == EXPR_CONST ) {

	cmp	eax, 1
	jne	$LN20@minus_op
	cmp	DWORD PTR [rdx+60], r9d
	jne	SHORT $LN22@minus_op

; 1964 : 
; 1965 :         DebugMsg1(("minus_op: ADDR-CONST\n" ));
; 1966 :         opnd1->llvalue -= opnd2->llvalue;

	mov	rax, QWORD PTR [rdx]
	sub	QWORD PTR [rcx], rax

; 1967 :         fix_struct_value( opnd1 );

	mov	rax, QWORD PTR [rcx+88]
	test	rax, rax
	je	$LN1@minus_op
	cmp	DWORD PTR [rax+40], 7
	jne	$LN1@minus_op
	mov	eax, DWORD PTR [rax+64]
	mov	QWORD PTR [rcx+88], r9
	add	DWORD PTR [rcx], eax

; 2066 :     }
; 2067 :     return( NOT_ERROR );

	xor	eax, eax

; 2068 : }

	add	rsp, 40					; 00000028H
	ret	0
$LN22@minus_op:

; 1968 : 
; 1969 :     } else if( check_same( opnd1, opnd2, EXPR_ADDR ) ){

	cmp	eax, 1
	jne	$LN20@minus_op
	cmp	DWORD PTR [rdx+60], eax
	jne	$LN20@minus_op

; 1970 : 
; 1971 :         DebugMsg1(("minus_op: ADDR-ADDR\n" ));
; 1972 :         fix_struct_value( opnd1 );

	mov	rax, QWORD PTR [rcx+88]
	test	rax, rax
	je	SHORT $LN52@minus_op
	cmp	DWORD PTR [rax+40], 7
	jne	SHORT $LN52@minus_op
	mov	eax, DWORD PTR [rax+64]
	mov	QWORD PTR [rcx+88], r9
	add	DWORD PTR [rcx], eax
$LN52@minus_op:

; 1973 :         fix_struct_value( opnd2 );

	mov	rax, QWORD PTR [rdx+88]
	test	rax, rax
	je	SHORT $LN55@minus_op
	cmp	DWORD PTR [rax+40], 7
	jne	SHORT $LN55@minus_op
	mov	eax, DWORD PTR [rax+64]
	mov	QWORD PTR [rdx+88], r9
	add	DWORD PTR [rdx], eax
$LN55@minus_op:

; 1974 :         //if( opnd2->base_reg != NULL || opnd2->idx_reg != NULL ) { /* v2.09: just check 'indirect' */
; 1975 :         if( opnd2->indirect ) {

	test	BYTE PTR [rdx+72], 1
	je	SHORT $LN19@minus_op
$LN64@minus_op:

; 1976 :             DebugMsg(("minus_op error, opnd2->indirect==TRUE\n"));
; 1977 :             return( fnEmitErr( INVALID_USE_OF_REGISTER ) );

	mov	ecx, 170				; 000000aaH

; 2068 : }

	add	rsp, 40					; 00000028H
	rex_jmp	QWORD PTR fnEmitErr
$LN19@minus_op:

; 1978 :         }
; 1979 :         if( opnd2->label_tok == NULL ) {

	cmp	QWORD PTR [rdx+40], r9
	jne	SHORT $LN18@minus_op

; 1980 :             /* v2.06c: do 64-bit arithmetic (more rigid test in data.c) */
; 1981 :             //opnd1->value -= opnd2->value;
; 1982 :             opnd1->value64 -= opnd2->value64;

	mov	rax, QWORD PTR [rdx]
	sub	QWORD PTR [rcx], rax

; 1983 :             opnd1->indirect |= opnd2->indirect;

	mov	eax, DWORD PTR [rdx+72]

; 2060 :         opnd1->indirect |= opnd2->indirect;

	and	eax, 1
	or	DWORD PTR [rcx+72], eax

; 2066 :     }
; 2067 :     return( NOT_ERROR );

	xor	eax, eax

; 2068 : }

	add	rsp, 40					; 00000028H
	ret	0
$LN18@minus_op:

; 1984 :         } else {
; 1985 :             if( opnd1->label_tok == NULL || opnd1->sym == NULL || opnd2->sym == NULL ) {

	cmp	QWORD PTR [rcx+40], r9
	je	$LN15@minus_op
	mov	r8, QWORD PTR [rcx+80]
	test	r8, r8
	je	$LN15@minus_op
	cmp	QWORD PTR [rdx+80], r9
	je	$LN15@minus_op

; 1990 :             }
; 1991 :             /* handle first operand */
; 1992 :             sym = opnd1->sym;
; 1993 :             opnd1->value += sym->offset;

	mov	eax, DWORD PTR [r8+16]
	add	DWORD PTR [rcx], eax

; 1994 : 
; 1995 :             /* handle second operand */
; 1996 :             sym = opnd2->sym;
; 1997 :             if( Parse_Pass > PASS_1 ) {

	cmp	DWORD PTR Parse_Pass, r9d
	mov	r10, QWORD PTR [rdx+80]
	jbe	SHORT $LN11@minus_op

; 1998 :                 /* if symbol is external, error - unless it's the same symbol */
; 1999 :                 if ( ( sym->state == SYM_EXTERNAL ||
; 2000 :                      opnd1->sym->state == SYM_EXTERNAL) &&
; 2001 :                     sym != opnd1->sym ) {

	cmp	DWORD PTR [r10+40], 2
	je	SHORT $LN12@minus_op
	cmp	DWORD PTR [r8+40], 2
	jne	SHORT $LN13@minus_op
$LN12@minus_op:
	cmp	r10, r8
	je	SHORT $LN13@minus_op

; 2002 :                     DebugMsg(("minus_op error 6\n"));
; 2003 :                     return( fnEmitErr(INVALID_USE_OF_EXTERNAL_SYMBOL, opnd1->sym->name ) );

	mov	rdx, QWORD PTR [r8+8]
	mov	ecx, 193				; 000000c1H

; 2068 : }

	add	rsp, 40					; 00000028H
	rex_jmp	QWORD PTR fnEmitErr
$LN13@minus_op:

; 2004 :                 }
; 2005 :                 /* check if the 2 offsets belong to the same segment */
; 2006 :                 if ( sym->segment != opnd1->sym->segment ) {

	mov	rax, QWORD PTR [r8+32]
	cmp	QWORD PTR [r10+32], rax
	je	SHORT $LN11@minus_op

; 2007 :                     DebugMsg(("minus_op error, sym.segm=%X opnd1->sym.segm=%X\n", sym->segment, opnd1->sym->segment ));
; 2008 :                     return( fnEmitErr( OPERANDS_MUST_BE_IN_SAME_SEGMENT ) );

	mov	ecx, 192				; 000000c0H

; 2068 : }

	add	rsp, 40					; 00000028H
	rex_jmp	QWORD PTR fnEmitErr
$LN11@minus_op:

; 2009 :                 }
; 2010 :             }
; 2011 : 
; 2012 :             /* the type changes from address to constant.
; 2013 :              * but only if both labels are defined and no indirect addressing.
; 2014 :              */
; 2015 :             opnd1->kind = EXPR_CONST;

	mov	DWORD PTR [rcx+60], r9d

; 2016 : 
; 2017 :             /* v2.05: if at least one label is undefined, assume result=1 */
; 2018 :             if ( opnd1->sym->state == SYM_UNDEFINED ||
; 2019 :                 opnd2->sym->state == SYM_UNDEFINED ) {

	cmp	DWORD PTR [r8+40], r9d
	je	SHORT $LN9@minus_op
	mov	rax, QWORD PTR [rdx+80]
	cmp	DWORD PTR [rax+40], r9d
	je	SHORT $LN9@minus_op

; 2033 :             } else {
; 2034 :                 /* v2.06c: do 64-bit arithmetic (more rigid test in data.c) */
; 2035 :                 //opnd1->value -= sym->offset;
; 2036 :                 //opnd1->value -= opnd2->value;
; 2037 :                 opnd1->value64 -= sym->offset;

	movsxd	rax, DWORD PTR [r10+16]
	sub	QWORD PTR [rcx], rax
	mov	rax, QWORD PTR [rcx]

; 2038 :                 opnd1->value64 -= opnd2->value64;

	sub	rax, QWORD PTR [rdx]

; 2039 :                 opnd1->label_tok = NULL;

	mov	QWORD PTR [rcx+40], r9

; 2040 :                 opnd1->sym = NULL;

	mov	QWORD PTR [rcx+80], r9
	mov	QWORD PTR [rcx], rax
	jmp	SHORT $LN7@minus_op
$LN9@minus_op:

; 2020 :                 opnd1->value = 1;

	mov	DWORD PTR [rcx], 1

; 2021 :                 /* 2.09: make sure an undefined label is returned in opnd.sym.
; 2022 :                  * expression type has to be ADDR then; see equate22.aso.
; 2023 :                  * 2.11: returning EXPR_ADDR may cause problems -
; 2024 :                  * it may make the code longer than necessary, thus
; 2025 :                  * triggering an unnecessary jump extension.
; 2026 :                  * so it is returned only if the expression is used to define an equate.
; 2027 :                  */
; 2028 :                 if ( opnd1->sym->state != SYM_UNDEFINED ) {

	cmp	DWORD PTR [r8+40], r9d
	je	SHORT $LN8@minus_op

; 2029 :                     opnd1->sym = opnd2->sym;

	mov	rax, QWORD PTR [rdx+80]
	mov	QWORD PTR [rcx+80], rax

; 2030 :                     opnd1->label_tok = opnd2->label_tok;

	mov	rax, QWORD PTR [rdx+40]
	mov	QWORD PTR [rcx+40], rax
$LN8@minus_op:

; 2031 :                 }
; 2032 :                 opnd1->kind = EXPR_ADDR;

	mov	DWORD PTR [rcx+60], 1
$LN7@minus_op:

; 2041 :             }
; 2042 :             //if( opnd1->base_reg == NULL && opnd1->idx_reg == NULL ) { /* v2.09: just check 'indirect' */
; 2043 :             if( opnd1->indirect == FALSE ) {

	mov	eax, DWORD PTR [rcx+72]
	test	al, 1
	jne	SHORT $LN6@minus_op

; 2044 :                 if( opnd1->instr == T_OFFSET && opnd2->instr == T_OFFSET )

	cmp	DWORD PTR [rcx+56], 241			; 000000f1H
	jne	SHORT $LN4@minus_op
	cmp	DWORD PTR [rdx+56], 241			; 000000f1H
	jne	SHORT $LN4@minus_op

; 2050 :                 //opnd1->indirect |= opnd2->indirect;  /* v2.09: op1->indirect is always 1, op2->indirect is always 0 */
; 2051 :             }
; 2052 :             opnd1->explicit = FALSE;

	and	eax, -3					; fffffffdH
	mov	DWORD PTR [rcx+56], -2

; 2053 :             opnd1->mem_type = MT_EMPTY;

	mov	DWORD PTR [rcx+64], 192			; 000000c0H
	mov	DWORD PTR [rcx+72], eax

; 2066 :     }
; 2067 :     return( NOT_ERROR );

	xor	eax, eax

; 2068 : }

	add	rsp, 40					; 00000028H
	ret	0
$LN6@minus_op:

; 2045 :                     opnd1->instr = EMPTY;
; 2046 :                 //opnd1->indirect = FALSE; /* v2.09: not needed */
; 2047 :             } else {
; 2048 :                 DebugMsg1(("minus_op, exit, ADDR, base=%X, idx=%X\n", opnd1->base_reg, opnd1->idx_reg ));
; 2049 :                 opnd1->kind = EXPR_ADDR;

	mov	DWORD PTR [rcx+60], 1
$LN4@minus_op:

; 2050 :                 //opnd1->indirect |= opnd2->indirect;  /* v2.09: op1->indirect is always 1, op2->indirect is always 0 */
; 2051 :             }
; 2052 :             opnd1->explicit = FALSE;

	and	eax, -3					; fffffffdH

; 2053 :             opnd1->mem_type = MT_EMPTY;

	mov	DWORD PTR [rcx+64], 192			; 000000c0H
	mov	DWORD PTR [rcx+72], eax

; 2066 :     }
; 2067 :     return( NOT_ERROR );

	xor	eax, eax

; 2068 : }

	add	rsp, 40					; 00000028H
	ret	0
$LN15@minus_op:

; 1986 :                 DebugMsg(("minus_op error, label_tok=%X opnd1.sym=%X opnd2.sym=%X\n", opnd1->label_tok, opnd1->sym, opnd2->sym ));
; 1987 :                 /* v2.05: error msg changed */
; 1988 :                 //fnEmitErr( SYNTAX_ERROR );
; 1989 :                 return( fnEmitErr( OPERAND_MUST_BE_RELOCATABLE ) );

	mov	ecx, 188				; 000000bcH

; 2068 : }

	add	rsp, 40					; 00000028H
	rex_jmp	QWORD PTR fnEmitErr
$LN20@minus_op:

; 2054 :         }
; 2055 : 
; 2056 :     } else if( opnd1->kind == EXPR_REG &&
; 2057 :               opnd2->kind == EXPR_CONST ) {

	cmp	eax, 2
	jne	SHORT $LN2@minus_op
	cmp	DWORD PTR [rdx+60], r9d
	jne	SHORT $LN2@minus_op

; 2058 : 
; 2059 :         opnd1->llvalue = -1 * opnd2->llvalue;

	mov	rax, QWORD PTR [rdx]
	neg	rax
	mov	QWORD PTR [rcx], rax

; 2060 :         opnd1->indirect |= opnd2->indirect;

	mov	eax, DWORD PTR [rdx+72]

; 2061 :         opnd1->kind = EXPR_ADDR;

	mov	DWORD PTR [rcx+60], 1
	and	eax, 1
	or	DWORD PTR [rcx+72], eax
$LN1@minus_op:

; 2066 :     }
; 2067 :     return( NOT_ERROR );

	xor	eax, eax

; 2068 : }

	add	rsp, 40					; 00000028H
	ret	0
$LN2@minus_op:

; 2062 : 
; 2063 :     } else {
; 2064 :         DebugMsg(("minus_op, exit, error: kinds tok1=%u, tok2=%u\n", opnd1->kind, opnd2->kind ));
; 2065 :         return( ConstError( opnd1, opnd2 ) );

	test	BYTE PTR [rcx+72], 16
	jne	SHORT $LN62@minus_op
	cmp	eax, 3
	je	SHORT $LN59@minus_op
	cmp	DWORD PTR [rdx+60], 3
	mov	ecx, 65					; 00000041H
	jne	SHORT $LN68@minus_op
$LN59@minus_op:
	mov	ecx, 271				; 0000010fH
$LN68@minus_op:
	call	QWORD PTR fnEmitErr
	mov	r9d, -1
$LN62@minus_op:
	mov	eax, r9d

; 2068 : }

	add	rsp, 40					; 00000028H
	ret	0
minus_op ENDP
; Function compile flags: /Ogtpy
opnd$ = 8
struct_field_error PROC NEAR

; 2075 :     if ( opnd->is_opattr ) {

	test	BYTE PTR [rcx+72], 16
	je	SHORT $LN1@struct_fie

; 2076 :         opnd->kind = EXPR_ERROR;

	mov	DWORD PTR [rcx+60], -1

; 2077 :         return( NOT_ERROR );

	xor	eax, eax

; 2080 : }

	ret	0
$LN1@struct_fie:

; 2078 :     }
; 2079 :     return( fnEmitErr( STRUCTURE_FIELD_EXPECTED ) );

	mov	ecx, 272				; 00000110H

; 2080 : }

	rex_jmp	QWORD PTR fnEmitErr
struct_field_error ENDP
_TEXT	ENDS
EXTRN	CreateTypeSymbol:NEAR
_BSS	SEGMENT
nullstruct DQ	01H DUP (?)
_BSS	ENDS
xdata	SEGMENT
$unwind$dot_op DD 051101H
	DD	097411H
	DD	07340cH
	DD	04204H
xdata	ENDS
pdata	SEGMENT
$pdata$dot_op DD @imagerel(dot_op#)
	DD	@imagerel(dot_op#+101)
	DD	@imagerel($unwind$dot_op#)
pdata	ENDS
xdata	SEGMENT
$chain$2$dot_op DD 020521H
	DD	086405H
	DD	@imagerel(dot_op#)
	DD	@imagerel(dot_op#+101)
	DD	@imagerel($unwind$dot_op#)
xdata	ENDS
pdata	SEGMENT
$pdata$2$dot_op DD @imagerel(dot_op#+101)
	DD	@imagerel(dot_op#+383)
	DD	@imagerel($chain$2$dot_op#)
pdata	ENDS
xdata	SEGMENT
$chain$4$dot_op DD 020021H
	DD	086400H
	DD	@imagerel(dot_op#)
	DD	@imagerel(dot_op#+101)
	DD	@imagerel($unwind$dot_op#)
xdata	ENDS
pdata	SEGMENT
$pdata$4$dot_op DD @imagerel(dot_op#+383)
	DD	@imagerel(dot_op#+432)
	DD	@imagerel($chain$4$dot_op#)
pdata	ENDS
xdata	SEGMENT
$chain$6$dot_op DD 020021H
	DD	086400H
	DD	@imagerel(dot_op#)
	DD	@imagerel(dot_op#+101)
	DD	@imagerel($unwind$dot_op#)
xdata	ENDS
pdata	SEGMENT
$pdata$6$dot_op DD @imagerel(dot_op#+432)
	DD	@imagerel(dot_op#+516)
	DD	@imagerel($chain$6$dot_op#)
pdata	ENDS
xdata	SEGMENT
$chain$8$dot_op DD 020021H
	DD	086400H
	DD	@imagerel(dot_op#)
	DD	@imagerel(dot_op#+101)
	DD	@imagerel($unwind$dot_op#)
xdata	ENDS
pdata	SEGMENT
$pdata$8$dot_op DD @imagerel(dot_op#+516)
	DD	@imagerel(dot_op#+689)
	DD	@imagerel($chain$8$dot_op#)
pdata	ENDS
xdata	SEGMENT
$chain$10$dot_op DD 020021H
	DD	086400H
	DD	@imagerel(dot_op#)
	DD	@imagerel(dot_op#+101)
	DD	@imagerel($unwind$dot_op#)
xdata	ENDS
pdata	SEGMENT
$pdata$10$dot_op DD @imagerel(dot_op#+689)
	DD	@imagerel(dot_op#+835)
	DD	@imagerel($chain$10$dot_op#)
pdata	ENDS
xdata	SEGMENT
$chain$12$dot_op DD 020021H
	DD	086400H
	DD	@imagerel(dot_op#)
	DD	@imagerel(dot_op#+101)
	DD	@imagerel($unwind$dot_op#)
xdata	ENDS
pdata	SEGMENT
$pdata$12$dot_op DD @imagerel(dot_op#+835)
	DD	@imagerel(dot_op#+964)
	DD	@imagerel($chain$12$dot_op#)
pdata	ENDS
xdata	SEGMENT
$chain$14$dot_op DD 020021H
	DD	086400H
	DD	@imagerel(dot_op#)
	DD	@imagerel(dot_op#+101)
	DD	@imagerel($unwind$dot_op#)
xdata	ENDS
pdata	SEGMENT
$pdata$14$dot_op DD @imagerel(dot_op#+964)
	DD	@imagerel(dot_op#+1006)
	DD	@imagerel($chain$14$dot_op#)
pdata	ENDS
xdata	SEGMENT
$chain$16$dot_op DD 020021H
	DD	086400H
	DD	@imagerel(dot_op#)
	DD	@imagerel(dot_op#+101)
	DD	@imagerel($unwind$dot_op#)
xdata	ENDS
pdata	SEGMENT
$pdata$16$dot_op DD @imagerel(dot_op#+1006)
	DD	@imagerel(dot_op#+1041)
	DD	@imagerel($chain$16$dot_op#)
; Function compile flags: /Ogtpy
pdata	ENDS
_TEXT	SEGMENT
opnd1$ = 48
opnd2$ = 56
dot_op	PROC NEAR

; 2084 : {

	sub	rsp, 40					; 00000028H

; 2085 :     /* this code needs cleanup! some stuff is obsolete. */
; 2086 : 
; 2087 :     DebugMsg1(("dot_op: op1-op2 kind=%d/%d sym=%s-%s type=%s-%s mbr=%s-%s\n",
; 2088 :                opnd1->kind, opnd2->kind,
; 2089 :                opnd1->sym  ? opnd1->sym->name  : "NULL",
; 2090 :                opnd2->sym  ? opnd2->sym->name  : "NULL",
; 2091 :                opnd1->type ? opnd1->type->name : "NULL",
; 2092 :                opnd2->type ? opnd2->type->name : "NULL",
; 2093 :                opnd1->mbr  ? opnd1->mbr->name  : "NULL",
; 2094 :                opnd2->mbr  ? opnd2->mbr->name  : "NULL" ));
; 2095 : 
; 2096 :     /*
; 2097 :      * The formats allowed are:
; 2098 :      *        [register]      . (type) constant
; 2099 :      *        label           . (type) constant
; 2100 :      *        (type) constant . (type) constant
; 2101 :      *
; 2102 :      * with OPTION OLDSTRUCTS:
; 2103 :      *        [register]      . address
; 2104 :      *        address         . address
; 2105 :      */
; 2106 : 
; 2107 :     if( check_direct_reg( opnd1, opnd2 ) == ERROR ) {

	mov	eax, DWORD PTR [rcx+60]
	mov	QWORD PTR [rsp+56], rbx
	mov	QWORD PTR [rsp+72], rdi
	cmp	eax, 2
	mov	rdi, rdx
	mov	rbx, rcx
	jne	SHORT $LN39@dot_op
	test	BYTE PTR [rcx+72], 1
	je	SHORT $LN73@dot_op
$LN39@dot_op:
	cmp	DWORD PTR [rdx+60], 2
	jne	SHORT $LN36@dot_op
	test	BYTE PTR [rdx+72], 1
	jne	SHORT $LN36@dot_op
$LN73@dot_op:

; 2108 :         DebugMsg(("dot_op: error direct register\n"));
; 2109 :         return( fnEmitErr( INVALID_USE_OF_REGISTER ) );

	mov	ecx, 170				; 000000aaH
	mov	rdi, QWORD PTR [rsp+72]
	mov	rbx, QWORD PTR [rsp+56]

; 2284 : }

	add	rsp, 40					; 00000028H
	rex_jmp	QWORD PTR fnEmitErr
$LN36@dot_op:

; 2110 :     }
; 2111 : 
; 2112 :     /* v2.08: remove EXPR_REG variants */
; 2113 :     if ( opnd1->kind == EXPR_REG )

	cmp	eax, 2
	jne	SHORT $LN35@dot_op

; 2114 :         opnd1->kind = EXPR_ADDR;

	mov	DWORD PTR [rcx+60], 1
$LN35@dot_op:

; 2115 :     if ( opnd2->kind == EXPR_REG )

	cmp	DWORD PTR [rdx+60], 2
	jne	SHORT $LN34@dot_op

; 2116 :         opnd2->kind = EXPR_ADDR;

	mov	DWORD PTR [rdx+60], 1
$LN34@dot_op:

; 2117 : 
; 2118 :     /* forward ref to a struct: [reg].<struct> */
; 2119 :     if ( opnd2->sym && opnd2->sym->state == SYM_UNDEFINED && Parse_Pass == PASS_1 ) {

	mov	rax, QWORD PTR [rdx+80]
	mov	QWORD PTR [rsp+64], rsi
	xor	esi, esi
	test	rax, rax
	je	SHORT $LN33@dot_op
	cmp	DWORD PTR [rax+40], esi
	jne	SHORT $LN33@dot_op
	cmp	DWORD PTR Parse_Pass, esi
	jne	SHORT $LN33@dot_op

; 2120 :         DebugMsg(("dot_op: forward reference %s, replaced by null struct type\n", opnd2->sym->name ));
; 2121 :         if ( !nullstruct )

	mov	rax, QWORD PTR nullstruct
	test	rax, rax
	jne	SHORT $LN32@dot_op

; 2122 :             nullstruct = CreateTypeSymbol( NULL, "", FALSE );

	lea	rdx, OFFSET FLAT:$SG6464
	xor	r8d, r8d
	xor	ecx, ecx
	call	CreateTypeSymbol
	mov	QWORD PTR nullstruct, rax
$LN32@dot_op:

; 2123 :         opnd2->type = nullstruct;
; 2124 :         opnd2->is_type = TRUE; /* v2.10: added */

	or	DWORD PTR [rdi+72], 8
	mov	QWORD PTR [rdi+96], rax

; 2125 :         opnd2->sym = NULL;

	mov	QWORD PTR [rdi+80], rsi

; 2126 :         opnd2->kind = EXPR_CONST;

	mov	DWORD PTR [rdi+60], esi
$LN33@dot_op:

; 2127 :     }
; 2128 : 
; 2129 :     if( check_same( opnd1, opnd2, EXPR_ADDR ) ) {

	mov	eax, DWORD PTR [rbx+60]
	cmp	eax, 1
	jne	$LN31@dot_op
	cmp	DWORD PTR [rdi+60], eax
	jne	$LN31@dot_op

; 2130 : 
; 2131 :         DebugMsg1(("dot_op, ADDR - ADDR, t1-t2 memtype=%X-%X sym=%s-%s\n",
; 2132 :                    opnd1->mem_type, opnd2->mem_type,
; 2133 :                    opnd1->sym  ? opnd1->sym->name  : "NULL",
; 2134 :                    opnd2->sym  ? opnd2->sym->name  : "NULL" ));
; 2135 : 
; 2136 : #if 1 /* v2.05: error */
; 2137 :         if ( opnd2->mbr == NULL && !ModuleInfo.oldstructs ) {

	cmp	QWORD PTR [rdi+88], rsi
	jne	SHORT $LN30@dot_op
	bt	DWORD PTR ModuleInfo+408, 9
	jb	SHORT $LN30@dot_op
$LN75@dot_op:

; 2138 :             DebugMsg(("dot_op: error, mbr 2 is NULL\n"));
; 2139 :             return( struct_field_error( opnd1 ) );

	test	BYTE PTR [rbx+72], 16
	je	$LN70@dot_op
	mov	DWORD PTR [rbx+60], -1
	jmp	$LN71@dot_op
$LN30@dot_op:

; 2140 :         }
; 2141 : #endif
; 2142 :         if ( index_connect( opnd1, opnd2 ) == ERROR )

	mov	rax, QWORD PTR [rdi+24]
	test	rax, rax
	je	SHORT $LN56@dot_op
	mov	rcx, QWORD PTR [rbx+24]
	test	rcx, rcx
	jne	SHORT $LN55@dot_op
	mov	QWORD PTR [rbx+24], rax
	jmp	SHORT $LN51@dot_op
$LN55@dot_op:
	cmp	QWORD PTR [rbx+32], rsi
	jne	SHORT $LN53@dot_op
	cmp	BYTE PTR [rcx+1], 4
	je	SHORT $LN52@dot_op
	mov	QWORD PTR [rbx+32], rcx
	mov	rax, QWORD PTR [rdi+24]
	mov	QWORD PTR [rbx+24], rax
	jmp	SHORT $LN51@dot_op
$LN52@dot_op:
	mov	QWORD PTR [rbx+32], rax
$LN51@dot_op:
	or	DWORD PTR [rbx+72], 1
$LN56@dot_op:
	mov	rax, QWORD PTR [rdi+32]
	test	rax, rax
	je	SHORT $LN29@dot_op
	cmp	QWORD PTR [rbx+32], rsi
	jne	SHORT $LN48@dot_op
	mov	QWORD PTR [rbx+32], rax
	movzx	eax, BYTE PTR [rdi+68]
	or	DWORD PTR [rbx+72], 1
	mov	BYTE PTR [rbx+68], al
$LN29@dot_op:

; 2143 :             return( ERROR );
; 2144 : 
; 2145 :         if( opnd2->sym != NULL ) {

	mov	rax, QWORD PTR [rdi+80]
	test	rax, rax
	je	SHORT $LN28@dot_op

; 2146 :             if( opnd1->sym != NULL &&
; 2147 :                 opnd1->sym->state != SYM_UNDEFINED &&
; 2148 :                 opnd2->sym->state != SYM_UNDEFINED ) {

	mov	rcx, QWORD PTR [rbx+80]
	test	rcx, rcx
	je	SHORT $LN27@dot_op
	cmp	DWORD PTR [rcx+40], esi
	je	SHORT $LN27@dot_op
	cmp	DWORD PTR [rax+40], esi
	je	SHORT $LN27@dot_op

; 2149 :                 DebugMsg(("dot_op: error, two relocatable labels: %s - %s \n", opnd1->sym->name, opnd2->sym->name ));
; 2150 :                 return( fnEmitErr( CANNOT_ADD_TWO_RELOCATABLE_LABELS ) );

	mov	ecx, 173				; 000000adH
	call	QWORD PTR fnEmitErr
	mov	rsi, QWORD PTR [rsp+64]
	mov	rdi, QWORD PTR [rsp+72]
	mov	rbx, QWORD PTR [rsp+56]

; 2284 : }

	add	rsp, 40					; 00000028H
	ret	0

; 2140 :         }
; 2141 : #endif
; 2142 :         if ( index_connect( opnd1, opnd2 ) == ERROR )

$LN53@dot_op:
	mov	ecx, 34					; 00000022H
	call	QWORD PTR fnEmitErr
	jmp	SHORT $LN57@dot_op
$LN48@dot_op:
	mov	ecx, 34					; 00000022H
	call	QWORD PTR fnEmitErr
$LN57@dot_op:
	cmp	eax, -1
	jne	SHORT $LN29@dot_op
	mov	rsi, QWORD PTR [rsp+64]
	mov	rdi, QWORD PTR [rsp+72]
	mov	rbx, QWORD PTR [rsp+56]

; 2284 : }

	add	rsp, 40					; 00000028H
	ret	0
$LN27@dot_op:

; 2151 :             }
; 2152 :             opnd1->label_tok = opnd2->label_tok;

	mov	rax, QWORD PTR [rdi+40]
	mov	QWORD PTR [rbx+40], rax

; 2153 :             opnd1->sym = opnd2->sym;

	mov	rax, QWORD PTR [rdi+80]
	mov	QWORD PTR [rbx+80], rax
$LN28@dot_op:

; 2154 :         }
; 2155 :         if( opnd2->mbr != NULL ) {

	mov	rax, QWORD PTR [rdi+88]
	test	rax, rax
	je	SHORT $LN26@dot_op

; 2156 :             opnd1->mbr = opnd2->mbr;

	mov	QWORD PTR [rbx+88], rax
$LN26@dot_op:

; 2157 :         }
; 2158 :         opnd1->value += opnd2->value;

	mov	eax, DWORD PTR [rdi]
	add	DWORD PTR [rbx], eax

; 2159 :         if( opnd1->explicit == FALSE ) {

	test	BYTE PTR [rbx+72], 2
	jne	SHORT $LN25@dot_op

; 2160 :             opnd1->mem_type = opnd2->mem_type;

	mov	eax, DWORD PTR [rdi+64]
	mov	DWORD PTR [rbx+64], eax
$LN25@dot_op:

; 2161 :         }
; 2162 :         if ( opnd2->type )

	mov	rax, QWORD PTR [rdi+96]
	test	rax, rax
	je	$LN2@dot_op
	mov	rsi, QWORD PTR [rsp+64]

; 2163 :             opnd1->type = opnd2->type;

	mov	QWORD PTR [rbx+96], rax

; 2282 :     }
; 2283 :     return( NOT_ERROR );

	xor	eax, eax
	mov	rdi, QWORD PTR [rsp+72]
	mov	rbx, QWORD PTR [rsp+56]

; 2284 : }

	add	rsp, 40					; 00000028H
	ret	0
$LN31@dot_op:

; 2164 : 
; 2165 :     } else if( ( opnd1->kind == EXPR_CONST ) && ( opnd2->kind == EXPR_ADDR ) ) {

	test	eax, eax
	jne	$LN22@dot_op
	cmp	DWORD PTR [rdi+60], 1
	jne	$LN22@dot_op

; 2166 : 
; 2167 :         DebugMsg1(("dot_op, CONST - ADDR: t1-t2 memtype=%Xh-%Xh istype=%u-%u\n",
; 2168 :                    opnd1->mem_type, opnd2->mem_type, opnd1->is_type, opnd2->is_type ));
; 2169 :         /* v2.08 added (copied from branch EXPR_ADDR-EXPR_REG )*/
; 2170 :         if ( opnd1->is_type && opnd1->type ) {

	test	BYTE PTR [rbx+72], 8
	je	SHORT $LN21@dot_op
	cmp	QWORD PTR [rbx+96], rsi
	je	SHORT $LN21@dot_op

; 2171 :             opnd2->assumecheck = FALSE;

	and	DWORD PTR [rdi+72], -65			; ffffffbfH

; 2172 :             opnd1->llvalue = 0;  /* v2.08: this was previously done in get_operand() */

	mov	QWORD PTR [rbx], rsi
$LN21@dot_op:

; 2173 :         }
; 2174 : #if 1 /* v2.05: error */
; 2175 :         /* <structname>.<member>[<index_reg>] is ALWAYS ok! */
; 2176 :         if ( ( !ModuleInfo.oldstructs ) && ( opnd1->is_type == FALSE && opnd1->mbr == NULL ) )

	bt	DWORD PTR ModuleInfo+408, 9
	jb	SHORT $LN20@dot_op
	mov	eax, DWORD PTR [rbx+72]
	test	al, 8
	jne	SHORT $LN20@dot_op
	cmp	QWORD PTR [rbx+88], rsi
	jne	SHORT $LN20@dot_op

; 2177 :             return( struct_field_error( opnd1 ) );

	test	al, 16
	je	$LN70@dot_op
	mov	DWORD PTR [rbx+60], -1
	jmp	$LN71@dot_op
$LN20@dot_op:

; 2178 : #endif
; 2179 :         /* for TYPE.xxx, return offset instead of size */
; 2180 :         if ( opnd1->mbr && opnd1->mbr->state == SYM_TYPE )

	mov	rax, QWORD PTR [rbx+88]
	test	rax, rax
	je	SHORT $LN19@dot_op
	cmp	DWORD PTR [rax+40], 7
	jne	SHORT $LN19@dot_op

; 2181 :             opnd1->llvalue = opnd1->mbr->offset;

	movsxd	rax, DWORD PTR [rax+16]
	mov	QWORD PTR [rbx], rax
$LN19@dot_op:

; 2182 :         opnd2->indirect |= opnd1->indirect;

	mov	eax, DWORD PTR [rbx+72]
	and	eax, 1
	or	eax, DWORD PTR [rdi+72]
	mov	DWORD PTR [rdi+72], eax

; 2183 :         opnd2->llvalue += opnd1->llvalue;

	mov	rax, QWORD PTR [rbx]
	add	QWORD PTR [rdi], rax

; 2184 :         DebugMsg1(("dot_op, CONST - ADDR, t1.type=%X (%s), t2.type=%X (%s)\n",
; 2185 :                    opnd1->type,
; 2186 :                    opnd1->type ? opnd1->type->name : "",
; 2187 :                    opnd2->type,
; 2188 :                    opnd2->type ? opnd2->type->name : "" ));
; 2189 :         /* v2.06: added. test case: INVOKE struct.mbr[edx] ( mbr has a type ) */
; 2190 :         if ( opnd2->mbr )

	cmp	QWORD PTR [rdi+88], rsi
	je	SHORT $LN18@dot_op

; 2191 :             opnd1->type = opnd2->type;

	mov	rax, QWORD PTR [rdi+96]
	mov	QWORD PTR [rbx+96], rax
$LN18@dot_op:

; 2192 :         TokenAssign( opnd1, opnd2 );

	mov	rcx, rbx
	mov	rdx, rdi
	mov	r8d, 96					; 00000060H
	call	memcpy
	mov	rsi, QWORD PTR [rsp+64]

; 2282 :     }
; 2283 :     return( NOT_ERROR );

	xor	eax, eax
	mov	rdi, QWORD PTR [rsp+72]
	mov	rbx, QWORD PTR [rsp+56]

; 2284 : }

	add	rsp, 40					; 00000028H
	ret	0
$LN22@dot_op:

; 2193 : 
; 2194 :     } else if( ( opnd1->kind == EXPR_ADDR ) && ( opnd2->kind == EXPR_CONST ) ) {

	cmp	eax, 1
	jne	$LN16@dot_op
	cmp	DWORD PTR [rdi+60], esi
	jne	$LN16@dot_op

; 2195 : 
; 2196 :         DebugMsg1(("dot_op, ADDR - CONST: t1-t2 memtype=%Xh-%Xh t1.explicit=%u\n",
; 2197 :                    opnd1->mem_type, opnd2->mem_type, opnd1->explicit ));
; 2198 : 
; 2199 :         /* v2.08: changed to catch [ebx].<num> or [ebx].<simple type> */
; 2200 :         //if ( (!ModuleInfo.oldstructs) && opnd2->type == NULL && opnd2->mbr == NULL ) {
; 2201 :         if ( (!ModuleInfo.oldstructs) && ( opnd2->type == NULL || opnd2->is_type == FALSE ) && opnd2->mbr == NULL ) {

	bt	DWORD PTR ModuleInfo+408, 9
	jb	SHORT $LN15@dot_op
	cmp	QWORD PTR [rdi+96], rsi
	je	SHORT $LN14@dot_op
	test	BYTE PTR [rdi+72], 8
	jne	SHORT $LN15@dot_op
$LN14@dot_op:
	cmp	QWORD PTR [rdi+88], rsi

; 2202 :             DebugMsg(("dot_op: error, constant or simple type after dot\n"));
; 2203 :             return( struct_field_error( opnd1 ) );

	je	$LN75@dot_op
$LN15@dot_op:

; 2204 :         }
; 2205 : 
; 2206 :         /* v2.08 added (copied from branch EXPR_ADDR-EXPR_REG )*/
; 2207 :         if ( opnd2->is_type && opnd2->type ) {

	test	BYTE PTR [rdi+72], 8
	je	SHORT $LN13@dot_op
	cmp	QWORD PTR [rdi+96], rsi
	je	SHORT $LN13@dot_op

; 2208 :             opnd1->assumecheck = FALSE;

	and	DWORD PTR [rbx+72], -65			; ffffffbfH

; 2209 :             opnd2->llvalue = 0;  /* v2.08: this was previously done in get_operand() */

	mov	QWORD PTR [rdi], rsi
$LN13@dot_op:

; 2210 :         }
; 2211 :         /* for [var].TYPE | STRUCT_FIELD, use offset instead of size */
; 2212 :         if ( opnd2->mbr && opnd2->mbr->state == SYM_TYPE )

	mov	rax, QWORD PTR [rdi+88]
	test	rax, rax
	je	SHORT $LN12@dot_op
	cmp	DWORD PTR [rax+40], 7
	jne	SHORT $LN12@dot_op

; 2213 :             opnd2->llvalue = opnd2->mbr->offset;

	movsxd	rax, DWORD PTR [rax+16]
	mov	QWORD PTR [rdi], rax
$LN12@dot_op:

; 2214 :         opnd1->llvalue += opnd2->llvalue;

	mov	rax, QWORD PTR [rdi]
	add	QWORD PTR [rbx], rax

; 2215 :         opnd1->mem_type = opnd2->mem_type; /* v2.08: now always done */

	mov	eax, DWORD PTR [rdi+64]
	mov	DWORD PTR [rbx+64], eax

; 2216 :         if( opnd2->mbr != NULL ) {

	mov	rax, QWORD PTR [rdi+88]
	test	rax, rax
	je	SHORT $LN11@dot_op

; 2217 :             opnd1->mbr = opnd2->mbr;

	mov	QWORD PTR [rbx+88], rax
$LN11@dot_op:

; 2218 : #if 0 /* v2.07 */
; 2219 :             /* temp. disabled in v1.95, test case:
; 2220 :              * mov eax,(<struct> ptr [ebx]).F1
; 2221 :              * however: mov ax, word ptr var[bx].F1 ???
; 2222 :              * the condition can't be disabled. Instead the PTR
; 2223 :              * operator must NOT set the explicit flag if the
; 2224 :              * first operand is a structure.
; 2225 :              */
; 2226 :             if( opnd1->explicit == FALSE )
; 2227 : #endif
; 2228 :                 //opnd1->mem_type = opnd2->mem_type; /* v2.08: obsolete */
; 2229 :         }
; 2230 : 
; 2231 :         DebugMsg1(("dot_op, ADDR - CONST, t1.type=%X (%s), t2.type=%X (%s)\n",
; 2232 :                    opnd1->type,
; 2233 :                    opnd1->type ? opnd1->type->name : "",
; 2234 :                    opnd2->type,
; 2235 :                    opnd2->type ? opnd2->type->name : "" ));
; 2236 : #if 0 /* v1.96 */
; 2237 :         if ( opnd2->type )
; 2238 : #endif
; 2239 :             opnd1->type = opnd2->type;

	mov	rax, QWORD PTR [rdi+96]
	mov	rsi, QWORD PTR [rsp+64]
	mov	QWORD PTR [rbx+96], rax

; 2282 :     }
; 2283 :     return( NOT_ERROR );

	xor	eax, eax
	mov	rdi, QWORD PTR [rsp+72]
	mov	rbx, QWORD PTR [rsp+56]

; 2284 : }

	add	rsp, 40					; 00000028H
	ret	0
$LN16@dot_op:

; 2240 : 
; 2241 :     } else if ( opnd1->kind == EXPR_CONST && opnd2->kind == EXPR_CONST ) {

	test	eax, eax
	jne	$LN75@dot_op
	cmp	DWORD PTR [rdi+60], esi
	jne	$LN75@dot_op

; 2242 : 
; 2243 :         DebugMsg1(("dot_op, CONST - CONST, t1-t2 value=%u-%u, memtype=%Xh-%Xh istype=%u-%u\n",
; 2244 :                    opnd1->value, opnd2->value, opnd1->mem_type, opnd2->mem_type, opnd1->is_type, opnd2->is_type));
; 2245 :         if ( opnd2->mbr == NULL && !ModuleInfo.oldstructs ) {

	cmp	QWORD PTR [rdi+88], rsi
	jne	SHORT $LN8@dot_op
	bt	DWORD PTR ModuleInfo+408, 9

; 2246 :             DebugMsg(("dot_op: error, opnd2.mbr=NULL\n" ));
; 2247 :             return( struct_field_error( opnd1 ) );

	jae	$LN75@dot_op
$LN8@dot_op:

; 2248 :         }
; 2249 :         if ( opnd1->type != NULL ) {

	mov	rcx, QWORD PTR [rbx+96]
	test	rcx, rcx
	je	SHORT $LN7@dot_op

; 2250 :             /*
; 2251 :              * v2.06: the token1 value must NOT be ignored if the token is a
; 2252 :              * struct member: mov ax, [offset] <struct>.<mbr>.<mbr>
; 2253 :              */
; 2254 :             if ( opnd1->mbr != NULL )

	cmp	QWORD PTR [rbx+88], rsi
	je	SHORT $LN6@dot_op

; 2255 :                 opnd1->llvalue += opnd2->llvalue;

	mov	rax, QWORD PTR [rdi]
	add	QWORD PTR [rbx], rax

; 2256 :             else {

	jmp	SHORT $LN5@dot_op
$LN6@dot_op:

; 2257 :                 /* old token is a type - the value (=size) is ignored then. */
; 2258 :                 opnd1->llvalue = opnd2->llvalue;

	mov	rax, QWORD PTR [rdi]
	mov	QWORD PTR [rbx], rax
$LN5@dot_op:

; 2259 :             }
; 2260 :             opnd1->mbr = opnd2->mbr;

	mov	rax, QWORD PTR [rdi+88]
	mov	QWORD PTR [rbx+88], rax

; 2261 :             /* v2.0: copy mem_type (test case: mov ds:[<struct>.<mbr>], 123) */
; 2262 :             opnd1->mem_type = opnd2->mem_type;

	mov	eax, DWORD PTR [rdi+64]
	mov	DWORD PTR [rbx+64], eax

; 2263 :             /* v2.05: removed, it's still a type constant */
; 2264 :             //opnd1->is_type = FALSE;
; 2265 :             opnd1->is_type = opnd2->is_type;

	mov	eax, DWORD PTR [rdi+72]
	xor	eax, DWORD PTR [rbx+72]
	and	eax, 8
	xor	DWORD PTR [rbx+72], eax

; 2266 :             /* either clear <type> or use the renewed one */
; 2267 :             if ( opnd1->type != opnd2->type )

	mov	rax, QWORD PTR [rdi+96]
	cmp	rcx, rax
	cmovne	rsi, rax

; 2282 :     }
; 2283 :     return( NOT_ERROR );

	xor	eax, eax
	mov	QWORD PTR [rbx+96], rsi
	mov	rsi, QWORD PTR [rsp+64]
	mov	rdi, QWORD PTR [rsp+72]
	mov	rbx, QWORD PTR [rsp+56]

; 2284 : }

	add	rsp, 40					; 00000028H
	ret	0
$LN7@dot_op:

; 2268 :                 opnd1->type = opnd2->type;
; 2269 :             else
; 2270 :                 opnd1->type = NULL;
; 2271 :         } else {
; 2272 :             /* old token is NOT a type */
; 2273 :             /* most likely a number or an MT_ABS symbol! */
; 2274 :             /* so the TOTAL of both constants is required */
; 2275 :             opnd1->llvalue += opnd2->llvalue;

	mov	rax, QWORD PTR [rdi]
	add	QWORD PTR [rbx], rax

; 2276 :             opnd1->mbr = opnd2->mbr;

	mov	rax, QWORD PTR [rdi+88]
	mov	QWORD PTR [rbx+88], rax

; 2277 :             opnd1->mem_type = opnd2->mem_type;

	mov	eax, DWORD PTR [rdi+64]
	mov	DWORD PTR [rbx+64], eax
$LN2@dot_op:

; 2282 :     }
; 2283 :     return( NOT_ERROR );

	xor	eax, eax
	mov	rsi, QWORD PTR [rsp+64]
	mov	rdi, QWORD PTR [rsp+72]
	mov	rbx, QWORD PTR [rsp+56]

; 2284 : }

	add	rsp, 40					; 00000028H
	ret	0

; 2278 :         }
; 2279 :     } else {
; 2280 :         DebugMsg(("dot_op: error, unknown kind combination, opnd1->kind=%d, opnd2->kind=%d\n", opnd1->kind, opnd2->kind ));
; 2281 :         return( struct_field_error( opnd1 ) );

$LN70@dot_op:
	mov	ecx, 272				; 00000110H
	call	QWORD PTR fnEmitErr
	mov	esi, eax
$LN71@dot_op:
	mov	rdi, QWORD PTR [rsp+72]
	mov	rbx, QWORD PTR [rsp+56]
	mov	eax, esi
	mov	rsi, QWORD PTR [rsp+64]

; 2284 : }

	add	rsp, 40					; 00000028H
	ret	0
dot_op	ENDP
_TEXT	ENDS
xdata	SEGMENT
$unwind$colon_op DD 051201H
	DD	097412H
	DD	08340dH
	DD	04204H
xdata	ENDS
pdata	SEGMENT
$pdata$colon_op DD @imagerel(colon_op#)
	DD	@imagerel(colon_op#+472)
	DD	@imagerel($unwind$colon_op#)
; Function compile flags: /Ogtpy
pdata	ENDS
_TEXT	SEGMENT
opnd1$ = 48
opnd2$ = 56
colon_op PROC NEAR

; 2288 : {

	sub	rsp, 40					; 00000028H

; 2289 :     int_32              temp;
; 2290 :     struct asym         *sym;
; 2291 :     /*
; 2292 :      * The only formats allowed are:
; 2293 :      *     seg_reg : const
; 2294 :      *     seg_reg : address
; 2295 :      *     seg_label : const
; 2296 :      *     seg_label : address
; 2297 :      *     ( seg_label = segment or group symbol )
; 2298 :      *     inside square brackets, seg_reg : register is not accepted
; 2299 :      *     if Masm-syntax is on.
; 2300 :      */
; 2301 :     DebugMsg1(("colon_op: t1-t2 kind=%d/%d type=%s-%s is_type=%u-%u\n",
; 2302 :                opnd1->kind, opnd2->kind,
; 2303 :                opnd1->type ? opnd1->type->name : "NULL",
; 2304 :                opnd2->type ? opnd2->type->name : "NULL",
; 2305 :                opnd1->is_type, opnd2->is_type ));
; 2306 :     if( opnd2->override != NULL ) {

	mov	rax, QWORD PTR [rdx+48]
	mov	QWORD PTR [rsp+64], rbx
	mov	QWORD PTR [rsp+72], rdi
	test	rax, rax
	mov	rdi, rdx
	mov	rbx, rcx
	je	SHORT $LN23@colon_op

; 2307 :         /* v2.07a: was too rigid */
; 2308 :         if ( ( opnd1->kind == EXPR_REG && opnd2->override->token == T_REG ) ||
; 2309 :             ( opnd1->kind == EXPR_ADDR && opnd2->override->token == T_ID ) ) {

	mov	ecx, DWORD PTR [rcx+60]
	cmp	ecx, 2
	jne	SHORT $LN21@colon_op
	cmp	BYTE PTR [rax], cl
	je	SHORT $LN22@colon_op
$LN21@colon_op:
	cmp	ecx, 1
	jne	SHORT $LN23@colon_op
	cmp	BYTE PTR [rax], 8
	jne	SHORT $LN23@colon_op
$LN22@colon_op:

; 2310 :             DebugMsg(("colon_op: multiple override=%s\n", opnd2->override->string_ptr ));
; 2311 :             return( fnEmitErr( MULTIPLE_OVERRIDES ) );

	mov	ecx, 68					; 00000044H
	jmp	$LN32@colon_op
$LN23@colon_op:

; 2312 :         }
; 2313 :     }
; 2314 :     switch ( opnd2->kind ) {

	mov	edx, DWORD PTR [rdx+60]
	mov	ecx, edx
	sub	ecx, 2
	je	SHORT $LN18@colon_op
	dec	ecx
	jne	SHORT $LN17@colon_op

; 2320 :         }
; 2321 :         break;
; 2322 :     case EXPR_FLOAT:
; 2323 :         return( fnEmitErr( REAL_OR_BCD_NUMBER_NOT_ALLOWED ) );

	mov	ecx, 271				; 0000010fH
	jmp	$LN32@colon_op
$LN18@colon_op:

; 2315 :     case EXPR_REG:
; 2316 :         /* v2.05: register as second operand must be enclosed in [] */
; 2317 :         if ( opnd2->indirect == FALSE ) {

	test	BYTE PTR [rdi+72], 1

; 2318 :             DebugMsg(("colon_op: register after : not enclosed in []\n" ));
; 2319 :             return( fnEmitErr( INVALID_USE_OF_REGISTER ) );

	je	SHORT $LN31@colon_op
$LN17@colon_op:

; 2324 :     }
; 2325 : 
; 2326 :     if( opnd1->kind == EXPR_REG ) {

	mov	eax, DWORD PTR [rbx+60]
	cmp	eax, 2
	jne	$LN15@colon_op

; 2327 : 
; 2328 :         /* the item before the ':' must be a single register */
; 2329 :         if( opnd1->idx_reg != NULL ) {

	cmp	QWORD PTR [rbx+32], 0
	je	SHORT $LN14@colon_op
$LN31@colon_op:

; 2330 :             DebugMsg(("colon_op: register before ':' has idx_reg set!?\n"));
; 2331 :             return( fnEmitErr( INVALID_USE_OF_REGISTER ) );

	mov	ecx, 170				; 000000aaH
	jmp	$LN32@colon_op
$LN14@colon_op:

; 2332 :         }
; 2333 :         /* segment override inside bracket not allowed with -Zne.
; 2334 :          * [ds:0] is ok, but [ds:ebx] is rejected.
; 2335 :          */
; 2336 :         /* v2.08: test moved here from get_operand() */
; 2337 :         /* v2.10: regression in v2.08-2.09: check was way too simple.
; 2338 :          * problem: indirect-flag isn't set for segment regs (anymore?).
; 2339 :          * error check moved back to get_operand().
; 2340 :          */
; 2341 : #if 0
; 2342 :         if ( Options.strict_masm_compat ) {
; 2343 :             return( fnEmitErr( INVALID_USE_OF_REGISTER ) );
; 2344 :         }
; 2345 : #endif
; 2346 :         /* make sure first operand is a segment register */
; 2347 :         temp = opnd1->base_reg->tokval;

	mov	r8, QWORD PTR [rbx+24]

; 2348 :         if ( ( GetValueSp( temp ) & OP_SR ) == 0 ) {

	movsxd	rax, DWORD PTR [r8+16]
	lea	rcx, QWORD PTR [rax+rax*2]
	lea	rax, OFFSET FLAT:SpecialTable
	test	DWORD PTR [rax+rcx*4], 24576		; 00006000H

; 2349 :             return( fnEmitErr( SEGMENT_GROUP_OR_SEGREG_EXPECTED ) );

	je	$LN8@colon_op

; 2350 :         }
; 2351 : 
; 2352 :         opnd2->override = opnd1->base_reg;
; 2353 :         opnd2->indirect |= opnd1->indirect;

	mov	eax, DWORD PTR [rdi+72]
	mov	QWORD PTR [rdi+48], r8
	mov	ecx, DWORD PTR [rbx+72]
	or	ecx, eax
	xor	ecx, eax
	and	ecx, 1
	xor	ecx, eax

; 2354 : 
; 2355 :         if ( opnd2->kind == EXPR_CONST ) {

	test	edx, edx
	mov	DWORD PTR [rdi+72], ecx
	jne	SHORT $LN12@colon_op

; 2356 :             opnd2->kind = EXPR_ADDR;

	mov	DWORD PTR [rdi+60], 1
$LN12@colon_op:

; 2357 :             /* v2.05: type flag cleared HERE, not in dot_op()
; 2358 :              * v2.05rc17 problem: mov es:byte ptr <var>,0
; 2359 :              * so the flag isn't cleared at all now.
; 2360 :              */
; 2361 :             //opnd2->is_type = FALSE;
; 2362 :         }
; 2363 : 
; 2364 :         if( opnd1->explicit ) {

	mov	eax, DWORD PTR [rbx+72]
	test	al, 2
	je	SHORT $LN11@colon_op

; 2365 :             opnd2->explicit = opnd1->explicit;

	and	DWORD PTR [rdi+72], -3			; fffffffdH
	and	eax, 2
	or	DWORD PTR [rdi+72], eax

; 2366 :             opnd2->mem_type = opnd1->mem_type;

	mov	eax, DWORD PTR [rbx+64]
	mov	DWORD PTR [rdi+64], eax

; 2367 :             opnd2->Ofssize  = opnd1->Ofssize;

	movzx	eax, BYTE PTR [rbx+69]
	mov	BYTE PTR [rdi+69], al
$LN11@colon_op:

; 2368 :         }
; 2369 :         TokenAssign( opnd1, opnd2 );

	mov	rcx, rbx
	mov	rdx, rdi
	mov	r8d, 96					; 00000060H
	call	memcpy

; 2370 : 
; 2371 :         /*
; 2372 :          * currently the <type> token isn't copied by
; 2373 :          * TokenAssign (which is probably just for historical reasons).
; 2374 :          * So copy it manually!
; 2375 :          * v1.95: only copy if it is != NULL!
; 2376 :          * Testcase: (<type> ptr DS:[0]).<struct_field> ...
; 2377 :          * In this case the DS:[] will clear the <type>, as a result
; 2378 :          * the dot operator won't have a valid assume and the code fails.
; 2379 :          */
; 2380 :         if ( opnd2->type )

	mov	r11, QWORD PTR [rdi+96]
	test	r11, r11
	je	$LN3@colon_op

; 2381 :             opnd1->type = opnd2->type;

	mov	QWORD PTR [rbx+96], r11

; 2413 :     }
; 2414 :     return( NOT_ERROR );

	xor	eax, eax
	mov	rdi, QWORD PTR [rsp+72]
	mov	rbx, QWORD PTR [rsp+64]

; 2415 : }

	add	rsp, 40					; 00000028H
	ret	0
$LN15@colon_op:

; 2382 : 
; 2383 :     } else if( opnd1->kind == EXPR_ADDR &&
; 2384 :               /* opnd2->kind == EXPR_ADDR && */
; 2385 :               opnd1->override == NULL &&
; 2386 :               opnd1->instr == EMPTY &&
; 2387 :               opnd1->value == 0 &&
; 2388 :               opnd1->sym &&
; 2389 :               opnd1->base_reg == NULL &&
; 2390 :               opnd1->idx_reg == NULL ) {

	cmp	eax, 1
	jne	SHORT $LN8@colon_op
	cmp	QWORD PTR [rbx+48], 0
	jne	SHORT $LN8@colon_op
	cmp	DWORD PTR [rbx+56], -2
	jne	SHORT $LN8@colon_op
	cmp	DWORD PTR [rbx], 0
	jne	SHORT $LN8@colon_op
	mov	rax, QWORD PTR [rbx+80]
	test	rax, rax
	je	SHORT $LN8@colon_op
	cmp	QWORD PTR [rbx+24], 0
	jne	SHORT $LN8@colon_op
	cmp	QWORD PTR [rbx+32], 0
	jne	SHORT $LN8@colon_op

; 2391 : 
; 2392 :         sym = opnd1->sym;
; 2393 : 
; 2394 :         if( sym->state == SYM_GRP || sym->state == SYM_SEG ) {

	mov	eax, DWORD PTR [rax+40]
	cmp	eax, 4
	je	SHORT $LN6@colon_op
	cmp	eax, 3
	je	SHORT $LN6@colon_op

; 2405 : 
; 2406 :         } else if( Parse_Pass > PASS_1 || sym->state != SYM_UNDEFINED ) {

	cmp	DWORD PTR Parse_Pass, 0
	ja	SHORT $LN8@colon_op
	test	eax, eax
	je	SHORT $LN3@colon_op
$LN8@colon_op:

; 2407 :             DebugMsg(("colon_op error 4\n"));
; 2408 :             return( fnEmitErr( SEGMENT_GROUP_OR_SEGREG_EXPECTED ) );
; 2409 :         }
; 2410 :     } else {
; 2411 :         DebugMsg(("colon_op error 5\n"));
; 2412 :         return( fnEmitErr( SEGMENT_GROUP_OR_SEGREG_EXPECTED ) );

	mov	ecx, 69					; 00000045H
$LN32@colon_op:
	mov	rdi, QWORD PTR [rsp+72]
	mov	rbx, QWORD PTR [rsp+64]

; 2415 : }

	add	rsp, 40					; 00000028H
	rex_jmp	QWORD PTR fnEmitErr
$LN6@colon_op:

; 2395 :             opnd2->kind = EXPR_ADDR;

	mov	DWORD PTR [rdi+60], 1

; 2396 :             opnd2->override = opnd1->label_tok;

	mov	rax, QWORD PTR [rbx+40]
	mov	QWORD PTR [rdi+48], rax

; 2397 :             opnd2->indirect |= opnd1->indirect;

	mov	eax, DWORD PTR [rdi+72]
	mov	ecx, DWORD PTR [rbx+72]
	or	ecx, eax
	xor	ecx, eax
	and	ecx, 1
	xor	ecx, eax
	mov	DWORD PTR [rdi+72], ecx

; 2398 :             if( opnd1->explicit ) {

	mov	edx, DWORD PTR [rbx+72]
	test	dl, 2
	je	SHORT $LN5@colon_op

; 2399 :                 opnd2->explicit = opnd1->explicit;

	mov	eax, ecx
	xor	eax, edx
	and	eax, 2
	xor	eax, ecx
	mov	DWORD PTR [rdi+72], eax

; 2400 :                 opnd2->mem_type = opnd1->mem_type;

	mov	eax, DWORD PTR [rbx+64]
	mov	DWORD PTR [rdi+64], eax

; 2401 :                 opnd2->Ofssize  = opnd1->Ofssize;

	movzx	eax, BYTE PTR [rbx+69]
	mov	BYTE PTR [rdi+69], al
$LN5@colon_op:

; 2402 :             }
; 2403 :             TokenAssign( opnd1, opnd2 );

	mov	rcx, rbx
	mov	rdx, rdi
	mov	r8d, 96					; 00000060H
	call	memcpy

; 2404 :             opnd1->type = opnd2->type;

	mov	r11, QWORD PTR [rdi+96]
	mov	QWORD PTR [rbx+96], r11
$LN3@colon_op:
	mov	rdi, QWORD PTR [rsp+72]
	mov	rbx, QWORD PTR [rsp+64]

; 2413 :     }
; 2414 :     return( NOT_ERROR );

	xor	eax, eax

; 2415 : }

	add	rsp, 40					; 00000028H
	ret	0
colon_op ENDP
; Function compile flags: /Ogtpy
opnd1$ = 8
opnd2$ = 16
positive_op PROC NEAR

; 2420 :     DebugMsg1(("positive_op: value=%" I64_SPEC "X high=%" I64_SPEC "X\n", opnd2->llvalue, opnd2->hlvalue ));
; 2421 :     /*
; 2422 :      * The formats allowed are:
; 2423 :      *        + constant
; 2424 :      *        + float
; 2425 :      * v2.06: unlike the other operators unary + will
; 2426 :      * handle 128-bit values (needed for TBYTE integers)
; 2427 :      */
; 2428 : 
; 2429 :     MakeConst( opnd2 );

	xor	r10d, r10d
	cmp	DWORD PTR [rdx+60], 1
	jne	SHORT $LN17@positive_o
	mov	r8d, DWORD PTR [rdx+72]
	test	r8b, 1
	jne	SHORT $LN17@positive_o
	mov	rax, QWORD PTR [rdx+80]
	test	rax, rax
	je	SHORT $LN16@positive_o
	cmp	DWORD PTR Parse_Pass, r10d
	ja	SHORT $LN17@positive_o
	mov	r9d, DWORD PTR [rax+40]
	test	r9d, r9d
	jne	SHORT $LN12@positive_o
	cmp	DWORD PTR [rdx+56], -2
	je	SHORT $LN13@positive_o
$LN12@positive_o:
	cmp	r9d, 2
	jne	SHORT $LN17@positive_o
	test	BYTE PTR [rax+55], 8
	je	SHORT $LN17@positive_o
	test	r8b, 4
	je	SHORT $LN17@positive_o
$LN13@positive_o:
	mov	DWORD PTR [rdx], 1
$LN16@positive_o:
	mov	rax, QWORD PTR [rdx+88]
	mov	QWORD PTR [rdx+40], r10
	test	rax, rax
	je	SHORT $LN8@positive_o
	cmp	DWORD PTR [rax+40], 6
	jne	SHORT $LN17@positive_o
$LN8@positive_o:
	cmp	QWORD PTR [rdx+48], r10
	jne	SHORT $LN17@positive_o
	and	r8d, -3					; fffffffdH
	mov	DWORD PTR [rdx+56], -2
	mov	DWORD PTR [rdx+60], r10d
	mov	DWORD PTR [rdx+72], r8d
	mov	DWORD PTR [rdx+64], 192			; 000000c0H
$LN17@positive_o:

; 2430 :     if( opnd2->kind == EXPR_CONST ) {

	mov	eax, DWORD PTR [rdx+60]
	test	eax, eax
	jne	SHORT $LN4@positive_o

; 2431 :         opnd1->kind = EXPR_CONST;

	mov	DWORD PTR [rcx+60], r10d

; 2432 :         opnd1->llvalue = opnd2->llvalue;

	mov	rax, QWORD PTR [rdx]
	mov	QWORD PTR [rcx], rax

; 2433 :         opnd1->hlvalue = opnd2->hlvalue; /* v2.06: added */

	mov	rax, QWORD PTR [rdx+8]
	mov	QWORD PTR [rcx+8], rax

; 2441 :     }
; 2442 :     return( NOT_ERROR );

	xor	eax, eax

; 2443 : }

	ret	0
$LN4@positive_o:

; 2434 :     } else if( opnd2->kind == EXPR_FLOAT ) {

	cmp	eax, 3
	jne	SHORT $LN2@positive_o

; 2435 :         opnd1->kind = EXPR_FLOAT;

	mov	DWORD PTR [rcx+60], eax

; 2436 :         opnd1->float_tok = opnd2->float_tok;

	mov	rax, QWORD PTR [rdx+16]
	mov	QWORD PTR [rcx+16], rax

; 2437 :         opnd1->negative = opnd2->negative;

	mov	eax, DWORD PTR [rdx+72]
	xor	eax, DWORD PTR [rcx+72]
	and	eax, 32					; 00000020H
	xor	DWORD PTR [rcx+72], eax

; 2441 :     }
; 2442 :     return( NOT_ERROR );

	xor	eax, eax

; 2443 : }

	ret	0
$LN2@positive_o:

; 2438 :     } else {
; 2439 :         DebugMsg(("positive_op: error 1\n"));
; 2440 :         return( fnEmitErr( CONSTANT_EXPECTED ) );

	mov	ecx, 65					; 00000041H

; 2443 : }

	rex_jmp	QWORD PTR fnEmitErr
positive_op ENDP
; Function compile flags: /Ogtpy
opnd1$ = 8
opnd2$ = 16
negative_op PROC NEAR

; 2448 :     DebugMsg1(("negative_op: value=%" I64_SPEC "X high=%" I64_SPEC "X\n", opnd2->llvalue, opnd2->hlvalue ));
; 2449 :     /*
; 2450 :      * The formats allowed are:
; 2451 :      *        - constant
; 2452 :      *        - float
; 2453 :      */
; 2454 : 
; 2455 :     MakeConst( opnd2 );

	xor	r10d, r10d
	cmp	DWORD PTR [rdx+60], 1
	mov	r8, rcx
	jne	SHORT $LN18@negative_o
	mov	eax, DWORD PTR [rdx+72]
	test	al, 1
	jne	SHORT $LN18@negative_o
	mov	rcx, QWORD PTR [rdx+80]
	test	rcx, rcx
	je	SHORT $LN17@negative_o
	cmp	DWORD PTR Parse_Pass, r10d
	ja	SHORT $LN18@negative_o
	mov	r9d, DWORD PTR [rcx+40]
	test	r9d, r9d
	jne	SHORT $LN13@negative_o
	cmp	DWORD PTR [rdx+56], -2
	je	SHORT $LN14@negative_o
$LN13@negative_o:
	cmp	r9d, 2
	jne	SHORT $LN18@negative_o
	test	BYTE PTR [rcx+55], 8
	je	SHORT $LN18@negative_o
	test	al, 4
	je	SHORT $LN18@negative_o
$LN14@negative_o:
	mov	DWORD PTR [rdx], 1
$LN17@negative_o:
	mov	rcx, QWORD PTR [rdx+88]
	mov	QWORD PTR [rdx+40], r10
	test	rcx, rcx
	je	SHORT $LN9@negative_o
	cmp	DWORD PTR [rcx+40], 6
	jne	SHORT $LN18@negative_o
$LN9@negative_o:
	cmp	QWORD PTR [rdx+48], r10
	jne	SHORT $LN18@negative_o
	and	eax, -3					; fffffffdH
	mov	DWORD PTR [rdx+56], -2
	mov	DWORD PTR [rdx+60], r10d
	mov	DWORD PTR [rdx+72], eax
	mov	DWORD PTR [rdx+64], 192			; 000000c0H
$LN18@negative_o:

; 2456 :     if( opnd2->kind == EXPR_CONST ) {

	mov	eax, DWORD PTR [rdx+60]
	test	eax, eax
	jne	SHORT $LN5@negative_o

; 2457 :         opnd1->kind = EXPR_CONST;

	mov	DWORD PTR [r8+60], r10d

; 2458 :         opnd1->llvalue = -opnd2->llvalue;

	mov	rax, QWORD PTR [rdx]
	neg	rax
	mov	QWORD PTR [r8], rax

; 2459 :         /* v2.06: the unary '-' operator is to work with
; 2460 :          * magnitudes > 64-bit. Current implementation is
; 2461 :          * a bit hackish.
; 2462 :          */
; 2463 :         if ( opnd2->hlvalue )

	mov	rcx, QWORD PTR [rdx+8]
	test	rcx, rcx
	je	SHORT $LN4@negative_o

; 2464 :             opnd1->hlvalue = -opnd2->hlvalue - 1;

	mov	rax, -1
	sub	rax, rcx
	mov	QWORD PTR [r8+8], rax

; 2465 :         opnd1->negative = 1 - opnd2->negative; /* ??? supposed to be used for EXPR_FLOAT only! */

	jmp	SHORT $LN4@negative_o
$LN5@negative_o:

; 2466 :     } else if( opnd2->kind == EXPR_FLOAT ) {

	cmp	eax, 3
	jne	SHORT $LN2@negative_o

; 2467 :         opnd1->kind = EXPR_FLOAT;

	mov	DWORD PTR [r8+60], eax

; 2468 :         opnd1->float_tok = opnd2->float_tok;

	mov	rax, QWORD PTR [rdx+16]
	mov	QWORD PTR [r8+16], rax
$LN4@negative_o:

; 2469 :         opnd1->negative = 1 - opnd2->negative;

	mov	eax, DWORD PTR [rdx+72]
	mov	ecx, -1					; ffffffffH
	shr	eax, 5
	and	eax, 1
	sub	ecx, eax
	shl	ecx, 5
	xor	ecx, DWORD PTR [r8+72]
	and	ecx, 32					; 00000020H
	xor	DWORD PTR [r8+72], ecx

; 2473 :     }
; 2474 :     return( NOT_ERROR );

	xor	eax, eax

; 2475 : }

	ret	0
$LN2@negative_o:

; 2470 :     } else {
; 2471 :         DebugMsg(("negative_op: unexpected opnd2.kind=%d\n", opnd2->kind ));
; 2472 :         return( fnEmitErr( CONSTANT_EXPECTED ) );

	mov	ecx, 65					; 00000041H

; 2475 : }

	rex_jmp	QWORD PTR fnEmitErr
negative_op ENDP
_TEXT	ENDS
xdata	SEGMENT
$unwind$CheckAssume DD 020601H
	DD	030023206H
xdata	ENDS
pdata	SEGMENT
$pdata$CheckAssume DD @imagerel(CheckAssume#)
	DD	@imagerel(CheckAssume#+186)
	DD	@imagerel($unwind$CheckAssume#)
; Function compile flags: /Ogtpy
pdata	ENDS
_TEXT	SEGMENT
opnd$ = 48
CheckAssume PROC NEAR

; 2482 : {

	push	rbx
	sub	rsp, 32					; 00000020H

; 2483 :     struct asym *sym = NULL;
; 2484 : 
; 2485 : #if 1 /* v2.10: see regression test ptr2.asm */
; 2486 :     if ( opnd->explicit ) { /* perhaps check mem_type instead of explicit */

	test	BYTE PTR [rcx+72], 2
	mov	rbx, rcx
	je	SHORT $LN10@CheckAssum

; 2487 :         if ( opnd->type && opnd->type->mem_type == MT_PTR ) {

	mov	rcx, QWORD PTR [rcx+96]
	test	rcx, rcx
	je	SHORT $LN10@CheckAssum
	cmp	DWORD PTR [rcx+44], 195			; 000000c3H
	jne	SHORT $LN10@CheckAssum

; 2488 :             DebugMsg1(( "CheckAssume(%s, MT_PTR type=>%s< )\n", opnd->type->name ));
; 2489 :             if ( opnd->type->is_ptr == 1 ) { /* dereference only if indirection is 1 */

	cmp	BYTE PTR [rcx+53], 1
	jne	SHORT $LN10@CheckAssum

; 2490 :                 opnd->mem_type = opnd->type->ptr_memtype;

	movzx	eax, BYTE PTR [rcx+54]
	mov	DWORD PTR [rbx+64], eax

; 2491 :                 opnd->type = opnd->type->target_type;

	mov	rax, QWORD PTR [rcx+56]
	mov	QWORD PTR [rbx+96], rax

; 2538 :         }
; 2539 :     }
; 2540 : }

	add	rsp, 32					; 00000020H
	pop	rbx
	ret	0
$LN10@CheckAssum:

; 2492 :                 return; /* ignore assumes in this case */
; 2493 :             }
; 2494 :         }
; 2495 :     }
; 2496 : #endif
; 2497 :     /* in jwasm < v2.10, the idx_reg had higher priority than base_reg.
; 2498 :      * However, the base reg is supposed to have a higher priority.
; 2499 :      * This wasn't fully clear, because in Masm 6, if no register has
; 2500 :      * a scaling factor, the second one becomes base - something that
; 2501 :      * HJWasm didn't do, unless -Zg was set.
; 2502 :      * Since v2.10, HJWasm behaves like Masm v6+: base and index registers
; 2503 :      * are swapped, and assume for base has higher priority than assume for
; 2504 :      * index.
; 2505 :      */
; 2506 :     if ( opnd->base_reg ) {

	mov	rax, QWORD PTR [rbx+24]
	test	rax, rax
	je	SHORT $LN16@CheckAssum

; 2507 :         sym = GetStdAssumeEx( opnd->base_reg->bytval );

	movzx	ecx, BYTE PTR [rax+1]
	call	GetStdAssumeEx

; 2508 :     }
; 2509 :     if (!sym && opnd->idx_reg ) {

	test	rax, rax
	mov	r11, rax
	jne	SHORT $LN15@CheckAssum
$LN16@CheckAssum:
	mov	rax, QWORD PTR [rbx+32]
	test	rax, rax
	je	SHORT $LN1@CheckAssum

; 2510 :         sym = GetStdAssumeEx( opnd->idx_reg->bytval );

	movzx	ecx, BYTE PTR [rax+1]
	call	GetStdAssumeEx

; 2511 :     }
; 2512 :     if ( sym ) {

	test	rax, rax
	mov	r11, rax
	je	SHORT $LN1@CheckAssum
$LN15@CheckAssum:

; 2513 :       if ( opnd->type != NULL ){ 
; 2514 :         DebugMsg1(( "CheckAssume(%s, type=>%s<, mbr=>%s<): assume=%s [memtype=%X isptr=%u type=%s target_type=%s ptr_memt=%X]\n",
; 2515 :                    GetResWName( ( opnd->idx_reg ? opnd->idx_reg->tokval : opnd->base_reg->tokval ), NULL ),
; 2516 :                    opnd->type ? opnd->type->name : "NULL",
; 2517 :                    opnd->mbr ? opnd->mbr->name : "NULL",
; 2518 :                    sym->name, sym->mem_type, sym->is_ptr,
; 2519 :                    sym->type ? sym->type->name : "NULL",
; 2520 :                    sym->target_type ? sym->target_type->name : "NULL",
; 2521 :                    sym->ptr_memtype ));
; 2522 :       }
; 2523 :         /* v2.08: skip ASSUMEd type if type or mbr is set */
; 2524 :         //if ( opnd->type || opnd->mbr )
; 2525 :         //    return;
; 2526 :         /* skip "alias" types */
; 2527 :         /* v2.05: obsolete */
; 2528 :         //for ( ; sym->type; sym = sym->type );
; 2529 :         /* v2.05: new */
; 2530 :         if ( sym->mem_type == MT_TYPE )

	cmp	DWORD PTR [r11+44], 196			; 000000c4H
	jne	SHORT $LN5@CheckAssum

; 2531 :             opnd->type = sym->type;

	mov	rax, QWORD PTR [r11+88]
	mov	QWORD PTR [rbx+96], rax

; 2538 :         }
; 2539 :     }
; 2540 : }

	add	rsp, 32					; 00000020H
	pop	rbx
	ret	0
$LN5@CheckAssum:

; 2532 :         else if ( sym->is_ptr == 1 ) { /* v2.10: only dereference if indirection is 1 */

	cmp	BYTE PTR [r11+53], 1
	jne	SHORT $LN1@CheckAssum

; 2533 :             opnd->type = sym->target_type;

	mov	rax, QWORD PTR [r11+56]
	mov	QWORD PTR [rbx+96], rax

; 2534 :             if ( sym->target_type )

	mov	rax, QWORD PTR [r11+56]
	test	rax, rax
	je	SHORT $LN2@CheckAssum

; 2535 :                 opnd->mem_type = sym->target_type->mem_type;

	mov	eax, DWORD PTR [rax+44]

; 2536 :             else
; 2537 :                 opnd->mem_type = sym->ptr_memtype;

	mov	DWORD PTR [rbx+64], eax

; 2538 :         }
; 2539 :     }
; 2540 : }

	add	rsp, 32					; 00000020H
	pop	rbx
	ret	0
$LN2@CheckAssum:

; 2536 :             else
; 2537 :                 opnd->mem_type = sym->ptr_memtype;

	movzx	eax, BYTE PTR [r11+54]
	mov	DWORD PTR [rbx+64], eax
$LN1@CheckAssum:

; 2538 :         }
; 2539 :     }
; 2540 : }

	add	rsp, 32					; 00000020H
	pop	rbx
	ret	0
CheckAssume ENDP
; Function compile flags: /Ogtpy
opnd1$ = 8
opnd2$ = 16
check_streg PROC NEAR

; 2547 :     if ( opnd1->scale > 0 ) {

	movzx	eax, BYTE PTR [rcx+68]
	test	al, al
	je	SHORT $LN2@check_stre

; 2548 :         return( fnEmitErr( INVALID_USE_OF_REGISTER ) );

	mov	ecx, 170				; 000000aaH

; 2556 : }

	rex_jmp	QWORD PTR fnEmitErr
$LN2@check_stre:

; 2549 :     }
; 2550 :     opnd1->scale++; /* make sure there's only ONE bracket pair */

	inc	al
	mov	BYTE PTR [rcx+68], al

; 2551 :     if ( opnd2->kind != EXPR_CONST ) {

	cmp	DWORD PTR [rdx+60], 0
	je	SHORT $LN1@check_stre

; 2552 :         return( fnEmitErr( INVALID_COPROCESSOR_REGISTER ) );

	mov	ecx, 252				; 000000fcH

; 2556 : }

	rex_jmp	QWORD PTR fnEmitErr
$LN1@check_stre:

; 2553 :     }
; 2554 :     opnd1->st_idx = opnd2->value;

	mov	eax, DWORD PTR [rdx]
	mov	DWORD PTR [rcx], eax

; 2555 :     return( NOT_ERROR );

	xor	eax, eax

; 2556 : }

	ret	0
check_streg ENDP
_TEXT	ENDS
xdata	SEGMENT
$unwind$cmp_types DD 071a01H
	DD	08641aH
	DD	075415H
	DD	063410H
	DD	04204H
xdata	ENDS
pdata	SEGMENT
$pdata$cmp_types DD @imagerel(cmp_types#)
	DD	@imagerel(cmp_types#+46)
	DD	@imagerel($unwind$cmp_types#)
pdata	ENDS
xdata	SEGMENT
$chain$3$cmp_types DD 020521H
	DD	097405H
	DD	@imagerel(cmp_types#)
	DD	@imagerel(cmp_types#+46)
	DD	@imagerel($unwind$cmp_types#)
xdata	ENDS
pdata	SEGMENT
$pdata$3$cmp_types DD @imagerel(cmp_types#+46)
	DD	@imagerel(cmp_types#+135)
	DD	@imagerel($chain$3$cmp_types#)
pdata	ENDS
xdata	SEGMENT
$chain$4$cmp_types DD 021H
	DD	@imagerel(cmp_types#)
	DD	@imagerel(cmp_types#+46)
	DD	@imagerel($unwind$cmp_types#)
xdata	ENDS
pdata	SEGMENT
$pdata$4$cmp_types DD @imagerel(cmp_types#+135)
	DD	@imagerel(cmp_types#+231)
	DD	@imagerel($chain$4$cmp_types#)
; Function compile flags: /Ogtpy
pdata	ENDS
_TEXT	SEGMENT
opnd1$ = 48
opnd2$ = 56
trueval$ = 64
cmp_types PROC NEAR

; 2562 : {

	sub	rsp, 40					; 00000028H

; 2563 :     struct asym *type1;
; 2564 :     struct asym *type2;
; 2565 : 
; 2566 :     /* v2.10: special handling of pointer types. */
; 2567 :     //if ( opnd1->mem_type == MT_PTR && opnd2->mem_type == MT_PTR && opnd1->type && opnd2->type ) {
; 2568 :     if ( opnd1->mem_type == MT_PTR && opnd2->mem_type == MT_PTR ) {

	cmp	DWORD PTR [rcx+64], 195			; 000000c3H
	mov	QWORD PTR [rsp+48], rbx
	mov	QWORD PTR [rsp+56], rbp
	mov	QWORD PTR [rsp+64], rsi
	mov	ebx, r8d
	mov	rbp, rdx
	mov	rsi, rcx
	jne	SHORT $LN4@cmp_types
	cmp	DWORD PTR [rdx+64], 195			; 000000c3H
	jne	SHORT $LN4@cmp_types
	mov	QWORD PTR [rsp+72], rdi

; 2569 :         /**/myassert( ( opnd1->type || opnd1->type_tok ) && ( opnd2->type || opnd2->type_tok ) );
; 2570 :         type1 = ( opnd1->type ? opnd1->type : SymSearch( opnd1->type_tok->string_ptr ) );

	mov	rdi, QWORD PTR [rcx+96]
	test	rdi, rdi
	jne	SHORT $LN8@cmp_types
	mov	rcx, QWORD PTR [rcx+40]
	mov	rcx, QWORD PTR [rcx+8]
	call	SymFind
	mov	rdi, rax
$LN8@cmp_types:

; 2571 :         type2 = ( opnd2->type ? opnd2->type : SymSearch( opnd2->type_tok->string_ptr ) );

	mov	rax, QWORD PTR [rbp+96]
	test	rax, rax
	jne	SHORT $LN10@cmp_types
	mov	rcx, QWORD PTR [rbp+40]
	mov	rcx, QWORD PTR [rcx+8]
	call	SymFind
$LN10@cmp_types:

; 2572 :         //opnd1->value64 = ( ( type1->is_ptr == type2->is_ptr &&
; 2573 :         opnd1->value64 = ( ( type1->is_ptr == type2->is_ptr &&
; 2574 :                             type1->ptr_memtype == type2->ptr_memtype &&
; 2575 :                             type1->target_type == type2->target_type ) ? trueval : ~trueval );

	movzx	ecx, BYTE PTR [rax+53]
	cmp	BYTE PTR [rdi+53], cl
	jne	SHORT $LN11@cmp_types
	movzx	ecx, BYTE PTR [rax+54]
	cmp	BYTE PTR [rdi+54], cl
	jne	SHORT $LN11@cmp_types
	mov	rax, QWORD PTR [rax+56]
	cmp	QWORD PTR [rdi+56], rax
	je	SHORT $LN12@cmp_types
$LN11@cmp_types:
	not	ebx
$LN12@cmp_types:
	mov	rdi, QWORD PTR [rsp+72]

; 2576 :         DebugMsg1(("cmp_types: MT_PTR-MT_PTR is_ptr=%u-%u ptr_memtype=%X-%X target_type=%X-%X\n",
; 2577 :                    type1->is_ptr, type2->is_ptr,
; 2578 :                    type1->ptr_memtype, type2->ptr_memtype,
; 2579 :                    type1->target_type, type2->target_type ));
; 2580 :     } else {

	jmp	SHORT $LN14@cmp_types
$LN4@cmp_types:

; 2581 :         DebugMsg1(("cmp_types: memtype=%X-%X type=%X-%X\n",
; 2582 :                    opnd1->mem_type, opnd2->mem_type, opnd1->type, opnd2->type ));
; 2583 :         /* v2.09: include type member in comparison, but ignore typedef types */
; 2584 :         if ( opnd1->type && opnd1->type->typekind == TYPE_TYPEDEF && opnd1->type->is_ptr == 0 )

	mov	rax, QWORD PTR [rcx+96]
	xor	ecx, ecx
	test	rax, rax
	je	SHORT $LN2@cmp_types
	cmp	BYTE PTR [rax+74], 3
	jne	SHORT $LN2@cmp_types
	cmp	BYTE PTR [rax+53], cl
	jne	SHORT $LN2@cmp_types

; 2585 :             opnd1->type = NULL;

	mov	QWORD PTR [rsi+96], rcx
$LN2@cmp_types:

; 2586 :         if ( opnd2->type && opnd2->type->typekind == TYPE_TYPEDEF && opnd2->type->is_ptr == 0 )

	mov	rax, QWORD PTR [rdx+96]
	test	rax, rax
	je	SHORT $LN1@cmp_types
	cmp	BYTE PTR [rax+74], 3
	jne	SHORT $LN1@cmp_types
	cmp	BYTE PTR [rax+53], cl
	jne	SHORT $LN1@cmp_types

; 2587 :             opnd2->type = NULL;

	mov	QWORD PTR [rdx+96], rcx
$LN1@cmp_types:

; 2588 :         opnd1->value64 = ( ( opnd1->mem_type == opnd2->mem_type &&
; 2589 :                             opnd1->type == opnd2->type ) ? trueval : ~trueval );

	mov	eax, DWORD PTR [rdx+64]
	cmp	DWORD PTR [rsi+64], eax
	jne	SHORT $LN13@cmp_types
	mov	rax, QWORD PTR [rdx+96]
	cmp	QWORD PTR [rsi+96], rax
	je	SHORT $LN14@cmp_types
$LN13@cmp_types:
	not	ebx
$LN14@cmp_types:
	mov	rbp, QWORD PTR [rsp+56]
	movsxd	rax, ebx
	mov	rbx, QWORD PTR [rsp+48]
	mov	QWORD PTR [rsi], rax
	mov	rsi, QWORD PTR [rsp+64]

; 2590 :     }
; 2591 : }

	add	rsp, 40					; 00000028H
	ret	0
cmp_types ENDP
_TEXT	ENDS
xdata	SEGMENT
$unwind$calculate DD 091801H
	DD	0d7418H
	DD	0c6413H
	DD	0b540eH
	DD	0a3409H
	DD	08204H
xdata	ENDS
pdata	SEGMENT
$pdata$calculate DD @imagerel(calculate#)
	DD	@imagerel(calculate#+95)
	DD	@imagerel($unwind$calculate#)
pdata	ENDS
xdata	SEGMENT
$chain$4$calculate DD 020521H
	DD	06e405H
	DD	@imagerel(calculate#)
	DD	@imagerel(calculate#+95)
	DD	@imagerel($unwind$calculate#)
xdata	ENDS
pdata	SEGMENT
$pdata$4$calculate DD @imagerel(calculate#+95)
	DD	@imagerel(calculate#+1733)
	DD	@imagerel($chain$4$calculate#)
pdata	ENDS
xdata	SEGMENT
$chain$6$calculate DD 040d21H
	DD	07d40dH
	DD	08c405H
	DD	@imagerel(calculate#+95)
	DD	@imagerel(calculate#+1733)
	DD	@imagerel($chain$4$calculate#)
xdata	ENDS
pdata	SEGMENT
$pdata$6$calculate DD @imagerel(calculate#+1733)
	DD	@imagerel(calculate#+1913)
	DD	@imagerel($chain$6$calculate#)
pdata	ENDS
xdata	SEGMENT
$chain$7$calculate DD 021H
	DD	@imagerel(calculate#+95)
	DD	@imagerel(calculate#+1733)
	DD	@imagerel($chain$4$calculate#)
xdata	ENDS
pdata	SEGMENT
$pdata$7$calculate DD @imagerel(calculate#+1913)
	DD	@imagerel(calculate#+1918)
	DD	@imagerel($chain$7$calculate#)
pdata	ENDS
xdata	SEGMENT
$chain$8$calculate DD 021H
	DD	@imagerel(calculate#)
	DD	@imagerel(calculate#+95)
	DD	@imagerel($unwind$calculate#)
xdata	ENDS
pdata	SEGMENT
$pdata$8$calculate DD @imagerel(calculate#+1918)
	DD	@imagerel(calculate#+1943)
	DD	@imagerel($chain$8$calculate#)
pdata	ENDS
xdata	SEGMENT
$chain$9$calculate DD 060021H
	DD	06e400H
	DD	07d400H
	DD	08c400H
	DD	@imagerel(calculate#)
	DD	@imagerel(calculate#+95)
	DD	@imagerel($unwind$calculate#)
xdata	ENDS
pdata	SEGMENT
$pdata$9$calculate DD @imagerel(calculate#+1943)
	DD	@imagerel(calculate#+2079)
	DD	@imagerel($chain$9$calculate#)
pdata	ENDS
xdata	SEGMENT
$chain$10$calculate DD 020021H
	DD	06e400H
	DD	@imagerel(calculate#)
	DD	@imagerel(calculate#+95)
	DD	@imagerel($unwind$calculate#)
xdata	ENDS
pdata	SEGMENT
$pdata$10$calculate DD @imagerel(calculate#+2079)
	DD	@imagerel(calculate#+2260)
	DD	@imagerel($chain$10$calculate#)
; Function compile flags: /Ogtpy
pdata	ENDS
_TEXT	SEGMENT
opnd1$ = 80
opnd2$ = 88
oper$ = 96
calculate PROC NEAR

; 2615 : {

	sub	rsp, 72					; 00000048H
	mov	QWORD PTR [rsp+80], rbx
	mov	QWORD PTR [rsp+88], rbp
	mov	QWORD PTR [rsp+96], rsi
	mov	QWORD PTR [rsp+104], rdi

; 2616 :     int_32              temp;
; 2617 :     struct asym         *sym;
; 2618 :     char                *name;
; 2619 : 
; 2620 :     /* avoid to use the <string> member once it's part of an expression!
; 2621 :      * the <value> member is the one to be used then.
; 2622 :      * test case: db "a"+80h
; 2623 :      * v2.08: first: this is too early; second: the current operand is opnd2.
; 2624 :      * third: the space is also used by float_tok member, which cannot be cleared.
; 2625 :      * probably the best solution - at calculate()'s end:
; 2626 :      * if ( opnd1->kind == EXPR_CONST ) opnd1->quoted_string = NULL;
; 2627 :      */
; 2628 :     opnd1->quoted_string = NULL;

	xor	edi, edi
	mov	rsi, rdx
	mov	QWORD PTR [rcx+16], rdi

; 2629 : 
; 2630 :     /* v2.11: added check to ensure constant fits in 64-bits */
; 2631 :     if ( opnd2->hlvalue ) {

	mov	rdx, QWORD PTR [rdx+8]
	mov	rbp, r8
	test	rdx, rdx
	mov	rbx, rcx
	je	SHORT $LN123@calculate

; 2632 :         /* opattr and unary +/- are ok, they can handle 128-bits */
; 2633 :         if ( opnd2->is_opattr || ( ( oper->token == '+' || oper->token == '-' ) && oper->specval == UNARY_PLUSMINUS ) )

	test	BYTE PTR [rsi+72], 16
	jne	SHORT $LN123@calculate
	movzx	eax, BYTE PTR [r8]
	cmp	al, 43					; 0000002bH
	je	SHORT $LN122@calculate
	cmp	al, 45					; 0000002dH
	jne	SHORT $LN124@calculate
$LN122@calculate:
	cmp	BYTE PTR [r8+1], dil
	je	SHORT $LN123@calculate
$LN124@calculate:

; 2634 :             ;
; 2635 :         else {
; 2636 :             DebugMsg(("%u calculate(%s): value too large\n", evallvl, oper->string_ptr ));
; 2637 :             return( fnEmitErr( CONSTANT_VALUE_TOO_LARGE_EX, opnd2->hlvalue, opnd2->value64 ) );

	mov	r8, QWORD PTR [rsi]
	mov	ecx, 273				; 00000111H
	call	QWORD PTR fnEmitErr
	jmp	$LN126@calculate
$LN123@calculate:

; 2638 :         }
; 2639 :     }
; 2640 : 
; 2641 :     switch( oper->token ) {

	movzx	eax, BYTE PTR [r8]
	mov	QWORD PTR [rsp+48], r14
	add	eax, -4
	cmp	eax, 87					; 00000057H
	ja	$LN1@calculate
	lea	r14, OFFSET FLAT:__ImageBase
	cdqe
	movzx	eax, BYTE PTR $LN152@calculate[r14+rax]
	mov	ecx, DWORD PTR $LN153@calculate[r14+rax*4]
	add	rcx, r14
	jmp	rcx
$LN118@calculate:

; 2642 :     case T_OP_SQ_BRACKET:
; 2643 :         /* v2.07: the ASSUMEs are now checked only when operator [] is done.
; 2644 :          * this is compatible with Masm:
; 2645 :          *   assume ebx:ptr <struct>
; 2646 :          *   mov eax, [ebx.<member>]             ;is to fail
; 2647 :          *   mov eax, [ebx.<struct>.<member>]    ;is to be ok
; 2648 :          * previously both variants were accepted by jwasm.
; 2649 :          */
; 2650 :         if ( opnd2->assumecheck == TRUE ) {

	mov	eax, DWORD PTR [rsi+72]
	test	al, 64					; 00000040H
	je	SHORT $LN116@calculate

; 2651 :             opnd2->assumecheck = FALSE;   /* check ONE time only! */

	and	eax, -65				; ffffffbfH
	mov	DWORD PTR [rsi+72], eax

; 2652 :             if ( opnd1->sym == NULL ) /* v2.10: added; see assume10.asm */

	cmp	QWORD PTR [rbx+80], rdi
	jne	SHORT $LN116@calculate

; 2653 :                 CheckAssume( opnd2 );

	mov	rcx, rsi
	call	CheckAssume
$LN116@calculate:

; 2654 :         }
; 2655 : 
; 2656 :         if ( opnd1->kind == EXPR_EMPTY ) {

	cmp	DWORD PTR [rbx+60], -2
	jne	SHORT $LN115@calculate

; 2657 :             DebugMsg1(("%u calculate(%s): single item\n", evallvl, oper->string_ptr ));
; 2658 :             TokenAssign( opnd1, opnd2 );

	mov	rcx, rbx
	mov	rdx, rsi
	mov	r8d, 96					; 00000060H
	call	memcpy

; 2659 :             opnd1->type = opnd2->type;
; 2660 :             if ( opnd1->is_type && opnd1->kind == EXPR_CONST )

	mov	eax, DWORD PTR [rbx+72]
	mov	rdx, QWORD PTR [rsi+96]
	test	al, 8
	mov	QWORD PTR [rbx+96], rdx
	je	$LN119@calculate
	cmp	DWORD PTR [rbx+60], edi
	jne	$LN119@calculate

; 2661 :                 opnd1->is_type = 0;

	and	eax, -9					; fffffff7H
	mov	DWORD PTR [rbx+72], eax

; 3175 :     } /* end switch( oper->token ) */
; 3176 : 
; 3177 : #ifdef DEBUG_OUT
; 3178 :     if ( opnd1->hlvalue ) {
; 3179 :         DebugMsg1(("%u calculate(%s) exit, ok kind=%d value=0x%" I64_SPEC "X_%016" I64_SPEC "X memtype=0x%X indirect=%u type=>%s<\n",
; 3180 :                    evallvl,
; 3181 :                    oper->string_ptr,
; 3182 :                    opnd1->kind,
; 3183 :                    opnd1->hlvalue, opnd1->llvalue,
; 3184 :                    opnd1->mem_type,
; 3185 :                    opnd1->indirect, opnd1->type ? opnd1->type->name : "NULL" ));
; 3186 :     } else if ( opnd1->hvalue ) {
; 3187 :         DebugMsg1(("%u calculate(%s) exit, ok kind=%d value=%" I64_SPEC"d(0x%" I64_SPEC "X) memtype=0x%X indirect=%u type=>%s<\n",
; 3188 :                    evallvl,
; 3189 :                    oper->string_ptr,
; 3190 :                    opnd1->kind,
; 3191 :                    opnd1->llvalue, opnd1->llvalue,
; 3192 :                    opnd1->mem_type,
; 3193 :                    opnd1->indirect, opnd1->type ? opnd1->type->name : "NULL" ));
; 3194 :     } else {
; 3195 :         DebugMsg1(("%u calculate(%s) exit, ok kind=%d value=%d(0x%X) memtype=0x%X ind=%u exp=%u type=%s mbr=%s\n",
; 3196 :                    evallvl,
; 3197 :                    oper->string_ptr,
; 3198 :                    opnd1->kind,
; 3199 :                    opnd1->value, opnd1->value,
; 3200 :                    opnd1->mem_type,
; 3201 :                    opnd1->indirect, opnd1->explicit,
; 3202 :                    opnd1->type ? opnd1->type->name : "NULL",
; 3203 :                    opnd1->mbr ? opnd1->mbr->name : "NULL" ));
; 3204 :     }
; 3205 : #endif
; 3206 :     return( NOT_ERROR );

	xor	eax, eax
	jmp	$LN154@calculate
$LN115@calculate:

; 2662 :             break;
; 2663 :         }
; 2664 : 
; 2665 :         /* v2.03: make HJWasm reject syntax variants
; 2666 :          * "mov eax, DWORD [EBX]"
; 2667 :          * "mov eax, DWORD [var_name]"
; 2668 :          * variants still valid:
; 2669 :          * "mov eax, DWORD [WORD]"
; 2670 :          * "mov eax, DWORD [4]"
; 2671 :          * "mov eax, [DWORD][EBX]"
; 2672 :          */
; 2673 :         /* v2.08: structure/union names are ok: mov eax, S1[ebx] */
; 2674 :         //if ( opnd1->is_type == TRUE &&
; 2675 :         if ( opnd1->is_type == TRUE && opnd1->type == NULL &&
; 2676 :             (opnd2->kind == EXPR_ADDR || opnd2->kind == EXPR_REG ) ) {

	test	BYTE PTR [rbx+72], 8
	je	SHORT $LN113@calculate
	cmp	QWORD PTR [rbx+96], rdi
	jne	SHORT $LN113@calculate
	mov	eax, DWORD PTR [rsi+60]
	cmp	eax, 1
	je	SHORT $LN112@calculate
	cmp	eax, 2
	jne	SHORT $LN113@calculate
$LN112@calculate:

; 2677 :             DebugMsg(("calculate(%s): incompatible usage of (simple) type\n", oper->string_ptr ));
; 2678 :             return( fnEmitErr( SYNTAX_ERROR_IN_EXPRESSION ) );

	mov	ecx, 264				; 00000108H
	call	QWORD PTR fnEmitErr
	jmp	$LN154@calculate
$LN113@calculate:

; 2679 :         }
; 2680 : 
; 2681 :         /* v2.08: moved here from get_operand() */
; 2682 :         if ( opnd1->base_reg && opnd1->base_reg->tokval == T_ST )

	mov	rax, QWORD PTR [rbx+24]
	test	rax, rax
	je	SHORT $LN111@calculate
	cmp	DWORD PTR [rax+16], 31
	jne	SHORT $LN111@calculate

; 2683 :             return( check_streg( opnd1, opnd2 ) );

	mov	rdx, rsi
	mov	rcx, rbx
	call	check_streg
	jmp	$LN154@calculate
$LN111@calculate:

; 2684 : 
; 2685 : #ifdef DEBUG_OUT
; 2686 :         if ( plus_op( opnd1, opnd2 ) == ERROR )
; 2687 :             return( ERROR );
; 2688 :         break;
; 2689 : #else
; 2690 :         return( plus_op( opnd1, opnd2 ) );

	mov	rdx, rsi
	mov	rcx, rbx
	call	plus_op
	jmp	$LN154@calculate
$LN110@calculate:

; 2691 : #endif
; 2692 :     case T_OP_BRACKET:
; 2693 : 
; 2694 :         if ( opnd1->kind == EXPR_EMPTY ) {

	cmp	DWORD PTR [rbx+60], -2
	jne	SHORT $LN109@calculate

; 2695 :             DebugMsg1(("%u calculate(%s): single item\n", evallvl, oper->string_ptr ));
; 2696 :             TokenAssign( opnd1, opnd2 );

	mov	rcx, rbx
	mov	rdx, rsi
	mov	r8d, 96					; 00000060H
	call	memcpy

; 2697 :             opnd1->type = opnd2->type;

	mov	rdx, QWORD PTR [rsi+96]

; 3175 :     } /* end switch( oper->token ) */
; 3176 : 
; 3177 : #ifdef DEBUG_OUT
; 3178 :     if ( opnd1->hlvalue ) {
; 3179 :         DebugMsg1(("%u calculate(%s) exit, ok kind=%d value=0x%" I64_SPEC "X_%016" I64_SPEC "X memtype=0x%X indirect=%u type=>%s<\n",
; 3180 :                    evallvl,
; 3181 :                    oper->string_ptr,
; 3182 :                    opnd1->kind,
; 3183 :                    opnd1->hlvalue, opnd1->llvalue,
; 3184 :                    opnd1->mem_type,
; 3185 :                    opnd1->indirect, opnd1->type ? opnd1->type->name : "NULL" ));
; 3186 :     } else if ( opnd1->hvalue ) {
; 3187 :         DebugMsg1(("%u calculate(%s) exit, ok kind=%d value=%" I64_SPEC"d(0x%" I64_SPEC "X) memtype=0x%X indirect=%u type=>%s<\n",
; 3188 :                    evallvl,
; 3189 :                    oper->string_ptr,
; 3190 :                    opnd1->kind,
; 3191 :                    opnd1->llvalue, opnd1->llvalue,
; 3192 :                    opnd1->mem_type,
; 3193 :                    opnd1->indirect, opnd1->type ? opnd1->type->name : "NULL" ));
; 3194 :     } else {
; 3195 :         DebugMsg1(("%u calculate(%s) exit, ok kind=%d value=%d(0x%X) memtype=0x%X ind=%u exp=%u type=%s mbr=%s\n",
; 3196 :                    evallvl,
; 3197 :                    oper->string_ptr,
; 3198 :                    opnd1->kind,
; 3199 :                    opnd1->value, opnd1->value,
; 3200 :                    opnd1->mem_type,
; 3201 :                    opnd1->indirect, opnd1->explicit,
; 3202 :                    opnd1->type ? opnd1->type->name : "NULL",
; 3203 :                    opnd1->mbr ? opnd1->mbr->name : "NULL" ));
; 3204 :     }
; 3205 : #endif
; 3206 :     return( NOT_ERROR );

	xor	eax, eax
	mov	QWORD PTR [rbx+96], rdx
	jmp	$LN154@calculate
$LN109@calculate:

; 2698 :             break;
; 2699 :         }
; 2700 :         /* v2.03: make HJWasm reject syntax variants
; 2701 :          * "mov eax, DWORD (<label>)"
; 2702 :          */
; 2703 :         if ( opnd1->is_type == TRUE && opnd2->kind == EXPR_ADDR ) {

	test	BYTE PTR [rbx+72], 8
	je	SHORT $LN108@calculate
	cmp	DWORD PTR [rsi+60], 1

; 2704 :             DebugMsg(("calculate(%s): incompatible usage of (simple) type\n", oper->string_ptr ));
; 2705 :             return( fnEmitErr( SYNTAX_ERROR_IN_EXPRESSION ) );

	je	SHORT $LN112@calculate
$LN108@calculate:

; 2706 :         }
; 2707 : 
; 2708 :         /* v2.08: moved here from get_operand() */
; 2709 :         if ( opnd1->base_reg && opnd1->base_reg->tokval == T_ST )

	mov	rax, QWORD PTR [rbx+24]
	test	rax, rax
	je	SHORT $LN111@calculate
	cmp	DWORD PTR [rax+16], 31
	jne	SHORT $LN111@calculate
	mov	rdx, rsi
	mov	rcx, rbx
	call	check_streg
	jmp	$LN154@calculate
$LN106@calculate:

; 2710 :             return( check_streg( opnd1, opnd2 ) );
; 2711 : 
; 2712 :         DebugMsg1(("calculate(%s): calling plus_op()\n", oper->string_ptr ));
; 2713 : #ifdef DEBUG_OUT
; 2714 :         if ( plus_op( opnd1, opnd2 ) == ERROR )
; 2715 :             return( ERROR );
; 2716 :         break;
; 2717 : #else
; 2718 :         return( plus_op( opnd1, opnd2 ) );
; 2719 : #endif
; 2720 :     case '+':
