; Listing generated by Microsoft (R) Optimizing Compiler Version 14.00.40310.41 

include listing.inc

INCLUDELIB LIBCMT
INCLUDELIB OLDNAMES

PUBLIC	szCVCompiler
_BSS	SEGMENT
$SG2542	DB	01H DUP (?)
$SG2383	DB	01H DUP (?)
$SG2382	DB	01H DUP (?)
$SG2379	DB	01H DUP (?)
_BSS	ENDS
_DATA	SEGMENT
COMM	decoflags:BYTE
COMM	MODULEARCH:BYTE
COMM	broadflags:BYTE
COMM	ZEROLOCALS:BYTE
COMM	evex:BYTE
$SG2356	DB	'usage: HJWasm [ options ] filelist [@env_var]', 0aH, 'Ru'
	DB	'n "HJWasm -?" or "HJWasm -h" for more info', 0aH, 00H
	ORG $+4
$SG2357	DB	'%s: %lu lines, %u passes, %u ms, %u warnings, %u errors', 00H
$SG2358	DB	'HJWasm v2.22, Mar 22 2017', 00H
	ORG $+14
$SG2359	DB	'Masm-compatible assembler.', 0aH, 'Portions Copyright (c'
	DB	') 1992-2002 Sybase, Inc. All Rights Reserved.', 0aH, 'Source '
	DB	'code is available under the Sybase Open Watcom Public License'
	DB	'.', 0aH, 00H
	ORG $+3
$SG2360	DB	'Error', 00H
	ORG $+2
$SG2361	DB	'Warning', 00H
$SG2362	DB	'Fatal error', 00H
	ORG $+4
$SG2363	DB	'readonly', 00H
	ORG $+7
$SG2364	DB	'alignment', 00H
	ORG $+6
$SG2365	DB	'combine', 00H
$SG2366	DB	'segment word size', 00H
	ORG $+2
$SG2367	DB	'class', 00H
	ORG $+6
$SG2368	DB	'characteristics', 00H
$SG2369	DB	'alias', 00H
	ORG $+2
$SG2370	DB	'invalid combination of opcode and operands', 00H
	ORG $+5
$SG2371	DB	'decorator or brace expected', 00H
	ORG $+4
$SG2372	DB	'wrong mask register number', 00H
	ORG $+5
$SG2373	DB	'to many decorators', 00H
	ORG $+5
$SG2374	DB	'mismatch in the number of broadcasting elements', 00H
$SG2375	DB	'z decorator expected', 00H
	ORG $+3
$SG2376	DB	'K register expected', 00H
	ORG $+4
$SG2377	DB	'Embedded rounding is available only with reg-reg op', 00H
	ORG $+4
$SG2378	DB	'Use of zmm register not allowed', 00H
$SG2380	DB	'Value not within allowed range %s', 00H
	ORG $+6
$SG2381	DB	'Invalid associated segment: %s', 00H
	ORG $+1
$SG2384	DB	'Instruction prefix not allowed', 00H
	ORG $+1
$SG2385	DB	'Multiple base registers not allowed', 00H
	ORG $+4
$SG2386	DB	'Instruction or register not accepted in current CPU mode'
	DB	00H
	ORG $+7
$SG2387	DB	'invalid addressing mode with current CPU setting', 00H
	ORG $+7
$SG2388	DB	'Cannot use TR%u-TR%u with current CPU setting', 00H
	ORG $+2
$SG2389	DB	'Must be index or base register', 00H
	ORG $+1
$SG2390	DB	'Multiple index registers not allowed', 00H
	ORG $+3
$SG2391	DB	'Too few bits in RECORD: %s', 00H
	ORG $+5
$SG2392	DB	'Scale factor must be 1, 2, 4 or 8', 00H
	ORG $+6
$SG2393	DB	'Cannot be used as index register: %s', 00H
	ORG $+3
$SG2394	DB	'Base and index register differ in size', 00H
	ORG $+1
$SG2395	DB	'Expecting comma: %s', 00H
	ORG $+4
$SG2396	DB	'ORG needs a constant or local offset', 00H
	ORG $+3
$SG2397	DB	'POP CS is not allowed', 00H
	ORG $+2
$SG2398	DB	'Only MOV can use special register', 00H
	ORG $+6
$SG2399	DB	'Cannot use SHORT with CALL', 00H
	ORG $+5
$SG2400	DB	'Only SHORT jump distance is allowed', 00H
	ORG $+4
$SG2401	DB	'Syntax error', 00H
	ORG $+3
$SG2402	DB	'Prefix must be followed by an instruction', 00H
	ORG $+6
$SG2403	DB	'Syntax error: Unexpected colon', 00H
	ORG $+1
$SG2404	DB	'Operands must be the same size: %u - %u', 00H
$SG2405	DB	'Invalid instruction operands', 00H
	ORG $+3
$SG2406	DB	'Jump distance not possible in current CPU mode', 00H
	ORG $+1
$SG2407	DB	'Immediate data out of range', 00H
	ORG $+4
$SG2408	DB	'Can not use short or near modifiers with this instructio'
	DB	'n', 00H
	ORG $+6
$SG2409	DB	'Jump out of range by %d byte(s)', 00H
$SG2410	DB	'Displacement out of range: 0x%I64X', 00H
	ORG $+5
$SG2411	DB	'Initializer value too large', 00H
	ORG $+4
$SG2412	DB	'Symbol already defined: %s', 00H
	ORG $+5
$SG2413	DB	'Offset magnitude too large for specified size', 00H
	ORG $+2
$SG2414	DB	'Magnitude of offset exceeds 16 bit', 00H
	ORG $+5
$SG2415	DB	'Operand 2 too big', 00H
	ORG $+6
$SG2416	DB	'Operand 1 too small', 00H
	ORG $+4
$SG2417	DB	'Line too long', 00H
	ORG $+2
$SG2418	DB	'Too many tokens in a line', 00H
	ORG $+6
$SG2419	DB	'Symbol not defined : %s.%s', 00H
	ORG $+5
$SG2420	DB	'Expression expected: %s', 00H
$SG2421	DB	'Constant expected', 00H
	ORG $+6
$SG2422	DB	'Constant operand is expected', 00H
	ORG $+3
$SG2423	DB	'.ELSE clause already occured in this .IF block', 00H
	ORG $+1
$SG2424	DB	'Multiple overrides', 00H
	ORG $+5
$SG2425	DB	'Segment, group or segment register expected', 00H
	ORG $+4
$SG2426	DB	'Identifier too long', 00H
	ORG $+4
$SG2427	DB	'Invalid operand size for instruction', 00H
	ORG $+3
$SG2428	DB	'Not supported: %s', 00H
	ORG $+6
$SG2429	DB	'Size not specified, assuming: %s', 00H
	ORG $+7
$SG2430	DB	'Floating-point initializer ignored', 00H
	ORG $+5
$SG2431	DB	'Only SHORT and NEAR jump distance is allowed', 00H
	ORG $+3
$SG2432	DB	'Initializer magnitude too large for specified size', 00H
	ORG $+5
$SG2433	DB	'Segment attribute is defined already: %s', 00H
	ORG $+7
$SG2434	DB	'Segment definition changed: %s, %s', 00H
	ORG $+5
$SG2435	DB	'Class name too long', 00H
	ORG $+4
$SG2436	DB	'Block nesting error: %s', 00H
$SG2437	DB	'Segment attribute is unknown: %s', 00H
	ORG $+7
$SG2438	DB	'Must be in segment block', 00H
	ORG $+7
$SG2439	DB	'Segment not defined: %s', 00H
$SG2440	DB	'Colon is expected', 00H
	ORG $+6
$SG2441	DB	'Invalid qualified type: %s', 00H
	ORG $+5
$SG2442	DB	'Qualified type is expected', 00H
	ORG $+5
$SG2443	DB	'Missing macro argument: iteration %u', 00H
	ORG $+3
$SG2444	DB	'Library name is missing', 00H
$SG2445	DB	'Cannot access label through segment registers: %s', 00H
	ORG $+6
$SG2446	DB	'Line too long after expansion: %40s', 00H
	ORG $+4
$SG2447	DB	'Language type must be specified', 00H
$SG2448	DB	'PROC, MACRO or macro loop directive must precede LOCAL', 00H
	ORG $+1
$SG2449	DB	'Cannot nest procedures', 00H
	ORG $+1
$SG2450	DB	'VARARG requires C calling convention', 00H
	ORG $+3
$SG2451	DB	'Multiple .MODEL directives, .MODEL ignored', 00H
	ORG $+5
$SG2452	DB	'Model is not declared', 00H
	ORG $+2
$SG2453	DB	'Backquote missing: `%s', 00H
	ORG $+1
$SG2454	DB	'COMMENT delimiter expected', 00H
	ORG $+5
$SG2455	DB	'END directive required at end of file', 00H
	ORG $+2
$SG2456	DB	'Nesting level too deep', 00H
	ORG $+1
$SG2457	DB	'Macro nesting level too deep', 00H
	ORG $+3
$SG2458	DB	'Symbol not defined : %s', 00H
$SG2459	DB	'Language attribute conflict: %s', 00H
$SG2460	DB	'No filename specified.', 00H
	ORG $+1
$SG2461	DB	'Out of Memory', 00H
	ORG $+2
$SG2462	DB	'Cannot open file: "%s" [%s]', 00H
	ORG $+4
$SG2463	DB	'Cannot close file: %s [%u]', 00H
	ORG $+5
$SG2464	DB	'File write error: %s [%u]', 00H
	ORG $+6
$SG2465	DB	'Invalid command-line option: %s', 00H
$SG2466	DB	'Internal error in %s(%u)', 0aH, 00H
	ORG $+6
$SG2467	DB	'Expecting closing square bracket', 00H
	ORG $+7
$SG2468	DB	'Expecting file name', 00H
	ORG $+4
$SG2469	DB	'Too many errors', 00H
$SG2470	DB	'forced error%s', 00H
	ORG $+1
$SG2471	DB	'forced error: Value not equal to 0: %d%s', 00H
	ORG $+7
$SG2472	DB	'forced error: Value equal to 0: %d%s', 00H
	ORG $+3
$SG2473	DB	'forced error: symbol defined: %s', 00H
	ORG $+7
$SG2474	DB	'forced error: symbol not defined: %s', 00H
	ORG $+3
$SG2475	DB	'forced error: string blank : <%s>%s', 00H
	ORG $+4
$SG2476	DB	'forced error: string not blank : <%s>%s', 00H
$SG2477	DB	'forced error: strings not equal : <%s> : <%s>%s', 00H
$SG2478	DB	'forced error: strings equal : <%s> : <%s>%s', 00H
	ORG $+4
$SG2479	DB	'%*s%s(%u): Included by', 00H
	ORG $+1
$SG2480	DB	'%*s%s(%u)[%s]: Macro called from', 00H
	ORG $+7
$SG2481	DB	'%*s%s(%u): iteration %u: Macro called from', 00H
	ORG $+5
$SG2482	DB	'%*s%s(%u): Main line code', 00H
	ORG $+6
$SG2483	DB	'Extending jump', 00H
	ORG $+1
$SG2484	DB	'Directive ignored: %s', 00H
	ORG $+2
$SG2485	DB	'number must be a power of 2: %u', 00H
$SG2486	DB	'Incompatible with segment alignment: %s', 00H
$SG2487	DB	'Segment expected: %s', 00H
	ORG $+3
$SG2488	DB	'Incompatible CPU mode for %u-bit segment', 00H
	ORG $+7
$SG2489	DB	'Far call is converted to near call.', 00H
	ORG $+4
$SG2490	DB	'CPU option %s is not valid for selected CPU.', 00H
	ORG $+3
$SG2491	DB	'Segment ''%s'' is in another group already', 00H
	ORG $+7
$SG2492	DB	'Symbol type conflict: %s', 00H
	ORG $+7
$SG2493	DB	'Conflicting parameter definition: %s', 00H
	ORG $+3
$SG2494	DB	'PROC and PROTO calling convention conflict', 00H
	ORG $+5
$SG2495	DB	'Non-benign %s redefinition: %s', 00H
	ORG $+1
$SG2496	DB	'Too many bits in RECORD: %s', 00H
	ORG $+4
$SG2497	DB	'Statement not allowed inside structure definition', 00H
	ORG $+6
$SG2498	DB	'Unmatched block nesting: %s', 00H
	ORG $+4
$SG2499	DB	'Symbol redefinition: %s', 00H
$SG2500	DB	'Text item required', 00H
	ORG $+5
$SG2501	DB	'INVOKE argument type mismatch: argument %u', 00H
	ORG $+5
$SG2502	DB	'Too few arguments to INVOKE: %s', 00H
$SG2503	DB	'VARARG parameter must be last', 00H
	ORG $+2
$SG2504	DB	'LABEL parameter must be first', 00H
	ORG $+2
$SG2505	DB	'Too many arguments in macro call: %s: %s', 00H
	ORG $+7
$SG2506	DB	'Missing operator in expression', 00H
	ORG $+1
$SG2507	DB	'Unexpected literal found in expression: %s', 00H
	ORG $+5
$SG2508	DB	'Initializer must be a string or single item: %s', 00H
$SG2509	DB	'Too many initial values for structure: %s', 00H
	ORG $+6
$SG2510	DB	'Too many initial values for array: %s', 00H
	ORG $+2
$SG2511	DB	'String or text literal too long', 00H
$SG2512	DB	'PROLOGUE must be macro function', 00H
$SG2513	DB	'EPILOGUE must be macro procedure: %s', 00H
	ORG $+3
$SG2514	DB	'Reserved word expected', 00H
	ORG $+1
$SG2515	DB	'INVOKE requires prototype for procedure', 00H
$SG2516	DB	'Invalid type for data declaration: %s', 00H
	ORG $+2
$SG2517	DB	'Operand must be RECORD type or field', 00H
	ORG $+3
$SG2518	DB	'Unmatched macro nesting', 00H
$SG2519	DB	'Empty (null) string', 00H
	ORG $+4
$SG2520	DB	'No segment information to create fixup: %s', 00H
	ORG $+5
$SG2521	DB	'Register value overwritten by INVOKE', 00H
	ORG $+3
$SG2522	DB	'Missing quotation mark in string', 00H
	ORG $+7
$SG2523	DB	'Divide by zero in expression', 00H
	ORG $+3
$SG2524	DB	'General Failure', 00H
$SG2525	DB	'Cannot have implicit far jump or call to near label', 00H
	ORG $+4
$SG2526	DB	'Invalid use of register', 00H
$SG2527	DB	'Distance invalid for current segment', 00H
	ORG $+3
$SG2528	DB	'Initializer magnitude too large: %s', 00H
	ORG $+4
$SG2529	DB	'Cannot add two relocatable labels', 00H
	ORG $+6
$SG2530	DB	'Cannot define as public or external: %s', 00H
$SG2531	DB	'Positive value expected', 00H
$SG2532	DB	'FAR not allowed in FLAT model COMM variables', 00H
	ORG $+3
$SG2533	DB	'Too many arguments to INVOKE', 00H
	ORG $+3
$SG2534	DB	'Directive must appear inside a macro', 00H
	ORG $+3
$SG2535	DB	'Invalid type expression', 00H
$SG2536	DB	'Cannot declare scoped code label as PUBLIC: %s', 00H
	ORG $+1
$SG2537	DB	'Invalid radix tag', 00H
	ORG $+6
$SG2538	DB	'Instruction operand must have size', 00H
	ORG $+5
$SG2539	DB	'Use of register assumed to ERROR', 00H
	ORG $+7
$SG2540	DB	'Instructions and initialized data not supported in %s se'
	DB	'gments', 00H
	ORG $+1
$SG2541	DB	'Literal expected after ''=''', 00H
	ORG $+5
$SG2543	DB	'Line number information for segment without class ''CODE'
	DB	''': %s', 00H
	ORG $+3
$SG2544	DB	'Operand must be relocatable', 00H
	ORG $+4
$SG2545	DB	'Constant or relocatable label expected', 00H
	ORG $+1
$SG2546	DB	'[ELSE]IF2/.ERR2 not allowed, single-pass assembler', 00H
	ORG $+5
$SG2547	DB	'Expression too complex for UNTILCXZ', 00H
	ORG $+4
$SG2548	DB	'Operands must be in same segment', 00H
	ORG $+7
$SG2549	DB	'Invalid use of external symbol: %s', 00H
	ORG $+5
$SG2550	DB	'For -coff leading underscore required for start label: %'
	DB	's', 00H
	ORG $+6
$SG2551	DB	'Invalid command-line value, default is used: -%s', 00H
	ORG $+7
$SG2552	DB	'Unknown fixup type: %u at %s.%lX', 00H
	ORG $+7
$SG2553	DB	'Unsupported fixup type for %s: %s', 00H
	ORG $+6
$SG2554	DB	'Invalid fixup type for %s: %u at location %s.%lX', 00H
	ORG $+7
$SG2555	DB	'Syntax error in control-flow directive', 00H
	ORG $+1
$SG2556	DB	'Invalid .model parameter for flat model', 00H
$SG2557	DB	'Output format doesn''t support externals: %s', 00H
	ORG $+4
$SG2558	DB	'Invalid start label for -bin', 00H
	ORG $+3
$SG2559	DB	'No start label defined', 00H
	ORG $+1
$SG2560	DB	'No stack defined', 00H
	ORG $+7
$SG2561	DB	'Invalid alignment - value must be 2^n (n=4..15)', 00H
$SG2562	DB	'Index value past end of string: %d', 00H
	ORG $+5
$SG2563	DB	'Count value too large', 00H
	ORG $+2
$SG2564	DB	'Count must be positive or zero', 00H
	ORG $+1
$SG2565	DB	'Syntax error: %s', 00H
	ORG $+7
$SG2566	DB	'Too many unwind codes in FRAME procedure', 00H
	ORG $+7
$SG2567	DB	'Model must be FLAT', 00H
	ORG $+5
$SG2568	DB	'Must use floating-point initializer', 00H
	ORG $+4
$SG2569	DB	'ORG directive not allowed in unions', 00H
	ORG $+4
$SG2570	DB	'Struct alignment must be 1, 2, 4, 8, 16 or 32', 00H
	ORG $+2
$SG2571	DB	'Structure cannot be instanced', 00H
	ORG $+2
$SG2572	DB	'Missing angle bracket or brace in literal', 00H
	ORG $+6
$SG2573	DB	'Nondigit in number: %s', 00H
	ORG $+1
$SG2574	DB	'16bit fixup for 32bit label: %s', 00H
$SG2575	DB	'Too many macro placeholders', 00H
	ORG $+4
$SG2576	DB	'Missing macro argument: %s, parameter %u', 00H
	ORG $+7
$SG2577	DB	'Doesn''t work with 32-bit segments: %s', 00H
	ORG $+2
$SG2578	DB	'Segment exceeds 64k limit: %s', 00H
	ORG $+2
$SG2579	DB	'Not supported with OMF format: %s', 00H
	ORG $+6
$SG2580	DB	'Not supported with current output format: %s', 00H
	ORG $+3
$SG2581	DB	'Unknown default prologue argument: %s', 00H
	ORG $+2
$SG2582	DB	'LOADDS ignored in flat model', 00H
	ORG $+3
$SG2583	DB	'Missing right parenthesis in expression', 00H
$SG2584	DB	'Invalid operand for %s: %s', 00H
	ORG $+5
$SG2585	DB	'Structure improperly initialized: %s', 00H
	ORG $+3
$SG2586	DB	'Expected: %s', 00H
	ORG $+3
$SG2587	DB	'Invalid data initializer: %s', 00H
	ORG $+3
$SG2588	DB	'Expected data label', 00H
	ORG $+4
$SG2589	DB	'Expression must be a code address', 00H
	ORG $+6
$SG2590	DB	'-n Option needs a valid name parameter', 00H
	ORG $+1
$SG2591	DB	'Constant value too large: %I64Xh', 00H
	ORG $+7
$SG2592	DB	'Text macro used prior to definition: %s', 00H
$SG2593	DB	'Offset size incompatible with current segment', 00H
	ORG $+2
$SG2594	DB	'Instruction form requires 80386', 00H
$SG2595	DB	'Group/Segment offset size conflict: %s - %s', 00H
	ORG $+4
$SG2596	DB	'Assembly passes reached: %u', 00H
	ORG $+4
$SG2597	DB	'Filename parameter must be enclosed in <> or quotes', 00H
	ORG $+4
$SG2598	DB	'Start address on END directive ignored with .STARTUP', 00H
	ORG $+3
$SG2599	DB	'Invalid symbol type in expression: %s', 00H
	ORG $+2
$SG2600	DB	'Missing right parenthesis', 00H
	ORG $+6
$SG2601	DB	'Directive must be in control block', 00H
	ORG $+5
$SG2602	DB	'Expected: memory model', 00H
	ORG $+1
$SG2603	DB	'Type is wrong size for register', 00H
$SG2604	DB	'IF[n]DEF expects a plain symbol as argument: %s', 00H
$SG2605	DB	'Jump destination must specify a label', 00H
	ORG $+2
$SG2606	DB	'Ignored: %s', 00H
	ORG $+4
$SG2607	DB	'Missing argument for cmdline option', 00H
	ORG $+4
$SG2608	DB	'Invalid coprocessor register', 00H
	ORG $+3
$SG2609	DB	'.case %s already occured in this .switch block', 00H
	ORG $+1
$SG2610	DB	'Registers AH-DH may not be used with SPL-DIL or R8-R15', 00H
	ORG $+1
$SG2611	DB	'.ENDPROLOG found before EH directives', 00H
	ORG $+2
$SG2612	DB	'Missing FRAME in PROC, no unwind code will be generated', 00H
$SG2613	DB	'Bad alignment for offset in unwind code', 00H
$SG2614	DB	'Nonzero value expected', 00H
	ORG $+1
$SG2615	DB	'Size of prolog too big, must be < 256 bytes', 00H
	ORG $+4
$SG2616	DB	'Missing .ENDPROLOG: %s', 00H
	ORG $+1
$SG2617	DB	'.SAFESEH argument must be a PROC', 00H
	ORG $+7
$SG2618	DB	'Directive ignored without -%s switch', 00H
	ORG $+3
$SG2619	DB	'ELF GNU extensions (8/16-bit relocations) used', 00H
	ORG $+1
$SG2620	DB	'Syntax error in expression', 00H
	ORG $+5
$SG2621	DB	'Macro label not defined: %s', 00H
	ORG $+4
$SG2622	DB	'Procedure argument or local not referenced: %s', 00H
	ORG $+1
$SG2623	DB	'Group definition too large, truncated: %s', 00H
	ORG $+6
$SG2624	DB	'COMM variable exceeds 64K: %s', 00H
	ORG $+2
$SG2625	DB	'Must be public or external: %s', 00H
	ORG $+1
$SG2626	DB	'parameter/local name is reserved word: %s', 00H
	ORG $+6
$SG2627	DB	'real or BCD number not allowed', 00H
	ORG $+1
$SG2628	DB	'structure field expected', 00H
	ORG $+7
$SG2629	DB	'Constant value too large: %I64X%016I64Xh', 00H
	ORG $+7
$SG2630	DB	'ELSE clause already occured in this IF block', 00H
	ORG $+3
$SG2631	DB	'Illegal use of segment register', 00H
$SG2632	DB	'Group exceeds 64K: %s', 00H
	ORG $+2
$SG2633	DB	'EXPORT must be FAR: %s', 00H
	ORG $+1
$SG2634	DB	'EVEX encoding not enabled. Use option evex directive?', 00H
_DATA	ENDS
CONST	SEGMENT
msgtexts DQ	FLAT:$SG2356
	DQ	FLAT:$SG2357
	DQ	FLAT:$SG2358
	DQ	FLAT:$SG2359
	DQ	FLAT:$SG2360
	DQ	FLAT:$SG2361
	DQ	FLAT:$SG2362
	DQ	FLAT:$SG2363
	DQ	FLAT:$SG2364
	DQ	FLAT:$SG2365
	DQ	FLAT:$SG2366
	DQ	FLAT:$SG2367
	DQ	FLAT:$SG2368
	DQ	FLAT:$SG2369
	DQ	FLAT:$SG2370
	DQ	FLAT:$SG2371
	DQ	FLAT:$SG2372
	DQ	FLAT:$SG2373
	DQ	FLAT:$SG2374
	DQ	FLAT:$SG2375
	DQ	FLAT:$SG2376
	DQ	FLAT:$SG2377
	DQ	FLAT:$SG2378
	DQ	FLAT:$SG2379
	DQ	FLAT:$SG2380
	DQ	FLAT:$SG2381
	DQ	FLAT:$SG2382
	DQ	FLAT:$SG2383
	DQ	FLAT:$SG2384
	DQ	FLAT:$SG2385
	DQ	FLAT:$SG2386
	DQ	FLAT:$SG2387
	DQ	FLAT:$SG2388
	DQ	FLAT:$SG2389
	DQ	FLAT:$SG2390
	DQ	FLAT:$SG2391
	DQ	FLAT:$SG2392
	DQ	FLAT:$SG2393
	DQ	FLAT:$SG2394
	DQ	FLAT:$SG2395
	DQ	FLAT:$SG2396
	DQ	FLAT:$SG2397
	DQ	FLAT:$SG2398
	DQ	FLAT:$SG2399
	DQ	FLAT:$SG2400
	DQ	FLAT:$SG2401
	DQ	FLAT:$SG2402
	DQ	FLAT:$SG2403
	DQ	FLAT:$SG2404
	DQ	FLAT:$SG2405
	DQ	FLAT:$SG2406
	DQ	FLAT:$SG2407
	DQ	FLAT:$SG2408
	DQ	FLAT:$SG2409
	DQ	FLAT:$SG2410
	DQ	FLAT:$SG2411
	DQ	FLAT:$SG2412
	DQ	FLAT:$SG2413
	DQ	FLAT:$SG2414
	DQ	FLAT:$SG2415
	DQ	FLAT:$SG2416
	DQ	FLAT:$SG2417
	DQ	FLAT:$SG2418
	DQ	FLAT:$SG2419
	DQ	FLAT:$SG2420
	DQ	FLAT:$SG2421
	DQ	FLAT:$SG2422
	DQ	FLAT:$SG2423
	DQ	FLAT:$SG2424
	DQ	FLAT:$SG2425
	DQ	FLAT:$SG2426
	DQ	FLAT:$SG2427
	DQ	FLAT:$SG2428
	DQ	FLAT:$SG2429
	DQ	FLAT:$SG2430
	DQ	FLAT:$SG2431
	DQ	FLAT:$SG2432
	DQ	FLAT:$SG2433
	DQ	FLAT:$SG2434
	DQ	FLAT:$SG2435
	DQ	FLAT:$SG2436
	DQ	FLAT:$SG2437
	DQ	FLAT:$SG2438
	DQ	FLAT:$SG2439
	DQ	FLAT:$SG2440
	DQ	FLAT:$SG2441
	DQ	FLAT:$SG2442
	DQ	FLAT:$SG2443
	DQ	FLAT:$SG2444
	DQ	FLAT:$SG2445
	DQ	FLAT:$SG2446
	DQ	FLAT:$SG2447
	DQ	FLAT:$SG2448
	DQ	FLAT:$SG2449
	DQ	FLAT:$SG2450
	DQ	FLAT:$SG2451
	DQ	FLAT:$SG2452
	DQ	FLAT:$SG2453
	DQ	FLAT:$SG2454
	DQ	FLAT:$SG2455
	DQ	FLAT:$SG2456
	DQ	FLAT:$SG2457
	DQ	FLAT:$SG2458
	DQ	FLAT:$SG2459
	DQ	FLAT:$SG2460
	DQ	FLAT:$SG2461
	DQ	FLAT:$SG2462
	DQ	FLAT:$SG2463
	DQ	FLAT:$SG2464
	DQ	FLAT:$SG2465
	DQ	FLAT:$SG2466
	DQ	FLAT:$SG2467
	DQ	FLAT:$SG2468
	DQ	FLAT:$SG2469
	DQ	FLAT:$SG2470
	DQ	FLAT:$SG2471
	DQ	FLAT:$SG2472
	DQ	FLAT:$SG2473
	DQ	FLAT:$SG2474
	DQ	FLAT:$SG2475
	DQ	FLAT:$SG2476
	DQ	FLAT:$SG2477
	DQ	FLAT:$SG2478
	DQ	FLAT:$SG2479
	DQ	FLAT:$SG2480
	DQ	FLAT:$SG2481
	DQ	FLAT:$SG2482
	DQ	FLAT:$SG2483
	DQ	FLAT:$SG2484
	DQ	FLAT:$SG2485
	DQ	FLAT:$SG2486
	DQ	FLAT:$SG2487
	DQ	FLAT:$SG2488
	DQ	FLAT:$SG2489
	DQ	FLAT:$SG2490
	DQ	FLAT:$SG2491
	DQ	FLAT:$SG2492
	DQ	FLAT:$SG2493
	DQ	FLAT:$SG2494
	DQ	FLAT:$SG2495
	DQ	FLAT:$SG2496
	DQ	FLAT:$SG2497
	DQ	FLAT:$SG2498
	DQ	FLAT:$SG2499
	DQ	FLAT:$SG2500
	DQ	FLAT:$SG2501
	DQ	FLAT:$SG2502
	DQ	FLAT:$SG2503
	DQ	FLAT:$SG2504
	DQ	FLAT:$SG2505
	DQ	FLAT:$SG2506
	DQ	FLAT:$SG2507
	DQ	FLAT:$SG2508
	DQ	FLAT:$SG2509
	DQ	FLAT:$SG2510
	DQ	FLAT:$SG2511
	DQ	FLAT:$SG2512
	DQ	FLAT:$SG2513
	DQ	FLAT:$SG2514
	DQ	FLAT:$SG2515
	DQ	FLAT:$SG2516
	DQ	FLAT:$SG2517
	DQ	FLAT:$SG2518
	DQ	FLAT:$SG2519
	DQ	FLAT:$SG2520
	DQ	FLAT:$SG2521
	DQ	FLAT:$SG2522
	DQ	FLAT:$SG2523
	DQ	FLAT:$SG2524
	DQ	FLAT:$SG2525
	DQ	FLAT:$SG2526
	DQ	FLAT:$SG2527
	DQ	FLAT:$SG2528
	DQ	FLAT:$SG2529
	DQ	FLAT:$SG2530
	DQ	FLAT:$SG2531
	DQ	FLAT:$SG2532
	DQ	FLAT:$SG2533
	DQ	FLAT:$SG2534
	DQ	FLAT:$SG2535
	DQ	FLAT:$SG2536
	DQ	FLAT:$SG2537
	DQ	FLAT:$SG2538
	DQ	FLAT:$SG2539
	DQ	FLAT:$SG2540
	DQ	FLAT:$SG2541
	DQ	FLAT:$SG2542
	DQ	FLAT:$SG2543
	DQ	FLAT:$SG2544
	DQ	FLAT:$SG2545
	DQ	FLAT:$SG2546
	DQ	FLAT:$SG2547
	DQ	FLAT:$SG2548
	DQ	FLAT:$SG2549
	DQ	FLAT:$SG2550
	DQ	FLAT:$SG2551
	DQ	FLAT:$SG2552
	DQ	FLAT:$SG2553
	DQ	FLAT:$SG2554
	DQ	FLAT:$SG2555
	DQ	FLAT:$SG2556
	DQ	FLAT:$SG2557
	DQ	FLAT:$SG2558
	DQ	FLAT:$SG2559
	DQ	FLAT:$SG2560
	DQ	FLAT:$SG2561
	DQ	FLAT:$SG2562
	DQ	FLAT:$SG2563
	DQ	FLAT:$SG2564
	DQ	FLAT:$SG2565
	DQ	FLAT:$SG2566
	DQ	FLAT:$SG2567
	DQ	FLAT:$SG2568
	DQ	FLAT:$SG2569
	DQ	FLAT:$SG2570
	DQ	FLAT:$SG2571
	DQ	FLAT:$SG2572
	DQ	FLAT:$SG2573
	DQ	FLAT:$SG2574
	DQ	FLAT:$SG2575
	DQ	FLAT:$SG2576
	DQ	FLAT:$SG2577
	DQ	FLAT:$SG2578
	DQ	FLAT:$SG2579
	DQ	FLAT:$SG2580
	DQ	FLAT:$SG2581
	DQ	FLAT:$SG2582
	DQ	FLAT:$SG2583
	DQ	FLAT:$SG2584
	DQ	FLAT:$SG2585
	DQ	FLAT:$SG2586
	DQ	FLAT:$SG2587
	DQ	FLAT:$SG2588
	DQ	FLAT:$SG2589
	DQ	FLAT:$SG2590
	DQ	FLAT:$SG2591
	DQ	FLAT:$SG2592
	DQ	FLAT:$SG2593
	DQ	FLAT:$SG2594
	DQ	FLAT:$SG2595
	DQ	FLAT:$SG2596
	DQ	FLAT:$SG2597
	DQ	FLAT:$SG2598
	DQ	FLAT:$SG2599
	DQ	FLAT:$SG2600
	DQ	FLAT:$SG2601
	DQ	FLAT:$SG2602
	DQ	FLAT:$SG2603
	DQ	FLAT:$SG2604
	DQ	FLAT:$SG2605
	DQ	FLAT:$SG2606
	DQ	FLAT:$SG2607
	DQ	FLAT:$SG2608
	DQ	FLAT:$SG2609
	DQ	FLAT:$SG2610
	DQ	FLAT:$SG2611
	DQ	FLAT:$SG2612
	DQ	FLAT:$SG2613
	DQ	FLAT:$SG2614
	DQ	FLAT:$SG2615
	DQ	FLAT:$SG2616
	DQ	FLAT:$SG2617
	DQ	FLAT:$SG2618
	DQ	FLAT:$SG2619
	DQ	FLAT:$SG2620
	DQ	FLAT:$SG2621
	DQ	FLAT:$SG2622
	DQ	FLAT:$SG2623
	DQ	FLAT:$SG2624
	DQ	FLAT:$SG2625
	DQ	FLAT:$SG2626
	DQ	FLAT:$SG2627
	DQ	FLAT:$SG2628
	DQ	FLAT:$SG2629
	DQ	FLAT:$SG2630
	DQ	FLAT:$SG2631
	DQ	FLAT:$SG2632
	DQ	FLAT:$SG2633
	DQ	FLAT:$SG2634
szCVCompiler DB	'HJWasm v2.22', 00H
CONST	ENDS
_DATA	SEGMENT
	ORG $+2
$SG2648	DB	'Msg %u', 00H
_DATA	ENDS
EXTRN	sprintf:NEAR
EXTRN	ModuleInfo:BYTE
xdata	SEGMENT
$unwind$MsgGet DD 020601H
	DD	030023206H
xdata	ENDS
pdata	SEGMENT
$pdata$MsgGet DD @imagerel(MsgGet#)
	DD	@imagerel(MsgGet#+121)
	DD	@imagerel($unwind$MsgGet#)
; Function compile flags: /Ogtpy
; File d:\hjwasm\hjwasm2.13.1s\hjwasm2.13.1s\msgtext.c
pdata	ENDS
_TEXT	SEGMENT
msgid$ = 48
buffer$ = 56
MsgGet	PROC NEAR

; 71   : {

	push	rbx
	sub	rsp, 32					; 00000020H

; 72   : #if USERESOURCES
; 73   :     HRSRC hRsrc;
; 74   :     HGLOBAL hRes;
; 75   :     WORD * pId;
; 76   :     int i;
; 77   : 
; 78   :     hRsrc = FindResource( NULL, MAKEINTRESOURCE(1 + (msgid >> 4)), RT_STRING );
; 79   :     if (hRsrc) {
; 80   :         hRes = LoadResource( NULL, hRsrc );
; 81   :         if (hRes) {
; 82   :             pId = LockResource( hRes );
; 83   :             for (i = msgid % 16;i;i--)
; 84   :                 pId += *pId + 1;
; 85   :             i = *pId++;
; 86   :             if ( buffer == NULL )
; 87   :                 buffer = StringBufferEnd;
; 88   :             WideCharToMultiByte( CP_ACP, 0, pId, i, buffer, -1, 0, 0 );
; 89   :             buffer[i] = NULLC;
; 90   :             return( buffer );
; 91   :         }
; 92   :     }
; 93   : #else
; 94   :     if ( msgid < MSG_LAST ) {

	cmp	ecx, 279				; 00000117H
	mov	rbx, rdx
	jge	SHORT $LN2@MsgGet

; 95   :         if ( buffer ) {

	test	rdx, rdx

; 96   :             strcpy( buffer, FPTR( msgtexts[msgid] ) );

	movsxd	rax, ecx
	lea	rcx, OFFSET FLAT:msgtexts
	je	SHORT $LN3@MsgGet
	mov	rcx, QWORD PTR [rcx+rax*8]
	npad	12
$LL7@MsgGet:
	movzx	eax, BYTE PTR [rcx]
	inc	rdx
	inc	rcx
	test	al, al
	mov	BYTE PTR [rdx-1], al
	jne	SHORT $LL7@MsgGet

; 106  :     return( buffer );

	mov	rax, rbx

; 107  : }

	add	rsp, 32					; 00000020H
	pop	rbx
	ret	0
$LN3@MsgGet:

; 97   :             return( buffer );
; 98   :         } else
; 99   :             return( (char *) FPTR( msgtexts[msgid] ) );

	mov	rax, QWORD PTR [rcx+rax*8]

; 107  : }

	add	rsp, 32					; 00000020H
	pop	rbx
	ret	0
$LN2@MsgGet:

; 100  :     }
; 101  : #endif
; 102  :     DebugMsg(("MsgGet(%u): Msg not found!!!\n", msgid));
; 103  :     if ( buffer == NULL )

	test	rdx, rdx

; 104  :         buffer = StringBufferEnd;
; 105  :     sprintf( buffer, "Msg %u", msgid );

	mov	r8d, ecx
	lea	rdx, OFFSET FLAT:$SG2648
	cmove	rbx, QWORD PTR ModuleInfo+488
	mov	rcx, rbx
	call	sprintf

; 106  :     return( buffer );

	mov	rax, rbx

; 107  : }

	add	rsp, 32					; 00000020H
	pop	rbx
	ret	0
MsgGet	ENDP
_TEXT	ENDS
PUBLIC	MsgGetEx
xdata	SEGMENT
$unwind$MsgGetEx DD 020601H
	DD	030023206H
xdata	ENDS
pdata	SEGMENT
$pdata$MsgGetEx DD @imagerel($LN12#)
	DD	@imagerel($LN12#+68)
	DD	@imagerel($unwind$MsgGetEx#)
; Function compile flags: /Ogtpy
pdata	ENDS
_TEXT	SEGMENT
msgid$ = 48
MsgGetEx PROC NEAR

; 111  : {

$LN12:
	push	rbx
	sub	rsp, 32					; 00000020H

; 112  :     return( MsgGet( msgid, NULL ) );

	cmp	ecx, 279				; 00000117H
	jge	SHORT $LN11@MsgGetEx
	movsxd	rax, ecx
	lea	rcx, OFFSET FLAT:msgtexts
	mov	rax, QWORD PTR [rcx+rax*8]

; 113  : }

	add	rsp, 32					; 00000020H
	pop	rbx
	ret	0
$LN11@MsgGetEx:

; 112  :     return( MsgGet( msgid, NULL ) );

	mov	rbx, QWORD PTR ModuleInfo+488
	mov	r8d, ecx
	lea	rdx, OFFSET FLAT:$SG2648
	mov	rcx, rbx
	call	sprintf
	mov	rax, rbx

; 113  : }

	add	rsp, 32					; 00000020H
	pop	rbx
	ret	0
MsgGetEx ENDP
_TEXT	ENDS
END
