Archive member included to satisfy reference by file (symbol)

C:/Program Files/mingw-w64/x86_64-5.3.0-posix-seh-rt_v4-rev0/mingw64/bin/../lib/gcc/x86_64-w64-mingw32/5.3.0/../../../../x86_64-w64-mingw32/lib/../lib/libmingw32.a(lib64_libmingw32_a-atonexit.o)
                              C:/Program Files/mingw-w64/x86_64-5.3.0-posix-seh-rt_v4-rev0/mingw64/bin/../lib/gcc/x86_64-w64-mingw32/5.3.0/crtbegin.o (atexit)
C:/Program Files/mingw-w64/x86_64-5.3.0-posix-seh-rt_v4-rev0/mingw64/bin/../lib/gcc/x86_64-w64-mingw32/5.3.0/../../../../x86_64-w64-mingw32/lib/../lib/libmingw32.a(lib64_libmingw32_a-gccmain.o)
                              C:/Program Files/mingw-w64/x86_64-5.3.0-posix-seh-rt_v4-rev0/mingw64/bin/../lib/gcc/x86_64-w64-mingw32/5.3.0/../../../../x86_64-w64-mingw32/lib/../lib/crt2.o (__main)
C:/Program Files/mingw-w64/x86_64-5.3.0-posix-seh-rt_v4-rev0/mingw64/bin/../lib/gcc/x86_64-w64-mingw32/5.3.0/../../../../x86_64-w64-mingw32/lib/../lib/libmingw32.a(lib64_libmingw32_a-natstart.o)
                              C:/Program Files/mingw-w64/x86_64-5.3.0-posix-seh-rt_v4-rev0/mingw64/bin/../lib/gcc/x86_64-w64-mingw32/5.3.0/../../../../x86_64-w64-mingw32/lib/../lib/crt2.o (__native_startup_lock)
C:/Program Files/mingw-w64/x86_64-5.3.0-posix-seh-rt_v4-rev0/mingw64/bin/../lib/gcc/x86_64-w64-mingw32/5.3.0/../../../../x86_64-w64-mingw32/lib/../lib/libmingw32.a(lib64_libmingw32_a-wildcard.o)
                              C:/Program Files/mingw-w64/x86_64-5.3.0-posix-seh-rt_v4-rev0/mingw64/bin/../lib/gcc/x86_64-w64-mingw32/5.3.0/../../../../x86_64-w64-mingw32/lib/../lib/crt2.o (_dowildcard)
C:/Program Files/mingw-w64/x86_64-5.3.0-posix-seh-rt_v4-rev0/mingw64/bin/../lib/gcc/x86_64-w64-mingw32/5.3.0/../../../../x86_64-w64-mingw32/lib/../lib/libmingw32.a(lib64_libmingw32_a-charmax.o)
                              C:/Program Files/mingw-w64/x86_64-5.3.0-posix-seh-rt_v4-rev0/mingw64/bin/../lib/gcc/x86_64-w64-mingw32/5.3.0/../../../../x86_64-w64-mingw32/lib/../lib/crt2.o (mingw_initcharmax)
C:/Program Files/mingw-w64/x86_64-5.3.0-posix-seh-rt_v4-rev0/mingw64/bin/../lib/gcc/x86_64-w64-mingw32/5.3.0/../../../../x86_64-w64-mingw32/lib/../lib/libmingw32.a(lib64_libmingw32_a-dllargv.o)
                              C:/Program Files/mingw-w64/x86_64-5.3.0-posix-seh-rt_v4-rev0/mingw64/bin/../lib/gcc/x86_64-w64-mingw32/5.3.0/../../../../x86_64-w64-mingw32/lib/../lib/crt2.o (_setargv)
C:/Program Files/mingw-w64/x86_64-5.3.0-posix-seh-rt_v4-rev0/mingw64/bin/../lib/gcc/x86_64-w64-mingw32/5.3.0/../../../../x86_64-w64-mingw32/lib/../lib/libmingw32.a(lib64_libmingw32_a-gs_support.o)
                              C:/Program Files/mingw-w64/x86_64-5.3.0-posix-seh-rt_v4-rev0/mingw64/bin/../lib/gcc/x86_64-w64-mingw32/5.3.0/../../../../x86_64-w64-mingw32/lib/../lib/crt2.o (__security_init_cookie)
C:/Program Files/mingw-w64/x86_64-5.3.0-posix-seh-rt_v4-rev0/mingw64/bin/../lib/gcc/x86_64-w64-mingw32/5.3.0/../../../../x86_64-w64-mingw32/lib/../lib/libmingw32.a(lib64_libmingw32_a-_newmode.o)
                              C:/Program Files/mingw-w64/x86_64-5.3.0-posix-seh-rt_v4-rev0/mingw64/bin/../lib/gcc/x86_64-w64-mingw32/5.3.0/../../../../x86_64-w64-mingw32/lib/../lib/crt2.o (_newmode)
C:/Program Files/mingw-w64/x86_64-5.3.0-posix-seh-rt_v4-rev0/mingw64/bin/../lib/gcc/x86_64-w64-mingw32/5.3.0/../../../../x86_64-w64-mingw32/lib/../lib/libmingw32.a(lib64_libmingw32_a-tlssup.o)
                              C:/Program Files/mingw-w64/x86_64-5.3.0-posix-seh-rt_v4-rev0/mingw64/bin/../lib/gcc/x86_64-w64-mingw32/5.3.0/../../../../x86_64-w64-mingw32/lib/../lib/crt2.o (mingw_initltssuo_force)
C:/Program Files/mingw-w64/x86_64-5.3.0-posix-seh-rt_v4-rev0/mingw64/bin/../lib/gcc/x86_64-w64-mingw32/5.3.0/../../../../x86_64-w64-mingw32/lib/../lib/libmingw32.a(lib64_libmingw32_a-cinitexe.o)
                              C:/Program Files/mingw-w64/x86_64-5.3.0-posix-seh-rt_v4-rev0/mingw64/bin/../lib/gcc/x86_64-w64-mingw32/5.3.0/../../../../x86_64-w64-mingw32/lib/../lib/crt2.o (__xc_z)
C:/Program Files/mingw-w64/x86_64-5.3.0-posix-seh-rt_v4-rev0/mingw64/bin/../lib/gcc/x86_64-w64-mingw32/5.3.0/../../../../x86_64-w64-mingw32/lib/../lib/libmingw32.a(lib64_libmingw32_a-merr.o)
                              C:/Program Files/mingw-w64/x86_64-5.3.0-posix-seh-rt_v4-rev0/mingw64/bin/../lib/gcc/x86_64-w64-mingw32/5.3.0/../../../../x86_64-w64-mingw32/lib/../lib/crt2.o (__mingw_setusermatherr)
C:/Program Files/mingw-w64/x86_64-5.3.0-posix-seh-rt_v4-rev0/mingw64/bin/../lib/gcc/x86_64-w64-mingw32/5.3.0/../../../../x86_64-w64-mingw32/lib/../lib/libmingw32.a(lib64_libmingw32_a-CRT_fp10.o)
                              C:/Program Files/mingw-w64/x86_64-5.3.0-posix-seh-rt_v4-rev0/mingw64/bin/../lib/gcc/x86_64-w64-mingw32/5.3.0/../../../../x86_64-w64-mingw32/lib/../lib/crt2.o (_fpreset)
C:/Program Files/mingw-w64/x86_64-5.3.0-posix-seh-rt_v4-rev0/mingw64/bin/../lib/gcc/x86_64-w64-mingw32/5.3.0/../../../../x86_64-w64-mingw32/lib/../lib/libmingw32.a(lib64_libmingw32_a-mingw_helpers.o)
                              C:/Program Files/mingw-w64/x86_64-5.3.0-posix-seh-rt_v4-rev0/mingw64/bin/../lib/gcc/x86_64-w64-mingw32/5.3.0/../../../../x86_64-w64-mingw32/lib/../lib/libmingw32.a(lib64_libmingw32_a-atonexit.o) (_decode_pointer)
C:/Program Files/mingw-w64/x86_64-5.3.0-posix-seh-rt_v4-rev0/mingw64/bin/../lib/gcc/x86_64-w64-mingw32/5.3.0/../../../../x86_64-w64-mingw32/lib/../lib/libmingw32.a(lib64_libmingw32_a-pseudo-reloc.o)
                              C:/Program Files/mingw-w64/x86_64-5.3.0-posix-seh-rt_v4-rev0/mingw64/bin/../lib/gcc/x86_64-w64-mingw32/5.3.0/../../../../x86_64-w64-mingw32/lib/../lib/crt2.o (_pei386_runtime_relocator)
C:/Program Files/mingw-w64/x86_64-5.3.0-posix-seh-rt_v4-rev0/mingw64/bin/../lib/gcc/x86_64-w64-mingw32/5.3.0/../../../../x86_64-w64-mingw32/lib/../lib/libmingw32.a(lib64_libmingw32_a-xtxtmode.o)
                              C:/Program Files/mingw-w64/x86_64-5.3.0-posix-seh-rt_v4-rev0/mingw64/bin/../lib/gcc/x86_64-w64-mingw32/5.3.0/../../../../x86_64-w64-mingw32/lib/../lib/crt2.o (_fmode)
C:/Program Files/mingw-w64/x86_64-5.3.0-posix-seh-rt_v4-rev0/mingw64/bin/../lib/gcc/x86_64-w64-mingw32/5.3.0/../../../../x86_64-w64-mingw32/lib/../lib/libmingw32.a(lib64_libmingw32_a-crt_handler.o)
                              C:/Program Files/mingw-w64/x86_64-5.3.0-posix-seh-rt_v4-rev0/mingw64/bin/../lib/gcc/x86_64-w64-mingw32/5.3.0/../../../../x86_64-w64-mingw32/lib/../lib/crt2.o (__mingw_init_ehandler)
C:/Program Files/mingw-w64/x86_64-5.3.0-posix-seh-rt_v4-rev0/mingw64/bin/../lib/gcc/x86_64-w64-mingw32/5.3.0/../../../../x86_64-w64-mingw32/lib/../lib/libmingw32.a(lib64_libmingw32_a-tlsthrd.o)
                              C:/Program Files/mingw-w64/x86_64-5.3.0-posix-seh-rt_v4-rev0/mingw64/bin/../lib/gcc/x86_64-w64-mingw32/5.3.0/../../../../x86_64-w64-mingw32/lib/../lib/libmingw32.a(lib64_libmingw32_a-tlssup.o) (__mingw_TLScallback)
C:/Program Files/mingw-w64/x86_64-5.3.0-posix-seh-rt_v4-rev0/mingw64/bin/../lib/gcc/x86_64-w64-mingw32/5.3.0/../../../../x86_64-w64-mingw32/lib/../lib/libmingw32.a(lib64_libmingw32_a-tlsmcrt.o)
                              C:/Program Files/mingw-w64/x86_64-5.3.0-posix-seh-rt_v4-rev0/mingw64/bin/../lib/gcc/x86_64-w64-mingw32/5.3.0/../../../../x86_64-w64-mingw32/lib/../lib/libmingw32.a(lib64_libmingw32_a-tlssup.o) (_CRT_MT)
C:/Program Files/mingw-w64/x86_64-5.3.0-posix-seh-rt_v4-rev0/mingw64/bin/../lib/gcc/x86_64-w64-mingw32/5.3.0/../../../../x86_64-w64-mingw32/lib/../lib/libmingw32.a(lib64_libmingw32_a-pseudo-reloc-list.o)
                              C:/Program Files/mingw-w64/x86_64-5.3.0-posix-seh-rt_v4-rev0/mingw64/bin/../lib/gcc/x86_64-w64-mingw32/5.3.0/../../../../x86_64-w64-mingw32/lib/../lib/libmingw32.a(lib64_libmingw32_a-pseudo-reloc.o) (__RUNTIME_PSEUDO_RELOC_LIST__)
C:/Program Files/mingw-w64/x86_64-5.3.0-posix-seh-rt_v4-rev0/mingw64/bin/../lib/gcc/x86_64-w64-mingw32/5.3.0/../../../../x86_64-w64-mingw32/lib/../lib/libmingw32.a(lib64_libmingw32_a-pesect.o)
                              C:/Program Files/mingw-w64/x86_64-5.3.0-posix-seh-rt_v4-rev0/mingw64/bin/../lib/gcc/x86_64-w64-mingw32/5.3.0/../../../../x86_64-w64-mingw32/lib/../lib/libmingw32.a(lib64_libmingw32_a-crt_handler.o) (_FindPESectionByName)
C:/Program Files/mingw-w64/x86_64-5.3.0-posix-seh-rt_v4-rev0/mingw64/bin/../lib/gcc/x86_64-w64-mingw32/5.3.0/libgcc.a(_chkstk_ms.o)
                              MinGW-w64R/assemble.o (___chkstk_ms)
C:/Program Files/mingw-w64/x86_64-5.3.0-posix-seh-rt_v4-rev0/mingw64/bin/../lib/gcc/x86_64-w64-mingw32/5.3.0/libgcc.a(_ctors.o)
                              C:/Program Files/mingw-w64/x86_64-5.3.0-posix-seh-rt_v4-rev0/mingw64/bin/../lib/gcc/x86_64-w64-mingw32/5.3.0/../../../../x86_64-w64-mingw32/lib/../lib/libmingw32.a(lib64_libmingw32_a-gccmain.o) (__DTOR_LIST__)
C:/Program Files/mingw-w64/x86_64-5.3.0-posix-seh-rt_v4-rev0/mingw64/bin/../lib/gcc/x86_64-w64-mingw32/5.3.0/../../../../x86_64-w64-mingw32/lib/../lib/libmingwex.a(lib64_libmingwex_a-strtodnrp.o)
                              MinGW-w64R/atofloat.o (__strtod)
C:/Program Files/mingw-w64/x86_64-5.3.0-posix-seh-rt_v4-rev0/mingw64/bin/../lib/gcc/x86_64-w64-mingw32/5.3.0/../../../../x86_64-w64-mingw32/lib/../lib/libmingwex.a(lib64_libmingwex_a-mingw_getsp.o)
                              MinGW-w64R/errmsg.o (longjmp)
C:/Program Files/mingw-w64/x86_64-5.3.0-posix-seh-rt_v4-rev0/mingw64/bin/../lib/gcc/x86_64-w64-mingw32/5.3.0/../../../../x86_64-w64-mingw32/lib/../lib/libmingwex.a(lib64_libmingwex_a-mingw_matherr.o)
                              C:/Program Files/mingw-w64/x86_64-5.3.0-posix-seh-rt_v4-rev0/mingw64/bin/../lib/gcc/x86_64-w64-mingw32/5.3.0/../../../../x86_64-w64-mingw32/lib/../lib/crt2.o (_MINGW_INSTALL_DEBUG_MATHERR)
C:/Program Files/mingw-w64/x86_64-5.3.0-posix-seh-rt_v4-rev0/mingw64/bin/../lib/gcc/x86_64-w64-mingw32/5.3.0/../../../../x86_64-w64-mingw32/lib/../lib/libmingwex.a(lib64_libmingwex_a-strtodg.o)
                              C:/Program Files/mingw-w64/x86_64-5.3.0-posix-seh-rt_v4-rev0/mingw64/bin/../lib/gcc/x86_64-w64-mingw32/5.3.0/../../../../x86_64-w64-mingw32/lib/../lib/libmingwex.a(lib64_libmingwex_a-strtodnrp.o) (__strtodg)
C:/Program Files/mingw-w64/x86_64-5.3.0-posix-seh-rt_v4-rev0/mingw64/bin/../lib/gcc/x86_64-w64-mingw32/5.3.0/../../../../x86_64-w64-mingw32/lib/../lib/libmingwex.a(lib64_libmingwex_a-sum.o)
                              C:/Program Files/mingw-w64/x86_64-5.3.0-posix-seh-rt_v4-rev0/mingw64/bin/../lib/gcc/x86_64-w64-mingw32/5.3.0/../../../../x86_64-w64-mingw32/lib/../lib/libmingwex.a(lib64_libmingwex_a-strtodg.o) (__sum_D2A)
C:/Program Files/mingw-w64/x86_64-5.3.0-posix-seh-rt_v4-rev0/mingw64/bin/../lib/gcc/x86_64-w64-mingw32/5.3.0/../../../../x86_64-w64-mingw32/lib/../lib/libmingwex.a(lib64_libmingwex_a-gethex.o)
                              C:/Program Files/mingw-w64/x86_64-5.3.0-posix-seh-rt_v4-rev0/mingw64/bin/../lib/gcc/x86_64-w64-mingw32/5.3.0/../../../../x86_64-w64-mingw32/lib/../lib/libmingwex.a(lib64_libmingwex_a-strtodg.o) (__gethex_D2A)
C:/Program Files/mingw-w64/x86_64-5.3.0-posix-seh-rt_v4-rev0/mingw64/bin/../lib/gcc/x86_64-w64-mingw32/5.3.0/../../../../x86_64-w64-mingw32/lib/../lib/libmingwex.a(lib64_libmingwex_a-gmisc.o)
                              C:/Program Files/mingw-w64/x86_64-5.3.0-posix-seh-rt_v4-rev0/mingw64/bin/../lib/gcc/x86_64-w64-mingw32/5.3.0/../../../../x86_64-w64-mingw32/lib/../lib/libmingwex.a(lib64_libmingwex_a-strtodg.o) (__rshift_D2A)
C:/Program Files/mingw-w64/x86_64-5.3.0-posix-seh-rt_v4-rev0/mingw64/bin/../lib/gcc/x86_64-w64-mingw32/5.3.0/../../../../x86_64-w64-mingw32/lib/../lib/libmingwex.a(lib64_libmingwex_a-hd_init.o)
                              C:/Program Files/mingw-w64/x86_64-5.3.0-posix-seh-rt_v4-rev0/mingw64/bin/../lib/gcc/x86_64-w64-mingw32/5.3.0/../../../../x86_64-w64-mingw32/lib/../lib/libmingwex.a(lib64_libmingwex_a-gethex.o) (__mingw_hexdig_init_D2A)
C:/Program Files/mingw-w64/x86_64-5.3.0-posix-seh-rt_v4-rev0/mingw64/bin/../lib/gcc/x86_64-w64-mingw32/5.3.0/../../../../x86_64-w64-mingw32/lib/../lib/libmingwex.a(lib64_libmingwex_a-hexnan.o)
                              C:/Program Files/mingw-w64/x86_64-5.3.0-posix-seh-rt_v4-rev0/mingw64/bin/../lib/gcc/x86_64-w64-mingw32/5.3.0/../../../../x86_64-w64-mingw32/lib/../lib/libmingwex.a(lib64_libmingwex_a-strtodg.o) (__hexnan_D2A)
C:/Program Files/mingw-w64/x86_64-5.3.0-posix-seh-rt_v4-rev0/mingw64/bin/../lib/gcc/x86_64-w64-mingw32/5.3.0/../../../../x86_64-w64-mingw32/lib/../lib/libmingwex.a(lib64_libmingwex_a-misc.o)
                              C:/Program Files/mingw-w64/x86_64-5.3.0-posix-seh-rt_v4-rev0/mingw64/bin/../lib/gcc/x86_64-w64-mingw32/5.3.0/../../../../x86_64-w64-mingw32/lib/../lib/libmingwex.a(lib64_libmingwex_a-strtodg.o) (__Balloc_D2A)
C:/Program Files/mingw-w64/x86_64-5.3.0-posix-seh-rt_v4-rev0/mingw64/bin/../lib/gcc/x86_64-w64-mingw32/5.3.0/../../../../x86_64-w64-mingw32/lib/../lib/libmingwex.a(lib64_libmingwex_a-smisc.o)
                              C:/Program Files/mingw-w64/x86_64-5.3.0-posix-seh-rt_v4-rev0/mingw64/bin/../lib/gcc/x86_64-w64-mingw32/5.3.0/../../../../x86_64-w64-mingw32/lib/../lib/libmingwex.a(lib64_libmingwex_a-strtodg.o) (__s2b_D2A)
C:/Program Files/mingw-w64/x86_64-5.3.0-posix-seh-rt_v4-rev0/mingw64/bin/../lib/gcc/x86_64-w64-mingw32/5.3.0/../../../../x86_64-w64-mingw32/lib/../lib/libmsvcrt.a(dkpfs01245.o)
                              MinGW-w64R/errmsg.o (vsprintf)
C:/Program Files/mingw-w64/x86_64-5.3.0-posix-seh-rt_v4-rev0/mingw64/bin/../lib/gcc/x86_64-w64-mingw32/5.3.0/../../../../x86_64-w64-mingw32/lib/../lib/libmsvcrt.a(dkpfs01239.o)
                              MinGW-w64R/listing.o (vfprintf)
C:/Program Files/mingw-w64/x86_64-5.3.0-posix-seh-rt_v4-rev0/mingw64/bin/../lib/gcc/x86_64-w64-mingw32/5.3.0/../../../../x86_64-w64-mingw32/lib/../lib/libmsvcrt.a(dkpfs01233.o)
                              MinGW-w64R/hll.o (__imp_tolower)
C:/Program Files/mingw-w64/x86_64-5.3.0-posix-seh-rt_v4-rev0/mingw64/bin/../lib/gcc/x86_64-w64-mingw32/5.3.0/../../../../x86_64-w64-mingw32/lib/../lib/libmsvcrt.a(dkpfs01215.o)
                              MinGW-w64R/hll.o (strstr)
C:/Program Files/mingw-w64/x86_64-5.3.0-posix-seh-rt_v4-rev0/mingw64/bin/../lib/gcc/x86_64-w64-mingw32/5.3.0/../../../../x86_64-w64-mingw32/lib/../lib/libmsvcrt.a(dkpfs01208.o)
                              MinGW-w64R/main.o (strncpy)
C:/Program Files/mingw-w64/x86_64-5.3.0-posix-seh-rt_v4-rev0/mingw64/bin/../lib/gcc/x86_64-w64-mingw32/5.3.0/../../../../x86_64-w64-mingw32/lib/../lib/libmsvcrt.a(dkpfs01207.o)
                              C:/Program Files/mingw-w64/x86_64-5.3.0-posix-seh-rt_v4-rev0/mingw64/bin/../lib/gcc/x86_64-w64-mingw32/5.3.0/../../../../x86_64-w64-mingw32/lib/../lib/libmingw32.a(lib64_libmingw32_a-pesect.o) (strncmp)
C:/Program Files/mingw-w64/x86_64-5.3.0-posix-seh-rt_v4-rev0/mingw64/bin/../lib/gcc/x86_64-w64-mingw32/5.3.0/../../../../x86_64-w64-mingw32/lib/../lib/libmsvcrt.a(dkpfs01204.o)
                              C:/Program Files/mingw-w64/x86_64-5.3.0-posix-seh-rt_v4-rev0/mingw64/bin/../lib/gcc/x86_64-w64-mingw32/5.3.0/../../../../x86_64-w64-mingw32/lib/../lib/crt2.o (strlen)
C:/Program Files/mingw-w64/x86_64-5.3.0-posix-seh-rt_v4-rev0/mingw64/bin/../lib/gcc/x86_64-w64-mingw32/5.3.0/../../../../x86_64-w64-mingw32/lib/../lib/libmsvcrt.a(dkpfs01199.o)
                              MinGW-w64R/main.o (strcpy)
C:/Program Files/mingw-w64/x86_64-5.3.0-posix-seh-rt_v4-rev0/mingw64/bin/../lib/gcc/x86_64-w64-mingw32/5.3.0/../../../../x86_64-w64-mingw32/lib/../lib/libmsvcrt.a(dkpfs01197.o)
                              MinGW-w64R/bin.o (strcmp)
C:/Program Files/mingw-w64/x86_64-5.3.0-posix-seh-rt_v4-rev0/mingw64/bin/../lib/gcc/x86_64-w64-mingw32/5.3.0/../../../../x86_64-w64-mingw32/lib/../lib/libmsvcrt.a(dkpfs01196.o)
                              MinGW-w64R/assemble.o (strchr)
C:/Program Files/mingw-w64/x86_64-5.3.0-posix-seh-rt_v4-rev0/mingw64/bin/../lib/gcc/x86_64-w64-mingw32/5.3.0/../../../../x86_64-w64-mingw32/lib/../lib/libmsvcrt.a(dkpfs01194.o)
                              MinGW-w64R/assemble.o (strcat)
C:/Program Files/mingw-w64/x86_64-5.3.0-posix-seh-rt_v4-rev0/mingw64/bin/../lib/gcc/x86_64-w64-mingw32/5.3.0/../../../../x86_64-w64-mingw32/lib/../lib/libmsvcrt.a(dkpfs01188.o)
                              MinGW-w64R/assemble.o (sprintf)
C:/Program Files/mingw-w64/x86_64-5.3.0-posix-seh-rt_v4-rev0/mingw64/bin/../lib/gcc/x86_64-w64-mingw32/5.3.0/../../../../x86_64-w64-mingw32/lib/../lib/libmsvcrt.a(dkpfs01183.o)
                              MinGW-w64R/main.o (signal)
C:/Program Files/mingw-w64/x86_64-5.3.0-posix-seh-rt_v4-rev0/mingw64/bin/../lib/gcc/x86_64-w64-mingw32/5.3.0/../../../../x86_64-w64-mingw32/lib/../lib/libmsvcrt.a(dkpfs01176.o)
                              MinGW-w64R/assemble.o (rewind)
C:/Program Files/mingw-w64/x86_64-5.3.0-posix-seh-rt_v4-rev0/mingw64/bin/../lib/gcc/x86_64-w64-mingw32/5.3.0/../../../../x86_64-w64-mingw32/lib/../lib/libmsvcrt.a(dkpfs01174.o)
                              MinGW-w64R/assemble.o (remove)
C:/Program Files/mingw-w64/x86_64-5.3.0-posix-seh-rt_v4-rev0/mingw64/bin/../lib/gcc/x86_64-w64-mingw32/5.3.0/../../../../x86_64-w64-mingw32/lib/../lib/libmsvcrt.a(dkpfs01169.o)
                              MinGW-w64R/bin.o (qsort)
C:/Program Files/mingw-w64/x86_64-5.3.0-posix-seh-rt_v4-rev0/mingw64/bin/../lib/gcc/x86_64-w64-mingw32/5.3.0/../../../../x86_64-w64-mingw32/lib/../lib/libmsvcrt.a(dkpfs01166.o)
                              MinGW-w64R/assemble.o (puts)
C:/Program Files/mingw-w64/x86_64-5.3.0-posix-seh-rt_v4-rev0/mingw64/bin/../lib/gcc/x86_64-w64-mingw32/5.3.0/../../../../x86_64-w64-mingw32/lib/../lib/libmsvcrt.a(dkpfs01165.o)
                              MinGW-w64R/assemble.o (putchar)
C:/Program Files/mingw-w64/x86_64-5.3.0-posix-seh-rt_v4-rev0/mingw64/bin/../lib/gcc/x86_64-w64-mingw32/5.3.0/../../../../x86_64-w64-mingw32/lib/../lib/libmsvcrt.a(dkpfs01162.o)
                              MinGW-w64R/main.o (printf)
C:/Program Files/mingw-w64/x86_64-5.3.0-posix-seh-rt_v4-rev0/mingw64/bin/../lib/gcc/x86_64-w64-mingw32/5.3.0/../../../../x86_64-w64-mingw32/lib/../lib/libmsvcrt.a(dkpfs01155.o)
                              MinGW-w64R/assemble.o (memset)
C:/Program Files/mingw-w64/x86_64-5.3.0-posix-seh-rt_v4-rev0/mingw64/bin/../lib/gcc/x86_64-w64-mingw32/5.3.0/../../../../x86_64-w64-mingw32/lib/../lib/libmsvcrt.a(dkpfs01154.o)
                              MinGW-w64R/macro.o (memmove)
C:/Program Files/mingw-w64/x86_64-5.3.0-posix-seh-rt_v4-rev0/mingw64/bin/../lib/gcc/x86_64-w64-mingw32/5.3.0/../../../../x86_64-w64-mingw32/lib/../lib/libmsvcrt.a(dkpfs01153.o)
                              C:/Program Files/mingw-w64/x86_64-5.3.0-posix-seh-rt_v4-rev0/mingw64/bin/../lib/gcc/x86_64-w64-mingw32/5.3.0/../../../../x86_64-w64-mingw32/lib/../lib/crt2.o (memcpy)
C:/Program Files/mingw-w64/x86_64-5.3.0-posix-seh-rt_v4-rev0/mingw64/bin/../lib/gcc/x86_64-w64-mingw32/5.3.0/../../../../x86_64-w64-mingw32/lib/../lib/libmsvcrt.a(dkpfs01152.o)
                              MinGW-w64R/assemble.o (memcmp)
C:/Program Files/mingw-w64/x86_64-5.3.0-posix-seh-rt_v4-rev0/mingw64/bin/../lib/gcc/x86_64-w64-mingw32/5.3.0/../../../../x86_64-w64-mingw32/lib/../lib/libmsvcrt.a(dkpfs01145.o)
                              C:/Program Files/mingw-w64/x86_64-5.3.0-posix-seh-rt_v4-rev0/mingw64/bin/../lib/gcc/x86_64-w64-mingw32/5.3.0/../../../../x86_64-w64-mingw32/lib/../lib/crt2.o (malloc)
C:/Program Files/mingw-w64/x86_64-5.3.0-posix-seh-rt_v4-rev0/mingw64/bin/../lib/gcc/x86_64-w64-mingw32/5.3.0/../../../../x86_64-w64-mingw32/lib/../lib/libmsvcrt.a(dkpfs01144.o)
                              C:/Program Files/mingw-w64/x86_64-5.3.0-posix-seh-rt_v4-rev0/mingw64/bin/../lib/gcc/x86_64-w64-mingw32/5.3.0/../../../../x86_64-w64-mingw32/lib/../lib/libmingwex.a(lib64_libmingwex_a-mingw_getsp.o) (__imp_longjmp)
C:/Program Files/mingw-w64/x86_64-5.3.0-posix-seh-rt_v4-rev0/mingw64/bin/../lib/gcc/x86_64-w64-mingw32/5.3.0/../../../../x86_64-w64-mingw32/lib/../lib/libmsvcrt.a(dkpfs01138.o)
                              C:/Program Files/mingw-w64/x86_64-5.3.0-posix-seh-rt_v4-rev0/mingw64/bin/../lib/gcc/x86_64-w64-mingw32/5.3.0/../../../../x86_64-w64-mingw32/lib/../lib/libmingwex.a(lib64_libmingwex_a-strtodg.o) (localeconv)
C:/Program Files/mingw-w64/x86_64-5.3.0-posix-seh-rt_v4-rev0/mingw64/bin/../lib/gcc/x86_64-w64-mingw32/5.3.0/../../../../x86_64-w64-mingw32/lib/../lib/libmsvcrt.a(dkpfs01118.o)
                              MinGW-w64R/assemble.o (__imp_isspace)
C:/Program Files/mingw-w64/x86_64-5.3.0-posix-seh-rt_v4-rev0/mingw64/bin/../lib/gcc/x86_64-w64-mingw32/5.3.0/../../../../x86_64-w64-mingw32/lib/../lib/libmsvcrt.a(dkpfs01110.o)
                              MinGW-w64R/assemble.o (__imp_isalpha)
C:/Program Files/mingw-w64/x86_64-5.3.0-posix-seh-rt_v4-rev0/mingw64/bin/../lib/gcc/x86_64-w64-mingw32/5.3.0/../../../../x86_64-w64-mingw32/lib/../lib/libmsvcrt.a(dkpfs01109.o)
                              MinGW-w64R/assemble.o (__imp_isalnum)
C:/Program Files/mingw-w64/x86_64-5.3.0-posix-seh-rt_v4-rev0/mingw64/bin/../lib/gcc/x86_64-w64-mingw32/5.3.0/../../../../x86_64-w64-mingw32/lib/../lib/libmsvcrt.a(dkpfs01102.o)
                              MinGW-w64R/main.o (getenv)
C:/Program Files/mingw-w64/x86_64-5.3.0-posix-seh-rt_v4-rev0/mingw64/bin/../lib/gcc/x86_64-w64-mingw32/5.3.0/../../../../x86_64-w64-mingw32/lib/../lib/libmsvcrt.a(dkpfs01100.o)
                              MinGW-w64R/input.o (getc)
C:/Program Files/mingw-w64/x86_64-5.3.0-posix-seh-rt_v4-rev0/mingw64/bin/../lib/gcc/x86_64-w64-mingw32/5.3.0/../../../../x86_64-w64-mingw32/lib/../lib/libmsvcrt.a(dkpfs01097.o)
                              MinGW-w64R/assemble.o (fwrite)
C:/Program Files/mingw-w64/x86_64-5.3.0-posix-seh-rt_v4-rev0/mingw64/bin/../lib/gcc/x86_64-w64-mingw32/5.3.0/../../../../x86_64-w64-mingw32/lib/../lib/libmsvcrt.a(dkpfs01094.o)
                              MinGW-w64R/bin.o (ftell)
C:/Program Files/mingw-w64/x86_64-5.3.0-posix-seh-rt_v4-rev0/mingw64/bin/../lib/gcc/x86_64-w64-mingw32/5.3.0/../../../../x86_64-w64-mingw32/lib/../lib/libmsvcrt.a(dkpfs01092.o)
                              MinGW-w64R/bin.o (fseek)
C:/Program Files/mingw-w64/x86_64-5.3.0-posix-seh-rt_v4-rev0/mingw64/bin/../lib/gcc/x86_64-w64-mingw32/5.3.0/../../../../x86_64-w64-mingw32/lib/../lib/libmsvcrt.a(dkpfs01086.o)
                              MinGW-w64R/directiv.o (free)
C:/Program Files/mingw-w64/x86_64-5.3.0-posix-seh-rt_v4-rev0/mingw64/bin/../lib/gcc/x86_64-w64-mingw32/5.3.0/../../../../x86_64-w64-mingw32/lib/../lib/libmsvcrt.a(dkpfs01085.o)
                              MinGW-w64R/cmdline.o (fread)
C:/Program Files/mingw-w64/x86_64-5.3.0-posix-seh-rt_v4-rev0/mingw64/bin/../lib/gcc/x86_64-w64-mingw32/5.3.0/../../../../x86_64-w64-mingw32/lib/../lib/libmsvcrt.a(dkpfs01079.o)
                              C:/Program Files/mingw-w64/x86_64-5.3.0-posix-seh-rt_v4-rev0/mingw64/bin/../lib/gcc/x86_64-w64-mingw32/5.3.0/../../../../x86_64-w64-mingw32/lib/../lib/libmingw32.a(lib64_libmingw32_a-merr.o) (fprintf)
C:/Program Files/mingw-w64/x86_64-5.3.0-posix-seh-rt_v4-rev0/mingw64/bin/../lib/gcc/x86_64-w64-mingw32/5.3.0/../../../../x86_64-w64-mingw32/lib/../lib/libmsvcrt.a(dkpfs01077.o)
                              MinGW-w64R/assemble.o (fopen)
C:/Program Files/mingw-w64/x86_64-5.3.0-posix-seh-rt_v4-rev0/mingw64/bin/../lib/gcc/x86_64-w64-mingw32/5.3.0/../../../../x86_64-w64-mingw32/lib/../lib/libmsvcrt.a(dkpfs01067.o)
                              MinGW-w64R/errmsg.o (fflush)
C:/Program Files/mingw-w64/x86_64-5.3.0-posix-seh-rt_v4-rev0/mingw64/bin/../lib/gcc/x86_64-w64-mingw32/5.3.0/../../../../x86_64-w64-mingw32/lib/../lib/libmsvcrt.a(dkpfs01064.o)
                              MinGW-w64R/assemble.o (fclose)
C:/Program Files/mingw-w64/x86_64-5.3.0-posix-seh-rt_v4-rev0/mingw64/bin/../lib/gcc/x86_64-w64-mingw32/5.3.0/../../../../x86_64-w64-mingw32/lib/../lib/libmsvcrt.a(dkpfs01060.o)
                              C:/Program Files/mingw-w64/x86_64-5.3.0-posix-seh-rt_v4-rev0/mingw64/bin/../lib/gcc/x86_64-w64-mingw32/5.3.0/../../../../x86_64-w64-mingw32/lib/../lib/crt2.o (exit)
C:/Program Files/mingw-w64/x86_64-5.3.0-posix-seh-rt_v4-rev0/mingw64/bin/../lib/gcc/x86_64-w64-mingw32/5.3.0/../../../../x86_64-w64-mingw32/lib/../lib/libmsvcrt.a(dkpfs01052.o)
                              MinGW-w64R/assemble.o (clock)
C:/Program Files/mingw-w64/x86_64-5.3.0-posix-seh-rt_v4-rev0/mingw64/bin/../lib/gcc/x86_64-w64-mingw32/5.3.0/../../../../x86_64-w64-mingw32/lib/../lib/libmsvcrt.a(dkpfs01047.o)
                              C:/Program Files/mingw-w64/x86_64-5.3.0-posix-seh-rt_v4-rev0/mingw64/bin/../lib/gcc/x86_64-w64-mingw32/5.3.0/../../../../x86_64-w64-mingw32/lib/../lib/libmingw32.a(lib64_libmingw32_a-tlsthrd.o) (calloc)
C:/Program Files/mingw-w64/x86_64-5.3.0-posix-seh-rt_v4-rev0/mingw64/bin/../lib/gcc/x86_64-w64-mingw32/5.3.0/../../../../x86_64-w64-mingw32/lib/../lib/libmsvcrt.a(dkpfs01043.o)
                              MinGW-w64R/proc.o (atoi)
C:/Program Files/mingw-w64/x86_64-5.3.0-posix-seh-rt_v4-rev0/mingw64/bin/../lib/gcc/x86_64-w64-mingw32/5.3.0/../../../../x86_64-w64-mingw32/lib/../lib/libmsvcrt.a(dkpfs01030.o)
                              C:/Program Files/mingw-w64/x86_64-5.3.0-posix-seh-rt_v4-rev0/mingw64/bin/../lib/gcc/x86_64-w64-mingw32/5.3.0/../../../../x86_64-w64-mingw32/lib/../lib/libmingw32.a(lib64_libmingw32_a-gs_support.o) (abort)
C:/Program Files/mingw-w64/x86_64-5.3.0-posix-seh-rt_v4-rev0/mingw64/bin/../lib/gcc/x86_64-w64-mingw32/5.3.0/../../../../x86_64-w64-mingw32/lib/../lib/libmsvcrt.a(dkpfs00819.o)
                              C:/Program Files/mingw-w64/x86_64-5.3.0-posix-seh-rt_v4-rev0/mingw64/bin/../lib/gcc/x86_64-w64-mingw32/5.3.0/../../../../x86_64-w64-mingw32/lib/../lib/libmingw32.a(lib64_libmingw32_a-atonexit.o) (_unlock)
C:/Program Files/mingw-w64/x86_64-5.3.0-posix-seh-rt_v4-rev0/mingw64/bin/../lib/gcc/x86_64-w64-mingw32/5.3.0/../../../../x86_64-w64-mingw32/lib/../lib/libmsvcrt.a(dkpfs00788.o)
                              MinGW-w64R/bin.o (__imp__time64)
C:/Program Files/mingw-w64/x86_64-5.3.0-posix-seh-rt_v4-rev0/mingw64/bin/../lib/gcc/x86_64-w64-mingw32/5.3.0/../../../../x86_64-w64-mingw32/lib/../lib/libmsvcrt.a(dkpfs00768.o)
                              MinGW-w64R/assemble.o (__imp__strupr)
C:/Program Files/mingw-w64/x86_64-5.3.0-posix-seh-rt_v4-rev0/mingw64/bin/../lib/gcc/x86_64-w64-mingw32/5.3.0/../../../../x86_64-w64-mingw32/lib/../lib/libmsvcrt.a(dkpfs00731.o)
                              MinGW-w64R/assume.o (__imp__stricmp)
C:/Program Files/mingw-w64/x86_64-5.3.0-posix-seh-rt_v4-rev0/mingw64/bin/../lib/gcc/x86_64-w64-mingw32/5.3.0/../../../../x86_64-w64-mingw32/lib/../lib/libmsvcrt.a(dkpfs00719.o)
                              MinGW-w64R/omf.o (__imp__stat64)
C:/Program Files/mingw-w64/x86_64-5.3.0-posix-seh-rt_v4-rev0/mingw64/bin/../lib/gcc/x86_64-w64-mingw32/5.3.0/../../../../x86_64-w64-mingw32/lib/../lib/libmsvcrt.a(dkpfs00667.o)
                              MinGW-w64R/assemble.o (_setjmp)
C:/Program Files/mingw-w64/x86_64-5.3.0-posix-seh-rt_v4-rev0/mingw64/bin/../lib/gcc/x86_64-w64-mingw32/5.3.0/../../../../x86_64-w64-mingw32/lib/../lib/libmsvcrt.a(dkpfs00611.o)
                              C:/Program Files/mingw-w64/x86_64-5.3.0-posix-seh-rt_v4-rev0/mingw64/bin/../lib/gcc/x86_64-w64-mingw32/5.3.0/../../../../x86_64-w64-mingw32/lib/../lib/libmingw32.a(lib64_libmingw32_a-atonexit.o) (__imp__onexit)
C:/Program Files/mingw-w64/x86_64-5.3.0-posix-seh-rt_v4-rev0/mingw64/bin/../lib/gcc/x86_64-w64-mingw32/5.3.0/../../../../x86_64-w64-mingw32/lib/../lib/libmsvcrt.a(dkpfs00599.o)
                              MinGW-w64R/expans.o (__imp__memicmp)
C:/Program Files/mingw-w64/x86_64-5.3.0-posix-seh-rt_v4-rev0/mingw64/bin/../lib/gcc/x86_64-w64-mingw32/5.3.0/../../../../x86_64-w64-mingw32/lib/../lib/libmsvcrt.a(dkpfs00439.o)
                              C:/Program Files/mingw-w64/x86_64-5.3.0-posix-seh-rt_v4-rev0/mingw64/bin/../lib/gcc/x86_64-w64-mingw32/5.3.0/../../../../x86_64-w64-mingw32/lib/../lib/libmingw32.a(lib64_libmingw32_a-atonexit.o) (_lock)
C:/Program Files/mingw-w64/x86_64-5.3.0-posix-seh-rt_v4-rev0/mingw64/bin/../lib/gcc/x86_64-w64-mingw32/5.3.0/../../../../x86_64-w64-mingw32/lib/../lib/libmsvcrt.a(dkpfs00438.o)
                              MinGW-w64R/omf.o (__imp__localtime64)
C:/Program Files/mingw-w64/x86_64-5.3.0-posix-seh-rt_v4-rev0/mingw64/bin/../lib/gcc/x86_64-w64-mingw32/5.3.0/../../../../x86_64-w64-mingw32/lib/../lib/libmsvcrt.a(dkpfs00330.o)
                              C:/Program Files/mingw-w64/x86_64-5.3.0-posix-seh-rt_v4-rev0/mingw64/bin/../lib/gcc/x86_64-w64-mingw32/5.3.0/../../../../x86_64-w64-mingw32/lib/../lib/crt2.o (_initterm)
C:/Program Files/mingw-w64/x86_64-5.3.0-posix-seh-rt_v4-rev0/mingw64/bin/../lib/gcc/x86_64-w64-mingw32/5.3.0/../../../../x86_64-w64-mingw32/lib/../lib/libmsvcrt.a(dkpfs00251.o)
                              C:/Program Files/mingw-w64/x86_64-5.3.0-posix-seh-rt_v4-rev0/mingw64/bin/../lib/gcc/x86_64-w64-mingw32/5.3.0/../../../../x86_64-w64-mingw32/lib/../lib/crt2.o (__imp__fmode)
C:/Program Files/mingw-w64/x86_64-5.3.0-posix-seh-rt_v4-rev0/mingw64/bin/../lib/gcc/x86_64-w64-mingw32/5.3.0/../../../../x86_64-w64-mingw32/lib/../lib/libmsvcrt.a(dkpfs00242.o)
                              MinGW-w64R/main.o (__imp__findnext64)
C:/Program Files/mingw-w64/x86_64-5.3.0-posix-seh-rt_v4-rev0/mingw64/bin/../lib/gcc/x86_64-w64-mingw32/5.3.0/../../../../x86_64-w64-mingw32/lib/../lib/libmsvcrt.a(dkpfs00238.o)
                              MinGW-w64R/main.o (__imp__findfirst64)
C:/Program Files/mingw-w64/x86_64-5.3.0-posix-seh-rt_v4-rev0/mingw64/bin/../lib/gcc/x86_64-w64-mingw32/5.3.0/../../../../x86_64-w64-mingw32/lib/../lib/libmsvcrt.a(dkpfs00235.o)
                              MinGW-w64R/main.o (__imp__findclose)
C:/Program Files/mingw-w64/x86_64-5.3.0-posix-seh-rt_v4-rev0/mingw64/bin/../lib/gcc/x86_64-w64-mingw32/5.3.0/../../../../x86_64-w64-mingw32/lib/../lib/libmsvcrt.a(dkpfs00234.o)
                              MinGW-w64R/omf.o (__imp__fileno)
C:/Program Files/mingw-w64/x86_64-5.3.0-posix-seh-rt_v4-rev0/mingw64/bin/../lib/gcc/x86_64-w64-mingw32/5.3.0/../../../../x86_64-w64-mingw32/lib/../lib/libmsvcrt.a(dkpfs00201.o)
                              C:/Program Files/mingw-w64/x86_64-5.3.0-posix-seh-rt_v4-rev0/mingw64/bin/../lib/gcc/x86_64-w64-mingw32/5.3.0/../../../../x86_64-w64-mingw32/lib/../lib/libmingwex.a(lib64_libmingwex_a-strtodg.o) (_errno)
C:/Program Files/mingw-w64/x86_64-5.3.0-posix-seh-rt_v4-rev0/mingw64/bin/../lib/gcc/x86_64-w64-mingw32/5.3.0/../../../../x86_64-w64-mingw32/lib/../lib/libmsvcrt.a(dkpfs00149.o)
                              MinGW-w64R/omf.o (__imp__chsize)
C:/Program Files/mingw-w64/x86_64-5.3.0-posix-seh-rt_v4-rev0/mingw64/bin/../lib/gcc/x86_64-w64-mingw32/5.3.0/../../../../x86_64-w64-mingw32/lib/../lib/libmsvcrt.a(dkpfs00140.o)
                              C:/Program Files/mingw-w64/x86_64-5.3.0-posix-seh-rt_v4-rev0/mingw64/bin/../lib/gcc/x86_64-w64-mingw32/5.3.0/../../../../x86_64-w64-mingw32/lib/../lib/crt2.o (_cexit)
C:/Program Files/mingw-w64/x86_64-5.3.0-posix-seh-rt_v4-rev0/mingw64/bin/../lib/gcc/x86_64-w64-mingw32/5.3.0/../../../../x86_64-w64-mingw32/lib/../lib/libmsvcrt.a(dkpfs00122.o)
                              C:/Program Files/mingw-w64/x86_64-5.3.0-posix-seh-rt_v4-rev0/mingw64/bin/../lib/gcc/x86_64-w64-mingw32/5.3.0/../../../../x86_64-w64-mingw32/lib/../lib/crt2.o (_amsg_exit)
C:/Program Files/mingw-w64/x86_64-5.3.0-posix-seh-rt_v4-rev0/mingw64/bin/../lib/gcc/x86_64-w64-mingw32/5.3.0/../../../../x86_64-w64-mingw32/lib/../lib/libmsvcrt.a(dkpfs00115.o)
                              C:/Program Files/mingw-w64/x86_64-5.3.0-posix-seh-rt_v4-rev0/mingw64/bin/../lib/gcc/x86_64-w64-mingw32/5.3.0/../../../../x86_64-w64-mingw32/lib/../lib/crt2.o (__imp__acmdln)
C:/Program Files/mingw-w64/x86_64-5.3.0-posix-seh-rt_v4-rev0/mingw64/bin/../lib/gcc/x86_64-w64-mingw32/5.3.0/../../../../x86_64-w64-mingw32/lib/../lib/libmsvcrt.a(dkpfs00098.o)
                              C:/Program Files/mingw-w64/x86_64-5.3.0-posix-seh-rt_v4-rev0/mingw64/bin/../lib/gcc/x86_64-w64-mingw32/5.3.0/../../../../x86_64-w64-mingw32/lib/../lib/libmingw32.a(lib64_libmingw32_a-merr.o) (__setusermatherr)
C:/Program Files/mingw-w64/x86_64-5.3.0-posix-seh-rt_v4-rev0/mingw64/bin/../lib/gcc/x86_64-w64-mingw32/5.3.0/../../../../x86_64-w64-mingw32/lib/../lib/libmsvcrt.a(dkpfs00096.o)
                              C:/Program Files/mingw-w64/x86_64-5.3.0-posix-seh-rt_v4-rev0/mingw64/bin/../lib/gcc/x86_64-w64-mingw32/5.3.0/../../../../x86_64-w64-mingw32/lib/../lib/crt2.o (__set_app_type)
C:/Program Files/mingw-w64/x86_64-5.3.0-posix-seh-rt_v4-rev0/mingw64/bin/../lib/gcc/x86_64-w64-mingw32/5.3.0/../../../../x86_64-w64-mingw32/lib/../lib/libmsvcrt.a(dkpfs00090.o)
                              C:/Program Files/mingw-w64/x86_64-5.3.0-posix-seh-rt_v4-rev0/mingw64/bin/../lib/gcc/x86_64-w64-mingw32/5.3.0/../../../../x86_64-w64-mingw32/lib/../lib/libmingw32.a(lib64_libmingw32_a-charmax.o) (__imp___lconv_init)
C:/Program Files/mingw-w64/x86_64-5.3.0-posix-seh-rt_v4-rev0/mingw64/bin/../lib/gcc/x86_64-w64-mingw32/5.3.0/../../../../x86_64-w64-mingw32/lib/../lib/libmsvcrt.a(dkpfs00083.o)
                              C:/Program Files/mingw-w64/x86_64-5.3.0-posix-seh-rt_v4-rev0/mingw64/bin/../lib/gcc/x86_64-w64-mingw32/5.3.0/../../../../x86_64-w64-mingw32/lib/../lib/libmingw32.a(lib64_libmingw32_a-merr.o) (__iob_func)
C:/Program Files/mingw-w64/x86_64-5.3.0-posix-seh-rt_v4-rev0/mingw64/bin/../lib/gcc/x86_64-w64-mingw32/5.3.0/../../../../x86_64-w64-mingw32/lib/../lib/libmsvcrt.a(dkpfs00082.o)
                              C:/Program Files/mingw-w64/x86_64-5.3.0-posix-seh-rt_v4-rev0/mingw64/bin/../lib/gcc/x86_64-w64-mingw32/5.3.0/../../../../x86_64-w64-mingw32/lib/../lib/crt2.o (__imp___initenv)
C:/Program Files/mingw-w64/x86_64-5.3.0-posix-seh-rt_v4-rev0/mingw64/bin/../lib/gcc/x86_64-w64-mingw32/5.3.0/../../../../x86_64-w64-mingw32/lib/../lib/libmsvcrt.a(dkpfs00081.o)
                              C:/Program Files/mingw-w64/x86_64-5.3.0-posix-seh-rt_v4-rev0/mingw64/bin/../lib/gcc/x86_64-w64-mingw32/5.3.0/../../../../x86_64-w64-mingw32/lib/../lib/crt2.o (__getmainargs)
C:/Program Files/mingw-w64/x86_64-5.3.0-posix-seh-rt_v4-rev0/mingw64/bin/../lib/gcc/x86_64-w64-mingw32/5.3.0/../../../../x86_64-w64-mingw32/lib/../lib/libmsvcrt.a(dkpfs00078.o)
                              C:/Program Files/mingw-w64/x86_64-5.3.0-posix-seh-rt_v4-rev0/mingw64/bin/../lib/gcc/x86_64-w64-mingw32/5.3.0/../../../../x86_64-w64-mingw32/lib/../lib/libmingw32.a(lib64_libmingw32_a-atonexit.o) (__dllonexit)
C:/Program Files/mingw-w64/x86_64-5.3.0-posix-seh-rt_v4-rev0/mingw64/bin/../lib/gcc/x86_64-w64-mingw32/5.3.0/../../../../x86_64-w64-mingw32/lib/../lib/libmsvcrt.a(dkpfs00055.o)
                              C:/Program Files/mingw-w64/x86_64-5.3.0-posix-seh-rt_v4-rev0/mingw64/bin/../lib/gcc/x86_64-w64-mingw32/5.3.0/../../../../x86_64-w64-mingw32/lib/../lib/crt2.o (__C_specific_handler)
C:/Program Files/mingw-w64/x86_64-5.3.0-posix-seh-rt_v4-rev0/mingw64/bin/../lib/gcc/x86_64-w64-mingw32/5.3.0/../../../../x86_64-w64-mingw32/lib/../lib/libmsvcrt.a(lib64_libmsvcrt_a-invalid_parameter_handler.o)
                              C:/Program Files/mingw-w64/x86_64-5.3.0-posix-seh-rt_v4-rev0/mingw64/bin/../lib/gcc/x86_64-w64-mingw32/5.3.0/../../../../x86_64-w64-mingw32/lib/../lib/crt2.o (_set_invalid_parameter_handler)
C:/Program Files/mingw-w64/x86_64-5.3.0-posix-seh-rt_v4-rev0/mingw64/bin/../lib/gcc/x86_64-w64-mingw32/5.3.0/../../../../x86_64-w64-mingw32/lib/../lib/libmsvcrt.a(dkpfh.o)
                              C:/Program Files/mingw-w64/x86_64-5.3.0-posix-seh-rt_v4-rev0/mingw64/bin/../lib/gcc/x86_64-w64-mingw32/5.3.0/../../../../x86_64-w64-mingw32/lib/../lib/libmsvcrt.a(dkpfs01245.o) (_head_lib64_libmsvcrt_a)
C:/Program Files/mingw-w64/x86_64-5.3.0-posix-seh-rt_v4-rev0/mingw64/bin/../lib/gcc/x86_64-w64-mingw32/5.3.0/../../../../x86_64-w64-mingw32/lib/../lib/libmsvcrt.a(dkpft.o)
                              C:/Program Files/mingw-w64/x86_64-5.3.0-posix-seh-rt_v4-rev0/mingw64/bin/../lib/gcc/x86_64-w64-mingw32/5.3.0/../../../../x86_64-w64-mingw32/lib/../lib/libmsvcrt.a(dkpfh.o) (__lib64_libmsvcrt_a_iname)
C:/Program Files/mingw-w64/x86_64-5.3.0-posix-seh-rt_v4-rev0/mingw64/bin/../lib/gcc/x86_64-w64-mingw32/5.3.0/../../../../x86_64-w64-mingw32/lib/../lib/libkernel32.a(dqmfs01266.o)
                              C:/Program Files/mingw-w64/x86_64-5.3.0-posix-seh-rt_v4-rev0/mingw64/bin/../lib/gcc/x86_64-w64-mingw32/5.3.0/../../../../x86_64-w64-mingw32/lib/../lib/libmingw32.a(lib64_libmingw32_a-pseudo-reloc.o) (__imp_VirtualQuery)
C:/Program Files/mingw-w64/x86_64-5.3.0-posix-seh-rt_v4-rev0/mingw64/bin/../lib/gcc/x86_64-w64-mingw32/5.3.0/../../../../x86_64-w64-mingw32/lib/../lib/libkernel32.a(dqmfs01264.o)
                              C:/Program Files/mingw-w64/x86_64-5.3.0-posix-seh-rt_v4-rev0/mingw64/bin/../lib/gcc/x86_64-w64-mingw32/5.3.0/../../../../x86_64-w64-mingw32/lib/../lib/libmingw32.a(lib64_libmingw32_a-pseudo-reloc.o) (__imp_VirtualProtect)
C:/Program Files/mingw-w64/x86_64-5.3.0-posix-seh-rt_v4-rev0/mingw64/bin/../lib/gcc/x86_64-w64-mingw32/5.3.0/../../../../x86_64-w64-mingw32/lib/../lib/libkernel32.a(dqmfs01261.o)
                              MinGW-w64R/memalloc.o (__imp_VirtualFree)
C:/Program Files/mingw-w64/x86_64-5.3.0-posix-seh-rt_v4-rev0/mingw64/bin/../lib/gcc/x86_64-w64-mingw32/5.3.0/../../../../x86_64-w64-mingw32/lib/../lib/libkernel32.a(dqmfs01258.o)
                              MinGW-w64R/memalloc.o (__imp_VirtualAlloc)
C:/Program Files/mingw-w64/x86_64-5.3.0-posix-seh-rt_v4-rev0/mingw64/bin/../lib/gcc/x86_64-w64-mingw32/5.3.0/../../../../x86_64-w64-mingw32/lib/../lib/libkernel32.a(dqmfs01234.o)
                              C:/Program Files/mingw-w64/x86_64-5.3.0-posix-seh-rt_v4-rev0/mingw64/bin/../lib/gcc/x86_64-w64-mingw32/5.3.0/../../../../x86_64-w64-mingw32/lib/../lib/libmingw32.a(lib64_libmingw32_a-gs_support.o) (__imp_UnhandledExceptionFilter)
C:/Program Files/mingw-w64/x86_64-5.3.0-posix-seh-rt_v4-rev0/mingw64/bin/../lib/gcc/x86_64-w64-mingw32/5.3.0/../../../../x86_64-w64-mingw32/lib/../lib/libkernel32.a(dqmfs01221.o)
                              C:/Program Files/mingw-w64/x86_64-5.3.0-posix-seh-rt_v4-rev0/mingw64/bin/../lib/gcc/x86_64-w64-mingw32/5.3.0/../../../../x86_64-w64-mingw32/lib/../lib/libmingw32.a(lib64_libmingw32_a-tlsthrd.o) (__imp_TlsGetValue)
C:/Program Files/mingw-w64/x86_64-5.3.0-posix-seh-rt_v4-rev0/mingw64/bin/../lib/gcc/x86_64-w64-mingw32/5.3.0/../../../../x86_64-w64-mingw32/lib/../lib/libkernel32.a(dqmfs01214.o)
                              C:/Program Files/mingw-w64/x86_64-5.3.0-posix-seh-rt_v4-rev0/mingw64/bin/../lib/gcc/x86_64-w64-mingw32/5.3.0/../../../../x86_64-w64-mingw32/lib/../lib/libmingw32.a(lib64_libmingw32_a-gs_support.o) (__imp_TerminateProcess)
C:/Program Files/mingw-w64/x86_64-5.3.0-posix-seh-rt_v4-rev0/mingw64/bin/../lib/gcc/x86_64-w64-mingw32/5.3.0/../../../../x86_64-w64-mingw32/lib/../lib/libkernel32.a(dqmfs01200.o)
                              C:/Program Files/mingw-w64/x86_64-5.3.0-posix-seh-rt_v4-rev0/mingw64/bin/../lib/gcc/x86_64-w64-mingw32/5.3.0/../../../../x86_64-w64-mingw32/lib/../lib/crt2.o (__imp_Sleep)
C:/Program Files/mingw-w64/x86_64-5.3.0-posix-seh-rt_v4-rev0/mingw64/bin/../lib/gcc/x86_64-w64-mingw32/5.3.0/../../../../x86_64-w64-mingw32/lib/../lib/libkernel32.a(dqmfs01187.o)
                              C:/Program Files/mingw-w64/x86_64-5.3.0-posix-seh-rt_v4-rev0/mingw64/bin/../lib/gcc/x86_64-w64-mingw32/5.3.0/../../../../x86_64-w64-mingw32/lib/../lib/crt2.o (__imp_SetUnhandledExceptionFilter)
C:/Program Files/mingw-w64/x86_64-5.3.0-posix-seh-rt_v4-rev0/mingw64/bin/../lib/gcc/x86_64-w64-mingw32/5.3.0/../../../../x86_64-w64-mingw32/lib/../lib/libkernel32.a(dqmfs01044.o)
                              C:/Program Files/mingw-w64/x86_64-5.3.0-posix-seh-rt_v4-rev0/mingw64/bin/../lib/gcc/x86_64-w64-mingw32/5.3.0/../../../../x86_64-w64-mingw32/lib/../lib/libmingw32.a(lib64_libmingw32_a-gs_support.o) (__imp_RtlVirtualUnwind)
C:/Program Files/mingw-w64/x86_64-5.3.0-posix-seh-rt_v4-rev0/mingw64/bin/../lib/gcc/x86_64-w64-mingw32/5.3.0/../../../../x86_64-w64-mingw32/lib/../lib/libkernel32.a(dqmfs01037.o)
                              C:/Program Files/mingw-w64/x86_64-5.3.0-posix-seh-rt_v4-rev0/mingw64/bin/../lib/gcc/x86_64-w64-mingw32/5.3.0/../../../../x86_64-w64-mingw32/lib/../lib/libmingw32.a(lib64_libmingw32_a-gs_support.o) (__imp_RtlLookupFunctionEntry)
C:/Program Files/mingw-w64/x86_64-5.3.0-posix-seh-rt_v4-rev0/mingw64/bin/../lib/gcc/x86_64-w64-mingw32/5.3.0/../../../../x86_64-w64-mingw32/lib/../lib/libkernel32.a(dqmfs01030.o)
                              C:/Program Files/mingw-w64/x86_64-5.3.0-posix-seh-rt_v4-rev0/mingw64/bin/../lib/gcc/x86_64-w64-mingw32/5.3.0/../../../../x86_64-w64-mingw32/lib/../lib/libmingw32.a(lib64_libmingw32_a-gs_support.o) (__imp_RtlCaptureContext)
C:/Program Files/mingw-w64/x86_64-5.3.0-posix-seh-rt_v4-rev0/mingw64/bin/../lib/gcc/x86_64-w64-mingw32/5.3.0/../../../../x86_64-w64-mingw32/lib/../lib/libkernel32.a(dqmfs01029.o)
                              C:/Program Files/mingw-w64/x86_64-5.3.0-posix-seh-rt_v4-rev0/mingw64/bin/../lib/gcc/x86_64-w64-mingw32/5.3.0/../../../../x86_64-w64-mingw32/lib/../lib/libmingw32.a(lib64_libmingw32_a-crt_handler.o) (__imp_RtlAddFunctionTable)
C:/Program Files/mingw-w64/x86_64-5.3.0-posix-seh-rt_v4-rev0/mingw64/bin/../lib/gcc/x86_64-w64-mingw32/5.3.0/../../../../x86_64-w64-mingw32/lib/../lib/libkernel32.a(dqmfs00958.o)
                              C:/Program Files/mingw-w64/x86_64-5.3.0-posix-seh-rt_v4-rev0/mingw64/bin/../lib/gcc/x86_64-w64-mingw32/5.3.0/../../../../x86_64-w64-mingw32/lib/../lib/libmingw32.a(lib64_libmingw32_a-gs_support.o) (__imp_QueryPerformanceCounter)
C:/Program Files/mingw-w64/x86_64-5.3.0-posix-seh-rt_v4-rev0/mingw64/bin/../lib/gcc/x86_64-w64-mingw32/5.3.0/../../../../x86_64-w64-mingw32/lib/../lib/libkernel32.a(dqmfs00844.o)
                              C:/Program Files/mingw-w64/x86_64-5.3.0-posix-seh-rt_v4-rev0/mingw64/bin/../lib/gcc/x86_64-w64-mingw32/5.3.0/../../../../x86_64-w64-mingw32/lib/../lib/libmingw32.a(lib64_libmingw32_a-tlsthrd.o) (__imp_LeaveCriticalSection)
C:/Program Files/mingw-w64/x86_64-5.3.0-posix-seh-rt_v4-rev0/mingw64/bin/../lib/gcc/x86_64-w64-mingw32/5.3.0/../../../../x86_64-w64-mingw32/lib/../lib/libkernel32.a(dqmfs00762.o)
                              C:/Program Files/mingw-w64/x86_64-5.3.0-posix-seh-rt_v4-rev0/mingw64/bin/../lib/gcc/x86_64-w64-mingw32/5.3.0/../../../../x86_64-w64-mingw32/lib/../lib/libmingw32.a(lib64_libmingw32_a-tlsthrd.o) (__imp_InitializeCriticalSection)
C:/Program Files/mingw-w64/x86_64-5.3.0-posix-seh-rt_v4-rev0/mingw64/bin/../lib/gcc/x86_64-w64-mingw32/5.3.0/../../../../x86_64-w64-mingw32/lib/../lib/libkernel32.a(dqmfs00678.o)
                              C:/Program Files/mingw-w64/x86_64-5.3.0-posix-seh-rt_v4-rev0/mingw64/bin/../lib/gcc/x86_64-w64-mingw32/5.3.0/../../../../x86_64-w64-mingw32/lib/../lib/libmingw32.a(lib64_libmingw32_a-gs_support.o) (__imp_GetTickCount)
C:/Program Files/mingw-w64/x86_64-5.3.0-posix-seh-rt_v4-rev0/mingw64/bin/../lib/gcc/x86_64-w64-mingw32/5.3.0/../../../../x86_64-w64-mingw32/lib/../lib/libkernel32.a(dqmfs00651.o)
                              C:/Program Files/mingw-w64/x86_64-5.3.0-posix-seh-rt_v4-rev0/mingw64/bin/../lib/gcc/x86_64-w64-mingw32/5.3.0/../../../../x86_64-w64-mingw32/lib/../lib/libmingw32.a(lib64_libmingw32_a-gs_support.o) (__imp_GetSystemTimeAsFileTime)
C:/Program Files/mingw-w64/x86_64-5.3.0-posix-seh-rt_v4-rev0/mingw64/bin/../lib/gcc/x86_64-w64-mingw32/5.3.0/../../../../x86_64-w64-mingw32/lib/../lib/libkernel32.a(dqmfs00628.o)
                              C:/Program Files/mingw-w64/x86_64-5.3.0-posix-seh-rt_v4-rev0/mingw64/bin/../lib/gcc/x86_64-w64-mingw32/5.3.0/../../../../x86_64-w64-mingw32/lib/../lib/crt2.o (__imp_GetStartupInfoA)
C:/Program Files/mingw-w64/x86_64-5.3.0-posix-seh-rt_v4-rev0/mingw64/bin/../lib/gcc/x86_64-w64-mingw32/5.3.0/../../../../x86_64-w64-mingw32/lib/../lib/libkernel32.a(dqmfs00599.o)
                              C:/Program Files/mingw-w64/x86_64-5.3.0-posix-seh-rt_v4-rev0/mingw64/bin/../lib/gcc/x86_64-w64-mingw32/5.3.0/crtbegin.o (__imp_GetProcAddress)
C:/Program Files/mingw-w64/x86_64-5.3.0-posix-seh-rt_v4-rev0/mingw64/bin/../lib/gcc/x86_64-w64-mingw32/5.3.0/../../../../x86_64-w64-mingw32/lib/../lib/libkernel32.a(dqmfs00549.o)
                              C:/Program Files/mingw-w64/x86_64-5.3.0-posix-seh-rt_v4-rev0/mingw64/bin/../lib/gcc/x86_64-w64-mingw32/5.3.0/crtbegin.o (__imp_GetModuleHandleA)
C:/Program Files/mingw-w64/x86_64-5.3.0-posix-seh-rt_v4-rev0/mingw64/bin/../lib/gcc/x86_64-w64-mingw32/5.3.0/../../../../x86_64-w64-mingw32/lib/../lib/libkernel32.a(dqmfs00529.o)
                              C:/Program Files/mingw-w64/x86_64-5.3.0-posix-seh-rt_v4-rev0/mingw64/bin/../lib/gcc/x86_64-w64-mingw32/5.3.0/../../../../x86_64-w64-mingw32/lib/../lib/libmingw32.a(lib64_libmingw32_a-pseudo-reloc.o) (__imp_GetLastError)
C:/Program Files/mingw-w64/x86_64-5.3.0-posix-seh-rt_v4-rev0/mingw64/bin/../lib/gcc/x86_64-w64-mingw32/5.3.0/../../../../x86_64-w64-mingw32/lib/../lib/libkernel32.a(dqmfs00467.o)
                              C:/Program Files/mingw-w64/x86_64-5.3.0-posix-seh-rt_v4-rev0/mingw64/bin/../lib/gcc/x86_64-w64-mingw32/5.3.0/../../../../x86_64-w64-mingw32/lib/../lib/libmingw32.a(lib64_libmingw32_a-gs_support.o) (__imp_GetCurrentThreadId)
C:/Program Files/mingw-w64/x86_64-5.3.0-posix-seh-rt_v4-rev0/mingw64/bin/../lib/gcc/x86_64-w64-mingw32/5.3.0/../../../../x86_64-w64-mingw32/lib/../lib/libkernel32.a(dqmfs00463.o)
                              C:/Program Files/mingw-w64/x86_64-5.3.0-posix-seh-rt_v4-rev0/mingw64/bin/../lib/gcc/x86_64-w64-mingw32/5.3.0/../../../../x86_64-w64-mingw32/lib/../lib/libmingw32.a(lib64_libmingw32_a-gs_support.o) (__imp_GetCurrentProcessId)
C:/Program Files/mingw-w64/x86_64-5.3.0-posix-seh-rt_v4-rev0/mingw64/bin/../lib/gcc/x86_64-w64-mingw32/5.3.0/../../../../x86_64-w64-mingw32/lib/../lib/libkernel32.a(dqmfs00462.o)
                              C:/Program Files/mingw-w64/x86_64-5.3.0-posix-seh-rt_v4-rev0/mingw64/bin/../lib/gcc/x86_64-w64-mingw32/5.3.0/../../../../x86_64-w64-mingw32/lib/../lib/libmingw32.a(lib64_libmingw32_a-gs_support.o) (__imp_GetCurrentProcess)
C:/Program Files/mingw-w64/x86_64-5.3.0-posix-seh-rt_v4-rev0/mingw64/bin/../lib/gcc/x86_64-w64-mingw32/5.3.0/../../../../x86_64-w64-mingw32/lib/../lib/libkernel32.a(dqmfs00249.o)
                              C:/Program Files/mingw-w64/x86_64-5.3.0-posix-seh-rt_v4-rev0/mingw64/bin/../lib/gcc/x86_64-w64-mingw32/5.3.0/../../../../x86_64-w64-mingw32/lib/../lib/libmingw32.a(lib64_libmingw32_a-tlsthrd.o) (__imp_EnterCriticalSection)
C:/Program Files/mingw-w64/x86_64-5.3.0-posix-seh-rt_v4-rev0/mingw64/bin/../lib/gcc/x86_64-w64-mingw32/5.3.0/../../../../x86_64-w64-mingw32/lib/../lib/libkernel32.a(dqmfs00216.o)
                              C:/Program Files/mingw-w64/x86_64-5.3.0-posix-seh-rt_v4-rev0/mingw64/bin/../lib/gcc/x86_64-w64-mingw32/5.3.0/../../../../x86_64-w64-mingw32/lib/../lib/libmingw32.a(lib64_libmingw32_a-tlsthrd.o) (__imp_DeleteCriticalSection)
C:/Program Files/mingw-w64/x86_64-5.3.0-posix-seh-rt_v4-rev0/mingw64/bin/../lib/gcc/x86_64-w64-mingw32/5.3.0/../../../../x86_64-w64-mingw32/lib/../lib/libkernel32.a(dqmfh.o)
                              C:/Program Files/mingw-w64/x86_64-5.3.0-posix-seh-rt_v4-rev0/mingw64/bin/../lib/gcc/x86_64-w64-mingw32/5.3.0/../../../../x86_64-w64-mingw32/lib/../lib/libkernel32.a(dqmfs01266.o) (_head_lib64_libkernel32_a)
C:/Program Files/mingw-w64/x86_64-5.3.0-posix-seh-rt_v4-rev0/mingw64/bin/../lib/gcc/x86_64-w64-mingw32/5.3.0/../../../../x86_64-w64-mingw32/lib/../lib/libkernel32.a(dqmft.o)
                              C:/Program Files/mingw-w64/x86_64-5.3.0-posix-seh-rt_v4-rev0/mingw64/bin/../lib/gcc/x86_64-w64-mingw32/5.3.0/../../../../x86_64-w64-mingw32/lib/../lib/libkernel32.a(dqmfh.o) (__lib64_libkernel32_a_iname)

Allocating common symbols
Common symbol       size              file

FileCur             0x8               MinGW-w64R/input.o
CurrIfState         0x4               MinGW-w64R/condasm.o
LinnumQueue         0x10              MinGW-w64R/assemble.o
sym_Cpu             0x8               MinGW-w64R/cpumodel.o
CurrStruct          0x8               MinGW-w64R/types.o
sym_Interface       0x8               MinGW-w64R/cpumodel.o
StackAdjHigh        0x4               MinGW-w64R/proc.o
SegAssumeTable      0x60              MinGW-w64R/assume.o
StackAdj            0x4               MinGW-w64R/proc.o
token_stringbuf     0x8               MinGW-w64R/input.o
__mingw_winmain_lpCmdLine
                    0x8               C:/Program Files/mingw-w64/x86_64-5.3.0-posix-seh-rt_v4-rev0/mingw64/bin/../lib/gcc/x86_64-w64-mingw32/5.3.0/../../../../x86_64-w64-mingw32/lib/../lib/crt2.o
decoflags           0x1               MinGW-w64R/main.o
StdAssumeTable      0x100             MinGW-w64R/assume.o
sym_ReservedStack   0x8               MinGW-w64R/proc.o
SegOverride         0x8               MinGW-w64R/parser.o
UseSavedState       0x1               MinGW-w64R/fastpass.o
SymTables           0x60              MinGW-w64R/parser.o
Frame_Type          0x1               MinGW-w64R/fixup.o
LastCodeBufSize     0x4               MinGW-w64R/omf.o
Parse_Pass          0x4               MinGW-w64R/assemble.o
SymCmpFunc          0x8               MinGW-w64R/symbols.o
__CTOR_LIST__       0x10              C:/Program Files/mingw-w64/x86_64-5.3.0-posix-seh-rt_v4-rev0/mingw64/bin/../lib/gcc/x86_64-w64-mingw32/5.3.0/libgcc.a(_ctors.o)
__native_startup_state
                    0x4               C:/Program Files/mingw-w64/x86_64-5.3.0-posix-seh-rt_v4-rev0/mingw64/bin/../lib/gcc/x86_64-w64-mingw32/5.3.0/../../../../x86_64-w64-mingw32/lib/../lib/libmingw32.a(lib64_libmingw32_a-natstart.o)
__onexitbegin       0x8               C:/Program Files/mingw-w64/x86_64-5.3.0-posix-seh-rt_v4-rev0/mingw64/bin/../lib/gcc/x86_64-w64-mingw32/5.3.0/../../../../x86_64-w64-mingw32/lib/../lib/libmingw32.a(lib64_libmingw32_a-atonexit.o)
write_to_file       0x1               MinGW-w64R/assemble.o
procidx             0x4               MinGW-w64R/proc.o
CurrProc            0x8               MinGW-w64R/proc.o
LineCur             0x8               MinGW-w64R/input.o
list_pos            0x4               MinGW-w64R/listing.o
__DTOR_LIST__       0x10              C:/Program Files/mingw-w64/x86_64-5.3.0-posix-seh-rt_v4-rev0/mingw64/bin/../lib/gcc/x86_64-w64-mingw32/5.3.0/libgcc.a(_ctors.o)
symCurSeg           0x8               MinGW-w64R/segment.o
__onexitend         0x8               C:/Program Files/mingw-w64/x86_64-5.3.0-posix-seh-rt_v4-rev0/mingw64/bin/../lib/gcc/x86_64-w64-mingw32/5.3.0/../../../../x86_64-w64-mingw32/lib/../lib/libmingw32.a(lib64_libmingw32_a-atonexit.o)
commentbuffer       0x8               MinGW-w64R/input.o
LineStoreCurr       0x8               MinGW-w64R/fastpass.o
__native_startup_lock
                    0x8               C:/Program Files/mingw-w64/x86_64-5.3.0-posix-seh-rt_v4-rev0/mingw64/bin/../lib/gcc/x86_64-w64-mingw32/5.3.0/../../../../x86_64-w64-mingw32/lib/../lib/libmingw32.a(lib64_libmingw32_a-natstart.o)
__mingw_winmain_hInstance
                    0x8               C:/Program Files/mingw-w64/x86_64-5.3.0-posix-seh-rt_v4-rev0/mingw64/bin/../lib/gcc/x86_64-w64-mingw32/5.3.0/../../../../x86_64-w64-mingw32/lib/../lib/crt2.o
MacroLevel          0x1               MinGW-w64R/expans.o
ProcStatus          0x4               MinGW-w64R/proc.o
jmpenv              0x100             MinGW-w64R/assemble.o
StoreState          0x1               MinGW-w64R/fastpass.o
broadflags          0x1               MinGW-w64R/main.o
ModuleInfo          0x308             MinGW-w64R/assemble.o
Frame_Datum         0x2               MinGW-w64R/fixup.o
__hexdig_D2A        0x100             C:/Program Files/mingw-w64/x86_64-5.3.0-posix-seh-rt_v4-rev0/mingw64/bin/../lib/gcc/x86_64-w64-mingw32/5.3.0/../../../../x86_64-w64-mingw32/lib/../lib/libmingwex.a(lib64_libmingwex_a-hd_init.o)
MacroLocals         0x4               MinGW-w64R/expans.o

Discarded input sections

 .drectve       0x0000000000000000       0x54 C:/Program Files/mingw-w64/x86_64-5.3.0-posix-seh-rt_v4-rev0/mingw64/bin/../lib/gcc/x86_64-w64-mingw32/5.3.0/../../../../x86_64-w64-mingw32/lib/../lib/crt2.o
 .drectve       0x0000000000000000       0x68 MinGW-w64R/assemble.o
 .rdata$.refptr.Options
                0x0000000000000000       0x10 MinGW-w64R/assemble.o
 .drectve       0x0000000000000000       0x3c MinGW-w64R/assume.o
 .rdata$.refptr.Options
                0x0000000000000000       0x10 MinGW-w64R/assume.o
 .rdata$.refptr.UseSavedState
                0x0000000000000000       0x10 MinGW-w64R/assume.o
 .rdata$.refptr.Parse_Pass
                0x0000000000000000       0x10 MinGW-w64R/atofloat.o
 .rdata$.refptr.ModuleInfo
                0x0000000000000000       0x10 MinGW-w64R/backptch.o
 .rdata$.refptr.Parse_Pass
                0x0000000000000000       0x10 MinGW-w64R/backptch.o
 .rdata$.refptr.Parse_Pass
                0x0000000000000000       0x10 MinGW-w64R/bin.o
 .rdata$.refptr.Options
                0x0000000000000000       0x10 MinGW-w64R/bin.o
 .rdata$.refptr.ModuleInfo
                0x0000000000000000       0x10 MinGW-w64R/bin.o
 .rdata$.refptr.SymTables
                0x0000000000000000       0x10 MinGW-w64R/bin.o
 .rdata$.refptr.ModuleInfo
                0x0000000000000000       0x10 MinGW-w64R/branch.o
 .rdata$.refptr.Parse_Pass
                0x0000000000000000       0x10 MinGW-w64R/branch.o
 .rdata$.refptr.optable_idx
                0x0000000000000000       0x10 MinGW-w64R/codegen.o
 .rdata$.refptr.InstrTable
                0x0000000000000000       0x10 MinGW-w64R/codegen.o
 .rdata$.refptr.Options
                0x0000000000000000       0x10 MinGW-w64R/codegen.o
 .rdata$.refptr.ModuleInfo
                0x0000000000000000       0x10 MinGW-w64R/codegen.o
 .rdata$.refptr.Parse_Pass
                0x0000000000000000       0x10 MinGW-w64R/codegen.o
 .rdata$.refptr.SymTables
                0x0000000000000000       0x10 MinGW-w64R/coff.o
 .rdata$.refptr.Options
                0x0000000000000000       0x10 MinGW-w64R/coff.o
 .rdata$.refptr.ModuleInfo
                0x0000000000000000       0x10 MinGW-w64R/coff.o
 .drectve       0x0000000000000000       0x1c MinGW-w64R/condasm.o
 .rdata$.refptr.Parse_Pass
                0x0000000000000000       0x10 MinGW-w64R/condasm.o
 .rdata$.refptr.Options
                0x0000000000000000       0x10 MinGW-w64R/condasm.o
 .rdata$.refptr.SpecialTable
                0x0000000000000000       0x10 MinGW-w64R/condasm.o
 .rdata$.refptr.MacroLevel
                0x0000000000000000       0x10 MinGW-w64R/condasm.o
 .rdata$.refptr.ModuleInfo
                0x0000000000000000       0x10 MinGW-w64R/condasm.o
 .rdata$.refptr.ModuleInfo
                0x0000000000000000       0x10 MinGW-w64R/context.o
 .rdata$.refptr.Options
                0x0000000000000000       0x10 MinGW-w64R/context.o
 .drectve       0x0000000000000000       0x34 MinGW-w64R/cpumodel.o
 .rdata$.refptr.SpecialTable
                0x0000000000000000       0x10 MinGW-w64R/cpumodel.o
 .rdata$.refptr.Parse_Pass
                0x0000000000000000       0x10 MinGW-w64R/cpumodel.o
 .rdata$.refptr.Options
                0x0000000000000000       0x10 MinGW-w64R/cpumodel.o
 .rdata$.refptr.ModuleInfo
                0x0000000000000000       0x10 MinGW-w64R/cpumodel.o
 .rdata$.refptr.SymTables
                0x0000000000000000       0x10 MinGW-w64R/data.o
 .rdata$.refptr.StoreState
                0x0000000000000000       0x10 MinGW-w64R/data.o
 .rdata$.refptr.SpecialTable
                0x0000000000000000       0x10 MinGW-w64R/data.o
 .rdata$.refptr.UseSavedState
                0x0000000000000000       0x10 MinGW-w64R/data.o
 .rdata$.refptr.SegOverride
                0x0000000000000000       0x10 MinGW-w64R/data.o
 .rdata$.refptr.write_to_file
                0x0000000000000000       0x10 MinGW-w64R/data.o
 .rdata$.refptr.Options
                0x0000000000000000       0x10 MinGW-w64R/data.o
 .rdata$.refptr.ModuleInfo
                0x0000000000000000       0x10 MinGW-w64R/data.o
 .rdata$.refptr.Parse_Pass
                0x0000000000000000       0x10 MinGW-w64R/data.o
 .rdata$.refptr.SpecialTable
                0x0000000000000000       0x10 MinGW-w64R/dbgcv.o
 .rdata$.refptr.ModuleInfo
                0x0000000000000000       0x10 MinGW-w64R/dbgcv.o
 .rdata$.refptr.Options
                0x0000000000000000       0x10 MinGW-w64R/dbgcv.o
 .rdata$.refptr.CurrStruct
                0x0000000000000000       0x10 MinGW-w64R/directiv.o
 .rdata$.refptr.SpecialTable
                0x0000000000000000       0x10 MinGW-w64R/directiv.o
 .rdata$.refptr.Options
                0x0000000000000000       0x10 MinGW-w64R/directiv.o
 .rdata$.refptr.Parse_Pass
                0x0000000000000000       0x10 MinGW-w64R/directiv.o
 .rdata$.refptr.SymTables
                0x0000000000000000       0x10 MinGW-w64R/directiv.o
 .rdata$.refptr.ModuleInfo
                0x0000000000000000       0x10 MinGW-w64R/directiv.o
 .rdata$.refptr.ModuleInfo
                0x0000000000000000       0x10 MinGW-w64R/elf.o
 .rdata$.refptr.SymTables
                0x0000000000000000       0x10 MinGW-w64R/elf.o
 .rdata$.refptr.InstrTable
                0x0000000000000000       0x10 MinGW-w64R/end.o
 .rdata$.refptr.optable_idx
                0x0000000000000000       0x10 MinGW-w64R/end.o
 .rdata$.refptr.Options
                0x0000000000000000       0x10 MinGW-w64R/end.o
 .rdata$.refptr.CurrStruct
                0x0000000000000000       0x10 MinGW-w64R/end.o
 .rdata$.refptr.Parse_Pass
                0x0000000000000000       0x10 MinGW-w64R/end.o
 .rdata$.refptr.ModuleInfo
                0x0000000000000000       0x10 MinGW-w64R/end.o
 .rdata$.refptr.SymTables
                0x0000000000000000       0x10 MinGW-w64R/equate.o
 .rdata$.refptr.StoreState
                0x0000000000000000       0x10 MinGW-w64R/equate.o
 .rdata$.refptr.ModuleInfo
                0x0000000000000000       0x10 MinGW-w64R/equate.o
 .rdata$.refptr.Parse_Pass
                0x0000000000000000       0x10 MinGW-w64R/equate.o
 .rdata$.refptr.Options
                0x0000000000000000       0x10 MinGW-w64R/errmsg.o
 .rdata$.refptr.write_to_file
                0x0000000000000000       0x10 MinGW-w64R/errmsg.o
 .rdata$.refptr.Parse_Pass
                0x0000000000000000       0x10 MinGW-w64R/errmsg.o
 .rdata$.refptr.ModuleInfo
                0x0000000000000000       0x10 MinGW-w64R/errmsg.o
 .drectve       0x0000000000000000       0x1c MinGW-w64R/expans.o
 .rdata$.refptr.Options
                0x0000000000000000       0x10 MinGW-w64R/expans.o
 .rdata$.refptr.SpecialTable
                0x0000000000000000       0x10 MinGW-w64R/expans.o
 .rdata$.refptr.ModuleInfo
                0x0000000000000000       0x10 MinGW-w64R/expans.o
 .rdata$.refptr.SymTables
                0x0000000000000000       0x10 MinGW-w64R/expreval.o
 .rdata$.refptr.CurrStruct
                0x0000000000000000       0x10 MinGW-w64R/expreval.o
 .rdata$.refptr.Parse_Pass
                0x0000000000000000       0x10 MinGW-w64R/expreval.o
 .rdata$.refptr.ModuleInfo
                0x0000000000000000       0x10 MinGW-w64R/expreval.o
 .rdata$.refptr.SpecialTable
                0x0000000000000000       0x10 MinGW-w64R/expreval.o
 .rdata$.refptr.Options
                0x0000000000000000       0x10 MinGW-w64R/expreval.o
 .rdata$.refptr.Options
                0x0000000000000000       0x10 MinGW-w64R/extern.o
 .rdata$.refptr.SymTables
                0x0000000000000000       0x10 MinGW-w64R/extern.o
 .rdata$.refptr.ModuleInfo
                0x0000000000000000       0x10 MinGW-w64R/extern.o
 .rdata$.refptr.Parse_Pass
                0x0000000000000000       0x10 MinGW-w64R/extern.o
 .drectve       0x0000000000000000       0x20 MinGW-w64R/fastpass.o
 .rdata$.refptr.MacroLevel
                0x0000000000000000       0x10 MinGW-w64R/fastpass.o
 .rdata$.refptr.ModuleInfo
                0x0000000000000000       0x10 MinGW-w64R/fastpass.o
 .drectve       0x0000000000000000       0x1c MinGW-w64R/fixup.o
 .rdata$.refptr.Options
                0x0000000000000000       0x10 MinGW-w64R/fixup.o
 .rdata$.refptr.ModuleInfo
                0x0000000000000000       0x10 MinGW-w64R/fixup.o
 .rdata$.refptr.Parse_Pass
                0x0000000000000000       0x10 MinGW-w64R/fixup.o
 .rdata$.refptr.ModuleInfo
                0x0000000000000000       0x10 MinGW-w64R/fpfixup.o
 .rdata$.refptr.Options
                0x0000000000000000       0x10 MinGW-w64R/fpfixup.o
 .rdata$.refptr.write_to_file
                0x0000000000000000       0x10 MinGW-w64R/fpfixup.o
 .rdata$.refptr.Options
                0x0000000000000000       0x10 MinGW-w64R/hll.o
 .rdata$.refptr.ModuleInfo
                0x0000000000000000       0x10 MinGW-w64R/hll.o
 .drectve       0x0000000000000000       0x6c MinGW-w64R/input.o
 .rdata$.refptr.ModuleInfo
                0x0000000000000000       0x10 MinGW-w64R/input.o
 .rdata$.refptr.Parse_Pass
                0x0000000000000000       0x10 MinGW-w64R/invoke.o
 .rdata$.refptr.Options
                0x0000000000000000       0x10 MinGW-w64R/invoke.o
 .rdata$.refptr.SpecialTable
                0x0000000000000000       0x10 MinGW-w64R/invoke.o
 .rdata$.refptr.ModuleInfo
                0x0000000000000000       0x10 MinGW-w64R/invoke.o
 .rdata$.refptr.sym_ReservedStack
                0x0000000000000000       0x10 MinGW-w64R/invoke.o
 .rdata$.refptr.Options
                0x0000000000000000       0x10 MinGW-w64R/label.o
 .rdata$.refptr.SymTables
                0x0000000000000000       0x10 MinGW-w64R/label.o
 .rdata$.refptr.CurrProc
                0x0000000000000000       0x10 MinGW-w64R/label.o
 .rdata$.refptr.Parse_Pass
                0x0000000000000000       0x10 MinGW-w64R/label.o
 .rdata$.refptr.ModuleInfo
                0x0000000000000000       0x10 MinGW-w64R/label.o
 .rdata$.refptr.Parse_Pass
                0x0000000000000000       0x10 MinGW-w64R/linnum.o
 .rdata$.refptr.write_to_file
                0x0000000000000000       0x10 MinGW-w64R/linnum.o
 .rdata$.refptr.CurrProc
                0x0000000000000000       0x10 MinGW-w64R/linnum.o
 .rdata$.refptr.ModuleInfo
                0x0000000000000000       0x10 MinGW-w64R/linnum.o
 .rdata$.refptr.Options
                0x0000000000000000       0x10 MinGW-w64R/linnum.o
 .drectve       0x0000000000000000       0x18 MinGW-w64R/listing.o
 .rdata$.refptr.SpecialTable
                0x0000000000000000       0x10 MinGW-w64R/listing.o
 .rdata$.refptr.CurrStruct
                0x0000000000000000       0x10 MinGW-w64R/listing.o
 .rdata$.refptr.LastCodeBufSize
                0x0000000000000000       0x10 MinGW-w64R/listing.o
 .rdata$.refptr.Options
                0x0000000000000000       0x10 MinGW-w64R/listing.o
 .rdata$.refptr.LineStoreCurr
                0x0000000000000000       0x10 MinGW-w64R/listing.o
 .rdata$.refptr.UseSavedState
                0x0000000000000000       0x10 MinGW-w64R/listing.o
 .rdata$.refptr.Parse_Pass
                0x0000000000000000       0x10 MinGW-w64R/listing.o
 .rdata$.refptr.MacroLevel
                0x0000000000000000       0x10 MinGW-w64R/listing.o
 .rdata$.refptr.ModuleInfo
                0x0000000000000000       0x10 MinGW-w64R/listing.o
 .rdata$.refptr.ModuleInfo
                0x0000000000000000       0x10 MinGW-w64R/loop.o
 .rdata$.refptr.ResWordTable
                0x0000000000000000       0x10 MinGW-w64R/lqueue.o
 .rdata$.refptr.ModuleInfo
                0x0000000000000000       0x10 MinGW-w64R/lqueue.o
 .rdata$.refptr.MacroLevel
                0x0000000000000000       0x10 MinGW-w64R/macro.o
 .rdata$.refptr.Parse_Pass
                0x0000000000000000       0x10 MinGW-w64R/macro.o
 .rdata$.refptr.SymTables
                0x0000000000000000       0x10 MinGW-w64R/macro.o
 .rdata$.refptr.Options
                0x0000000000000000       0x10 MinGW-w64R/macro.o
 .rdata$.refptr.ModuleInfo
                0x0000000000000000       0x10 MinGW-w64R/macro.o
 .rdata$.refptr.ModuleInfo
                0x0000000000000000       0x10 MinGW-w64R/mangle.o
 .rdata$.refptr.Options
                0x0000000000000000       0x10 MinGW-w64R/mangle.o
 .rdata$.refptr.ModuleInfo
                0x0000000000000000       0x10 MinGW-w64R/msgtext.o
 .drectve       0x0000000000000000       0x20 MinGW-w64R/omf.o
 .rdata$.refptr.LinnumQueue
                0x0000000000000000       0x10 MinGW-w64R/omf.o
 .rdata$.refptr.write_to_file
                0x0000000000000000       0x10 MinGW-w64R/omf.o
 .rdata$.refptr.ModuleInfo
                0x0000000000000000       0x10 MinGW-w64R/omf.o
 .rdata$.refptr.Options
                0x0000000000000000       0x10 MinGW-w64R/omf.o
 .rdata$.refptr.SymTables
                0x0000000000000000       0x10 MinGW-w64R/omf.o
 .rdata$.refptr.ModuleInfo
                0x0000000000000000       0x10 MinGW-w64R/omffixup.o
 .rdata$.refptr.szNull
                0x0000000000000000       0x10 MinGW-w64R/omffixup.o
 .rdata$.refptr.ModuleInfo
                0x0000000000000000       0x10 MinGW-w64R/omfint.o
 .rdata$.refptr.Options
                0x0000000000000000       0x10 MinGW-w64R/option.o
 .rdata$.refptr.Parse_Pass
                0x0000000000000000       0x10 MinGW-w64R/option.o
 .rdata$.refptr.SpecialTable
                0x0000000000000000       0x10 MinGW-w64R/option.o
 .rdata$.refptr.ModuleInfo
                0x0000000000000000       0x10 MinGW-w64R/option.o
 .drectve       0x0000000000000000       0x34 MinGW-w64R/parser.o
 .rdata$.refptr.vex_flags
                0x0000000000000000       0x10 MinGW-w64R/parser.o
 .rdata$.refptr.Options
                0x0000000000000000       0x10 MinGW-w64R/parser.o
 .rdata$.refptr.InstrTable
                0x0000000000000000       0x10 MinGW-w64R/parser.o
 .rdata$.refptr.optable_idx
                0x0000000000000000       0x10 MinGW-w64R/parser.o
 .rdata$.refptr.UseSavedState
                0x0000000000000000       0x10 MinGW-w64R/parser.o
 .rdata$.refptr.StoreState
                0x0000000000000000       0x10 MinGW-w64R/parser.o
 .rdata$.refptr.CurrStruct
                0x0000000000000000       0x10 MinGW-w64R/parser.o
 .rdata$.refptr.CurrProc
                0x0000000000000000       0x10 MinGW-w64R/parser.o
 .rdata$.refptr.Parse_Pass
                0x0000000000000000       0x10 MinGW-w64R/parser.o
 .rdata$.refptr.SegAssumeTable
                0x0000000000000000       0x10 MinGW-w64R/parser.o
 .rdata$.refptr.maxintvalues
                0x0000000000000000       0x10 MinGW-w64R/parser.o
 .rdata$.refptr.minintvalues
                0x0000000000000000       0x10 MinGW-w64R/parser.o
 .rdata$.refptr.ModuleInfo
                0x0000000000000000       0x10 MinGW-w64R/parser.o
 .rdata$.refptr.SpecialTable
                0x0000000000000000       0x10 MinGW-w64R/parser.o
 .rdata$.refptr.opnd_clstab
                0x0000000000000000       0x10 MinGW-w64R/parser.o
 .rdata$.refptr.Parse_Pass
                0x0000000000000000       0x10 MinGW-w64R/posndir.o
 .rdata$.refptr.StoreState
                0x0000000000000000       0x10 MinGW-w64R/posndir.o
 .rdata$.refptr.CurrStruct
                0x0000000000000000       0x10 MinGW-w64R/posndir.o
 .rdata$.refptr.Options
                0x0000000000000000       0x10 MinGW-w64R/posndir.o
 .rdata$.refptr.ModuleInfo
                0x0000000000000000       0x10 MinGW-w64R/posndir.o
 .rdata$.refptr.Parse_Pass
                0x0000000000000000       0x10 MinGW-w64R/preproc.o
 .rdata$.refptr.StoreState
                0x0000000000000000       0x10 MinGW-w64R/preproc.o
 .rdata$.refptr.directive_tab
                0x0000000000000000       0x10 MinGW-w64R/preproc.o
 .rdata$.refptr.Options
                0x0000000000000000       0x10 MinGW-w64R/preproc.o
 .rdata$.refptr.ModuleInfo
                0x0000000000000000       0x10 MinGW-w64R/preproc.o
 .drectve       0x0000000000000000       0xa0 MinGW-w64R/proc.o
 .rdata$.refptr.LineStoreCurr
                0x0000000000000000       0x10 MinGW-w64R/proc.o
 .rdata$.refptr.list_pos
                0x0000000000000000       0x10 MinGW-w64R/proc.o
 .rdata$.refptr.szDgroup
                0x0000000000000000       0x10 MinGW-w64R/proc.o
 .rdata$.refptr.SymCmpFunc
                0x0000000000000000       0x10 MinGW-w64R/proc.o
 .rdata$.refptr.SymTables
                0x0000000000000000       0x10 MinGW-w64R/proc.o
 .rdata$.refptr.UseSavedState
                0x0000000000000000       0x10 MinGW-w64R/proc.o
 .rdata$.refptr.Parse_Pass
                0x0000000000000000       0x10 MinGW-w64R/proc.o
 .rdata$.refptr.Options
                0x0000000000000000       0x10 MinGW-w64R/proc.o
 .rdata$.refptr.SpecialTable
                0x0000000000000000       0x10 MinGW-w64R/proc.o
 .rdata$.refptr.ModuleInfo
                0x0000000000000000       0x10 MinGW-w64R/proc.o
 .rdata$.refptr.ModuleInfo
                0x0000000000000000       0x10 MinGW-w64R/safeseh.o
 .rdata$.refptr.Parse_Pass
                0x0000000000000000       0x10 MinGW-w64R/safeseh.o
 .rdata$.refptr.Options
                0x0000000000000000       0x10 MinGW-w64R/safeseh.o
 .drectve       0x0000000000000000       0x1c MinGW-w64R/segment.o
 .rdata$.refptr.UseSavedState
                0x0000000000000000       0x10 MinGW-w64R/segment.o
 .rdata$.refptr.Parse_Pass
                0x0000000000000000       0x10 MinGW-w64R/segment.o
 .rdata$.refptr.CurrStruct
                0x0000000000000000       0x10 MinGW-w64R/segment.o
 .rdata$.refptr.Options
                0x0000000000000000       0x10 MinGW-w64R/segment.o
 .rdata$.refptr.write_to_file
                0x0000000000000000       0x10 MinGW-w64R/segment.o
 .rdata$.refptr.SegAssumeTable
                0x0000000000000000       0x10 MinGW-w64R/segment.o
 .rdata$.refptr.SymCmpFunc
                0x0000000000000000       0x10 MinGW-w64R/segment.o
 .rdata$.refptr.ModuleInfo
                0x0000000000000000       0x10 MinGW-w64R/segment.o
 .rdata$.refptr.SymTables
                0x0000000000000000       0x10 MinGW-w64R/segment.o
 .rdata$.refptr.SpecialTable
                0x0000000000000000       0x10 MinGW-w64R/simsegm.o
 .rdata$.refptr.szDgroup
                0x0000000000000000       0x10 MinGW-w64R/simsegm.o
 .rdata$.refptr.Parse_Pass
                0x0000000000000000       0x10 MinGW-w64R/simsegm.o
 .rdata$.refptr.Options
                0x0000000000000000       0x10 MinGW-w64R/simsegm.o
 .rdata$.refptr.ModuleInfo
                0x0000000000000000       0x10 MinGW-w64R/simsegm.o
 .rdata$.refptr.SymTables
                0x0000000000000000       0x10 MinGW-w64R/string.o
 .rdata$.refptr.ModuleInfo
                0x0000000000000000       0x10 MinGW-w64R/string.o
 .drectve       0x0000000000000000       0x1c MinGW-w64R/symbols.o
 .rdata$.refptr.UseSavedState
                0x0000000000000000       0x10 MinGW-w64R/symbols.o
 .rdata$.refptr.CurrProc
                0x0000000000000000       0x10 MinGW-w64R/symbols.o
 .rdata$.refptr.ModuleInfo
                0x0000000000000000       0x10 MinGW-w64R/symbols.o
 .rdata$.refptr.CurrIfState
                0x0000000000000000       0x10 MinGW-w64R/tokenize.o
 .rdata$.refptr.UseSavedState
                0x0000000000000000       0x10 MinGW-w64R/tokenize.o
 .rdata$.refptr.Parse_Pass
                0x0000000000000000       0x10 MinGW-w64R/tokenize.o
 .rdata$.refptr.Options
                0x0000000000000000       0x10 MinGW-w64R/tokenize.o
 .rdata$.refptr.SpecialTable
                0x0000000000000000       0x10 MinGW-w64R/tokenize.o
 .rdata$.refptr.optable_idx
                0x0000000000000000       0x10 MinGW-w64R/tokenize.o
 .rdata$.refptr.InstrTable
                0x0000000000000000       0x10 MinGW-w64R/tokenize.o
 .rdata$.refptr.ModuleInfo
                0x0000000000000000       0x10 MinGW-w64R/tokenize.o
 .drectve       0x0000000000000000       0x1c MinGW-w64R/types.o
 .rdata$.refptr.SpecialTable
                0x0000000000000000       0x10 MinGW-w64R/types.o
 .rdata$.refptr.Parse_Pass
                0x0000000000000000       0x10 MinGW-w64R/types.o
 .rdata$.refptr.SymCmpFunc
                0x0000000000000000       0x10 MinGW-w64R/types.o
 .rdata$.refptr.SymTables
                0x0000000000000000       0x10 MinGW-w64R/types.o
 .rdata$.refptr.ModuleInfo
                0x0000000000000000       0x10 MinGW-w64R/types.o
 .drectve       0x0000000000000000       0x38 C:/Program Files/mingw-w64/x86_64-5.3.0-posix-seh-rt_v4-rev0/mingw64/bin/../lib/gcc/x86_64-w64-mingw32/5.3.0/../../../../x86_64-w64-mingw32/lib/../lib/libmingw32.a(lib64_libmingw32_a-atonexit.o)
 .drectve       0x0000000000000000       0x4c C:/Program Files/mingw-w64/x86_64-5.3.0-posix-seh-rt_v4-rev0/mingw64/bin/../lib/gcc/x86_64-w64-mingw32/5.3.0/../../../../x86_64-w64-mingw32/lib/../lib/libmingw32.a(lib64_libmingw32_a-natstart.o)
 .rdata$.refptr.__image_base__
                0x0000000000000000       0x10 C:/Program Files/mingw-w64/x86_64-5.3.0-posix-seh-rt_v4-rev0/mingw64/bin/../lib/gcc/x86_64-w64-mingw32/5.3.0/../../../../x86_64-w64-mingw32/lib/../lib/libmingw32.a(lib64_libmingw32_a-pseudo-reloc.o)
 .rdata$.refptr.__image_base__
                0x0000000000000000       0x10 C:/Program Files/mingw-w64/x86_64-5.3.0-posix-seh-rt_v4-rev0/mingw64/bin/../lib/gcc/x86_64-w64-mingw32/5.3.0/../../../../x86_64-w64-mingw32/lib/../lib/libmingw32.a(lib64_libmingw32_a-pesect.o)
 .debug_line    0x0000000000000000       0x7b C:/Program Files/mingw-w64/x86_64-5.3.0-posix-seh-rt_v4-rev0/mingw64/bin/../lib/gcc/x86_64-w64-mingw32/5.3.0/libgcc.a(_chkstk_ms.o)
 .debug_info    0x0000000000000000       0xbd C:/Program Files/mingw-w64/x86_64-5.3.0-posix-seh-rt_v4-rev0/mingw64/bin/../lib/gcc/x86_64-w64-mingw32/5.3.0/libgcc.a(_chkstk_ms.o)
 .debug_abbrev  0x0000000000000000       0x14 C:/Program Files/mingw-w64/x86_64-5.3.0-posix-seh-rt_v4-rev0/mingw64/bin/../lib/gcc/x86_64-w64-mingw32/5.3.0/libgcc.a(_chkstk_ms.o)
 .debug_aranges
                0x0000000000000000       0x30 C:/Program Files/mingw-w64/x86_64-5.3.0-posix-seh-rt_v4-rev0/mingw64/bin/../lib/gcc/x86_64-w64-mingw32/5.3.0/libgcc.a(_chkstk_ms.o)
 .debug_frame   0x0000000000000000       0x48 C:/Program Files/mingw-w64/x86_64-5.3.0-posix-seh-rt_v4-rev0/mingw64/bin/../lib/gcc/x86_64-w64-mingw32/5.3.0/libgcc.a(_chkstk_ms.o)
 .drectve       0x0000000000000000       0x3c C:/Program Files/mingw-w64/x86_64-5.3.0-posix-seh-rt_v4-rev0/mingw64/bin/../lib/gcc/x86_64-w64-mingw32/5.3.0/libgcc.a(_ctors.o)
 .debug_info    0x0000000000000000      0xd5f C:/Program Files/mingw-w64/x86_64-5.3.0-posix-seh-rt_v4-rev0/mingw64/bin/../lib/gcc/x86_64-w64-mingw32/5.3.0/libgcc.a(_ctors.o)
 .debug_abbrev  0x0000000000000000       0x75 C:/Program Files/mingw-w64/x86_64-5.3.0-posix-seh-rt_v4-rev0/mingw64/bin/../lib/gcc/x86_64-w64-mingw32/5.3.0/libgcc.a(_ctors.o)
 .debug_aranges
                0x0000000000000000       0x20 C:/Program Files/mingw-w64/x86_64-5.3.0-posix-seh-rt_v4-rev0/mingw64/bin/../lib/gcc/x86_64-w64-mingw32/5.3.0/libgcc.a(_ctors.o)
 .debug_line    0x0000000000000000       0xb2 C:/Program Files/mingw-w64/x86_64-5.3.0-posix-seh-rt_v4-rev0/mingw64/bin/../lib/gcc/x86_64-w64-mingw32/5.3.0/libgcc.a(_ctors.o)
 .debug_str     0x0000000000000000        0x0 C:/Program Files/mingw-w64/x86_64-5.3.0-posix-seh-rt_v4-rev0/mingw64/bin/../lib/gcc/x86_64-w64-mingw32/5.3.0/libgcc.a(_ctors.o)
 .drectve       0x0000000000000000       0x1c C:/Program Files/mingw-w64/x86_64-5.3.0-posix-seh-rt_v4-rev0/mingw64/bin/../lib/gcc/x86_64-w64-mingw32/5.3.0/../../../../x86_64-w64-mingw32/lib/../lib/libmingwex.a(lib64_libmingwex_a-hd_init.o)
 .rdata$.refptr.__hexdig_D2A
                0x0000000000000000       0x10 C:/Program Files/mingw-w64/x86_64-5.3.0-posix-seh-rt_v4-rev0/mingw64/bin/../lib/gcc/x86_64-w64-mingw32/5.3.0/../../../../x86_64-w64-mingw32/lib/../lib/libmingwex.a(lib64_libmingwex_a-hexnan.o)

Memory Configuration

Name             Origin             Length             Attributes
*default*        0x0000000000000000 0xffffffffffffffff

Linker script and memory map

                0x0000000000400000                __image_base__ = 0x400000
                0x0000000000000000                __dll__ = 0x0
                0x0000000000400000                __ImageBase = 0x400000
                0x0000000000001000                __section_alignment__ = 0x1000
                0x0000000000000200                __file_alignment__ = 0x200
                0x0000000000000004                __major_os_version__ = 0x4
                0x0000000000000000                __minor_os_version__ = 0x0
                0x0000000000000000                __major_image_version__ = 0x0
                0x0000000000000000                __minor_image_version__ = 0x0
                0x0000000000000005                __major_subsystem_version__ = 0x5
                0x0000000000000002                __minor_subsystem_version__ = 0x2
                0x0000000000000003                __subsystem__ = 0x3
                0x0000000000200000                __size_of_stack_reserve__ = 0x200000
                0x0000000000001000                __size_of_stack_commit__ = 0x1000
                0x0000000000100000                __size_of_heap_reserve__ = 0x100000
                0x0000000000001000                __size_of_heap_commit__ = 0x1000
                0x0000000000000000                __loader_flags__ = 0x0
                0x0000000000000000                __dll_characteristics__ = 0x0
LOAD C:/Program Files/mingw-w64/x86_64-5.3.0-posix-seh-rt_v4-rev0/mingw64/bin/../lib/gcc/x86_64-w64-mingw32/5.3.0/../../../../x86_64-w64-mingw32/lib/../lib/crt2.o
LOAD C:/Program Files/mingw-w64/x86_64-5.3.0-posix-seh-rt_v4-rev0/mingw64/bin/../lib/gcc/x86_64-w64-mingw32/5.3.0/crtbegin.o
LOAD MinGW-w64R/main.o
LOAD MinGW-w64R/apiemu.o
LOAD MinGW-w64R/assemble.o
LOAD MinGW-w64R/assume.o
LOAD MinGW-w64R/atofloat.o
LOAD MinGW-w64R/backptch.o
LOAD MinGW-w64R/bin.o
LOAD MinGW-w64R/branch.o
LOAD MinGW-w64R/cmdline.o
LOAD MinGW-w64R/codegen.o
LOAD MinGW-w64R/coff.o
LOAD MinGW-w64R/condasm.o
LOAD MinGW-w64R/context.o
LOAD MinGW-w64R/cpumodel.o
LOAD MinGW-w64R/data.o
LOAD MinGW-w64R/dbgcv.o
LOAD MinGW-w64R/directiv.o
LOAD MinGW-w64R/elf.o
LOAD MinGW-w64R/end.o
LOAD MinGW-w64R/equate.o
LOAD MinGW-w64R/errmsg.o
LOAD MinGW-w64R/expans.o
LOAD MinGW-w64R/expreval.o
LOAD MinGW-w64R/extern.o
LOAD MinGW-w64R/fastpass.o
LOAD MinGW-w64R/fixup.o
LOAD MinGW-w64R/fpfixup.o
LOAD MinGW-w64R/hll.o
LOAD MinGW-w64R/input.o
LOAD MinGW-w64R/invoke.o
LOAD MinGW-w64R/label.o
LOAD MinGW-w64R/linnum.o
LOAD MinGW-w64R/listing.o
LOAD MinGW-w64R/loop.o
LOAD MinGW-w64R/lqueue.o
LOAD MinGW-w64R/macro.o
LOAD MinGW-w64R/mangle.o
LOAD MinGW-w64R/memalloc.o
LOAD MinGW-w64R/msgtext.o
LOAD MinGW-w64R/omf.o
LOAD MinGW-w64R/omffixup.o
LOAD MinGW-w64R/omfint.o
LOAD MinGW-w64R/option.o
LOAD MinGW-w64R/parser.o
LOAD MinGW-w64R/posndir.o
LOAD MinGW-w64R/preproc.o
LOAD MinGW-w64R/proc.o
LOAD MinGW-w64R/queue.o
LOAD MinGW-w64R/reswords.o
LOAD MinGW-w64R/safeseh.o
LOAD MinGW-w64R/segment.o
LOAD MinGW-w64R/simsegm.o
LOAD MinGW-w64R/string.o
LOAD MinGW-w64R/symbols.o
LOAD MinGW-w64R/tbyte.o
LOAD MinGW-w64R/tokenize.o
LOAD MinGW-w64R/types.o
LOAD C:/Program Files/mingw-w64/x86_64-5.3.0-posix-seh-rt_v4-rev0/mingw64/bin/../lib/gcc/x86_64-w64-mingw32/5.3.0/../../../../x86_64-w64-mingw32/lib/../lib/libmingw32.a
LOAD C:/Program Files/mingw-w64/x86_64-5.3.0-posix-seh-rt_v4-rev0/mingw64/bin/../lib/gcc/x86_64-w64-mingw32/5.3.0/libgcc.a
LOAD C:/Program Files/mingw-w64/x86_64-5.3.0-posix-seh-rt_v4-rev0/mingw64/bin/../lib/gcc/x86_64-w64-mingw32/5.3.0/libgcc_eh.a
LOAD C:/Program Files/mingw-w64/x86_64-5.3.0-posix-seh-rt_v4-rev0/mingw64/bin/../lib/gcc/x86_64-w64-mingw32/5.3.0/../../../../x86_64-w64-mingw32/lib/../lib/libmoldname.a
LOAD C:/Program Files/mingw-w64/x86_64-5.3.0-posix-seh-rt_v4-rev0/mingw64/bin/../lib/gcc/x86_64-w64-mingw32/5.3.0/../../../../x86_64-w64-mingw32/lib/../lib/libmingwex.a
LOAD C:/Program Files/mingw-w64/x86_64-5.3.0-posix-seh-rt_v4-rev0/mingw64/bin/../lib/gcc/x86_64-w64-mingw32/5.3.0/../../../../x86_64-w64-mingw32/lib/../lib/libmsvcrt.a
LOAD C:/Program Files/mingw-w64/x86_64-5.3.0-posix-seh-rt_v4-rev0/mingw64/bin/../lib/gcc/x86_64-w64-mingw32/5.3.0/../../../../x86_64-w64-mingw32/lib/../lib/libpthread.dll.a
LOAD C:/Program Files/mingw-w64/x86_64-5.3.0-posix-seh-rt_v4-rev0/mingw64/bin/../lib/gcc/x86_64-w64-mingw32/5.3.0/../../../../x86_64-w64-mingw32/lib/../lib/libadvapi32.a
LOAD C:/Program Files/mingw-w64/x86_64-5.3.0-posix-seh-rt_v4-rev0/mingw64/bin/../lib/gcc/x86_64-w64-mingw32/5.3.0/../../../../x86_64-w64-mingw32/lib/../lib/libshell32.a
LOAD C:/Program Files/mingw-w64/x86_64-5.3.0-posix-seh-rt_v4-rev0/mingw64/bin/../lib/gcc/x86_64-w64-mingw32/5.3.0/../../../../x86_64-w64-mingw32/lib/../lib/libuser32.a
LOAD C:/Program Files/mingw-w64/x86_64-5.3.0-posix-seh-rt_v4-rev0/mingw64/bin/../lib/gcc/x86_64-w64-mingw32/5.3.0/../../../../x86_64-w64-mingw32/lib/../lib/libkernel32.a
LOAD C:/Program Files/mingw-w64/x86_64-5.3.0-posix-seh-rt_v4-rev0/mingw64/bin/../lib/gcc/x86_64-w64-mingw32/5.3.0/../../../../x86_64-w64-mingw32/lib/../lib/libiconv.a
LOAD C:/Program Files/mingw-w64/x86_64-5.3.0-posix-seh-rt_v4-rev0/mingw64/bin/../lib/gcc/x86_64-w64-mingw32/5.3.0/../../../../x86_64-w64-mingw32/lib/../lib/libmingw32.a
LOAD C:/Program Files/mingw-w64/x86_64-5.3.0-posix-seh-rt_v4-rev0/mingw64/bin/../lib/gcc/x86_64-w64-mingw32/5.3.0/libgcc.a
LOAD C:/Program Files/mingw-w64/x86_64-5.3.0-posix-seh-rt_v4-rev0/mingw64/bin/../lib/gcc/x86_64-w64-mingw32/5.3.0/libgcc_eh.a
LOAD C:/Program Files/mingw-w64/x86_64-5.3.0-posix-seh-rt_v4-rev0/mingw64/bin/../lib/gcc/x86_64-w64-mingw32/5.3.0/../../../../x86_64-w64-mingw32/lib/../lib/libmoldname.a
LOAD C:/Program Files/mingw-w64/x86_64-5.3.0-posix-seh-rt_v4-rev0/mingw64/bin/../lib/gcc/x86_64-w64-mingw32/5.3.0/../../../../x86_64-w64-mingw32/lib/../lib/libmingwex.a
LOAD C:/Program Files/mingw-w64/x86_64-5.3.0-posix-seh-rt_v4-rev0/mingw64/bin/../lib/gcc/x86_64-w64-mingw32/5.3.0/../../../../x86_64-w64-mingw32/lib/../lib/libmsvcrt.a
LOAD C:/Program Files/mingw-w64/x86_64-5.3.0-posix-seh-rt_v4-rev0/mingw64/bin/../lib/gcc/x86_64-w64-mingw32/5.3.0/crtend.o
                0x00000000000002f0                . = SIZEOF_HEADERS
                0x0000000000001000                . = ALIGN (__section_alignment__)

.text           0x0000000000401000    0x49400
 *(.init)
 *(.text)
 .text          0x0000000000401000      0x530 C:/Program Files/mingw-w64/x86_64-5.3.0-posix-seh-rt_v4-rev0/mingw64/bin/../lib/gcc/x86_64-w64-mingw32/5.3.0/../../../../x86_64-w64-mingw32/lib/../lib/crt2.o
                0x00000000004014d0                WinMainCRTStartup
                0x0000000000401500                mainCRTStartup
 .text          0x0000000000401530       0x80 C:/Program Files/mingw-w64/x86_64-5.3.0-posix-seh-rt_v4-rev0/mingw64/bin/../lib/gcc/x86_64-w64-mingw32/5.3.0/crtbegin.o
                0x0000000000401530                .weak._Jv_RegisterClasses.__gcc_register_frame
                0x0000000000401540                __gcc_register_frame
                0x00000000004015a0                __gcc_deregister_frame
 .text          0x00000000004015b0       0x30 MinGW-w64R/main.o
 .text          0x00000000004015e0        0x0 MinGW-w64R/apiemu.o
 .text          0x00000000004015e0     0x1950 MinGW-w64R/assemble.o
                0x00000000004019b0                ConvertSectionName
                0x0000000000401ad0                OutputByte
                0x0000000000401b90                OutputBinBytes
                0x0000000000401c90                FillDataBytes
                0x0000000000401cd0                OutputBytes
                0x0000000000401dd0                SetCurrOffset
                0x0000000000401ec0                WritePreprocessedLine
                0x0000000000401f40                SetMasm510
                0x0000000000401fc0                close_files
                0x00000000004020e0                AssembleModule
 .text          0x0000000000402f30      0xd90 MinGW-w64R/assume.o
                0x0000000000402f30                SetSegAssumeTable
                0x0000000000402fc0                GetSegAssumeTable
                0x0000000000403050                SetStdAssumeTable
                0x00000000004030c0                GetStdAssumeTable
                0x0000000000403130                AssumeSaveState
                0x00000000004031f0                AssumeInit
                0x0000000000403340                ModelAssumeInit
                0x0000000000403470                GetStdAssume
                0x00000000004034a0                GetStdAssumeEx
                0x00000000004034c0                AssumeDirective
                0x0000000000403a80                search_assume
                0x0000000000403ba0                GetOverrideAssume
                0x0000000000403bd0                GetAssume
 .text          0x0000000000403cc0      0x1f0 MinGW-w64R/atofloat.o
                0x0000000000403cc0                atofloat
 .text          0x0000000000403eb0      0x2f0 MinGW-w64R/backptch.o
                0x0000000000403eb0                BackPatch
 .text          0x00000000004041a0     0x2720 MinGW-w64R/bin.o
                0x00000000004066e0                pe_create_PE_header
                0x0000000000406870                bin_init
 .text          0x00000000004068c0      0xc90 MinGW-w64R/branch.o
                0x00000000004069c0                process_branch
 .text          0x0000000000407550      0xf40 MinGW-w64R/cmdline.o
                0x0000000000407d30                ParseCmdline
                0x00000000004083f0                CmdlineFini
 .text          0x0000000000408490     0x36b0 MinGW-w64R/codegen.o
                0x0000000000408820                GetByteDisp
                0x00000000004089d0                Check4CompDisp8
                0x000000000040b890                codegen
 .text          0x000000000040bb40     0x20c0 MinGW-w64R/coff.o
                0x000000000040dbf0                coff_init
 .text          0x000000000040dc00     0x1130 MinGW-w64R/condasm.o
                0x000000000040dc80                conditional_assembly_prepare
                0x000000000040dde0                CondAsmDirective
                0x000000000040e550                ErrorDirective
                0x000000000040ecc0                CondCheckOpen
                0x000000000040ecf0                GetIfNestLevel
                0x000000000040ed00                SetIfNestLevel
                0x000000000040ed10                CondInit
 .text          0x000000000040ed30      0x630 MinGW-w64R/context.o
                0x000000000040ed30                ContextDirective
                0x000000000040f220                ContextSaveState
                0x000000000040f2b0                ContextInit
 .text          0x000000000040f360      0x8f0 MinGW-w64R/cpumodel.o
                0x000000000040f5b0                ModelDirective
                0x000000000040f930                SetCPU
                0x000000000040fc10                CpuDirective
 .text          0x000000000040fc50     0x21f0 MinGW-w64R/data.o
                0x00000000004117c0                data_dir
 .text          0x0000000000411e40     0x1b60 MinGW-w64R/dbgcv.o
                0x00000000004128e0                cv_write_debug_tables
 .text          0x00000000004139a0      0x980 MinGW-w64R/directiv.o
                0x00000000004139a0                StubDir
                0x00000000004139b0                IncludeDirective
                0x0000000000413a90                IncBinDirective
                0x0000000000413d70                AliasDirective
                0x0000000000413f50                RadixDirective
                0x0000000000414060                SegOrderDirective
                0x0000000000414120                EchoDirective
                0x0000000000414170                NameDirective
                0x00000000004141e0                IncludeLibDirective
 .text          0x0000000000414320     0x1950 MinGW-w64R/elf.o
                0x0000000000415c50                elf_init
 .text          0x0000000000415c70      0x660 MinGW-w64R/end.o
                0x0000000000415c70                StartupExitDirective
                0x0000000000416020                EndDirective
 .text          0x00000000004162d0      0xa00 MinGW-w64R/equate.o
                0x0000000000416400                EqualSgnDirective
                0x0000000000416790                CreateVariable
                0x0000000000416890                CreateConstant
                0x0000000000416c70                EquDirective
 .text          0x0000000000416cd0      0x610 MinGW-w64R/errmsg.o
                0x0000000000416ee0                write_logo
                0x0000000000416f00                PrintUsage
                0x0000000000416f70                ErrnoStr
                0x0000000000416fc0                Fatal
                0x0000000000417030                EmitErr
                0x00000000004171e0                PrintNote
                0x0000000000417220                EmitWarn
                0x00000000004172a0                EmitError
                0x00000000004172b0                WriteError
 .text          0x00000000004172e0     0x2d90 MinGW-w64R/expans.o
                0x00000000004175e0                myltoa
                0x0000000000417690                ExpandLine
                0x0000000000417b60                ExpandText
                0x0000000000418220                RunMacro
                0x0000000000419eb0                ExpandLineItems
                0x0000000000419fc0                ExpandLiterals
 .text          0x000000000041a070     0x4590 MinGW-w64R/expreval.o
                0x000000000041ba30                myatoi128
                0x000000000041e340                EvalOperand
                0x000000000041e590                EmitConstError
                0x000000000041e5d0                ExprEvalInit
 .text          0x000000000041e600     0x17b0 MinGW-w64R/extern.o
                0x000000000041e910                ExterndefDirective
                0x000000000041ef30                ProtoDirective
                0x000000000041efc0                MakeExtern
                0x000000000041f050                ExternDirective
                0x000000000041f610                CommDirective
                0x000000000041fb00                AddPublicData
                0x000000000041fb20                FreePubQueue
                0x000000000041fb30                PublicDirective
 .text          0x000000000041fdb0      0x3f0 MinGW-w64R/fastpass.o
                0x000000000041fdb0                StoreLine
                0x0000000000420040                SkipSavedState
                0x0000000000420050                SaveVariableState
                0x00000000004200d0                RestoreState
                0x0000000000420170                FastpassInit
 .text          0x00000000004201a0      0x2d0 MinGW-w64R/fixup.o
                0x00000000004201a0                CreateFixup
                0x0000000000420260                FreeFixup
                0x00000000004202c0                SetFixupFrame
                0x0000000000420370                store_fixup
 .text          0x0000000000420470      0x180 MinGW-w64R/fpfixup.o
                0x0000000000420470                AddFloatingPointEmulationFixup
 .text          0x00000000004205f0     0x3450 MinGW-w64R/hll.o
                0x0000000000422660                HllStartDir
                0x0000000000423000                HllEndDir
                0x00000000004235e0                HllExitDir
                0x00000000004239f0                HllCheckOpen
                0x0000000000423a20                HllInit
 .text          0x0000000000423a40      0xe20 MinGW-w64R/input.o
                0x0000000000423bd0                GetFNamePart
                0x0000000000423c20                GetExtPart
                0x0000000000423c90                GetFName
                0x0000000000423cb0                ClearSrcStack
                0x0000000000423d20                UpdateLineNumber
                0x0000000000423d60                GetLineNumber
                0x0000000000423da0                PushMacro
                0x0000000000423db0                get_curr_srcfile
                0x0000000000423df0                set_curr_srcfile
                0x0000000000423e10                SetLineNumber
                0x0000000000423e30                GetCurrSrcPos
                0x0000000000423e90                print_source_nesting_structure
                0x0000000000424000                SearchFile
                0x0000000000424320                GetTextLine
                0x00000000004244e0                AddStringToIncludePath
                0x00000000004245b0                PushInputStatus
                0x0000000000424680                PopInputStatus
                0x0000000000424720                InputInit
                0x00000000004247c0                InputPassInit
                0x0000000000424800                InputFini
 .text          0x0000000000424860     0x35b0 MinGW-w64R/invoke.o
                0x0000000000427700                InvokeDirective
 .text          0x0000000000427e10      0x5a0 MinGW-w64R/label.o
                0x0000000000427e10                LabelInit
                0x0000000000427e30                GetAnonymousLabel
                0x0000000000427e60                CreateLabel
                0x0000000000428130                LabelDirective
 .text          0x00000000004283b0      0x460 MinGW-w64R/linnum.o
                0x0000000000428450                AddLinnumDataRef
                0x00000000004287b0                QueueDeleteLinnum
                0x00000000004287d0                LinnumFini
                0x00000000004287f0                LinnumInit
 .text          0x0000000000428810     0x2140 MinGW-w64R/listing.o
                0x0000000000428b60                LstWrite
                0x0000000000429250                LstWriteSrcLine
                0x0000000000429260                LstPrintf
                0x00000000004292b0                LstNL
                0x0000000000429fc0                LstSetPosition
                0x000000000042a030                LstWriteCRef
                0x000000000042a5d0                ListingDirective
                0x000000000042a850                ListMacroDirective
                0x000000000042a8a0                LstInit
 .text          0x000000000042a950      0x820 MinGW-w64R/loop.o
                0x000000000042a950                LoopDirective
 .text          0x000000000042b170      0x350 MinGW-w64R/lqueue.o
                0x000000000042b170                DeleteLineQueue
                0x000000000042b1c0                AddLineQueue
                0x000000000042b240                AddLineQueueX
                0x000000000042b400                RunLineQueue
 .text          0x000000000042b4c0     0x12b0 MinGW-w64R/macro.o
                0x000000000042b520                fill_placeholders
                0x000000000042b650                StoreMacro
                0x000000000042c400                CreateMacro
                0x000000000042c470                ReleaseMacroData
                0x000000000042c4d0                MacroDir
                0x000000000042c600                PurgeDirective
                0x000000000042c6e0                MacroInit
 .text          0x000000000042c770      0x270 MinGW-w64R/mangle.o
                0x000000000042c930                Mangle
                0x000000000042c9d0                SetMangler
 .text          0x000000000042c9e0      0x170 MinGW-w64R/memalloc.o
                0x000000000042c9e0                MemInit
                0x000000000042ca00                MemFini
                0x000000000042ca50                LclAlloc
                0x000000000042cb10                MemAlloc
                0x000000000042cb40                MemFree
 .text          0x000000000042cb50       0x50 MinGW-w64R/msgtext.o
                0x000000000042cb50                MsgGetEx
 .text          0x000000000042cba0     0x1f90 MinGW-w64R/omf.o
                0x000000000042e6c0                omf_GetGrpIdx
                0x000000000042e6e0                omf_OutSelect
                0x000000000042e8d0                omf_FlushCurrSeg
                0x000000000042e9f0                omf_check_flush
                0x000000000042eac0                omf_set_filepos
                0x000000000042eae0                omf_init
 .text          0x000000000042eb30      0x570 MinGW-w64R/omffixup.o
                0x000000000042ebf0                OmfFixGenFixModend
                0x000000000042eca0                OmfFixGenFix
 .text          0x000000000042f0a0      0x7b0 MinGW-w64R/omfint.o
                0x000000000042f810                omf_write_record
 .text          0x000000000042f850     0x1490 MinGW-w64R/option.o
                0x0000000000430b70                OptionDirective
 .text          0x0000000000430ce0     0x5040 MinGW-w64R/parser.o
                0x0000000000431830                sym_add_table
                0x0000000000431870                sym_remove_table
                0x00000000004318d0                sym_ext2int
                0x0000000000431970                GetLangType
                0x00000000004319b0                SizeFromRegister
                0x0000000000431a50                SizeFromMemtype
                0x0000000000431a70                MemtypeFromSize
                0x0000000000431ae0                OperandSize
                0x0000000000431bd0                set_frame
                0x0000000000431bf0                set_frame2
                0x0000000000431c10                segm_override
                0x0000000000432d80                idata_fixup
                0x0000000000433820                ParseLine
                0x0000000000435ca0                ProcessFile
 .text          0x0000000000435d20      0x5a0 MinGW-w64R/posndir.o
                0x0000000000435e40                OrgDirective
                0x0000000000435fc0                AlignCurrOffset
                0x0000000000435ff0                AlignDirective
 .text          0x00000000004362c0      0x330 MinGW-w64R/preproc.o
                0x00000000004362c0                WriteCodeLabel
                0x0000000000436380                PreprocessLine
 .text          0x00000000004365f0     0x51d0 MinGW-w64R/proc.o
                0x0000000000437a80                LocalDir
                0x0000000000437ef0                UpdateStackBase
                0x0000000000437f30                UpdateProcStatus
                0x0000000000437f50                ParseProc
                0x00000000004390e0                CreateProc
                0x0000000000439240                DeleteProc
                0x0000000000439280                ProcDir
                0x0000000000439840                CopyPrototype
                0x00000000004399e0                EndpDir
                0x0000000000439a70                ExcFrameDirective
                0x000000000043a180                ProcCheckOpen
                0x000000000043a1d0                write_prologue
                0x000000000043ad80                RetInstr
                0x000000000043b740                ProcInit
 .text          0x000000000043b7c0       0x90 MinGW-w64R/queue.o
                0x000000000043b7c0                QEnqueue
                0x000000000043b7f0                QAddItem
 .text          0x000000000043b850      0xa50 MinGW-w64R/reswords.o
                0x000000000043ba40                FindResWord
                0x000000000043bb30                RenameKeyword
                0x000000000043bce0                Set64Bit
                0x000000000043bfe0                DisableKeyword
                0x000000000043c070                IsKeywordDisabled
                0x000000000043c0f0                GetResWName
                0x000000000043c140                ResWordsInit
                0x000000000043c1d0                ResWordsFini
 .text          0x000000000043c2a0      0x180 MinGW-w64R/safeseh.o
                0x000000000043c2a0                SafeSEHDirective
 .text          0x000000000043c420     0x1e80 MinGW-w64R/segment.o
                0x000000000043c850                UpdateCurPC
                0x000000000043c8c0                GetCurrOffset
                0x000000000043c8f0                GetCurrSegAlign
                0x000000000043c930                DeleteGroup
                0x000000000043c940                GrpDir
                0x000000000043cc10                UpdateWordSize
                0x000000000043cc30                SetOfssize
                0x000000000043ccd0                DefineFlatGroup
                0x000000000043cd20                GetSegIdx
                0x000000000043cd40                GetGroup
                0x000000000043cd60                GetSymOfssize
                0x000000000043cdd0                SetSymSegOfs
                0x000000000043ce00                TypeFromClassName
                0x000000000043cf70                CreateIntSegment
                0x000000000043d080                EndsDir
                0x000000000043d130                SegmentDir
                0x000000000043ddf0                SortSegments
                0x000000000043df10                SegmentModuleExit
                0x000000000043df70                SegmentFini
                0x000000000043dfc0                SegmentInit
                0x000000000043e240                SegmentSaveState
 .text          0x000000000043e2a0      0x8c0 MinGW-w64R/simsegm.o
                0x000000000043e4f0                SimGetSegName
                0x000000000043e500                GetCodeClass
                0x000000000043e520                SimplifiedSegDir
                0x000000000043e890                SetModelDefaultSegNames
                0x000000000043ea10                ModelSimSegmInit
                0x000000000043eb10                ModelSimSegmExit
 .text          0x000000000043eb60      0xf70 MinGW-w64R/string.o
                0x000000000043ef10                TextItemError
                0x000000000043ef80                CatStrDir
                0x000000000043f170                SetTextMacro
                0x000000000043f2e0                AddPredefinedText
                0x000000000043f320                SubStrDir
                0x000000000043f600                SizeStrDir
                0x000000000043f6a0                InStrDir
                0x000000000043f8e0                StringInit
 .text          0x000000000043fad0      0x9d0 MinGW-w64R/symbols.o
                0x000000000043fad0                SymSetCmpFunc
                0x000000000043fb00                SymClearLocal
                0x000000000043fb20                SymGetLocal
                0x000000000043fb60                SymSetLocal
                0x000000000043fc00                SymAlloc
                0x000000000043fd00                SymFind
                0x000000000043fea0                SymLookup
                0x000000000043fee0                SymLookupLocal
                0x000000000043ff50                SymFree
                0x000000000043ffd0                SymAddLocal
                0x0000000000440060                SymAddGlobal
                0x00000000004400c0                SymCreate
                0x0000000000440110                SymLCreate
                0x0000000000440160                SymMakeAllSymbolsPublic
                0x00000000004401e0                SymFini
                0x00000000004401f0                SymInit
                0x0000000000440380                SymPassInit
                0x00000000004403e0                SymGetCount
                0x00000000004403f0                SymGetAll
                0x0000000000440430                SymEnum
 .text          0x00000000004404a0      0x870 MinGW-w64R/tbyte.o
                0x0000000000440500                strtotb
 .text          0x0000000000440d10     0x19a0 MinGW-w64R/tokenize.o
                0x0000000000440e00                get_broads
                0x0000000000440f00                get_decos
                0x0000000000441360                GetToken
                0x0000000000442170                Tokenize
 .text          0x00000000004426b0     0x1f80 MinGW-w64R/types.o
                0x0000000000442750                TypesInit
                0x0000000000442770                CreateTypeSymbol
                0x00000000004427f0                SearchNameInStruct
                0x0000000000442980                StructDirective
                0x0000000000442e20                CreateStructField
                0x0000000000443290                EndstructDirective
                0x00000000004435d0                AlignInStruct
                0x0000000000443600                UpdateStructSize
                0x0000000000443630                SetStructCurrentOffset
                0x0000000000443660                GetQualifiedType
                0x0000000000443a80                TypedefDirective
                0x0000000000443fc0                RecordDirective
                0x0000000000444610                DeleteType
 .text          0x0000000000444630       0xd0 C:/Program Files/mingw-w64/x86_64-5.3.0-posix-seh-rt_v4-rev0/mingw64/bin/../lib/gcc/x86_64-w64-mingw32/5.3.0/../../../../x86_64-w64-mingw32/lib/../lib/libmingw32.a(lib64_libmingw32_a-atonexit.o)
                0x0000000000444630                mingw_onexit
                0x00000000004446e0                atexit
 .text          0x0000000000444700       0xc0 C:/Program Files/mingw-w64/x86_64-5.3.0-posix-seh-rt_v4-rev0/mingw64/bin/../lib/gcc/x86_64-w64-mingw32/5.3.0/../../../../x86_64-w64-mingw32/lib/../lib/libmingw32.a(lib64_libmingw32_a-gccmain.o)
                0x0000000000444700                __do_global_dtors
                0x0000000000444740                __do_global_ctors
                0x00000000004447a0                __main
 .text          0x00000000004447c0        0x0 C:/Program Files/mingw-w64/x86_64-5.3.0-posix-seh-rt_v4-rev0/mingw64/bin/../lib/gcc/x86_64-w64-mingw32/5.3.0/../../../../x86_64-w64-mingw32/lib/../lib/libmingw32.a(lib64_libmingw32_a-natstart.o)
 .text          0x00000000004447c0        0x0 C:/Program Files/mingw-w64/x86_64-5.3.0-posix-seh-rt_v4-rev0/mingw64/bin/../lib/gcc/x86_64-w64-mingw32/5.3.0/../../../../x86_64-w64-mingw32/lib/../lib/libmingw32.a(lib64_libmingw32_a-wildcard.o)
 .text          0x00000000004447c0       0x10 C:/Program Files/mingw-w64/x86_64-5.3.0-posix-seh-rt_v4-rev0/mingw64/bin/../lib/gcc/x86_64-w64-mingw32/5.3.0/../../../../x86_64-w64-mingw32/lib/../lib/libmingw32.a(lib64_libmingw32_a-charmax.o)
 .text          0x00000000004447d0       0x10 C:/Program Files/mingw-w64/x86_64-5.3.0-posix-seh-rt_v4-rev0/mingw64/bin/../lib/gcc/x86_64-w64-mingw32/5.3.0/../../../../x86_64-w64-mingw32/lib/../lib/libmingw32.a(lib64_libmingw32_a-dllargv.o)
                0x00000000004447d0                _setargv
 .text          0x00000000004447e0      0x1e0 C:/Program Files/mingw-w64/x86_64-5.3.0-posix-seh-rt_v4-rev0/mingw64/bin/../lib/gcc/x86_64-w64-mingw32/5.3.0/../../../../x86_64-w64-mingw32/lib/../lib/libmingw32.a(lib64_libmingw32_a-gs_support.o)
                0x00000000004447e0                __security_init_cookie
                0x00000000004448c0                __report_gsfailure
 .text          0x00000000004449c0        0x0 C:/Program Files/mingw-w64/x86_64-5.3.0-posix-seh-rt_v4-rev0/mingw64/bin/../lib/gcc/x86_64-w64-mingw32/5.3.0/../../../../x86_64-w64-mingw32/lib/../lib/libmingw32.a(lib64_libmingw32_a-_newmode.o)
 .text          0x00000000004449c0       0xb0 C:/Program Files/mingw-w64/x86_64-5.3.0-posix-seh-rt_v4-rev0/mingw64/bin/../lib/gcc/x86_64-w64-mingw32/5.3.0/../../../../x86_64-w64-mingw32/lib/../lib/libmingw32.a(lib64_libmingw32_a-tlssup.o)
                0x00000000004449f0                __dyn_tls_init
                0x0000000000444a60                __tlregdtor
 .text          0x0000000000444a70        0x0 C:/Program Files/mingw-w64/x86_64-5.3.0-posix-seh-rt_v4-rev0/mingw64/bin/../lib/gcc/x86_64-w64-mingw32/5.3.0/../../../../x86_64-w64-mingw32/lib/../lib/libmingw32.a(lib64_libmingw32_a-cinitexe.o)
 .text          0x0000000000444a70      0x160 C:/Program Files/mingw-w64/x86_64-5.3.0-posix-seh-rt_v4-rev0/mingw64/bin/../lib/gcc/x86_64-w64-mingw32/5.3.0/../../../../x86_64-w64-mingw32/lib/../lib/libmingw32.a(lib64_libmingw32_a-merr.o)
                0x0000000000444a70                __mingw_raise_matherr
                0x0000000000444ac0                __mingw_setusermatherr
                0x0000000000444ad0                _matherr
 .text          0x0000000000444bd0       0x10 C:/Program Files/mingw-w64/x86_64-5.3.0-posix-seh-rt_v4-rev0/mingw64/bin/../lib/gcc/x86_64-w64-mingw32/5.3.0/../../../../x86_64-w64-mingw32/lib/../lib/libmingw32.a(lib64_libmingw32_a-CRT_fp10.o)
                0x0000000000444bd0                fpreset
                0x0000000000444bd0                _fpreset
 .text          0x0000000000444be0       0x20 C:/Program Files/mingw-w64/x86_64-5.3.0-posix-seh-rt_v4-rev0/mingw64/bin/../lib/gcc/x86_64-w64-mingw32/5.3.0/../../../../x86_64-w64-mingw32/lib/../lib/libmingw32.a(lib64_libmingw32_a-mingw_helpers.o)
                0x0000000000444be0                _decode_pointer
                0x0000000000444bf0                _encode_pointer
 .text          0x0000000000444c00      0x4e0 C:/Program Files/mingw-w64/x86_64-5.3.0-posix-seh-rt_v4-rev0/mingw64/bin/../lib/gcc/x86_64-w64-mingw32/5.3.0/../../../../x86_64-w64-mingw32/lib/../lib/libmingw32.a(lib64_libmingw32_a-pseudo-reloc.o)
                0x0000000000444de0                _pei386_runtime_relocator
 .text          0x00000000004450e0        0x0 C:/Program Files/mingw-w64/x86_64-5.3.0-posix-seh-rt_v4-rev0/mingw64/bin/../lib/gcc/x86_64-w64-mingw32/5.3.0/../../../../x86_64-w64-mingw32/lib/../lib/libmingw32.a(lib64_libmingw32_a-xtxtmode.o)
 .text          0x00000000004450e0      0x460 C:/Program Files/mingw-w64/x86_64-5.3.0-posix-seh-rt_v4-rev0/mingw64/bin/../lib/gcc/x86_64-w64-mingw32/5.3.0/../../../../x86_64-w64-mingw32/lib/../lib/libmingw32.a(lib64_libmingw32_a-crt_handler.o)
                0x00000000004450e0                __mingw_SEH_error_handler
                0x0000000000445290                __mingw_init_ehandler
                0x0000000000445380                _gnu_exception_handler
 .text          0x0000000000445540      0x270 C:/Program Files/mingw-w64/x86_64-5.3.0-posix-seh-rt_v4-rev0/mingw64/bin/../lib/gcc/x86_64-w64-mingw32/5.3.0/../../../../x86_64-w64-mingw32/lib/../lib/libmingw32.a(lib64_libmingw32_a-tlsthrd.o)
                0x00000000004455b0                ___w64_mingwthr_add_key_dtor
                0x0000000000445630                ___w64_mingwthr_remove_key_dtor
                0x00000000004456d0                __mingw_TLScallback
 .text          0x00000000004457b0        0x0 C:/Program Files/mingw-w64/x86_64-5.3.0-posix-seh-rt_v4-rev0/mingw64/bin/../lib/gcc/x86_64-w64-mingw32/5.3.0/../../../../x86_64-w64-mingw32/lib/../lib/libmingw32.a(lib64_libmingw32_a-tlsmcrt.o)
 .text          0x00000000004457b0        0x0 C:/Program Files/mingw-w64/x86_64-5.3.0-posix-seh-rt_v4-rev0/mingw64/bin/../lib/gcc/x86_64-w64-mingw32/5.3.0/../../../../x86_64-w64-mingw32/lib/../lib/libmingw32.a(lib64_libmingw32_a-pseudo-reloc-list.o)
 .text          0x00000000004457b0      0x3a0 C:/Program Files/mingw-w64/x86_64-5.3.0-posix-seh-rt_v4-rev0/mingw64/bin/../lib/gcc/x86_64-w64-mingw32/5.3.0/../../../../x86_64-w64-mingw32/lib/../lib/libmingw32.a(lib64_libmingw32_a-pesect.o)
                0x00000000004457d0                _ValidateImageBase
                0x00000000004457f0                _FindPESection
                0x0000000000445840                _FindPESectionByName
                0x00000000004458e0                __mingw_GetSectionForAddress
                0x0000000000445930                __mingw_GetSectionCount
                0x0000000000445970                _FindPESectionExec
                0x0000000000445a00                _GetPEImageBase
                0x0000000000445a40                _IsNonwritableInCurrentImage
                0x0000000000445aa0                __mingw_enum_import_library_names
 .text          0x0000000000445b50       0x40 C:/Program Files/mingw-w64/x86_64-5.3.0-posix-seh-rt_v4-rev0/mingw64/bin/../lib/gcc/x86_64-w64-mingw32/5.3.0/libgcc.a(_chkstk_ms.o)
                0x0000000000445b50                ___chkstk_ms
 .text          0x0000000000445b90        0x0 C:/Program Files/mingw-w64/x86_64-5.3.0-posix-seh-rt_v4-rev0/mingw64/bin/../lib/gcc/x86_64-w64-mingw32/5.3.0/libgcc.a(_ctors.o)
 .text          0x0000000000445b90       0xe0 C:/Program Files/mingw-w64/x86_64-5.3.0-posix-seh-rt_v4-rev0/mingw64/bin/../lib/gcc/x86_64-w64-mingw32/5.3.0/../../../../x86_64-w64-mingw32/lib/../lib/libmingwex.a(lib64_libmingwex_a-strtodnrp.o)
                0x0000000000445b90                __mingw_strtod
                0x0000000000445b90                __strtod
 .text          0x0000000000445c70       0x10 C:/Program Files/mingw-w64/x86_64-5.3.0-posix-seh-rt_v4-rev0/mingw64/bin/../lib/gcc/x86_64-w64-mingw32/5.3.0/../../../../x86_64-w64-mingw32/lib/../lib/libmingwex.a(lib64_libmingwex_a-mingw_getsp.o)
                0x0000000000445c70                mingw_getsp
                0x0000000000445c76                longjmp
 .text          0x0000000000445c80        0x0 C:/Program Files/mingw-w64/x86_64-5.3.0-posix-seh-rt_v4-rev0/mingw64/bin/../lib/gcc/x86_64-w64-mingw32/5.3.0/../../../../x86_64-w64-mingw32/lib/../lib/libmingwex.a(lib64_libmingwex_a-mingw_matherr.o)
 .text          0x0000000000445c80     0x20a0 C:/Program Files/mingw-w64/x86_64-5.3.0-posix-seh-rt_v4-rev0/mingw64/bin/../lib/gcc/x86_64-w64-mingw32/5.3.0/../../../../x86_64-w64-mingw32/lib/../lib/libmingwex.a(lib64_libmingwex_a-strtodg.o)
                0x0000000000445c80                __increment_D2A
                0x00000000004460f0                __decrement_D2A
                0x0000000000446130                __set_ones_D2A
                0x00000000004461e0                __strtodg
 .text          0x0000000000447d20      0x160 C:/Program Files/mingw-w64/x86_64-5.3.0-posix-seh-rt_v4-rev0/mingw64/bin/../lib/gcc/x86_64-w64-mingw32/5.3.0/../../../../x86_64-w64-mingw32/lib/../lib/libmingwex.a(lib64_libmingwex_a-sum.o)
                0x0000000000447d20                __sum_D2A
 .text          0x0000000000447e80      0x8d0 C:/Program Files/mingw-w64/x86_64-5.3.0-posix-seh-rt_v4-rev0/mingw64/bin/../lib/gcc/x86_64-w64-mingw32/5.3.0/../../../../x86_64-w64-mingw32/lib/../lib/libmingwex.a(lib64_libmingwex_a-gethex.o)
                0x0000000000447e80                __gethex_D2A
 .text          0x0000000000448750      0x140 C:/Program Files/mingw-w64/x86_64-5.3.0-posix-seh-rt_v4-rev0/mingw64/bin/../lib/gcc/x86_64-w64-mingw32/5.3.0/../../../../x86_64-w64-mingw32/lib/../lib/libmingwex.a(lib64_libmingwex_a-gmisc.o)
                0x0000000000448750                __rshift_D2A
                0x0000000000448850                __trailz_D2A
 .text          0x0000000000448890       0x90 C:/Program Files/mingw-w64/x86_64-5.3.0-posix-seh-rt_v4-rev0/mingw64/bin/../lib/gcc/x86_64-w64-mingw32/5.3.0/../../../../x86_64-w64-mingw32/lib/../lib/libmingwex.a(lib64_libmingwex_a-hd_init.o)
                0x0000000000448890                __mingw_hexdig_init_D2A
 .text          0x0000000000448920      0x3c0 C:/Program Files/mingw-w64/x86_64-5.3.0-posix-seh-rt_v4-rev0/mingw64/bin/../lib/gcc/x86_64-w64-mingw32/5.3.0/../../../../x86_64-w64-mingw32/lib/../lib/libmingwex.a(lib64_libmingwex_a-hexnan.o)
                0x0000000000448920                __hexnan_D2A
 .text          0x0000000000448ce0      0xb30 C:/Program Files/mingw-w64/x86_64-5.3.0-posix-seh-rt_v4-rev0/mingw64/bin/../lib/gcc/x86_64-w64-mingw32/5.3.0/../../../../x86_64-w64-mingw32/lib/../lib/libmingwex.a(lib64_libmingwex_a-misc.o)
                0x0000000000448e00                __Balloc_D2A
                0x0000000000448f10                __Bfree_D2A
                0x0000000000448f80                __multadd_D2A
                0x0000000000449040                __i2b_D2A
                0x0000000000449070                __mult_D2A
                0x00000000004491a0                __pow5mult_D2A
                0x0000000000449310                __lshift_D2A
                0x0000000000449430                __cmp_D2A
                0x0000000000449480                __diff_D2A
                0x00000000004495c0                __b2d_D2A
                0x00000000004496e0                __d2b_D2A
                0x00000000004497e0                __strcp_D2A
 .text          0x0000000000449810      0x310 C:/Program Files/mingw-w64/x86_64-5.3.0-posix-seh-rt_v4-rev0/mingw64/bin/../lib/gcc/x86_64-w64-mingw32/5.3.0/../../../../x86_64-w64-mingw32/lib/../lib/libmingwex.a(lib64_libmingwex_a-smisc.o)
                0x0000000000449810                __s2b_D2A
                0x0000000000449910                __ratio_D2A
                0x00000000004499d0                __match_D2A
                0x0000000000449a20                __copybits_D2A
                0x0000000000449a90                __any_on_D2A
 .text          0x0000000000449b20        0x8 C:/Program Files/mingw-w64/x86_64-5.3.0-posix-seh-rt_v4-rev0/mingw64/bin/../lib/gcc/x86_64-w64-mingw32/5.3.0/../../../../x86_64-w64-mingw32/lib/../lib/libmsvcrt.a(dkpfs01245.o)
                0x0000000000449b20                vsprintf
 .text          0x0000000000449b28        0x8 C:/Program Files/mingw-w64/x86_64-5.3.0-posix-seh-rt_v4-rev0/mingw64/bin/../lib/gcc/x86_64-w64-mingw32/5.3.0/../../../../x86_64-w64-mingw32/lib/../lib/libmsvcrt.a(dkpfs01239.o)
                0x0000000000449b28                vfprintf
 .text          0x0000000000449b30        0x8 C:/Program Files/mingw-w64/x86_64-5.3.0-posix-seh-rt_v4-rev0/mingw64/bin/../lib/gcc/x86_64-w64-mingw32/5.3.0/../../../../x86_64-w64-mingw32/lib/../lib/libmsvcrt.a(dkpfs01233.o)
                0x0000000000449b30                tolower
 .text          0x0000000000449b38        0x8 C:/Program Files/mingw-w64/x86_64-5.3.0-posix-seh-rt_v4-rev0/mingw64/bin/../lib/gcc/x86_64-w64-mingw32/5.3.0/../../../../x86_64-w64-mingw32/lib/../lib/libmsvcrt.a(dkpfs01215.o)
                0x0000000000449b38                strstr
 .text          0x0000000000449b40        0x8 C:/Program Files/mingw-w64/x86_64-5.3.0-posix-seh-rt_v4-rev0/mingw64/bin/../lib/gcc/x86_64-w64-mingw32/5.3.0/../../../../x86_64-w64-mingw32/lib/../lib/libmsvcrt.a(dkpfs01208.o)
                0x0000000000449b40                strncpy
 .text          0x0000000000449b48        0x8 C:/Program Files/mingw-w64/x86_64-5.3.0-posix-seh-rt_v4-rev0/mingw64/bin/../lib/gcc/x86_64-w64-mingw32/5.3.0/../../../../x86_64-w64-mingw32/lib/../lib/libmsvcrt.a(dkpfs01207.o)
                0x0000000000449b48                strncmp
 .text          0x0000000000449b50        0x8 C:/Program Files/mingw-w64/x86_64-5.3.0-posix-seh-rt_v4-rev0/mingw64/bin/../lib/gcc/x86_64-w64-mingw32/5.3.0/../../../../x86_64-w64-mingw32/lib/../lib/libmsvcrt.a(dkpfs01204.o)
                0x0000000000449b50                strlen
 .text          0x0000000000449b58        0x8 C:/Program Files/mingw-w64/x86_64-5.3.0-posix-seh-rt_v4-rev0/mingw64/bin/../lib/gcc/x86_64-w64-mingw32/5.3.0/../../../../x86_64-w64-mingw32/lib/../lib/libmsvcrt.a(dkpfs01199.o)
                0x0000000000449b58                strcpy
 .text          0x0000000000449b60        0x8 C:/Program Files/mingw-w64/x86_64-5.3.0-posix-seh-rt_v4-rev0/mingw64/bin/../lib/gcc/x86_64-w64-mingw32/5.3.0/../../../../x86_64-w64-mingw32/lib/../lib/libmsvcrt.a(dkpfs01197.o)
                0x0000000000449b60                strcmp
 .text          0x0000000000449b68        0x8 C:/Program Files/mingw-w64/x86_64-5.3.0-posix-seh-rt_v4-rev0/mingw64/bin/../lib/gcc/x86_64-w64-mingw32/5.3.0/../../../../x86_64-w64-mingw32/lib/../lib/libmsvcrt.a(dkpfs01196.o)
                0x0000000000449b68                strchr
 .text          0x0000000000449b70        0x8 C:/Program Files/mingw-w64/x86_64-5.3.0-posix-seh-rt_v4-rev0/mingw64/bin/../lib/gcc/x86_64-w64-mingw32/5.3.0/../../../../x86_64-w64-mingw32/lib/../lib/libmsvcrt.a(dkpfs01194.o)
                0x0000000000449b70                strcat
 .text          0x0000000000449b78        0x8 C:/Program Files/mingw-w64/x86_64-5.3.0-posix-seh-rt_v4-rev0/mingw64/bin/../lib/gcc/x86_64-w64-mingw32/5.3.0/../../../../x86_64-w64-mingw32/lib/../lib/libmsvcrt.a(dkpfs01188.o)
                0x0000000000449b78                sprintf
 .text          0x0000000000449b80        0x8 C:/Program Files/mingw-w64/x86_64-5.3.0-posix-seh-rt_v4-rev0/mingw64/bin/../lib/gcc/x86_64-w64-mingw32/5.3.0/../../../../x86_64-w64-mingw32/lib/../lib/libmsvcrt.a(dkpfs01183.o)
                0x0000000000449b80                signal
 .text          0x0000000000449b88        0x8 C:/Program Files/mingw-w64/x86_64-5.3.0-posix-seh-rt_v4-rev0/mingw64/bin/../lib/gcc/x86_64-w64-mingw32/5.3.0/../../../../x86_64-w64-mingw32/lib/../lib/libmsvcrt.a(dkpfs01176.o)
                0x0000000000449b88                rewind
 .text          0x0000000000449b90        0x8 C:/Program Files/mingw-w64/x86_64-5.3.0-posix-seh-rt_v4-rev0/mingw64/bin/../lib/gcc/x86_64-w64-mingw32/5.3.0/../../../../x86_64-w64-mingw32/lib/../lib/libmsvcrt.a(dkpfs01174.o)
                0x0000000000449b90                remove
 .text          0x0000000000449b98        0x8 C:/Program Files/mingw-w64/x86_64-5.3.0-posix-seh-rt_v4-rev0/mingw64/bin/../lib/gcc/x86_64-w64-mingw32/5.3.0/../../../../x86_64-w64-mingw32/lib/../lib/libmsvcrt.a(dkpfs01169.o)
                0x0000000000449b98                qsort
 .text          0x0000000000449ba0        0x8 C:/Program Files/mingw-w64/x86_64-5.3.0-posix-seh-rt_v4-rev0/mingw64/bin/../lib/gcc/x86_64-w64-mingw32/5.3.0/../../../../x86_64-w64-mingw32/lib/../lib/libmsvcrt.a(dkpfs01166.o)
                0x0000000000449ba0                puts
 .text          0x0000000000449ba8        0x8 C:/Program Files/mingw-w64/x86_64-5.3.0-posix-seh-rt_v4-rev0/mingw64/bin/../lib/gcc/x86_64-w64-mingw32/5.3.0/../../../../x86_64-w64-mingw32/lib/../lib/libmsvcrt.a(dkpfs01165.o)
                0x0000000000449ba8                putchar
 .text          0x0000000000449bb0        0x8 C:/Program Files/mingw-w64/x86_64-5.3.0-posix-seh-rt_v4-rev0/mingw64/bin/../lib/gcc/x86_64-w64-mingw32/5.3.0/../../../../x86_64-w64-mingw32/lib/../lib/libmsvcrt.a(dkpfs01162.o)
                0x0000000000449bb0                printf
 .text          0x0000000000449bb8        0x8 C:/Program Files/mingw-w64/x86_64-5.3.0-posix-seh-rt_v4-rev0/mingw64/bin/../lib/gcc/x86_64-w64-mingw32/5.3.0/../../../../x86_64-w64-mingw32/lib/../lib/libmsvcrt.a(dkpfs01155.o)
                0x0000000000449bb8                memset
 .text          0x0000000000449bc0        0x8 C:/Program Files/mingw-w64/x86_64-5.3.0-posix-seh-rt_v4-rev0/mingw64/bin/../lib/gcc/x86_64-w64-mingw32/5.3.0/../../../../x86_64-w64-mingw32/lib/../lib/libmsvcrt.a(dkpfs01154.o)
                0x0000000000449bc0                memmove
 .text          0x0000000000449bc8        0x8 C:/Program Files/mingw-w64/x86_64-5.3.0-posix-seh-rt_v4-rev0/mingw64/bin/../lib/gcc/x86_64-w64-mingw32/5.3.0/../../../../x86_64-w64-mingw32/lib/../lib/libmsvcrt.a(dkpfs01153.o)
                0x0000000000449bc8                memcpy
 .text          0x0000000000449bd0        0x8 C:/Program Files/mingw-w64/x86_64-5.3.0-posix-seh-rt_v4-rev0/mingw64/bin/../lib/gcc/x86_64-w64-mingw32/5.3.0/../../../../x86_64-w64-mingw32/lib/../lib/libmsvcrt.a(dkpfs01152.o)
                0x0000000000449bd0                memcmp
 .text          0x0000000000449bd8        0x8 C:/Program Files/mingw-w64/x86_64-5.3.0-posix-seh-rt_v4-rev0/mingw64/bin/../lib/gcc/x86_64-w64-mingw32/5.3.0/../../../../x86_64-w64-mingw32/lib/../lib/libmsvcrt.a(dkpfs01145.o)
                0x0000000000449bd8                malloc
 .text          0x0000000000449be0        0x0 C:/Program Files/mingw-w64/x86_64-5.3.0-posix-seh-rt_v4-rev0/mingw64/bin/../lib/gcc/x86_64-w64-mingw32/5.3.0/../../../../x86_64-w64-mingw32/lib/../lib/libmsvcrt.a(dkpfs01144.o)
 .text          0x0000000000449be0        0x8 C:/Program Files/mingw-w64/x86_64-5.3.0-posix-seh-rt_v4-rev0/mingw64/bin/../lib/gcc/x86_64-w64-mingw32/5.3.0/../../../../x86_64-w64-mingw32/lib/../lib/libmsvcrt.a(dkpfs01138.o)
                0x0000000000449be0                localeconv
 .text          0x0000000000449be8        0x8 C:/Program Files/mingw-w64/x86_64-5.3.0-posix-seh-rt_v4-rev0/mingw64/bin/../lib/gcc/x86_64-w64-mingw32/5.3.0/../../../../x86_64-w64-mingw32/lib/../lib/libmsvcrt.a(dkpfs01118.o)
                0x0000000000449be8                isspace
 .text          0x0000000000449bf0        0x8 C:/Program Files/mingw-w64/x86_64-5.3.0-posix-seh-rt_v4-rev0/mingw64/bin/../lib/gcc/x86_64-w64-mingw32/5.3.0/../../../../x86_64-w64-mingw32/lib/../lib/libmsvcrt.a(dkpfs01110.o)
                0x0000000000449bf0                isalpha
 .text          0x0000000000449bf8        0x8 C:/Program Files/mingw-w64/x86_64-5.3.0-posix-seh-rt_v4-rev0/mingw64/bin/../lib/gcc/x86_64-w64-mingw32/5.3.0/../../../../x86_64-w64-mingw32/lib/../lib/libmsvcrt.a(dkpfs01109.o)
                0x0000000000449bf8                isalnum
 .text          0x0000000000449c00        0x8 C:/Program Files/mingw-w64/x86_64-5.3.0-posix-seh-rt_v4-rev0/mingw64/bin/../lib/gcc/x86_64-w64-mingw32/5.3.0/../../../../x86_64-w64-mingw32/lib/../lib/libmsvcrt.a(dkpfs01102.o)
                0x0000000000449c00                getenv
 .text          0x0000000000449c08        0x8 C:/Program Files/mingw-w64/x86_64-5.3.0-posix-seh-rt_v4-rev0/mingw64/bin/../lib/gcc/x86_64-w64-mingw32/5.3.0/../../../../x86_64-w64-mingw32/lib/../lib/libmsvcrt.a(dkpfs01100.o)
                0x0000000000449c08                getc
 .text          0x0000000000449c10        0x8 C:/Program Files/mingw-w64/x86_64-5.3.0-posix-seh-rt_v4-rev0/mingw64/bin/../lib/gcc/x86_64-w64-mingw32/5.3.0/../../../../x86_64-w64-mingw32/lib/../lib/libmsvcrt.a(dkpfs01097.o)
                0x0000000000449c10                fwrite
 .text          0x0000000000449c18        0x8 C:/Program Files/mingw-w64/x86_64-5.3.0-posix-seh-rt_v4-rev0/mingw64/bin/../lib/gcc/x86_64-w64-mingw32/5.3.0/../../../../x86_64-w64-mingw32/lib/../lib/libmsvcrt.a(dkpfs01094.o)
                0x0000000000449c18                ftell
 .text          0x0000000000449c20        0x8 C:/Program Files/mingw-w64/x86_64-5.3.0-posix-seh-rt_v4-rev0/mingw64/bin/../lib/gcc/x86_64-w64-mingw32/5.3.0/../../../../x86_64-w64-mingw32/lib/../lib/libmsvcrt.a(dkpfs01092.o)
                0x0000000000449c20                fseek
 .text          0x0000000000449c28        0x8 C:/Program Files/mingw-w64/x86_64-5.3.0-posix-seh-rt_v4-rev0/mingw64/bin/../lib/gcc/x86_64-w64-mingw32/5.3.0/../../../../x86_64-w64-mingw32/lib/../lib/libmsvcrt.a(dkpfs01086.o)
                0x0000000000449c28                free
 .text          0x0000000000449c30        0x8 C:/Program Files/mingw-w64/x86_64-5.3.0-posix-seh-rt_v4-rev0/mingw64/bin/../lib/gcc/x86_64-w64-mingw32/5.3.0/../../../../x86_64-w64-mingw32/lib/../lib/libmsvcrt.a(dkpfs01085.o)
                0x0000000000449c30                fread
 .text          0x0000000000449c38        0x8 C:/Program Files/mingw-w64/x86_64-5.3.0-posix-seh-rt_v4-rev0/mingw64/bin/../lib/gcc/x86_64-w64-mingw32/5.3.0/../../../../x86_64-w64-mingw32/lib/../lib/libmsvcrt.a(dkpfs01079.o)
                0x0000000000449c38                fprintf
 .text          0x0000000000449c40        0x8 C:/Program Files/mingw-w64/x86_64-5.3.0-posix-seh-rt_v4-rev0/mingw64/bin/../lib/gcc/x86_64-w64-mingw32/5.3.0/../../../../x86_64-w64-mingw32/lib/../lib/libmsvcrt.a(dkpfs01077.o)
                0x0000000000449c40                fopen
 .text          0x0000000000449c48        0x8 C:/Program Files/mingw-w64/x86_64-5.3.0-posix-seh-rt_v4-rev0/mingw64/bin/../lib/gcc/x86_64-w64-mingw32/5.3.0/../../../../x86_64-w64-mingw32/lib/../lib/libmsvcrt.a(dkpfs01067.o)
                0x0000000000449c48                fflush
 .text          0x0000000000449c50        0x8 C:/Program Files/mingw-w64/x86_64-5.3.0-posix-seh-rt_v4-rev0/mingw64/bin/../lib/gcc/x86_64-w64-mingw32/5.3.0/../../../../x86_64-w64-mingw32/lib/../lib/libmsvcrt.a(dkpfs01064.o)
                0x0000000000449c50                fclose
 .text          0x0000000000449c58        0x8 C:/Program Files/mingw-w64/x86_64-5.3.0-posix-seh-rt_v4-rev0/mingw64/bin/../lib/gcc/x86_64-w64-mingw32/5.3.0/../../../../x86_64-w64-mingw32/lib/../lib/libmsvcrt.a(dkpfs01060.o)
                0x0000000000449c58                exit
 .text          0x0000000000449c60        0x8 C:/Program Files/mingw-w64/x86_64-5.3.0-posix-seh-rt_v4-rev0/mingw64/bin/../lib/gcc/x86_64-w64-mingw32/5.3.0/../../../../x86_64-w64-mingw32/lib/../lib/libmsvcrt.a(dkpfs01052.o)
                0x0000000000449c60                clock
 .text          0x0000000000449c68        0x8 C:/Program Files/mingw-w64/x86_64-5.3.0-posix-seh-rt_v4-rev0/mingw64/bin/../lib/gcc/x86_64-w64-mingw32/5.3.0/../../../../x86_64-w64-mingw32/lib/../lib/libmsvcrt.a(dkpfs01047.o)
                0x0000000000449c68                calloc
 .text          0x0000000000449c70        0x8 C:/Program Files/mingw-w64/x86_64-5.3.0-posix-seh-rt_v4-rev0/mingw64/bin/../lib/gcc/x86_64-w64-mingw32/5.3.0/../../../../x86_64-w64-mingw32/lib/../lib/libmsvcrt.a(dkpfs01043.o)
                0x0000000000449c70                atoi
 .text          0x0000000000449c78        0x8 C:/Program Files/mingw-w64/x86_64-5.3.0-posix-seh-rt_v4-rev0/mingw64/bin/../lib/gcc/x86_64-w64-mingw32/5.3.0/../../../../x86_64-w64-mingw32/lib/../lib/libmsvcrt.a(dkpfs01030.o)
                0x0000000000449c78                abort
 .text          0x0000000000449c80        0x8 C:/Program Files/mingw-w64/x86_64-5.3.0-posix-seh-rt_v4-rev0/mingw64/bin/../lib/gcc/x86_64-w64-mingw32/5.3.0/../../../../x86_64-w64-mingw32/lib/../lib/libmsvcrt.a(dkpfs00819.o)
                0x0000000000449c80                _unlock
 .text          0x0000000000449c88        0x8 C:/Program Files/mingw-w64/x86_64-5.3.0-posix-seh-rt_v4-rev0/mingw64/bin/../lib/gcc/x86_64-w64-mingw32/5.3.0/../../../../x86_64-w64-mingw32/lib/../lib/libmsvcrt.a(dkpfs00788.o)
                0x0000000000449c88                _time64
 .text          0x0000000000449c90        0x8 C:/Program Files/mingw-w64/x86_64-5.3.0-posix-seh-rt_v4-rev0/mingw64/bin/../lib/gcc/x86_64-w64-mingw32/5.3.0/../../../../x86_64-w64-mingw32/lib/../lib/libmsvcrt.a(dkpfs00768.o)
                0x0000000000449c90                _strupr
 .text          0x0000000000449c98        0x8 C:/Program Files/mingw-w64/x86_64-5.3.0-posix-seh-rt_v4-rev0/mingw64/bin/../lib/gcc/x86_64-w64-mingw32/5.3.0/../../../../x86_64-w64-mingw32/lib/../lib/libmsvcrt.a(dkpfs00731.o)
                0x0000000000449c98                _stricmp
 .text          0x0000000000449ca0        0x8 C:/Program Files/mingw-w64/x86_64-5.3.0-posix-seh-rt_v4-rev0/mingw64/bin/../lib/gcc/x86_64-w64-mingw32/5.3.0/../../../../x86_64-w64-mingw32/lib/../lib/libmsvcrt.a(dkpfs00719.o)
                0x0000000000449ca0                _stat64
 .text          0x0000000000449ca8        0x8 C:/Program Files/mingw-w64/x86_64-5.3.0-posix-seh-rt_v4-rev0/mingw64/bin/../lib/gcc/x86_64-w64-mingw32/5.3.0/../../../../x86_64-w64-mingw32/lib/../lib/libmsvcrt.a(dkpfs00667.o)
                0x0000000000449ca8                _setjmp
 .text          0x0000000000449cb0        0x8 C:/Program Files/mingw-w64/x86_64-5.3.0-posix-seh-rt_v4-rev0/mingw64/bin/../lib/gcc/x86_64-w64-mingw32/5.3.0/../../../../x86_64-w64-mingw32/lib/../lib/libmsvcrt.a(dkpfs00611.o)
                0x0000000000449cb0                _onexit
 .text          0x0000000000449cb8        0x8 C:/Program Files/mingw-w64/x86_64-5.3.0-posix-seh-rt_v4-rev0/mingw64/bin/../lib/gcc/x86_64-w64-mingw32/5.3.0/../../../../x86_64-w64-mingw32/lib/../lib/libmsvcrt.a(dkpfs00599.o)
                0x0000000000449cb8                _memicmp
 .text          0x0000000000449cc0        0x8 C:/Program Files/mingw-w64/x86_64-5.3.0-posix-seh-rt_v4-rev0/mingw64/bin/../lib/gcc/x86_64-w64-mingw32/5.3.0/../../../../x86_64-w64-mingw32/lib/../lib/libmsvcrt.a(dkpfs00439.o)
                0x0000000000449cc0                _lock
 .text          0x0000000000449cc8        0x8 C:/Program Files/mingw-w64/x86_64-5.3.0-posix-seh-rt_v4-rev0/mingw64/bin/../lib/gcc/x86_64-w64-mingw32/5.3.0/../../../../x86_64-w64-mingw32/lib/../lib/libmsvcrt.a(dkpfs00438.o)
                0x0000000000449cc8                _localtime64
 .text          0x0000000000449cd0        0x8 C:/Program Files/mingw-w64/x86_64-5.3.0-posix-seh-rt_v4-rev0/mingw64/bin/../lib/gcc/x86_64-w64-mingw32/5.3.0/../../../../x86_64-w64-mingw32/lib/../lib/libmsvcrt.a(dkpfs00330.o)
                0x0000000000449cd0                _initterm
 .text          0x0000000000449cd8        0x0 C:/Program Files/mingw-w64/x86_64-5.3.0-posix-seh-rt_v4-rev0/mingw64/bin/../lib/gcc/x86_64-w64-mingw32/5.3.0/../../../../x86_64-w64-mingw32/lib/../lib/libmsvcrt.a(dkpfs00251.o)
 .text          0x0000000000449cd8        0x8 C:/Program Files/mingw-w64/x86_64-5.3.0-posix-seh-rt_v4-rev0/mingw64/bin/../lib/gcc/x86_64-w64-mingw32/5.3.0/../../../../x86_64-w64-mingw32/lib/../lib/libmsvcrt.a(dkpfs00242.o)
                0x0000000000449cd8                _findnext64
 .text          0x0000000000449ce0        0x8 C:/Program Files/mingw-w64/x86_64-5.3.0-posix-seh-rt_v4-rev0/mingw64/bin/../lib/gcc/x86_64-w64-mingw32/5.3.0/../../../../x86_64-w64-mingw32/lib/../lib/libmsvcrt.a(dkpfs00238.o)
                0x0000000000449ce0                _findfirst64
 .text          0x0000000000449ce8        0x8 C:/Program Files/mingw-w64/x86_64-5.3.0-posix-seh-rt_v4-rev0/mingw64/bin/../lib/gcc/x86_64-w64-mingw32/5.3.0/../../../../x86_64-w64-mingw32/lib/../lib/libmsvcrt.a(dkpfs00235.o)
                0x0000000000449ce8                _findclose
 .text          0x0000000000449cf0        0x8 C:/Program Files/mingw-w64/x86_64-5.3.0-posix-seh-rt_v4-rev0/mingw64/bin/../lib/gcc/x86_64-w64-mingw32/5.3.0/../../../../x86_64-w64-mingw32/lib/../lib/libmsvcrt.a(dkpfs00234.o)
                0x0000000000449cf0                _fileno
 .text          0x0000000000449cf8        0x8 C:/Program Files/mingw-w64/x86_64-5.3.0-posix-seh-rt_v4-rev0/mingw64/bin/../lib/gcc/x86_64-w64-mingw32/5.3.0/../../../../x86_64-w64-mingw32/lib/../lib/libmsvcrt.a(dkpfs00201.o)
                0x0000000000449cf8                _errno
 .text          0x0000000000449d00        0x8 C:/Program Files/mingw-w64/x86_64-5.3.0-posix-seh-rt_v4-rev0/mingw64/bin/../lib/gcc/x86_64-w64-mingw32/5.3.0/../../../../x86_64-w64-mingw32/lib/../lib/libmsvcrt.a(dkpfs00149.o)
                0x0000000000449d00                _chsize
 .text          0x0000000000449d08        0x8 C:/Program Files/mingw-w64/x86_64-5.3.0-posix-seh-rt_v4-rev0/mingw64/bin/../lib/gcc/x86_64-w64-mingw32/5.3.0/../../../../x86_64-w64-mingw32/lib/../lib/libmsvcrt.a(dkpfs00140.o)
                0x0000000000449d08                _cexit
 .text          0x0000000000449d10        0x8 C:/Program Files/mingw-w64/x86_64-5.3.0-posix-seh-rt_v4-rev0/mingw64/bin/../lib/gcc/x86_64-w64-mingw32/5.3.0/../../../../x86_64-w64-mingw32/lib/../lib/libmsvcrt.a(dkpfs00122.o)
                0x0000000000449d10                _amsg_exit
 .text          0x0000000000449d18        0x0 C:/Program Files/mingw-w64/x86_64-5.3.0-posix-seh-rt_v4-rev0/mingw64/bin/../lib/gcc/x86_64-w64-mingw32/5.3.0/../../../../x86_64-w64-mingw32/lib/../lib/libmsvcrt.a(dkpfs00115.o)
 .text          0x0000000000449d18        0x8 C:/Program Files/mingw-w64/x86_64-5.3.0-posix-seh-rt_v4-rev0/mingw64/bin/../lib/gcc/x86_64-w64-mingw32/5.3.0/../../../../x86_64-w64-mingw32/lib/../lib/libmsvcrt.a(dkpfs00098.o)
                0x0000000000449d18                __setusermatherr
 .text          0x0000000000449d20        0x8 C:/Program Files/mingw-w64/x86_64-5.3.0-posix-seh-rt_v4-rev0/mingw64/bin/../lib/gcc/x86_64-w64-mingw32/5.3.0/../../../../x86_64-w64-mingw32/lib/../lib/libmsvcrt.a(dkpfs00096.o)
                0x0000000000449d20                __set_app_type
 .text          0x0000000000449d28        0x8 C:/Program Files/mingw-w64/x86_64-5.3.0-posix-seh-rt_v4-rev0/mingw64/bin/../lib/gcc/x86_64-w64-mingw32/5.3.0/../../../../x86_64-w64-mingw32/lib/../lib/libmsvcrt.a(dkpfs00090.o)
                0x0000000000449d28                __lconv_init
 .text          0x0000000000449d30        0x8 C:/Program Files/mingw-w64/x86_64-5.3.0-posix-seh-rt_v4-rev0/mingw64/bin/../lib/gcc/x86_64-w64-mingw32/5.3.0/../../../../x86_64-w64-mingw32/lib/../lib/libmsvcrt.a(dkpfs00083.o)
                0x0000000000449d30                __iob_func
 .text          0x0000000000449d38        0x0 C:/Program Files/mingw-w64/x86_64-5.3.0-posix-seh-rt_v4-rev0/mingw64/bin/../lib/gcc/x86_64-w64-mingw32/5.3.0/../../../../x86_64-w64-mingw32/lib/../lib/libmsvcrt.a(dkpfs00082.o)
 .text          0x0000000000449d38        0x8 C:/Program Files/mingw-w64/x86_64-5.3.0-posix-seh-rt_v4-rev0/mingw64/bin/../lib/gcc/x86_64-w64-mingw32/5.3.0/../../../../x86_64-w64-mingw32/lib/../lib/libmsvcrt.a(dkpfs00081.o)
                0x0000000000449d38                __getmainargs
 .text          0x0000000000449d40        0x8 C:/Program Files/mingw-w64/x86_64-5.3.0-posix-seh-rt_v4-rev0/mingw64/bin/../lib/gcc/x86_64-w64-mingw32/5.3.0/../../../../x86_64-w64-mingw32/lib/../lib/libmsvcrt.a(dkpfs00078.o)
                0x0000000000449d40                __dllonexit
 .text          0x0000000000449d48        0x8 C:/Program Files/mingw-w64/x86_64-5.3.0-posix-seh-rt_v4-rev0/mingw64/bin/../lib/gcc/x86_64-w64-mingw32/5.3.0/../../../../x86_64-w64-mingw32/lib/../lib/libmsvcrt.a(dkpfs00055.o)
                0x0000000000449d48                __C_specific_handler
 .text          0x0000000000449d50       0x20 C:/Program Files/mingw-w64/x86_64-5.3.0-posix-seh-rt_v4-rev0/mingw64/bin/../lib/gcc/x86_64-w64-mingw32/5.3.0/../../../../x86_64-w64-mingw32/lib/../lib/libmsvcrt.a(lib64_libmsvcrt_a-invalid_parameter_handler.o)
                0x0000000000449d50                _get_invalid_parameter_handler
                0x0000000000449d60                _set_invalid_parameter_handler
 .text          0x0000000000449d70        0x0 C:/Program Files/mingw-w64/x86_64-5.3.0-posix-seh-rt_v4-rev0/mingw64/bin/../lib/gcc/x86_64-w64-mingw32/5.3.0/../../../../x86_64-w64-mingw32/lib/../lib/libmsvcrt.a(dkpfh.o)
 .text          0x0000000000449d70        0x0 C:/Program Files/mingw-w64/x86_64-5.3.0-posix-seh-rt_v4-rev0/mingw64/bin/../lib/gcc/x86_64-w64-mingw32/5.3.0/../../../../x86_64-w64-mingw32/lib/../lib/libmsvcrt.a(dkpft.o)
 .text          0x0000000000449d70        0x8 C:/Program Files/mingw-w64/x86_64-5.3.0-posix-seh-rt_v4-rev0/mingw64/bin/../lib/gcc/x86_64-w64-mingw32/5.3.0/../../../../x86_64-w64-mingw32/lib/../lib/libkernel32.a(dqmfs01266.o)
                0x0000000000449d70                VirtualQuery
 .text          0x0000000000449d78        0x8 C:/Program Files/mingw-w64/x86_64-5.3.0-posix-seh-rt_v4-rev0/mingw64/bin/../lib/gcc/x86_64-w64-mingw32/5.3.0/../../../../x86_64-w64-mingw32/lib/../lib/libkernel32.a(dqmfs01264.o)
                0x0000000000449d78                VirtualProtect
 .text          0x0000000000449d80        0x8 C:/Program Files/mingw-w64/x86_64-5.3.0-posix-seh-rt_v4-rev0/mingw64/bin/../lib/gcc/x86_64-w64-mingw32/5.3.0/../../../../x86_64-w64-mingw32/lib/../lib/libkernel32.a(dqmfs01261.o)
                0x0000000000449d80                VirtualFree
 .text          0x0000000000449d88        0x8 C:/Program Files/mingw-w64/x86_64-5.3.0-posix-seh-rt_v4-rev0/mingw64/bin/../lib/gcc/x86_64-w64-mingw32/5.3.0/../../../../x86_64-w64-mingw32/lib/../lib/libkernel32.a(dqmfs01258.o)
                0x0000000000449d88                VirtualAlloc
 .text          0x0000000000449d90        0x8 C:/Program Files/mingw-w64/x86_64-5.3.0-posix-seh-rt_v4-rev0/mingw64/bin/../lib/gcc/x86_64-w64-mingw32/5.3.0/../../../../x86_64-w64-mingw32/lib/../lib/libkernel32.a(dqmfs01234.o)
                0x0000000000449d90                UnhandledExceptionFilter
 .text          0x0000000000449d98        0x8 C:/Program Files/mingw-w64/x86_64-5.3.0-posix-seh-rt_v4-rev0/mingw64/bin/../lib/gcc/x86_64-w64-mingw32/5.3.0/../../../../x86_64-w64-mingw32/lib/../lib/libkernel32.a(dqmfs01221.o)
                0x0000000000449d98                TlsGetValue
 .text          0x0000000000449da0        0x8 C:/Program Files/mingw-w64/x86_64-5.3.0-posix-seh-rt_v4-rev0/mingw64/bin/../lib/gcc/x86_64-w64-mingw32/5.3.0/../../../../x86_64-w64-mingw32/lib/../lib/libkernel32.a(dqmfs01214.o)
                0x0000000000449da0                TerminateProcess
 .text          0x0000000000449da8        0x8 C:/Program Files/mingw-w64/x86_64-5.3.0-posix-seh-rt_v4-rev0/mingw64/bin/../lib/gcc/x86_64-w64-mingw32/5.3.0/../../../../x86_64-w64-mingw32/lib/../lib/libkernel32.a(dqmfs01200.o)
                0x0000000000449da8                Sleep
 .text          0x0000000000449db0        0x8 C:/Program Files/mingw-w64/x86_64-5.3.0-posix-seh-rt_v4-rev0/mingw64/bin/../lib/gcc/x86_64-w64-mingw32/5.3.0/../../../../x86_64-w64-mingw32/lib/../lib/libkernel32.a(dqmfs01187.o)
                0x0000000000449db0                SetUnhandledExceptionFilter
 .text          0x0000000000449db8        0x8 C:/Program Files/mingw-w64/x86_64-5.3.0-posix-seh-rt_v4-rev0/mingw64/bin/../lib/gcc/x86_64-w64-mingw32/5.3.0/../../../../x86_64-w64-mingw32/lib/../lib/libkernel32.a(dqmfs01044.o)
                0x0000000000449db8                RtlVirtualUnwind
 .text          0x0000000000449dc0        0x8 C:/Program Files/mingw-w64/x86_64-5.3.0-posix-seh-rt_v4-rev0/mingw64/bin/../lib/gcc/x86_64-w64-mingw32/5.3.0/../../../../x86_64-w64-mingw32/lib/../lib/libkernel32.a(dqmfs01037.o)
                0x0000000000449dc0                RtlLookupFunctionEntry
 .text          0x0000000000449dc8        0x8 C:/Program Files/mingw-w64/x86_64-5.3.0-posix-seh-rt_v4-rev0/mingw64/bin/../lib/gcc/x86_64-w64-mingw32/5.3.0/../../../../x86_64-w64-mingw32/lib/../lib/libkernel32.a(dqmfs01030.o)
                0x0000000000449dc8                RtlCaptureContext
 .text          0x0000000000449dd0        0x8 C:/Program Files/mingw-w64/x86_64-5.3.0-posix-seh-rt_v4-rev0/mingw64/bin/../lib/gcc/x86_64-w64-mingw32/5.3.0/../../../../x86_64-w64-mingw32/lib/../lib/libkernel32.a(dqmfs01029.o)
                0x0000000000449dd0                RtlAddFunctionTable
 .text          0x0000000000449dd8        0x8 C:/Program Files/mingw-w64/x86_64-5.3.0-posix-seh-rt_v4-rev0/mingw64/bin/../lib/gcc/x86_64-w64-mingw32/5.3.0/../../../../x86_64-w64-mingw32/lib/../lib/libkernel32.a(dqmfs00958.o)
                0x0000000000449dd8                QueryPerformanceCounter
 .text          0x0000000000449de0        0x8 C:/Program Files/mingw-w64/x86_64-5.3.0-posix-seh-rt_v4-rev0/mingw64/bin/../lib/gcc/x86_64-w64-mingw32/5.3.0/../../../../x86_64-w64-mingw32/lib/../lib/libkernel32.a(dqmfs00844.o)
                0x0000000000449de0                LeaveCriticalSection
 .text          0x0000000000449de8        0x8 C:/Program Files/mingw-w64/x86_64-5.3.0-posix-seh-rt_v4-rev0/mingw64/bin/../lib/gcc/x86_64-w64-mingw32/5.3.0/../../../../x86_64-w64-mingw32/lib/../lib/libkernel32.a(dqmfs00762.o)
                0x0000000000449de8                InitializeCriticalSection
 .text          0x0000000000449df0        0x8 C:/Program Files/mingw-w64/x86_64-5.3.0-posix-seh-rt_v4-rev0/mingw64/bin/../lib/gcc/x86_64-w64-mingw32/5.3.0/../../../../x86_64-w64-mingw32/lib/../lib/libkernel32.a(dqmfs00678.o)
                0x0000000000449df0                GetTickCount
 .text          0x0000000000449df8        0x8 C:/Program Files/mingw-w64/x86_64-5.3.0-posix-seh-rt_v4-rev0/mingw64/bin/../lib/gcc/x86_64-w64-mingw32/5.3.0/../../../../x86_64-w64-mingw32/lib/../lib/libkernel32.a(dqmfs00651.o)
                0x0000000000449df8                GetSystemTimeAsFileTime
 .text          0x0000000000449e00        0x8 C:/Program Files/mingw-w64/x86_64-5.3.0-posix-seh-rt_v4-rev0/mingw64/bin/../lib/gcc/x86_64-w64-mingw32/5.3.0/../../../../x86_64-w64-mingw32/lib/../lib/libkernel32.a(dqmfs00628.o)
                0x0000000000449e00                GetStartupInfoA
 .text          0x0000000000449e08        0x8 C:/Program Files/mingw-w64/x86_64-5.3.0-posix-seh-rt_v4-rev0/mingw64/bin/../lib/gcc/x86_64-w64-mingw32/5.3.0/../../../../x86_64-w64-mingw32/lib/../lib/libkernel32.a(dqmfs00599.o)
                0x0000000000449e08                GetProcAddress
 .text          0x0000000000449e10        0x8 C:/Program Files/mingw-w64/x86_64-5.3.0-posix-seh-rt_v4-rev0/mingw64/bin/../lib/gcc/x86_64-w64-mingw32/5.3.0/../../../../x86_64-w64-mingw32/lib/../lib/libkernel32.a(dqmfs00549.o)
                0x0000000000449e10                GetModuleHandleA
 .text          0x0000000000449e18        0x8 C:/Program Files/mingw-w64/x86_64-5.3.0-posix-seh-rt_v4-rev0/mingw64/bin/../lib/gcc/x86_64-w64-mingw32/5.3.0/../../../../x86_64-w64-mingw32/lib/../lib/libkernel32.a(dqmfs00529.o)
                0x0000000000449e18                GetLastError
 .text          0x0000000000449e20        0x8 C:/Program Files/mingw-w64/x86_64-5.3.0-posix-seh-rt_v4-rev0/mingw64/bin/../lib/gcc/x86_64-w64-mingw32/5.3.0/../../../../x86_64-w64-mingw32/lib/../lib/libkernel32.a(dqmfs00467.o)
                0x0000000000449e20                GetCurrentThreadId
 .text          0x0000000000449e28        0x8 C:/Program Files/mingw-w64/x86_64-5.3.0-posix-seh-rt_v4-rev0/mingw64/bin/../lib/gcc/x86_64-w64-mingw32/5.3.0/../../../../x86_64-w64-mingw32/lib/../lib/libkernel32.a(dqmfs00463.o)
                0x0000000000449e28                GetCurrentProcessId
 .text          0x0000000000449e30        0x8 C:/Program Files/mingw-w64/x86_64-5.3.0-posix-seh-rt_v4-rev0/mingw64/bin/../lib/gcc/x86_64-w64-mingw32/5.3.0/../../../../x86_64-w64-mingw32/lib/../lib/libkernel32.a(dqmfs00462.o)
                0x0000000000449e30                GetCurrentProcess
 .text          0x0000000000449e38        0x8 C:/Program Files/mingw-w64/x86_64-5.3.0-posix-seh-rt_v4-rev0/mingw64/bin/../lib/gcc/x86_64-w64-mingw32/5.3.0/../../../../x86_64-w64-mingw32/lib/../lib/libkernel32.a(dqmfs00249.o)
                0x0000000000449e38                EnterCriticalSection
 .text          0x0000000000449e40        0x8 C:/Program Files/mingw-w64/x86_64-5.3.0-posix-seh-rt_v4-rev0/mingw64/bin/../lib/gcc/x86_64-w64-mingw32/5.3.0/../../../../x86_64-w64-mingw32/lib/../lib/libkernel32.a(dqmfs00216.o)
                0x0000000000449e40                DeleteCriticalSection
 *fill*         0x0000000000449e48        0x8 
 .text          0x0000000000449e50        0x0 C:/Program Files/mingw-w64/x86_64-5.3.0-posix-seh-rt_v4-rev0/mingw64/bin/../lib/gcc/x86_64-w64-mingw32/5.3.0/../../../../x86_64-w64-mingw32/lib/../lib/libkernel32.a(dqmfh.o)
 .text          0x0000000000449e50        0x0 C:/Program Files/mingw-w64/x86_64-5.3.0-posix-seh-rt_v4-rev0/mingw64/bin/../lib/gcc/x86_64-w64-mingw32/5.3.0/../../../../x86_64-w64-mingw32/lib/../lib/libkernel32.a(dqmft.o)
 .text          0x0000000000449e50        0x0 C:/Program Files/mingw-w64/x86_64-5.3.0-posix-seh-rt_v4-rev0/mingw64/bin/../lib/gcc/x86_64-w64-mingw32/5.3.0/crtend.o
 *(SORT(.text$*))
 *(.text.*)
 .text.unlikely
                0x0000000000449e50        0x0 C:/Program Files/mingw-w64/x86_64-5.3.0-posix-seh-rt_v4-rev0/mingw64/bin/../lib/gcc/x86_64-w64-mingw32/5.3.0/../../../../x86_64-w64-mingw32/lib/../lib/crt2.o
 .text.unlikely
                0x0000000000449e50        0x0 C:/Program Files/mingw-w64/x86_64-5.3.0-posix-seh-rt_v4-rev0/mingw64/bin/../lib/gcc/x86_64-w64-mingw32/5.3.0/crtbegin.o
 .text.unlikely
                0x0000000000449e50        0x0 MinGW-w64R/main.o
 .text.startup  0x0000000000449e50      0x2e0 MinGW-w64R/main.o
                0x0000000000449e50                main
 .text.unlikely
                0x000000000044a130        0x0 MinGW-w64R/assemble.o
 .text.unlikely
                0x000000000044a130        0x0 MinGW-w64R/assume.o
 .text.unlikely
                0x000000000044a130        0x0 MinGW-w64R/atofloat.o
 .text.unlikely
                0x000000000044a130        0x0 MinGW-w64R/backptch.o
 .text.unlikely
                0x000000000044a130        0x0 MinGW-w64R/bin.o
 .text.unlikely
                0x000000000044a130        0x0 MinGW-w64R/branch.o
 .text.unlikely
                0x000000000044a130        0x0 MinGW-w64R/cmdline.o
 .text.unlikely
                0x000000000044a130        0x0 MinGW-w64R/codegen.o
 .text.unlikely
                0x000000000044a130        0x0 MinGW-w64R/coff.o
 .text.unlikely
                0x000000000044a130        0x0 MinGW-w64R/condasm.o
 .text.unlikely
                0x000000000044a130        0x0 MinGW-w64R/context.o
 .text.unlikely
                0x000000000044a130        0x0 MinGW-w64R/cpumodel.o
 .text.unlikely
                0x000000000044a130       0x50 MinGW-w64R/data.o
 .text.unlikely
                0x000000000044a180        0x0 MinGW-w64R/dbgcv.o
 .text.unlikely
                0x000000000044a180        0x0 MinGW-w64R/directiv.o
 .text.unlikely
                0x000000000044a180        0x0 MinGW-w64R/elf.o
 .text.unlikely
                0x000000000044a180        0x0 MinGW-w64R/end.o
 .text.unlikely
                0x000000000044a180        0x0 MinGW-w64R/equate.o
 .text.unlikely
                0x000000000044a180        0x0 MinGW-w64R/errmsg.o
 .text.unlikely
                0x000000000044a180        0x0 MinGW-w64R/expans.o
 .text.unlikely
                0x000000000044a180       0xe0 MinGW-w64R/expreval.o
 .text.unlikely
                0x000000000044a260        0x0 MinGW-w64R/extern.o
 .text.unlikely
                0x000000000044a260        0x0 MinGW-w64R/fastpass.o
 .text.unlikely
                0x000000000044a260        0x0 MinGW-w64R/fixup.o
 .text.unlikely
                0x000000000044a260        0x0 MinGW-w64R/fpfixup.o
 .text.unlikely
                0x000000000044a260        0x0 MinGW-w64R/hll.o
 .text.unlikely
                0x000000000044a260        0x0 MinGW-w64R/input.o
 .text.unlikely
                0x000000000044a260        0x0 MinGW-w64R/invoke.o
 .text.unlikely
                0x000000000044a260        0x0 MinGW-w64R/label.o
 .text.unlikely
                0x000000000044a260        0x0 MinGW-w64R/linnum.o
 .text.unlikely
                0x000000000044a260        0x0 MinGW-w64R/listing.o
 .text.unlikely
                0x000000000044a260        0x0 MinGW-w64R/loop.o
 .text.unlikely
                0x000000000044a260        0x0 MinGW-w64R/lqueue.o
 .text.unlikely
                0x000000000044a260        0x0 MinGW-w64R/macro.o
 .text.unlikely
                0x000000000044a260        0x0 MinGW-w64R/mangle.o
 .text.unlikely
                0x000000000044a260        0x0 MinGW-w64R/memalloc.o
 .text.unlikely
                0x000000000044a260        0x0 MinGW-w64R/msgtext.o
 .text.unlikely
                0x000000000044a260        0x0 MinGW-w64R/omf.o
 .text.unlikely
                0x000000000044a260        0x0 MinGW-w64R/omffixup.o
 .text.unlikely
                0x000000000044a260        0x0 MinGW-w64R/omfint.o
 .text.unlikely
                0x000000000044a260        0x0 MinGW-w64R/option.o
 .text.unlikely
                0x000000000044a260        0x0 MinGW-w64R/parser.o
 .text.unlikely
                0x000000000044a260        0x0 MinGW-w64R/posndir.o
 .text.unlikely
                0x000000000044a260        0x0 MinGW-w64R/preproc.o
 .text.unlikely
                0x000000000044a260        0x0 MinGW-w64R/proc.o
 .text.unlikely
                0x000000000044a260        0x0 MinGW-w64R/queue.o
 .text.unlikely
                0x000000000044a260        0x0 MinGW-w64R/reswords.o
 .text.unlikely
                0x000000000044a260        0x0 MinGW-w64R/safeseh.o
 .text.unlikely
                0x000000000044a260        0x0 MinGW-w64R/segment.o
 .text.unlikely
                0x000000000044a260        0x0 MinGW-w64R/simsegm.o
 .text.unlikely
                0x000000000044a260        0x0 MinGW-w64R/string.o
 .text.unlikely
                0x000000000044a260        0x0 MinGW-w64R/symbols.o
 .text.unlikely
                0x000000000044a260        0x0 MinGW-w64R/tbyte.o
 .text.unlikely
                0x000000000044a260        0x0 MinGW-w64R/tokenize.o
 .text.unlikely
                0x000000000044a260        0x0 MinGW-w64R/types.o
 .text.unlikely
                0x000000000044a260        0x0 C:/Program Files/mingw-w64/x86_64-5.3.0-posix-seh-rt_v4-rev0/mingw64/bin/../lib/gcc/x86_64-w64-mingw32/5.3.0/../../../../x86_64-w64-mingw32/lib/../lib/libmingw32.a(lib64_libmingw32_a-atonexit.o)
 .text.unlikely
                0x000000000044a260        0x0 C:/Program Files/mingw-w64/x86_64-5.3.0-posix-seh-rt_v4-rev0/mingw64/bin/../lib/gcc/x86_64-w64-mingw32/5.3.0/../../../../x86_64-w64-mingw32/lib/../lib/libmingw32.a(lib64_libmingw32_a-gccmain.o)
 .text.unlikely
                0x000000000044a260        0x0 C:/Program Files/mingw-w64/x86_64-5.3.0-posix-seh-rt_v4-rev0/mingw64/bin/../lib/gcc/x86_64-w64-mingw32/5.3.0/../../../../x86_64-w64-mingw32/lib/../lib/libmingw32.a(lib64_libmingw32_a-charmax.o)
 .text.unlikely
                0x000000000044a260        0x0 C:/Program Files/mingw-w64/x86_64-5.3.0-posix-seh-rt_v4-rev0/mingw64/bin/../lib/gcc/x86_64-w64-mingw32/5.3.0/../../../../x86_64-w64-mingw32/lib/../lib/libmingw32.a(lib64_libmingw32_a-dllargv.o)
 .text.unlikely
                0x000000000044a260        0x0 C:/Program Files/mingw-w64/x86_64-5.3.0-posix-seh-rt_v4-rev0/mingw64/bin/../lib/gcc/x86_64-w64-mingw32/5.3.0/../../../../x86_64-w64-mingw32/lib/../lib/libmingw32.a(lib64_libmingw32_a-gs_support.o)
 .text.unlikely
                0x000000000044a260        0x0 C:/Program Files/mingw-w64/x86_64-5.3.0-posix-seh-rt_v4-rev0/mingw64/bin/../lib/gcc/x86_64-w64-mingw32/5.3.0/../../../../x86_64-w64-mingw32/lib/../lib/libmingw32.a(lib64_libmingw32_a-tlssup.o)
 .text.unlikely
                0x000000000044a260        0x0 C:/Program Files/mingw-w64/x86_64-5.3.0-posix-seh-rt_v4-rev0/mingw64/bin/../lib/gcc/x86_64-w64-mingw32/5.3.0/../../../../x86_64-w64-mingw32/lib/../lib/libmingw32.a(lib64_libmingw32_a-merr.o)
 .text.unlikely
                0x000000000044a260        0x0 C:/Program Files/mingw-w64/x86_64-5.3.0-posix-seh-rt_v4-rev0/mingw64/bin/../lib/gcc/x86_64-w64-mingw32/5.3.0/../../../../x86_64-w64-mingw32/lib/../lib/libmingw32.a(lib64_libmingw32_a-CRT_fp10.o)
 .text.unlikely
                0x000000000044a260        0x0 C:/Program Files/mingw-w64/x86_64-5.3.0-posix-seh-rt_v4-rev0/mingw64/bin/../lib/gcc/x86_64-w64-mingw32/5.3.0/../../../../x86_64-w64-mingw32/lib/../lib/libmingw32.a(lib64_libmingw32_a-mingw_helpers.o)
 .text.unlikely
                0x000000000044a260        0x0 C:/Program Files/mingw-w64/x86_64-5.3.0-posix-seh-rt_v4-rev0/mingw64/bin/../lib/gcc/x86_64-w64-mingw32/5.3.0/../../../../x86_64-w64-mingw32/lib/../lib/libmingw32.a(lib64_libmingw32_a-pseudo-reloc.o)
 .text.unlikely
                0x000000000044a260        0x0 C:/Program Files/mingw-w64/x86_64-5.3.0-posix-seh-rt_v4-rev0/mingw64/bin/../lib/gcc/x86_64-w64-mingw32/5.3.0/../../../../x86_64-w64-mingw32/lib/../lib/libmingw32.a(lib64_libmingw32_a-crt_handler.o)
 .text.unlikely
                0x000000000044a260        0x0 C:/Program Files/mingw-w64/x86_64-5.3.0-posix-seh-rt_v4-rev0/mingw64/bin/../lib/gcc/x86_64-w64-mingw32/5.3.0/../../../../x86_64-w64-mingw32/lib/../lib/libmingw32.a(lib64_libmingw32_a-tlsthrd.o)
 .text.unlikely
                0x000000000044a260        0x0 C:/Program Files/mingw-w64/x86_64-5.3.0-posix-seh-rt_v4-rev0/mingw64/bin/../lib/gcc/x86_64-w64-mingw32/5.3.0/../../../../x86_64-w64-mingw32/lib/../lib/libmingw32.a(lib64_libmingw32_a-pesect.o)
 .text.unlikely
                0x000000000044a260        0x0 C:/Program Files/mingw-w64/x86_64-5.3.0-posix-seh-rt_v4-rev0/mingw64/bin/../lib/gcc/x86_64-w64-mingw32/5.3.0/../../../../x86_64-w64-mingw32/lib/../lib/libmingwex.a(lib64_libmingwex_a-strtodnrp.o)
 .text.unlikely
                0x000000000044a260        0x0 C:/Program Files/mingw-w64/x86_64-5.3.0-posix-seh-rt_v4-rev0/mingw64/bin/../lib/gcc/x86_64-w64-mingw32/5.3.0/../../../../x86_64-w64-mingw32/lib/../lib/libmingwex.a(lib64_libmingwex_a-strtodg.o)
 .text.unlikely
                0x000000000044a260        0x0 C:/Program Files/mingw-w64/x86_64-5.3.0-posix-seh-rt_v4-rev0/mingw64/bin/../lib/gcc/x86_64-w64-mingw32/5.3.0/../../../../x86_64-w64-mingw32/lib/../lib/libmingwex.a(lib64_libmingwex_a-sum.o)
 .text.unlikely
                0x000000000044a260        0x0 C:/Program Files/mingw-w64/x86_64-5.3.0-posix-seh-rt_v4-rev0/mingw64/bin/../lib/gcc/x86_64-w64-mingw32/5.3.0/../../../../x86_64-w64-mingw32/lib/../lib/libmingwex.a(lib64_libmingwex_a-gethex.o)
 .text.unlikely
                0x000000000044a260        0x0 C:/Program Files/mingw-w64/x86_64-5.3.0-posix-seh-rt_v4-rev0/mingw64/bin/../lib/gcc/x86_64-w64-mingw32/5.3.0/../../../../x86_64-w64-mingw32/lib/../lib/libmingwex.a(lib64_libmingwex_a-gmisc.o)
 .text.unlikely
                0x000000000044a260        0x0 C:/Program Files/mingw-w64/x86_64-5.3.0-posix-seh-rt_v4-rev0/mingw64/bin/../lib/gcc/x86_64-w64-mingw32/5.3.0/../../../../x86_64-w64-mingw32/lib/../lib/libmingwex.a(lib64_libmingwex_a-hd_init.o)
 .text.unlikely
                0x000000000044a260        0x0 C:/Program Files/mingw-w64/x86_64-5.3.0-posix-seh-rt_v4-rev0/mingw64/bin/../lib/gcc/x86_64-w64-mingw32/5.3.0/../../../../x86_64-w64-mingw32/lib/../lib/libmingwex.a(lib64_libmingwex_a-hexnan.o)
 .text.unlikely
                0x000000000044a260        0x0 C:/Program Files/mingw-w64/x86_64-5.3.0-posix-seh-rt_v4-rev0/mingw64/bin/../lib/gcc/x86_64-w64-mingw32/5.3.0/../../../../x86_64-w64-mingw32/lib/../lib/libmingwex.a(lib64_libmingwex_a-misc.o)
 .text.unlikely
                0x000000000044a260        0x0 C:/Program Files/mingw-w64/x86_64-5.3.0-posix-seh-rt_v4-rev0/mingw64/bin/../lib/gcc/x86_64-w64-mingw32/5.3.0/../../../../x86_64-w64-mingw32/lib/../lib/libmingwex.a(lib64_libmingwex_a-smisc.o)
 .text.unlikely
                0x000000000044a260        0x0 C:/Program Files/mingw-w64/x86_64-5.3.0-posix-seh-rt_v4-rev0/mingw64/bin/../lib/gcc/x86_64-w64-mingw32/5.3.0/../../../../x86_64-w64-mingw32/lib/../lib/libmsvcrt.a(lib64_libmsvcrt_a-invalid_parameter_handler.o)
 .text.unlikely
                0x000000000044a260        0x0 C:/Program Files/mingw-w64/x86_64-5.3.0-posix-seh-rt_v4-rev0/mingw64/bin/../lib/gcc/x86_64-w64-mingw32/5.3.0/crtend.o
 .text.startup  0x000000000044a260       0x10 C:/Program Files/mingw-w64/x86_64-5.3.0-posix-seh-rt_v4-rev0/mingw64/bin/../lib/gcc/x86_64-w64-mingw32/5.3.0/crtend.o
 *(.gnu.linkonce.t.*)
 *(.glue_7t)
 *(.glue_7)
                0x000000000044a270                . = ALIGN (0x8)
                0x000000000044a270                ___CTOR_LIST__ = .
                0x000000000044a270                __CTOR_LIST__ = .
                0x000000000044a270        0x4 LONG 0xffffffffffffffff
                0x000000000044a274        0x4 LONG 0xffffffffffffffff
 *(.ctors)
 *(.ctor)
 *(SORT(.ctors.*))
 .ctors.65535   0x000000000044a278        0x8 C:/Program Files/mingw-w64/x86_64-5.3.0-posix-seh-rt_v4-rev0/mingw64/bin/../lib/gcc/x86_64-w64-mingw32/5.3.0/crtend.o
                0x000000000044a280        0x4 LONG 0x0
                0x000000000044a284        0x4 LONG 0x0
                0x000000000044a288                ___DTOR_LIST__ = .
                0x000000000044a288                __DTOR_LIST__ = .
                0x000000000044a288        0x4 LONG 0xffffffffffffffff
                0x000000000044a28c        0x4 LONG 0xffffffffffffffff
 *(.dtors)
 *(.dtor)
 *(SORT(.dtors.*))
                0x000000000044a290        0x4 LONG 0x0
                0x000000000044a294        0x4 LONG 0x0
 *(.fini)
 *(.gcc_exc)
                0x000000000044a298                PROVIDE (etext, .)
 *(.gcc_except_table)

.data           0x000000000044b000     0x9200
                0x000000000044b000                __data_start__ = .
 *(.data)
 .data          0x000000000044b000       0x10 C:/Program Files/mingw-w64/x86_64-5.3.0-posix-seh-rt_v4-rev0/mingw64/bin/../lib/gcc/x86_64-w64-mingw32/5.3.0/../../../../x86_64-w64-mingw32/lib/../lib/crt2.o
                0x000000000044b000                __mingw_winmain_nShowCmd
 .data          0x000000000044b010        0x0 C:/Program Files/mingw-w64/x86_64-5.3.0-posix-seh-rt_v4-rev0/mingw64/bin/../lib/gcc/x86_64-w64-mingw32/5.3.0/crtbegin.o
 .data          0x000000000044b010        0x0 MinGW-w64R/main.o
 .data          0x000000000044b010        0x0 MinGW-w64R/apiemu.o
 .data          0x000000000044b010       0x10 MinGW-w64R/assemble.o
 .data          0x000000000044b020        0x0 MinGW-w64R/assume.o
 .data          0x000000000044b020        0x0 MinGW-w64R/atofloat.o
 .data          0x000000000044b020        0x0 MinGW-w64R/backptch.o
 .data          0x000000000044b020        0x0 MinGW-w64R/bin.o
 .data          0x000000000044b020        0x0 MinGW-w64R/branch.o
 .data          0x000000000044b020       0xc0 MinGW-w64R/cmdline.o
                0x000000000044b020                Options
 .data          0x000000000044b0e0        0x0 MinGW-w64R/codegen.o
 .data          0x000000000044b0e0        0x0 MinGW-w64R/coff.o
 .data          0x000000000044b0e0        0x0 MinGW-w64R/condasm.o
 .data          0x000000000044b0e0        0x0 MinGW-w64R/context.o
 .data          0x000000000044b0e0        0x0 MinGW-w64R/cpumodel.o
 .data          0x000000000044b0e0        0x0 MinGW-w64R/data.o
 .data          0x000000000044b0e0        0x0 MinGW-w64R/dbgcv.o
 .data          0x000000000044b0e0        0x0 MinGW-w64R/directiv.o
 .data          0x000000000044b0e0        0x0 MinGW-w64R/elf.o
 .data          0x000000000044b0e0        0x0 MinGW-w64R/end.o
 .data          0x000000000044b0e0        0x0 MinGW-w64R/equate.o
 .data          0x000000000044b0e0        0x0 MinGW-w64R/errmsg.o
 .data          0x000000000044b0e0        0x0 MinGW-w64R/expans.o
 .data          0x000000000044b0e0        0x0 MinGW-w64R/expreval.o
 .data          0x000000000044b0e0        0x0 MinGW-w64R/extern.o
 .data          0x000000000044b0e0        0x0 MinGW-w64R/fastpass.o
 .data          0x000000000044b0e0        0x0 MinGW-w64R/fixup.o
 .data          0x000000000044b0e0        0x0 MinGW-w64R/fpfixup.o
 .data          0x000000000044b0e0        0x0 MinGW-w64R/hll.o
 .data          0x000000000044b0e0        0x0 MinGW-w64R/input.o
 .data          0x000000000044b0e0        0x0 MinGW-w64R/invoke.o
 .data          0x000000000044b0e0        0x0 MinGW-w64R/label.o
 .data          0x000000000044b0e0        0x0 MinGW-w64R/linnum.o
 .data          0x000000000044b0e0        0x0 MinGW-w64R/listing.o
 .data          0x000000000044b0e0        0x0 MinGW-w64R/loop.o
 .data          0x000000000044b0e0        0x0 MinGW-w64R/lqueue.o
 .data          0x000000000044b0e0        0x0 MinGW-w64R/macro.o
 .data          0x000000000044b0e0        0x0 MinGW-w64R/mangle.o
 .data          0x000000000044b0e0        0x0 MinGW-w64R/memalloc.o
 .data          0x000000000044b0e0        0x0 MinGW-w64R/msgtext.o
 .data          0x000000000044b0e0        0x0 MinGW-w64R/omf.o
 .data          0x000000000044b0e0        0x0 MinGW-w64R/omffixup.o
 .data          0x000000000044b0e0        0x0 MinGW-w64R/omfint.o
 .data          0x000000000044b0e0        0x0 MinGW-w64R/option.o
 .data          0x000000000044b0e0        0x0 MinGW-w64R/parser.o
 .data          0x000000000044b0e0        0x0 MinGW-w64R/posndir.o
 .data          0x000000000044b0e0        0x0 MinGW-w64R/preproc.o
 .data          0x000000000044b0e0        0x0 MinGW-w64R/proc.o
 .data          0x000000000044b0e0        0x0 MinGW-w64R/queue.o
 .data          0x000000000044b0e0     0x8ee0 MinGW-w64R/reswords.o
                0x000000000044b0e0                ResWordTable
                0x0000000000453300                optable_idx
 .data          0x0000000000453fc0        0x0 MinGW-w64R/safeseh.o
 .data          0x0000000000453fc0        0x0 MinGW-w64R/segment.o
 .data          0x0000000000453fc0        0x0 MinGW-w64R/simsegm.o
 .data          0x0000000000453fc0        0x0 MinGW-w64R/string.o
 .data          0x0000000000453fc0        0x0 MinGW-w64R/symbols.o
 .data          0x0000000000453fc0        0x0 MinGW-w64R/tbyte.o
 .data          0x0000000000453fc0        0x0 MinGW-w64R/tokenize.o
 .data          0x0000000000453fc0        0x0 MinGW-w64R/types.o
 .data          0x0000000000453fc0        0x0 C:/Program Files/mingw-w64/x86_64-5.3.0-posix-seh-rt_v4-rev0/mingw64/bin/../lib/gcc/x86_64-w64-mingw32/5.3.0/../../../../x86_64-w64-mingw32/lib/../lib/libmingw32.a(lib64_libmingw32_a-atonexit.o)
 .data          0x0000000000453fc0       0x10 C:/Program Files/mingw-w64/x86_64-5.3.0-posix-seh-rt_v4-rev0/mingw64/bin/../lib/gcc/x86_64-w64-mingw32/5.3.0/../../../../x86_64-w64-mingw32/lib/../lib/libmingw32.a(lib64_libmingw32_a-gccmain.o)
 .data          0x0000000000453fd0       0x10 C:/Program Files/mingw-w64/x86_64-5.3.0-posix-seh-rt_v4-rev0/mingw64/bin/../lib/gcc/x86_64-w64-mingw32/5.3.0/../../../../x86_64-w64-mingw32/lib/../lib/libmingw32.a(lib64_libmingw32_a-natstart.o)
                0x0000000000453fd0                __native_vcclrit_reason
                0x0000000000453fd4                __native_dllmain_reason
 .data          0x0000000000453fe0       0x10 C:/Program Files/mingw-w64/x86_64-5.3.0-posix-seh-rt_v4-rev0/mingw64/bin/../lib/gcc/x86_64-w64-mingw32/5.3.0/../../../../x86_64-w64-mingw32/lib/../lib/libmingw32.a(lib64_libmingw32_a-wildcard.o)
                0x0000000000453fe0                _dowildcard
 .data          0x0000000000453ff0       0x10 C:/Program Files/mingw-w64/x86_64-5.3.0-posix-seh-rt_v4-rev0/mingw64/bin/../lib/gcc/x86_64-w64-mingw32/5.3.0/../../../../x86_64-w64-mingw32/lib/../lib/libmingw32.a(lib64_libmingw32_a-charmax.o)
                0x0000000000453ff0                _charmax
 .data          0x0000000000454000        0x0 C:/Program Files/mingw-w64/x86_64-5.3.0-posix-seh-rt_v4-rev0/mingw64/bin/../lib/gcc/x86_64-w64-mingw32/5.3.0/../../../../x86_64-w64-mingw32/lib/../lib/libmingw32.a(lib64_libmingw32_a-dllargv.o)
 .data          0x0000000000454000        0x0 C:/Program Files/mingw-w64/x86_64-5.3.0-posix-seh-rt_v4-rev0/mingw64/bin/../lib/gcc/x86_64-w64-mingw32/5.3.0/../../../../x86_64-w64-mingw32/lib/../lib/libmingw32.a(lib64_libmingw32_a-gs_support.o)
 .data          0x0000000000454000        0x0 C:/Program Files/mingw-w64/x86_64-5.3.0-posix-seh-rt_v4-rev0/mingw64/bin/../lib/gcc/x86_64-w64-mingw32/5.3.0/../../../../x86_64-w64-mingw32/lib/../lib/libmingw32.a(lib64_libmingw32_a-_newmode.o)
 .data          0x0000000000454000        0x0 C:/Program Files/mingw-w64/x86_64-5.3.0-posix-seh-rt_v4-rev0/mingw64/bin/../lib/gcc/x86_64-w64-mingw32/5.3.0/../../../../x86_64-w64-mingw32/lib/../lib/libmingw32.a(lib64_libmingw32_a-tlssup.o)
 .data          0x0000000000454000        0x0 C:/Program Files/mingw-w64/x86_64-5.3.0-posix-seh-rt_v4-rev0/mingw64/bin/../lib/gcc/x86_64-w64-mingw32/5.3.0/../../../../x86_64-w64-mingw32/lib/../lib/libmingw32.a(lib64_libmingw32_a-cinitexe.o)
 .data          0x0000000000454000        0x0 C:/Program Files/mingw-w64/x86_64-5.3.0-posix-seh-rt_v4-rev0/mingw64/bin/../lib/gcc/x86_64-w64-mingw32/5.3.0/../../../../x86_64-w64-mingw32/lib/../lib/libmingw32.a(lib64_libmingw32_a-merr.o)
 .data          0x0000000000454000        0x0 C:/Program Files/mingw-w64/x86_64-5.3.0-posix-seh-rt_v4-rev0/mingw64/bin/../lib/gcc/x86_64-w64-mingw32/5.3.0/../../../../x86_64-w64-mingw32/lib/../lib/libmingw32.a(lib64_libmingw32_a-CRT_fp10.o)
 .data          0x0000000000454000        0x0 C:/Program Files/mingw-w64/x86_64-5.3.0-posix-seh-rt_v4-rev0/mingw64/bin/../lib/gcc/x86_64-w64-mingw32/5.3.0/../../../../x86_64-w64-mingw32/lib/../lib/libmingw32.a(lib64_libmingw32_a-mingw_helpers.o)
 .data          0x0000000000454000        0x0 C:/Program Files/mingw-w64/x86_64-5.3.0-posix-seh-rt_v4-rev0/mingw64/bin/../lib/gcc/x86_64-w64-mingw32/5.3.0/../../../../x86_64-w64-mingw32/lib/../lib/libmingw32.a(lib64_libmingw32_a-pseudo-reloc.o)
 .data          0x0000000000454000        0x0 C:/Program Files/mingw-w64/x86_64-5.3.0-posix-seh-rt_v4-rev0/mingw64/bin/../lib/gcc/x86_64-w64-mingw32/5.3.0/../../../../x86_64-w64-mingw32/lib/../lib/libmingw32.a(lib64_libmingw32_a-xtxtmode.o)
 .data          0x0000000000454000        0x0 C:/Program Files/mingw-w64/x86_64-5.3.0-posix-seh-rt_v4-rev0/mingw64/bin/../lib/gcc/x86_64-w64-mingw32/5.3.0/../../../../x86_64-w64-mingw32/lib/../lib/libmingw32.a(lib64_libmingw32_a-crt_handler.o)
 .data          0x0000000000454000        0x0 C:/Program Files/mingw-w64/x86_64-5.3.0-posix-seh-rt_v4-rev0/mingw64/bin/../lib/gcc/x86_64-w64-mingw32/5.3.0/../../../../x86_64-w64-mingw32/lib/../lib/libmingw32.a(lib64_libmingw32_a-tlsthrd.o)
 .data          0x0000000000454000       0x10 C:/Program Files/mingw-w64/x86_64-5.3.0-posix-seh-rt_v4-rev0/mingw64/bin/../lib/gcc/x86_64-w64-mingw32/5.3.0/../../../../x86_64-w64-mingw32/lib/../lib/libmingw32.a(lib64_libmingw32_a-tlsmcrt.o)
                0x0000000000454000                _CRT_MT
 .data          0x0000000000454010        0x0 C:/Program Files/mingw-w64/x86_64-5.3.0-posix-seh-rt_v4-rev0/mingw64/bin/../lib/gcc/x86_64-w64-mingw32/5.3.0/../../../../x86_64-w64-mingw32/lib/../lib/libmingw32.a(lib64_libmingw32_a-pseudo-reloc-list.o)
 .data          0x0000000000454010        0x0 C:/Program Files/mingw-w64/x86_64-5.3.0-posix-seh-rt_v4-rev0/mingw64/bin/../lib/gcc/x86_64-w64-mingw32/5.3.0/../../../../x86_64-w64-mingw32/lib/../lib/libmingw32.a(lib64_libmingw32_a-pesect.o)
 .data          0x0000000000454010        0x0 C:/Program Files/mingw-w64/x86_64-5.3.0-posix-seh-rt_v4-rev0/mingw64/bin/../lib/gcc/x86_64-w64-mingw32/5.3.0/libgcc.a(_chkstk_ms.o)
 .data          0x0000000000454010        0x0 C:/Program Files/mingw-w64/x86_64-5.3.0-posix-seh-rt_v4-rev0/mingw64/bin/../lib/gcc/x86_64-w64-mingw32/5.3.0/libgcc.a(_ctors.o)
 .data          0x0000000000454010       0x20 C:/Program Files/mingw-w64/x86_64-5.3.0-posix-seh-rt_v4-rev0/mingw64/bin/../lib/gcc/x86_64-w64-mingw32/5.3.0/../../../../x86_64-w64-mingw32/lib/../lib/libmingwex.a(lib64_libmingwex_a-strtodnrp.o)
 .data          0x0000000000454030        0x0 C:/Program Files/mingw-w64/x86_64-5.3.0-posix-seh-rt_v4-rev0/mingw64/bin/../lib/gcc/x86_64-w64-mingw32/5.3.0/../../../../x86_64-w64-mingw32/lib/../lib/libmingwex.a(lib64_libmingwex_a-mingw_getsp.o)
 .data          0x0000000000454030       0x10 C:/Program Files/mingw-w64/x86_64-5.3.0-posix-seh-rt_v4-rev0/mingw64/bin/../lib/gcc/x86_64-w64-mingw32/5.3.0/../../../../x86_64-w64-mingw32/lib/../lib/libmingwex.a(lib64_libmingwex_a-mingw_matherr.o)
                0x0000000000454030                _MINGW_INSTALL_DEBUG_MATHERR
 .data          0x0000000000454040        0x0 C:/Program Files/mingw-w64/x86_64-5.3.0-posix-seh-rt_v4-rev0/mingw64/bin/../lib/gcc/x86_64-w64-mingw32/5.3.0/../../../../x86_64-w64-mingw32/lib/../lib/libmingwex.a(lib64_libmingwex_a-strtodg.o)
 .data          0x0000000000454040        0x0 C:/Program Files/mingw-w64/x86_64-5.3.0-posix-seh-rt_v4-rev0/mingw64/bin/../lib/gcc/x86_64-w64-mingw32/5.3.0/../../../../x86_64-w64-mingw32/lib/../lib/libmingwex.a(lib64_libmingwex_a-sum.o)
 .data          0x0000000000454040        0x0 C:/Program Files/mingw-w64/x86_64-5.3.0-posix-seh-rt_v4-rev0/mingw64/bin/../lib/gcc/x86_64-w64-mingw32/5.3.0/../../../../x86_64-w64-mingw32/lib/../lib/libmingwex.a(lib64_libmingwex_a-gethex.o)
 .data          0x0000000000454040        0x0 C:/Program Files/mingw-w64/x86_64-5.3.0-posix-seh-rt_v4-rev0/mingw64/bin/../lib/gcc/x86_64-w64-mingw32/5.3.0/../../../../x86_64-w64-mingw32/lib/../lib/libmingwex.a(lib64_libmingwex_a-gmisc.o)
 .data          0x0000000000454040        0x0 C:/Program Files/mingw-w64/x86_64-5.3.0-posix-seh-rt_v4-rev0/mingw64/bin/../lib/gcc/x86_64-w64-mingw32/5.3.0/../../../../x86_64-w64-mingw32/lib/../lib/libmingwex.a(lib64_libmingwex_a-hd_init.o)
 .data          0x0000000000454040        0x0 C:/Program Files/mingw-w64/x86_64-5.3.0-posix-seh-rt_v4-rev0/mingw64/bin/../lib/gcc/x86_64-w64-mingw32/5.3.0/../../../../x86_64-w64-mingw32/lib/../lib/libmingwex.a(lib64_libmingwex_a-hexnan.o)
 .data          0x0000000000454040       0x10 C:/Program Files/mingw-w64/x86_64-5.3.0-posix-seh-rt_v4-rev0/mingw64/bin/../lib/gcc/x86_64-w64-mingw32/5.3.0/../../../../x86_64-w64-mingw32/lib/../lib/libmingwex.a(lib64_libmingwex_a-misc.o)
 .data          0x0000000000454050        0x0 C:/Program Files/mingw-w64/x86_64-5.3.0-posix-seh-rt_v4-rev0/mingw64/bin/../lib/gcc/x86_64-w64-mingw32/5.3.0/../../../../x86_64-w64-mingw32/lib/../lib/libmingwex.a(lib64_libmingwex_a-smisc.o)
 .data          0x0000000000454050        0x0 C:/Program Files/mingw-w64/x86_64-5.3.0-posix-seh-rt_v4-rev0/mingw64/bin/../lib/gcc/x86_64-w64-mingw32/5.3.0/../../../../x86_64-w64-mingw32/lib/../lib/libmsvcrt.a(dkpfs01245.o)
 .data          0x0000000000454050        0x0 C:/Program Files/mingw-w64/x86_64-5.3.0-posix-seh-rt_v4-rev0/mingw64/bin/../lib/gcc/x86_64-w64-mingw32/5.3.0/../../../../x86_64-w64-mingw32/lib/../lib/libmsvcrt.a(dkpfs01239.o)
 .data          0x0000000000454050        0x0 C:/Program Files/mingw-w64/x86_64-5.3.0-posix-seh-rt_v4-rev0/mingw64/bin/../lib/gcc/x86_64-w64-mingw32/5.3.0/../../../../x86_64-w64-mingw32/lib/../lib/libmsvcrt.a(dkpfs01233.o)
 .data          0x0000000000454050        0x0 C:/Program Files/mingw-w64/x86_64-5.3.0-posix-seh-rt_v4-rev0/mingw64/bin/../lib/gcc/x86_64-w64-mingw32/5.3.0/../../../../x86_64-w64-mingw32/lib/../lib/libmsvcrt.a(dkpfs01215.o)
 .data          0x0000000000454050        0x0 C:/Program Files/mingw-w64/x86_64-5.3.0-posix-seh-rt_v4-rev0/mingw64/bin/../lib/gcc/x86_64-w64-mingw32/5.3.0/../../../../x86_64-w64-mingw32/lib/../lib/libmsvcrt.a(dkpfs01208.o)
 .data          0x0000000000454050        0x0 C:/Program Files/mingw-w64/x86_64-5.3.0-posix-seh-rt_v4-rev0/mingw64/bin/../lib/gcc/x86_64-w64-mingw32/5.3.0/../../../../x86_64-w64-mingw32/lib/../lib/libmsvcrt.a(dkpfs01207.o)
 .data          0x0000000000454050        0x0 C:/Program Files/mingw-w64/x86_64-5.3.0-posix-seh-rt_v4-rev0/mingw64/bin/../lib/gcc/x86_64-w64-mingw32/5.3.0/../../../../x86_64-w64-mingw32/lib/../lib/libmsvcrt.a(dkpfs01204.o)
 .data          0x0000000000454050        0x0 C:/Program Files/mingw-w64/x86_64-5.3.0-posix-seh-rt_v4-rev0/mingw64/bin/../lib/gcc/x86_64-w64-mingw32/5.3.0/../../../../x86_64-w64-mingw32/lib/../lib/libmsvcrt.a(dkpfs01199.o)
 .data          0x0000000000454050        0x0 C:/Program Files/mingw-w64/x86_64-5.3.0-posix-seh-rt_v4-rev0/mingw64/bin/../lib/gcc/x86_64-w64-mingw32/5.3.0/../../../../x86_64-w64-mingw32/lib/../lib/libmsvcrt.a(dkpfs01197.o)
 .data          0x0000000000454050        0x0 C:/Program Files/mingw-w64/x86_64-5.3.0-posix-seh-rt_v4-rev0/mingw64/bin/../lib/gcc/x86_64-w64-mingw32/5.3.0/../../../../x86_64-w64-mingw32/lib/../lib/libmsvcrt.a(dkpfs01196.o)
 .data          0x0000000000454050        0x0 C:/Program Files/mingw-w64/x86_64-5.3.0-posix-seh-rt_v4-rev0/mingw64/bin/../lib/gcc/x86_64-w64-mingw32/5.3.0/../../../../x86_64-w64-mingw32/lib/../lib/libmsvcrt.a(dkpfs01194.o)
 .data          0x0000000000454050        0x0 C:/Program Files/mingw-w64/x86_64-5.3.0-posix-seh-rt_v4-rev0/mingw64/bin/../lib/gcc/x86_64-w64-mingw32/5.3.0/../../../../x86_64-w64-mingw32/lib/../lib/libmsvcrt.a(dkpfs01188.o)
 .data          0x0000000000454050        0x0 C:/Program Files/mingw-w64/x86_64-5.3.0-posix-seh-rt_v4-rev0/mingw64/bin/../lib/gcc/x86_64-w64-mingw32/5.3.0/../../../../x86_64-w64-mingw32/lib/../lib/libmsvcrt.a(dkpfs01183.o)
 .data          0x0000000000454050        0x0 C:/Program Files/mingw-w64/x86_64-5.3.0-posix-seh-rt_v4-rev0/mingw64/bin/../lib/gcc/x86_64-w64-mingw32/5.3.0/../../../../x86_64-w64-mingw32/lib/../lib/libmsvcrt.a(dkpfs01176.o)
 .data          0x0000000000454050        0x0 C:/Program Files/mingw-w64/x86_64-5.3.0-posix-seh-rt_v4-rev0/mingw64/bin/../lib/gcc/x86_64-w64-mingw32/5.3.0/../../../../x86_64-w64-mingw32/lib/../lib/libmsvcrt.a(dkpfs01174.o)
 .data          0x0000000000454050        0x0 C:/Program Files/mingw-w64/x86_64-5.3.0-posix-seh-rt_v4-rev0/mingw64/bin/../lib/gcc/x86_64-w64-mingw32/5.3.0/../../../../x86_64-w64-mingw32/lib/../lib/libmsvcrt.a(dkpfs01169.o)
 .data          0x0000000000454050        0x0 C:/Program Files/mingw-w64/x86_64-5.3.0-posix-seh-rt_v4-rev0/mingw64/bin/../lib/gcc/x86_64-w64-mingw32/5.3.0/../../../../x86_64-w64-mingw32/lib/../lib/libmsvcrt.a(dkpfs01166.o)
 .data          0x0000000000454050        0x0 C:/Program Files/mingw-w64/x86_64-5.3.0-posix-seh-rt_v4-rev0/mingw64/bin/../lib/gcc/x86_64-w64-mingw32/5.3.0/../../../../x86_64-w64-mingw32/lib/../lib/libmsvcrt.a(dkpfs01165.o)
 .data          0x0000000000454050        0x0 C:/Program Files/mingw-w64/x86_64-5.3.0-posix-seh-rt_v4-rev0/mingw64/bin/../lib/gcc/x86_64-w64-mingw32/5.3.0/../../../../x86_64-w64-mingw32/lib/../lib/libmsvcrt.a(dkpfs01162.o)
 .data          0x0000000000454050        0x0 C:/Program Files/mingw-w64/x86_64-5.3.0-posix-seh-rt_v4-rev0/mingw64/bin/../lib/gcc/x86_64-w64-mingw32/5.3.0/../../../../x86_64-w64-mingw32/lib/../lib/libmsvcrt.a(dkpfs01155.o)
 .data          0x0000000000454050        0x0 C:/Program Files/mingw-w64/x86_64-5.3.0-posix-seh-rt_v4-rev0/mingw64/bin/../lib/gcc/x86_64-w64-mingw32/5.3.0/../../../../x86_64-w64-mingw32/lib/../lib/libmsvcrt.a(dkpfs01154.o)
 .data          0x0000000000454050        0x0 C:/Program Files/mingw-w64/x86_64-5.3.0-posix-seh-rt_v4-rev0/mingw64/bin/../lib/gcc/x86_64-w64-mingw32/5.3.0/../../../../x86_64-w64-mingw32/lib/../lib/libmsvcrt.a(dkpfs01153.o)
 .data          0x0000000000454050        0x0 C:/Program Files/mingw-w64/x86_64-5.3.0-posix-seh-rt_v4-rev0/mingw64/bin/../lib/gcc/x86_64-w64-mingw32/5.3.0/../../../../x86_64-w64-mingw32/lib/../lib/libmsvcrt.a(dkpfs01152.o)
 .data          0x0000000000454050        0x0 C:/Program Files/mingw-w64/x86_64-5.3.0-posix-seh-rt_v4-rev0/mingw64/bin/../lib/gcc/x86_64-w64-mingw32/5.3.0/../../../../x86_64-w64-mingw32/lib/../lib/libmsvcrt.a(dkpfs01145.o)
 .data          0x0000000000454050        0x0 C:/Program Files/mingw-w64/x86_64-5.3.0-posix-seh-rt_v4-rev0/mingw64/bin/../lib/gcc/x86_64-w64-mingw32/5.3.0/../../../../x86_64-w64-mingw32/lib/../lib/libmsvcrt.a(dkpfs01144.o)
 .data          0x0000000000454050        0x0 C:/Program Files/mingw-w64/x86_64-5.3.0-posix-seh-rt_v4-rev0/mingw64/bin/../lib/gcc/x86_64-w64-mingw32/5.3.0/../../../../x86_64-w64-mingw32/lib/../lib/libmsvcrt.a(dkpfs01138.o)
 .data          0x0000000000454050        0x0 C:/Program Files/mingw-w64/x86_64-5.3.0-posix-seh-rt_v4-rev0/mingw64/bin/../lib/gcc/x86_64-w64-mingw32/5.3.0/../../../../x86_64-w64-mingw32/lib/../lib/libmsvcrt.a(dkpfs01118.o)
 .data          0x0000000000454050        0x0 C:/Program Files/mingw-w64/x86_64-5.3.0-posix-seh-rt_v4-rev0/mingw64/bin/../lib/gcc/x86_64-w64-mingw32/5.3.0/../../../../x86_64-w64-mingw32/lib/../lib/libmsvcrt.a(dkpfs01110.o)
 .data          0x0000000000454050        0x0 C:/Program Files/mingw-w64/x86_64-5.3.0-posix-seh-rt_v4-rev0/mingw64/bin/../lib/gcc/x86_64-w64-mingw32/5.3.0/../../../../x86_64-w64-mingw32/lib/../lib/libmsvcrt.a(dkpfs01109.o)
 .data          0x0000000000454050        0x0 C:/Program Files/mingw-w64/x86_64-5.3.0-posix-seh-rt_v4-rev0/mingw64/bin/../lib/gcc/x86_64-w64-mingw32/5.3.0/../../../../x86_64-w64-mingw32/lib/../lib/libmsvcrt.a(dkpfs01102.o)
 .data          0x0000000000454050        0x0 C:/Program Files/mingw-w64/x86_64-5.3.0-posix-seh-rt_v4-rev0/mingw64/bin/../lib/gcc/x86_64-w64-mingw32/5.3.0/../../../../x86_64-w64-mingw32/lib/../lib/libmsvcrt.a(dkpfs01100.o)
 .data          0x0000000000454050        0x0 C:/Program Files/mingw-w64/x86_64-5.3.0-posix-seh-rt_v4-rev0/mingw64/bin/../lib/gcc/x86_64-w64-mingw32/5.3.0/../../../../x86_64-w64-mingw32/lib/../lib/libmsvcrt.a(dkpfs01097.o)
 .data          0x0000000000454050        0x0 C:/Program Files/mingw-w64/x86_64-5.3.0-posix-seh-rt_v4-rev0/mingw64/bin/../lib/gcc/x86_64-w64-mingw32/5.3.0/../../../../x86_64-w64-mingw32/lib/../lib/libmsvcrt.a(dkpfs01094.o)
 .data          0x0000000000454050        0x0 C:/Program Files/mingw-w64/x86_64-5.3.0-posix-seh-rt_v4-rev0/mingw64/bin/../lib/gcc/x86_64-w64-mingw32/5.3.0/../../../../x86_64-w64-mingw32/lib/../lib/libmsvcrt.a(dkpfs01092.o)
 .data          0x0000000000454050        0x0 C:/Program Files/mingw-w64/x86_64-5.3.0-posix-seh-rt_v4-rev0/mingw64/bin/../lib/gcc/x86_64-w64-mingw32/5.3.0/../../../../x86_64-w64-mingw32/lib/../lib/libmsvcrt.a(dkpfs01086.o)
 .data          0x0000000000454050        0x0 C:/Program Files/mingw-w64/x86_64-5.3.0-posix-seh-rt_v4-rev0/mingw64/bin/../lib/gcc/x86_64-w64-mingw32/5.3.0/../../../../x86_64-w64-mingw32/lib/../lib/libmsvcrt.a(dkpfs01085.o)
 .data          0x0000000000454050        0x0 C:/Program Files/mingw-w64/x86_64-5.3.0-posix-seh-rt_v4-rev0/mingw64/bin/../lib/gcc/x86_64-w64-mingw32/5.3.0/../../../../x86_64-w64-mingw32/lib/../lib/libmsvcrt.a(dkpfs01079.o)
 .data          0x0000000000454050        0x0 C:/Program Files/mingw-w64/x86_64-5.3.0-posix-seh-rt_v4-rev0/mingw64/bin/../lib/gcc/x86_64-w64-mingw32/5.3.0/../../../../x86_64-w64-mingw32/lib/../lib/libmsvcrt.a(dkpfs01077.o)
 .data          0x0000000000454050        0x0 C:/Program Files/mingw-w64/x86_64-5.3.0-posix-seh-rt_v4-rev0/mingw64/bin/../lib/gcc/x86_64-w64-mingw32/5.3.0/../../../../x86_64-w64-mingw32/lib/../lib/libmsvcrt.a(dkpfs01067.o)
 .data          0x0000000000454050        0x0 C:/Program Files/mingw-w64/x86_64-5.3.0-posix-seh-rt_v4-rev0/mingw64/bin/../lib/gcc/x86_64-w64-mingw32/5.3.0/../../../../x86_64-w64-mingw32/lib/../lib/libmsvcrt.a(dkpfs01064.o)
 .data          0x0000000000454050        0x0 C:/Program Files/mingw-w64/x86_64-5.3.0-posix-seh-rt_v4-rev0/mingw64/bin/../lib/gcc/x86_64-w64-mingw32/5.3.0/../../../../x86_64-w64-mingw32/lib/../lib/libmsvcrt.a(dkpfs01060.o)
 .data          0x0000000000454050        0x0 C:/Program Files/mingw-w64/x86_64-5.3.0-posix-seh-rt_v4-rev0/mingw64/bin/../lib/gcc/x86_64-w64-mingw32/5.3.0/../../../../x86_64-w64-mingw32/lib/../lib/libmsvcrt.a(dkpfs01052.o)
 .data          0x0000000000454050        0x0 C:/Program Files/mingw-w64/x86_64-5.3.0-posix-seh-rt_v4-rev0/mingw64/bin/../lib/gcc/x86_64-w64-mingw32/5.3.0/../../../../x86_64-w64-mingw32/lib/../lib/libmsvcrt.a(dkpfs01047.o)
 .data          0x0000000000454050        0x0 C:/Program Files/mingw-w64/x86_64-5.3.0-posix-seh-rt_v4-rev0/mingw64/bin/../lib/gcc/x86_64-w64-mingw32/5.3.0/../../../../x86_64-w64-mingw32/lib/../lib/libmsvcrt.a(dkpfs01043.o)
 .data          0x0000000000454050        0x0 C:/Program Files/mingw-w64/x86_64-5.3.0-posix-seh-rt_v4-rev0/mingw64/bin/../lib/gcc/x86_64-w64-mingw32/5.3.0/../../../../x86_64-w64-mingw32/lib/../lib/libmsvcrt.a(dkpfs01030.o)
 .data          0x0000000000454050        0x0 C:/Program Files/mingw-w64/x86_64-5.3.0-posix-seh-rt_v4-rev0/mingw64/bin/../lib/gcc/x86_64-w64-mingw32/5.3.0/../../../../x86_64-w64-mingw32/lib/../lib/libmsvcrt.a(dkpfs00819.o)
 .data          0x0000000000454050        0x0 C:/Program Files/mingw-w64/x86_64-5.3.0-posix-seh-rt_v4-rev0/mingw64/bin/../lib/gcc/x86_64-w64-mingw32/5.3.0/../../../../x86_64-w64-mingw32/lib/../lib/libmsvcrt.a(dkpfs00788.o)
 .data          0x0000000000454050        0x0 C:/Program Files/mingw-w64/x86_64-5.3.0-posix-seh-rt_v4-rev0/mingw64/bin/../lib/gcc/x86_64-w64-mingw32/5.3.0/../../../../x86_64-w64-mingw32/lib/../lib/libmsvcrt.a(dkpfs00768.o)
 .data          0x0000000000454050        0x0 C:/Program Files/mingw-w64/x86_64-5.3.0-posix-seh-rt_v4-rev0/mingw64/bin/../lib/gcc/x86_64-w64-mingw32/5.3.0/../../../../x86_64-w64-mingw32/lib/../lib/libmsvcrt.a(dkpfs00731.o)
 .data          0x0000000000454050        0x0 C:/Program Files/mingw-w64/x86_64-5.3.0-posix-seh-rt_v4-rev0/mingw64/bin/../lib/gcc/x86_64-w64-mingw32/5.3.0/../../../../x86_64-w64-mingw32/lib/../lib/libmsvcrt.a(dkpfs00719.o)
 .data          0x0000000000454050        0x0 C:/Program Files/mingw-w64/x86_64-5.3.0-posix-seh-rt_v4-rev0/mingw64/bin/../lib/gcc/x86_64-w64-mingw32/5.3.0/../../../../x86_64-w64-mingw32/lib/../lib/libmsvcrt.a(dkpfs00667.o)
 .data          0x0000000000454050        0x0 C:/Program Files/mingw-w64/x86_64-5.3.0-posix-seh-rt_v4-rev0/mingw64/bin/../lib/gcc/x86_64-w64-mingw32/5.3.0/../../../../x86_64-w64-mingw32/lib/../lib/libmsvcrt.a(dkpfs00611.o)
 .data          0x0000000000454050        0x0 C:/Program Files/mingw-w64/x86_64-5.3.0-posix-seh-rt_v4-rev0/mingw64/bin/../lib/gcc/x86_64-w64-mingw32/5.3.0/../../../../x86_64-w64-mingw32/lib/../lib/libmsvcrt.a(dkpfs00599.o)
 .data          0x0000000000454050        0x0 C:/Program Files/mingw-w64/x86_64-5.3.0-posix-seh-rt_v4-rev0/mingw64/bin/../lib/gcc/x86_64-w64-mingw32/5.3.0/../../../../x86_64-w64-mingw32/lib/../lib/libmsvcrt.a(dkpfs00439.o)
 .data          0x0000000000454050        0x0 C:/Program Files/mingw-w64/x86_64-5.3.0-posix-seh-rt_v4-rev0/mingw64/bin/../lib/gcc/x86_64-w64-mingw32/5.3.0/../../../../x86_64-w64-mingw32/lib/../lib/libmsvcrt.a(dkpfs00438.o)
 .data          0x0000000000454050        0x0 C:/Program Files/mingw-w64/x86_64-5.3.0-posix-seh-rt_v4-rev0/mingw64/bin/../lib/gcc/x86_64-w64-mingw32/5.3.0/../../../../x86_64-w64-mingw32/lib/../lib/libmsvcrt.a(dkpfs00330.o)
 .data          0x0000000000454050        0x0 C:/Program Files/mingw-w64/x86_64-5.3.0-posix-seh-rt_v4-rev0/mingw64/bin/../lib/gcc/x86_64-w64-mingw32/5.3.0/../../../../x86_64-w64-mingw32/lib/../lib/libmsvcrt.a(dkpfs00251.o)
 .data          0x0000000000454050        0x0 C:/Program Files/mingw-w64/x86_64-5.3.0-posix-seh-rt_v4-rev0/mingw64/bin/../lib/gcc/x86_64-w64-mingw32/5.3.0/../../../../x86_64-w64-mingw32/lib/../lib/libmsvcrt.a(dkpfs00242.o)
 .data          0x0000000000454050        0x0 C:/Program Files/mingw-w64/x86_64-5.3.0-posix-seh-rt_v4-rev0/mingw64/bin/../lib/gcc/x86_64-w64-mingw32/5.3.0/../../../../x86_64-w64-mingw32/lib/../lib/libmsvcrt.a(dkpfs00238.o)
 .data          0x0000000000454050        0x0 C:/Program Files/mingw-w64/x86_64-5.3.0-posix-seh-rt_v4-rev0/mingw64/bin/../lib/gcc/x86_64-w64-mingw32/5.3.0/../../../../x86_64-w64-mingw32/lib/../lib/libmsvcrt.a(dkpfs00235.o)
 .data          0x0000000000454050        0x0 C:/Program Files/mingw-w64/x86_64-5.3.0-posix-seh-rt_v4-rev0/mingw64/bin/../lib/gcc/x86_64-w64-mingw32/5.3.0/../../../../x86_64-w64-mingw32/lib/../lib/libmsvcrt.a(dkpfs00234.o)
 .data          0x0000000000454050        0x0 C:/Program Files/mingw-w64/x86_64-5.3.0-posix-seh-rt_v4-rev0/mingw64/bin/../lib/gcc/x86_64-w64-mingw32/5.3.0/../../../../x86_64-w64-mingw32/lib/../lib/libmsvcrt.a(dkpfs00201.o)
 .data          0x0000000000454050        0x0 C:/Program Files/mingw-w64/x86_64-5.3.0-posix-seh-rt_v4-rev0/mingw64/bin/../lib/gcc/x86_64-w64-mingw32/5.3.0/../../../../x86_64-w64-mingw32/lib/../lib/libmsvcrt.a(dkpfs00149.o)
 .data          0x0000000000454050        0x0 C:/Program Files/mingw-w64/x86_64-5.3.0-posix-seh-rt_v4-rev0/mingw64/bin/../lib/gcc/x86_64-w64-mingw32/5.3.0/../../../../x86_64-w64-mingw32/lib/../lib/libmsvcrt.a(dkpfs00140.o)
 .data          0x0000000000454050        0x0 C:/Program Files/mingw-w64/x86_64-5.3.0-posix-seh-rt_v4-rev0/mingw64/bin/../lib/gcc/x86_64-w64-mingw32/5.3.0/../../../../x86_64-w64-mingw32/lib/../lib/libmsvcrt.a(dkpfs00122.o)
 .data          0x0000000000454050        0x0 C:/Program Files/mingw-w64/x86_64-5.3.0-posix-seh-rt_v4-rev0/mingw64/bin/../lib/gcc/x86_64-w64-mingw32/5.3.0/../../../../x86_64-w64-mingw32/lib/../lib/libmsvcrt.a(dkpfs00115.o)
 .data          0x0000000000454050        0x0 C:/Program Files/mingw-w64/x86_64-5.3.0-posix-seh-rt_v4-rev0/mingw64/bin/../lib/gcc/x86_64-w64-mingw32/5.3.0/../../../../x86_64-w64-mingw32/lib/../lib/libmsvcrt.a(dkpfs00098.o)
 .data          0x0000000000454050        0x0 C:/Program Files/mingw-w64/x86_64-5.3.0-posix-seh-rt_v4-rev0/mingw64/bin/../lib/gcc/x86_64-w64-mingw32/5.3.0/../../../../x86_64-w64-mingw32/lib/../lib/libmsvcrt.a(dkpfs00096.o)
 .data          0x0000000000454050        0x0 C:/Program Files/mingw-w64/x86_64-5.3.0-posix-seh-rt_v4-rev0/mingw64/bin/../lib/gcc/x86_64-w64-mingw32/5.3.0/../../../../x86_64-w64-mingw32/lib/../lib/libmsvcrt.a(dkpfs00090.o)
 .data          0x0000000000454050        0x0 C:/Program Files/mingw-w64/x86_64-5.3.0-posix-seh-rt_v4-rev0/mingw64/bin/../lib/gcc/x86_64-w64-mingw32/5.3.0/../../../../x86_64-w64-mingw32/lib/../lib/libmsvcrt.a(dkpfs00083.o)
 .data          0x0000000000454050        0x0 C:/Program Files/mingw-w64/x86_64-5.3.0-posix-seh-rt_v4-rev0/mingw64/bin/../lib/gcc/x86_64-w64-mingw32/5.3.0/../../../../x86_64-w64-mingw32/lib/../lib/libmsvcrt.a(dkpfs00082.o)
 .data          0x0000000000454050        0x0 C:/Program Files/mingw-w64/x86_64-5.3.0-posix-seh-rt_v4-rev0/mingw64/bin/../lib/gcc/x86_64-w64-mingw32/5.3.0/../../../../x86_64-w64-mingw32/lib/../lib/libmsvcrt.a(dkpfs00081.o)
 .data          0x0000000000454050        0x0 C:/Program Files/mingw-w64/x86_64-5.3.0-posix-seh-rt_v4-rev0/mingw64/bin/../lib/gcc/x86_64-w64-mingw32/5.3.0/../../../../x86_64-w64-mingw32/lib/../lib/libmsvcrt.a(dkpfs00078.o)
 .data          0x0000000000454050        0x0 C:/Program Files/mingw-w64/x86_64-5.3.0-posix-seh-rt_v4-rev0/mingw64/bin/../lib/gcc/x86_64-w64-mingw32/5.3.0/../../../../x86_64-w64-mingw32/lib/../lib/libmsvcrt.a(dkpfs00055.o)
 .data          0x0000000000454050       0x10 C:/Program Files/mingw-w64/x86_64-5.3.0-posix-seh-rt_v4-rev0/mingw64/bin/../lib/gcc/x86_64-w64-mingw32/5.3.0/../../../../x86_64-w64-mingw32/lib/../lib/libmsvcrt.a(lib64_libmsvcrt_a-invalid_parameter_handler.o)
                0x0000000000454050                __imp__get_invalid_parameter_handler
                0x0000000000454058                __imp__set_invalid_parameter_handler
 .data          0x0000000000454060        0x0 C:/Program Files/mingw-w64/x86_64-5.3.0-posix-seh-rt_v4-rev0/mingw64/bin/../lib/gcc/x86_64-w64-mingw32/5.3.0/../../../../x86_64-w64-mingw32/lib/../lib/libmsvcrt.a(dkpfh.o)
 .data          0x0000000000454060        0x0 C:/Program Files/mingw-w64/x86_64-5.3.0-posix-seh-rt_v4-rev0/mingw64/bin/../lib/gcc/x86_64-w64-mingw32/5.3.0/../../../../x86_64-w64-mingw32/lib/../lib/libmsvcrt.a(dkpft.o)
 .data          0x0000000000454060        0x0 C:/Program Files/mingw-w64/x86_64-5.3.0-posix-seh-rt_v4-rev0/mingw64/bin/../lib/gcc/x86_64-w64-mingw32/5.3.0/../../../../x86_64-w64-mingw32/lib/../lib/libkernel32.a(dqmfs01266.o)
 .data          0x0000000000454060        0x0 C:/Program Files/mingw-w64/x86_64-5.3.0-posix-seh-rt_v4-rev0/mingw64/bin/../lib/gcc/x86_64-w64-mingw32/5.3.0/../../../../x86_64-w64-mingw32/lib/../lib/libkernel32.a(dqmfs01264.o)
 .data          0x0000000000454060        0x0 C:/Program Files/mingw-w64/x86_64-5.3.0-posix-seh-rt_v4-rev0/mingw64/bin/../lib/gcc/x86_64-w64-mingw32/5.3.0/../../../../x86_64-w64-mingw32/lib/../lib/libkernel32.a(dqmfs01261.o)
 .data          0x0000000000454060        0x0 C:/Program Files/mingw-w64/x86_64-5.3.0-posix-seh-rt_v4-rev0/mingw64/bin/../lib/gcc/x86_64-w64-mingw32/5.3.0/../../../../x86_64-w64-mingw32/lib/../lib/libkernel32.a(dqmfs01258.o)
 .data          0x0000000000454060        0x0 C:/Program Files/mingw-w64/x86_64-5.3.0-posix-seh-rt_v4-rev0/mingw64/bin/../lib/gcc/x86_64-w64-mingw32/5.3.0/../../../../x86_64-w64-mingw32/lib/../lib/libkernel32.a(dqmfs01234.o)
 .data          0x0000000000454060        0x0 C:/Program Files/mingw-w64/x86_64-5.3.0-posix-seh-rt_v4-rev0/mingw64/bin/../lib/gcc/x86_64-w64-mingw32/5.3.0/../../../../x86_64-w64-mingw32/lib/../lib/libkernel32.a(dqmfs01221.o)
 .data          0x0000000000454060        0x0 C:/Program Files/mingw-w64/x86_64-5.3.0-posix-seh-rt_v4-rev0/mingw64/bin/../lib/gcc/x86_64-w64-mingw32/5.3.0/../../../../x86_64-w64-mingw32/lib/../lib/libkernel32.a(dqmfs01214.o)
 .data          0x0000000000454060        0x0 C:/Program Files/mingw-w64/x86_64-5.3.0-posix-seh-rt_v4-rev0/mingw64/bin/../lib/gcc/x86_64-w64-mingw32/5.3.0/../../../../x86_64-w64-mingw32/lib/../lib/libkernel32.a(dqmfs01200.o)
 .data          0x0000000000454060        0x0 C:/Program Files/mingw-w64/x86_64-5.3.0-posix-seh-rt_v4-rev0/mingw64/bin/../lib/gcc/x86_64-w64-mingw32/5.3.0/../../../../x86_64-w64-mingw32/lib/../lib/libkernel32.a(dqmfs01187.o)
 .data          0x0000000000454060        0x0 C:/Program Files/mingw-w64/x86_64-5.3.0-posix-seh-rt_v4-rev0/mingw64/bin/../lib/gcc/x86_64-w64-mingw32/5.3.0/../../../../x86_64-w64-mingw32/lib/../lib/libkernel32.a(dqmfs01044.o)
 .data          0x0000000000454060        0x0 C:/Program Files/mingw-w64/x86_64-5.3.0-posix-seh-rt_v4-rev0/mingw64/bin/../lib/gcc/x86_64-w64-mingw32/5.3.0/../../../../x86_64-w64-mingw32/lib/../lib/libkernel32.a(dqmfs01037.o)
 .data          0x0000000000454060        0x0 C:/Program Files/mingw-w64/x86_64-5.3.0-posix-seh-rt_v4-rev0/mingw64/bin/../lib/gcc/x86_64-w64-mingw32/5.3.0/../../../../x86_64-w64-mingw32/lib/../lib/libkernel32.a(dqmfs01030.o)
 .data          0x0000000000454060        0x0 C:/Program Files/mingw-w64/x86_64-5.3.0-posix-seh-rt_v4-rev0/mingw64/bin/../lib/gcc/x86_64-w64-mingw32/5.3.0/../../../../x86_64-w64-mingw32/lib/../lib/libkernel32.a(dqmfs01029.o)
 .data          0x0000000000454060        0x0 C:/Program Files/mingw-w64/x86_64-5.3.0-posix-seh-rt_v4-rev0/mingw64/bin/../lib/gcc/x86_64-w64-mingw32/5.3.0/../../../../x86_64-w64-mingw32/lib/../lib/libkernel32.a(dqmfs00958.o)
 .data          0x0000000000454060        0x0 C:/Program Files/mingw-w64/x86_64-5.3.0-posix-seh-rt_v4-rev0/mingw64/bin/../lib/gcc/x86_64-w64-mingw32/5.3.0/../../../../x86_64-w64-mingw32/lib/../lib/libkernel32.a(dqmfs00844.o)
 .data          0x0000000000454060        0x0 C:/Program Files/mingw-w64/x86_64-5.3.0-posix-seh-rt_v4-rev0/mingw64/bin/../lib/gcc/x86_64-w64-mingw32/5.3.0/../../../../x86_64-w64-mingw32/lib/../lib/libkernel32.a(dqmfs00762.o)
 .data          0x0000000000454060        0x0 C:/Program Files/mingw-w64/x86_64-5.3.0-posix-seh-rt_v4-rev0/mingw64/bin/../lib/gcc/x86_64-w64-mingw32/5.3.0/../../../../x86_64-w64-mingw32/lib/../lib/libkernel32.a(dqmfs00678.o)
 .data          0x0000000000454060        0x0 C:/Program Files/mingw-w64/x86_64-5.3.0-posix-seh-rt_v4-rev0/mingw64/bin/../lib/gcc/x86_64-w64-mingw32/5.3.0/../../../../x86_64-w64-mingw32/lib/../lib/libkernel32.a(dqmfs00651.o)
 .data          0x0000000000454060        0x0 C:/Program Files/mingw-w64/x86_64-5.3.0-posix-seh-rt_v4-rev0/mingw64/bin/../lib/gcc/x86_64-w64-mingw32/5.3.0/../../../../x86_64-w64-mingw32/lib/../lib/libkernel32.a(dqmfs00628.o)
 .data          0x0000000000454060        0x0 C:/Program Files/mingw-w64/x86_64-5.3.0-posix-seh-rt_v4-rev0/mingw64/bin/../lib/gcc/x86_64-w64-mingw32/5.3.0/../../../../x86_64-w64-mingw32/lib/../lib/libkernel32.a(dqmfs00599.o)
 .data          0x0000000000454060        0x0 C:/Program Files/mingw-w64/x86_64-5.3.0-posix-seh-rt_v4-rev0/mingw64/bin/../lib/gcc/x86_64-w64-mingw32/5.3.0/../../../../x86_64-w64-mingw32/lib/../lib/libkernel32.a(dqmfs00549.o)
 .data          0x0000000000454060        0x0 C:/Program Files/mingw-w64/x86_64-5.3.0-posix-seh-rt_v4-rev0/mingw64/bin/../lib/gcc/x86_64-w64-mingw32/5.3.0/../../../../x86_64-w64-mingw32/lib/../lib/libkernel32.a(dqmfs00529.o)
 .data          0x0000000000454060        0x0 C:/Program Files/mingw-w64/x86_64-5.3.0-posix-seh-rt_v4-rev0/mingw64/bin/../lib/gcc/x86_64-w64-mingw32/5.3.0/../../../../x86_64-w64-mingw32/lib/../lib/libkernel32.a(dqmfs00467.o)
 .data          0x0000000000454060        0x0 C:/Program Files/mingw-w64/x86_64-5.3.0-posix-seh-rt_v4-rev0/mingw64/bin/../lib/gcc/x86_64-w64-mingw32/5.3.0/../../../../x86_64-w64-mingw32/lib/../lib/libkernel32.a(dqmfs00463.o)
 .data          0x0000000000454060        0x0 C:/Program Files/mingw-w64/x86_64-5.3.0-posix-seh-rt_v4-rev0/mingw64/bin/../lib/gcc/x86_64-w64-mingw32/5.3.0/../../../../x86_64-w64-mingw32/lib/../lib/libkernel32.a(dqmfs00462.o)
 .data          0x0000000000454060        0x0 C:/Program Files/mingw-w64/x86_64-5.3.0-posix-seh-rt_v4-rev0/mingw64/bin/../lib/gcc/x86_64-w64-mingw32/5.3.0/../../../../x86_64-w64-mingw32/lib/../lib/libkernel32.a(dqmfs00249.o)
 .data          0x0000000000454060        0x0 C:/Program Files/mingw-w64/x86_64-5.3.0-posix-seh-rt_v4-rev0/mingw64/bin/../lib/gcc/x86_64-w64-mingw32/5.3.0/../../../../x86_64-w64-mingw32/lib/../lib/libkernel32.a(dqmfs00216.o)
 .data          0x0000000000454060        0x0 C:/Program Files/mingw-w64/x86_64-5.3.0-posix-seh-rt_v4-rev0/mingw64/bin/../lib/gcc/x86_64-w64-mingw32/5.3.0/../../../../x86_64-w64-mingw32/lib/../lib/libkernel32.a(dqmfh.o)
 .data          0x0000000000454060        0x0 C:/Program Files/mingw-w64/x86_64-5.3.0-posix-seh-rt_v4-rev0/mingw64/bin/../lib/gcc/x86_64-w64-mingw32/5.3.0/../../../../x86_64-w64-mingw32/lib/../lib/libkernel32.a(dqmft.o)
 .data          0x0000000000454060        0x0 C:/Program Files/mingw-w64/x86_64-5.3.0-posix-seh-rt_v4-rev0/mingw64/bin/../lib/gcc/x86_64-w64-mingw32/5.3.0/crtend.o
 *(.data2)
 *(SORT(.data$*))
 .data$__security_cookie
                0x0000000000454060       0x10 C:/Program Files/mingw-w64/x86_64-5.3.0-posix-seh-rt_v4-rev0/mingw64/bin/../lib/gcc/x86_64-w64-mingw32/5.3.0/../../../../x86_64-w64-mingw32/lib/../lib/libmingw32.a(lib64_libmingw32_a-gs_support.o)
                0x0000000000454060                __security_cookie
 .data$__security_cookie_complement
                0x0000000000454070       0x10 C:/Program Files/mingw-w64/x86_64-5.3.0-posix-seh-rt_v4-rev0/mingw64/bin/../lib/gcc/x86_64-w64-mingw32/5.3.0/../../../../x86_64-w64-mingw32/lib/../lib/libmingw32.a(lib64_libmingw32_a-gs_support.o)
                0x0000000000454070                __security_cookie_complement
 *(.jcr)
 .jcr           0x0000000000454080        0x0 C:/Program Files/mingw-w64/x86_64-5.3.0-posix-seh-rt_v4-rev0/mingw64/bin/../lib/gcc/x86_64-w64-mingw32/5.3.0/crtbegin.o
 .jcr           0x0000000000454080        0x8 C:/Program Files/mingw-w64/x86_64-5.3.0-posix-seh-rt_v4-rev0/mingw64/bin/../lib/gcc/x86_64-w64-mingw32/5.3.0/crtend.o
                0x0000000000454088                __data_end__ = .
 *(.data_cygwin_nocopy)

.rdata          0x0000000000455000    0x16600
 *(.rdata)
 .rdata         0x0000000000455000       0x30 C:/Program Files/mingw-w64/x86_64-5.3.0-posix-seh-rt_v4-rev0/mingw64/bin/../lib/gcc/x86_64-w64-mingw32/5.3.0/crtbegin.o
 .rdata         0x0000000000455030       0x10 MinGW-w64R/main.o
 .rdata         0x0000000000455040      0x140 MinGW-w64R/assemble.o
 .rdata         0x0000000000455180       0x90 MinGW-w64R/assume.o
                0x00000000004551d0                szDgroup
 .rdata         0x0000000000455210       0x20 MinGW-w64R/atofloat.o
 *fill*         0x0000000000455230       0x10 
 .rdata         0x0000000000455240      0x7e0 MinGW-w64R/bin.o
 .rdata         0x0000000000455a20      0x900 MinGW-w64R/cmdline.o
 .rdata         0x0000000000456320      0x120 MinGW-w64R/codegen.o
                0x0000000000456432                szNull
 .rdata         0x0000000000456440      0x110 MinGW-w64R/coff.o
 .rdata         0x0000000000456550       0xb0 MinGW-w64R/condasm.o
 .rdata         0x0000000000456600      0x120 MinGW-w64R/context.o
 .rdata         0x0000000000456720      0x140 MinGW-w64R/cpumodel.o
                0x0000000000456790                elf64_fmtopt
                0x00000000004567a0                coff64_fmtopt
                0x0000000000456820                ModelToken
 .rdata         0x0000000000456860       0x80 MinGW-w64R/data.o
 .rdata         0x00000000004568e0       0x30 MinGW-w64R/dbgcv.o
 *fill*         0x0000000000456910       0x10 
 .rdata         0x0000000000456920      0x1c0 MinGW-w64R/directiv.o
                0x0000000000456920                directive_tab
 .rdata         0x0000000000456ae0      0x180 MinGW-w64R/elf.o
 .rdata         0x0000000000456c60      0x2c0 MinGW-w64R/end.o
 .rdata         0x0000000000456f20       0x40 MinGW-w64R/equate.o
                0x0000000000456f20                minintvalues
                0x0000000000456f40                maxintvalues
 .rdata         0x0000000000456f60      0xc20 MinGW-w64R/errmsg.o
 .rdata         0x0000000000457b80       0xd0 MinGW-w64R/expans.o
 *fill*         0x0000000000457c50       0x10 
 .rdata         0x0000000000457c60      0x420 MinGW-w64R/expreval.o
 .rdata         0x0000000000458080       0x10 MinGW-w64R/extern.o
 .rdata         0x0000000000458090       0x10 MinGW-w64R/fastpass.o
 .rdata         0x00000000004580a0       0x10 MinGW-w64R/fpfixup.o
 .rdata         0x00000000004580b0      0x180 MinGW-w64R/hll.o
 .rdata         0x0000000000458230       0x20 MinGW-w64R/input.o
 *fill*         0x0000000000458250       0x10 
 .rdata         0x0000000000458260      0x420 MinGW-w64R/invoke.o
 .rdata         0x0000000000458680       0x10 MinGW-w64R/label.o
 .rdata         0x0000000000458690       0x10 MinGW-w64R/linnum.o
 .rdata         0x00000000004586a0      0xa40 MinGW-w64R/listing.o
 .rdata         0x00000000004590e0       0x20 MinGW-w64R/loop.o
 .rdata         0x0000000000459100       0x60 MinGW-w64R/lqueue.o
 .rdata         0x0000000000459160       0xb0 MinGW-w64R/macro.o
 .rdata         0x0000000000459210       0x50 MinGW-w64R/mangle.o
 .rdata         0x0000000000459260     0x2ec0 MinGW-w64R/msgtext.o
                0x0000000000459268                szCVCompiler
 .rdata         0x000000000045c120       0x30 MinGW-w64R/omf.o
 .rdata         0x000000000045c150       0x30 MinGW-w64R/omffixup.o
 .rdata         0x000000000045c180       0xc0 MinGW-w64R/omfint.o
 .rdata         0x000000000045c240      0x440 MinGW-w64R/option.o
 .rdata         0x000000000045c680       0xc0 MinGW-w64R/parser.o
 .rdata         0x000000000045c740       0x70 MinGW-w64R/posndir.o
 *fill*         0x000000000045c7b0       0x10 
 .rdata         0x000000000045c7c0      0x3c0 MinGW-w64R/proc.o
                0x000000000045cad0                stackreg
 .rdata         0x000000000045cb80     0xbce0 MinGW-w64R/reswords.o
                0x000000000045cbc0                vex_flags
                0x00000000004606e0                opnd_clstab
                0x0000000000461140                SpecialTable
                0x0000000000462660                InstrTable
 .rdata         0x0000000000468860       0x10 MinGW-w64R/safeseh.o
 *fill*         0x0000000000468870       0x10 
 .rdata         0x0000000000468880      0x200 MinGW-w64R/segment.o
 .rdata         0x0000000000468a80      0x1a0 MinGW-w64R/simsegm.o
 .rdata         0x0000000000468c20       0x20 MinGW-w64R/string.o
 .rdata         0x0000000000468c40      0x200 MinGW-w64R/symbols.o
 .rdata         0x0000000000468e40      0x1c0 MinGW-w64R/tbyte.o
 .rdata         0x0000000000469000      0x1a0 MinGW-w64R/tokenize.o
 .rdata         0x00000000004691a0       0x50 MinGW-w64R/types.o
 .rdata         0x00000000004691f0       0x10 C:/Program Files/mingw-w64/x86_64-5.3.0-posix-seh-rt_v4-rev0/mingw64/bin/../lib/gcc/x86_64-w64-mingw32/5.3.0/../../../../x86_64-w64-mingw32/lib/../lib/libmingw32.a(lib64_libmingw32_a-gs_support.o)
 .rdata         0x0000000000469200       0x10 C:/Program Files/mingw-w64/x86_64-5.3.0-posix-seh-rt_v4-rev0/mingw64/bin/../lib/gcc/x86_64-w64-mingw32/5.3.0/../../../../x86_64-w64-mingw32/lib/../lib/libmingw32.a(lib64_libmingw32_a-tlssup.o)
                0x0000000000469200                __dyn_tls_init_callback
 .rdata         0x0000000000469210      0x140 C:/Program Files/mingw-w64/x86_64-5.3.0-posix-seh-rt_v4-rev0/mingw64/bin/../lib/gcc/x86_64-w64-mingw32/5.3.0/../../../../x86_64-w64-mingw32/lib/../lib/libmingw32.a(lib64_libmingw32_a-merr.o)
 .rdata         0x0000000000469350      0x110 C:/Program Files/mingw-w64/x86_64-5.3.0-posix-seh-rt_v4-rev0/mingw64/bin/../lib/gcc/x86_64-w64-mingw32/5.3.0/../../../../x86_64-w64-mingw32/lib/../lib/libmingw32.a(lib64_libmingw32_a-pseudo-reloc.o)
 .rdata         0x0000000000469460       0x10 C:/Program Files/mingw-w64/x86_64-5.3.0-posix-seh-rt_v4-rev0/mingw64/bin/../lib/gcc/x86_64-w64-mingw32/5.3.0/../../../../x86_64-w64-mingw32/lib/../lib/libmingw32.a(lib64_libmingw32_a-crt_handler.o)
 .rdata         0x0000000000469470       0x20 C:/Program Files/mingw-w64/x86_64-5.3.0-posix-seh-rt_v4-rev0/mingw64/bin/../lib/gcc/x86_64-w64-mingw32/5.3.0/../../../../x86_64-w64-mingw32/lib/../lib/libmingwex.a(lib64_libmingwex_a-strtodnrp.o)
 *fill*         0x0000000000469490       0x30 
 .rdata         0x00000000004694c0      0x1c0 C:/Program Files/mingw-w64/x86_64-5.3.0-posix-seh-rt_v4-rev0/mingw64/bin/../lib/gcc/x86_64-w64-mingw32/5.3.0/../../../../x86_64-w64-mingw32/lib/../lib/libmingwex.a(lib64_libmingwex_a-strtodg.o)
 .rdata         0x0000000000469680       0x20 C:/Program Files/mingw-w64/x86_64-5.3.0-posix-seh-rt_v4-rev0/mingw64/bin/../lib/gcc/x86_64-w64-mingw32/5.3.0/../../../../x86_64-w64-mingw32/lib/../lib/libmingwex.a(lib64_libmingwex_a-hd_init.o)
 *fill*         0x00000000004696a0       0x20 
 .rdata         0x00000000004696c0      0x180 C:/Program Files/mingw-w64/x86_64-5.3.0-posix-seh-rt_v4-rev0/mingw64/bin/../lib/gcc/x86_64-w64-mingw32/5.3.0/../../../../x86_64-w64-mingw32/lib/../lib/libmingwex.a(lib64_libmingwex_a-misc.o)
                0x0000000000469700                __tens_D2A
                0x00000000004697c0                __tinytens_D2A
                0x0000000000469800                __bigtens_D2A
 *(SORT(.rdata$*))
 .rdata$.refptr.CurrIfState
                0x0000000000469840       0x10 MinGW-w64R/preproc.o
                0x0000000000469840                .refptr.CurrIfState
 .rdata$.refptr.CurrProc
                0x0000000000469850       0x10 MinGW-w64R/expreval.o
                0x0000000000469850                .refptr.CurrProc
 .rdata$.refptr.CurrStruct
                0x0000000000469860       0x10 MinGW-w64R/data.o
                0x0000000000469860                .refptr.CurrStruct
 .rdata$.refptr.DefaultDir
                0x0000000000469870       0x10 MinGW-w64R/assemble.o
                0x0000000000469870                .refptr.DefaultDir
 .rdata$.refptr.EmitErr
                0x0000000000469880       0x10 MinGW-w64R/expreval.o
                0x0000000000469880                .refptr.EmitErr
 .rdata$.refptr.Frame_Datum
                0x0000000000469890       0x10 MinGW-w64R/parser.o
                0x0000000000469890                .refptr.Frame_Datum
 .rdata$.refptr.Frame_Type
                0x00000000004698a0       0x10 MinGW-w64R/parser.o
                0x00000000004698a0                .refptr.Frame_Type
 .rdata$.refptr.InstrTable
                0x00000000004698b0       0x10 MinGW-w64R/branch.o
                0x00000000004698b0                .refptr.InstrTable
 .rdata$.refptr.LastCodeBufSize
                0x00000000004698c0       0x10 MinGW-w64R/assemble.o
                0x00000000004698c0                .refptr.LastCodeBufSize
 .rdata$.refptr.LineCur
                0x00000000004698d0       0x10 MinGW-w64R/symbols.o
                0x00000000004698d0                .refptr.LineCur
 .rdata$.refptr.LineStoreCurr
                0x00000000004698e0       0x10 MinGW-w64R/assemble.o
                0x00000000004698e0                .refptr.LineStoreCurr
 .rdata$.refptr.LinnumQueue
                0x00000000004698f0       0x10 MinGW-w64R/linnum.o
                0x00000000004698f0                .refptr.LinnumQueue
 .rdata$.refptr.MacroLevel
                0x0000000000469900       0x10 MinGW-w64R/assemble.o
                0x0000000000469900                .refptr.MacroLevel
 .rdata$.refptr.MacroLocals
                0x0000000000469910       0x10 MinGW-w64R/macro.o
                0x0000000000469910                .refptr.MacroLocals
 .rdata$.refptr.ModelToken
                0x0000000000469920       0x10 MinGW-w64R/assemble.o
                0x0000000000469920                .refptr.ModelToken
 .rdata$.refptr.ModuleInfo
                0x0000000000469930       0x10 MinGW-w64R/assume.o
                0x0000000000469930                .refptr.ModuleInfo
 .rdata$.refptr.Options
                0x0000000000469940       0x10 MinGW-w64R/main.o
                0x0000000000469940                .refptr.Options
 .rdata$.refptr.Parse_Pass
                0x0000000000469950       0x10 MinGW-w64R/assume.o
                0x0000000000469950                .refptr.Parse_Pass
 .rdata$.refptr.ProcStatus
                0x0000000000469960       0x10 MinGW-w64R/parser.o
                0x0000000000469960                .refptr.ProcStatus
 .rdata$.refptr.ResWordTable
                0x0000000000469970       0x10 MinGW-w64R/codegen.o
                0x0000000000469970                .refptr.ResWordTable
 .rdata$.refptr.SegAssumeTable
                0x0000000000469980       0x10 MinGW-w64R/label.o
                0x0000000000469980                .refptr.SegAssumeTable
 .rdata$.refptr.SegOverride
                0x0000000000469990       0x10 MinGW-w64R/branch.o
                0x0000000000469990                .refptr.SegOverride
 .rdata$.refptr.SpecialTable
                0x00000000004699a0       0x10 MinGW-w64R/assume.o
                0x00000000004699a0                .refptr.SpecialTable
 .rdata$.refptr.StdAssumeTable
                0x00000000004699b0       0x10 MinGW-w64R/parser.o
                0x00000000004699b0                .refptr.StdAssumeTable
 .rdata$.refptr.StoreState
                0x00000000004699c0       0x10 MinGW-w64R/assemble.o
                0x00000000004699c0                .refptr.StoreState
 .rdata$.refptr.SymCmpFunc
                0x00000000004699d0       0x10 MinGW-w64R/macro.o
                0x00000000004699d0                .refptr.SymCmpFunc
 .rdata$.refptr.SymTables
                0x00000000004699e0       0x10 MinGW-w64R/assemble.o
                0x00000000004699e0                .refptr.SymTables
 .rdata$.refptr.UpdateProcStatus
                0x00000000004699f0       0x10 MinGW-w64R/option.o
                0x00000000004699f0                .refptr.UpdateProcStatus
 .rdata$.refptr.UpdateStackBase
                0x0000000000469a00       0x10 MinGW-w64R/option.o
                0x0000000000469a00                .refptr.UpdateStackBase
 .rdata$.refptr.UseSavedState
                0x0000000000469a10       0x10 MinGW-w64R/assemble.o
                0x0000000000469a10                .refptr.UseSavedState
 .rdata$.refptr._CRT_MT
                0x0000000000469a20       0x10 C:/Program Files/mingw-w64/x86_64-5.3.0-posix-seh-rt_v4-rev0/mingw64/bin/../lib/gcc/x86_64-w64-mingw32/5.3.0/../../../../x86_64-w64-mingw32/lib/../lib/libmingw32.a(lib64_libmingw32_a-tlssup.o)
                0x0000000000469a20                .refptr._CRT_MT
 .rdata$.refptr._MINGW_INSTALL_DEBUG_MATHERR
                0x0000000000469a30       0x10 C:/Program Files/mingw-w64/x86_64-5.3.0-posix-seh-rt_v4-rev0/mingw64/bin/../lib/gcc/x86_64-w64-mingw32/5.3.0/../../../../x86_64-w64-mingw32/lib/../lib/crt2.o
                0x0000000000469a30                .refptr._MINGW_INSTALL_DEBUG_MATHERR
 .rdata$.refptr.__CTOR_LIST__
                0x0000000000469a40       0x10 C:/Program Files/mingw-w64/x86_64-5.3.0-posix-seh-rt_v4-rev0/mingw64/bin/../lib/gcc/x86_64-w64-mingw32/5.3.0/../../../../x86_64-w64-mingw32/lib/../lib/libmingw32.a(lib64_libmingw32_a-gccmain.o)
                0x0000000000469a40                .refptr.__CTOR_LIST__
 .rdata$.refptr.__RUNTIME_PSEUDO_RELOC_LIST_END__
                0x0000000000469a50       0x10 C:/Program Files/mingw-w64/x86_64-5.3.0-posix-seh-rt_v4-rev0/mingw64/bin/../lib/gcc/x86_64-w64-mingw32/5.3.0/../../../../x86_64-w64-mingw32/lib/../lib/libmingw32.a(lib64_libmingw32_a-pseudo-reloc.o)
                0x0000000000469a50                .refptr.__RUNTIME_PSEUDO_RELOC_LIST_END__
 .rdata$.refptr.__RUNTIME_PSEUDO_RELOC_LIST__
                0x0000000000469a60       0x10 C:/Program Files/mingw-w64/x86_64-5.3.0-posix-seh-rt_v4-rev0/mingw64/bin/../lib/gcc/x86_64-w64-mingw32/5.3.0/../../../../x86_64-w64-mingw32/lib/../lib/libmingw32.a(lib64_libmingw32_a-pseudo-reloc.o)
                0x0000000000469a60                .refptr.__RUNTIME_PSEUDO_RELOC_LIST__
 .rdata$.refptr.__bigtens_D2A
                0x0000000000469a70       0x10 C:/Program Files/mingw-w64/x86_64-5.3.0-posix-seh-rt_v4-rev0/mingw64/bin/../lib/gcc/x86_64-w64-mingw32/5.3.0/../../../../x86_64-w64-mingw32/lib/../lib/libmingwex.a(lib64_libmingwex_a-strtodg.o)
                0x0000000000469a70                .refptr.__bigtens_D2A
 .rdata$.refptr.__dyn_tls_init_callback
                0x0000000000469a80       0x10 C:/Program Files/mingw-w64/x86_64-5.3.0-posix-seh-rt_v4-rev0/mingw64/bin/../lib/gcc/x86_64-w64-mingw32/5.3.0/../../../../x86_64-w64-mingw32/lib/../lib/crt2.o
                0x0000000000469a80                .refptr.__dyn_tls_init_callback
 .rdata$.refptr.__hexdig_D2A
                0x0000000000469a90       0x10 C:/Program Files/mingw-w64/x86_64-5.3.0-posix-seh-rt_v4-rev0/mingw64/bin/../lib/gcc/x86_64-w64-mingw32/5.3.0/../../../../x86_64-w64-mingw32/lib/../lib/libmingwex.a(lib64_libmingwex_a-gethex.o)
                0x0000000000469a90                .refptr.__hexdig_D2A
 .rdata$.refptr.__image_base__
                0x0000000000469aa0       0x10 C:/Program Files/mingw-w64/x86_64-5.3.0-posix-seh-rt_v4-rev0/mingw64/bin/../lib/gcc/x86_64-w64-mingw32/5.3.0/../../../../x86_64-w64-mingw32/lib/../lib/crt2.o
                0x0000000000469aa0                .refptr.__image_base__
 .rdata$.refptr.__imp___initenv
                0x0000000000469ab0       0x10 C:/Program Files/mingw-w64/x86_64-5.3.0-posix-seh-rt_v4-rev0/mingw64/bin/../lib/gcc/x86_64-w64-mingw32/5.3.0/../../../../x86_64-w64-mingw32/lib/../lib/crt2.o
                0x0000000000469ab0                .refptr.__imp___initenv
 .rdata$.refptr.__imp__acmdln
                0x0000000000469ac0       0x10 C:/Program Files/mingw-w64/x86_64-5.3.0-posix-seh-rt_v4-rev0/mingw64/bin/../lib/gcc/x86_64-w64-mingw32/5.3.0/../../../../x86_64-w64-mingw32/lib/../lib/crt2.o
                0x0000000000469ac0                .refptr.__imp__acmdln
 .rdata$.refptr.__imp__fmode
                0x0000000000469ad0       0x10 C:/Program Files/mingw-w64/x86_64-5.3.0-posix-seh-rt_v4-rev0/mingw64/bin/../lib/gcc/x86_64-w64-mingw32/5.3.0/../../../../x86_64-w64-mingw32/lib/../lib/crt2.o
                0x0000000000469ad0                .refptr.__imp__fmode
 .rdata$.refptr.__imp__onexit
                0x0000000000469ae0       0x10 C:/Program Files/mingw-w64/x86_64-5.3.0-posix-seh-rt_v4-rev0/mingw64/bin/../lib/gcc/x86_64-w64-mingw32/5.3.0/../../../../x86_64-w64-mingw32/lib/../lib/libmingw32.a(lib64_libmingw32_a-atonexit.o)
                0x0000000000469ae0                .refptr.__imp__onexit
 .rdata$.refptr.__mingw_oldexcpt_handler
                0x0000000000469af0       0x10 C:/Program Files/mingw-w64/x86_64-5.3.0-posix-seh-rt_v4-rev0/mingw64/bin/../lib/gcc/x86_64-w64-mingw32/5.3.0/../../../../x86_64-w64-mingw32/lib/../lib/crt2.o
                0x0000000000469af0                .refptr.__mingw_oldexcpt_handler
 .rdata$.refptr.__native_startup_lock
                0x0000000000469b00       0x10 C:/Program Files/mingw-w64/x86_64-5.3.0-posix-seh-rt_v4-rev0/mingw64/bin/../lib/gcc/x86_64-w64-mingw32/5.3.0/../../../../x86_64-w64-mingw32/lib/../lib/crt2.o
                0x0000000000469b00                .refptr.__native_startup_lock
 .rdata$.refptr.__native_startup_state
                0x0000000000469b10       0x10 C:/Program Files/mingw-w64/x86_64-5.3.0-posix-seh-rt_v4-rev0/mingw64/bin/../lib/gcc/x86_64-w64-mingw32/5.3.0/../../../../x86_64-w64-mingw32/lib/../lib/crt2.o
                0x0000000000469b10                .refptr.__native_startup_state
 .rdata$.refptr.__onexitbegin
                0x0000000000469b20       0x10 C:/Program Files/mingw-w64/x86_64-5.3.0-posix-seh-rt_v4-rev0/mingw64/bin/../lib/gcc/x86_64-w64-mingw32/5.3.0/../../../../x86_64-w64-mingw32/lib/../lib/crt2.o
                0x0000000000469b20                .refptr.__onexitbegin
 .rdata$.refptr.__onexitend
                0x0000000000469b30       0x10 C:/Program Files/mingw-w64/x86_64-5.3.0-posix-seh-rt_v4-rev0/mingw64/bin/../lib/gcc/x86_64-w64-mingw32/5.3.0/../../../../x86_64-w64-mingw32/lib/../lib/crt2.o
                0x0000000000469b30                .refptr.__onexitend
 .rdata$.refptr.__tens_D2A
                0x0000000000469b40       0x10 C:/Program Files/mingw-w64/x86_64-5.3.0-posix-seh-rt_v4-rev0/mingw64/bin/../lib/gcc/x86_64-w64-mingw32/5.3.0/../../../../x86_64-w64-mingw32/lib/../lib/libmingwex.a(lib64_libmingwex_a-strtodg.o)
                0x0000000000469b40                .refptr.__tens_D2A
 .rdata$.refptr.__tinytens_D2A
                0x0000000000469b50       0x10 C:/Program Files/mingw-w64/x86_64-5.3.0-posix-seh-rt_v4-rev0/mingw64/bin/../lib/gcc/x86_64-w64-mingw32/5.3.0/../../../../x86_64-w64-mingw32/lib/../lib/libmingwex.a(lib64_libmingwex_a-strtodg.o)
                0x0000000000469b50                .refptr.__tinytens_D2A
 .rdata$.refptr.__xc_a
                0x0000000000469b60       0x10 C:/Program Files/mingw-w64/x86_64-5.3.0-posix-seh-rt_v4-rev0/mingw64/bin/../lib/gcc/x86_64-w64-mingw32/5.3.0/../../../../x86_64-w64-mingw32/lib/../lib/crt2.o
                0x0000000000469b60                .refptr.__xc_a
 .rdata$.refptr.__xc_z
                0x0000000000469b70       0x10 C:/Program Files/mingw-w64/x86_64-5.3.0-posix-seh-rt_v4-rev0/mingw64/bin/../lib/gcc/x86_64-w64-mingw32/5.3.0/../../../../x86_64-w64-mingw32/lib/../lib/crt2.o
                0x0000000000469b70                .refptr.__xc_z
 .rdata$.refptr.__xi_a
                0x0000000000469b80       0x10 C:/Program Files/mingw-w64/x86_64-5.3.0-posix-seh-rt_v4-rev0/mingw64/bin/../lib/gcc/x86_64-w64-mingw32/5.3.0/../../../../x86_64-w64-mingw32/lib/../lib/crt2.o
                0x0000000000469b80                .refptr.__xi_a
 .rdata$.refptr.__xi_z
                0x0000000000469b90       0x10 C:/Program Files/mingw-w64/x86_64-5.3.0-posix-seh-rt_v4-rev0/mingw64/bin/../lib/gcc/x86_64-w64-mingw32/5.3.0/../../../../x86_64-w64-mingw32/lib/../lib/crt2.o
                0x0000000000469b90                .refptr.__xi_z
 .rdata$.refptr._dowildcard
                0x0000000000469ba0       0x10 C:/Program Files/mingw-w64/x86_64-5.3.0-posix-seh-rt_v4-rev0/mingw64/bin/../lib/gcc/x86_64-w64-mingw32/5.3.0/../../../../x86_64-w64-mingw32/lib/../lib/crt2.o
                0x0000000000469ba0                .refptr._dowildcard
 .rdata$.refptr._fmode
                0x0000000000469bb0       0x10 C:/Program Files/mingw-w64/x86_64-5.3.0-posix-seh-rt_v4-rev0/mingw64/bin/../lib/gcc/x86_64-w64-mingw32/5.3.0/../../../../x86_64-w64-mingw32/lib/../lib/crt2.o
                0x0000000000469bb0                .refptr._fmode
 .rdata$.refptr._gnu_exception_handler
                0x0000000000469bc0       0x10 C:/Program Files/mingw-w64/x86_64-5.3.0-posix-seh-rt_v4-rev0/mingw64/bin/../lib/gcc/x86_64-w64-mingw32/5.3.0/../../../../x86_64-w64-mingw32/lib/../lib/crt2.o
                0x0000000000469bc0                .refptr._gnu_exception_handler
 .rdata$.refptr._matherr
                0x0000000000469bd0       0x10 C:/Program Files/mingw-w64/x86_64-5.3.0-posix-seh-rt_v4-rev0/mingw64/bin/../lib/gcc/x86_64-w64-mingw32/5.3.0/../../../../x86_64-w64-mingw32/lib/../lib/crt2.o
                0x0000000000469bd0                .refptr._matherr
 .rdata$.refptr._newmode
                0x0000000000469be0       0x10 C:/Program Files/mingw-w64/x86_64-5.3.0-posix-seh-rt_v4-rev0/mingw64/bin/../lib/gcc/x86_64-w64-mingw32/5.3.0/../../../../x86_64-w64-mingw32/lib/../lib/crt2.o
                0x0000000000469be0                .refptr._newmode
 .rdata$.refptr.banner_printed
                0x0000000000469bf0       0x10 MinGW-w64R/cmdline.o
                0x0000000000469bf0                .refptr.banner_printed
 .rdata$.refptr.commentbuffer
                0x0000000000469c00       0x10 MinGW-w64R/tokenize.o
                0x0000000000469c00                .refptr.commentbuffer
 .rdata$.refptr.directive_tab
                0x0000000000469c10       0x10 MinGW-w64R/parser.o
                0x0000000000469c10                .refptr.directive_tab
 .rdata$.refptr.jmpenv
                0x0000000000469c20       0x10 MinGW-w64R/errmsg.o
                0x0000000000469c20                .refptr.jmpenv
 .rdata$.refptr.list_pos
                0x0000000000469c30       0x10 MinGW-w64R/fastpass.o
                0x0000000000469c30                .refptr.list_pos
 .rdata$.refptr.maxintvalues
                0x0000000000469c40       0x10 MinGW-w64R/invoke.o
                0x0000000000469c40                .refptr.maxintvalues
 .rdata$.refptr.memcmp
                0x0000000000469c50       0x10 MinGW-w64R/symbols.o
                0x0000000000469c50                .refptr.memcmp
 .rdata$.refptr.mingw_app_type
                0x0000000000469c60       0x10 C:/Program Files/mingw-w64/x86_64-5.3.0-posix-seh-rt_v4-rev0/mingw64/bin/../lib/gcc/x86_64-w64-mingw32/5.3.0/../../../../x86_64-w64-mingw32/lib/../lib/crt2.o
                0x0000000000469c60                .refptr.mingw_app_type
 .rdata$.refptr.mingw_initcharmax
                0x0000000000469c70       0x10 C:/Program Files/mingw-w64/x86_64-5.3.0-posix-seh-rt_v4-rev0/mingw64/bin/../lib/gcc/x86_64-w64-mingw32/5.3.0/../../../../x86_64-w64-mingw32/lib/../lib/crt2.o
                0x0000000000469c70                .refptr.mingw_initcharmax
 .rdata$.refptr.mingw_initltsdrot_force
                0x0000000000469c80       0x10 C:/Program Files/mingw-w64/x86_64-5.3.0-posix-seh-rt_v4-rev0/mingw64/bin/../lib/gcc/x86_64-w64-mingw32/5.3.0/../../../../x86_64-w64-mingw32/lib/../lib/crt2.o
                0x0000000000469c80                .refptr.mingw_initltsdrot_force
 .rdata$.refptr.mingw_initltsdyn_force
                0x0000000000469c90       0x10 C:/Program Files/mingw-w64/x86_64-5.3.0-posix-seh-rt_v4-rev0/mingw64/bin/../lib/gcc/x86_64-w64-mingw32/5.3.0/../../../../x86_64-w64-mingw32/lib/../lib/crt2.o
                0x0000000000469c90                .refptr.mingw_initltsdyn_force
 .rdata$.refptr.mingw_initltssuo_force
                0x0000000000469ca0       0x10 C:/Program Files/mingw-w64/x86_64-5.3.0-posix-seh-rt_v4-rev0/mingw64/bin/../lib/gcc/x86_64-w64-mingw32/5.3.0/../../../../x86_64-w64-mingw32/lib/../lib/crt2.o
                0x0000000000469ca0                .refptr.mingw_initltssuo_force
 .rdata$.refptr.minintvalues
                0x0000000000469cb0       0x10 MinGW-w64R/invoke.o
                0x0000000000469cb0                .refptr.minintvalues
 .rdata$.refptr.opnd_clstab
                0x0000000000469cc0       0x10 MinGW-w64R/codegen.o
                0x0000000000469cc0                .refptr.opnd_clstab
 .rdata$.refptr.optable_idx
                0x0000000000469cd0       0x10 MinGW-w64R/branch.o
                0x0000000000469cd0                .refptr.optable_idx
 .rdata$.refptr.procidx
                0x0000000000469ce0       0x10 MinGW-w64R/linnum.o
                0x0000000000469ce0                .refptr.procidx
 .rdata$.refptr.stackreg
                0x0000000000469cf0       0x10 MinGW-w64R/invoke.o
                0x0000000000469cf0                .refptr.stackreg
 .rdata$.refptr.sym_Cpu
                0x0000000000469d00       0x10 MinGW-w64R/context.o
                0x0000000000469d00                .refptr.sym_Cpu
 .rdata$.refptr.sym_Interface
                0x0000000000469d10       0x10 MinGW-w64R/option.o
                0x0000000000469d10                .refptr.sym_Interface
 .rdata$.refptr.sym_ReservedStack
                0x0000000000469d20       0x10 MinGW-w64R/cpumodel.o
                0x0000000000469d20                .refptr.sym_ReservedStack
 .rdata$.refptr.szCVCompiler
                0x0000000000469d30       0x10 MinGW-w64R/dbgcv.o
                0x0000000000469d30                .refptr.szCVCompiler
 .rdata$.refptr.szDgroup
                0x0000000000469d40       0x10 MinGW-w64R/cpumodel.o
                0x0000000000469d40                .refptr.szDgroup
 .rdata$.refptr.szNull
                0x0000000000469d50       0x10 MinGW-w64R/data.o
                0x0000000000469d50                .refptr.szNull
 .rdata$.refptr.token_stringbuf
                0x0000000000469d60       0x10 MinGW-w64R/tokenize.o
                0x0000000000469d60                .refptr.token_stringbuf
 .rdata$.refptr.vex_flags
                0x0000000000469d70       0x10 MinGW-w64R/codegen.o
                0x0000000000469d70                .refptr.vex_flags
 .rdata$.refptr.write_to_file
                0x0000000000469d80       0x10 MinGW-w64R/codegen.o
                0x0000000000469d80                .refptr.write_to_file
 .rdata$zzz     0x0000000000469d90       0x40 C:/Program Files/mingw-w64/x86_64-5.3.0-posix-seh-rt_v4-rev0/mingw64/bin/../lib/gcc/x86_64-w64-mingw32/5.3.0/../../../../x86_64-w64-mingw32/lib/../lib/crt2.o
 .rdata$zzz     0x0000000000469dd0       0x40 C:/Program Files/mingw-w64/x86_64-5.3.0-posix-seh-rt_v4-rev0/mingw64/bin/../lib/gcc/x86_64-w64-mingw32/5.3.0/crtbegin.o
 .rdata$zzz     0x0000000000469e10       0x40 MinGW-w64R/main.o
 .rdata$zzz     0x0000000000469e50       0x40 MinGW-w64R/apiemu.o
 .rdata$zzz     0x0000000000469e90       0x40 MinGW-w64R/assemble.o
 .rdata$zzz     0x0000000000469ed0       0x40 MinGW-w64R/assume.o
 .rdata$zzz     0x0000000000469f10       0x40 MinGW-w64R/atofloat.o
 .rdata$zzz     0x0000000000469f50       0x40 MinGW-w64R/backptch.o
 .rdata$zzz     0x0000000000469f90       0x40 MinGW-w64R/bin.o
 .rdata$zzz     0x0000000000469fd0       0x40 MinGW-w64R/branch.o
 .rdata$zzz     0x000000000046a010       0x40 MinGW-w64R/cmdline.o
 .rdata$zzz     0x000000000046a050       0x40 MinGW-w64R/codegen.o
 .rdata$zzz     0x000000000046a090       0x40 MinGW-w64R/coff.o
 .rdata$zzz     0x000000000046a0d0       0x40 MinGW-w64R/condasm.o
 .rdata$zzz     0x000000000046a110       0x40 MinGW-w64R/context.o
 .rdata$zzz     0x000000000046a150       0x40 MinGW-w64R/cpumodel.o
 .rdata$zzz     0x000000000046a190       0x40 MinGW-w64R/data.o
 .rdata$zzz     0x000000000046a1d0       0x40 MinGW-w64R/dbgcv.o
 .rdata$zzz     0x000000000046a210       0x40 MinGW-w64R/directiv.o
 .rdata$zzz     0x000000000046a250       0x40 MinGW-w64R/elf.o
 .rdata$zzz     0x000000000046a290       0x40 MinGW-w64R/end.o
 .rdata$zzz     0x000000000046a2d0       0x40 MinGW-w64R/equate.o
 .rdata$zzz     0x000000000046a310       0x40 MinGW-w64R/errmsg.o
 .rdata$zzz     0x000000000046a350       0x40 MinGW-w64R/expans.o
 .rdata$zzz     0x000000000046a390       0x40 MinGW-w64R/expreval.o
 .rdata$zzz     0x000000000046a3d0       0x40 MinGW-w64R/extern.o
 .rdata$zzz     0x000000000046a410       0x40 MinGW-w64R/fastpass.o
 .rdata$zzz     0x000000000046a450       0x40 MinGW-w64R/fixup.o
 .rdata$zzz     0x000000000046a490       0x40 MinGW-w64R/fpfixup.o
 .rdata$zzz     0x000000000046a4d0       0x40 MinGW-w64R/hll.o
 .rdata$zzz     0x000000000046a510       0x40 MinGW-w64R/input.o
 .rdata$zzz     0x000000000046a550       0x40 MinGW-w64R/invoke.o
 .rdata$zzz     0x000000000046a590       0x40 MinGW-w64R/label.o
 .rdata$zzz     0x000000000046a5d0       0x40 MinGW-w64R/linnum.o
 .rdata$zzz     0x000000000046a610       0x40 MinGW-w64R/listing.o
 .rdata$zzz     0x000000000046a650       0x40 MinGW-w64R/loop.o
 .rdata$zzz     0x000000000046a690       0x40 MinGW-w64R/lqueue.o
 .rdata$zzz     0x000000000046a6d0       0x40 MinGW-w64R/macro.o
 .rdata$zzz     0x000000000046a710       0x40 MinGW-w64R/mangle.o
 .rdata$zzz     0x000000000046a750       0x40 MinGW-w64R/memalloc.o
 .rdata$zzz     0x000000000046a790       0x40 MinGW-w64R/msgtext.o
 .rdata$zzz     0x000000000046a7d0       0x40 MinGW-w64R/omf.o
 .rdata$zzz     0x000000000046a810       0x40 MinGW-w64R/omffixup.o
 .rdata$zzz     0x000000000046a850       0x40 MinGW-w64R/omfint.o
 .rdata$zzz     0x000000000046a890       0x40 MinGW-w64R/option.o
 .rdata$zzz     0x000000000046a8d0       0x40 MinGW-w64R/parser.o
 .rdata$zzz     0x000000000046a910       0x40 MinGW-w64R/posndir.o
 .rdata$zzz     0x000000000046a950       0x40 MinGW-w64R/preproc.o
 .rdata$zzz     0x000000000046a990       0x40 MinGW-w64R/proc.o
 .rdata$zzz     0x000000000046a9d0       0x40 MinGW-w64R/queue.o
 .rdata$zzz     0x000000000046aa10       0x40 MinGW-w64R/reswords.o
 .rdata$zzz     0x000000000046aa50       0x40 MinGW-w64R/safeseh.o
 .rdata$zzz     0x000000000046aa90       0x40 MinGW-w64R/segment.o
 .rdata$zzz     0x000000000046aad0       0x40 MinGW-w64R/simsegm.o
 .rdata$zzz     0x000000000046ab10       0x40 MinGW-w64R/string.o
 .rdata$zzz     0x000000000046ab50       0x40 MinGW-w64R/symbols.o
 .rdata$zzz     0x000000000046ab90       0x40 MinGW-w64R/tbyte.o
 .rdata$zzz     0x000000000046abd0       0x40 MinGW-w64R/tokenize.o
 .rdata$zzz     0x000000000046ac10       0x40 MinGW-w64R/types.o
 .rdata$zzz     0x000000000046ac50       0x40 C:/Program Files/mingw-w64/x86_64-5.3.0-posix-seh-rt_v4-rev0/mingw64/bin/../lib/gcc/x86_64-w64-mingw32/5.3.0/../../../../x86_64-w64-mingw32/lib/../lib/libmingw32.a(lib64_libmingw32_a-atonexit.o)
 .rdata$zzz     0x000000000046ac90       0x40 C:/Program Files/mingw-w64/x86_64-5.3.0-posix-seh-rt_v4-rev0/mingw64/bin/../lib/gcc/x86_64-w64-mingw32/5.3.0/../../../../x86_64-w64-mingw32/lib/../lib/libmingw32.a(lib64_libmingw32_a-gccmain.o)
 .rdata$zzz     0x000000000046acd0       0x40 C:/Program Files/mingw-w64/x86_64-5.3.0-posix-seh-rt_v4-rev0/mingw64/bin/../lib/gcc/x86_64-w64-mingw32/5.3.0/../../../../x86_64-w64-mingw32/lib/../lib/libmingw32.a(lib64_libmingw32_a-natstart.o)
 .rdata$zzz     0x000000000046ad10       0x40 C:/Program Files/mingw-w64/x86_64-5.3.0-posix-seh-rt_v4-rev0/mingw64/bin/../lib/gcc/x86_64-w64-mingw32/5.3.0/../../../../x86_64-w64-mingw32/lib/../lib/libmingw32.a(lib64_libmingw32_a-wildcard.o)
 .rdata$zzz     0x000000000046ad50       0x40 C:/Program Files/mingw-w64/x86_64-5.3.0-posix-seh-rt_v4-rev0/mingw64/bin/../lib/gcc/x86_64-w64-mingw32/5.3.0/../../../../x86_64-w64-mingw32/lib/../lib/libmingw32.a(lib64_libmingw32_a-charmax.o)
 .rdata$zzz     0x000000000046ad90       0x40 C:/Program Files/mingw-w64/x86_64-5.3.0-posix-seh-rt_v4-rev0/mingw64/bin/../lib/gcc/x86_64-w64-mingw32/5.3.0/../../../../x86_64-w64-mingw32/lib/../lib/libmingw32.a(lib64_libmingw32_a-dllargv.o)
 .rdata$zzz     0x000000000046add0       0x40 C:/Program Files/mingw-w64/x86_64-5.3.0-posix-seh-rt_v4-rev0/mingw64/bin/../lib/gcc/x86_64-w64-mingw32/5.3.0/../../../../x86_64-w64-mingw32/lib/../lib/libmingw32.a(lib64_libmingw32_a-gs_support.o)
 .rdata$zzz     0x000000000046ae10       0x40 C:/Program Files/mingw-w64/x86_64-5.3.0-posix-seh-rt_v4-rev0/mingw64/bin/../lib/gcc/x86_64-w64-mingw32/5.3.0/../../../../x86_64-w64-mingw32/lib/../lib/libmingw32.a(lib64_libmingw32_a-_newmode.o)
 .rdata$zzz     0x000000000046ae50       0x40 C:/Program Files/mingw-w64/x86_64-5.3.0-posix-seh-rt_v4-rev0/mingw64/bin/../lib/gcc/x86_64-w64-mingw32/5.3.0/../../../../x86_64-w64-mingw32/lib/../lib/libmingw32.a(lib64_libmingw32_a-tlssup.o)
 .rdata$zzz     0x000000000046ae90       0x40 C:/Program Files/mingw-w64/x86_64-5.3.0-posix-seh-rt_v4-rev0/mingw64/bin/../lib/gcc/x86_64-w64-mingw32/5.3.0/../../../../x86_64-w64-mingw32/lib/../lib/libmingw32.a(lib64_libmingw32_a-cinitexe.o)
 .rdata$zzz     0x000000000046aed0       0x40 C:/Program Files/mingw-w64/x86_64-5.3.0-posix-seh-rt_v4-rev0/mingw64/bin/../lib/gcc/x86_64-w64-mingw32/5.3.0/../../../../x86_64-w64-mingw32/lib/../lib/libmingw32.a(lib64_libmingw32_a-merr.o)
 .rdata$zzz     0x000000000046af10       0x40 C:/Program Files/mingw-w64/x86_64-5.3.0-posix-seh-rt_v4-rev0/mingw64/bin/../lib/gcc/x86_64-w64-mingw32/5.3.0/../../../../x86_64-w64-mingw32/lib/../lib/libmingw32.a(lib64_libmingw32_a-CRT_fp10.o)
 .rdata$zzz     0x000000000046af50       0x40 C:/Program Files/mingw-w64/x86_64-5.3.0-posix-seh-rt_v4-rev0/mingw64/bin/../lib/gcc/x86_64-w64-mingw32/5.3.0/../../../../x86_64-w64-mingw32/lib/../lib/libmingw32.a(lib64_libmingw32_a-mingw_helpers.o)
 .rdata$zzz     0x000000000046af90       0x40 C:/Program Files/mingw-w64/x86_64-5.3.0-posix-seh-rt_v4-rev0/mingw64/bin/../lib/gcc/x86_64-w64-mingw32/5.3.0/../../../../x86_64-w64-mingw32/lib/../lib/libmingw32.a(lib64_libmingw32_a-pseudo-reloc.o)
 .rdata$zzz     0x000000000046afd0       0x40 C:/Program Files/mingw-w64/x86_64-5.3.0-posix-seh-rt_v4-rev0/mingw64/bin/../lib/gcc/x86_64-w64-mingw32/5.3.0/../../../../x86_64-w64-mingw32/lib/../lib/libmingw32.a(lib64_libmingw32_a-xtxtmode.o)
 .rdata$zzz     0x000000000046b010       0x40 C:/Program Files/mingw-w64/x86_64-5.3.0-posix-seh-rt_v4-rev0/mingw64/bin/../lib/gcc/x86_64-w64-mingw32/5.3.0/../../../../x86_64-w64-mingw32/lib/../lib/libmingw32.a(lib64_libmingw32_a-crt_handler.o)
 .rdata$zzz     0x000000000046b050       0x40 C:/Program Files/mingw-w64/x86_64-5.3.0-posix-seh-rt_v4-rev0/mingw64/bin/../lib/gcc/x86_64-w64-mingw32/5.3.0/../../../../x86_64-w64-mingw32/lib/../lib/libmingw32.a(lib64_libmingw32_a-tlsthrd.o)
 .rdata$zzz     0x000000000046b090       0x40 C:/Program Files/mingw-w64/x86_64-5.3.0-posix-seh-rt_v4-rev0/mingw64/bin/../lib/gcc/x86_64-w64-mingw32/5.3.0/../../../../x86_64-w64-mingw32/lib/../lib/libmingw32.a(lib64_libmingw32_a-tlsmcrt.o)
 .rdata$zzz     0x000000000046b0d0       0x40 C:/Program Files/mingw-w64/x86_64-5.3.0-posix-seh-rt_v4-rev0/mingw64/bin/../lib/gcc/x86_64-w64-mingw32/5.3.0/../../../../x86_64-w64-mingw32/lib/../lib/libmingw32.a(lib64_libmingw32_a-pseudo-reloc-list.o)
 .rdata$zzz     0x000000000046b110       0x40 C:/Program Files/mingw-w64/x86_64-5.3.0-posix-seh-rt_v4-rev0/mingw64/bin/../lib/gcc/x86_64-w64-mingw32/5.3.0/../../../../x86_64-w64-mingw32/lib/../lib/libmingw32.a(lib64_libmingw32_a-pesect.o)
 .rdata$zzz     0x000000000046b150       0x40 C:/Program Files/mingw-w64/x86_64-5.3.0-posix-seh-rt_v4-rev0/mingw64/bin/../lib/gcc/x86_64-w64-mingw32/5.3.0/libgcc.a(_ctors.o)
 .rdata$zzz     0x000000000046b190       0x40 C:/Program Files/mingw-w64/x86_64-5.3.0-posix-seh-rt_v4-rev0/mingw64/bin/../lib/gcc/x86_64-w64-mingw32/5.3.0/../../../../x86_64-w64-mingw32/lib/../lib/libmingwex.a(lib64_libmingwex_a-strtodnrp.o)
 .rdata$zzz     0x000000000046b1d0       0x40 C:/Program Files/mingw-w64/x86_64-5.3.0-posix-seh-rt_v4-rev0/mingw64/bin/../lib/gcc/x86_64-w64-mingw32/5.3.0/../../../../x86_64-w64-mingw32/lib/../lib/libmingwex.a(lib64_libmingwex_a-mingw_matherr.o)
 .rdata$zzz     0x000000000046b210       0x40 C:/Program Files/mingw-w64/x86_64-5.3.0-posix-seh-rt_v4-rev0/mingw64/bin/../lib/gcc/x86_64-w64-mingw32/5.3.0/../../../../x86_64-w64-mingw32/lib/../lib/libmingwex.a(lib64_libmingwex_a-strtodg.o)
 .rdata$zzz     0x000000000046b250       0x40 C:/Program Files/mingw-w64/x86_64-5.3.0-posix-seh-rt_v4-rev0/mingw64/bin/../lib/gcc/x86_64-w64-mingw32/5.3.0/../../../../x86_64-w64-mingw32/lib/../lib/libmingwex.a(lib64_libmingwex_a-sum.o)
 .rdata$zzz     0x000000000046b290       0x40 C:/Program Files/mingw-w64/x86_64-5.3.0-posix-seh-rt_v4-rev0/mingw64/bin/../lib/gcc/x86_64-w64-mingw32/5.3.0/../../../../x86_64-w64-mingw32/lib/../lib/libmingwex.a(lib64_libmingwex_a-gethex.o)
 .rdata$zzz     0x000000000046b2d0       0x40 C:/Program Files/mingw-w64/x86_64-5.3.0-posix-seh-rt_v4-rev0/mingw64/bin/../lib/gcc/x86_64-w64-mingw32/5.3.0/../../../../x86_64-w64-mingw32/lib/../lib/libmingwex.a(lib64_libmingwex_a-gmisc.o)
 .rdata$zzz     0x000000000046b310       0x40 C:/Program Files/mingw-w64/x86_64-5.3.0-posix-seh-rt_v4-rev0/mingw64/bin/../lib/gcc/x86_64-w64-mingw32/5.3.0/../../../../x86_64-w64-mingw32/lib/../lib/libmingwex.a(lib64_libmingwex_a-hd_init.o)
 .rdata$zzz     0x000000000046b350       0x40 C:/Program Files/mingw-w64/x86_64-5.3.0-posix-seh-rt_v4-rev0/mingw64/bin/../lib/gcc/x86_64-w64-mingw32/5.3.0/../../../../x86_64-w64-mingw32/lib/../lib/libmingwex.a(lib64_libmingwex_a-hexnan.o)
 .rdata$zzz     0x000000000046b390       0x40 C:/Program Files/mingw-w64/x86_64-5.3.0-posix-seh-rt_v4-rev0/mingw64/bin/../lib/gcc/x86_64-w64-mingw32/5.3.0/../../../../x86_64-w64-mingw32/lib/../lib/libmingwex.a(lib64_libmingwex_a-misc.o)
 .rdata$zzz     0x000000000046b3d0       0x40 C:/Program Files/mingw-w64/x86_64-5.3.0-posix-seh-rt_v4-rev0/mingw64/bin/../lib/gcc/x86_64-w64-mingw32/5.3.0/../../../../x86_64-w64-mingw32/lib/../lib/libmingwex.a(lib64_libmingwex_a-smisc.o)
 .rdata$zzz     0x000000000046b410       0x40 C:/Program Files/mingw-w64/x86_64-5.3.0-posix-seh-rt_v4-rev0/mingw64/bin/../lib/gcc/x86_64-w64-mingw32/5.3.0/../../../../x86_64-w64-mingw32/lib/../lib/libmsvcrt.a(lib64_libmsvcrt_a-invalid_parameter_handler.o)
 .rdata$zzz     0x000000000046b450       0x40 C:/Program Files/mingw-w64/x86_64-5.3.0-posix-seh-rt_v4-rev0/mingw64/bin/../lib/gcc/x86_64-w64-mingw32/5.3.0/crtend.o
                0x000000000046b490                __rt_psrelocs_start = .
 *(.rdata_runtime_pseudo_reloc)
                0x000000000046b490                __rt_psrelocs_end = .
                0x0000000000000000                __rt_psrelocs_size = (__rt_psrelocs_end - __rt_psrelocs_start)
                0x000000000046b490                ___RUNTIME_PSEUDO_RELOC_LIST_END__ = .
                0x000000000046b490                __RUNTIME_PSEUDO_RELOC_LIST_END__ = .
                0x000000000046b490                ___RUNTIME_PSEUDO_RELOC_LIST__ = (. - __rt_psrelocs_size)
                0x000000000046b490                __RUNTIME_PSEUDO_RELOC_LIST__ = (. - __rt_psrelocs_size)

.eh_frame
 *(.eh_frame*)

.pdata          0x000000000046c000     0x2000
 *(.pdata*)
 .pdata         0x000000000046c000       0x48 C:/Program Files/mingw-w64/x86_64-5.3.0-posix-seh-rt_v4-rev0/mingw64/bin/../lib/gcc/x86_64-w64-mingw32/5.3.0/../../../../x86_64-w64-mingw32/lib/../lib/crt2.o
 .pdata         0x000000000046c048       0x24 C:/Program Files/mingw-w64/x86_64-5.3.0-posix-seh-rt_v4-rev0/mingw64/bin/../lib/gcc/x86_64-w64-mingw32/5.3.0/crtbegin.o
 .pdata         0x000000000046c06c        0xc MinGW-w64R/main.o
 .pdata.startup
                0x000000000046c078        0xc MinGW-w64R/main.o
 .pdata         0x000000000046c084       0x9c MinGW-w64R/assemble.o
 .pdata         0x000000000046c120       0x9c MinGW-w64R/assume.o
 .pdata         0x000000000046c1bc        0xc MinGW-w64R/atofloat.o
 .pdata         0x000000000046c1c8        0xc MinGW-w64R/backptch.o
 .pdata         0x000000000046c1d4       0x84 MinGW-w64R/bin.o
 .pdata         0x000000000046c258       0x24 MinGW-w64R/branch.o
 .pdata         0x000000000046c27c      0x1d4 MinGW-w64R/cmdline.o
 .pdata         0x000000000046c450       0x48 MinGW-w64R/codegen.o
 .pdata         0x000000000046c498       0x48 MinGW-w64R/coff.o
 .pdata         0x000000000046c4e0       0x60 MinGW-w64R/condasm.o
 .pdata         0x000000000046c540       0x24 MinGW-w64R/context.o
 .pdata         0x000000000046c564       0x30 MinGW-w64R/cpumodel.o
 .pdata         0x000000000046c594       0x24 MinGW-w64R/data.o
 .pdata.unlikely
                0x000000000046c5b8        0xc MinGW-w64R/data.o
 .pdata         0x000000000046c5c4       0x60 MinGW-w64R/dbgcv.o
 .pdata         0x000000000046c624       0x6c MinGW-w64R/directiv.o
 .pdata         0x000000000046c690       0x3c MinGW-w64R/elf.o
 .pdata         0x000000000046c6cc       0x18 MinGW-w64R/end.o
 .pdata         0x000000000046c6e4       0x3c MinGW-w64R/equate.o
 .pdata         0x000000000046c720       0x90 MinGW-w64R/errmsg.o
 .pdata         0x000000000046c7b0       0x84 MinGW-w64R/expans.o
 .pdata         0x000000000046c834      0x180 MinGW-w64R/expreval.o
 .pdata.unlikely
                0x000000000046c9b4        0xc MinGW-w64R/expreval.o
 .pdata         0x000000000046c9c0       0x84 MinGW-w64R/extern.o
 .pdata         0x000000000046ca44       0x3c MinGW-w64R/fastpass.o
 .pdata         0x000000000046ca80       0x30 MinGW-w64R/fixup.o
 .pdata         0x000000000046cab0        0xc MinGW-w64R/fpfixup.o
 .pdata         0x000000000046cabc       0xd8 MinGW-w64R/hll.o
 .pdata         0x000000000046cb94      0x108 MinGW-w64R/input.o
 .pdata         0x000000000046cc9c       0x90 MinGW-w64R/invoke.o
 .pdata         0x000000000046cd2c       0x30 MinGW-w64R/label.o
 .pdata         0x000000000046cd5c       0x3c MinGW-w64R/linnum.o
 .pdata         0x000000000046cd98       0xfc MinGW-w64R/listing.o
 .pdata         0x000000000046ce94        0xc MinGW-w64R/loop.o
 .pdata         0x000000000046cea0       0x30 MinGW-w64R/lqueue.o
 .pdata         0x000000000046ced0       0x60 MinGW-w64R/macro.o
 .pdata         0x000000000046cf30       0x6c MinGW-w64R/mangle.o
 .pdata         0x000000000046cf9c       0x3c MinGW-w64R/memalloc.o
 .pdata         0x000000000046cfd8        0xc MinGW-w64R/msgtext.o
 .pdata         0x000000000046cfe4       0xf0 MinGW-w64R/omf.o
 .pdata         0x000000000046d0d4       0x24 MinGW-w64R/omffixup.o
 .pdata         0x000000000046d0f8       0xc0 MinGW-w64R/omfint.o
 .pdata         0x000000000046d1b8      0x1bc MinGW-w64R/option.o
 .pdata         0x000000000046d374      0x108 MinGW-w64R/parser.o
 .pdata         0x000000000046d47c       0x30 MinGW-w64R/posndir.o
 .pdata         0x000000000046d4ac       0x18 MinGW-w64R/preproc.o
 .pdata         0x000000000046d4c4      0x12c MinGW-w64R/proc.o
 .pdata         0x000000000046d5f0       0x18 MinGW-w64R/queue.o
 .pdata         0x000000000046d608       0x78 MinGW-w64R/reswords.o
 .pdata         0x000000000046d680        0xc MinGW-w64R/safeseh.o
 .pdata         0x000000000046d68c      0x144 MinGW-w64R/segment.o
 .pdata         0x000000000046d7d0       0x60 MinGW-w64R/simsegm.o
 .pdata         0x000000000046d830       0x9c MinGW-w64R/string.o
 .pdata         0x000000000046d8cc       0xf0 MinGW-w64R/symbols.o
 .pdata         0x000000000046d9bc       0x18 MinGW-w64R/tbyte.o
 .pdata         0x000000000046d9d4       0x48 MinGW-w64R/tokenize.o
 .pdata         0x000000000046da1c       0xb4 MinGW-w64R/types.o
 .pdata         0x000000000046dad0       0x18 C:/Program Files/mingw-w64/x86_64-5.3.0-posix-seh-rt_v4-rev0/mingw64/bin/../lib/gcc/x86_64-w64-mingw32/5.3.0/../../../../x86_64-w64-mingw32/lib/../lib/libmingw32.a(lib64_libmingw32_a-atonexit.o)
 .pdata         0x000000000046dae8       0x24 C:/Program Files/mingw-w64/x86_64-5.3.0-posix-seh-rt_v4-rev0/mingw64/bin/../lib/gcc/x86_64-w64-mingw32/5.3.0/../../../../x86_64-w64-mingw32/lib/../lib/libmingw32.a(lib64_libmingw32_a-gccmain.o)
 .pdata         0x000000000046db0c        0xc C:/Program Files/mingw-w64/x86_64-5.3.0-posix-seh-rt_v4-rev0/mingw64/bin/../lib/gcc/x86_64-w64-mingw32/5.3.0/../../../../x86_64-w64-mingw32/lib/../lib/libmingw32.a(lib64_libmingw32_a-charmax.o)
 .pdata         0x000000000046db18        0xc C:/Program Files/mingw-w64/x86_64-5.3.0-posix-seh-rt_v4-rev0/mingw64/bin/../lib/gcc/x86_64-w64-mingw32/5.3.0/../../../../x86_64-w64-mingw32/lib/../lib/libmingw32.a(lib64_libmingw32_a-dllargv.o)
 .pdata         0x000000000046db24       0x18 C:/Program Files/mingw-w64/x86_64-5.3.0-posix-seh-rt_v4-rev0/mingw64/bin/../lib/gcc/x86_64-w64-mingw32/5.3.0/../../../../x86_64-w64-mingw32/lib/../lib/libmingw32.a(lib64_libmingw32_a-gs_support.o)
 .pdata         0x000000000046db3c       0x24 C:/Program Files/mingw-w64/x86_64-5.3.0-posix-seh-rt_v4-rev0/mingw64/bin/../lib/gcc/x86_64-w64-mingw32/5.3.0/../../../../x86_64-w64-mingw32/lib/../lib/libmingw32.a(lib64_libmingw32_a-tlssup.o)
 .pdata         0x000000000046db60       0x24 C:/Program Files/mingw-w64/x86_64-5.3.0-posix-seh-rt_v4-rev0/mingw64/bin/../lib/gcc/x86_64-w64-mingw32/5.3.0/../../../../x86_64-w64-mingw32/lib/../lib/libmingw32.a(lib64_libmingw32_a-merr.o)
 .pdata         0x000000000046db84        0xc C:/Program Files/mingw-w64/x86_64-5.3.0-posix-seh-rt_v4-rev0/mingw64/bin/../lib/gcc/x86_64-w64-mingw32/5.3.0/../../../../x86_64-w64-mingw32/lib/../lib/libmingw32.a(lib64_libmingw32_a-CRT_fp10.o)
 .pdata         0x000000000046db90       0x18 C:/Program Files/mingw-w64/x86_64-5.3.0-posix-seh-rt_v4-rev0/mingw64/bin/../lib/gcc/x86_64-w64-mingw32/5.3.0/../../../../x86_64-w64-mingw32/lib/../lib/libmingw32.a(lib64_libmingw32_a-mingw_helpers.o)
 .pdata         0x000000000046dba8       0x24 C:/Program Files/mingw-w64/x86_64-5.3.0-posix-seh-rt_v4-rev0/mingw64/bin/../lib/gcc/x86_64-w64-mingw32/5.3.0/../../../../x86_64-w64-mingw32/lib/../lib/libmingw32.a(lib64_libmingw32_a-pseudo-reloc.o)
 .pdata         0x000000000046dbcc       0x24 C:/Program Files/mingw-w64/x86_64-5.3.0-posix-seh-rt_v4-rev0/mingw64/bin/../lib/gcc/x86_64-w64-mingw32/5.3.0/../../../../x86_64-w64-mingw32/lib/../lib/libmingw32.a(lib64_libmingw32_a-crt_handler.o)
 .pdata         0x000000000046dbf0       0x30 C:/Program Files/mingw-w64/x86_64-5.3.0-posix-seh-rt_v4-rev0/mingw64/bin/../lib/gcc/x86_64-w64-mingw32/5.3.0/../../../../x86_64-w64-mingw32/lib/../lib/libmingw32.a(lib64_libmingw32_a-tlsthrd.o)
 .pdata         0x000000000046dc20       0x78 C:/Program Files/mingw-w64/x86_64-5.3.0-posix-seh-rt_v4-rev0/mingw64/bin/../lib/gcc/x86_64-w64-mingw32/5.3.0/../../../../x86_64-w64-mingw32/lib/../lib/libmingw32.a(lib64_libmingw32_a-pesect.o)
 .pdata         0x000000000046dc98        0xc C:/Program Files/mingw-w64/x86_64-5.3.0-posix-seh-rt_v4-rev0/mingw64/bin/../lib/gcc/x86_64-w64-mingw32/5.3.0/../../../../x86_64-w64-mingw32/lib/../lib/libmingwex.a(lib64_libmingwex_a-strtodnrp.o)
 .pdata         0x000000000046dca4       0x3c C:/Program Files/mingw-w64/x86_64-5.3.0-posix-seh-rt_v4-rev0/mingw64/bin/../lib/gcc/x86_64-w64-mingw32/5.3.0/../../../../x86_64-w64-mingw32/lib/../lib/libmingwex.a(lib64_libmingwex_a-strtodg.o)
 .pdata         0x000000000046dce0        0xc C:/Program Files/mingw-w64/x86_64-5.3.0-posix-seh-rt_v4-rev0/mingw64/bin/../lib/gcc/x86_64-w64-mingw32/5.3.0/../../../../x86_64-w64-mingw32/lib/../lib/libmingwex.a(lib64_libmingwex_a-sum.o)
 .pdata         0x000000000046dcec        0xc C:/Program Files/mingw-w64/x86_64-5.3.0-posix-seh-rt_v4-rev0/mingw64/bin/../lib/gcc/x86_64-w64-mingw32/5.3.0/../../../../x86_64-w64-mingw32/lib/../lib/libmingwex.a(lib64_libmingwex_a-gethex.o)
 .pdata         0x000000000046dcf8       0x18 C:/Program Files/mingw-w64/x86_64-5.3.0-posix-seh-rt_v4-rev0/mingw64/bin/../lib/gcc/x86_64-w64-mingw32/5.3.0/../../../../x86_64-w64-mingw32/lib/../lib/libmingwex.a(lib64_libmingwex_a-gmisc.o)
 .pdata         0x000000000046dd10        0xc C:/Program Files/mingw-w64/x86_64-5.3.0-posix-seh-rt_v4-rev0/mingw64/bin/../lib/gcc/x86_64-w64-mingw32/5.3.0/../../../../x86_64-w64-mingw32/lib/../lib/libmingwex.a(lib64_libmingwex_a-hd_init.o)
 .pdata         0x000000000046dd1c        0xc C:/Program Files/mingw-w64/x86_64-5.3.0-posix-seh-rt_v4-rev0/mingw64/bin/../lib/gcc/x86_64-w64-mingw32/5.3.0/../../../../x86_64-w64-mingw32/lib/../lib/libmingwex.a(lib64_libmingwex_a-hexnan.o)
 .pdata         0x000000000046dd28       0xa8 C:/Program Files/mingw-w64/x86_64-5.3.0-posix-seh-rt_v4-rev0/mingw64/bin/../lib/gcc/x86_64-w64-mingw32/5.3.0/../../../../x86_64-w64-mingw32/lib/../lib/libmingwex.a(lib64_libmingwex_a-misc.o)
 .pdata         0x000000000046ddd0       0x3c C:/Program Files/mingw-w64/x86_64-5.3.0-posix-seh-rt_v4-rev0/mingw64/bin/../lib/gcc/x86_64-w64-mingw32/5.3.0/../../../../x86_64-w64-mingw32/lib/../lib/libmingwex.a(lib64_libmingwex_a-smisc.o)
 .pdata         0x000000000046de0c       0x18 C:/Program Files/mingw-w64/x86_64-5.3.0-posix-seh-rt_v4-rev0/mingw64/bin/../lib/gcc/x86_64-w64-mingw32/5.3.0/../../../../x86_64-w64-mingw32/lib/../lib/libmsvcrt.a(lib64_libmsvcrt_a-invalid_parameter_handler.o)
 .pdata.startup
                0x000000000046de24        0xc C:/Program Files/mingw-w64/x86_64-5.3.0-posix-seh-rt_v4-rev0/mingw64/bin/../lib/gcc/x86_64-w64-mingw32/5.3.0/crtend.o

.xdata          0x000000000046e000     0x1e00
 *(.xdata*)
 .xdata         0x000000000046e000       0x68 C:/Program Files/mingw-w64/x86_64-5.3.0-posix-seh-rt_v4-rev0/mingw64/bin/../lib/gcc/x86_64-w64-mingw32/5.3.0/../../../../x86_64-w64-mingw32/lib/../lib/crt2.o
 .xdata         0x000000000046e068       0x1c C:/Program Files/mingw-w64/x86_64-5.3.0-posix-seh-rt_v4-rev0/mingw64/bin/../lib/gcc/x86_64-w64-mingw32/5.3.0/crtbegin.o
 .xdata         0x000000000046e084        0x8 MinGW-w64R/main.o
 .xdata.startup
                0x000000000046e08c       0x18 MinGW-w64R/main.o
 .xdata         0x000000000046e0a4       0xb0 MinGW-w64R/assemble.o
 .xdata         0x000000000046e154       0x6c MinGW-w64R/assume.o
 .xdata         0x000000000046e1c0       0x10 MinGW-w64R/atofloat.o
 .xdata         0x000000000046e1d0       0x18 MinGW-w64R/backptch.o
 .xdata         0x000000000046e1e8       0x94 MinGW-w64R/bin.o
 .xdata         0x000000000046e27c       0x28 MinGW-w64R/branch.o
 .xdata         0x000000000046e2a4       0xec MinGW-w64R/cmdline.o
 .xdata         0x000000000046e390       0x5c MinGW-w64R/codegen.o
 .xdata         0x000000000046e3ec       0x50 MinGW-w64R/coff.o
 .xdata         0x000000000046e43c       0x4c MinGW-w64R/condasm.o
 .xdata         0x000000000046e488       0x2c MinGW-w64R/context.o
 .xdata         0x000000000046e4b4       0x30 MinGW-w64R/cpumodel.o
 .xdata         0x000000000046e4e4       0x48 MinGW-w64R/data.o
 .xdata.unlikely
                0x000000000046e52c        0x4 MinGW-w64R/data.o
 .xdata         0x000000000046e530       0xa0 MinGW-w64R/dbgcv.o
 .xdata         0x000000000046e5d0       0x6c MinGW-w64R/directiv.o
 .xdata         0x000000000046e63c       0x60 MinGW-w64R/elf.o
 .xdata         0x000000000046e69c       0x24 MinGW-w64R/end.o
 .xdata         0x000000000046e6c0       0x40 MinGW-w64R/equate.o
 .xdata         0x000000000046e700       0x74 MinGW-w64R/errmsg.o
 .xdata         0x000000000046e774       0xd4 MinGW-w64R/expans.o
 .xdata         0x000000000046e848       0xec MinGW-w64R/expreval.o
 .xdata.unlikely
                0x000000000046e934       0x10 MinGW-w64R/expreval.o
 .xdata         0x000000000046e944       0xa4 MinGW-w64R/extern.o
 .xdata         0x000000000046e9e8       0x2c MinGW-w64R/fastpass.o
 .xdata         0x000000000046ea14       0x20 MinGW-w64R/fixup.o
 .xdata         0x000000000046ea34       0x14 MinGW-w64R/fpfixup.o
 .xdata         0x000000000046ea48      0x128 MinGW-w64R/hll.o
 .xdata         0x000000000046eb70       0xcc MinGW-w64R/input.o
 .xdata         0x000000000046ec3c       0x9c MinGW-w64R/invoke.o
 .xdata         0x000000000046ecd8       0x34 MinGW-w64R/label.o
 .xdata         0x000000000046ed0c       0x28 MinGW-w64R/linnum.o
 .xdata         0x000000000046ed34      0x104 MinGW-w64R/listing.o
 .xdata         0x000000000046ee38       0x1c MinGW-w64R/loop.o
 .xdata         0x000000000046ee54       0x3c MinGW-w64R/lqueue.o
 .xdata         0x000000000046ee90       0x70 MinGW-w64R/macro.o
 .xdata         0x000000000046ef00       0x3c MinGW-w64R/mangle.o
 .xdata         0x000000000046ef3c       0x24 MinGW-w64R/memalloc.o
 .xdata         0x000000000046ef60        0x8 MinGW-w64R/msgtext.o
 .xdata         0x000000000046ef68      0x118 MinGW-w64R/omf.o
 .xdata         0x000000000046f080       0x1c MinGW-w64R/omffixup.o
 .xdata         0x000000000046f09c       0x80 MinGW-w64R/omfint.o
 .xdata         0x000000000046f11c      0x190 MinGW-w64R/option.o
 .xdata         0x000000000046f2ac       0xcc MinGW-w64R/parser.o
 .xdata         0x000000000046f378       0x30 MinGW-w64R/posndir.o
 .xdata         0x000000000046f3a8       0x24 MinGW-w64R/preproc.o
 .xdata         0x000000000046f3cc      0x16c MinGW-w64R/proc.o
 .xdata         0x000000000046f538       0x10 MinGW-w64R/queue.o
 .xdata         0x000000000046f548       0x88 MinGW-w64R/reswords.o
 .xdata         0x000000000046f5d0        0xc MinGW-w64R/safeseh.o
 .xdata         0x000000000046f5dc      0x108 MinGW-w64R/segment.o
 .xdata         0x000000000046f6e4       0x54 MinGW-w64R/simsegm.o
 .xdata         0x000000000046f738       0xbc MinGW-w64R/string.o
 .xdata         0x000000000046f7f4       0xa0 MinGW-w64R/symbols.o
 .xdata         0x000000000046f894       0x1c MinGW-w64R/tbyte.o
 .xdata         0x000000000046f8b0       0x7c MinGW-w64R/tokenize.o
 .xdata         0x000000000046f92c       0xc0 MinGW-w64R/types.o
 .xdata         0x000000000046f9ec       0x10 C:/Program Files/mingw-w64/x86_64-5.3.0-posix-seh-rt_v4-rev0/mingw64/bin/../lib/gcc/x86_64-w64-mingw32/5.3.0/../../../../x86_64-w64-mingw32/lib/../lib/libmingw32.a(lib64_libmingw32_a-atonexit.o)
 .xdata         0x000000000046f9fc       0x18 C:/Program Files/mingw-w64/x86_64-5.3.0-posix-seh-rt_v4-rev0/mingw64/bin/../lib/gcc/x86_64-w64-mingw32/5.3.0/../../../../x86_64-w64-mingw32/lib/../lib/libmingw32.a(lib64_libmingw32_a-gccmain.o)
 .xdata         0x000000000046fa14        0x4 C:/Program Files/mingw-w64/x86_64-5.3.0-posix-seh-rt_v4-rev0/mingw64/bin/../lib/gcc/x86_64-w64-mingw32/5.3.0/../../../../x86_64-w64-mingw32/lib/../lib/libmingw32.a(lib64_libmingw32_a-charmax.o)
 .xdata         0x000000000046fa18        0x4 C:/Program Files/mingw-w64/x86_64-5.3.0-posix-seh-rt_v4-rev0/mingw64/bin/../lib/gcc/x86_64-w64-mingw32/5.3.0/../../../../x86_64-w64-mingw32/lib/../lib/libmingw32.a(lib64_libmingw32_a-dllargv.o)
 .xdata         0x000000000046fa1c       0x20 C:/Program Files/mingw-w64/x86_64-5.3.0-posix-seh-rt_v4-rev0/mingw64/bin/../lib/gcc/x86_64-w64-mingw32/5.3.0/../../../../x86_64-w64-mingw32/lib/../lib/libmingw32.a(lib64_libmingw32_a-gs_support.o)
 .xdata         0x000000000046fa3c       0x18 C:/Program Files/mingw-w64/x86_64-5.3.0-posix-seh-rt_v4-rev0/mingw64/bin/../lib/gcc/x86_64-w64-mingw32/5.3.0/../../../../x86_64-w64-mingw32/lib/../lib/libmingw32.a(lib64_libmingw32_a-tlssup.o)
 .xdata         0x000000000046fa54       0x24 C:/Program Files/mingw-w64/x86_64-5.3.0-posix-seh-rt_v4-rev0/mingw64/bin/../lib/gcc/x86_64-w64-mingw32/5.3.0/../../../../x86_64-w64-mingw32/lib/../lib/libmingw32.a(lib64_libmingw32_a-merr.o)
 .xdata         0x000000000046fa78        0x4 C:/Program Files/mingw-w64/x86_64-5.3.0-posix-seh-rt_v4-rev0/mingw64/bin/../lib/gcc/x86_64-w64-mingw32/5.3.0/../../../../x86_64-w64-mingw32/lib/../lib/libmingw32.a(lib64_libmingw32_a-CRT_fp10.o)
 .xdata         0x000000000046fa7c        0x8 C:/Program Files/mingw-w64/x86_64-5.3.0-posix-seh-rt_v4-rev0/mingw64/bin/../lib/gcc/x86_64-w64-mingw32/5.3.0/../../../../x86_64-w64-mingw32/lib/../lib/libmingw32.a(lib64_libmingw32_a-mingw_helpers.o)
 .xdata         0x000000000046fa84       0x38 C:/Program Files/mingw-w64/x86_64-5.3.0-posix-seh-rt_v4-rev0/mingw64/bin/../lib/gcc/x86_64-w64-mingw32/5.3.0/../../../../x86_64-w64-mingw32/lib/../lib/libmingw32.a(lib64_libmingw32_a-pseudo-reloc.o)
 .xdata         0x000000000046fabc       0x20 C:/Program Files/mingw-w64/x86_64-5.3.0-posix-seh-rt_v4-rev0/mingw64/bin/../lib/gcc/x86_64-w64-mingw32/5.3.0/../../../../x86_64-w64-mingw32/lib/../lib/libmingw32.a(lib64_libmingw32_a-crt_handler.o)
 .xdata         0x000000000046fadc       0x2c C:/Program Files/mingw-w64/x86_64-5.3.0-posix-seh-rt_v4-rev0/mingw64/bin/../lib/gcc/x86_64-w64-mingw32/5.3.0/../../../../x86_64-w64-mingw32/lib/../lib/libmingw32.a(lib64_libmingw32_a-tlsthrd.o)
 .xdata         0x000000000046fb08       0x60 C:/Program Files/mingw-w64/x86_64-5.3.0-posix-seh-rt_v4-rev0/mingw64/bin/../lib/gcc/x86_64-w64-mingw32/5.3.0/../../../../x86_64-w64-mingw32/lib/../lib/libmingw32.a(lib64_libmingw32_a-pesect.o)
 .xdata         0x000000000046fb68        0x8 C:/Program Files/mingw-w64/x86_64-5.3.0-posix-seh-rt_v4-rev0/mingw64/bin/../lib/gcc/x86_64-w64-mingw32/5.3.0/../../../../x86_64-w64-mingw32/lib/../lib/libmingwex.a(lib64_libmingwex_a-strtodnrp.o)
 .xdata         0x000000000046fb70       0x60 C:/Program Files/mingw-w64/x86_64-5.3.0-posix-seh-rt_v4-rev0/mingw64/bin/../lib/gcc/x86_64-w64-mingw32/5.3.0/../../../../x86_64-w64-mingw32/lib/../lib/libmingwex.a(lib64_libmingwex_a-strtodg.o)
 .xdata         0x000000000046fbd0       0x14 C:/Program Files/mingw-w64/x86_64-5.3.0-posix-seh-rt_v4-rev0/mingw64/bin/../lib/gcc/x86_64-w64-mingw32/5.3.0/../../../../x86_64-w64-mingw32/lib/../lib/libmingwex.a(lib64_libmingwex_a-sum.o)
 .xdata         0x000000000046fbe4       0x18 C:/Program Files/mingw-w64/x86_64-5.3.0-posix-seh-rt_v4-rev0/mingw64/bin/../lib/gcc/x86_64-w64-mingw32/5.3.0/../../../../x86_64-w64-mingw32/lib/../lib/libmingwex.a(lib64_libmingwex_a-gethex.o)
 .xdata         0x000000000046fbfc       0x10 C:/Program Files/mingw-w64/x86_64-5.3.0-posix-seh-rt_v4-rev0/mingw64/bin/../lib/gcc/x86_64-w64-mingw32/5.3.0/../../../../x86_64-w64-mingw32/lib/../lib/libmingwex.a(lib64_libmingwex_a-gmisc.o)
 .xdata         0x000000000046fc0c        0x4 C:/Program Files/mingw-w64/x86_64-5.3.0-posix-seh-rt_v4-rev0/mingw64/bin/../lib/gcc/x86_64-w64-mingw32/5.3.0/../../../../x86_64-w64-mingw32/lib/../lib/libmingwex.a(lib64_libmingwex_a-hd_init.o)
 .xdata         0x000000000046fc10       0x18 C:/Program Files/mingw-w64/x86_64-5.3.0-posix-seh-rt_v4-rev0/mingw64/bin/../lib/gcc/x86_64-w64-mingw32/5.3.0/../../../../x86_64-w64-mingw32/lib/../lib/libmingwex.a(lib64_libmingwex_a-hexnan.o)
 .xdata         0x000000000046fc28       0xa0 C:/Program Files/mingw-w64/x86_64-5.3.0-posix-seh-rt_v4-rev0/mingw64/bin/../lib/gcc/x86_64-w64-mingw32/5.3.0/../../../../x86_64-w64-mingw32/lib/../lib/libmingwex.a(lib64_libmingwex_a-misc.o)
 .xdata         0x000000000046fcc8       0x30 C:/Program Files/mingw-w64/x86_64-5.3.0-posix-seh-rt_v4-rev0/mingw64/bin/../lib/gcc/x86_64-w64-mingw32/5.3.0/../../../../x86_64-w64-mingw32/lib/../lib/libmingwex.a(lib64_libmingwex_a-smisc.o)
 .xdata         0x000000000046fcf8        0x8 C:/Program Files/mingw-w64/x86_64-5.3.0-posix-seh-rt_v4-rev0/mingw64/bin/../lib/gcc/x86_64-w64-mingw32/5.3.0/../../../../x86_64-w64-mingw32/lib/../lib/libmsvcrt.a(lib64_libmsvcrt_a-invalid_parameter_handler.o)
 .xdata.startup
                0x000000000046fd00        0x8 C:/Program Files/mingw-w64/x86_64-5.3.0-posix-seh-rt_v4-rev0/mingw64/bin/../lib/gcc/x86_64-w64-mingw32/5.3.0/crtend.o

.bss            0x0000000000470000    0x13f00
                0x0000000000470000                __bss_start__ = .
 *(.bss)
 .bss           0x0000000000470000       0x30 C:/Program Files/mingw-w64/x86_64-5.3.0-posix-seh-rt_v4-rev0/mingw64/bin/../lib/gcc/x86_64-w64-mingw32/5.3.0/../../../../x86_64-w64-mingw32/lib/../lib/crt2.o
 .bss           0x0000000000470030        0x0 C:/Program Files/mingw-w64/x86_64-5.3.0-posix-seh-rt_v4-rev0/mingw64/bin/../lib/gcc/x86_64-w64-mingw32/5.3.0/crtbegin.o
 .bss           0x0000000000470030        0x0 MinGW-w64R/main.o
 .bss           0x0000000000470030        0x0 MinGW-w64R/apiemu.o
 .bss           0x0000000000470030        0x0 MinGW-w64R/assemble.o
 *fill*         0x0000000000470030       0x10 
 .bss           0x0000000000470040      0x360 MinGW-w64R/assume.o
 .bss           0x00000000004703a0        0x0 MinGW-w64R/atofloat.o
 .bss           0x00000000004703a0        0x0 MinGW-w64R/backptch.o
 .bss           0x00000000004703a0        0x0 MinGW-w64R/bin.o
 .bss           0x00000000004703a0        0x0 MinGW-w64R/branch.o
 .bss           0x00000000004703a0      0x160 MinGW-w64R/cmdline.o
                0x00000000004703a0                DefaultDir
 .bss           0x0000000000470500        0x0 MinGW-w64R/codegen.o
 .bss           0x0000000000470500      0x420 MinGW-w64R/coff.o
 .bss           0x0000000000470920       0x10 MinGW-w64R/condasm.o
 .bss           0x0000000000470930        0x0 MinGW-w64R/context.o
 .bss           0x0000000000470930        0x0 MinGW-w64R/cpumodel.o
 .bss           0x0000000000470930        0x0 MinGW-w64R/data.o
 .bss           0x0000000000470930        0x0 MinGW-w64R/dbgcv.o
 .bss           0x0000000000470930        0x0 MinGW-w64R/directiv.o
 .bss           0x0000000000470930        0x0 MinGW-w64R/elf.o
 .bss           0x0000000000470930        0x0 MinGW-w64R/end.o
 .bss           0x0000000000470930        0x0 MinGW-w64R/equate.o
 *fill*         0x0000000000470930       0x10 
 .bss           0x0000000000470940       0x40 MinGW-w64R/errmsg.o
                0x0000000000470940                banner_printed
 .bss           0x0000000000470980        0x0 MinGW-w64R/expans.o
 .bss           0x0000000000470980       0x20 MinGW-w64R/expreval.o
 .bss           0x00000000004709a0        0x0 MinGW-w64R/extern.o
 .bss           0x00000000004709a0      0x200 MinGW-w64R/fastpass.o
 .bss           0x0000000000470ba0        0x0 MinGW-w64R/fixup.o
 .bss           0x0000000000470ba0        0x0 MinGW-w64R/fpfixup.o
 .bss           0x0000000000470ba0        0x0 MinGW-w64R/hll.o
 .bss           0x0000000000470ba0       0x10 MinGW-w64R/input.o
 .bss           0x0000000000470bb0       0x10 MinGW-w64R/invoke.o
 .bss           0x0000000000470bc0        0x0 MinGW-w64R/label.o
 .bss           0x0000000000470bc0       0x10 MinGW-w64R/linnum.o
 .bss           0x0000000000470bd0       0x10 MinGW-w64R/listing.o
 .bss           0x0000000000470be0        0x0 MinGW-w64R/loop.o
 .bss           0x0000000000470be0        0x0 MinGW-w64R/lqueue.o
 .bss           0x0000000000470be0        0x0 MinGW-w64R/macro.o
 .bss           0x0000000000470be0        0x0 MinGW-w64R/mangle.o
 .bss           0x0000000000470be0       0x20 MinGW-w64R/memalloc.o
 .bss           0x0000000000470c00        0x0 MinGW-w64R/msgtext.o
 .bss           0x0000000000470c00       0x40 MinGW-w64R/omf.o
 .bss           0x0000000000470c40        0x0 MinGW-w64R/omffixup.o
 .bss           0x0000000000470c40        0x0 MinGW-w64R/omfint.o
 .bss           0x0000000000470c40        0x0 MinGW-w64R/option.o
 .bss           0x0000000000470c40       0x10 MinGW-w64R/parser.o
 .bss           0x0000000000470c50        0x0 MinGW-w64R/posndir.o
 .bss           0x0000000000470c50        0x0 MinGW-w64R/preproc.o
 *fill*         0x0000000000470c50       0x10 
 .bss           0x0000000000470c60      0x280 MinGW-w64R/proc.o
 .bss           0x0000000000470ee0        0x0 MinGW-w64R/queue.o
 .bss           0x0000000000470ee0     0x1000 MinGW-w64R/reswords.o
 .bss           0x0000000000471ee0        0x0 MinGW-w64R/safeseh.o
 .bss           0x0000000000471ee0      0x500 MinGW-w64R/segment.o
 .bss           0x00000000004723e0       0x40 MinGW-w64R/simsegm.o
 .bss           0x0000000000472420        0x0 MinGW-w64R/string.o
 .bss           0x0000000000472420     0xfea0 MinGW-w64R/symbols.o
 .bss           0x00000000004822c0        0x0 MinGW-w64R/tbyte.o
 .bss           0x00000000004822c0        0x0 MinGW-w64R/tokenize.o
 .bss           0x00000000004822c0       0x10 MinGW-w64R/types.o
 .bss           0x00000000004822d0        0x0 C:/Program Files/mingw-w64/x86_64-5.3.0-posix-seh-rt_v4-rev0/mingw64/bin/../lib/gcc/x86_64-w64-mingw32/5.3.0/../../../../x86_64-w64-mingw32/lib/../lib/libmingw32.a(lib64_libmingw32_a-atonexit.o)
 .bss           0x00000000004822d0       0x10 C:/Program Files/mingw-w64/x86_64-5.3.0-posix-seh-rt_v4-rev0/mingw64/bin/../lib/gcc/x86_64-w64-mingw32/5.3.0/../../../../x86_64-w64-mingw32/lib/../lib/libmingw32.a(lib64_libmingw32_a-gccmain.o)
 .bss           0x00000000004822e0        0x0 C:/Program Files/mingw-w64/x86_64-5.3.0-posix-seh-rt_v4-rev0/mingw64/bin/../lib/gcc/x86_64-w64-mingw32/5.3.0/../../../../x86_64-w64-mingw32/lib/../lib/libmingw32.a(lib64_libmingw32_a-natstart.o)
 .bss           0x00000000004822e0        0x0 C:/Program Files/mingw-w64/x86_64-5.3.0-posix-seh-rt_v4-rev0/mingw64/bin/../lib/gcc/x86_64-w64-mingw32/5.3.0/../../../../x86_64-w64-mingw32/lib/../lib/libmingw32.a(lib64_libmingw32_a-wildcard.o)
 .bss           0x00000000004822e0       0x10 C:/Program Files/mingw-w64/x86_64-5.3.0-posix-seh-rt_v4-rev0/mingw64/bin/../lib/gcc/x86_64-w64-mingw32/5.3.0/../../../../x86_64-w64-mingw32/lib/../lib/libmingw32.a(lib64_libmingw32_a-charmax.o)
                0x00000000004822e0                mingw_initcharmax
 .bss           0x00000000004822f0        0x0 C:/Program Files/mingw-w64/x86_64-5.3.0-posix-seh-rt_v4-rev0/mingw64/bin/../lib/gcc/x86_64-w64-mingw32/5.3.0/../../../../x86_64-w64-mingw32/lib/../lib/libmingw32.a(lib64_libmingw32_a-dllargv.o)
 *fill*         0x00000000004822f0       0x10 
 .bss           0x0000000000482300      0x5c0 C:/Program Files/mingw-w64/x86_64-5.3.0-posix-seh-rt_v4-rev0/mingw64/bin/../lib/gcc/x86_64-w64-mingw32/5.3.0/../../../../x86_64-w64-mingw32/lib/../lib/libmingw32.a(lib64_libmingw32_a-gs_support.o)
 .bss           0x00000000004828c0       0x10 C:/Program Files/mingw-w64/x86_64-5.3.0-posix-seh-rt_v4-rev0/mingw64/bin/../lib/gcc/x86_64-w64-mingw32/5.3.0/../../../../x86_64-w64-mingw32/lib/../lib/libmingw32.a(lib64_libmingw32_a-_newmode.o)
                0x00000000004828c0                _newmode
 .bss           0x00000000004828d0       0x10 C:/Program Files/mingw-w64/x86_64-5.3.0-posix-seh-rt_v4-rev0/mingw64/bin/../lib/gcc/x86_64-w64-mingw32/5.3.0/../../../../x86_64-w64-mingw32/lib/../lib/libmingw32.a(lib64_libmingw32_a-tlssup.o)
                0x00000000004828d0                mingw_initltssuo_force
                0x00000000004828d4                mingw_initltsdyn_force
                0x00000000004828d8                mingw_initltsdrot_force
                0x00000000004828dc                _tls_index
 .bss           0x00000000004828e0        0x0 C:/Program Files/mingw-w64/x86_64-5.3.0-posix-seh-rt_v4-rev0/mingw64/bin/../lib/gcc/x86_64-w64-mingw32/5.3.0/../../../../x86_64-w64-mingw32/lib/../lib/libmingw32.a(lib64_libmingw32_a-cinitexe.o)
 .bss           0x00000000004828e0       0x10 C:/Program Files/mingw-w64/x86_64-5.3.0-posix-seh-rt_v4-rev0/mingw64/bin/../lib/gcc/x86_64-w64-mingw32/5.3.0/../../../../x86_64-w64-mingw32/lib/../lib/libmingw32.a(lib64_libmingw32_a-merr.o)
 .bss           0x00000000004828f0        0x0 C:/Program Files/mingw-w64/x86_64-5.3.0-posix-seh-rt_v4-rev0/mingw64/bin/../lib/gcc/x86_64-w64-mingw32/5.3.0/../../../../x86_64-w64-mingw32/lib/../lib/libmingw32.a(lib64_libmingw32_a-CRT_fp10.o)
 .bss           0x00000000004828f0       0x10 C:/Program Files/mingw-w64/x86_64-5.3.0-posix-seh-rt_v4-rev0/mingw64/bin/../lib/gcc/x86_64-w64-mingw32/5.3.0/../../../../x86_64-w64-mingw32/lib/../lib/libmingw32.a(lib64_libmingw32_a-mingw_helpers.o)
                0x00000000004828f0                mingw_app_type
 .bss           0x0000000000482900       0x10 C:/Program Files/mingw-w64/x86_64-5.3.0-posix-seh-rt_v4-rev0/mingw64/bin/../lib/gcc/x86_64-w64-mingw32/5.3.0/../../../../x86_64-w64-mingw32/lib/../lib/libmingw32.a(lib64_libmingw32_a-pseudo-reloc.o)
 .bss           0x0000000000482910       0x10 C:/Program Files/mingw-w64/x86_64-5.3.0-posix-seh-rt_v4-rev0/mingw64/bin/../lib/gcc/x86_64-w64-mingw32/5.3.0/../../../../x86_64-w64-mingw32/lib/../lib/libmingw32.a(lib64_libmingw32_a-xtxtmode.o)
                0x0000000000482910                _fmode
 *fill*         0x0000000000482920       0x20 
 .bss           0x0000000000482940      0x2c0 C:/Program Files/mingw-w64/x86_64-5.3.0-posix-seh-rt_v4-rev0/mingw64/bin/../lib/gcc/x86_64-w64-mingw32/5.3.0/../../../../x86_64-w64-mingw32/lib/../lib/libmingw32.a(lib64_libmingw32_a-crt_handler.o)
                0x0000000000482940                __mingw_oldexcpt_handler
 .bss           0x0000000000482c00       0x60 C:/Program Files/mingw-w64/x86_64-5.3.0-posix-seh-rt_v4-rev0/mingw64/bin/../lib/gcc/x86_64-w64-mingw32/5.3.0/../../../../x86_64-w64-mingw32/lib/../lib/libmingw32.a(lib64_libmingw32_a-tlsthrd.o)
 .bss           0x0000000000482c60        0x0 C:/Program Files/mingw-w64/x86_64-5.3.0-posix-seh-rt_v4-rev0/mingw64/bin/../lib/gcc/x86_64-w64-mingw32/5.3.0/../../../../x86_64-w64-mingw32/lib/../lib/libmingw32.a(lib64_libmingw32_a-tlsmcrt.o)
 .bss           0x0000000000482c60       0x10 C:/Program Files/mingw-w64/x86_64-5.3.0-posix-seh-rt_v4-rev0/mingw64/bin/../lib/gcc/x86_64-w64-mingw32/5.3.0/../../../../x86_64-w64-mingw32/lib/../lib/libmingw32.a(lib64_libmingw32_a-pseudo-reloc-list.o)
 .bss           0x0000000000482c70        0x0 C:/Program Files/mingw-w64/x86_64-5.3.0-posix-seh-rt_v4-rev0/mingw64/bin/../lib/gcc/x86_64-w64-mingw32/5.3.0/../../../../x86_64-w64-mingw32/lib/../lib/libmingw32.a(lib64_libmingw32_a-pesect.o)
 .bss           0x0000000000482c70        0x0 C:/Program Files/mingw-w64/x86_64-5.3.0-posix-seh-rt_v4-rev0/mingw64/bin/../lib/gcc/x86_64-w64-mingw32/5.3.0/libgcc.a(_chkstk_ms.o)
 .bss           0x0000000000482c70        0x0 C:/Program Files/mingw-w64/x86_64-5.3.0-posix-seh-rt_v4-rev0/mingw64/bin/../lib/gcc/x86_64-w64-mingw32/5.3.0/libgcc.a(_ctors.o)
 .bss           0x0000000000482c70        0x0 C:/Program Files/mingw-w64/x86_64-5.3.0-posix-seh-rt_v4-rev0/mingw64/bin/../lib/gcc/x86_64-w64-mingw32/5.3.0/../../../../x86_64-w64-mingw32/lib/../lib/libmingwex.a(lib64_libmingwex_a-strtodnrp.o)
 .bss           0x0000000000482c70        0x0 C:/Program Files/mingw-w64/x86_64-5.3.0-posix-seh-rt_v4-rev0/mingw64/bin/../lib/gcc/x86_64-w64-mingw32/5.3.0/../../../../x86_64-w64-mingw32/lib/../lib/libmingwex.a(lib64_libmingwex_a-mingw_getsp.o)
 .bss           0x0000000000482c70        0x0 C:/Program Files/mingw-w64/x86_64-5.3.0-posix-seh-rt_v4-rev0/mingw64/bin/../lib/gcc/x86_64-w64-mingw32/5.3.0/../../../../x86_64-w64-mingw32/lib/../lib/libmingwex.a(lib64_libmingwex_a-mingw_matherr.o)
 .bss           0x0000000000482c70        0x0 C:/Program Files/mingw-w64/x86_64-5.3.0-posix-seh-rt_v4-rev0/mingw64/bin/../lib/gcc/x86_64-w64-mingw32/5.3.0/../../../../x86_64-w64-mingw32/lib/../lib/libmingwex.a(lib64_libmingwex_a-strtodg.o)
 .bss           0x0000000000482c70        0x0 C:/Program Files/mingw-w64/x86_64-5.3.0-posix-seh-rt_v4-rev0/mingw64/bin/../lib/gcc/x86_64-w64-mingw32/5.3.0/../../../../x86_64-w64-mingw32/lib/../lib/libmingwex.a(lib64_libmingwex_a-sum.o)
 .bss           0x0000000000482c70        0x0 C:/Program Files/mingw-w64/x86_64-5.3.0-posix-seh-rt_v4-rev0/mingw64/bin/../lib/gcc/x86_64-w64-mingw32/5.3.0/../../../../x86_64-w64-mingw32/lib/../lib/libmingwex.a(lib64_libmingwex_a-gethex.o)
 .bss           0x0000000000482c70        0x0 C:/Program Files/mingw-w64/x86_64-5.3.0-posix-seh-rt_v4-rev0/mingw64/bin/../lib/gcc/x86_64-w64-mingw32/5.3.0/../../../../x86_64-w64-mingw32/lib/../lib/libmingwex.a(lib64_libmingwex_a-gmisc.o)
 .bss           0x0000000000482c70        0x0 C:/Program Files/mingw-w64/x86_64-5.3.0-posix-seh-rt_v4-rev0/mingw64/bin/../lib/gcc/x86_64-w64-mingw32/5.3.0/../../../../x86_64-w64-mingw32/lib/../lib/libmingwex.a(lib64_libmingwex_a-hd_init.o)
 .bss           0x0000000000482c70        0x0 C:/Program Files/mingw-w64/x86_64-5.3.0-posix-seh-rt_v4-rev0/mingw64/bin/../lib/gcc/x86_64-w64-mingw32/5.3.0/../../../../x86_64-w64-mingw32/lib/../lib/libmingwex.a(lib64_libmingwex_a-hexnan.o)
 *fill*         0x0000000000482c70       0x10 
 .bss           0x0000000000482c80      0xa40 C:/Program Files/mingw-w64/x86_64-5.3.0-posix-seh-rt_v4-rev0/mingw64/bin/../lib/gcc/x86_64-w64-mingw32/5.3.0/../../../../x86_64-w64-mingw32/lib/../lib/libmingwex.a(lib64_libmingwex_a-misc.o)
 .bss           0x00000000004836c0        0x0 C:/Program Files/mingw-w64/x86_64-5.3.0-posix-seh-rt_v4-rev0/mingw64/bin/../lib/gcc/x86_64-w64-mingw32/5.3.0/../../../../x86_64-w64-mingw32/lib/../lib/libmingwex.a(lib64_libmingwex_a-smisc.o)
 .bss           0x00000000004836c0        0x0 C:/Program Files/mingw-w64/x86_64-5.3.0-posix-seh-rt_v4-rev0/mingw64/bin/../lib/gcc/x86_64-w64-mingw32/5.3.0/../../../../x86_64-w64-mingw32/lib/../lib/libmsvcrt.a(dkpfs01245.o)
 .bss           0x00000000004836c0        0x0 C:/Program Files/mingw-w64/x86_64-5.3.0-posix-seh-rt_v4-rev0/mingw64/bin/../lib/gcc/x86_64-w64-mingw32/5.3.0/../../../../x86_64-w64-mingw32/lib/../lib/libmsvcrt.a(dkpfs01239.o)
 .bss           0x00000000004836c0        0x0 C:/Program Files/mingw-w64/x86_64-5.3.0-posix-seh-rt_v4-rev0/mingw64/bin/../lib/gcc/x86_64-w64-mingw32/5.3.0/../../../../x86_64-w64-mingw32/lib/../lib/libmsvcrt.a(dkpfs01233.o)
 .bss           0x00000000004836c0        0x0 C:/Program Files/mingw-w64/x86_64-5.3.0-posix-seh-rt_v4-rev0/mingw64/bin/../lib/gcc/x86_64-w64-mingw32/5.3.0/../../../../x86_64-w64-mingw32/lib/../lib/libmsvcrt.a(dkpfs01215.o)
 .bss           0x00000000004836c0        0x0 C:/Program Files/mingw-w64/x86_64-5.3.0-posix-seh-rt_v4-rev0/mingw64/bin/../lib/gcc/x86_64-w64-mingw32/5.3.0/../../../../x86_64-w64-mingw32/lib/../lib/libmsvcrt.a(dkpfs01208.o)
 .bss           0x00000000004836c0        0x0 C:/Program Files/mingw-w64/x86_64-5.3.0-posix-seh-rt_v4-rev0/mingw64/bin/../lib/gcc/x86_64-w64-mingw32/5.3.0/../../../../x86_64-w64-mingw32/lib/../lib/libmsvcrt.a(dkpfs01207.o)
 .bss           0x00000000004836c0        0x0 C:/Program Files/mingw-w64/x86_64-5.3.0-posix-seh-rt_v4-rev0/mingw64/bin/../lib/gcc/x86_64-w64-mingw32/5.3.0/../../../../x86_64-w64-mingw32/lib/../lib/libmsvcrt.a(dkpfs01204.o)
 .bss           0x00000000004836c0        0x0 C:/Program Files/mingw-w64/x86_64-5.3.0-posix-seh-rt_v4-rev0/mingw64/bin/../lib/gcc/x86_64-w64-mingw32/5.3.0/../../../../x86_64-w64-mingw32/lib/../lib/libmsvcrt.a(dkpfs01199.o)
 .bss           0x00000000004836c0        0x0 C:/Program Files/mingw-w64/x86_64-5.3.0-posix-seh-rt_v4-rev0/mingw64/bin/../lib/gcc/x86_64-w64-mingw32/5.3.0/../../../../x86_64-w64-mingw32/lib/../lib/libmsvcrt.a(dkpfs01197.o)
 .bss           0x00000000004836c0        0x0 C:/Program Files/mingw-w64/x86_64-5.3.0-posix-seh-rt_v4-rev0/mingw64/bin/../lib/gcc/x86_64-w64-mingw32/5.3.0/../../../../x86_64-w64-mingw32/lib/../lib/libmsvcrt.a(dkpfs01196.o)
 .bss           0x00000000004836c0        0x0 C:/Program Files/mingw-w64/x86_64-5.3.0-posix-seh-rt_v4-rev0/mingw64/bin/../lib/gcc/x86_64-w64-mingw32/5.3.0/../../../../x86_64-w64-mingw32/lib/../lib/libmsvcrt.a(dkpfs01194.o)
 .bss           0x00000000004836c0        0x0 C:/Program Files/mingw-w64/x86_64-5.3.0-posix-seh-rt_v4-rev0/mingw64/bin/../lib/gcc/x86_64-w64-mingw32/5.3.0/../../../../x86_64-w64-mingw32/lib/../lib/libmsvcrt.a(dkpfs01188.o)
 .bss           0x00000000004836c0        0x0 C:/Program Files/mingw-w64/x86_64-5.3.0-posix-seh-rt_v4-rev0/mingw64/bin/../lib/gcc/x86_64-w64-mingw32/5.3.0/../../../../x86_64-w64-mingw32/lib/../lib/libmsvcrt.a(dkpfs01183.o)
 .bss           0x00000000004836c0        0x0 C:/Program Files/mingw-w64/x86_64-5.3.0-posix-seh-rt_v4-rev0/mingw64/bin/../lib/gcc/x86_64-w64-mingw32/5.3.0/../../../../x86_64-w64-mingw32/lib/../lib/libmsvcrt.a(dkpfs01176.o)
 .bss           0x00000000004836c0        0x0 C:/Program Files/mingw-w64/x86_64-5.3.0-posix-seh-rt_v4-rev0/mingw64/bin/../lib/gcc/x86_64-w64-mingw32/5.3.0/../../../../x86_64-w64-mingw32/lib/../lib/libmsvcrt.a(dkpfs01174.o)
 .bss           0x00000000004836c0        0x0 C:/Program Files/mingw-w64/x86_64-5.3.0-posix-seh-rt_v4-rev0/mingw64/bin/../lib/gcc/x86_64-w64-mingw32/5.3.0/../../../../x86_64-w64-mingw32/lib/../lib/libmsvcrt.a(dkpfs01169.o)
 .bss           0x00000000004836c0        0x0 C:/Program Files/mingw-w64/x86_64-5.3.0-posix-seh-rt_v4-rev0/mingw64/bin/../lib/gcc/x86_64-w64-mingw32/5.3.0/../../../../x86_64-w64-mingw32/lib/../lib/libmsvcrt.a(dkpfs01166.o)
 .bss           0x00000000004836c0        0x0 C:/Program Files/mingw-w64/x86_64-5.3.0-posix-seh-rt_v4-rev0/mingw64/bin/../lib/gcc/x86_64-w64-mingw32/5.3.0/../../../../x86_64-w64-mingw32/lib/../lib/libmsvcrt.a(dkpfs01165.o)
 .bss           0x00000000004836c0        0x0 C:/Program Files/mingw-w64/x86_64-5.3.0-posix-seh-rt_v4-rev0/mingw64/bin/../lib/gcc/x86_64-w64-mingw32/5.3.0/../../../../x86_64-w64-mingw32/lib/../lib/libmsvcrt.a(dkpfs01162.o)
 .bss           0x00000000004836c0        0x0 C:/Program Files/mingw-w64/x86_64-5.3.0-posix-seh-rt_v4-rev0/mingw64/bin/../lib/gcc/x86_64-w64-mingw32/5.3.0/../../../../x86_64-w64-mingw32/lib/../lib/libmsvcrt.a(dkpfs01155.o)
 .bss           0x00000000004836c0        0x0 C:/Program Files/mingw-w64/x86_64-5.3.0-posix-seh-rt_v4-rev0/mingw64/bin/../lib/gcc/x86_64-w64-mingw32/5.3.0/../../../../x86_64-w64-mingw32/lib/../lib/libmsvcrt.a(dkpfs01154.o)
 .bss           0x00000000004836c0        0x0 C:/Program Files/mingw-w64/x86_64-5.3.0-posix-seh-rt_v4-rev0/mingw64/bin/../lib/gcc/x86_64-w64-mingw32/5.3.0/../../../../x86_64-w64-mingw32/lib/../lib/libmsvcrt.a(dkpfs01153.o)
 .bss           0x00000000004836c0        0x0 C:/Program Files/mingw-w64/x86_64-5.3.0-posix-seh-rt_v4-rev0/mingw64/bin/../lib/gcc/x86_64-w64-mingw32/5.3.0/../../../../x86_64-w64-mingw32/lib/../lib/libmsvcrt.a(dkpfs01152.o)
 .bss           0x00000000004836c0        0x0 C:/Program Files/mingw-w64/x86_64-5.3.0-posix-seh-rt_v4-rev0/mingw64/bin/../lib/gcc/x86_64-w64-mingw32/5.3.0/../../../../x86_64-w64-mingw32/lib/../lib/libmsvcrt.a(dkpfs01145.o)
 .bss           0x00000000004836c0        0x0 C:/Program Files/mingw-w64/x86_64-5.3.0-posix-seh-rt_v4-rev0/mingw64/bin/../lib/gcc/x86_64-w64-mingw32/5.3.0/../../../../x86_64-w64-mingw32/lib/../lib/libmsvcrt.a(dkpfs01144.o)
 .bss           0x00000000004836c0        0x0 C:/Program Files/mingw-w64/x86_64-5.3.0-posix-seh-rt_v4-rev0/mingw64/bin/../lib/gcc/x86_64-w64-mingw32/5.3.0/../../../../x86_64-w64-mingw32/lib/../lib/libmsvcrt.a(dkpfs01138.o)
 .bss           0x00000000004836c0        0x0 C:/Program Files/mingw-w64/x86_64-5.3.0-posix-seh-rt_v4-rev0/mingw64/bin/../lib/gcc/x86_64-w64-mingw32/5.3.0/../../../../x86_64-w64-mingw32/lib/../lib/libmsvcrt.a(dkpfs01118.o)
 .bss           0x00000000004836c0        0x0 C:/Program Files/mingw-w64/x86_64-5.3.0-posix-seh-rt_v4-rev0/mingw64/bin/../lib/gcc/x86_64-w64-mingw32/5.3.0/../../../../x86_64-w64-mingw32/lib/../lib/libmsvcrt.a(dkpfs01110.o)
 .bss           0x00000000004836c0        0x0 C:/Program Files/mingw-w64/x86_64-5.3.0-posix-seh-rt_v4-rev0/mingw64/bin/../lib/gcc/x86_64-w64-mingw32/5.3.0/../../../../x86_64-w64-mingw32/lib/../lib/libmsvcrt.a(dkpfs01109.o)
 .bss           0x00000000004836c0        0x0 C:/Program Files/mingw-w64/x86_64-5.3.0-posix-seh-rt_v4-rev0/mingw64/bin/../lib/gcc/x86_64-w64-mingw32/5.3.0/../../../../x86_64-w64-mingw32/lib/../lib/libmsvcrt.a(dkpfs01102.o)
 .bss           0x00000000004836c0        0x0 C:/Program Files/mingw-w64/x86_64-5.3.0-posix-seh-rt_v4-rev0/mingw64/bin/../lib/gcc/x86_64-w64-mingw32/5.3.0/../../../../x86_64-w64-mingw32/lib/../lib/libmsvcrt.a(dkpfs01100.o)
 .bss           0x00000000004836c0        0x0 C:/Program Files/mingw-w64/x86_64-5.3.0-posix-seh-rt_v4-rev0/mingw64/bin/../lib/gcc/x86_64-w64-mingw32/5.3.0/../../../../x86_64-w64-mingw32/lib/../lib/libmsvcrt.a(dkpfs01097.o)
 .bss           0x00000000004836c0        0x0 C:/Program Files/mingw-w64/x86_64-5.3.0-posix-seh-rt_v4-rev0/mingw64/bin/../lib/gcc/x86_64-w64-mingw32/5.3.0/../../../../x86_64-w64-mingw32/lib/../lib/libmsvcrt.a(dkpfs01094.o)
 .bss           0x00000000004836c0        0x0 C:/Program Files/mingw-w64/x86_64-5.3.0-posix-seh-rt_v4-rev0/mingw64/bin/../lib/gcc/x86_64-w64-mingw32/5.3.0/../../../../x86_64-w64-mingw32/lib/../lib/libmsvcrt.a(dkpfs01092.o)
 .bss           0x00000000004836c0        0x0 C:/Program Files/mingw-w64/x86_64-5.3.0-posix-seh-rt_v4-rev0/mingw64/bin/../lib/gcc/x86_64-w64-mingw32/5.3.0/../../../../x86_64-w64-mingw32/lib/../lib/libmsvcrt.a(dkpfs01086.o)
 .bss           0x00000000004836c0        0x0 C:/Program Files/mingw-w64/x86_64-5.3.0-posix-seh-rt_v4-rev0/mingw64/bin/../lib/gcc/x86_64-w64-mingw32/5.3.0/../../../../x86_64-w64-mingw32/lib/../lib/libmsvcrt.a(dkpfs01085.o)
 .bss           0x00000000004836c0        0x0 C:/Program Files/mingw-w64/x86_64-5.3.0-posix-seh-rt_v4-rev0/mingw64/bin/../lib/gcc/x86_64-w64-mingw32/5.3.0/../../../../x86_64-w64-mingw32/lib/../lib/libmsvcrt.a(dkpfs01079.o)
 .bss           0x00000000004836c0        0x0 C:/Program Files/mingw-w64/x86_64-5.3.0-posix-seh-rt_v4-rev0/mingw64/bin/../lib/gcc/x86_64-w64-mingw32/5.3.0/../../../../x86_64-w64-mingw32/lib/../lib/libmsvcrt.a(dkpfs01077.o)
 .bss           0x00000000004836c0        0x0 C:/Program Files/mingw-w64/x86_64-5.3.0-posix-seh-rt_v4-rev0/mingw64/bin/../lib/gcc/x86_64-w64-mingw32/5.3.0/../../../../x86_64-w64-mingw32/lib/../lib/libmsvcrt.a(dkpfs01067.o)
 .bss           0x00000000004836c0        0x0 C:/Program Files/mingw-w64/x86_64-5.3.0-posix-seh-rt_v4-rev0/mingw64/bin/../lib/gcc/x86_64-w64-mingw32/5.3.0/../../../../x86_64-w64-mingw32/lib/../lib/libmsvcrt.a(dkpfs01064.o)
 .bss           0x00000000004836c0        0x0 C:/Program Files/mingw-w64/x86_64-5.3.0-posix-seh-rt_v4-rev0/mingw64/bin/../lib/gcc/x86_64-w64-mingw32/5.3.0/../../../../x86_64-w64-mingw32/lib/../lib/libmsvcrt.a(dkpfs01060.o)
 .bss           0x00000000004836c0        0x0 C:/Program Files/mingw-w64/x86_64-5.3.0-posix-seh-rt_v4-rev0/mingw64/bin/../lib/gcc/x86_64-w64-mingw32/5.3.0/../../../../x86_64-w64-mingw32/lib/../lib/libmsvcrt.a(dkpfs01052.o)
 .bss           0x00000000004836c0        0x0 C:/Program Files/mingw-w64/x86_64-5.3.0-posix-seh-rt_v4-rev0/mingw64/bin/../lib/gcc/x86_64-w64-mingw32/5.3.0/../../../../x86_64-w64-mingw32/lib/../lib/libmsvcrt.a(dkpfs01047.o)
 .bss           0x00000000004836c0        0x0 C:/Program Files/mingw-w64/x86_64-5.3.0-posix-seh-rt_v4-rev0/mingw64/bin/../lib/gcc/x86_64-w64-mingw32/5.3.0/../../../../x86_64-w64-mingw32/lib/../lib/libmsvcrt.a(dkpfs01043.o)
 .bss           0x00000000004836c0        0x0 C:/Program Files/mingw-w64/x86_64-5.3.0-posix-seh-rt_v4-rev0/mingw64/bin/../lib/gcc/x86_64-w64-mingw32/5.3.0/../../../../x86_64-w64-mingw32/lib/../lib/libmsvcrt.a(dkpfs01030.o)
 .bss           0x00000000004836c0        0x0 C:/Program Files/mingw-w64/x86_64-5.3.0-posix-seh-rt_v4-rev0/mingw64/bin/../lib/gcc/x86_64-w64-mingw32/5.3.0/../../../../x86_64-w64-mingw32/lib/../lib/libmsvcrt.a(dkpfs00819.o)
 .bss           0x00000000004836c0        0x0 C:/Program Files/mingw-w64/x86_64-5.3.0-posix-seh-rt_v4-rev0/mingw64/bin/../lib/gcc/x86_64-w64-mingw32/5.3.0/../../../../x86_64-w64-mingw32/lib/../lib/libmsvcrt.a(dkpfs00788.o)
 .bss           0x00000000004836c0        0x0 C:/Program Files/mingw-w64/x86_64-5.3.0-posix-seh-rt_v4-rev0/mingw64/bin/../lib/gcc/x86_64-w64-mingw32/5.3.0/../../../../x86_64-w64-mingw32/lib/../lib/libmsvcrt.a(dkpfs00768.o)
 .bss           0x00000000004836c0        0x0 C:/Program Files/mingw-w64/x86_64-5.3.0-posix-seh-rt_v4-rev0/mingw64/bin/../lib/gcc/x86_64-w64-mingw32/5.3.0/../../../../x86_64-w64-mingw32/lib/../lib/libmsvcrt.a(dkpfs00731.o)
 .bss           0x00000000004836c0        0x0 C:/Program Files/mingw-w64/x86_64-5.3.0-posix-seh-rt_v4-rev0/mingw64/bin/../lib/gcc/x86_64-w64-mingw32/5.3.0/../../../../x86_64-w64-mingw32/lib/../lib/libmsvcrt.a(dkpfs00719.o)
 .bss           0x00000000004836c0        0x0 C:/Program Files/mingw-w64/x86_64-5.3.0-posix-seh-rt_v4-rev0/mingw64/bin/../lib/gcc/x86_64-w64-mingw32/5.3.0/../../../../x86_64-w64-mingw32/lib/../lib/libmsvcrt.a(dkpfs00667.o)
 .bss           0x00000000004836c0        0x0 C:/Program Files/mingw-w64/x86_64-5.3.0-posix-seh-rt_v4-rev0/mingw64/bin/../lib/gcc/x86_64-w64-mingw32/5.3.0/../../../../x86_64-w64-mingw32/lib/../lib/libmsvcrt.a(dkpfs00611.o)
 .bss           0x00000000004836c0        0x0 C:/Program Files/mingw-w64/x86_64-5.3.0-posix-seh-rt_v4-rev0/mingw64/bin/../lib/gcc/x86_64-w64-mingw32/5.3.0/../../../../x86_64-w64-mingw32/lib/../lib/libmsvcrt.a(dkpfs00599.o)
 .bss           0x00000000004836c0        0x0 C:/Program Files/mingw-w64/x86_64-5.3.0-posix-seh-rt_v4-rev0/mingw64/bin/../lib/gcc/x86_64-w64-mingw32/5.3.0/../../../../x86_64-w64-mingw32/lib/../lib/libmsvcrt.a(dkpfs00439.o)
 .bss           0x00000000004836c0        0x0 C:/Program Files/mingw-w64/x86_64-5.3.0-posix-seh-rt_v4-rev0/mingw64/bin/../lib/gcc/x86_64-w64-mingw32/5.3.0/../../../../x86_64-w64-mingw32/lib/../lib/libmsvcrt.a(dkpfs00438.o)
 .bss           0x00000000004836c0        0x0 C:/Program Files/mingw-w64/x86_64-5.3.0-posix-seh-rt_v4-rev0/mingw64/bin/../lib/gcc/x86_64-w64-mingw32/5.3.0/../../../../x86_64-w64-mingw32/lib/../lib/libmsvcrt.a(dkpfs00330.o)
 .bss           0x00000000004836c0        0x0 C:/Program Files/mingw-w64/x86_64-5.3.0-posix-seh-rt_v4-rev0/mingw64/bin/../lib/gcc/x86_64-w64-mingw32/5.3.0/../../../../x86_64-w64-mingw32/lib/../lib/libmsvcrt.a(dkpfs00251.o)
 .bss           0x00000000004836c0        0x0 C:/Program Files/mingw-w64/x86_64-5.3.0-posix-seh-rt_v4-rev0/mingw64/bin/../lib/gcc/x86_64-w64-mingw32/5.3.0/../../../../x86_64-w64-mingw32/lib/../lib/libmsvcrt.a(dkpfs00242.o)
 .bss           0x00000000004836c0        0x0 C:/Program Files/mingw-w64/x86_64-5.3.0-posix-seh-rt_v4-rev0/mingw64/bin/../lib/gcc/x86_64-w64-mingw32/5.3.0/../../../../x86_64-w64-mingw32/lib/../lib/libmsvcrt.a(dkpfs00238.o)
 .bss           0x00000000004836c0        0x0 C:/Program Files/mingw-w64/x86_64-5.3.0-posix-seh-rt_v4-rev0/mingw64/bin/../lib/gcc/x86_64-w64-mingw32/5.3.0/../../../../x86_64-w64-mingw32/lib/../lib/libmsvcrt.a(dkpfs00235.o)
 .bss           0x00000000004836c0        0x0 C:/Program Files/mingw-w64/x86_64-5.3.0-posix-seh-rt_v4-rev0/mingw64/bin/../lib/gcc/x86_64-w64-mingw32/5.3.0/../../../../x86_64-w64-mingw32/lib/../lib/libmsvcrt.a(dkpfs00234.o)
 .bss           0x00000000004836c0        0x0 C:/Program Files/mingw-w64/x86_64-5.3.0-posix-seh-rt_v4-rev0/mingw64/bin/../lib/gcc/x86_64-w64-mingw32/5.3.0/../../../../x86_64-w64-mingw32/lib/../lib/libmsvcrt.a(dkpfs00201.o)
 .bss           0x00000000004836c0        0x0 C:/Program Files/mingw-w64/x86_64-5.3.0-posix-seh-rt_v4-rev0/mingw64/bin/../lib/gcc/x86_64-w64-mingw32/5.3.0/../../../../x86_64-w64-mingw32/lib/../lib/libmsvcrt.a(dkpfs00149.o)
 .bss           0x00000000004836c0        0x0 C:/Program Files/mingw-w64/x86_64-5.3.0-posix-seh-rt_v4-rev0/mingw64/bin/../lib/gcc/x86_64-w64-mingw32/5.3.0/../../../../x86_64-w64-mingw32/lib/../lib/libmsvcrt.a(dkpfs00140.o)
 .bss           0x00000000004836c0        0x0 C:/Program Files/mingw-w64/x86_64-5.3.0-posix-seh-rt_v4-rev0/mingw64/bin/../lib/gcc/x86_64-w64-mingw32/5.3.0/../../../../x86_64-w64-mingw32/lib/../lib/libmsvcrt.a(dkpfs00122.o)
 .bss           0x00000000004836c0        0x0 C:/Program Files/mingw-w64/x86_64-5.3.0-posix-seh-rt_v4-rev0/mingw64/bin/../lib/gcc/x86_64-w64-mingw32/5.3.0/../../../../x86_64-w64-mingw32/lib/../lib/libmsvcrt.a(dkpfs00115.o)
 .bss           0x00000000004836c0        0x0 C:/Program Files/mingw-w64/x86_64-5.3.0-posix-seh-rt_v4-rev0/mingw64/bin/../lib/gcc/x86_64-w64-mingw32/5.3.0/../../../../x86_64-w64-mingw32/lib/../lib/libmsvcrt.a(dkpfs00098.o)
 .bss           0x00000000004836c0        0x0 C:/Program Files/mingw-w64/x86_64-5.3.0-posix-seh-rt_v4-rev0/mingw64/bin/../lib/gcc/x86_64-w64-mingw32/5.3.0/../../../../x86_64-w64-mingw32/lib/../lib/libmsvcrt.a(dkpfs00096.o)
 .bss           0x00000000004836c0        0x0 C:/Program Files/mingw-w64/x86_64-5.3.0-posix-seh-rt_v4-rev0/mingw64/bin/../lib/gcc/x86_64-w64-mingw32/5.3.0/../../../../x86_64-w64-mingw32/lib/../lib/libmsvcrt.a(dkpfs00090.o)
 .bss           0x00000000004836c0        0x0 C:/Program Files/mingw-w64/x86_64-5.3.0-posix-seh-rt_v4-rev0/mingw64/bin/../lib/gcc/x86_64-w64-mingw32/5.3.0/../../../../x86_64-w64-mingw32/lib/../lib/libmsvcrt.a(dkpfs00083.o)
 .bss           0x00000000004836c0        0x0 C:/Program Files/mingw-w64/x86_64-5.3.0-posix-seh-rt_v4-rev0/mingw64/bin/../lib/gcc/x86_64-w64-mingw32/5.3.0/../../../../x86_64-w64-mingw32/lib/../lib/libmsvcrt.a(dkpfs00082.o)
 .bss           0x00000000004836c0        0x0 C:/Program Files/mingw-w64/x86_64-5.3.0-posix-seh-rt_v4-rev0/mingw64/bin/../lib/gcc/x86_64-w64-mingw32/5.3.0/../../../../x86_64-w64-mingw32/lib/../lib/libmsvcrt.a(dkpfs00081.o)
 .bss           0x00000000004836c0        0x0 C:/Program Files/mingw-w64/x86_64-5.3.0-posix-seh-rt_v4-rev0/mingw64/bin/../lib/gcc/x86_64-w64-mingw32/5.3.0/../../../../x86_64-w64-mingw32/lib/../lib/libmsvcrt.a(dkpfs00078.o)
 .bss           0x00000000004836c0        0x0 C:/Program Files/mingw-w64/x86_64-5.3.0-posix-seh-rt_v4-rev0/mingw64/bin/../lib/gcc/x86_64-w64-mingw32/5.3.0/../../../../x86_64-w64-mingw32/lib/../lib/libmsvcrt.a(dkpfs00055.o)
 .bss           0x00000000004836c0       0x10 C:/Program Files/mingw-w64/x86_64-5.3.0-posix-seh-rt_v4-rev0/mingw64/bin/../lib/gcc/x86_64-w64-mingw32/5.3.0/../../../../x86_64-w64-mingw32/lib/../lib/libmsvcrt.a(lib64_libmsvcrt_a-invalid_parameter_handler.o)
 .bss           0x00000000004836d0        0x0 C:/Program Files/mingw-w64/x86_64-5.3.0-posix-seh-rt_v4-rev0/mingw64/bin/../lib/gcc/x86_64-w64-mingw32/5.3.0/../../../../x86_64-w64-mingw32/lib/../lib/libmsvcrt.a(dkpfh.o)
 .bss           0x00000000004836d0        0x0 C:/Program Files/mingw-w64/x86_64-5.3.0-posix-seh-rt_v4-rev0/mingw64/bin/../lib/gcc/x86_64-w64-mingw32/5.3.0/../../../../x86_64-w64-mingw32/lib/../lib/libmsvcrt.a(dkpft.o)
 .bss           0x00000000004836d0        0x0 C:/Program Files/mingw-w64/x86_64-5.3.0-posix-seh-rt_v4-rev0/mingw64/bin/../lib/gcc/x86_64-w64-mingw32/5.3.0/../../../../x86_64-w64-mingw32/lib/../lib/libkernel32.a(dqmfs01266.o)
 .bss           0x00000000004836d0        0x0 C:/Program Files/mingw-w64/x86_64-5.3.0-posix-seh-rt_v4-rev0/mingw64/bin/../lib/gcc/x86_64-w64-mingw32/5.3.0/../../../../x86_64-w64-mingw32/lib/../lib/libkernel32.a(dqmfs01264.o)
 .bss           0x00000000004836d0        0x0 C:/Program Files/mingw-w64/x86_64-5.3.0-posix-seh-rt_v4-rev0/mingw64/bin/../lib/gcc/x86_64-w64-mingw32/5.3.0/../../../../x86_64-w64-mingw32/lib/../lib/libkernel32.a(dqmfs01261.o)
 .bss           0x00000000004836d0        0x0 C:/Program Files/mingw-w64/x86_64-5.3.0-posix-seh-rt_v4-rev0/mingw64/bin/../lib/gcc/x86_64-w64-mingw32/5.3.0/../../../../x86_64-w64-mingw32/lib/../lib/libkernel32.a(dqmfs01258.o)
 .bss           0x00000000004836d0        0x0 C:/Program Files/mingw-w64/x86_64-5.3.0-posix-seh-rt_v4-rev0/mingw64/bin/../lib/gcc/x86_64-w64-mingw32/5.3.0/../../../../x86_64-w64-mingw32/lib/../lib/libkernel32.a(dqmfs01234.o)
 .bss           0x00000000004836d0        0x0 C:/Program Files/mingw-w64/x86_64-5.3.0-posix-seh-rt_v4-rev0/mingw64/bin/../lib/gcc/x86_64-w64-mingw32/5.3.0/../../../../x86_64-w64-mingw32/lib/../lib/libkernel32.a(dqmfs01221.o)
 .bss           0x00000000004836d0        0x0 C:/Program Files/mingw-w64/x86_64-5.3.0-posix-seh-rt_v4-rev0/mingw64/bin/../lib/gcc/x86_64-w64-mingw32/5.3.0/../../../../x86_64-w64-mingw32/lib/../lib/libkernel32.a(dqmfs01214.o)
 .bss           0x00000000004836d0        0x0 C:/Program Files/mingw-w64/x86_64-5.3.0-posix-seh-rt_v4-rev0/mingw64/bin/../lib/gcc/x86_64-w64-mingw32/5.3.0/../../../../x86_64-w64-mingw32/lib/../lib/libkernel32.a(dqmfs01200.o)
 .bss           0x00000000004836d0        0x0 C:/Program Files/mingw-w64/x86_64-5.3.0-posix-seh-rt_v4-rev0/mingw64/bin/../lib/gcc/x86_64-w64-mingw32/5.3.0/../../../../x86_64-w64-mingw32/lib/../lib/libkernel32.a(dqmfs01187.o)
 .bss           0x00000000004836d0        0x0 C:/Program Files/mingw-w64/x86_64-5.3.0-posix-seh-rt_v4-rev0/mingw64/bin/../lib/gcc/x86_64-w64-mingw32/5.3.0/../../../../x86_64-w64-mingw32/lib/../lib/libkernel32.a(dqmfs01044.o)
 .bss           0x00000000004836d0        0x0 C:/Program Files/mingw-w64/x86_64-5.3.0-posix-seh-rt_v4-rev0/mingw64/bin/../lib/gcc/x86_64-w64-mingw32/5.3.0/../../../../x86_64-w64-mingw32/lib/../lib/libkernel32.a(dqmfs01037.o)
 .bss           0x00000000004836d0        0x0 C:/Program Files/mingw-w64/x86_64-5.3.0-posix-seh-rt_v4-rev0/mingw64/bin/../lib/gcc/x86_64-w64-mingw32/5.3.0/../../../../x86_64-w64-mingw32/lib/../lib/libkernel32.a(dqmfs01030.o)
 .bss           0x00000000004836d0        0x0 C:/Program Files/mingw-w64/x86_64-5.3.0-posix-seh-rt_v4-rev0/mingw64/bin/../lib/gcc/x86_64-w64-mingw32/5.3.0/../../../../x86_64-w64-mingw32/lib/../lib/libkernel32.a(dqmfs01029.o)
 .bss           0x00000000004836d0        0x0 C:/Program Files/mingw-w64/x86_64-5.3.0-posix-seh-rt_v4-rev0/mingw64/bin/../lib/gcc/x86_64-w64-mingw32/5.3.0/../../../../x86_64-w64-mingw32/lib/../lib/libkernel32.a(dqmfs00958.o)
 .bss           0x00000000004836d0        0x0 C:/Program Files/mingw-w64/x86_64-5.3.0-posix-seh-rt_v4-rev0/mingw64/bin/../lib/gcc/x86_64-w64-mingw32/5.3.0/../../../../x86_64-w64-mingw32/lib/../lib/libkernel32.a(dqmfs00844.o)
 .bss           0x00000000004836d0        0x0 C:/Program Files/mingw-w64/x86_64-5.3.0-posix-seh-rt_v4-rev0/mingw64/bin/../lib/gcc/x86_64-w64-mingw32/5.3.0/../../../../x86_64-w64-mingw32/lib/../lib/libkernel32.a(dqmfs00762.o)
 .bss           0x00000000004836d0        0x0 C:/Program Files/mingw-w64/x86_64-5.3.0-posix-seh-rt_v4-rev0/mingw64/bin/../lib/gcc/x86_64-w64-mingw32/5.3.0/../../../../x86_64-w64-mingw32/lib/../lib/libkernel32.a(dqmfs00678.o)
 .bss           0x00000000004836d0        0x0 C:/Program Files/mingw-w64/x86_64-5.3.0-posix-seh-rt_v4-rev0/mingw64/bin/../lib/gcc/x86_64-w64-mingw32/5.3.0/../../../../x86_64-w64-mingw32/lib/../lib/libkernel32.a(dqmfs00651.o)
 .bss           0x00000000004836d0        0x0 C:/Program Files/mingw-w64/x86_64-5.3.0-posix-seh-rt_v4-rev0/mingw64/bin/../lib/gcc/x86_64-w64-mingw32/5.3.0/../../../../x86_64-w64-mingw32/lib/../lib/libkernel32.a(dqmfs00628.o)
 .bss           0x00000000004836d0        0x0 C:/Program Files/mingw-w64/x86_64-5.3.0-posix-seh-rt_v4-rev0/mingw64/bin/../lib/gcc/x86_64-w64-mingw32/5.3.0/../../../../x86_64-w64-mingw32/lib/../lib/libkernel32.a(dqmfs00599.o)
 .bss           0x00000000004836d0        0x0 C:/Program Files/mingw-w64/x86_64-5.3.0-posix-seh-rt_v4-rev0/mingw64/bin/../lib/gcc/x86_64-w64-mingw32/5.3.0/../../../../x86_64-w64-mingw32/lib/../lib/libkernel32.a(dqmfs00549.o)
 .bss           0x00000000004836d0        0x0 C:/Program Files/mingw-w64/x86_64-5.3.0-posix-seh-rt_v4-rev0/mingw64/bin/../lib/gcc/x86_64-w64-mingw32/5.3.0/../../../../x86_64-w64-mingw32/lib/../lib/libkernel32.a(dqmfs00529.o)
 .bss           0x00000000004836d0        0x0 C:/Program Files/mingw-w64/x86_64-5.3.0-posix-seh-rt_v4-rev0/mingw64/bin/../lib/gcc/x86_64-w64-mingw32/5.3.0/../../../../x86_64-w64-mingw32/lib/../lib/libkernel32.a(dqmfs00467.o)
 .bss           0x00000000004836d0        0x0 C:/Program Files/mingw-w64/x86_64-5.3.0-posix-seh-rt_v4-rev0/mingw64/bin/../lib/gcc/x86_64-w64-mingw32/5.3.0/../../../../x86_64-w64-mingw32/lib/../lib/libkernel32.a(dqmfs00463.o)
 .bss           0x00000000004836d0        0x0 C:/Program Files/mingw-w64/x86_64-5.3.0-posix-seh-rt_v4-rev0/mingw64/bin/../lib/gcc/x86_64-w64-mingw32/5.3.0/../../../../x86_64-w64-mingw32/lib/../lib/libkernel32.a(dqmfs00462.o)
 .bss           0x00000000004836d0        0x0 C:/Program Files/mingw-w64/x86_64-5.3.0-posix-seh-rt_v4-rev0/mingw64/bin/../lib/gcc/x86_64-w64-mingw32/5.3.0/../../../../x86_64-w64-mingw32/lib/../lib/libkernel32.a(dqmfs00249.o)
 .bss           0x00000000004836d0        0x0 C:/Program Files/mingw-w64/x86_64-5.3.0-posix-seh-rt_v4-rev0/mingw64/bin/../lib/gcc/x86_64-w64-mingw32/5.3.0/../../../../x86_64-w64-mingw32/lib/../lib/libkernel32.a(dqmfs00216.o)
 .bss           0x00000000004836d0        0x0 C:/Program Files/mingw-w64/x86_64-5.3.0-posix-seh-rt_v4-rev0/mingw64/bin/../lib/gcc/x86_64-w64-mingw32/5.3.0/../../../../x86_64-w64-mingw32/lib/../lib/libkernel32.a(dqmfh.o)
 .bss           0x00000000004836d0        0x0 C:/Program Files/mingw-w64/x86_64-5.3.0-posix-seh-rt_v4-rev0/mingw64/bin/../lib/gcc/x86_64-w64-mingw32/5.3.0/../../../../x86_64-w64-mingw32/lib/../lib/libkernel32.a(dqmft.o)
 .bss           0x00000000004836d0        0x0 C:/Program Files/mingw-w64/x86_64-5.3.0-posix-seh-rt_v4-rev0/mingw64/bin/../lib/gcc/x86_64-w64-mingw32/5.3.0/crtend.o
 *(COMMON)
 COMMON         0x00000000004836d0       0x10 C:/Program Files/mingw-w64/x86_64-5.3.0-posix-seh-rt_v4-rev0/mingw64/bin/../lib/gcc/x86_64-w64-mingw32/5.3.0/../../../../x86_64-w64-mingw32/lib/../lib/crt2.o
                0x00000000004836d0                __mingw_winmain_lpCmdLine
                0x00000000004836d8                __mingw_winmain_hInstance
 COMMON         0x00000000004836e0        0x2 MinGW-w64R/main.o
                0x00000000004836e0                decoflags
                0x00000000004836e1                broadflags
 *fill*         0x00000000004836e2       0x1e 
 COMMON         0x0000000000483700      0x428 MinGW-w64R/assemble.o
                0x0000000000483700                LinnumQueue
                0x0000000000483710                Parse_Pass
                0x0000000000483714                write_to_file
                0x0000000000483720                jmpenv
                0x0000000000483820                ModuleInfo
 *fill*         0x0000000000483b28       0x18 
 COMMON         0x0000000000483b40      0x160 MinGW-w64R/assume.o
                0x0000000000483b40                SegAssumeTable
                0x0000000000483ba0                StdAssumeTable
 COMMON         0x0000000000483ca0        0x4 MinGW-w64R/condasm.o
                0x0000000000483ca0                CurrIfState
 *fill*         0x0000000000483ca4        0x4 
 COMMON         0x0000000000483ca8       0x10 MinGW-w64R/cpumodel.o
                0x0000000000483ca8                sym_Cpu
                0x0000000000483cb0                sym_Interface
 COMMON         0x0000000000483cb8        0x8 MinGW-w64R/expans.o
                0x0000000000483cb8                MacroLevel
                0x0000000000483cbc                MacroLocals
 COMMON         0x0000000000483cc0       0x11 MinGW-w64R/fastpass.o
                0x0000000000483cc0                UseSavedState
                0x0000000000483cc8                LineStoreCurr
                0x0000000000483cd0                StoreState
 *fill*         0x0000000000483cd1        0x3 
 COMMON         0x0000000000483cd4        0x4 MinGW-w64R/fixup.o
                0x0000000000483cd4                Frame_Type
                0x0000000000483cd6                Frame_Datum
 COMMON         0x0000000000483cd8       0x20 MinGW-w64R/input.o
                0x0000000000483cd8                FileCur
                0x0000000000483ce0                token_stringbuf
                0x0000000000483ce8                LineCur
                0x0000000000483cf0                commentbuffer
 COMMON         0x0000000000483cf8        0x4 MinGW-w64R/listing.o
                0x0000000000483cf8                list_pos
 COMMON         0x0000000000483cfc        0x4 MinGW-w64R/omf.o
                0x0000000000483cfc                LastCodeBufSize
 COMMON         0x0000000000483d00       0x80 MinGW-w64R/parser.o
                0x0000000000483d00                SegOverride
                0x0000000000483d20                SymTables
 COMMON         0x0000000000483d80       0x24 MinGW-w64R/proc.o
                0x0000000000483d80                StackAdjHigh
                0x0000000000483d84                StackAdj
                0x0000000000483d88                sym_ReservedStack
                0x0000000000483d90                procidx
                0x0000000000483d98                CurrProc
                0x0000000000483da0                ProcStatus
 *fill*         0x0000000000483da4        0x4 
 COMMON         0x0000000000483da8        0x8 MinGW-w64R/segment.o
                0x0000000000483da8                symCurSeg
 COMMON         0x0000000000483db0        0x8 MinGW-w64R/symbols.o
                0x0000000000483db0                SymCmpFunc
 COMMON         0x0000000000483db8        0x8 MinGW-w64R/types.o
                0x0000000000483db8                CurrStruct
 COMMON         0x0000000000483dc0       0x10 C:/Program Files/mingw-w64/x86_64-5.3.0-posix-seh-rt_v4-rev0/mingw64/bin/../lib/gcc/x86_64-w64-mingw32/5.3.0/../../../../x86_64-w64-mingw32/lib/../lib/libmingw32.a(lib64_libmingw32_a-atonexit.o)
                0x0000000000483dc0                __onexitbegin
                0x0000000000483dc8                __onexitend
 COMMON         0x0000000000483dd0       0x10 C:/Program Files/mingw-w64/x86_64-5.3.0-posix-seh-rt_v4-rev0/mingw64/bin/../lib/gcc/x86_64-w64-mingw32/5.3.0/../../../../x86_64-w64-mingw32/lib/../lib/libmingw32.a(lib64_libmingw32_a-natstart.o)
                0x0000000000483dd0                __native_startup_state
                0x0000000000483dd8                __native_startup_lock
 COMMON         0x0000000000483de0       0x20 C:/Program Files/mingw-w64/x86_64-5.3.0-posix-seh-rt_v4-rev0/mingw64/bin/../lib/gcc/x86_64-w64-mingw32/5.3.0/libgcc.a(_ctors.o)
 COMMON         0x0000000000483e00      0x100 C:/Program Files/mingw-w64/x86_64-5.3.0-posix-seh-rt_v4-rev0/mingw64/bin/../lib/gcc/x86_64-w64-mingw32/5.3.0/../../../../x86_64-w64-mingw32/lib/../lib/libmingwex.a(lib64_libmingwex_a-hd_init.o)
                0x0000000000483e00                __hexdig_D2A
                0x0000000000483f00                __bss_end__ = .

.edata
 *(.edata)

/DISCARD/
 *(.debug$S)
 *(.debug$T)
 *(.debug$F)
 *(.drectve)
 *(.note.GNU-stack)
 *(.gnu.lto_*)

.idata          0x0000000000484000      0xe00
 SORT(*)(.idata$2)
 .idata$2       0x0000000000484000       0x14 C:/Program Files/mingw-w64/x86_64-5.3.0-posix-seh-rt_v4-rev0/mingw64/bin/../lib/gcc/x86_64-w64-mingw32/5.3.0/../../../../x86_64-w64-mingw32/lib/../lib/libkernel32.a(dqmfh.o)
                0x0000000000484000                _head_lib64_libkernel32_a
 .idata$2       0x0000000000484014       0x14 C:/Program Files/mingw-w64/x86_64-5.3.0-posix-seh-rt_v4-rev0/mingw64/bin/../lib/gcc/x86_64-w64-mingw32/5.3.0/../../../../x86_64-w64-mingw32/lib/../lib/libmsvcrt.a(dkpfh.o)
                0x0000000000484014                _head_lib64_libmsvcrt_a
 SORT(*)(.idata$3)
                0x0000000000484028        0x4 LONG 0x0
                0x000000000048402c        0x4 LONG 0x0
                0x0000000000484030        0x4 LONG 0x0
                0x0000000000484034        0x4 LONG 0x0
                0x0000000000484038        0x4 LONG 0x0
 SORT(*)(.idata$4)
 .idata$4       0x000000000048403c        0x0 C:/Program Files/mingw-w64/x86_64-5.3.0-posix-seh-rt_v4-rev0/mingw64/bin/../lib/gcc/x86_64-w64-mingw32/5.3.0/../../../../x86_64-w64-mingw32/lib/../lib/libkernel32.a(dqmfh.o)
 .idata$4       0x000000000048403c        0x8 C:/Program Files/mingw-w64/x86_64-5.3.0-posix-seh-rt_v4-rev0/mingw64/bin/../lib/gcc/x86_64-w64-mingw32/5.3.0/../../../../x86_64-w64-mingw32/lib/../lib/libkernel32.a(dqmfs00216.o)
 .idata$4       0x0000000000484044        0x8 C:/Program Files/mingw-w64/x86_64-5.3.0-posix-seh-rt_v4-rev0/mingw64/bin/../lib/gcc/x86_64-w64-mingw32/5.3.0/../../../../x86_64-w64-mingw32/lib/../lib/libkernel32.a(dqmfs00249.o)
 .idata$4       0x000000000048404c        0x8 C:/Program Files/mingw-w64/x86_64-5.3.0-posix-seh-rt_v4-rev0/mingw64/bin/../lib/gcc/x86_64-w64-mingw32/5.3.0/../../../../x86_64-w64-mingw32/lib/../lib/libkernel32.a(dqmfs00462.o)
 .idata$4       0x0000000000484054        0x8 C:/Program Files/mingw-w64/x86_64-5.3.0-posix-seh-rt_v4-rev0/mingw64/bin/../lib/gcc/x86_64-w64-mingw32/5.3.0/../../../../x86_64-w64-mingw32/lib/../lib/libkernel32.a(dqmfs00463.o)
 .idata$4       0x000000000048405c        0x8 C:/Program Files/mingw-w64/x86_64-5.3.0-posix-seh-rt_v4-rev0/mingw64/bin/../lib/gcc/x86_64-w64-mingw32/5.3.0/../../../../x86_64-w64-mingw32/lib/../lib/libkernel32.a(dqmfs00467.o)
 .idata$4       0x0000000000484064        0x8 C:/Program Files/mingw-w64/x86_64-5.3.0-posix-seh-rt_v4-rev0/mingw64/bin/../lib/gcc/x86_64-w64-mingw32/5.3.0/../../../../x86_64-w64-mingw32/lib/../lib/libkernel32.a(dqmfs00529.o)
 .idata$4       0x000000000048406c        0x8 C:/Program Files/mingw-w64/x86_64-5.3.0-posix-seh-rt_v4-rev0/mingw64/bin/../lib/gcc/x86_64-w64-mingw32/5.3.0/../../../../x86_64-w64-mingw32/lib/../lib/libkernel32.a(dqmfs00549.o)
 .idata$4       0x0000000000484074        0x8 C:/Program Files/mingw-w64/x86_64-5.3.0-posix-seh-rt_v4-rev0/mingw64/bin/../lib/gcc/x86_64-w64-mingw32/5.3.0/../../../../x86_64-w64-mingw32/lib/../lib/libkernel32.a(dqmfs00599.o)
 .idata$4       0x000000000048407c        0x8 C:/Program Files/mingw-w64/x86_64-5.3.0-posix-seh-rt_v4-rev0/mingw64/bin/../lib/gcc/x86_64-w64-mingw32/5.3.0/../../../../x86_64-w64-mingw32/lib/../lib/libkernel32.a(dqmfs00628.o)
 .idata$4       0x0000000000484084        0x8 C:/Program Files/mingw-w64/x86_64-5.3.0-posix-seh-rt_v4-rev0/mingw64/bin/../lib/gcc/x86_64-w64-mingw32/5.3.0/../../../../x86_64-w64-mingw32/lib/../lib/libkernel32.a(dqmfs00651.o)
 .idata$4       0x000000000048408c        0x8 C:/Program Files/mingw-w64/x86_64-5.3.0-posix-seh-rt_v4-rev0/mingw64/bin/../lib/gcc/x86_64-w64-mingw32/5.3.0/../../../../x86_64-w64-mingw32/lib/../lib/libkernel32.a(dqmfs00678.o)
 .idata$4       0x0000000000484094        0x8 C:/Program Files/mingw-w64/x86_64-5.3.0-posix-seh-rt_v4-rev0/mingw64/bin/../lib/gcc/x86_64-w64-mingw32/5.3.0/../../../../x86_64-w64-mingw32/lib/../lib/libkernel32.a(dqmfs00762.o)
 .idata$4       0x000000000048409c        0x8 C:/Program Files/mingw-w64/x86_64-5.3.0-posix-seh-rt_v4-rev0/mingw64/bin/../lib/gcc/x86_64-w64-mingw32/5.3.0/../../../../x86_64-w64-mingw32/lib/../lib/libkernel32.a(dqmfs00844.o)
 .idata$4       0x00000000004840a4        0x8 C:/Program Files/mingw-w64/x86_64-5.3.0-posix-seh-rt_v4-rev0/mingw64/bin/../lib/gcc/x86_64-w64-mingw32/5.3.0/../../../../x86_64-w64-mingw32/lib/../lib/libkernel32.a(dqmfs00958.o)
 .idata$4       0x00000000004840ac        0x8 C:/Program Files/mingw-w64/x86_64-5.3.0-posix-seh-rt_v4-rev0/mingw64/bin/../lib/gcc/x86_64-w64-mingw32/5.3.0/../../../../x86_64-w64-mingw32/lib/../lib/libkernel32.a(dqmfs01029.o)
 .idata$4       0x00000000004840b4        0x8 C:/Program Files/mingw-w64/x86_64-5.3.0-posix-seh-rt_v4-rev0/mingw64/bin/../lib/gcc/x86_64-w64-mingw32/5.3.0/../../../../x86_64-w64-mingw32/lib/../lib/libkernel32.a(dqmfs01030.o)
 .idata$4       0x00000000004840bc        0x8 C:/Program Files/mingw-w64/x86_64-5.3.0-posix-seh-rt_v4-rev0/mingw64/bin/../lib/gcc/x86_64-w64-mingw32/5.3.0/../../../../x86_64-w64-mingw32/lib/../lib/libkernel32.a(dqmfs01037.o)
 .idata$4       0x00000000004840c4        0x8 C:/Program Files/mingw-w64/x86_64-5.3.0-posix-seh-rt_v4-rev0/mingw64/bin/../lib/gcc/x86_64-w64-mingw32/5.3.0/../../../../x86_64-w64-mingw32/lib/../lib/libkernel32.a(dqmfs01044.o)
 .idata$4       0x00000000004840cc        0x8 C:/Program Files/mingw-w64/x86_64-5.3.0-posix-seh-rt_v4-rev0/mingw64/bin/../lib/gcc/x86_64-w64-mingw32/5.3.0/../../../../x86_64-w64-mingw32/lib/../lib/libkernel32.a(dqmfs01187.o)
 .idata$4       0x00000000004840d4        0x8 C:/Program Files/mingw-w64/x86_64-5.3.0-posix-seh-rt_v4-rev0/mingw64/bin/../lib/gcc/x86_64-w64-mingw32/5.3.0/../../../../x86_64-w64-mingw32/lib/../lib/libkernel32.a(dqmfs01200.o)
 .idata$4       0x00000000004840dc        0x8 C:/Program Files/mingw-w64/x86_64-5.3.0-posix-seh-rt_v4-rev0/mingw64/bin/../lib/gcc/x86_64-w64-mingw32/5.3.0/../../../../x86_64-w64-mingw32/lib/../lib/libkernel32.a(dqmfs01214.o)
 .idata$4       0x00000000004840e4        0x8 C:/Program Files/mingw-w64/x86_64-5.3.0-posix-seh-rt_v4-rev0/mingw64/bin/../lib/gcc/x86_64-w64-mingw32/5.3.0/../../../../x86_64-w64-mingw32/lib/../lib/libkernel32.a(dqmfs01221.o)
 .idata$4       0x00000000004840ec        0x8 C:/Program Files/mingw-w64/x86_64-5.3.0-posix-seh-rt_v4-rev0/mingw64/bin/../lib/gcc/x86_64-w64-mingw32/5.3.0/../../../../x86_64-w64-mingw32/lib/../lib/libkernel32.a(dqmfs01234.o)
 .idata$4       0x00000000004840f4        0x8 C:/Program Files/mingw-w64/x86_64-5.3.0-posix-seh-rt_v4-rev0/mingw64/bin/../lib/gcc/x86_64-w64-mingw32/5.3.0/../../../../x86_64-w64-mingw32/lib/../lib/libkernel32.a(dqmfs01258.o)
 .idata$4       0x00000000004840fc        0x8 C:/Program Files/mingw-w64/x86_64-5.3.0-posix-seh-rt_v4-rev0/mingw64/bin/../lib/gcc/x86_64-w64-mingw32/5.3.0/../../../../x86_64-w64-mingw32/lib/../lib/libkernel32.a(dqmfs01261.o)
 .idata$4       0x0000000000484104        0x8 C:/Program Files/mingw-w64/x86_64-5.3.0-posix-seh-rt_v4-rev0/mingw64/bin/../lib/gcc/x86_64-w64-mingw32/5.3.0/../../../../x86_64-w64-mingw32/lib/../lib/libkernel32.a(dqmfs01264.o)
 .idata$4       0x000000000048410c        0x8 C:/Program Files/mingw-w64/x86_64-5.3.0-posix-seh-rt_v4-rev0/mingw64/bin/../lib/gcc/x86_64-w64-mingw32/5.3.0/../../../../x86_64-w64-mingw32/lib/../lib/libkernel32.a(dqmfs01266.o)
 .idata$4       0x0000000000484114        0x8 C:/Program Files/mingw-w64/x86_64-5.3.0-posix-seh-rt_v4-rev0/mingw64/bin/../lib/gcc/x86_64-w64-mingw32/5.3.0/../../../../x86_64-w64-mingw32/lib/../lib/libkernel32.a(dqmft.o)
 .idata$4       0x000000000048411c        0x0 C:/Program Files/mingw-w64/x86_64-5.3.0-posix-seh-rt_v4-rev0/mingw64/bin/../lib/gcc/x86_64-w64-mingw32/5.3.0/../../../../x86_64-w64-mingw32/lib/../lib/libmsvcrt.a(dkpfh.o)
 .idata$4       0x000000000048411c        0x8 C:/Program Files/mingw-w64/x86_64-5.3.0-posix-seh-rt_v4-rev0/mingw64/bin/../lib/gcc/x86_64-w64-mingw32/5.3.0/../../../../x86_64-w64-mingw32/lib/../lib/libmsvcrt.a(dkpfs00055.o)
 .idata$4       0x0000000000484124        0x8 C:/Program Files/mingw-w64/x86_64-5.3.0-posix-seh-rt_v4-rev0/mingw64/bin/../lib/gcc/x86_64-w64-mingw32/5.3.0/../../../../x86_64-w64-mingw32/lib/../lib/libmsvcrt.a(dkpfs00078.o)
 .idata$4       0x000000000048412c        0x8 C:/Program Files/mingw-w64/x86_64-5.3.0-posix-seh-rt_v4-rev0/mingw64/bin/../lib/gcc/x86_64-w64-mingw32/5.3.0/../../../../x86_64-w64-mingw32/lib/../lib/libmsvcrt.a(dkpfs00081.o)
 .idata$4       0x0000000000484134        0x8 C:/Program Files/mingw-w64/x86_64-5.3.0-posix-seh-rt_v4-rev0/mingw64/bin/../lib/gcc/x86_64-w64-mingw32/5.3.0/../../../../x86_64-w64-mingw32/lib/../lib/libmsvcrt.a(dkpfs00082.o)
 .idata$4       0x000000000048413c        0x8 C:/Program Files/mingw-w64/x86_64-5.3.0-posix-seh-rt_v4-rev0/mingw64/bin/../lib/gcc/x86_64-w64-mingw32/5.3.0/../../../../x86_64-w64-mingw32/lib/../lib/libmsvcrt.a(dkpfs00083.o)
 .idata$4       0x0000000000484144        0x8 C:/Program Files/mingw-w64/x86_64-5.3.0-posix-seh-rt_v4-rev0/mingw64/bin/../lib/gcc/x86_64-w64-mingw32/5.3.0/../../../../x86_64-w64-mingw32/lib/../lib/libmsvcrt.a(dkpfs00090.o)
 .idata$4       0x000000000048414c        0x8 C:/Program Files/mingw-w64/x86_64-5.3.0-posix-seh-rt_v4-rev0/mingw64/bin/../lib/gcc/x86_64-w64-mingw32/5.3.0/../../../../x86_64-w64-mingw32/lib/../lib/libmsvcrt.a(dkpfs00096.o)
 .idata$4       0x0000000000484154        0x8 C:/Program Files/mingw-w64/x86_64-5.3.0-posix-seh-rt_v4-rev0/mingw64/bin/../lib/gcc/x86_64-w64-mingw32/5.3.0/../../../../x86_64-w64-mingw32/lib/../lib/libmsvcrt.a(dkpfs00098.o)
 .idata$4       0x000000000048415c        0x8 C:/Program Files/mingw-w64/x86_64-5.3.0-posix-seh-rt_v4-rev0/mingw64/bin/../lib/gcc/x86_64-w64-mingw32/5.3.0/../../../../x86_64-w64-mingw32/lib/../lib/libmsvcrt.a(dkpfs00115.o)
 .idata$4       0x0000000000484164        0x8 C:/Program Files/mingw-w64/x86_64-5.3.0-posix-seh-rt_v4-rev0/mingw64/bin/../lib/gcc/x86_64-w64-mingw32/5.3.0/../../../../x86_64-w64-mingw32/lib/../lib/libmsvcrt.a(dkpfs00122.o)
 .idata$4       0x000000000048416c        0x8 C:/Program Files/mingw-w64/x86_64-5.3.0-posix-seh-rt_v4-rev0/mingw64/bin/../lib/gcc/x86_64-w64-mingw32/5.3.0/../../../../x86_64-w64-mingw32/lib/../lib/libmsvcrt.a(dkpfs00140.o)
 .idata$4       0x0000000000484174        0x8 C:/Program Files/mingw-w64/x86_64-5.3.0-posix-seh-rt_v4-rev0/mingw64/bin/../lib/gcc/x86_64-w64-mingw32/5.3.0/../../../../x86_64-w64-mingw32/lib/../lib/libmsvcrt.a(dkpfs00149.o)
 .idata$4       0x000000000048417c        0x8 C:/Program Files/mingw-w64/x86_64-5.3.0-posix-seh-rt_v4-rev0/mingw64/bin/../lib/gcc/x86_64-w64-mingw32/5.3.0/../../../../x86_64-w64-mingw32/lib/../lib/libmsvcrt.a(dkpfs00201.o)
 .idata$4       0x0000000000484184        0x8 C:/Program Files/mingw-w64/x86_64-5.3.0-posix-seh-rt_v4-rev0/mingw64/bin/../lib/gcc/x86_64-w64-mingw32/5.3.0/../../../../x86_64-w64-mingw32/lib/../lib/libmsvcrt.a(dkpfs00234.o)
 .idata$4       0x000000000048418c        0x8 C:/Program Files/mingw-w64/x86_64-5.3.0-posix-seh-rt_v4-rev0/mingw64/bin/../lib/gcc/x86_64-w64-mingw32/5.3.0/../../../../x86_64-w64-mingw32/lib/../lib/libmsvcrt.a(dkpfs00235.o)
 .idata$4       0x0000000000484194        0x8 C:/Program Files/mingw-w64/x86_64-5.3.0-posix-seh-rt_v4-rev0/mingw64/bin/../lib/gcc/x86_64-w64-mingw32/5.3.0/../../../../x86_64-w64-mingw32/lib/../lib/libmsvcrt.a(dkpfs00238.o)
 .idata$4       0x000000000048419c        0x8 C:/Program Files/mingw-w64/x86_64-5.3.0-posix-seh-rt_v4-rev0/mingw64/bin/../lib/gcc/x86_64-w64-mingw32/5.3.0/../../../../x86_64-w64-mingw32/lib/../lib/libmsvcrt.a(dkpfs00242.o)
 .idata$4       0x00000000004841a4        0x8 C:/Program Files/mingw-w64/x86_64-5.3.0-posix-seh-rt_v4-rev0/mingw64/bin/../lib/gcc/x86_64-w64-mingw32/5.3.0/../../../../x86_64-w64-mingw32/lib/../lib/libmsvcrt.a(dkpfs00251.o)
 .idata$4       0x00000000004841ac        0x8 C:/Program Files/mingw-w64/x86_64-5.3.0-posix-seh-rt_v4-rev0/mingw64/bin/../lib/gcc/x86_64-w64-mingw32/5.3.0/../../../../x86_64-w64-mingw32/lib/../lib/libmsvcrt.a(dkpfs00330.o)
 .idata$4       0x00000000004841b4        0x8 C:/Program Files/mingw-w64/x86_64-5.3.0-posix-seh-rt_v4-rev0/mingw64/bin/../lib/gcc/x86_64-w64-mingw32/5.3.0/../../../../x86_64-w64-mingw32/lib/../lib/libmsvcrt.a(dkpfs00438.o)
 .idata$4       0x00000000004841bc        0x8 C:/Program Files/mingw-w64/x86_64-5.3.0-posix-seh-rt_v4-rev0/mingw64/bin/../lib/gcc/x86_64-w64-mingw32/5.3.0/../../../../x86_64-w64-mingw32/lib/../lib/libmsvcrt.a(dkpfs00439.o)
 .idata$4       0x00000000004841c4        0x8 C:/Program Files/mingw-w64/x86_64-5.3.0-posix-seh-rt_v4-rev0/mingw64/bin/../lib/gcc/x86_64-w64-mingw32/5.3.0/../../../../x86_64-w64-mingw32/lib/../lib/libmsvcrt.a(dkpfs00599.o)
 .idata$4       0x00000000004841cc        0x8 C:/Program Files/mingw-w64/x86_64-5.3.0-posix-seh-rt_v4-rev0/mingw64/bin/../lib/gcc/x86_64-w64-mingw32/5.3.0/../../../../x86_64-w64-mingw32/lib/../lib/libmsvcrt.a(dkpfs00611.o)
 .idata$4       0x00000000004841d4        0x8 C:/Program Files/mingw-w64/x86_64-5.3.0-posix-seh-rt_v4-rev0/mingw64/bin/../lib/gcc/x86_64-w64-mingw32/5.3.0/../../../../x86_64-w64-mingw32/lib/../lib/libmsvcrt.a(dkpfs00667.o)
 .idata$4       0x00000000004841dc        0x8 C:/Program Files/mingw-w64/x86_64-5.3.0-posix-seh-rt_v4-rev0/mingw64/bin/../lib/gcc/x86_64-w64-mingw32/5.3.0/../../../../x86_64-w64-mingw32/lib/../lib/libmsvcrt.a(dkpfs00719.o)
 .idata$4       0x00000000004841e4        0x8 C:/Program Files/mingw-w64/x86_64-5.3.0-posix-seh-rt_v4-rev0/mingw64/bin/../lib/gcc/x86_64-w64-mingw32/5.3.0/../../../../x86_64-w64-mingw32/lib/../lib/libmsvcrt.a(dkpfs00731.o)
 .idata$4       0x00000000004841ec        0x8 C:/Program Files/mingw-w64/x86_64-5.3.0-posix-seh-rt_v4-rev0/mingw64/bin/../lib/gcc/x86_64-w64-mingw32/5.3.0/../../../../x86_64-w64-mingw32/lib/../lib/libmsvcrt.a(dkpfs00768.o)
 .idata$4       0x00000000004841f4        0x8 C:/Program Files/mingw-w64/x86_64-5.3.0-posix-seh-rt_v4-rev0/mingw64/bin/../lib/gcc/x86_64-w64-mingw32/5.3.0/../../../../x86_64-w64-mingw32/lib/../lib/libmsvcrt.a(dkpfs00788.o)
 .idata$4       0x00000000004841fc        0x8 C:/Program Files/mingw-w64/x86_64-5.3.0-posix-seh-rt_v4-rev0/mingw64/bin/../lib/gcc/x86_64-w64-mingw32/5.3.0/../../../../x86_64-w64-mingw32/lib/../lib/libmsvcrt.a(dkpfs00819.o)
 .idata$4       0x0000000000484204        0x8 C:/Program Files/mingw-w64/x86_64-5.3.0-posix-seh-rt_v4-rev0/mingw64/bin/../lib/gcc/x86_64-w64-mingw32/5.3.0/../../../../x86_64-w64-mingw32/lib/../lib/libmsvcrt.a(dkpfs01030.o)
 .idata$4       0x000000000048420c        0x8 C:/Program Files/mingw-w64/x86_64-5.3.0-posix-seh-rt_v4-rev0/mingw64/bin/../lib/gcc/x86_64-w64-mingw32/5.3.0/../../../../x86_64-w64-mingw32/lib/../lib/libmsvcrt.a(dkpfs01043.o)
 .idata$4       0x0000000000484214        0x8 C:/Program Files/mingw-w64/x86_64-5.3.0-posix-seh-rt_v4-rev0/mingw64/bin/../lib/gcc/x86_64-w64-mingw32/5.3.0/../../../../x86_64-w64-mingw32/lib/../lib/libmsvcrt.a(dkpfs01047.o)
 .idata$4       0x000000000048421c        0x8 C:/Program Files/mingw-w64/x86_64-5.3.0-posix-seh-rt_v4-rev0/mingw64/bin/../lib/gcc/x86_64-w64-mingw32/5.3.0/../../../../x86_64-w64-mingw32/lib/../lib/libmsvcrt.a(dkpfs01052.o)
 .idata$4       0x0000000000484224        0x8 C:/Program Files/mingw-w64/x86_64-5.3.0-posix-seh-rt_v4-rev0/mingw64/bin/../lib/gcc/x86_64-w64-mingw32/5.3.0/../../../../x86_64-w64-mingw32/lib/../lib/libmsvcrt.a(dkpfs01060.o)
 .idata$4       0x000000000048422c        0x8 C:/Program Files/mingw-w64/x86_64-5.3.0-posix-seh-rt_v4-rev0/mingw64/bin/../lib/gcc/x86_64-w64-mingw32/5.3.0/../../../../x86_64-w64-mingw32/lib/../lib/libmsvcrt.a(dkpfs01064.o)
 .idata$4       0x0000000000484234        0x8 C:/Program Files/mingw-w64/x86_64-5.3.0-posix-seh-rt_v4-rev0/mingw64/bin/../lib/gcc/x86_64-w64-mingw32/5.3.0/../../../../x86_64-w64-mingw32/lib/../lib/libmsvcrt.a(dkpfs01067.o)
 .idata$4       0x000000000048423c        0x8 C:/Program Files/mingw-w64/x86_64-5.3.0-posix-seh-rt_v4-rev0/mingw64/bin/../lib/gcc/x86_64-w64-mingw32/5.3.0/../../../../x86_64-w64-mingw32/lib/../lib/libmsvcrt.a(dkpfs01077.o)
 .idata$4       0x0000000000484244        0x8 C:/Program Files/mingw-w64/x86_64-5.3.0-posix-seh-rt_v4-rev0/mingw64/bin/../lib/gcc/x86_64-w64-mingw32/5.3.0/../../../../x86_64-w64-mingw32/lib/../lib/libmsvcrt.a(dkpfs01079.o)
 .idata$4       0x000000000048424c        0x8 C:/Program Files/mingw-w64/x86_64-5.3.0-posix-seh-rt_v4-rev0/mingw64/bin/../lib/gcc/x86_64-w64-mingw32/5.3.0/../../../../x86_64-w64-mingw32/lib/../lib/libmsvcrt.a(dkpfs01085.o)
 .idata$4       0x0000000000484254        0x8 C:/Program Files/mingw-w64/x86_64-5.3.0-posix-seh-rt_v4-rev0/mingw64/bin/../lib/gcc/x86_64-w64-mingw32/5.3.0/../../../../x86_64-w64-mingw32/lib/../lib/libmsvcrt.a(dkpfs01086.o)
 .idata$4       0x000000000048425c        0x8 C:/Program Files/mingw-w64/x86_64-5.3.0-posix-seh-rt_v4-rev0/mingw64/bin/../lib/gcc/x86_64-w64-mingw32/5.3.0/../../../../x86_64-w64-mingw32/lib/../lib/libmsvcrt.a(dkpfs01092.o)
 .idata$4       0x0000000000484264        0x8 C:/Program Files/mingw-w64/x86_64-5.3.0-posix-seh-rt_v4-rev0/mingw64/bin/../lib/gcc/x86_64-w64-mingw32/5.3.0/../../../../x86_64-w64-mingw32/lib/../lib/libmsvcrt.a(dkpfs01094.o)
 .idata$4       0x000000000048426c        0x8 C:/Program Files/mingw-w64/x86_64-5.3.0-posix-seh-rt_v4-rev0/mingw64/bin/../lib/gcc/x86_64-w64-mingw32/5.3.0/../../../../x86_64-w64-mingw32/lib/../lib/libmsvcrt.a(dkpfs01097.o)
 .idata$4       0x0000000000484274        0x8 C:/Program Files/mingw-w64/x86_64-5.3.0-posix-seh-rt_v4-rev0/mingw64/bin/../lib/gcc/x86_64-w64-mingw32/5.3.0/../../../../x86_64-w64-mingw32/lib/../lib/libmsvcrt.a(dkpfs01100.o)
 .idata$4       0x000000000048427c        0x8 C:/Program Files/mingw-w64/x86_64-5.3.0-posix-seh-rt_v4-rev0/mingw64/bin/../lib/gcc/x86_64-w64-mingw32/5.3.0/../../../../x86_64-w64-mingw32/lib/../lib/libmsvcrt.a(dkpfs01102.o)
 .idata$4       0x0000000000484284        0x8 C:/Program Files/mingw-w64/x86_64-5.3.0-posix-seh-rt_v4-rev0/mingw64/bin/../lib/gcc/x86_64-w64-mingw32/5.3.0/../../../../x86_64-w64-mingw32/lib/../lib/libmsvcrt.a(dkpfs01109.o)
 .idata$4       0x000000000048428c        0x8 C:/Program Files/mingw-w64/x86_64-5.3.0-posix-seh-rt_v4-rev0/mingw64/bin/../lib/gcc/x86_64-w64-mingw32/5.3.0/../../../../x86_64-w64-mingw32/lib/../lib/libmsvcrt.a(dkpfs01110.o)
 .idata$4       0x0000000000484294        0x8 C:/Program Files/mingw-w64/x86_64-5.3.0-posix-seh-rt_v4-rev0/mingw64/bin/../lib/gcc/x86_64-w64-mingw32/5.3.0/../../../../x86_64-w64-mingw32/lib/../lib/libmsvcrt.a(dkpfs01118.o)
 .idata$4       0x000000000048429c        0x8 C:/Program Files/mingw-w64/x86_64-5.3.0-posix-seh-rt_v4-rev0/mingw64/bin/../lib/gcc/x86_64-w64-mingw32/5.3.0/../../../../x86_64-w64-mingw32/lib/../lib/libmsvcrt.a(dkpfs01138.o)
 .idata$4       0x00000000004842a4        0x8 C:/Program Files/mingw-w64/x86_64-5.3.0-posix-seh-rt_v4-rev0/mingw64/bin/../lib/gcc/x86_64-w64-mingw32/5.3.0/../../../../x86_64-w64-mingw32/lib/../lib/libmsvcrt.a(dkpfs01144.o)
 .idata$4       0x00000000004842ac        0x8 C:/Program Files/mingw-w64/x86_64-5.3.0-posix-seh-rt_v4-rev0/mingw64/bin/../lib/gcc/x86_64-w64-mingw32/5.3.0/../../../../x86_64-w64-mingw32/lib/../lib/libmsvcrt.a(dkpfs01145.o)
 .idata$4       0x00000000004842b4        0x8 C:/Program Files/mingw-w64/x86_64-5.3.0-posix-seh-rt_v4-rev0/mingw64/bin/../lib/gcc/x86_64-w64-mingw32/5.3.0/../../../../x86_64-w64-mingw32/lib/../lib/libmsvcrt.a(dkpfs01152.o)
 .idata$4       0x00000000004842bc        0x8 C:/Program Files/mingw-w64/x86_64-5.3.0-posix-seh-rt_v4-rev0/mingw64/bin/../lib/gcc/x86_64-w64-mingw32/5.3.0/../../../../x86_64-w64-mingw32/lib/../lib/libmsvcrt.a(dkpfs01153.o)
 .idata$4       0x00000000004842c4        0x8 C:/Program Files/mingw-w64/x86_64-5.3.0-posix-seh-rt_v4-rev0/mingw64/bin/../lib/gcc/x86_64-w64-mingw32/5.3.0/../../../../x86_64-w64-mingw32/lib/../lib/libmsvcrt.a(dkpfs01154.o)
 .idata$4       0x00000000004842cc        0x8 C:/Program Files/mingw-w64/x86_64-5.3.0-posix-seh-rt_v4-rev0/mingw64/bin/../lib/gcc/x86_64-w64-mingw32/5.3.0/../../../../x86_64-w64-mingw32/lib/../lib/libmsvcrt.a(dkpfs01155.o)
 .idata$4       0x00000000004842d4        0x8 C:/Program Files/mingw-w64/x86_64-5.3.0-posix-seh-rt_v4-rev0/mingw64/bin/../lib/gcc/x86_64-w64-mingw32/5.3.0/../../../../x86_64-w64-mingw32/lib/../lib/libmsvcrt.a(dkpfs01162.o)
 .idata$4       0x00000000004842dc        0x8 C:/Program Files/mingw-w64/x86_64-5.3.0-posix-seh-rt_v4-rev0/mingw64/bin/../lib/gcc/x86_64-w64-mingw32/5.3.0/../../../../x86_64-w64-mingw32/lib/../lib/libmsvcrt.a(dkpfs01165.o)
 .idata$4       0x00000000004842e4        0x8 C:/Program Files/mingw-w64/x86_64-5.3.0-posix-seh-rt_v4-rev0/mingw64/bin/../lib/gcc/x86_64-w64-mingw32/5.3.0/../../../../x86_64-w64-mingw32/lib/../lib/libmsvcrt.a(dkpfs01166.o)
 .idata$4       0x00000000004842ec        0x8 C:/Program Files/mingw-w64/x86_64-5.3.0-posix-seh-rt_v4-rev0/mingw64/bin/../lib/gcc/x86_64-w64-mingw32/5.3.0/../../../../x86_64-w64-mingw32/lib/../lib/libmsvcrt.a(dkpfs01169.o)
 .idata$4       0x00000000004842f4        0x8 C:/Program Files/mingw-w64/x86_64-5.3.0-posix-seh-rt_v4-rev0/mingw64/bin/../lib/gcc/x86_64-w64-mingw32/5.3.0/../../../../x86_64-w64-mingw32/lib/../lib/libmsvcrt.a(dkpfs01174.o)
 .idata$4       0x00000000004842fc        0x8 C:/Program Files/mingw-w64/x86_64-5.3.0-posix-seh-rt_v4-rev0/mingw64/bin/../lib/gcc/x86_64-w64-mingw32/5.3.0/../../../../x86_64-w64-mingw32/lib/../lib/libmsvcrt.a(dkpfs01176.o)
 .idata$4       0x0000000000484304        0x8 C:/Program Files/mingw-w64/x86_64-5.3.0-posix-seh-rt_v4-rev0/mingw64/bin/../lib/gcc/x86_64-w64-mingw32/5.3.0/../../../../x86_64-w64-mingw32/lib/../lib/libmsvcrt.a(dkpfs01183.o)
 .idata$4       0x000000000048430c        0x8 C:/Program Files/mingw-w64/x86_64-5.3.0-posix-seh-rt_v4-rev0/mingw64/bin/../lib/gcc/x86_64-w64-mingw32/5.3.0/../../../../x86_64-w64-mingw32/lib/../lib/libmsvcrt.a(dkpfs01188.o)
 .idata$4       0x0000000000484314        0x8 C:/Program Files/mingw-w64/x86_64-5.3.0-posix-seh-rt_v4-rev0/mingw64/bin/../lib/gcc/x86_64-w64-mingw32/5.3.0/../../../../x86_64-w64-mingw32/lib/../lib/libmsvcrt.a(dkpfs01194.o)
 .idata$4       0x000000000048431c        0x8 C:/Program Files/mingw-w64/x86_64-5.3.0-posix-seh-rt_v4-rev0/mingw64/bin/../lib/gcc/x86_64-w64-mingw32/5.3.0/../../../../x86_64-w64-mingw32/lib/../lib/libmsvcrt.a(dkpfs01196.o)
 .idata$4       0x0000000000484324        0x8 C:/Program Files/mingw-w64/x86_64-5.3.0-posix-seh-rt_v4-rev0/mingw64/bin/../lib/gcc/x86_64-w64-mingw32/5.3.0/../../../../x86_64-w64-mingw32/lib/../lib/libmsvcrt.a(dkpfs01197.o)
 .idata$4       0x000000000048432c        0x8 C:/Program Files/mingw-w64/x86_64-5.3.0-posix-seh-rt_v4-rev0/mingw64/bin/../lib/gcc/x86_64-w64-mingw32/5.3.0/../../../../x86_64-w64-mingw32/lib/../lib/libmsvcrt.a(dkpfs01199.o)
 .idata$4       0x0000000000484334        0x8 C:/Program Files/mingw-w64/x86_64-5.3.0-posix-seh-rt_v4-rev0/mingw64/bin/../lib/gcc/x86_64-w64-mingw32/5.3.0/../../../../x86_64-w64-mingw32/lib/../lib/libmsvcrt.a(dkpfs01204.o)
 .idata$4       0x000000000048433c        0x8 C:/Program Files/mingw-w64/x86_64-5.3.0-posix-seh-rt_v4-rev0/mingw64/bin/../lib/gcc/x86_64-w64-mingw32/5.3.0/../../../../x86_64-w64-mingw32/lib/../lib/libmsvcrt.a(dkpfs01207.o)
 .idata$4       0x0000000000484344        0x8 C:/Program Files/mingw-w64/x86_64-5.3.0-posix-seh-rt_v4-rev0/mingw64/bin/../lib/gcc/x86_64-w64-mingw32/5.3.0/../../../../x86_64-w64-mingw32/lib/../lib/libmsvcrt.a(dkpfs01208.o)
 .idata$4       0x000000000048434c        0x8 C:/Program Files/mingw-w64/x86_64-5.3.0-posix-seh-rt_v4-rev0/mingw64/bin/../lib/gcc/x86_64-w64-mingw32/5.3.0/../../../../x86_64-w64-mingw32/lib/../lib/libmsvcrt.a(dkpfs01215.o)
 .idata$4       0x0000000000484354        0x8 C:/Program Files/mingw-w64/x86_64-5.3.0-posix-seh-rt_v4-rev0/mingw64/bin/../lib/gcc/x86_64-w64-mingw32/5.3.0/../../../../x86_64-w64-mingw32/lib/../lib/libmsvcrt.a(dkpfs01233.o)
 .idata$4       0x000000000048435c        0x8 C:/Program Files/mingw-w64/x86_64-5.3.0-posix-seh-rt_v4-rev0/mingw64/bin/../lib/gcc/x86_64-w64-mingw32/5.3.0/../../../../x86_64-w64-mingw32/lib/../lib/libmsvcrt.a(dkpfs01239.o)
 .idata$4       0x0000000000484364        0x8 C:/Program Files/mingw-w64/x86_64-5.3.0-posix-seh-rt_v4-rev0/mingw64/bin/../lib/gcc/x86_64-w64-mingw32/5.3.0/../../../../x86_64-w64-mingw32/lib/../lib/libmsvcrt.a(dkpfs01245.o)
 .idata$4       0x000000000048436c        0x8 C:/Program Files/mingw-w64/x86_64-5.3.0-posix-seh-rt_v4-rev0/mingw64/bin/../lib/gcc/x86_64-w64-mingw32/5.3.0/../../../../x86_64-w64-mingw32/lib/../lib/libmsvcrt.a(dkpft.o)
                0x0000000000484374                __IAT_start__ = .
 SORT(*)(.idata$5)
 .idata$5       0x0000000000484374        0x0 C:/Program Files/mingw-w64/x86_64-5.3.0-posix-seh-rt_v4-rev0/mingw64/bin/../lib/gcc/x86_64-w64-mingw32/5.3.0/../../../../x86_64-w64-mingw32/lib/../lib/libkernel32.a(dqmfh.o)
 .idata$5       0x0000000000484374        0x8 C:/Program Files/mingw-w64/x86_64-5.3.0-posix-seh-rt_v4-rev0/mingw64/bin/../lib/gcc/x86_64-w64-mingw32/5.3.0/../../../../x86_64-w64-mingw32/lib/../lib/libkernel32.a(dqmfs00216.o)
                0x0000000000484374                __imp_DeleteCriticalSection
 .idata$5       0x000000000048437c        0x8 C:/Program Files/mingw-w64/x86_64-5.3.0-posix-seh-rt_v4-rev0/mingw64/bin/../lib/gcc/x86_64-w64-mingw32/5.3.0/../../../../x86_64-w64-mingw32/lib/../lib/libkernel32.a(dqmfs00249.o)
                0x000000000048437c                __imp_EnterCriticalSection
 .idata$5       0x0000000000484384        0x8 C:/Program Files/mingw-w64/x86_64-5.3.0-posix-seh-rt_v4-rev0/mingw64/bin/../lib/gcc/x86_64-w64-mingw32/5.3.0/../../../../x86_64-w64-mingw32/lib/../lib/libkernel32.a(dqmfs00462.o)
                0x0000000000484384                __imp_GetCurrentProcess
 .idata$5       0x000000000048438c        0x8 C:/Program Files/mingw-w64/x86_64-5.3.0-posix-seh-rt_v4-rev0/mingw64/bin/../lib/gcc/x86_64-w64-mingw32/5.3.0/../../../../x86_64-w64-mingw32/lib/../lib/libkernel32.a(dqmfs00463.o)
                0x000000000048438c                __imp_GetCurrentProcessId
 .idata$5       0x0000000000484394        0x8 C:/Program Files/mingw-w64/x86_64-5.3.0-posix-seh-rt_v4-rev0/mingw64/bin/../lib/gcc/x86_64-w64-mingw32/5.3.0/../../../../x86_64-w64-mingw32/lib/../lib/libkernel32.a(dqmfs00467.o)
                0x0000000000484394                __imp_GetCurrentThreadId
 .idata$5       0x000000000048439c        0x8 C:/Program Files/mingw-w64/x86_64-5.3.0-posix-seh-rt_v4-rev0/mingw64/bin/../lib/gcc/x86_64-w64-mingw32/5.3.0/../../../../x86_64-w64-mingw32/lib/../lib/libkernel32.a(dqmfs00529.o)
                0x000000000048439c                __imp_GetLastError
 .idata$5       0x00000000004843a4        0x8 C:/Program Files/mingw-w64/x86_64-5.3.0-posix-seh-rt_v4-rev0/mingw64/bin/../lib/gcc/x86_64-w64-mingw32/5.3.0/../../../../x86_64-w64-mingw32/lib/../lib/libkernel32.a(dqmfs00549.o)
                0x00000000004843a4                __imp_GetModuleHandleA
 .idata$5       0x00000000004843ac        0x8 C:/Program Files/mingw-w64/x86_64-5.3.0-posix-seh-rt_v4-rev0/mingw64/bin/../lib/gcc/x86_64-w64-mingw32/5.3.0/../../../../x86_64-w64-mingw32/lib/../lib/libkernel32.a(dqmfs00599.o)
                0x00000000004843ac                __imp_GetProcAddress
 .idata$5       0x00000000004843b4        0x8 C:/Program Files/mingw-w64/x86_64-5.3.0-posix-seh-rt_v4-rev0/mingw64/bin/../lib/gcc/x86_64-w64-mingw32/5.3.0/../../../../x86_64-w64-mingw32/lib/../lib/libkernel32.a(dqmfs00628.o)
                0x00000000004843b4                __imp_GetStartupInfoA
 .idata$5       0x00000000004843bc        0x8 C:/Program Files/mingw-w64/x86_64-5.3.0-posix-seh-rt_v4-rev0/mingw64/bin/../lib/gcc/x86_64-w64-mingw32/5.3.0/../../../../x86_64-w64-mingw32/lib/../lib/libkernel32.a(dqmfs00651.o)
                0x00000000004843bc                __imp_GetSystemTimeAsFileTime
 .idata$5       0x00000000004843c4        0x8 C:/Program Files/mingw-w64/x86_64-5.3.0-posix-seh-rt_v4-rev0/mingw64/bin/../lib/gcc/x86_64-w64-mingw32/5.3.0/../../../../x86_64-w64-mingw32/lib/../lib/libkernel32.a(dqmfs00678.o)
                0x00000000004843c4                __imp_GetTickCount
 .idata$5       0x00000000004843cc        0x8 C:/Program Files/mingw-w64/x86_64-5.3.0-posix-seh-rt_v4-rev0/mingw64/bin/../lib/gcc/x86_64-w64-mingw32/5.3.0/../../../../x86_64-w64-mingw32/lib/../lib/libkernel32.a(dqmfs00762.o)
                0x00000000004843cc                __imp_InitializeCriticalSection
 .idata$5       0x00000000004843d4        0x8 C:/Program Files/mingw-w64/x86_64-5.3.0-posix-seh-rt_v4-rev0/mingw64/bin/../lib/gcc/x86_64-w64-mingw32/5.3.0/../../../../x86_64-w64-mingw32/lib/../lib/libkernel32.a(dqmfs00844.o)
                0x00000000004843d4                __imp_LeaveCriticalSection
 .idata$5       0x00000000004843dc        0x8 C:/Program Files/mingw-w64/x86_64-5.3.0-posix-seh-rt_v4-rev0/mingw64/bin/../lib/gcc/x86_64-w64-mingw32/5.3.0/../../../../x86_64-w64-mingw32/lib/../lib/libkernel32.a(dqmfs00958.o)
                0x00000000004843dc                __imp_QueryPerformanceCounter
 .idata$5       0x00000000004843e4        0x8 C:/Program Files/mingw-w64/x86_64-5.3.0-posix-seh-rt_v4-rev0/mingw64/bin/../lib/gcc/x86_64-w64-mingw32/5.3.0/../../../../x86_64-w64-mingw32/lib/../lib/libkernel32.a(dqmfs01029.o)
                0x00000000004843e4                __imp_RtlAddFunctionTable
 .idata$5       0x00000000004843ec        0x8 C:/Program Files/mingw-w64/x86_64-5.3.0-posix-seh-rt_v4-rev0/mingw64/bin/../lib/gcc/x86_64-w64-mingw32/5.3.0/../../../../x86_64-w64-mingw32/lib/../lib/libkernel32.a(dqmfs01030.o)
                0x00000000004843ec                __imp_RtlCaptureContext
 .idata$5       0x00000000004843f4        0x8 C:/Program Files/mingw-w64/x86_64-5.3.0-posix-seh-rt_v4-rev0/mingw64/bin/../lib/gcc/x86_64-w64-mingw32/5.3.0/../../../../x86_64-w64-mingw32/lib/../lib/libkernel32.a(dqmfs01037.o)
                0x00000000004843f4                __imp_RtlLookupFunctionEntry
 .idata$5       0x00000000004843fc        0x8 C:/Program Files/mingw-w64/x86_64-5.3.0-posix-seh-rt_v4-rev0/mingw64/bin/../lib/gcc/x86_64-w64-mingw32/5.3.0/../../../../x86_64-w64-mingw32/lib/../lib/libkernel32.a(dqmfs01044.o)
                0x00000000004843fc                __imp_RtlVirtualUnwind
 .idata$5       0x0000000000484404        0x8 C:/Program Files/mingw-w64/x86_64-5.3.0-posix-seh-rt_v4-rev0/mingw64/bin/../lib/gcc/x86_64-w64-mingw32/5.3.0/../../../../x86_64-w64-mingw32/lib/../lib/libkernel32.a(dqmfs01187.o)
                0x0000000000484404                __imp_SetUnhandledExceptionFilter
 .idata$5       0x000000000048440c        0x8 C:/Program Files/mingw-w64/x86_64-5.3.0-posix-seh-rt_v4-rev0/mingw64/bin/../lib/gcc/x86_64-w64-mingw32/5.3.0/../../../../x86_64-w64-mingw32/lib/../lib/libkernel32.a(dqmfs01200.o)
                0x000000000048440c                __imp_Sleep
 .idata$5       0x0000000000484414        0x8 C:/Program Files/mingw-w64/x86_64-5.3.0-posix-seh-rt_v4-rev0/mingw64/bin/../lib/gcc/x86_64-w64-mingw32/5.3.0/../../../../x86_64-w64-mingw32/lib/../lib/libkernel32.a(dqmfs01214.o)
                0x0000000000484414                __imp_TerminateProcess
 .idata$5       0x000000000048441c        0x8 C:/Program Files/mingw-w64/x86_64-5.3.0-posix-seh-rt_v4-rev0/mingw64/bin/../lib/gcc/x86_64-w64-mingw32/5.3.0/../../../../x86_64-w64-mingw32/lib/../lib/libkernel32.a(dqmfs01221.o)
                0x000000000048441c                __imp_TlsGetValue
 .idata$5       0x0000000000484424        0x8 C:/Program Files/mingw-w64/x86_64-5.3.0-posix-seh-rt_v4-rev0/mingw64/bin/../lib/gcc/x86_64-w64-mingw32/5.3.0/../../../../x86_64-w64-mingw32/lib/../lib/libkernel32.a(dqmfs01234.o)
                0x0000000000484424                __imp_UnhandledExceptionFilter
 .idata$5       0x000000000048442c        0x8 C:/Program Files/mingw-w64/x86_64-5.3.0-posix-seh-rt_v4-rev0/mingw64/bin/../lib/gcc/x86_64-w64-mingw32/5.3.0/../../../../x86_64-w64-mingw32/lib/../lib/libkernel32.a(dqmfs01258.o)
                0x000000000048442c                __imp_VirtualAlloc
 .idata$5       0x0000000000484434        0x8 C:/Program Files/mingw-w64/x86_64-5.3.0-posix-seh-rt_v4-rev0/mingw64/bin/../lib/gcc/x86_64-w64-mingw32/5.3.0/../../../../x86_64-w64-mingw32/lib/../lib/libkernel32.a(dqmfs01261.o)
                0x0000000000484434                __imp_VirtualFree
 .idata$5       0x000000000048443c        0x8 C:/Program Files/mingw-w64/x86_64-5.3.0-posix-seh-rt_v4-rev0/mingw64/bin/../lib/gcc/x86_64-w64-mingw32/5.3.0/../../../../x86_64-w64-mingw32/lib/../lib/libkernel32.a(dqmfs01264.o)
                0x000000000048443c                __imp_VirtualProtect
 .idata$5       0x0000000000484444        0x8 C:/Program Files/mingw-w64/x86_64-5.3.0-posix-seh-rt_v4-rev0/mingw64/bin/../lib/gcc/x86_64-w64-mingw32/5.3.0/../../../../x86_64-w64-mingw32/lib/../lib/libkernel32.a(dqmfs01266.o)
                0x0000000000484444                __imp_VirtualQuery
 .idata$5       0x000000000048444c        0x8 C:/Program Files/mingw-w64/x86_64-5.3.0-posix-seh-rt_v4-rev0/mingw64/bin/../lib/gcc/x86_64-w64-mingw32/5.3.0/../../../../x86_64-w64-mingw32/lib/../lib/libkernel32.a(dqmft.o)
 .idata$5       0x0000000000484454        0x0 C:/Program Files/mingw-w64/x86_64-5.3.0-posix-seh-rt_v4-rev0/mingw64/bin/../lib/gcc/x86_64-w64-mingw32/5.3.0/../../../../x86_64-w64-mingw32/lib/../lib/libmsvcrt.a(dkpfh.o)
 .idata$5       0x0000000000484454        0x8 C:/Program Files/mingw-w64/x86_64-5.3.0-posix-seh-rt_v4-rev0/mingw64/bin/../lib/gcc/x86_64-w64-mingw32/5.3.0/../../../../x86_64-w64-mingw32/lib/../lib/libmsvcrt.a(dkpfs00055.o)
                0x0000000000484454                __imp___C_specific_handler
 .idata$5       0x000000000048445c        0x8 C:/Program Files/mingw-w64/x86_64-5.3.0-posix-seh-rt_v4-rev0/mingw64/bin/../lib/gcc/x86_64-w64-mingw32/5.3.0/../../../../x86_64-w64-mingw32/lib/../lib/libmsvcrt.a(dkpfs00078.o)
                0x000000000048445c                __imp___dllonexit
 .idata$5       0x0000000000484464        0x8 C:/Program Files/mingw-w64/x86_64-5.3.0-posix-seh-rt_v4-rev0/mingw64/bin/../lib/gcc/x86_64-w64-mingw32/5.3.0/../../../../x86_64-w64-mingw32/lib/../lib/libmsvcrt.a(dkpfs00081.o)
                0x0000000000484464                __imp___getmainargs
 .idata$5       0x000000000048446c        0x8 C:/Program Files/mingw-w64/x86_64-5.3.0-posix-seh-rt_v4-rev0/mingw64/bin/../lib/gcc/x86_64-w64-mingw32/5.3.0/../../../../x86_64-w64-mingw32/lib/../lib/libmsvcrt.a(dkpfs00082.o)
                0x000000000048446c                __imp___initenv
 .idata$5       0x0000000000484474        0x8 C:/Program Files/mingw-w64/x86_64-5.3.0-posix-seh-rt_v4-rev0/mingw64/bin/../lib/gcc/x86_64-w64-mingw32/5.3.0/../../../../x86_64-w64-mingw32/lib/../lib/libmsvcrt.a(dkpfs00083.o)
                0x0000000000484474                __imp___iob_func
 .idata$5       0x000000000048447c        0x8 C:/Program Files/mingw-w64/x86_64-5.3.0-posix-seh-rt_v4-rev0/mingw64/bin/../lib/gcc/x86_64-w64-mingw32/5.3.0/../../../../x86_64-w64-mingw32/lib/../lib/libmsvcrt.a(dkpfs00090.o)
                0x000000000048447c                __imp___lconv_init
 .idata$5       0x0000000000484484        0x8 C:/Program Files/mingw-w64/x86_64-5.3.0-posix-seh-rt_v4-rev0/mingw64/bin/../lib/gcc/x86_64-w64-mingw32/5.3.0/../../../../x86_64-w64-mingw32/lib/../lib/libmsvcrt.a(dkpfs00096.o)
                0x0000000000484484                __imp___set_app_type
 .idata$5       0x000000000048448c        0x8 C:/Program Files/mingw-w64/x86_64-5.3.0-posix-seh-rt_v4-rev0/mingw64/bin/../lib/gcc/x86_64-w64-mingw32/5.3.0/../../../../x86_64-w64-mingw32/lib/../lib/libmsvcrt.a(dkpfs00098.o)
                0x000000000048448c                __imp___setusermatherr
 .idata$5       0x0000000000484494        0x8 C:/Program Files/mingw-w64/x86_64-5.3.0-posix-seh-rt_v4-rev0/mingw64/bin/../lib/gcc/x86_64-w64-mingw32/5.3.0/../../../../x86_64-w64-mingw32/lib/../lib/libmsvcrt.a(dkpfs00115.o)
                0x0000000000484494                __imp__acmdln
 .idata$5       0x000000000048449c        0x8 C:/Program Files/mingw-w64/x86_64-5.3.0-posix-seh-rt_v4-rev0/mingw64/bin/../lib/gcc/x86_64-w64-mingw32/5.3.0/../../../../x86_64-w64-mingw32/lib/../lib/libmsvcrt.a(dkpfs00122.o)
                0x000000000048449c                __imp__amsg_exit
 .idata$5       0x00000000004844a4        0x8 C:/Program Files/mingw-w64/x86_64-5.3.0-posix-seh-rt_v4-rev0/mingw64/bin/../lib/gcc/x86_64-w64-mingw32/5.3.0/../../../../x86_64-w64-mingw32/lib/../lib/libmsvcrt.a(dkpfs00140.o)
                0x00000000004844a4                __imp__cexit
 .idata$5       0x00000000004844ac        0x8 C:/Program Files/mingw-w64/x86_64-5.3.0-posix-seh-rt_v4-rev0/mingw64/bin/../lib/gcc/x86_64-w64-mingw32/5.3.0/../../../../x86_64-w64-mingw32/lib/../lib/libmsvcrt.a(dkpfs00149.o)
                0x00000000004844ac                __imp__chsize
 .idata$5       0x00000000004844b4        0x8 C:/Program Files/mingw-w64/x86_64-5.3.0-posix-seh-rt_v4-rev0/mingw64/bin/../lib/gcc/x86_64-w64-mingw32/5.3.0/../../../../x86_64-w64-mingw32/lib/../lib/libmsvcrt.a(dkpfs00201.o)
                0x00000000004844b4                __imp__errno
 .idata$5       0x00000000004844bc        0x8 C:/Program Files/mingw-w64/x86_64-5.3.0-posix-seh-rt_v4-rev0/mingw64/bin/../lib/gcc/x86_64-w64-mingw32/5.3.0/../../../../x86_64-w64-mingw32/lib/../lib/libmsvcrt.a(dkpfs00234.o)
                0x00000000004844bc                __imp__fileno
 .idata$5       0x00000000004844c4        0x8 C:/Program Files/mingw-w64/x86_64-5.3.0-posix-seh-rt_v4-rev0/mingw64/bin/../lib/gcc/x86_64-w64-mingw32/5.3.0/../../../../x86_64-w64-mingw32/lib/../lib/libmsvcrt.a(dkpfs00235.o)
                0x00000000004844c4                __imp__findclose
 .idata$5       0x00000000004844cc        0x8 C:/Program Files/mingw-w64/x86_64-5.3.0-posix-seh-rt_v4-rev0/mingw64/bin/../lib/gcc/x86_64-w64-mingw32/5.3.0/../../../../x86_64-w64-mingw32/lib/../lib/libmsvcrt.a(dkpfs00238.o)
                0x00000000004844cc                __imp__findfirst64
 .idata$5       0x00000000004844d4        0x8 C:/Program Files/mingw-w64/x86_64-5.3.0-posix-seh-rt_v4-rev0/mingw64/bin/../lib/gcc/x86_64-w64-mingw32/5.3.0/../../../../x86_64-w64-mingw32/lib/../lib/libmsvcrt.a(dkpfs00242.o)
                0x00000000004844d4                __imp__findnext64
 .idata$5       0x00000000004844dc        0x8 C:/Program Files/mingw-w64/x86_64-5.3.0-posix-seh-rt_v4-rev0/mingw64/bin/../lib/gcc/x86_64-w64-mingw32/5.3.0/../../../../x86_64-w64-mingw32/lib/../lib/libmsvcrt.a(dkpfs00251.o)
                0x00000000004844dc                __imp__fmode
 .idata$5       0x00000000004844e4        0x8 C:/Program Files/mingw-w64/x86_64-5.3.0-posix-seh-rt_v4-rev0/mingw64/bin/../lib/gcc/x86_64-w64-mingw32/5.3.0/../../../../x86_64-w64-mingw32/lib/../lib/libmsvcrt.a(dkpfs00330.o)
                0x00000000004844e4                __imp__initterm
 .idata$5       0x00000000004844ec        0x8 C:/Program Files/mingw-w64/x86_64-5.3.0-posix-seh-rt_v4-rev0/mingw64/bin/../lib/gcc/x86_64-w64-mingw32/5.3.0/../../../../x86_64-w64-mingw32/lib/../lib/libmsvcrt.a(dkpfs00438.o)
                0x00000000004844ec                __imp__localtime64
 .idata$5       0x00000000004844f4        0x8 C:/Program Files/mingw-w64/x86_64-5.3.0-posix-seh-rt_v4-rev0/mingw64/bin/../lib/gcc/x86_64-w64-mingw32/5.3.0/../../../../x86_64-w64-mingw32/lib/../lib/libmsvcrt.a(dkpfs00439.o)
                0x00000000004844f4                __imp__lock
 .idata$5       0x00000000004844fc        0x8 C:/Program Files/mingw-w64/x86_64-5.3.0-posix-seh-rt_v4-rev0/mingw64/bin/../lib/gcc/x86_64-w64-mingw32/5.3.0/../../../../x86_64-w64-mingw32/lib/../lib/libmsvcrt.a(dkpfs00599.o)
                0x00000000004844fc                __imp__memicmp
 .idata$5       0x0000000000484504        0x8 C:/Program Files/mingw-w64/x86_64-5.3.0-posix-seh-rt_v4-rev0/mingw64/bin/../lib/gcc/x86_64-w64-mingw32/5.3.0/../../../../x86_64-w64-mingw32/lib/../lib/libmsvcrt.a(dkpfs00611.o)
                0x0000000000484504                __imp__onexit
 .idata$5       0x000000000048450c        0x8 C:/Program Files/mingw-w64/x86_64-5.3.0-posix-seh-rt_v4-rev0/mingw64/bin/../lib/gcc/x86_64-w64-mingw32/5.3.0/../../../../x86_64-w64-mingw32/lib/../lib/libmsvcrt.a(dkpfs00667.o)
                0x000000000048450c                __imp__setjmp
 .idata$5       0x0000000000484514        0x8 C:/Program Files/mingw-w64/x86_64-5.3.0-posix-seh-rt_v4-rev0/mingw64/bin/../lib/gcc/x86_64-w64-mingw32/5.3.0/../../../../x86_64-w64-mingw32/lib/../lib/libmsvcrt.a(dkpfs00719.o)
                0x0000000000484514                __imp__stat64
 .idata$5       0x000000000048451c        0x8 C:/Program Files/mingw-w64/x86_64-5.3.0-posix-seh-rt_v4-rev0/mingw64/bin/../lib/gcc/x86_64-w64-mingw32/5.3.0/../../../../x86_64-w64-mingw32/lib/../lib/libmsvcrt.a(dkpfs00731.o)
                0x000000000048451c                __imp__stricmp
 .idata$5       0x0000000000484524        0x8 C:/Program Files/mingw-w64/x86_64-5.3.0-posix-seh-rt_v4-rev0/mingw64/bin/../lib/gcc/x86_64-w64-mingw32/5.3.0/../../../../x86_64-w64-mingw32/lib/../lib/libmsvcrt.a(dkpfs00768.o)
                0x0000000000484524                __imp__strupr
 .idata$5       0x000000000048452c        0x8 C:/Program Files/mingw-w64/x86_64-5.3.0-posix-seh-rt_v4-rev0/mingw64/bin/../lib/gcc/x86_64-w64-mingw32/5.3.0/../../../../x86_64-w64-mingw32/lib/../lib/libmsvcrt.a(dkpfs00788.o)
                0x000000000048452c                __imp__time64
 .idata$5       0x0000000000484534        0x8 C:/Program Files/mingw-w64/x86_64-5.3.0-posix-seh-rt_v4-rev0/mingw64/bin/../lib/gcc/x86_64-w64-mingw32/5.3.0/../../../../x86_64-w64-mingw32/lib/../lib/libmsvcrt.a(dkpfs00819.o)
                0x0000000000484534                __imp__unlock
 .idata$5       0x000000000048453c        0x8 C:/Program Files/mingw-w64/x86_64-5.3.0-posix-seh-rt_v4-rev0/mingw64/bin/../lib/gcc/x86_64-w64-mingw32/5.3.0/../../../../x86_64-w64-mingw32/lib/../lib/libmsvcrt.a(dkpfs01030.o)
                0x000000000048453c                __imp_abort
 .idata$5       0x0000000000484544        0x8 C:/Program Files/mingw-w64/x86_64-5.3.0-posix-seh-rt_v4-rev0/mingw64/bin/../lib/gcc/x86_64-w64-mingw32/5.3.0/../../../../x86_64-w64-mingw32/lib/../lib/libmsvcrt.a(dkpfs01043.o)
                0x0000000000484544                __imp_atoi
 .idata$5       0x000000000048454c        0x8 C:/Program Files/mingw-w64/x86_64-5.3.0-posix-seh-rt_v4-rev0/mingw64/bin/../lib/gcc/x86_64-w64-mingw32/5.3.0/../../../../x86_64-w64-mingw32/lib/../lib/libmsvcrt.a(dkpfs01047.o)
                0x000000000048454c                __imp_calloc
 .idata$5       0x0000000000484554        0x8 C:/Program Files/mingw-w64/x86_64-5.3.0-posix-seh-rt_v4-rev0/mingw64/bin/../lib/gcc/x86_64-w64-mingw32/5.3.0/../../../../x86_64-w64-mingw32/lib/../lib/libmsvcrt.a(dkpfs01052.o)
                0x0000000000484554                __imp_clock
 .idata$5       0x000000000048455c        0x8 C:/Program Files/mingw-w64/x86_64-5.3.0-posix-seh-rt_v4-rev0/mingw64/bin/../lib/gcc/x86_64-w64-mingw32/5.3.0/../../../../x86_64-w64-mingw32/lib/../lib/libmsvcrt.a(dkpfs01060.o)
                0x000000000048455c                __imp_exit
 .idata$5       0x0000000000484564        0x8 C:/Program Files/mingw-w64/x86_64-5.3.0-posix-seh-rt_v4-rev0/mingw64/bin/../lib/gcc/x86_64-w64-mingw32/5.3.0/../../../../x86_64-w64-mingw32/lib/../lib/libmsvcrt.a(dkpfs01064.o)
                0x0000000000484564                __imp_fclose
 .idata$5       0x000000000048456c        0x8 C:/Program Files/mingw-w64/x86_64-5.3.0-posix-seh-rt_v4-rev0/mingw64/bin/../lib/gcc/x86_64-w64-mingw32/5.3.0/../../../../x86_64-w64-mingw32/lib/../lib/libmsvcrt.a(dkpfs01067.o)
                0x000000000048456c                __imp_fflush
 .idata$5       0x0000000000484574        0x8 C:/Program Files/mingw-w64/x86_64-5.3.0-posix-seh-rt_v4-rev0/mingw64/bin/../lib/gcc/x86_64-w64-mingw32/5.3.0/../../../../x86_64-w64-mingw32/lib/../lib/libmsvcrt.a(dkpfs01077.o)
                0x0000000000484574                __imp_fopen
 .idata$5       0x000000000048457c        0x8 C:/Program Files/mingw-w64/x86_64-5.3.0-posix-seh-rt_v4-rev0/mingw64/bin/../lib/gcc/x86_64-w64-mingw32/5.3.0/../../../../x86_64-w64-mingw32/lib/../lib/libmsvcrt.a(dkpfs01079.o)
                0x000000000048457c                __imp_fprintf
 .idata$5       0x0000000000484584        0x8 C:/Program Files/mingw-w64/x86_64-5.3.0-posix-seh-rt_v4-rev0/mingw64/bin/../lib/gcc/x86_64-w64-mingw32/5.3.0/../../../../x86_64-w64-mingw32/lib/../lib/libmsvcrt.a(dkpfs01085.o)
                0x0000000000484584                __imp_fread
 .idata$5       0x000000000048458c        0x8 C:/Program Files/mingw-w64/x86_64-5.3.0-posix-seh-rt_v4-rev0/mingw64/bin/../lib/gcc/x86_64-w64-mingw32/5.3.0/../../../../x86_64-w64-mingw32/lib/../lib/libmsvcrt.a(dkpfs01086.o)
                0x000000000048458c                __imp_free
 .idata$5       0x0000000000484594        0x8 C:/Program Files/mingw-w64/x86_64-5.3.0-posix-seh-rt_v4-rev0/mingw64/bin/../lib/gcc/x86_64-w64-mingw32/5.3.0/../../../../x86_64-w64-mingw32/lib/../lib/libmsvcrt.a(dkpfs01092.o)
                0x0000000000484594                __imp_fseek
 .idata$5       0x000000000048459c        0x8 C:/Program Files/mingw-w64/x86_64-5.3.0-posix-seh-rt_v4-rev0/mingw64/bin/../lib/gcc/x86_64-w64-mingw32/5.3.0/../../../../x86_64-w64-mingw32/lib/../lib/libmsvcrt.a(dkpfs01094.o)
                0x000000000048459c                __imp_ftell
 .idata$5       0x00000000004845a4        0x8 C:/Program Files/mingw-w64/x86_64-5.3.0-posix-seh-rt_v4-rev0/mingw64/bin/../lib/gcc/x86_64-w64-mingw32/5.3.0/../../../../x86_64-w64-mingw32/lib/../lib/libmsvcrt.a(dkpfs01097.o)
                0x00000000004845a4                __imp_fwrite
 .idata$5       0x00000000004845ac        0x8 C:/Program Files/mingw-w64/x86_64-5.3.0-posix-seh-rt_v4-rev0/mingw64/bin/../lib/gcc/x86_64-w64-mingw32/5.3.0/../../../../x86_64-w64-mingw32/lib/../lib/libmsvcrt.a(dkpfs01100.o)
                0x00000000004845ac                __imp_getc
 .idata$5       0x00000000004845b4        0x8 C:/Program Files/mingw-w64/x86_64-5.3.0-posix-seh-rt_v4-rev0/mingw64/bin/../lib/gcc/x86_64-w64-mingw32/5.3.0/../../../../x86_64-w64-mingw32/lib/../lib/libmsvcrt.a(dkpfs01102.o)
                0x00000000004845b4                __imp_getenv
 .idata$5       0x00000000004845bc        0x8 C:/Program Files/mingw-w64/x86_64-5.3.0-posix-seh-rt_v4-rev0/mingw64/bin/../lib/gcc/x86_64-w64-mingw32/5.3.0/../../../../x86_64-w64-mingw32/lib/../lib/libmsvcrt.a(dkpfs01109.o)
                0x00000000004845bc                __imp_isalnum
 .idata$5       0x00000000004845c4        0x8 C:/Program Files/mingw-w64/x86_64-5.3.0-posix-seh-rt_v4-rev0/mingw64/bin/../lib/gcc/x86_64-w64-mingw32/5.3.0/../../../../x86_64-w64-mingw32/lib/../lib/libmsvcrt.a(dkpfs01110.o)
                0x00000000004845c4                __imp_isalpha
 .idata$5       0x00000000004845cc        0x8 C:/Program Files/mingw-w64/x86_64-5.3.0-posix-seh-rt_v4-rev0/mingw64/bin/../lib/gcc/x86_64-w64-mingw32/5.3.0/../../../../x86_64-w64-mingw32/lib/../lib/libmsvcrt.a(dkpfs01118.o)
                0x00000000004845cc                __imp_isspace
 .idata$5       0x00000000004845d4        0x8 C:/Program Files/mingw-w64/x86_64-5.3.0-posix-seh-rt_v4-rev0/mingw64/bin/../lib/gcc/x86_64-w64-mingw32/5.3.0/../../../../x86_64-w64-mingw32/lib/../lib/libmsvcrt.a(dkpfs01138.o)
                0x00000000004845d4                __imp_localeconv
 .idata$5       0x00000000004845dc        0x8 C:/Program Files/mingw-w64/x86_64-5.3.0-posix-seh-rt_v4-rev0/mingw64/bin/../lib/gcc/x86_64-w64-mingw32/5.3.0/../../../../x86_64-w64-mingw32/lib/../lib/libmsvcrt.a(dkpfs01144.o)
                0x00000000004845dc                __imp_longjmp
 .idata$5       0x00000000004845e4        0x8 C:/Program Files/mingw-w64/x86_64-5.3.0-posix-seh-rt_v4-rev0/mingw64/bin/../lib/gcc/x86_64-w64-mingw32/5.3.0/../../../../x86_64-w64-mingw32/lib/../lib/libmsvcrt.a(dkpfs01145.o)
                0x00000000004845e4                __imp_malloc
 .idata$5       0x00000000004845ec        0x8 C:/Program Files/mingw-w64/x86_64-5.3.0-posix-seh-rt_v4-rev0/mingw64/bin/../lib/gcc/x86_64-w64-mingw32/5.3.0/../../../../x86_64-w64-mingw32/lib/../lib/libmsvcrt.a(dkpfs01152.o)
                0x00000000004845ec                __imp_memcmp
 .idata$5       0x00000000004845f4        0x8 C:/Program Files/mingw-w64/x86_64-5.3.0-posix-seh-rt_v4-rev0/mingw64/bin/../lib/gcc/x86_64-w64-mingw32/5.3.0/../../../../x86_64-w64-mingw32/lib/../lib/libmsvcrt.a(dkpfs01153.o)
                0x00000000004845f4                __imp_memcpy
 .idata$5       0x00000000004845fc        0x8 C:/Program Files/mingw-w64/x86_64-5.3.0-posix-seh-rt_v4-rev0/mingw64/bin/../lib/gcc/x86_64-w64-mingw32/5.3.0/../../../../x86_64-w64-mingw32/lib/../lib/libmsvcrt.a(dkpfs01154.o)
                0x00000000004845fc                __imp_memmove
 .idata$5       0x0000000000484604        0x8 C:/Program Files/mingw-w64/x86_64-5.3.0-posix-seh-rt_v4-rev0/mingw64/bin/../lib/gcc/x86_64-w64-mingw32/5.3.0/../../../../x86_64-w64-mingw32/lib/../lib/libmsvcrt.a(dkpfs01155.o)
                0x0000000000484604                __imp_memset
 .idata$5       0x000000000048460c        0x8 C:/Program Files/mingw-w64/x86_64-5.3.0-posix-seh-rt_v4-rev0/mingw64/bin/../lib/gcc/x86_64-w64-mingw32/5.3.0/../../../../x86_64-w64-mingw32/lib/../lib/libmsvcrt.a(dkpfs01162.o)
                0x000000000048460c                __imp_printf
 .idata$5       0x0000000000484614        0x8 C:/Program Files/mingw-w64/x86_64-5.3.0-posix-seh-rt_v4-rev0/mingw64/bin/../lib/gcc/x86_64-w64-mingw32/5.3.0/../../../../x86_64-w64-mingw32/lib/../lib/libmsvcrt.a(dkpfs01165.o)
                0x0000000000484614                __imp_putchar
 .idata$5       0x000000000048461c        0x8 C:/Program Files/mingw-w64/x86_64-5.3.0-posix-seh-rt_v4-rev0/mingw64/bin/../lib/gcc/x86_64-w64-mingw32/5.3.0/../../../../x86_64-w64-mingw32/lib/../lib/libmsvcrt.a(dkpfs01166.o)
                0x000000000048461c                __imp_puts
 .idata$5       0x0000000000484624        0x8 C:/Program Files/mingw-w64/x86_64-5.3.0-posix-seh-rt_v4-rev0/mingw64/bin/../lib/gcc/x86_64-w64-mingw32/5.3.0/../../../../x86_64-w64-mingw32/lib/../lib/libmsvcrt.a(dkpfs01169.o)
                0x0000000000484624                __imp_qsort
 .idata$5       0x000000000048462c        0x8 C:/Program Files/mingw-w64/x86_64-5.3.0-posix-seh-rt_v4-rev0/mingw64/bin/../lib/gcc/x86_64-w64-mingw32/5.3.0/../../../../x86_64-w64-mingw32/lib/../lib/libmsvcrt.a(dkpfs01174.o)
                0x000000000048462c                __imp_remove
 .idata$5       0x0000000000484634        0x8 C:/Program Files/mingw-w64/x86_64-5.3.0-posix-seh-rt_v4-rev0/mingw64/bin/../lib/gcc/x86_64-w64-mingw32/5.3.0/../../../../x86_64-w64-mingw32/lib/../lib/libmsvcrt.a(dkpfs01176.o)
                0x0000000000484634                __imp_rewind
 .idata$5       0x000000000048463c        0x8 C:/Program Files/mingw-w64/x86_64-5.3.0-posix-seh-rt_v4-rev0/mingw64/bin/../lib/gcc/x86_64-w64-mingw32/5.3.0/../../../../x86_64-w64-mingw32/lib/../lib/libmsvcrt.a(dkpfs01183.o)
                0x000000000048463c                __imp_signal
 .idata$5       0x0000000000484644        0x8 C:/Program Files/mingw-w64/x86_64-5.3.0-posix-seh-rt_v4-rev0/mingw64/bin/../lib/gcc/x86_64-w64-mingw32/5.3.0/../../../../x86_64-w64-mingw32/lib/../lib/libmsvcrt.a(dkpfs01188.o)
                0x0000000000484644                __imp_sprintf
 .idata$5       0x000000000048464c        0x8 C:/Program Files/mingw-w64/x86_64-5.3.0-posix-seh-rt_v4-rev0/mingw64/bin/../lib/gcc/x86_64-w64-mingw32/5.3.0/../../../../x86_64-w64-mingw32/lib/../lib/libmsvcrt.a(dkpfs01194.o)
                0x000000000048464c                __imp_strcat
 .idata$5       0x0000000000484654        0x8 C:/Program Files/mingw-w64/x86_64-5.3.0-posix-seh-rt_v4-rev0/mingw64/bin/../lib/gcc/x86_64-w64-mingw32/5.3.0/../../../../x86_64-w64-mingw32/lib/../lib/libmsvcrt.a(dkpfs01196.o)
                0x0000000000484654                __imp_strchr
 .idata$5       0x000000000048465c        0x8 C:/Program Files/mingw-w64/x86_64-5.3.0-posix-seh-rt_v4-rev0/mingw64/bin/../lib/gcc/x86_64-w64-mingw32/5.3.0/../../../../x86_64-w64-mingw32/lib/../lib/libmsvcrt.a(dkpfs01197.o)
                0x000000000048465c                __imp_strcmp
 .idata$5       0x0000000000484664        0x8 C:/Program Files/mingw-w64/x86_64-5.3.0-posix-seh-rt_v4-rev0/mingw64/bin/../lib/gcc/x86_64-w64-mingw32/5.3.0/../../../../x86_64-w64-mingw32/lib/../lib/libmsvcrt.a(dkpfs01199.o)
                0x0000000000484664                __imp_strcpy
 .idata$5       0x000000000048466c        0x8 C:/Program Files/mingw-w64/x86_64-5.3.0-posix-seh-rt_v4-rev0/mingw64/bin/../lib/gcc/x86_64-w64-mingw32/5.3.0/../../../../x86_64-w64-mingw32/lib/../lib/libmsvcrt.a(dkpfs01204.o)
                0x000000000048466c                __imp_strlen
 .idata$5       0x0000000000484674        0x8 C:/Program Files/mingw-w64/x86_64-5.3.0-posix-seh-rt_v4-rev0/mingw64/bin/../lib/gcc/x86_64-w64-mingw32/5.3.0/../../../../x86_64-w64-mingw32/lib/../lib/libmsvcrt.a(dkpfs01207.o)
                0x0000000000484674                __imp_strncmp
 .idata$5       0x000000000048467c        0x8 C:/Program Files/mingw-w64/x86_64-5.3.0-posix-seh-rt_v4-rev0/mingw64/bin/../lib/gcc/x86_64-w64-mingw32/5.3.0/../../../../x86_64-w64-mingw32/lib/../lib/libmsvcrt.a(dkpfs01208.o)
                0x000000000048467c                __imp_strncpy
 .idata$5       0x0000000000484684        0x8 C:/Program Files/mingw-w64/x86_64-5.3.0-posix-seh-rt_v4-rev0/mingw64/bin/../lib/gcc/x86_64-w64-mingw32/5.3.0/../../../../x86_64-w64-mingw32/lib/../lib/libmsvcrt.a(dkpfs01215.o)
                0x0000000000484684                __imp_strstr
 .idata$5       0x000000000048468c        0x8 C:/Program Files/mingw-w64/x86_64-5.3.0-posix-seh-rt_v4-rev0/mingw64/bin/../lib/gcc/x86_64-w64-mingw32/5.3.0/../../../../x86_64-w64-mingw32/lib/../lib/libmsvcrt.a(dkpfs01233.o)
                0x000000000048468c                __imp_tolower
 .idata$5       0x0000000000484694        0x8 C:/Program Files/mingw-w64/x86_64-5.3.0-posix-seh-rt_v4-rev0/mingw64/bin/../lib/gcc/x86_64-w64-mingw32/5.3.0/../../../../x86_64-w64-mingw32/lib/../lib/libmsvcrt.a(dkpfs01239.o)
                0x0000000000484694                __imp_vfprintf
 .idata$5       0x000000000048469c        0x8 C:/Program Files/mingw-w64/x86_64-5.3.0-posix-seh-rt_v4-rev0/mingw64/bin/../lib/gcc/x86_64-w64-mingw32/5.3.0/../../../../x86_64-w64-mingw32/lib/../lib/libmsvcrt.a(dkpfs01245.o)
                0x000000000048469c                __imp_vsprintf
 .idata$5       0x00000000004846a4        0x8 C:/Program Files/mingw-w64/x86_64-5.3.0-posix-seh-rt_v4-rev0/mingw64/bin/../lib/gcc/x86_64-w64-mingw32/5.3.0/../../../../x86_64-w64-mingw32/lib/../lib/libmsvcrt.a(dkpft.o)
                0x00000000004846ac                __IAT_end__ = .
 SORT(*)(.idata$6)
 .idata$6       0x00000000004846ac       0x18 C:/Program Files/mingw-w64/x86_64-5.3.0-posix-seh-rt_v4-rev0/mingw64/bin/../lib/gcc/x86_64-w64-mingw32/5.3.0/../../../../x86_64-w64-mingw32/lib/../lib/libkernel32.a(dqmfs00216.o)
 .idata$6       0x00000000004846c4       0x18 C:/Program Files/mingw-w64/x86_64-5.3.0-posix-seh-rt_v4-rev0/mingw64/bin/../lib/gcc/x86_64-w64-mingw32/5.3.0/../../../../x86_64-w64-mingw32/lib/../lib/libkernel32.a(dqmfs00249.o)
 .idata$6       0x00000000004846dc       0x14 C:/Program Files/mingw-w64/x86_64-5.3.0-posix-seh-rt_v4-rev0/mingw64/bin/../lib/gcc/x86_64-w64-mingw32/5.3.0/../../../../x86_64-w64-mingw32/lib/../lib/libkernel32.a(dqmfs00462.o)
 .idata$6       0x00000000004846f0       0x16 C:/Program Files/mingw-w64/x86_64-5.3.0-posix-seh-rt_v4-rev0/mingw64/bin/../lib/gcc/x86_64-w64-mingw32/5.3.0/../../../../x86_64-w64-mingw32/lib/../lib/libkernel32.a(dqmfs00463.o)
 .idata$6       0x0000000000484706       0x16 C:/Program Files/mingw-w64/x86_64-5.3.0-posix-seh-rt_v4-rev0/mingw64/bin/../lib/gcc/x86_64-w64-mingw32/5.3.0/../../../../x86_64-w64-mingw32/lib/../lib/libkernel32.a(dqmfs00467.o)
 .idata$6       0x000000000048471c       0x10 C:/Program Files/mingw-w64/x86_64-5.3.0-posix-seh-rt_v4-rev0/mingw64/bin/../lib/gcc/x86_64-w64-mingw32/5.3.0/../../../../x86_64-w64-mingw32/lib/../lib/libkernel32.a(dqmfs00529.o)
 .idata$6       0x000000000048472c       0x14 C:/Program Files/mingw-w64/x86_64-5.3.0-posix-seh-rt_v4-rev0/mingw64/bin/../lib/gcc/x86_64-w64-mingw32/5.3.0/../../../../x86_64-w64-mingw32/lib/../lib/libkernel32.a(dqmfs00549.o)
 .idata$6       0x0000000000484740       0x12 C:/Program Files/mingw-w64/x86_64-5.3.0-posix-seh-rt_v4-rev0/mingw64/bin/../lib/gcc/x86_64-w64-mingw32/5.3.0/../../../../x86_64-w64-mingw32/lib/../lib/libkernel32.a(dqmfs00599.o)
 .idata$6       0x0000000000484752       0x12 C:/Program Files/mingw-w64/x86_64-5.3.0-posix-seh-rt_v4-rev0/mingw64/bin/../lib/gcc/x86_64-w64-mingw32/5.3.0/../../../../x86_64-w64-mingw32/lib/../lib/libkernel32.a(dqmfs00628.o)
 .idata$6       0x0000000000484764       0x1a C:/Program Files/mingw-w64/x86_64-5.3.0-posix-seh-rt_v4-rev0/mingw64/bin/../lib/gcc/x86_64-w64-mingw32/5.3.0/../../../../x86_64-w64-mingw32/lib/../lib/libkernel32.a(dqmfs00651.o)
 .idata$6       0x000000000048477e       0x10 C:/Program Files/mingw-w64/x86_64-5.3.0-posix-seh-rt_v4-rev0/mingw64/bin/../lib/gcc/x86_64-w64-mingw32/5.3.0/../../../../x86_64-w64-mingw32/lib/../lib/libkernel32.a(dqmfs00678.o)
 .idata$6       0x000000000048478e       0x1c C:/Program Files/mingw-w64/x86_64-5.3.0-posix-seh-rt_v4-rev0/mingw64/bin/../lib/gcc/x86_64-w64-mingw32/5.3.0/../../../../x86_64-w64-mingw32/lib/../lib/libkernel32.a(dqmfs00762.o)
 .idata$6       0x00000000004847aa       0x18 C:/Program Files/mingw-w64/x86_64-5.3.0-posix-seh-rt_v4-rev0/mingw64/bin/../lib/gcc/x86_64-w64-mingw32/5.3.0/../../../../x86_64-w64-mingw32/lib/../lib/libkernel32.a(dqmfs00844.o)
 .idata$6       0x00000000004847c2       0x1a C:/Program Files/mingw-w64/x86_64-5.3.0-posix-seh-rt_v4-rev0/mingw64/bin/../lib/gcc/x86_64-w64-mingw32/5.3.0/../../../../x86_64-w64-mingw32/lib/../lib/libkernel32.a(dqmfs00958.o)
 .idata$6       0x00000000004847dc       0x16 C:/Program Files/mingw-w64/x86_64-5.3.0-posix-seh-rt_v4-rev0/mingw64/bin/../lib/gcc/x86_64-w64-mingw32/5.3.0/../../../../x86_64-w64-mingw32/lib/../lib/libkernel32.a(dqmfs01029.o)
 .idata$6       0x00000000004847f2       0x14 C:/Program Files/mingw-w64/x86_64-5.3.0-posix-seh-rt_v4-rev0/mingw64/bin/../lib/gcc/x86_64-w64-mingw32/5.3.0/../../../../x86_64-w64-mingw32/lib/../lib/libkernel32.a(dqmfs01030.o)
 .idata$6       0x0000000000484806       0x1a C:/Program Files/mingw-w64/x86_64-5.3.0-posix-seh-rt_v4-rev0/mingw64/bin/../lib/gcc/x86_64-w64-mingw32/5.3.0/../../../../x86_64-w64-mingw32/lib/../lib/libkernel32.a(dqmfs01037.o)
 .idata$6       0x0000000000484820       0x14 C:/Program Files/mingw-w64/x86_64-5.3.0-posix-seh-rt_v4-rev0/mingw64/bin/../lib/gcc/x86_64-w64-mingw32/5.3.0/../../../../x86_64-w64-mingw32/lib/../lib/libkernel32.a(dqmfs01044.o)
 .idata$6       0x0000000000484834       0x1e C:/Program Files/mingw-w64/x86_64-5.3.0-posix-seh-rt_v4-rev0/mingw64/bin/../lib/gcc/x86_64-w64-mingw32/5.3.0/../../../../x86_64-w64-mingw32/lib/../lib/libkernel32.a(dqmfs01187.o)
 .idata$6       0x0000000000484852        0x8 C:/Program Files/mingw-w64/x86_64-5.3.0-posix-seh-rt_v4-rev0/mingw64/bin/../lib/gcc/x86_64-w64-mingw32/5.3.0/../../../../x86_64-w64-mingw32/lib/../lib/libkernel32.a(dqmfs01200.o)
 .idata$6       0x000000000048485a       0x14 C:/Program Files/mingw-w64/x86_64-5.3.0-posix-seh-rt_v4-rev0/mingw64/bin/../lib/gcc/x86_64-w64-mingw32/5.3.0/../../../../x86_64-w64-mingw32/lib/../lib/libkernel32.a(dqmfs01214.o)
 .idata$6       0x000000000048486e        0xe C:/Program Files/mingw-w64/x86_64-5.3.0-posix-seh-rt_v4-rev0/mingw64/bin/../lib/gcc/x86_64-w64-mingw32/5.3.0/../../../../x86_64-w64-mingw32/lib/../lib/libkernel32.a(dqmfs01221.o)
 .idata$6       0x000000000048487c       0x1c C:/Program Files/mingw-w64/x86_64-5.3.0-posix-seh-rt_v4-rev0/mingw64/bin/../lib/gcc/x86_64-w64-mingw32/5.3.0/../../../../x86_64-w64-mingw32/lib/../lib/libkernel32.a(dqmfs01234.o)
 .idata$6       0x0000000000484898       0x10 C:/Program Files/mingw-w64/x86_64-5.3.0-posix-seh-rt_v4-rev0/mingw64/bin/../lib/gcc/x86_64-w64-mingw32/5.3.0/../../../../x86_64-w64-mingw32/lib/../lib/libkernel32.a(dqmfs01258.o)
 .idata$6       0x00000000004848a8        0xe C:/Program Files/mingw-w64/x86_64-5.3.0-posix-seh-rt_v4-rev0/mingw64/bin/../lib/gcc/x86_64-w64-mingw32/5.3.0/../../../../x86_64-w64-mingw32/lib/../lib/libkernel32.a(dqmfs01261.o)
 .idata$6       0x00000000004848b6       0x12 C:/Program Files/mingw-w64/x86_64-5.3.0-posix-seh-rt_v4-rev0/mingw64/bin/../lib/gcc/x86_64-w64-mingw32/5.3.0/../../../../x86_64-w64-mingw32/lib/../lib/libkernel32.a(dqmfs01264.o)
 .idata$6       0x00000000004848c8       0x10 C:/Program Files/mingw-w64/x86_64-5.3.0-posix-seh-rt_v4-rev0/mingw64/bin/../lib/gcc/x86_64-w64-mingw32/5.3.0/../../../../x86_64-w64-mingw32/lib/../lib/libkernel32.a(dqmfs01266.o)
 .idata$6       0x00000000004848d8       0x18 C:/Program Files/mingw-w64/x86_64-5.3.0-posix-seh-rt_v4-rev0/mingw64/bin/../lib/gcc/x86_64-w64-mingw32/5.3.0/../../../../x86_64-w64-mingw32/lib/../lib/libmsvcrt.a(dkpfs00055.o)
 .idata$6       0x00000000004848f0        0xe C:/Program Files/mingw-w64/x86_64-5.3.0-posix-seh-rt_v4-rev0/mingw64/bin/../lib/gcc/x86_64-w64-mingw32/5.3.0/../../../../x86_64-w64-mingw32/lib/../lib/libmsvcrt.a(dkpfs00078.o)
 .idata$6       0x00000000004848fe       0x10 C:/Program Files/mingw-w64/x86_64-5.3.0-posix-seh-rt_v4-rev0/mingw64/bin/../lib/gcc/x86_64-w64-mingw32/5.3.0/../../../../x86_64-w64-mingw32/lib/../lib/libmsvcrt.a(dkpfs00081.o)
 .idata$6       0x000000000048490e        0xc C:/Program Files/mingw-w64/x86_64-5.3.0-posix-seh-rt_v4-rev0/mingw64/bin/../lib/gcc/x86_64-w64-mingw32/5.3.0/../../../../x86_64-w64-mingw32/lib/../lib/libmsvcrt.a(dkpfs00082.o)
 .idata$6       0x000000000048491a        0xe C:/Program Files/mingw-w64/x86_64-5.3.0-posix-seh-rt_v4-rev0/mingw64/bin/../lib/gcc/x86_64-w64-mingw32/5.3.0/../../../../x86_64-w64-mingw32/lib/../lib/libmsvcrt.a(dkpfs00083.o)
 .idata$6       0x0000000000484928       0x10 C:/Program Files/mingw-w64/x86_64-5.3.0-posix-seh-rt_v4-rev0/mingw64/bin/../lib/gcc/x86_64-w64-mingw32/5.3.0/../../../../x86_64-w64-mingw32/lib/../lib/libmsvcrt.a(dkpfs00090.o)
 .idata$6       0x0000000000484938       0x12 C:/Program Files/mingw-w64/x86_64-5.3.0-posix-seh-rt_v4-rev0/mingw64/bin/../lib/gcc/x86_64-w64-mingw32/5.3.0/../../../../x86_64-w64-mingw32/lib/../lib/libmsvcrt.a(dkpfs00096.o)
 .idata$6       0x000000000048494a       0x14 C:/Program Files/mingw-w64/x86_64-5.3.0-posix-seh-rt_v4-rev0/mingw64/bin/../lib/gcc/x86_64-w64-mingw32/5.3.0/../../../../x86_64-w64-mingw32/lib/../lib/libmsvcrt.a(dkpfs00098.o)
 .idata$6       0x000000000048495e        0xa C:/Program Files/mingw-w64/x86_64-5.3.0-posix-seh-rt_v4-rev0/mingw64/bin/../lib/gcc/x86_64-w64-mingw32/5.3.0/../../../../x86_64-w64-mingw32/lib/../lib/libmsvcrt.a(dkpfs00115.o)
 .idata$6       0x0000000000484968        0xe C:/Program Files/mingw-w64/x86_64-5.3.0-posix-seh-rt_v4-rev0/mingw64/bin/../lib/gcc/x86_64-w64-mingw32/5.3.0/../../../../x86_64-w64-mingw32/lib/../lib/libmsvcrt.a(dkpfs00122.o)
 .idata$6       0x0000000000484976        0xa C:/Program Files/mingw-w64/x86_64-5.3.0-posix-seh-rt_v4-rev0/mingw64/bin/../lib/gcc/x86_64-w64-mingw32/5.3.0/../../../../x86_64-w64-mingw32/lib/../lib/libmsvcrt.a(dkpfs00140.o)
 .idata$6       0x0000000000484980        0xa C:/Program Files/mingw-w64/x86_64-5.3.0-posix-seh-rt_v4-rev0/mingw64/bin/../lib/gcc/x86_64-w64-mingw32/5.3.0/../../../../x86_64-w64-mingw32/lib/../lib/libmsvcrt.a(dkpfs00149.o)
 .idata$6       0x000000000048498a        0xa C:/Program Files/mingw-w64/x86_64-5.3.0-posix-seh-rt_v4-rev0/mingw64/bin/../lib/gcc/x86_64-w64-mingw32/5.3.0/../../../../x86_64-w64-mingw32/lib/../lib/libmsvcrt.a(dkpfs00201.o)
 .idata$6       0x0000000000484994        0xa C:/Program Files/mingw-w64/x86_64-5.3.0-posix-seh-rt_v4-rev0/mingw64/bin/../lib/gcc/x86_64-w64-mingw32/5.3.0/../../../../x86_64-w64-mingw32/lib/../lib/libmsvcrt.a(dkpfs00234.o)
 .idata$6       0x000000000048499e        0xe C:/Program Files/mingw-w64/x86_64-5.3.0-posix-seh-rt_v4-rev0/mingw64/bin/../lib/gcc/x86_64-w64-mingw32/5.3.0/../../../../x86_64-w64-mingw32/lib/../lib/libmsvcrt.a(dkpfs00235.o)
 .idata$6       0x00000000004849ac       0x10 C:/Program Files/mingw-w64/x86_64-5.3.0-posix-seh-rt_v4-rev0/mingw64/bin/../lib/gcc/x86_64-w64-mingw32/5.3.0/../../../../x86_64-w64-mingw32/lib/../lib/libmsvcrt.a(dkpfs00238.o)
 .idata$6       0x00000000004849bc        0xe C:/Program Files/mingw-w64/x86_64-5.3.0-posix-seh-rt_v4-rev0/mingw64/bin/../lib/gcc/x86_64-w64-mingw32/5.3.0/../../../../x86_64-w64-mingw32/lib/../lib/libmsvcrt.a(dkpfs00242.o)
 .idata$6       0x00000000004849ca        0xa C:/Program Files/mingw-w64/x86_64-5.3.0-posix-seh-rt_v4-rev0/mingw64/bin/../lib/gcc/x86_64-w64-mingw32/5.3.0/../../../../x86_64-w64-mingw32/lib/../lib/libmsvcrt.a(dkpfs00251.o)
 .idata$6       0x00000000004849d4        0xc C:/Program Files/mingw-w64/x86_64-5.3.0-posix-seh-rt_v4-rev0/mingw64/bin/../lib/gcc/x86_64-w64-mingw32/5.3.0/../../../../x86_64-w64-mingw32/lib/../lib/libmsvcrt.a(dkpfs00330.o)
 .idata$6       0x00000000004849e0       0x10 C:/Program Files/mingw-w64/x86_64-5.3.0-posix-seh-rt_v4-rev0/mingw64/bin/../lib/gcc/x86_64-w64-mingw32/5.3.0/../../../../x86_64-w64-mingw32/lib/../lib/libmsvcrt.a(dkpfs00438.o)
 .idata$6       0x00000000004849f0        0x8 C:/Program Files/mingw-w64/x86_64-5.3.0-posix-seh-rt_v4-rev0/mingw64/bin/../lib/gcc/x86_64-w64-mingw32/5.3.0/../../../../x86_64-w64-mingw32/lib/../lib/libmsvcrt.a(dkpfs00439.o)
 .idata$6       0x00000000004849f8        0xc C:/Program Files/mingw-w64/x86_64-5.3.0-posix-seh-rt_v4-rev0/mingw64/bin/../lib/gcc/x86_64-w64-mingw32/5.3.0/../../../../x86_64-w64-mingw32/lib/../lib/libmsvcrt.a(dkpfs00599.o)
 .idata$6       0x0000000000484a04        0xa C:/Program Files/mingw-w64/x86_64-5.3.0-posix-seh-rt_v4-rev0/mingw64/bin/../lib/gcc/x86_64-w64-mingw32/5.3.0/../../../../x86_64-w64-mingw32/lib/../lib/libmsvcrt.a(dkpfs00611.o)
 .idata$6       0x0000000000484a0e        0xa C:/Program Files/mingw-w64/x86_64-5.3.0-posix-seh-rt_v4-rev0/mingw64/bin/../lib/gcc/x86_64-w64-mingw32/5.3.0/../../../../x86_64-w64-mingw32/lib/../lib/libmsvcrt.a(dkpfs00667.o)
 .idata$6       0x0000000000484a18        0xa C:/Program Files/mingw-w64/x86_64-5.3.0-posix-seh-rt_v4-rev0/mingw64/bin/../lib/gcc/x86_64-w64-mingw32/5.3.0/../../../../x86_64-w64-mingw32/lib/../lib/libmsvcrt.a(dkpfs00719.o)
 .idata$6       0x0000000000484a22        0xc C:/Program Files/mingw-w64/x86_64-5.3.0-posix-seh-rt_v4-rev0/mingw64/bin/../lib/gcc/x86_64-w64-mingw32/5.3.0/../../../../x86_64-w64-mingw32/lib/../lib/libmsvcrt.a(dkpfs00731.o)
 .idata$6       0x0000000000484a2e        0xa C:/Program Files/mingw-w64/x86_64-5.3.0-posix-seh-rt_v4-rev0/mingw64/bin/../lib/gcc/x86_64-w64-mingw32/5.3.0/../../../../x86_64-w64-mingw32/lib/../lib/libmsvcrt.a(dkpfs00768.o)
 .idata$6       0x0000000000484a38        0xa C:/Program Files/mingw-w64/x86_64-5.3.0-posix-seh-rt_v4-rev0/mingw64/bin/../lib/gcc/x86_64-w64-mingw32/5.3.0/../../../../x86_64-w64-mingw32/lib/../lib/libmsvcrt.a(dkpfs00788.o)
 .idata$6       0x0000000000484a42        0xa C:/Program Files/mingw-w64/x86_64-5.3.0-posix-seh-rt_v4-rev0/mingw64/bin/../lib/gcc/x86_64-w64-mingw32/5.3.0/../../../../x86_64-w64-mingw32/lib/../lib/libmsvcrt.a(dkpfs00819.o)
 .idata$6       0x0000000000484a4c        0x8 C:/Program Files/mingw-w64/x86_64-5.3.0-posix-seh-rt_v4-rev0/mingw64/bin/../lib/gcc/x86_64-w64-mingw32/5.3.0/../../../../x86_64-w64-mingw32/lib/../lib/libmsvcrt.a(dkpfs01030.o)
 .idata$6       0x0000000000484a54        0x8 C:/Program Files/mingw-w64/x86_64-5.3.0-posix-seh-rt_v4-rev0/mingw64/bin/../lib/gcc/x86_64-w64-mingw32/5.3.0/../../../../x86_64-w64-mingw32/lib/../lib/libmsvcrt.a(dkpfs01043.o)
 .idata$6       0x0000000000484a5c        0xa C:/Program Files/mingw-w64/x86_64-5.3.0-posix-seh-rt_v4-rev0/mingw64/bin/../lib/gcc/x86_64-w64-mingw32/5.3.0/../../../../x86_64-w64-mingw32/lib/../lib/libmsvcrt.a(dkpfs01047.o)
 .idata$6       0x0000000000484a66        0x8 C:/Program Files/mingw-w64/x86_64-5.3.0-posix-seh-rt_v4-rev0/mingw64/bin/../lib/gcc/x86_64-w64-mingw32/5.3.0/../../../../x86_64-w64-mingw32/lib/../lib/libmsvcrt.a(dkpfs01052.o)
 .idata$6       0x0000000000484a6e        0x8 C:/Program Files/mingw-w64/x86_64-5.3.0-posix-seh-rt_v4-rev0/mingw64/bin/../lib/gcc/x86_64-w64-mingw32/5.3.0/../../../../x86_64-w64-mingw32/lib/../lib/libmsvcrt.a(dkpfs01060.o)
 .idata$6       0x0000000000484a76        0xa C:/Program Files/mingw-w64/x86_64-5.3.0-posix-seh-rt_v4-rev0/mingw64/bin/../lib/gcc/x86_64-w64-mingw32/5.3.0/../../../../x86_64-w64-mingw32/lib/../lib/libmsvcrt.a(dkpfs01064.o)
 .idata$6       0x0000000000484a80        0xa C:/Program Files/mingw-w64/x86_64-5.3.0-posix-seh-rt_v4-rev0/mingw64/bin/../lib/gcc/x86_64-w64-mingw32/5.3.0/../../../../x86_64-w64-mingw32/lib/../lib/libmsvcrt.a(dkpfs01067.o)
 .idata$6       0x0000000000484a8a        0x8 C:/Program Files/mingw-w64/x86_64-5.3.0-posix-seh-rt_v4-rev0/mingw64/bin/../lib/gcc/x86_64-w64-mingw32/5.3.0/../../../../x86_64-w64-mingw32/lib/../lib/libmsvcrt.a(dkpfs01077.o)
 .idata$6       0x0000000000484a92        0xa C:/Program Files/mingw-w64/x86_64-5.3.0-posix-seh-rt_v4-rev0/mingw64/bin/../lib/gcc/x86_64-w64-mingw32/5.3.0/../../../../x86_64-w64-mingw32/lib/../lib/libmsvcrt.a(dkpfs01079.o)
 .idata$6       0x0000000000484a9c        0x8 C:/Program Files/mingw-w64/x86_64-5.3.0-posix-seh-rt_v4-rev0/mingw64/bin/../lib/gcc/x86_64-w64-mingw32/5.3.0/../../../../x86_64-w64-mingw32/lib/../lib/libmsvcrt.a(dkpfs01085.o)
 .idata$6       0x0000000000484aa4        0x8 C:/Program Files/mingw-w64/x86_64-5.3.0-posix-seh-rt_v4-rev0/mingw64/bin/../lib/gcc/x86_64-w64-mingw32/5.3.0/../../../../x86_64-w64-mingw32/lib/../lib/libmsvcrt.a(dkpfs01086.o)
 .idata$6       0x0000000000484aac        0x8 C:/Program Files/mingw-w64/x86_64-5.3.0-posix-seh-rt_v4-rev0/mingw64/bin/../lib/gcc/x86_64-w64-mingw32/5.3.0/../../../../x86_64-w64-mingw32/lib/../lib/libmsvcrt.a(dkpfs01092.o)
 .idata$6       0x0000000000484ab4        0x8 C:/Program Files/mingw-w64/x86_64-5.3.0-posix-seh-rt_v4-rev0/mingw64/bin/../lib/gcc/x86_64-w64-mingw32/5.3.0/../../../../x86_64-w64-mingw32/lib/../lib/libmsvcrt.a(dkpfs01094.o)
 .idata$6       0x0000000000484abc        0xa C:/Program Files/mingw-w64/x86_64-5.3.0-posix-seh-rt_v4-rev0/mingw64/bin/../lib/gcc/x86_64-w64-mingw32/5.3.0/../../../../x86_64-w64-mingw32/lib/../lib/libmsvcrt.a(dkpfs01097.o)
 .idata$6       0x0000000000484ac6        0x8 C:/Program Files/mingw-w64/x86_64-5.3.0-posix-seh-rt_v4-rev0/mingw64/bin/../lib/gcc/x86_64-w64-mingw32/5.3.0/../../../../x86_64-w64-mingw32/lib/../lib/libmsvcrt.a(dkpfs01100.o)
 .idata$6       0x0000000000484ace        0xa C:/Program Files/mingw-w64/x86_64-5.3.0-posix-seh-rt_v4-rev0/mingw64/bin/../lib/gcc/x86_64-w64-mingw32/5.3.0/../../../../x86_64-w64-mingw32/lib/../lib/libmsvcrt.a(dkpfs01102.o)
 .idata$6       0x0000000000484ad8        0xa C:/Program Files/mingw-w64/x86_64-5.3.0-posix-seh-rt_v4-rev0/mingw64/bin/../lib/gcc/x86_64-w64-mingw32/5.3.0/../../../../x86_64-w64-mingw32/lib/../lib/libmsvcrt.a(dkpfs01109.o)
 .idata$6       0x0000000000484ae2        0xa C:/Program Files/mingw-w64/x86_64-5.3.0-posix-seh-rt_v4-rev0/mingw64/bin/../lib/gcc/x86_64-w64-mingw32/5.3.0/../../../../x86_64-w64-mingw32/lib/../lib/libmsvcrt.a(dkpfs01110.o)
 .idata$6       0x0000000000484aec        0xa C:/Program Files/mingw-w64/x86_64-5.3.0-posix-seh-rt_v4-rev0/mingw64/bin/../lib/gcc/x86_64-w64-mingw32/5.3.0/../../../../x86_64-w64-mingw32/lib/../lib/libmsvcrt.a(dkpfs01118.o)
 .idata$6       0x0000000000484af6        0xe C:/Program Files/mingw-w64/x86_64-5.3.0-posix-seh-rt_v4-rev0/mingw64/bin/../lib/gcc/x86_64-w64-mingw32/5.3.0/../../../../x86_64-w64-mingw32/lib/../lib/libmsvcrt.a(dkpfs01138.o)
 .idata$6       0x0000000000484b04        0xa C:/Program Files/mingw-w64/x86_64-5.3.0-posix-seh-rt_v4-rev0/mingw64/bin/../lib/gcc/x86_64-w64-mingw32/5.3.0/../../../../x86_64-w64-mingw32/lib/../lib/libmsvcrt.a(dkpfs01144.o)
 .idata$6       0x0000000000484b0e        0xa C:/Program Files/mingw-w64/x86_64-5.3.0-posix-seh-rt_v4-rev0/mingw64/bin/../lib/gcc/x86_64-w64-mingw32/5.3.0/../../../../x86_64-w64-mingw32/lib/../lib/libmsvcrt.a(dkpfs01145.o)
 .idata$6       0x0000000000484b18        0xa C:/Program Files/mingw-w64/x86_64-5.3.0-posix-seh-rt_v4-rev0/mingw64/bin/../lib/gcc/x86_64-w64-mingw32/5.3.0/../../../../x86_64-w64-mingw32/lib/../lib/libmsvcrt.a(dkpfs01152.o)
 .idata$6       0x0000000000484b22        0xa C:/Program Files/mingw-w64/x86_64-5.3.0-posix-seh-rt_v4-rev0/mingw64/bin/../lib/gcc/x86_64-w64-mingw32/5.3.0/../../../../x86_64-w64-mingw32/lib/../lib/libmsvcrt.a(dkpfs01153.o)
 .idata$6       0x0000000000484b2c        0xa C:/Program Files/mingw-w64/x86_64-5.3.0-posix-seh-rt_v4-rev0/mingw64/bin/../lib/gcc/x86_64-w64-mingw32/5.3.0/../../../../x86_64-w64-mingw32/lib/../lib/libmsvcrt.a(dkpfs01154.o)
 .idata$6       0x0000000000484b36        0xa C:/Program Files/mingw-w64/x86_64-5.3.0-posix-seh-rt_v4-rev0/mingw64/bin/../lib/gcc/x86_64-w64-mingw32/5.3.0/../../../../x86_64-w64-mingw32/lib/../lib/libmsvcrt.a(dkpfs01155.o)
 .idata$6       0x0000000000484b40        0xa C:/Program Files/mingw-w64/x86_64-5.3.0-posix-seh-rt_v4-rev0/mingw64/bin/../lib/gcc/x86_64-w64-mingw32/5.3.0/../../../../x86_64-w64-mingw32/lib/../lib/libmsvcrt.a(dkpfs01162.o)
 .idata$6       0x0000000000484b4a        0xa C:/Program Files/mingw-w64/x86_64-5.3.0-posix-seh-rt_v4-rev0/mingw64/bin/../lib/gcc/x86_64-w64-mingw32/5.3.0/../../../../x86_64-w64-mingw32/lib/../lib/libmsvcrt.a(dkpfs01165.o)
 .idata$6       0x0000000000484b54        0x8 C:/Program Files/mingw-w64/x86_64-5.3.0-posix-seh-rt_v4-rev0/mingw64/bin/../lib/gcc/x86_64-w64-mingw32/5.3.0/../../../../x86_64-w64-mingw32/lib/../lib/libmsvcrt.a(dkpfs01166.o)
 .idata$6       0x0000000000484b5c        0x8 C:/Program Files/mingw-w64/x86_64-5.3.0-posix-seh-rt_v4-rev0/mingw64/bin/../lib/gcc/x86_64-w64-mingw32/5.3.0/../../../../x86_64-w64-mingw32/lib/../lib/libmsvcrt.a(dkpfs01169.o)
 .idata$6       0x0000000000484b64        0xa C:/Program Files/mingw-w64/x86_64-5.3.0-posix-seh-rt_v4-rev0/mingw64/bin/../lib/gcc/x86_64-w64-mingw32/5.3.0/../../../../x86_64-w64-mingw32/lib/../lib/libmsvcrt.a(dkpfs01174.o)
 .idata$6       0x0000000000484b6e        0xa C:/Program Files/mingw-w64/x86_64-5.3.0-posix-seh-rt_v4-rev0/mingw64/bin/../lib/gcc/x86_64-w64-mingw32/5.3.0/../../../../x86_64-w64-mingw32/lib/../lib/libmsvcrt.a(dkpfs01176.o)
 .idata$6       0x0000000000484b78        0xa C:/Program Files/mingw-w64/x86_64-5.3.0-posix-seh-rt_v4-rev0/mingw64/bin/../lib/gcc/x86_64-w64-mingw32/5.3.0/../../../../x86_64-w64-mingw32/lib/../lib/libmsvcrt.a(dkpfs01183.o)
 .idata$6       0x0000000000484b82        0xa C:/Program Files/mingw-w64/x86_64-5.3.0-posix-seh-rt_v4-rev0/mingw64/bin/../lib/gcc/x86_64-w64-mingw32/5.3.0/../../../../x86_64-w64-mingw32/lib/../lib/libmsvcrt.a(dkpfs01188.o)
 .idata$6       0x0000000000484b8c        0xa C:/Program Files/mingw-w64/x86_64-5.3.0-posix-seh-rt_v4-rev0/mingw64/bin/../lib/gcc/x86_64-w64-mingw32/5.3.0/../../../../x86_64-w64-mingw32/lib/../lib/libmsvcrt.a(dkpfs01194.o)
 .idata$6       0x0000000000484b96        0xa C:/Program Files/mingw-w64/x86_64-5.3.0-posix-seh-rt_v4-rev0/mingw64/bin/../lib/gcc/x86_64-w64-mingw32/5.3.0/../../../../x86_64-w64-mingw32/lib/../lib/libmsvcrt.a(dkpfs01196.o)
 .idata$6       0x0000000000484ba0        0xa C:/Program Files/mingw-w64/x86_64-5.3.0-posix-seh-rt_v4-rev0/mingw64/bin/../lib/gcc/x86_64-w64-mingw32/5.3.0/../../../../x86_64-w64-mingw32/lib/../lib/libmsvcrt.a(dkpfs01197.o)
 .idata$6       0x0000000000484baa        0xa C:/Program Files/mingw-w64/x86_64-5.3.0-posix-seh-rt_v4-rev0/mingw64/bin/../lib/gcc/x86_64-w64-mingw32/5.3.0/../../../../x86_64-w64-mingw32/lib/../lib/libmsvcrt.a(dkpfs01199.o)
 .idata$6       0x0000000000484bb4        0xa C:/Program Files/mingw-w64/x86_64-5.3.0-posix-seh-rt_v4-rev0/mingw64/bin/../lib/gcc/x86_64-w64-mingw32/5.3.0/../../../../x86_64-w64-mingw32/lib/../lib/libmsvcrt.a(dkpfs01204.o)
 .idata$6       0x0000000000484bbe        0xa C:/Program Files/mingw-w64/x86_64-5.3.0-posix-seh-rt_v4-rev0/mingw64/bin/../lib/gcc/x86_64-w64-mingw32/5.3.0/../../../../x86_64-w64-mingw32/lib/../lib/libmsvcrt.a(dkpfs01207.o)
 .idata$6       0x0000000000484bc8        0xa C:/Program Files/mingw-w64/x86_64-5.3.0-posix-seh-rt_v4-rev0/mingw64/bin/../lib/gcc/x86_64-w64-mingw32/5.3.0/../../../../x86_64-w64-mingw32/lib/../lib/libmsvcrt.a(dkpfs01208.o)
 .idata$6       0x0000000000484bd2        0xa C:/Program Files/mingw-w64/x86_64-5.3.0-posix-seh-rt_v4-rev0/mingw64/bin/../lib/gcc/x86_64-w64-mingw32/5.3.0/../../../../x86_64-w64-mingw32/lib/../lib/libmsvcrt.a(dkpfs01215.o)
 .idata$6       0x0000000000484bdc        0xa C:/Program Files/mingw-w64/x86_64-5.3.0-posix-seh-rt_v4-rev0/mingw64/bin/../lib/gcc/x86_64-w64-mingw32/5.3.0/../../../../x86_64-w64-mingw32/lib/../lib/libmsvcrt.a(dkpfs01233.o)
 .idata$6       0x0000000000484be6        0xc C:/Program Files/mingw-w64/x86_64-5.3.0-posix-seh-rt_v4-rev0/mingw64/bin/../lib/gcc/x86_64-w64-mingw32/5.3.0/../../../../x86_64-w64-mingw32/lib/../lib/libmsvcrt.a(dkpfs01239.o)
 .idata$6       0x0000000000484bf2        0xc C:/Program Files/mingw-w64/x86_64-5.3.0-posix-seh-rt_v4-rev0/mingw64/bin/../lib/gcc/x86_64-w64-mingw32/5.3.0/../../../../x86_64-w64-mingw32/lib/../lib/libmsvcrt.a(dkpfs01245.o)
 SORT(*)(.idata$7)
 *fill*         0x0000000000484bfe        0x2 
 .idata$7       0x0000000000484c00        0x4 C:/Program Files/mingw-w64/x86_64-5.3.0-posix-seh-rt_v4-rev0/mingw64/bin/../lib/gcc/x86_64-w64-mingw32/5.3.0/../../../../x86_64-w64-mingw32/lib/../lib/libkernel32.a(dqmfs00216.o)
 .idata$7       0x0000000000484c04        0x4 C:/Program Files/mingw-w64/x86_64-5.3.0-posix-seh-rt_v4-rev0/mingw64/bin/../lib/gcc/x86_64-w64-mingw32/5.3.0/../../../../x86_64-w64-mingw32/lib/../lib/libkernel32.a(dqmfs00249.o)
 .idata$7       0x0000000000484c08        0x4 C:/Program Files/mingw-w64/x86_64-5.3.0-posix-seh-rt_v4-rev0/mingw64/bin/../lib/gcc/x86_64-w64-mingw32/5.3.0/../../../../x86_64-w64-mingw32/lib/../lib/libkernel32.a(dqmfs00462.o)
 .idata$7       0x0000000000484c0c        0x4 C:/Program Files/mingw-w64/x86_64-5.3.0-posix-seh-rt_v4-rev0/mingw64/bin/../lib/gcc/x86_64-w64-mingw32/5.3.0/../../../../x86_64-w64-mingw32/lib/../lib/libkernel32.a(dqmfs00463.o)
 .idata$7       0x0000000000484c10        0x4 C:/Program Files/mingw-w64/x86_64-5.3.0-posix-seh-rt_v4-rev0/mingw64/bin/../lib/gcc/x86_64-w64-mingw32/5.3.0/../../../../x86_64-w64-mingw32/lib/../lib/libkernel32.a(dqmfs00467.o)
 .idata$7       0x0000000000484c14        0x4 C:/Program Files/mingw-w64/x86_64-5.3.0-posix-seh-rt_v4-rev0/mingw64/bin/../lib/gcc/x86_64-w64-mingw32/5.3.0/../../../../x86_64-w64-mingw32/lib/../lib/libkernel32.a(dqmfs00529.o)
 .idata$7       0x0000000000484c18        0x4 C:/Program Files/mingw-w64/x86_64-5.3.0-posix-seh-rt_v4-rev0/mingw64/bin/../lib/gcc/x86_64-w64-mingw32/5.3.0/../../../../x86_64-w64-mingw32/lib/../lib/libkernel32.a(dqmfs00549.o)
 .idata$7       0x0000000000484c1c        0x4 C:/Program Files/mingw-w64/x86_64-5.3.0-posix-seh-rt_v4-rev0/mingw64/bin/../lib/gcc/x86_64-w64-mingw32/5.3.0/../../../../x86_64-w64-mingw32/lib/../lib/libkernel32.a(dqmfs00599.o)
 .idata$7       0x0000000000484c20        0x4 C:/Program Files/mingw-w64/x86_64-5.3.0-posix-seh-rt_v4-rev0/mingw64/bin/../lib/gcc/x86_64-w64-mingw32/5.3.0/../../../../x86_64-w64-mingw32/lib/../lib/libkernel32.a(dqmfs00628.o)
 .idata$7       0x0000000000484c24        0x4 C:/Program Files/mingw-w64/x86_64-5.3.0-posix-seh-rt_v4-rev0/mingw64/bin/../lib/gcc/x86_64-w64-mingw32/5.3.0/../../../../x86_64-w64-mingw32/lib/../lib/libkernel32.a(dqmfs00651.o)
 .idata$7       0x0000000000484c28        0x4 C:/Program Files/mingw-w64/x86_64-5.3.0-posix-seh-rt_v4-rev0/mingw64/bin/../lib/gcc/x86_64-w64-mingw32/5.3.0/../../../../x86_64-w64-mingw32/lib/../lib/libkernel32.a(dqmfs00678.o)
 .idata$7       0x0000000000484c2c        0x4 C:/Program Files/mingw-w64/x86_64-5.3.0-posix-seh-rt_v4-rev0/mingw64/bin/../lib/gcc/x86_64-w64-mingw32/5.3.0/../../../../x86_64-w64-mingw32/lib/../lib/libkernel32.a(dqmfs00762.o)
 .idata$7       0x0000000000484c30        0x4 C:/Program Files/mingw-w64/x86_64-5.3.0-posix-seh-rt_v4-rev0/mingw64/bin/../lib/gcc/x86_64-w64-mingw32/5.3.0/../../../../x86_64-w64-mingw32/lib/../lib/libkernel32.a(dqmfs00844.o)
 .idata$7       0x0000000000484c34        0x4 C:/Program Files/mingw-w64/x86_64-5.3.0-posix-seh-rt_v4-rev0/mingw64/bin/../lib/gcc/x86_64-w64-mingw32/5.3.0/../../../../x86_64-w64-mingw32/lib/../lib/libkernel32.a(dqmfs00958.o)
 .idata$7       0x0000000000484c38        0x4 C:/Program Files/mingw-w64/x86_64-5.3.0-posix-seh-rt_v4-rev0/mingw64/bin/../lib/gcc/x86_64-w64-mingw32/5.3.0/../../../../x86_64-w64-mingw32/lib/../lib/libkernel32.a(dqmfs01029.o)
 .idata$7       0x0000000000484c3c        0x4 C:/Program Files/mingw-w64/x86_64-5.3.0-posix-seh-rt_v4-rev0/mingw64/bin/../lib/gcc/x86_64-w64-mingw32/5.3.0/../../../../x86_64-w64-mingw32/lib/../lib/libkernel32.a(dqmfs01030.o)
 .idata$7       0x0000000000484c40        0x4 C:/Program Files/mingw-w64/x86_64-5.3.0-posix-seh-rt_v4-rev0/mingw64/bin/../lib/gcc/x86_64-w64-mingw32/5.3.0/../../../../x86_64-w64-mingw32/lib/../lib/libkernel32.a(dqmfs01037.o)
 .idata$7       0x0000000000484c44        0x4 C:/Program Files/mingw-w64/x86_64-5.3.0-posix-seh-rt_v4-rev0/mingw64/bin/../lib/gcc/x86_64-w64-mingw32/5.3.0/../../../../x86_64-w64-mingw32/lib/../lib/libkernel32.a(dqmfs01044.o)
 .idata$7       0x0000000000484c48        0x4 C:/Program Files/mingw-w64/x86_64-5.3.0-posix-seh-rt_v4-rev0/mingw64/bin/../lib/gcc/x86_64-w64-mingw32/5.3.0/../../../../x86_64-w64-mingw32/lib/../lib/libkernel32.a(dqmfs01187.o)
 .idata$7       0x0000000000484c4c        0x4 C:/Program Files/mingw-w64/x86_64-5.3.0-posix-seh-rt_v4-rev0/mingw64/bin/../lib/gcc/x86_64-w64-mingw32/5.3.0/../../../../x86_64-w64-mingw32/lib/../lib/libkernel32.a(dqmfs01200.o)
 .idata$7       0x0000000000484c50        0x4 C:/Program Files/mingw-w64/x86_64-5.3.0-posix-seh-rt_v4-rev0/mingw64/bin/../lib/gcc/x86_64-w64-mingw32/5.3.0/../../../../x86_64-w64-mingw32/lib/../lib/libkernel32.a(dqmfs01214.o)
 .idata$7       0x0000000000484c54        0x4 C:/Program Files/mingw-w64/x86_64-5.3.0-posix-seh-rt_v4-rev0/mingw64/bin/../lib/gcc/x86_64-w64-mingw32/5.3.0/../../../../x86_64-w64-mingw32/lib/../lib/libkernel32.a(dqmfs01221.o)
 .idata$7       0x0000000000484c58        0x4 C:/Program Files/mingw-w64/x86_64-5.3.0-posix-seh-rt_v4-rev0/mingw64/bin/../lib/gcc/x86_64-w64-mingw32/5.3.0/../../../../x86_64-w64-mingw32/lib/../lib/libkernel32.a(dqmfs01234.o)
 .idata$7       0x0000000000484c5c        0x4 C:/Program Files/mingw-w64/x86_64-5.3.0-posix-seh-rt_v4-rev0/mingw64/bin/../lib/gcc/x86_64-w64-mingw32/5.3.0/../../../../x86_64-w64-mingw32/lib/../lib/libkernel32.a(dqmfs01258.o)
 .idata$7       0x0000000000484c60        0x4 C:/Program Files/mingw-w64/x86_64-5.3.0-posix-seh-rt_v4-rev0/mingw64/bin/../lib/gcc/x86_64-w64-mingw32/5.3.0/../../../../x86_64-w64-mingw32/lib/../lib/libkernel32.a(dqmfs01261.o)
 .idata$7       0x0000000000484c64        0x4 C:/Program Files/mingw-w64/x86_64-5.3.0-posix-seh-rt_v4-rev0/mingw64/bin/../lib/gcc/x86_64-w64-mingw32/5.3.0/../../../../x86_64-w64-mingw32/lib/../lib/libkernel32.a(dqmfs01264.o)
 .idata$7       0x0000000000484c68        0x4 C:/Program Files/mingw-w64/x86_64-5.3.0-posix-seh-rt_v4-rev0/mingw64/bin/../lib/gcc/x86_64-w64-mingw32/5.3.0/../../../../x86_64-w64-mingw32/lib/../lib/libkernel32.a(dqmfs01266.o)
 .idata$7       0x0000000000484c6c       0x10 C:/Program Files/mingw-w64/x86_64-5.3.0-posix-seh-rt_v4-rev0/mingw64/bin/../lib/gcc/x86_64-w64-mingw32/5.3.0/../../../../x86_64-w64-mingw32/lib/../lib/libkernel32.a(dqmft.o)
                0x0000000000484c6c                __lib64_libkernel32_a_iname
 .idata$7       0x0000000000484c7c        0x4 C:/Program Files/mingw-w64/x86_64-5.3.0-posix-seh-rt_v4-rev0/mingw64/bin/../lib/gcc/x86_64-w64-mingw32/5.3.0/../../../../x86_64-w64-mingw32/lib/../lib/libmsvcrt.a(dkpfs00055.o)
 .idata$7       0x0000000000484c80        0x4 C:/Program Files/mingw-w64/x86_64-5.3.0-posix-seh-rt_v4-rev0/mingw64/bin/../lib/gcc/x86_64-w64-mingw32/5.3.0/../../../../x86_64-w64-mingw32/lib/../lib/libmsvcrt.a(dkpfs00078.o)
 .idata$7       0x0000000000484c84        0x4 C:/Program Files/mingw-w64/x86_64-5.3.0-posix-seh-rt_v4-rev0/mingw64/bin/../lib/gcc/x86_64-w64-mingw32/5.3.0/../../../../x86_64-w64-mingw32/lib/../lib/libmsvcrt.a(dkpfs00081.o)
 .idata$7       0x0000000000484c88        0x4 C:/Program Files/mingw-w64/x86_64-5.3.0-posix-seh-rt_v4-rev0/mingw64/bin/../lib/gcc/x86_64-w64-mingw32/5.3.0/../../../../x86_64-w64-mingw32/lib/../lib/libmsvcrt.a(dkpfs00082.o)
 .idata$7       0x0000000000484c8c        0x4 C:/Program Files/mingw-w64/x86_64-5.3.0-posix-seh-rt_v4-rev0/mingw64/bin/../lib/gcc/x86_64-w64-mingw32/5.3.0/../../../../x86_64-w64-mingw32/lib/../lib/libmsvcrt.a(dkpfs00083.o)
 .idata$7       0x0000000000484c90        0x4 C:/Program Files/mingw-w64/x86_64-5.3.0-posix-seh-rt_v4-rev0/mingw64/bin/../lib/gcc/x86_64-w64-mingw32/5.3.0/../../../../x86_64-w64-mingw32/lib/../lib/libmsvcrt.a(dkpfs00090.o)
 .idata$7       0x0000000000484c94        0x4 C:/Program Files/mingw-w64/x86_64-5.3.0-posix-seh-rt_v4-rev0/mingw64/bin/../lib/gcc/x86_64-w64-mingw32/5.3.0/../../../../x86_64-w64-mingw32/lib/../lib/libmsvcrt.a(dkpfs00096.o)
 .idata$7       0x0000000000484c98        0x4 C:/Program Files/mingw-w64/x86_64-5.3.0-posix-seh-rt_v4-rev0/mingw64/bin/../lib/gcc/x86_64-w64-mingw32/5.3.0/../../../../x86_64-w64-mingw32/lib/../lib/libmsvcrt.a(dkpfs00098.o)
 .idata$7       0x0000000000484c9c        0x4 C:/Program Files/mingw-w64/x86_64-5.3.0-posix-seh-rt_v4-rev0/mingw64/bin/../lib/gcc/x86_64-w64-mingw32/5.3.0/../../../../x86_64-w64-mingw32/lib/../lib/libmsvcrt.a(dkpfs00115.o)
 .idata$7       0x0000000000484ca0        0x4 C:/Program Files/mingw-w64/x86_64-5.3.0-posix-seh-rt_v4-rev0/mingw64/bin/../lib/gcc/x86_64-w64-mingw32/5.3.0/../../../../x86_64-w64-mingw32/lib/../lib/libmsvcrt.a(dkpfs00122.o)
 .idata$7       0x0000000000484ca4        0x4 C:/Program Files/mingw-w64/x86_64-5.3.0-posix-seh-rt_v4-rev0/mingw64/bin/../lib/gcc/x86_64-w64-mingw32/5.3.0/../../../../x86_64-w64-mingw32/lib/../lib/libmsvcrt.a(dkpfs00140.o)
 .idata$7       0x0000000000484ca8        0x4 C:/Program Files/mingw-w64/x86_64-5.3.0-posix-seh-rt_v4-rev0/mingw64/bin/../lib/gcc/x86_64-w64-mingw32/5.3.0/../../../../x86_64-w64-mingw32/lib/../lib/libmsvcrt.a(dkpfs00149.o)
 .idata$7       0x0000000000484cac        0x4 C:/Program Files/mingw-w64/x86_64-5.3.0-posix-seh-rt_v4-rev0/mingw64/bin/../lib/gcc/x86_64-w64-mingw32/5.3.0/../../../../x86_64-w64-mingw32/lib/../lib/libmsvcrt.a(dkpfs00201.o)
 .idata$7       0x0000000000484cb0        0x4 C:/Program Files/mingw-w64/x86_64-5.3.0-posix-seh-rt_v4-rev0/mingw64/bin/../lib/gcc/x86_64-w64-mingw32/5.3.0/../../../../x86_64-w64-mingw32/lib/../lib/libmsvcrt.a(dkpfs00234.o)
 .idata$7       0x0000000000484cb4        0x4 C:/Program Files/mingw-w64/x86_64-5.3.0-posix-seh-rt_v4-rev0/mingw64/bin/../lib/gcc/x86_64-w64-mingw32/5.3.0/../../../../x86_64-w64-mingw32/lib/../lib/libmsvcrt.a(dkpfs00235.o)
 .idata$7       0x0000000000484cb8        0x4 C:/Program Files/mingw-w64/x86_64-5.3.0-posix-seh-rt_v4-rev0/mingw64/bin/../lib/gcc/x86_64-w64-mingw32/5.3.0/../../../../x86_64-w64-mingw32/lib/../lib/libmsvcrt.a(dkpfs00238.o)
 .idata$7       0x0000000000484cbc        0x4 C:/Program Files/mingw-w64/x86_64-5.3.0-posix-seh-rt_v4-rev0/mingw64/bin/../lib/gcc/x86_64-w64-mingw32/5.3.0/../../../../x86_64-w64-mingw32/lib/../lib/libmsvcrt.a(dkpfs00242.o)
 .idata$7       0x0000000000484cc0        0x4 C:/Program Files/mingw-w64/x86_64-5.3.0-posix-seh-rt_v4-rev0/mingw64/bin/../lib/gcc/x86_64-w64-mingw32/5.3.0/../../../../x86_64-w64-mingw32/lib/../lib/libmsvcrt.a(dkpfs00251.o)
 .idata$7       0x0000000000484cc4        0x4 C:/Program Files/mingw-w64/x86_64-5.3.0-posix-seh-rt_v4-rev0/mingw64/bin/../lib/gcc/x86_64-w64-mingw32/5.3.0/../../../../x86_64-w64-mingw32/lib/../lib/libmsvcrt.a(dkpfs00330.o)
 .idata$7       0x0000000000484cc8        0x4 C:/Program Files/mingw-w64/x86_64-5.3.0-posix-seh-rt_v4-rev0/mingw64/bin/../lib/gcc/x86_64-w64-mingw32/5.3.0/../../../../x86_64-w64-mingw32/lib/../lib/libmsvcrt.a(dkpfs00438.o)
 .idata$7       0x0000000000484ccc        0x4 C:/Program Files/mingw-w64/x86_64-5.3.0-posix-seh-rt_v4-rev0/mingw64/bin/../lib/gcc/x86_64-w64-mingw32/5.3.0/../../../../x86_64-w64-mingw32/lib/../lib/libmsvcrt.a(dkpfs00439.o)
 .idata$7       0x0000000000484cd0        0x4 C:/Program Files/mingw-w64/x86_64-5.3.0-posix-seh-rt_v4-rev0/mingw64/bin/../lib/gcc/x86_64-w64-mingw32/5.3.0/../../../../x86_64-w64-mingw32/lib/../lib/libmsvcrt.a(dkpfs00599.o)
 .idata$7       0x0000000000484cd4        0x4 C:/Program Files/mingw-w64/x86_64-5.3.0-posix-seh-rt_v4-rev0/mingw64/bin/../lib/gcc/x86_64-w64-mingw32/5.3.0/../../../../x86_64-w64-mingw32/lib/../lib/libmsvcrt.a(dkpfs00611.o)
 .idata$7       0x0000000000484cd8        0x4 C:/Program Files/mingw-w64/x86_64-5.3.0-posix-seh-rt_v4-rev0/mingw64/bin/../lib/gcc/x86_64-w64-mingw32/5.3.0/../../../../x86_64-w64-mingw32/lib/../lib/libmsvcrt.a(dkpfs00667.o)
 .idata$7       0x0000000000484cdc        0x4 C:/Program Files/mingw-w64/x86_64-5.3.0-posix-seh-rt_v4-rev0/mingw64/bin/../lib/gcc/x86_64-w64-mingw32/5.3.0/../../../../x86_64-w64-mingw32/lib/../lib/libmsvcrt.a(dkpfs00719.o)
 .idata$7       0x0000000000484ce0        0x4 C:/Program Files/mingw-w64/x86_64-5.3.0-posix-seh-rt_v4-rev0/mingw64/bin/../lib/gcc/x86_64-w64-mingw32/5.3.0/../../../../x86_64-w64-mingw32/lib/../lib/libmsvcrt.a(dkpfs00731.o)
 .idata$7       0x0000000000484ce4        0x4 C:/Program Files/mingw-w64/x86_64-5.3.0-posix-seh-rt_v4-rev0/mingw64/bin/../lib/gcc/x86_64-w64-mingw32/5.3.0/../../../../x86_64-w64-mingw32/lib/../lib/libmsvcrt.a(dkpfs00768.o)
 .idata$7       0x0000000000484ce8        0x4 C:/Program Files/mingw-w64/x86_64-5.3.0-posix-seh-rt_v4-rev0/mingw64/bin/../lib/gcc/x86_64-w64-mingw32/5.3.0/../../../../x86_64-w64-mingw32/lib/../lib/libmsvcrt.a(dkpfs00788.o)
 .idata$7       0x0000000000484cec        0x4 C:/Program Files/mingw-w64/x86_64-5.3.0-posix-seh-rt_v4-rev0/mingw64/bin/../lib/gcc/x86_64-w64-mingw32/5.3.0/../../../../x86_64-w64-mingw32/lib/../lib/libmsvcrt.a(dkpfs00819.o)
 .idata$7       0x0000000000484cf0        0x4 C:/Program Files/mingw-w64/x86_64-5.3.0-posix-seh-rt_v4-rev0/mingw64/bin/../lib/gcc/x86_64-w64-mingw32/5.3.0/../../../../x86_64-w64-mingw32/lib/../lib/libmsvcrt.a(dkpfs01030.o)
 .idata$7       0x0000000000484cf4        0x4 C:/Program Files/mingw-w64/x86_64-5.3.0-posix-seh-rt_v4-rev0/mingw64/bin/../lib/gcc/x86_64-w64-mingw32/5.3.0/../../../../x86_64-w64-mingw32/lib/../lib/libmsvcrt.a(dkpfs01043.o)
 .idata$7       0x0000000000484cf8        0x4 C:/Program Files/mingw-w64/x86_64-5.3.0-posix-seh-rt_v4-rev0/mingw64/bin/../lib/gcc/x86_64-w64-mingw32/5.3.0/../../../../x86_64-w64-mingw32/lib/../lib/libmsvcrt.a(dkpfs01047.o)
 .idata$7       0x0000000000484cfc        0x4 C:/Program Files/mingw-w64/x86_64-5.3.0-posix-seh-rt_v4-rev0/mingw64/bin/../lib/gcc/x86_64-w64-mingw32/5.3.0/../../../../x86_64-w64-mingw32/lib/../lib/libmsvcrt.a(dkpfs01052.o)
 .idata$7       0x0000000000484d00        0x4 C:/Program Files/mingw-w64/x86_64-5.3.0-posix-seh-rt_v4-rev0/mingw64/bin/../lib/gcc/x86_64-w64-mingw32/5.3.0/../../../../x86_64-w64-mingw32/lib/../lib/libmsvcrt.a(dkpfs01060.o)
 .idata$7       0x0000000000484d04        0x4 C:/Program Files/mingw-w64/x86_64-5.3.0-posix-seh-rt_v4-rev0/mingw64/bin/../lib/gcc/x86_64-w64-mingw32/5.3.0/../../../../x86_64-w64-mingw32/lib/../lib/libmsvcrt.a(dkpfs01064.o)
 .idata$7       0x0000000000484d08        0x4 C:/Program Files/mingw-w64/x86_64-5.3.0-posix-seh-rt_v4-rev0/mingw64/bin/../lib/gcc/x86_64-w64-mingw32/5.3.0/../../../../x86_64-w64-mingw32/lib/../lib/libmsvcrt.a(dkpfs01067.o)
 .idata$7       0x0000000000484d0c        0x4 C:/Program Files/mingw-w64/x86_64-5.3.0-posix-seh-rt_v4-rev0/mingw64/bin/../lib/gcc/x86_64-w64-mingw32/5.3.0/../../../../x86_64-w64-mingw32/lib/../lib/libmsvcrt.a(dkpfs01077.o)
 .idata$7       0x0000000000484d10        0x4 C:/Program Files/mingw-w64/x86_64-5.3.0-posix-seh-rt_v4-rev0/mingw64/bin/../lib/gcc/x86_64-w64-mingw32/5.3.0/../../../../x86_64-w64-mingw32/lib/../lib/libmsvcrt.a(dkpfs01079.o)
 .idata$7       0x0000000000484d14        0x4 C:/Program Files/mingw-w64/x86_64-5.3.0-posix-seh-rt_v4-rev0/mingw64/bin/../lib/gcc/x86_64-w64-mingw32/5.3.0/../../../../x86_64-w64-mingw32/lib/../lib/libmsvcrt.a(dkpfs01085.o)
 .idata$7       0x0000000000484d18        0x4 C:/Program Files/mingw-w64/x86_64-5.3.0-posix-seh-rt_v4-rev0/mingw64/bin/../lib/gcc/x86_64-w64-mingw32/5.3.0/../../../../x86_64-w64-mingw32/lib/../lib/libmsvcrt.a(dkpfs01086.o)
 .idata$7       0x0000000000484d1c        0x4 C:/Program Files/mingw-w64/x86_64-5.3.0-posix-seh-rt_v4-rev0/mingw64/bin/../lib/gcc/x86_64-w64-mingw32/5.3.0/../../../../x86_64-w64-mingw32/lib/../lib/libmsvcrt.a(dkpfs01092.o)
 .idata$7       0x0000000000484d20        0x4 C:/Program Files/mingw-w64/x86_64-5.3.0-posix-seh-rt_v4-rev0/mingw64/bin/../lib/gcc/x86_64-w64-mingw32/5.3.0/../../../../x86_64-w64-mingw32/lib/../lib/libmsvcrt.a(dkpfs01094.o)
 .idata$7       0x0000000000484d24        0x4 C:/Program Files/mingw-w64/x86_64-5.3.0-posix-seh-rt_v4-rev0/mingw64/bin/../lib/gcc/x86_64-w64-mingw32/5.3.0/../../../../x86_64-w64-mingw32/lib/../lib/libmsvcrt.a(dkpfs01097.o)
 .idata$7       0x0000000000484d28        0x4 C:/Program Files/mingw-w64/x86_64-5.3.0-posix-seh-rt_v4-rev0/mingw64/bin/../lib/gcc/x86_64-w64-mingw32/5.3.0/../../../../x86_64-w64-mingw32/lib/../lib/libmsvcrt.a(dkpfs01100.o)
 .idata$7       0x0000000000484d2c        0x4 C:/Program Files/mingw-w64/x86_64-5.3.0-posix-seh-rt_v4-rev0/mingw64/bin/../lib/gcc/x86_64-w64-mingw32/5.3.0/../../../../x86_64-w64-mingw32/lib/../lib/libmsvcrt.a(dkpfs01102.o)
 .idata$7       0x0000000000484d30        0x4 C:/Program Files/mingw-w64/x86_64-5.3.0-posix-seh-rt_v4-rev0/mingw64/bin/../lib/gcc/x86_64-w64-mingw32/5.3.0/../../../../x86_64-w64-mingw32/lib/../lib/libmsvcrt.a(dkpfs01109.o)
 .idata$7       0x0000000000484d34        0x4 C:/Program Files/mingw-w64/x86_64-5.3.0-posix-seh-rt_v4-rev0/mingw64/bin/../lib/gcc/x86_64-w64-mingw32/5.3.0/../../../../x86_64-w64-mingw32/lib/../lib/libmsvcrt.a(dkpfs01110.o)
 .idata$7       0x0000000000484d38        0x4 C:/Program Files/mingw-w64/x86_64-5.3.0-posix-seh-rt_v4-rev0/mingw64/bin/../lib/gcc/x86_64-w64-mingw32/5.3.0/../../../../x86_64-w64-mingw32/lib/../lib/libmsvcrt.a(dkpfs01118.o)
 .idata$7       0x0000000000484d3c        0x4 C:/Program Files/mingw-w64/x86_64-5.3.0-posix-seh-rt_v4-rev0/mingw64/bin/../lib/gcc/x86_64-w64-mingw32/5.3.0/../../../../x86_64-w64-mingw32/lib/../lib/libmsvcrt.a(dkpfs01138.o)
 .idata$7       0x0000000000484d40        0x4 C:/Program Files/mingw-w64/x86_64-5.3.0-posix-seh-rt_v4-rev0/mingw64/bin/../lib/gcc/x86_64-w64-mingw32/5.3.0/../../../../x86_64-w64-mingw32/lib/../lib/libmsvcrt.a(dkpfs01144.o)
 .idata$7       0x0000000000484d44        0x4 C:/Program Files/mingw-w64/x86_64-5.3.0-posix-seh-rt_v4-rev0/mingw64/bin/../lib/gcc/x86_64-w64-mingw32/5.3.0/../../../../x86_64-w64-mingw32/lib/../lib/libmsvcrt.a(dkpfs01145.o)
 .idata$7       0x0000000000484d48        0x4 C:/Program Files/mingw-w64/x86_64-5.3.0-posix-seh-rt_v4-rev0/mingw64/bin/../lib/gcc/x86_64-w64-mingw32/5.3.0/../../../../x86_64-w64-mingw32/lib/../lib/libmsvcrt.a(dkpfs01152.o)
 .idata$7       0x0000000000484d4c        0x4 C:/Program Files/mingw-w64/x86_64-5.3.0-posix-seh-rt_v4-rev0/mingw64/bin/../lib/gcc/x86_64-w64-mingw32/5.3.0/../../../../x86_64-w64-mingw32/lib/../lib/libmsvcrt.a(dkpfs01153.o)
 .idata$7       0x0000000000484d50        0x4 C:/Program Files/mingw-w64/x86_64-5.3.0-posix-seh-rt_v4-rev0/mingw64/bin/../lib/gcc/x86_64-w64-mingw32/5.3.0/../../../../x86_64-w64-mingw32/lib/../lib/libmsvcrt.a(dkpfs01154.o)
 .idata$7       0x0000000000484d54        0x4 C:/Program Files/mingw-w64/x86_64-5.3.0-posix-seh-rt_v4-rev0/mingw64/bin/../lib/gcc/x86_64-w64-mingw32/5.3.0/../../../../x86_64-w64-mingw32/lib/../lib/libmsvcrt.a(dkpfs01155.o)
 .idata$7       0x0000000000484d58        0x4 C:/Program Files/mingw-w64/x86_64-5.3.0-posix-seh-rt_v4-rev0/mingw64/bin/../lib/gcc/x86_64-w64-mingw32/5.3.0/../../../../x86_64-w64-mingw32/lib/../lib/libmsvcrt.a(dkpfs01162.o)
 .idata$7       0x0000000000484d5c        0x4 C:/Program Files/mingw-w64/x86_64-5.3.0-posix-seh-rt_v4-rev0/mingw64/bin/../lib/gcc/x86_64-w64-mingw32/5.3.0/../../../../x86_64-w64-mingw32/lib/../lib/libmsvcrt.a(dkpfs01165.o)
 .idata$7       0x0000000000484d60        0x4 C:/Program Files/mingw-w64/x86_64-5.3.0-posix-seh-rt_v4-rev0/mingw64/bin/../lib/gcc/x86_64-w64-mingw32/5.3.0/../../../../x86_64-w64-mingw32/lib/../lib/libmsvcrt.a(dkpfs01166.o)
 .idata$7       0x0000000000484d64        0x4 C:/Program Files/mingw-w64/x86_64-5.3.0-posix-seh-rt_v4-rev0/mingw64/bin/../lib/gcc/x86_64-w64-mingw32/5.3.0/../../../../x86_64-w64-mingw32/lib/../lib/libmsvcrt.a(dkpfs01169.o)
 .idata$7       0x0000000000484d68        0x4 C:/Program Files/mingw-w64/x86_64-5.3.0-posix-seh-rt_v4-rev0/mingw64/bin/../lib/gcc/x86_64-w64-mingw32/5.3.0/../../../../x86_64-w64-mingw32/lib/../lib/libmsvcrt.a(dkpfs01174.o)
 .idata$7       0x0000000000484d6c        0x4 C:/Program Files/mingw-w64/x86_64-5.3.0-posix-seh-rt_v4-rev0/mingw64/bin/../lib/gcc/x86_64-w64-mingw32/5.3.0/../../../../x86_64-w64-mingw32/lib/../lib/libmsvcrt.a(dkpfs01176.o)
 .idata$7       0x0000000000484d70        0x4 C:/Program Files/mingw-w64/x86_64-5.3.0-posix-seh-rt_v4-rev0/mingw64/bin/../lib/gcc/x86_64-w64-mingw32/5.3.0/../../../../x86_64-w64-mingw32/lib/../lib/libmsvcrt.a(dkpfs01183.o)
 .idata$7       0x0000000000484d74        0x4 C:/Program Files/mingw-w64/x86_64-5.3.0-posix-seh-rt_v4-rev0/mingw64/bin/../lib/gcc/x86_64-w64-mingw32/5.3.0/../../../../x86_64-w64-mingw32/lib/../lib/libmsvcrt.a(dkpfs01188.o)
 .idata$7       0x0000000000484d78        0x4 C:/Program Files/mingw-w64/x86_64-5.3.0-posix-seh-rt_v4-rev0/mingw64/bin/../lib/gcc/x86_64-w64-mingw32/5.3.0/../../../../x86_64-w64-mingw32/lib/../lib/libmsvcrt.a(dkpfs01194.o)
 .idata$7       0x0000000000484d7c        0x4 C:/Program Files/mingw-w64/x86_64-5.3.0-posix-seh-rt_v4-rev0/mingw64/bin/../lib/gcc/x86_64-w64-mingw32/5.3.0/../../../../x86_64-w64-mingw32/lib/../lib/libmsvcrt.a(dkpfs01196.o)
 .idata$7       0x0000000000484d80        0x4 C:/Program Files/mingw-w64/x86_64-5.3.0-posix-seh-rt_v4-rev0/mingw64/bin/../lib/gcc/x86_64-w64-mingw32/5.3.0/../../../../x86_64-w64-mingw32/lib/../lib/libmsvcrt.a(dkpfs01197.o)
 .idata$7       0x0000000000484d84        0x4 C:/Program Files/mingw-w64/x86_64-5.3.0-posix-seh-rt_v4-rev0/mingw64/bin/../lib/gcc/x86_64-w64-mingw32/5.3.0/../../../../x86_64-w64-mingw32/lib/../lib/libmsvcrt.a(dkpfs01199.o)
 .idata$7       0x0000000000484d88        0x4 C:/Program Files/mingw-w64/x86_64-5.3.0-posix-seh-rt_v4-rev0/mingw64/bin/../lib/gcc/x86_64-w64-mingw32/5.3.0/../../../../x86_64-w64-mingw32/lib/../lib/libmsvcrt.a(dkpfs01204.o)
 .idata$7       0x0000000000484d8c        0x4 C:/Program Files/mingw-w64/x86_64-5.3.0-posix-seh-rt_v4-rev0/mingw64/bin/../lib/gcc/x86_64-w64-mingw32/5.3.0/../../../../x86_64-w64-mingw32/lib/../lib/libmsvcrt.a(dkpfs01207.o)
 .idata$7       0x0000000000484d90        0x4 C:/Program Files/mingw-w64/x86_64-5.3.0-posix-seh-rt_v4-rev0/mingw64/bin/../lib/gcc/x86_64-w64-mingw32/5.3.0/../../../../x86_64-w64-mingw32/lib/../lib/libmsvcrt.a(dkpfs01208.o)
 .idata$7       0x0000000000484d94        0x4 C:/Program Files/mingw-w64/x86_64-5.3.0-posix-seh-rt_v4-rev0/mingw64/bin/../lib/gcc/x86_64-w64-mingw32/5.3.0/../../../../x86_64-w64-mingw32/lib/../lib/libmsvcrt.a(dkpfs01215.o)
 .idata$7       0x0000000000484d98        0x4 C:/Program Files/mingw-w64/x86_64-5.3.0-posix-seh-rt_v4-rev0/mingw64/bin/../lib/gcc/x86_64-w64-mingw32/5.3.0/../../../../x86_64-w64-mingw32/lib/../lib/libmsvcrt.a(dkpfs01233.o)
 .idata$7       0x0000000000484d9c        0x4 C:/Program Files/mingw-w64/x86_64-5.3.0-posix-seh-rt_v4-rev0/mingw64/bin/../lib/gcc/x86_64-w64-mingw32/5.3.0/../../../../x86_64-w64-mingw32/lib/../lib/libmsvcrt.a(dkpfs01239.o)
 .idata$7       0x0000000000484da0        0x4 C:/Program Files/mingw-w64/x86_64-5.3.0-posix-seh-rt_v4-rev0/mingw64/bin/../lib/gcc/x86_64-w64-mingw32/5.3.0/../../../../x86_64-w64-mingw32/lib/../lib/libmsvcrt.a(dkpfs01245.o)
 .idata$7       0x0000000000484da4        0xc C:/Program Files/mingw-w64/x86_64-5.3.0-posix-seh-rt_v4-rev0/mingw64/bin/../lib/gcc/x86_64-w64-mingw32/5.3.0/../../../../x86_64-w64-mingw32/lib/../lib/libmsvcrt.a(dkpft.o)
                0x0000000000484da4                __lib64_libmsvcrt_a_iname

.CRT            0x0000000000485000      0x200
                0x0000000000485000                ___crt_xc_start__ = .
 *(SORT(.CRT$XC*))
 .CRT$XCA       0x0000000000485000        0x8 C:/Program Files/mingw-w64/x86_64-5.3.0-posix-seh-rt_v4-rev0/mingw64/bin/../lib/gcc/x86_64-w64-mingw32/5.3.0/../../../../x86_64-w64-mingw32/lib/../lib/libmingw32.a(lib64_libmingw32_a-cinitexe.o)
                0x0000000000485000                __xc_a
 .CRT$XCAA      0x0000000000485008        0x8 C:/Program Files/mingw-w64/x86_64-5.3.0-posix-seh-rt_v4-rev0/mingw64/bin/../lib/gcc/x86_64-w64-mingw32/5.3.0/../../../../x86_64-w64-mingw32/lib/../lib/crt2.o
                0x0000000000485008                mingw_pcppinit
 .CRT$XCZ       0x0000000000485010        0x8 C:/Program Files/mingw-w64/x86_64-5.3.0-posix-seh-rt_v4-rev0/mingw64/bin/../lib/gcc/x86_64-w64-mingw32/5.3.0/../../../../x86_64-w64-mingw32/lib/../lib/libmingw32.a(lib64_libmingw32_a-cinitexe.o)
                0x0000000000485010                __xc_z
                0x0000000000485018                ___crt_xc_end__ = .
                0x0000000000485018                ___crt_xi_start__ = .
 *(SORT(.CRT$XI*))
 .CRT$XIA       0x0000000000485018        0x8 C:/Program Files/mingw-w64/x86_64-5.3.0-posix-seh-rt_v4-rev0/mingw64/bin/../lib/gcc/x86_64-w64-mingw32/5.3.0/../../../../x86_64-w64-mingw32/lib/../lib/libmingw32.a(lib64_libmingw32_a-cinitexe.o)
                0x0000000000485018                __xi_a
 .CRT$XIAA      0x0000000000485020        0x8 C:/Program Files/mingw-w64/x86_64-5.3.0-posix-seh-rt_v4-rev0/mingw64/bin/../lib/gcc/x86_64-w64-mingw32/5.3.0/../../../../x86_64-w64-mingw32/lib/../lib/crt2.o
                0x0000000000485020                mingw_pcinit
 .CRT$XIC       0x0000000000485028        0x8 C:/Program Files/mingw-w64/x86_64-5.3.0-posix-seh-rt_v4-rev0/mingw64/bin/../lib/gcc/x86_64-w64-mingw32/5.3.0/../../../../x86_64-w64-mingw32/lib/../lib/libmingw32.a(lib64_libmingw32_a-charmax.o)
                0x0000000000485028                __mingw_pinit
 .CRT$XIZ       0x0000000000485030        0x8 C:/Program Files/mingw-w64/x86_64-5.3.0-posix-seh-rt_v4-rev0/mingw64/bin/../lib/gcc/x86_64-w64-mingw32/5.3.0/../../../../x86_64-w64-mingw32/lib/../lib/libmingw32.a(lib64_libmingw32_a-cinitexe.o)
                0x0000000000485030                __xi_z
                0x0000000000485038                ___crt_xi_end__ = .
                0x0000000000485038                ___crt_xl_start__ = .
 *(SORT(.CRT$XL*))
 .CRT$XLA       0x0000000000485038        0x8 C:/Program Files/mingw-w64/x86_64-5.3.0-posix-seh-rt_v4-rev0/mingw64/bin/../lib/gcc/x86_64-w64-mingw32/5.3.0/../../../../x86_64-w64-mingw32/lib/../lib/libmingw32.a(lib64_libmingw32_a-tlssup.o)
                0x0000000000485038                __xl_a
 .CRT$XLC       0x0000000000485040        0x8 C:/Program Files/mingw-w64/x86_64-5.3.0-posix-seh-rt_v4-rev0/mingw64/bin/../lib/gcc/x86_64-w64-mingw32/5.3.0/../../../../x86_64-w64-mingw32/lib/../lib/libmingw32.a(lib64_libmingw32_a-tlssup.o)
                0x0000000000485040                __xl_c
 .CRT$XLD       0x0000000000485048        0x8 C:/Program Files/mingw-w64/x86_64-5.3.0-posix-seh-rt_v4-rev0/mingw64/bin/../lib/gcc/x86_64-w64-mingw32/5.3.0/../../../../x86_64-w64-mingw32/lib/../lib/libmingw32.a(lib64_libmingw32_a-tlssup.o)
                0x0000000000485048                __xl_d
 .CRT$XLZ       0x0000000000485050        0x8 C:/Program Files/mingw-w64/x86_64-5.3.0-posix-seh-rt_v4-rev0/mingw64/bin/../lib/gcc/x86_64-w64-mingw32/5.3.0/../../../../x86_64-w64-mingw32/lib/../lib/libmingw32.a(lib64_libmingw32_a-tlssup.o)
                0x0000000000485050                __xl_z
                0x0000000000485058                ___crt_xp_start__ = .
 *(SORT(.CRT$XP*))
                0x0000000000485058                ___crt_xp_end__ = .
                0x0000000000485058                ___crt_xt_start__ = .
 *(SORT(.CRT$XT*))
                0x0000000000485058                ___crt_xt_end__ = .
 .CRT$XDA       0x0000000000485058        0x8 C:/Program Files/mingw-w64/x86_64-5.3.0-posix-seh-rt_v4-rev0/mingw64/bin/../lib/gcc/x86_64-w64-mingw32/5.3.0/../../../../x86_64-w64-mingw32/lib/../lib/libmingw32.a(lib64_libmingw32_a-tlssup.o)
 .CRT$XDZ       0x0000000000485060        0x8 C:/Program Files/mingw-w64/x86_64-5.3.0-posix-seh-rt_v4-rev0/mingw64/bin/../lib/gcc/x86_64-w64-mingw32/5.3.0/../../../../x86_64-w64-mingw32/lib/../lib/libmingw32.a(lib64_libmingw32_a-tlssup.o)

.tls            0x0000000000486000      0x200
                0x0000000000486000                ___tls_start__ = .
 *(.tls$AAA)
 .tls$AAA       0x0000000000486000        0x8 C:/Program Files/mingw-w64/x86_64-5.3.0-posix-seh-rt_v4-rev0/mingw64/bin/../lib/gcc/x86_64-w64-mingw32/5.3.0/../../../../x86_64-w64-mingw32/lib/../lib/libmingw32.a(lib64_libmingw32_a-tlssup.o)
                0x0000000000486000                _tls_start
 *(.tls)
 *fill*         0x0000000000486008       0x18 
 .tls           0x0000000000486020       0x40 C:/Program Files/mingw-w64/x86_64-5.3.0-posix-seh-rt_v4-rev0/mingw64/bin/../lib/gcc/x86_64-w64-mingw32/5.3.0/../../../../x86_64-w64-mingw32/lib/../lib/libmingw32.a(lib64_libmingw32_a-tlssup.o)
                0x0000000000486020                _tls_used
 *(.tls$)
 *(SORT(.tls$*))
 .tls$ZZZ       0x0000000000486060        0x8 C:/Program Files/mingw-w64/x86_64-5.3.0-posix-seh-rt_v4-rev0/mingw64/bin/../lib/gcc/x86_64-w64-mingw32/5.3.0/../../../../x86_64-w64-mingw32/lib/../lib/libmingw32.a(lib64_libmingw32_a-tlssup.o)
                0x0000000000486060                _tls_end
 *(.tls$ZZZ)
                0x0000000000486068                ___tls_end__ = .

.endjunk        0x0000000000487000        0x0
                0x0000000000487000                PROVIDE (end, .)
                0x0000000000487000                PROVIDE (_end, .)
                0x0000000000487000                __end__ = .

.rsrc
 *(.rsrc)
 *(.rsrc$*)

.reloc
 *(.reloc)

.stab
 *(.stab)

.stabstr
 *(.stabstr)

.debug_aranges
 *(.debug_aranges)

.zdebug_aranges
 *(.zdebug_aranges)

.debug_pubnames
 *(.debug_pubnames)

.zdebug_pubnames
 *(.zdebug_pubnames)

.debug_pubtypes
 *(.debug_pubtypes)

.zdebug_pubtypes
 *(.zdebug_pubtypes)

.debug_info
 *(.debug_info .gnu.linkonce.wi.*)

.zdebug_info
 *(.zdebug_info .zdebug.gnu.linkonce.wi.*)

.debug_abbrev
 *(.debug_abbrev)

.zdebug_abbrev
 *(.zdebug_abbrev)

.debug_line
 *(.debug_line)

.zdebug_line
 *(.zdebug_line)

.debug_frame
 *(.debug_frame)

.zdebug_frame
 *(.zdebug_frame)

.debug_str
 *(.debug_str)

.zdebug_str
 *(.zdebug_str)

.debug_loc
 *(.debug_loc)

.zdebug_loc
 *(.zdebug_loc)

.debug_macinfo
 *(.debug_macinfo)

.zdebug_macinfo
 *(.zdebug_macinfo)

.debug_weaknames
 *(.debug_weaknames)

.zdebug_weaknames
 *(.zdebug_weaknames)

.debug_funcnames
 *(.debug_funcnames)

.zdebug_funcnames
 *(.zdebug_funcnames)

.debug_typenames
 *(.debug_typenames)

.zdebug_typenames
 *(.zdebug_typenames)

.debug_varnames
 *(.debug_varnames)

.zdebug_varnames
 *(.zdebug_varnames)

.debug_macro
 *(.debug_macro)

.zdebug_macro
 *(.zdebug_macro)

.debug_ranges
 *(.debug_ranges)

.zdebug_ranges
 *(.zdebug_ranges)

.debug_types
 *(.debug_types .gnu.linkonce.wt.*)

.zdebug_types
 *(.zdebug_types .zdebug.gnu.linkonce.wt.*)
OUTPUT(MinGW-w64R/hjwasm.exe pei-x86-64)
