Archive member included to satisfy reference by file (symbol)

C:/Program Files/mingw-w64/x86_64-5.3.0-posix-seh-rt_v4-rev0/mingw64/bin/../lib/gcc/x86_64-w64-mingw32/5.3.0/../../../../x86_64-w64-mingw32/lib/../lib/libmingw32.a(lib64_libmingw32_a-atonexit.o)
                              C:/Program Files/mingw-w64/x86_64-5.3.0-posix-seh-rt_v4-rev0/mingw64/bin/../lib/gcc/x86_64-w64-mingw32/5.3.0/crtbegin.o (atexit)
C:/Program Files/mingw-w64/x86_64-5.3.0-posix-seh-rt_v4-rev0/mingw64/bin/../lib/gcc/x86_64-w64-mingw32/5.3.0/../../../../x86_64-w64-mingw32/lib/../lib/libmingw32.a(lib64_libmingw32_a-gccmain.o)
                              C:/Program Files/mingw-w64/x86_64-5.3.0-posix-seh-rt_v4-rev0/mingw64/bin/../lib/gcc/x86_64-w64-mingw32/5.3.0/../../../../x86_64-w64-mingw32/lib/../lib/crt2.o (__main)
C:/Program Files/mingw-w64/x86_64-5.3.0-posix-seh-rt_v4-rev0/mingw64/bin/../lib/gcc/x86_64-w64-mingw32/5.3.0/../../../../x86_64-w64-mingw32/lib/../lib/libmingw32.a(lib64_libmingw32_a-natstart.o)
                              C:/Program Files/mingw-w64/x86_64-5.3.0-posix-seh-rt_v4-rev0/mingw64/bin/../lib/gcc/x86_64-w64-mingw32/5.3.0/../../../../x86_64-w64-mingw32/lib/../lib/crt2.o (__native_startup_lock)
C:/Program Files/mingw-w64/x86_64-5.3.0-posix-seh-rt_v4-rev0/mingw64/bin/../lib/gcc/x86_64-w64-mingw32/5.3.0/../../../../x86_64-w64-mingw32/lib/../lib/libmingw32.a(lib64_libmingw32_a-wildcard.o)
                              C:/Program Files/mingw-w64/x86_64-5.3.0-posix-seh-rt_v4-rev0/mingw64/bin/../lib/gcc/x86_64-w64-mingw32/5.3.0/../../../../x86_64-w64-mingw32/lib/../lib/crt2.o (_dowildcard)
C:/Program Files/mingw-w64/x86_64-5.3.0-posix-seh-rt_v4-rev0/mingw64/bin/../lib/gcc/x86_64-w64-mingw32/5.3.0/../../../../x86_64-w64-mingw32/lib/../lib/libmingw32.a(lib64_libmingw32_a-charmax.o)
                              C:/Program Files/mingw-w64/x86_64-5.3.0-posix-seh-rt_v4-rev0/mingw64/bin/../lib/gcc/x86_64-w64-mingw32/5.3.0/../../../../x86_64-w64-mingw32/lib/../lib/crt2.o (mingw_initcharmax)
C:/Program Files/mingw-w64/x86_64-5.3.0-posix-seh-rt_v4-rev0/mingw64/bin/../lib/gcc/x86_64-w64-mingw32/5.3.0/../../../../x86_64-w64-mingw32/lib/../lib/libmingw32.a(lib64_libmingw32_a-dllargv.o)
                              C:/Program Files/mingw-w64/x86_64-5.3.0-posix-seh-rt_v4-rev0/mingw64/bin/../lib/gcc/x86_64-w64-mingw32/5.3.0/../../../../x86_64-w64-mingw32/lib/../lib/crt2.o (_setargv)
C:/Program Files/mingw-w64/x86_64-5.3.0-posix-seh-rt_v4-rev0/mingw64/bin/../lib/gcc/x86_64-w64-mingw32/5.3.0/../../../../x86_64-w64-mingw32/lib/../lib/libmingw32.a(lib64_libmingw32_a-gs_support.o)
                              C:/Program Files/mingw-w64/x86_64-5.3.0-posix-seh-rt_v4-rev0/mingw64/bin/../lib/gcc/x86_64-w64-mingw32/5.3.0/../../../../x86_64-w64-mingw32/lib/../lib/crt2.o (__security_init_cookie)
C:/Program Files/mingw-w64/x86_64-5.3.0-posix-seh-rt_v4-rev0/mingw64/bin/../lib/gcc/x86_64-w64-mingw32/5.3.0/../../../../x86_64-w64-mingw32/lib/../lib/libmingw32.a(lib64_libmingw32_a-_newmode.o)
                              C:/Program Files/mingw-w64/x86_64-5.3.0-posix-seh-rt_v4-rev0/mingw64/bin/../lib/gcc/x86_64-w64-mingw32/5.3.0/../../../../x86_64-w64-mingw32/lib/../lib/crt2.o (_newmode)
C:/Program Files/mingw-w64/x86_64-5.3.0-posix-seh-rt_v4-rev0/mingw64/bin/../lib/gcc/x86_64-w64-mingw32/5.3.0/../../../../x86_64-w64-mingw32/lib/../lib/libmingw32.a(lib64_libmingw32_a-tlssup.o)
                              C:/Program Files/mingw-w64/x86_64-5.3.0-posix-seh-rt_v4-rev0/mingw64/bin/../lib/gcc/x86_64-w64-mingw32/5.3.0/../../../../x86_64-w64-mingw32/lib/../lib/crt2.o (mingw_initltssuo_force)
C:/Program Files/mingw-w64/x86_64-5.3.0-posix-seh-rt_v4-rev0/mingw64/bin/../lib/gcc/x86_64-w64-mingw32/5.3.0/../../../../x86_64-w64-mingw32/lib/../lib/libmingw32.a(lib64_libmingw32_a-cinitexe.o)
                              C:/Program Files/mingw-w64/x86_64-5.3.0-posix-seh-rt_v4-rev0/mingw64/bin/../lib/gcc/x86_64-w64-mingw32/5.3.0/../../../../x86_64-w64-mingw32/lib/../lib/crt2.o (__xc_z)
C:/Program Files/mingw-w64/x86_64-5.3.0-posix-seh-rt_v4-rev0/mingw64/bin/../lib/gcc/x86_64-w64-mingw32/5.3.0/../../../../x86_64-w64-mingw32/lib/../lib/libmingw32.a(lib64_libmingw32_a-merr.o)
                              C:/Program Files/mingw-w64/x86_64-5.3.0-posix-seh-rt_v4-rev0/mingw64/bin/../lib/gcc/x86_64-w64-mingw32/5.3.0/../../../../x86_64-w64-mingw32/lib/../lib/crt2.o (__mingw_setusermatherr)
C:/Program Files/mingw-w64/x86_64-5.3.0-posix-seh-rt_v4-rev0/mingw64/bin/../lib/gcc/x86_64-w64-mingw32/5.3.0/../../../../x86_64-w64-mingw32/lib/../lib/libmingw32.a(lib64_libmingw32_a-CRT_fp10.o)
                              C:/Program Files/mingw-w64/x86_64-5.3.0-posix-seh-rt_v4-rev0/mingw64/bin/../lib/gcc/x86_64-w64-mingw32/5.3.0/../../../../x86_64-w64-mingw32/lib/../lib/crt2.o (_fpreset)
C:/Program Files/mingw-w64/x86_64-5.3.0-posix-seh-rt_v4-rev0/mingw64/bin/../lib/gcc/x86_64-w64-mingw32/5.3.0/../../../../x86_64-w64-mingw32/lib/../lib/libmingw32.a(lib64_libmingw32_a-mingw_helpers.o)
                              C:/Program Files/mingw-w64/x86_64-5.3.0-posix-seh-rt_v4-rev0/mingw64/bin/../lib/gcc/x86_64-w64-mingw32/5.3.0/../../../../x86_64-w64-mingw32/lib/../lib/libmingw32.a(lib64_libmingw32_a-atonexit.o) (_decode_pointer)
C:/Program Files/mingw-w64/x86_64-5.3.0-posix-seh-rt_v4-rev0/mingw64/bin/../lib/gcc/x86_64-w64-mingw32/5.3.0/../../../../x86_64-w64-mingw32/lib/../lib/libmingw32.a(lib64_libmingw32_a-pseudo-reloc.o)
                              C:/Program Files/mingw-w64/x86_64-5.3.0-posix-seh-rt_v4-rev0/mingw64/bin/../lib/gcc/x86_64-w64-mingw32/5.3.0/../../../../x86_64-w64-mingw32/lib/../lib/crt2.o (_pei386_runtime_relocator)
C:/Program Files/mingw-w64/x86_64-5.3.0-posix-seh-rt_v4-rev0/mingw64/bin/../lib/gcc/x86_64-w64-mingw32/5.3.0/../../../../x86_64-w64-mingw32/lib/../lib/libmingw32.a(lib64_libmingw32_a-xtxtmode.o)
                              C:/Program Files/mingw-w64/x86_64-5.3.0-posix-seh-rt_v4-rev0/mingw64/bin/../lib/gcc/x86_64-w64-mingw32/5.3.0/../../../../x86_64-w64-mingw32/lib/../lib/crt2.o (_fmode)
C:/Program Files/mingw-w64/x86_64-5.3.0-posix-seh-rt_v4-rev0/mingw64/bin/../lib/gcc/x86_64-w64-mingw32/5.3.0/../../../../x86_64-w64-mingw32/lib/../lib/libmingw32.a(lib64_libmingw32_a-crt_handler.o)
                              C:/Program Files/mingw-w64/x86_64-5.3.0-posix-seh-rt_v4-rev0/mingw64/bin/../lib/gcc/x86_64-w64-mingw32/5.3.0/../../../../x86_64-w64-mingw32/lib/../lib/crt2.o (__mingw_init_ehandler)
C:/Program Files/mingw-w64/x86_64-5.3.0-posix-seh-rt_v4-rev0/mingw64/bin/../lib/gcc/x86_64-w64-mingw32/5.3.0/../../../../x86_64-w64-mingw32/lib/../lib/libmingw32.a(lib64_libmingw32_a-tlsthrd.o)
                              C:/Program Files/mingw-w64/x86_64-5.3.0-posix-seh-rt_v4-rev0/mingw64/bin/../lib/gcc/x86_64-w64-mingw32/5.3.0/../../../../x86_64-w64-mingw32/lib/../lib/libmingw32.a(lib64_libmingw32_a-tlssup.o) (__mingw_TLScallback)
C:/Program Files/mingw-w64/x86_64-5.3.0-posix-seh-rt_v4-rev0/mingw64/bin/../lib/gcc/x86_64-w64-mingw32/5.3.0/../../../../x86_64-w64-mingw32/lib/../lib/libmingw32.a(lib64_libmingw32_a-tlsmcrt.o)
                              C:/Program Files/mingw-w64/x86_64-5.3.0-posix-seh-rt_v4-rev0/mingw64/bin/../lib/gcc/x86_64-w64-mingw32/5.3.0/../../../../x86_64-w64-mingw32/lib/../lib/libmingw32.a(lib64_libmingw32_a-tlssup.o) (_CRT_MT)
C:/Program Files/mingw-w64/x86_64-5.3.0-posix-seh-rt_v4-rev0/mingw64/bin/../lib/gcc/x86_64-w64-mingw32/5.3.0/../../../../x86_64-w64-mingw32/lib/../lib/libmingw32.a(lib64_libmingw32_a-pseudo-reloc-list.o)
                              C:/Program Files/mingw-w64/x86_64-5.3.0-posix-seh-rt_v4-rev0/mingw64/bin/../lib/gcc/x86_64-w64-mingw32/5.3.0/../../../../x86_64-w64-mingw32/lib/../lib/libmingw32.a(lib64_libmingw32_a-pseudo-reloc.o) (__RUNTIME_PSEUDO_RELOC_LIST__)
C:/Program Files/mingw-w64/x86_64-5.3.0-posix-seh-rt_v4-rev0/mingw64/bin/../lib/gcc/x86_64-w64-mingw32/5.3.0/../../../../x86_64-w64-mingw32/lib/../lib/libmingw32.a(lib64_libmingw32_a-pesect.o)
                              C:/Program Files/mingw-w64/x86_64-5.3.0-posix-seh-rt_v4-rev0/mingw64/bin/../lib/gcc/x86_64-w64-mingw32/5.3.0/../../../../x86_64-w64-mingw32/lib/../lib/libmingw32.a(lib64_libmingw32_a-crt_handler.o) (_FindPESectionByName)
C:/Program Files/mingw-w64/x86_64-5.3.0-posix-seh-rt_v4-rev0/mingw64/bin/../lib/gcc/x86_64-w64-mingw32/5.3.0/libgcc.a(_chkstk_ms.o)
                              MinGW-w64D/assemble.o (___chkstk_ms)
C:/Program Files/mingw-w64/x86_64-5.3.0-posix-seh-rt_v4-rev0/mingw64/bin/../lib/gcc/x86_64-w64-mingw32/5.3.0/libgcc.a(_ctors.o)
                              C:/Program Files/mingw-w64/x86_64-5.3.0-posix-seh-rt_v4-rev0/mingw64/bin/../lib/gcc/x86_64-w64-mingw32/5.3.0/../../../../x86_64-w64-mingw32/lib/../lib/libmingw32.a(lib64_libmingw32_a-gccmain.o) (__DTOR_LIST__)
C:/Program Files/mingw-w64/x86_64-5.3.0-posix-seh-rt_v4-rev0/mingw64/bin/../lib/gcc/x86_64-w64-mingw32/5.3.0/../../../../x86_64-w64-mingw32/lib/../lib/libmingwex.a(lib64_libmingwex_a-strtodnrp.o)
                              MinGW-w64D/atofloat.o (__strtod)
C:/Program Files/mingw-w64/x86_64-5.3.0-posix-seh-rt_v4-rev0/mingw64/bin/../lib/gcc/x86_64-w64-mingw32/5.3.0/../../../../x86_64-w64-mingw32/lib/../lib/libmingwex.a(lib64_libmingwex_a-mingw_getsp.o)
                              MinGW-w64D/errmsg.o (longjmp)
C:/Program Files/mingw-w64/x86_64-5.3.0-posix-seh-rt_v4-rev0/mingw64/bin/../lib/gcc/x86_64-w64-mingw32/5.3.0/../../../../x86_64-w64-mingw32/lib/../lib/libmingwex.a(lib64_libmingwex_a-mingw_matherr.o)
                              C:/Program Files/mingw-w64/x86_64-5.3.0-posix-seh-rt_v4-rev0/mingw64/bin/../lib/gcc/x86_64-w64-mingw32/5.3.0/../../../../x86_64-w64-mingw32/lib/../lib/crt2.o (_MINGW_INSTALL_DEBUG_MATHERR)
C:/Program Files/mingw-w64/x86_64-5.3.0-posix-seh-rt_v4-rev0/mingw64/bin/../lib/gcc/x86_64-w64-mingw32/5.3.0/../../../../x86_64-w64-mingw32/lib/../lib/libmingwex.a(lib64_libmingwex_a-_findfirst64i32.o)
                              MinGW-w64D/main.o (_findfirst64i32)
C:/Program Files/mingw-w64/x86_64-5.3.0-posix-seh-rt_v4-rev0/mingw64/bin/../lib/gcc/x86_64-w64-mingw32/5.3.0/../../../../x86_64-w64-mingw32/lib/../lib/libmingwex.a(lib64_libmingwex_a-_findnext64i32.o)
                              MinGW-w64D/main.o (_findnext64i32)
C:/Program Files/mingw-w64/x86_64-5.3.0-posix-seh-rt_v4-rev0/mingw64/bin/../lib/gcc/x86_64-w64-mingw32/5.3.0/../../../../x86_64-w64-mingw32/lib/../lib/libmingwex.a(lib64_libmingwex_a-_stat64i32.o)
                              MinGW-w64D/omf.o (_stat64i32)
C:/Program Files/mingw-w64/x86_64-5.3.0-posix-seh-rt_v4-rev0/mingw64/bin/../lib/gcc/x86_64-w64-mingw32/5.3.0/../../../../x86_64-w64-mingw32/lib/../lib/libmingwex.a(lib64_libmingwex_a-strtodg.o)
                              C:/Program Files/mingw-w64/x86_64-5.3.0-posix-seh-rt_v4-rev0/mingw64/bin/../lib/gcc/x86_64-w64-mingw32/5.3.0/../../../../x86_64-w64-mingw32/lib/../lib/libmingwex.a(lib64_libmingwex_a-strtodnrp.o) (__strtodg)
C:/Program Files/mingw-w64/x86_64-5.3.0-posix-seh-rt_v4-rev0/mingw64/bin/../lib/gcc/x86_64-w64-mingw32/5.3.0/../../../../x86_64-w64-mingw32/lib/../lib/libmingwex.a(lib64_libmingwex_a-sum.o)
                              C:/Program Files/mingw-w64/x86_64-5.3.0-posix-seh-rt_v4-rev0/mingw64/bin/../lib/gcc/x86_64-w64-mingw32/5.3.0/../../../../x86_64-w64-mingw32/lib/../lib/libmingwex.a(lib64_libmingwex_a-strtodg.o) (__sum_D2A)
C:/Program Files/mingw-w64/x86_64-5.3.0-posix-seh-rt_v4-rev0/mingw64/bin/../lib/gcc/x86_64-w64-mingw32/5.3.0/../../../../x86_64-w64-mingw32/lib/../lib/libmingwex.a(lib64_libmingwex_a-gethex.o)
                              C:/Program Files/mingw-w64/x86_64-5.3.0-posix-seh-rt_v4-rev0/mingw64/bin/../lib/gcc/x86_64-w64-mingw32/5.3.0/../../../../x86_64-w64-mingw32/lib/../lib/libmingwex.a(lib64_libmingwex_a-strtodg.o) (__gethex_D2A)
C:/Program Files/mingw-w64/x86_64-5.3.0-posix-seh-rt_v4-rev0/mingw64/bin/../lib/gcc/x86_64-w64-mingw32/5.3.0/../../../../x86_64-w64-mingw32/lib/../lib/libmingwex.a(lib64_libmingwex_a-gmisc.o)
                              C:/Program Files/mingw-w64/x86_64-5.3.0-posix-seh-rt_v4-rev0/mingw64/bin/../lib/gcc/x86_64-w64-mingw32/5.3.0/../../../../x86_64-w64-mingw32/lib/../lib/libmingwex.a(lib64_libmingwex_a-strtodg.o) (__rshift_D2A)
C:/Program Files/mingw-w64/x86_64-5.3.0-posix-seh-rt_v4-rev0/mingw64/bin/../lib/gcc/x86_64-w64-mingw32/5.3.0/../../../../x86_64-w64-mingw32/lib/../lib/libmingwex.a(lib64_libmingwex_a-hd_init.o)
                              C:/Program Files/mingw-w64/x86_64-5.3.0-posix-seh-rt_v4-rev0/mingw64/bin/../lib/gcc/x86_64-w64-mingw32/5.3.0/../../../../x86_64-w64-mingw32/lib/../lib/libmingwex.a(lib64_libmingwex_a-gethex.o) (__mingw_hexdig_init_D2A)
C:/Program Files/mingw-w64/x86_64-5.3.0-posix-seh-rt_v4-rev0/mingw64/bin/../lib/gcc/x86_64-w64-mingw32/5.3.0/../../../../x86_64-w64-mingw32/lib/../lib/libmingwex.a(lib64_libmingwex_a-hexnan.o)
                              C:/Program Files/mingw-w64/x86_64-5.3.0-posix-seh-rt_v4-rev0/mingw64/bin/../lib/gcc/x86_64-w64-mingw32/5.3.0/../../../../x86_64-w64-mingw32/lib/../lib/libmingwex.a(lib64_libmingwex_a-strtodg.o) (__hexnan_D2A)
C:/Program Files/mingw-w64/x86_64-5.3.0-posix-seh-rt_v4-rev0/mingw64/bin/../lib/gcc/x86_64-w64-mingw32/5.3.0/../../../../x86_64-w64-mingw32/lib/../lib/libmingwex.a(lib64_libmingwex_a-misc.o)
                              C:/Program Files/mingw-w64/x86_64-5.3.0-posix-seh-rt_v4-rev0/mingw64/bin/../lib/gcc/x86_64-w64-mingw32/5.3.0/../../../../x86_64-w64-mingw32/lib/../lib/libmingwex.a(lib64_libmingwex_a-strtodg.o) (__Balloc_D2A)
C:/Program Files/mingw-w64/x86_64-5.3.0-posix-seh-rt_v4-rev0/mingw64/bin/../lib/gcc/x86_64-w64-mingw32/5.3.0/../../../../x86_64-w64-mingw32/lib/../lib/libmingwex.a(lib64_libmingwex_a-smisc.o)
                              C:/Program Files/mingw-w64/x86_64-5.3.0-posix-seh-rt_v4-rev0/mingw64/bin/../lib/gcc/x86_64-w64-mingw32/5.3.0/../../../../x86_64-w64-mingw32/lib/../lib/libmingwex.a(lib64_libmingwex_a-strtodg.o) (__s2b_D2A)
C:/Program Files/mingw-w64/x86_64-5.3.0-posix-seh-rt_v4-rev0/mingw64/bin/../lib/gcc/x86_64-w64-mingw32/5.3.0/../../../../x86_64-w64-mingw32/lib/../lib/libmsvcrt.a(dkpfs01245.o)
                              MinGW-w64D/errmsg.o (vsprintf)
C:/Program Files/mingw-w64/x86_64-5.3.0-posix-seh-rt_v4-rev0/mingw64/bin/../lib/gcc/x86_64-w64-mingw32/5.3.0/../../../../x86_64-w64-mingw32/lib/../lib/libmsvcrt.a(dkpfs01243.o)
                              MinGW-w64D/errmsg.o (vprintf)
C:/Program Files/mingw-w64/x86_64-5.3.0-posix-seh-rt_v4-rev0/mingw64/bin/../lib/gcc/x86_64-w64-mingw32/5.3.0/../../../../x86_64-w64-mingw32/lib/../lib/libmsvcrt.a(dkpfs01239.o)
                              MinGW-w64D/listing.o (vfprintf)
C:/Program Files/mingw-w64/x86_64-5.3.0-posix-seh-rt_v4-rev0/mingw64/bin/../lib/gcc/x86_64-w64-mingw32/5.3.0/../../../../x86_64-w64-mingw32/lib/../lib/libmsvcrt.a(dkpfs01233.o)
                              MinGW-w64D/hll.o (__imp_tolower)
C:/Program Files/mingw-w64/x86_64-5.3.0-posix-seh-rt_v4-rev0/mingw64/bin/../lib/gcc/x86_64-w64-mingw32/5.3.0/../../../../x86_64-w64-mingw32/lib/../lib/libmsvcrt.a(dkpfs01215.o)
                              MinGW-w64D/hll.o (strstr)
C:/Program Files/mingw-w64/x86_64-5.3.0-posix-seh-rt_v4-rev0/mingw64/bin/../lib/gcc/x86_64-w64-mingw32/5.3.0/../../../../x86_64-w64-mingw32/lib/../lib/libmsvcrt.a(dkpfs01208.o)
                              MinGW-w64D/assemble.o (strncpy)
C:/Program Files/mingw-w64/x86_64-5.3.0-posix-seh-rt_v4-rev0/mingw64/bin/../lib/gcc/x86_64-w64-mingw32/5.3.0/../../../../x86_64-w64-mingw32/lib/../lib/libmsvcrt.a(dkpfs01207.o)
                              C:/Program Files/mingw-w64/x86_64-5.3.0-posix-seh-rt_v4-rev0/mingw64/bin/../lib/gcc/x86_64-w64-mingw32/5.3.0/../../../../x86_64-w64-mingw32/lib/../lib/libmingw32.a(lib64_libmingw32_a-pesect.o) (strncmp)
C:/Program Files/mingw-w64/x86_64-5.3.0-posix-seh-rt_v4-rev0/mingw64/bin/../lib/gcc/x86_64-w64-mingw32/5.3.0/../../../../x86_64-w64-mingw32/lib/../lib/libmsvcrt.a(dkpfs01204.o)
                              C:/Program Files/mingw-w64/x86_64-5.3.0-posix-seh-rt_v4-rev0/mingw64/bin/../lib/gcc/x86_64-w64-mingw32/5.3.0/../../../../x86_64-w64-mingw32/lib/../lib/crt2.o (strlen)
C:/Program Files/mingw-w64/x86_64-5.3.0-posix-seh-rt_v4-rev0/mingw64/bin/../lib/gcc/x86_64-w64-mingw32/5.3.0/../../../../x86_64-w64-mingw32/lib/../lib/libmsvcrt.a(dkpfs01199.o)
                              MinGW-w64D/main.o (strcpy)
C:/Program Files/mingw-w64/x86_64-5.3.0-posix-seh-rt_v4-rev0/mingw64/bin/../lib/gcc/x86_64-w64-mingw32/5.3.0/../../../../x86_64-w64-mingw32/lib/../lib/libmsvcrt.a(dkpfs01197.o)
                              MinGW-w64D/bin.o (strcmp)
C:/Program Files/mingw-w64/x86_64-5.3.0-posix-seh-rt_v4-rev0/mingw64/bin/../lib/gcc/x86_64-w64-mingw32/5.3.0/../../../../x86_64-w64-mingw32/lib/../lib/libmsvcrt.a(dkpfs01196.o)
                              MinGW-w64D/assemble.o (strchr)
C:/Program Files/mingw-w64/x86_64-5.3.0-posix-seh-rt_v4-rev0/mingw64/bin/../lib/gcc/x86_64-w64-mingw32/5.3.0/../../../../x86_64-w64-mingw32/lib/../lib/libmsvcrt.a(dkpfs01194.o)
                              MinGW-w64D/assemble.o (strcat)
C:/Program Files/mingw-w64/x86_64-5.3.0-posix-seh-rt_v4-rev0/mingw64/bin/../lib/gcc/x86_64-w64-mingw32/5.3.0/../../../../x86_64-w64-mingw32/lib/../lib/libmsvcrt.a(dkpfs01188.o)
                              MinGW-w64D/assemble.o (sprintf)
C:/Program Files/mingw-w64/x86_64-5.3.0-posix-seh-rt_v4-rev0/mingw64/bin/../lib/gcc/x86_64-w64-mingw32/5.3.0/../../../../x86_64-w64-mingw32/lib/../lib/libmsvcrt.a(dkpfs01183.o)
                              MinGW-w64D/main.o (signal)
C:/Program Files/mingw-w64/x86_64-5.3.0-posix-seh-rt_v4-rev0/mingw64/bin/../lib/gcc/x86_64-w64-mingw32/5.3.0/../../../../x86_64-w64-mingw32/lib/../lib/libmsvcrt.a(dkpfs01176.o)
                              MinGW-w64D/assemble.o (rewind)
C:/Program Files/mingw-w64/x86_64-5.3.0-posix-seh-rt_v4-rev0/mingw64/bin/../lib/gcc/x86_64-w64-mingw32/5.3.0/../../../../x86_64-w64-mingw32/lib/../lib/libmsvcrt.a(dkpfs01174.o)
                              MinGW-w64D/assemble.o (remove)
C:/Program Files/mingw-w64/x86_64-5.3.0-posix-seh-rt_v4-rev0/mingw64/bin/../lib/gcc/x86_64-w64-mingw32/5.3.0/../../../../x86_64-w64-mingw32/lib/../lib/libmsvcrt.a(dkpfs01169.o)
                              MinGW-w64D/bin.o (qsort)
C:/Program Files/mingw-w64/x86_64-5.3.0-posix-seh-rt_v4-rev0/mingw64/bin/../lib/gcc/x86_64-w64-mingw32/5.3.0/../../../../x86_64-w64-mingw32/lib/../lib/libmsvcrt.a(dkpfs01166.o)
                              MinGW-w64D/assemble.o (puts)
C:/Program Files/mingw-w64/x86_64-5.3.0-posix-seh-rt_v4-rev0/mingw64/bin/../lib/gcc/x86_64-w64-mingw32/5.3.0/../../../../x86_64-w64-mingw32/lib/../lib/libmsvcrt.a(dkpfs01165.o)
                              MinGW-w64D/assemble.o (putchar)
C:/Program Files/mingw-w64/x86_64-5.3.0-posix-seh-rt_v4-rev0/mingw64/bin/../lib/gcc/x86_64-w64-mingw32/5.3.0/../../../../x86_64-w64-mingw32/lib/../lib/libmsvcrt.a(dkpfs01162.o)
                              MinGW-w64D/main.o (printf)
C:/Program Files/mingw-w64/x86_64-5.3.0-posix-seh-rt_v4-rev0/mingw64/bin/../lib/gcc/x86_64-w64-mingw32/5.3.0/../../../../x86_64-w64-mingw32/lib/../lib/libmsvcrt.a(dkpfs01155.o)
                              MinGW-w64D/assemble.o (memset)
C:/Program Files/mingw-w64/x86_64-5.3.0-posix-seh-rt_v4-rev0/mingw64/bin/../lib/gcc/x86_64-w64-mingw32/5.3.0/../../../../x86_64-w64-mingw32/lib/../lib/libmsvcrt.a(dkpfs01154.o)
                              MinGW-w64D/macro.o (memmove)
C:/Program Files/mingw-w64/x86_64-5.3.0-posix-seh-rt_v4-rev0/mingw64/bin/../lib/gcc/x86_64-w64-mingw32/5.3.0/../../../../x86_64-w64-mingw32/lib/../lib/libmsvcrt.a(dkpfs01153.o)
                              C:/Program Files/mingw-w64/x86_64-5.3.0-posix-seh-rt_v4-rev0/mingw64/bin/../lib/gcc/x86_64-w64-mingw32/5.3.0/../../../../x86_64-w64-mingw32/lib/../lib/crt2.o (memcpy)
C:/Program Files/mingw-w64/x86_64-5.3.0-posix-seh-rt_v4-rev0/mingw64/bin/../lib/gcc/x86_64-w64-mingw32/5.3.0/../../../../x86_64-w64-mingw32/lib/../lib/libmsvcrt.a(dkpfs01152.o)
                              MinGW-w64D/assemble.o (memcmp)
C:/Program Files/mingw-w64/x86_64-5.3.0-posix-seh-rt_v4-rev0/mingw64/bin/../lib/gcc/x86_64-w64-mingw32/5.3.0/../../../../x86_64-w64-mingw32/lib/../lib/libmsvcrt.a(dkpfs01145.o)
                              C:/Program Files/mingw-w64/x86_64-5.3.0-posix-seh-rt_v4-rev0/mingw64/bin/../lib/gcc/x86_64-w64-mingw32/5.3.0/../../../../x86_64-w64-mingw32/lib/../lib/crt2.o (malloc)
C:/Program Files/mingw-w64/x86_64-5.3.0-posix-seh-rt_v4-rev0/mingw64/bin/../lib/gcc/x86_64-w64-mingw32/5.3.0/../../../../x86_64-w64-mingw32/lib/../lib/libmsvcrt.a(dkpfs01144.o)
                              C:/Program Files/mingw-w64/x86_64-5.3.0-posix-seh-rt_v4-rev0/mingw64/bin/../lib/gcc/x86_64-w64-mingw32/5.3.0/../../../../x86_64-w64-mingw32/lib/../lib/libmingwex.a(lib64_libmingwex_a-mingw_getsp.o) (__imp_longjmp)
C:/Program Files/mingw-w64/x86_64-5.3.0-posix-seh-rt_v4-rev0/mingw64/bin/../lib/gcc/x86_64-w64-mingw32/5.3.0/../../../../x86_64-w64-mingw32/lib/../lib/libmsvcrt.a(dkpfs01139.o)
                              MinGW-w64D/omf.o (localtime)
C:/Program Files/mingw-w64/x86_64-5.3.0-posix-seh-rt_v4-rev0/mingw64/bin/../lib/gcc/x86_64-w64-mingw32/5.3.0/../../../../x86_64-w64-mingw32/lib/../lib/libmsvcrt.a(dkpfs01138.o)
                              C:/Program Files/mingw-w64/x86_64-5.3.0-posix-seh-rt_v4-rev0/mingw64/bin/../lib/gcc/x86_64-w64-mingw32/5.3.0/../../../../x86_64-w64-mingw32/lib/../lib/libmingwex.a(lib64_libmingwex_a-strtodg.o) (localeconv)
C:/Program Files/mingw-w64/x86_64-5.3.0-posix-seh-rt_v4-rev0/mingw64/bin/../lib/gcc/x86_64-w64-mingw32/5.3.0/../../../../x86_64-w64-mingw32/lib/../lib/libmsvcrt.a(dkpfs01118.o)
                              MinGW-w64D/assemble.o (__imp_isspace)
C:/Program Files/mingw-w64/x86_64-5.3.0-posix-seh-rt_v4-rev0/mingw64/bin/../lib/gcc/x86_64-w64-mingw32/5.3.0/../../../../x86_64-w64-mingw32/lib/../lib/libmsvcrt.a(dkpfs01110.o)
                              MinGW-w64D/assemble.o (__imp_isalpha)
C:/Program Files/mingw-w64/x86_64-5.3.0-posix-seh-rt_v4-rev0/mingw64/bin/../lib/gcc/x86_64-w64-mingw32/5.3.0/../../../../x86_64-w64-mingw32/lib/../lib/libmsvcrt.a(dkpfs01109.o)
                              MinGW-w64D/assemble.o (__imp_isalnum)
C:/Program Files/mingw-w64/x86_64-5.3.0-posix-seh-rt_v4-rev0/mingw64/bin/../lib/gcc/x86_64-w64-mingw32/5.3.0/../../../../x86_64-w64-mingw32/lib/../lib/libmsvcrt.a(dkpfs01102.o)
                              MinGW-w64D/main.o (getenv)
C:/Program Files/mingw-w64/x86_64-5.3.0-posix-seh-rt_v4-rev0/mingw64/bin/../lib/gcc/x86_64-w64-mingw32/5.3.0/../../../../x86_64-w64-mingw32/lib/../lib/libmsvcrt.a(dkpfs01100.o)
                              MinGW-w64D/input.o (getc)
C:/Program Files/mingw-w64/x86_64-5.3.0-posix-seh-rt_v4-rev0/mingw64/bin/../lib/gcc/x86_64-w64-mingw32/5.3.0/../../../../x86_64-w64-mingw32/lib/../lib/libmsvcrt.a(dkpfs01097.o)
                              MinGW-w64D/assemble.o (fwrite)
C:/Program Files/mingw-w64/x86_64-5.3.0-posix-seh-rt_v4-rev0/mingw64/bin/../lib/gcc/x86_64-w64-mingw32/5.3.0/../../../../x86_64-w64-mingw32/lib/../lib/libmsvcrt.a(dkpfs01094.o)
                              MinGW-w64D/bin.o (ftell)
C:/Program Files/mingw-w64/x86_64-5.3.0-posix-seh-rt_v4-rev0/mingw64/bin/../lib/gcc/x86_64-w64-mingw32/5.3.0/../../../../x86_64-w64-mingw32/lib/../lib/libmsvcrt.a(dkpfs01092.o)
                              MinGW-w64D/bin.o (fseek)
C:/Program Files/mingw-w64/x86_64-5.3.0-posix-seh-rt_v4-rev0/mingw64/bin/../lib/gcc/x86_64-w64-mingw32/5.3.0/../../../../x86_64-w64-mingw32/lib/../lib/libmsvcrt.a(dkpfs01086.o)
                              MinGW-w64D/directiv.o (free)
C:/Program Files/mingw-w64/x86_64-5.3.0-posix-seh-rt_v4-rev0/mingw64/bin/../lib/gcc/x86_64-w64-mingw32/5.3.0/../../../../x86_64-w64-mingw32/lib/../lib/libmsvcrt.a(dkpfs01085.o)
                              MinGW-w64D/cmdline.o (fread)
C:/Program Files/mingw-w64/x86_64-5.3.0-posix-seh-rt_v4-rev0/mingw64/bin/../lib/gcc/x86_64-w64-mingw32/5.3.0/../../../../x86_64-w64-mingw32/lib/../lib/libmsvcrt.a(dkpfs01082.o)
                              MinGW-w64D/errmsg.o (fputs)
C:/Program Files/mingw-w64/x86_64-5.3.0-posix-seh-rt_v4-rev0/mingw64/bin/../lib/gcc/x86_64-w64-mingw32/5.3.0/../../../../x86_64-w64-mingw32/lib/../lib/libmsvcrt.a(dkpfs01079.o)
                              MinGW-w64D/errmsg.o (fprintf)
C:/Program Files/mingw-w64/x86_64-5.3.0-posix-seh-rt_v4-rev0/mingw64/bin/../lib/gcc/x86_64-w64-mingw32/5.3.0/../../../../x86_64-w64-mingw32/lib/../lib/libmsvcrt.a(dkpfs01077.o)
                              MinGW-w64D/assemble.o (fopen)
C:/Program Files/mingw-w64/x86_64-5.3.0-posix-seh-rt_v4-rev0/mingw64/bin/../lib/gcc/x86_64-w64-mingw32/5.3.0/../../../../x86_64-w64-mingw32/lib/../lib/libmsvcrt.a(dkpfs01067.o)
                              MinGW-w64D/errmsg.o (fflush)
C:/Program Files/mingw-w64/x86_64-5.3.0-posix-seh-rt_v4-rev0/mingw64/bin/../lib/gcc/x86_64-w64-mingw32/5.3.0/../../../../x86_64-w64-mingw32/lib/../lib/libmsvcrt.a(dkpfs01064.o)
                              MinGW-w64D/assemble.o (fclose)
C:/Program Files/mingw-w64/x86_64-5.3.0-posix-seh-rt_v4-rev0/mingw64/bin/../lib/gcc/x86_64-w64-mingw32/5.3.0/../../../../x86_64-w64-mingw32/lib/../lib/libmsvcrt.a(dkpfs01060.o)
                              C:/Program Files/mingw-w64/x86_64-5.3.0-posix-seh-rt_v4-rev0/mingw64/bin/../lib/gcc/x86_64-w64-mingw32/5.3.0/../../../../x86_64-w64-mingw32/lib/../lib/crt2.o (exit)
C:/Program Files/mingw-w64/x86_64-5.3.0-posix-seh-rt_v4-rev0/mingw64/bin/../lib/gcc/x86_64-w64-mingw32/5.3.0/../../../../x86_64-w64-mingw32/lib/../lib/libmsvcrt.a(dkpfs01052.o)
                              MinGW-w64D/assemble.o (clock)
C:/Program Files/mingw-w64/x86_64-5.3.0-posix-seh-rt_v4-rev0/mingw64/bin/../lib/gcc/x86_64-w64-mingw32/5.3.0/../../../../x86_64-w64-mingw32/lib/../lib/libmsvcrt.a(dkpfs01047.o)
                              C:/Program Files/mingw-w64/x86_64-5.3.0-posix-seh-rt_v4-rev0/mingw64/bin/../lib/gcc/x86_64-w64-mingw32/5.3.0/../../../../x86_64-w64-mingw32/lib/../lib/libmingw32.a(lib64_libmingw32_a-tlsthrd.o) (calloc)
C:/Program Files/mingw-w64/x86_64-5.3.0-posix-seh-rt_v4-rev0/mingw64/bin/../lib/gcc/x86_64-w64-mingw32/5.3.0/../../../../x86_64-w64-mingw32/lib/../lib/libmsvcrt.a(dkpfs01043.o)
                              MinGW-w64D/proc.o (atoi)
C:/Program Files/mingw-w64/x86_64-5.3.0-posix-seh-rt_v4-rev0/mingw64/bin/../lib/gcc/x86_64-w64-mingw32/5.3.0/../../../../x86_64-w64-mingw32/lib/../lib/libmsvcrt.a(dkpfs01030.o)
                              C:/Program Files/mingw-w64/x86_64-5.3.0-posix-seh-rt_v4-rev0/mingw64/bin/../lib/gcc/x86_64-w64-mingw32/5.3.0/../../../../x86_64-w64-mingw32/lib/../lib/libmingw32.a(lib64_libmingw32_a-gs_support.o) (abort)
C:/Program Files/mingw-w64/x86_64-5.3.0-posix-seh-rt_v4-rev0/mingw64/bin/../lib/gcc/x86_64-w64-mingw32/5.3.0/../../../../x86_64-w64-mingw32/lib/../lib/libmsvcrt.a(dkpfs00819.o)
                              C:/Program Files/mingw-w64/x86_64-5.3.0-posix-seh-rt_v4-rev0/mingw64/bin/../lib/gcc/x86_64-w64-mingw32/5.3.0/../../../../x86_64-w64-mingw32/lib/../lib/libmingw32.a(lib64_libmingw32_a-atonexit.o) (_unlock)
C:/Program Files/mingw-w64/x86_64-5.3.0-posix-seh-rt_v4-rev0/mingw64/bin/../lib/gcc/x86_64-w64-mingw32/5.3.0/../../../../x86_64-w64-mingw32/lib/../lib/libmsvcrt.a(dkpfs00807.o)
                              MinGW-w64D/bin.o (time)
C:/Program Files/mingw-w64/x86_64-5.3.0-posix-seh-rt_v4-rev0/mingw64/bin/../lib/gcc/x86_64-w64-mingw32/5.3.0/../../../../x86_64-w64-mingw32/lib/../lib/libmsvcrt.a(dkpfs00768.o)
                              MinGW-w64D/assemble.o (__imp__strupr)
C:/Program Files/mingw-w64/x86_64-5.3.0-posix-seh-rt_v4-rev0/mingw64/bin/../lib/gcc/x86_64-w64-mingw32/5.3.0/../../../../x86_64-w64-mingw32/lib/../lib/libmsvcrt.a(dkpfs00731.o)
                              MinGW-w64D/assume.o (__imp__stricmp)
C:/Program Files/mingw-w64/x86_64-5.3.0-posix-seh-rt_v4-rev0/mingw64/bin/../lib/gcc/x86_64-w64-mingw32/5.3.0/../../../../x86_64-w64-mingw32/lib/../lib/libmsvcrt.a(dkpfs00719.o)
                              C:/Program Files/mingw-w64/x86_64-5.3.0-posix-seh-rt_v4-rev0/mingw64/bin/../lib/gcc/x86_64-w64-mingw32/5.3.0/../../../../x86_64-w64-mingw32/lib/../lib/libmingwex.a(lib64_libmingwex_a-_stat64i32.o) (_stat64)
C:/Program Files/mingw-w64/x86_64-5.3.0-posix-seh-rt_v4-rev0/mingw64/bin/../lib/gcc/x86_64-w64-mingw32/5.3.0/../../../../x86_64-w64-mingw32/lib/../lib/libmsvcrt.a(dkpfs00667.o)
                              MinGW-w64D/assemble.o (_setjmp)
C:/Program Files/mingw-w64/x86_64-5.3.0-posix-seh-rt_v4-rev0/mingw64/bin/../lib/gcc/x86_64-w64-mingw32/5.3.0/../../../../x86_64-w64-mingw32/lib/../lib/libmsvcrt.a(dkpfs00611.o)
                              C:/Program Files/mingw-w64/x86_64-5.3.0-posix-seh-rt_v4-rev0/mingw64/bin/../lib/gcc/x86_64-w64-mingw32/5.3.0/../../../../x86_64-w64-mingw32/lib/../lib/libmingw32.a(lib64_libmingw32_a-atonexit.o) (__imp__onexit)
C:/Program Files/mingw-w64/x86_64-5.3.0-posix-seh-rt_v4-rev0/mingw64/bin/../lib/gcc/x86_64-w64-mingw32/5.3.0/../../../../x86_64-w64-mingw32/lib/../lib/libmsvcrt.a(dkpfs00599.o)
                              MinGW-w64D/expans.o (__imp__memicmp)
C:/Program Files/mingw-w64/x86_64-5.3.0-posix-seh-rt_v4-rev0/mingw64/bin/../lib/gcc/x86_64-w64-mingw32/5.3.0/../../../../x86_64-w64-mingw32/lib/../lib/libmsvcrt.a(dkpfs00439.o)
                              C:/Program Files/mingw-w64/x86_64-5.3.0-posix-seh-rt_v4-rev0/mingw64/bin/../lib/gcc/x86_64-w64-mingw32/5.3.0/../../../../x86_64-w64-mingw32/lib/../lib/libmingw32.a(lib64_libmingw32_a-atonexit.o) (_lock)
C:/Program Files/mingw-w64/x86_64-5.3.0-posix-seh-rt_v4-rev0/mingw64/bin/../lib/gcc/x86_64-w64-mingw32/5.3.0/../../../../x86_64-w64-mingw32/lib/../lib/libmsvcrt.a(dkpfs00330.o)
                              C:/Program Files/mingw-w64/x86_64-5.3.0-posix-seh-rt_v4-rev0/mingw64/bin/../lib/gcc/x86_64-w64-mingw32/5.3.0/../../../../x86_64-w64-mingw32/lib/../lib/crt2.o (_initterm)
C:/Program Files/mingw-w64/x86_64-5.3.0-posix-seh-rt_v4-rev0/mingw64/bin/../lib/gcc/x86_64-w64-mingw32/5.3.0/../../../../x86_64-w64-mingw32/lib/../lib/libmsvcrt.a(dkpfs00251.o)
                              C:/Program Files/mingw-w64/x86_64-5.3.0-posix-seh-rt_v4-rev0/mingw64/bin/../lib/gcc/x86_64-w64-mingw32/5.3.0/../../../../x86_64-w64-mingw32/lib/../lib/crt2.o (__imp__fmode)
C:/Program Files/mingw-w64/x86_64-5.3.0-posix-seh-rt_v4-rev0/mingw64/bin/../lib/gcc/x86_64-w64-mingw32/5.3.0/../../../../x86_64-w64-mingw32/lib/../lib/libmsvcrt.a(dkpfs00242.o)
                              C:/Program Files/mingw-w64/x86_64-5.3.0-posix-seh-rt_v4-rev0/mingw64/bin/../lib/gcc/x86_64-w64-mingw32/5.3.0/../../../../x86_64-w64-mingw32/lib/../lib/libmingwex.a(lib64_libmingwex_a-_findnext64i32.o) (_findnext64)
C:/Program Files/mingw-w64/x86_64-5.3.0-posix-seh-rt_v4-rev0/mingw64/bin/../lib/gcc/x86_64-w64-mingw32/5.3.0/../../../../x86_64-w64-mingw32/lib/../lib/libmsvcrt.a(dkpfs00238.o)
                              C:/Program Files/mingw-w64/x86_64-5.3.0-posix-seh-rt_v4-rev0/mingw64/bin/../lib/gcc/x86_64-w64-mingw32/5.3.0/../../../../x86_64-w64-mingw32/lib/../lib/libmingwex.a(lib64_libmingwex_a-_findfirst64i32.o) (_findfirst64)
C:/Program Files/mingw-w64/x86_64-5.3.0-posix-seh-rt_v4-rev0/mingw64/bin/../lib/gcc/x86_64-w64-mingw32/5.3.0/../../../../x86_64-w64-mingw32/lib/../lib/libmsvcrt.a(dkpfs00235.o)
                              MinGW-w64D/main.o (__imp__findclose)
C:/Program Files/mingw-w64/x86_64-5.3.0-posix-seh-rt_v4-rev0/mingw64/bin/../lib/gcc/x86_64-w64-mingw32/5.3.0/../../../../x86_64-w64-mingw32/lib/../lib/libmsvcrt.a(dkpfs00234.o)
                              MinGW-w64D/omf.o (__imp__fileno)
C:/Program Files/mingw-w64/x86_64-5.3.0-posix-seh-rt_v4-rev0/mingw64/bin/../lib/gcc/x86_64-w64-mingw32/5.3.0/../../../../x86_64-w64-mingw32/lib/../lib/libmsvcrt.a(dkpfs00201.o)
                              C:/Program Files/mingw-w64/x86_64-5.3.0-posix-seh-rt_v4-rev0/mingw64/bin/../lib/gcc/x86_64-w64-mingw32/5.3.0/../../../../x86_64-w64-mingw32/lib/../lib/libmingwex.a(lib64_libmingwex_a-strtodg.o) (_errno)
C:/Program Files/mingw-w64/x86_64-5.3.0-posix-seh-rt_v4-rev0/mingw64/bin/../lib/gcc/x86_64-w64-mingw32/5.3.0/../../../../x86_64-w64-mingw32/lib/../lib/libmsvcrt.a(dkpfs00149.o)
                              MinGW-w64D/omf.o (__imp__chsize)
C:/Program Files/mingw-w64/x86_64-5.3.0-posix-seh-rt_v4-rev0/mingw64/bin/../lib/gcc/x86_64-w64-mingw32/5.3.0/../../../../x86_64-w64-mingw32/lib/../lib/libmsvcrt.a(dkpfs00140.o)
                              C:/Program Files/mingw-w64/x86_64-5.3.0-posix-seh-rt_v4-rev0/mingw64/bin/../lib/gcc/x86_64-w64-mingw32/5.3.0/../../../../x86_64-w64-mingw32/lib/../lib/crt2.o (_cexit)
C:/Program Files/mingw-w64/x86_64-5.3.0-posix-seh-rt_v4-rev0/mingw64/bin/../lib/gcc/x86_64-w64-mingw32/5.3.0/../../../../x86_64-w64-mingw32/lib/../lib/libmsvcrt.a(dkpfs00122.o)
                              C:/Program Files/mingw-w64/x86_64-5.3.0-posix-seh-rt_v4-rev0/mingw64/bin/../lib/gcc/x86_64-w64-mingw32/5.3.0/../../../../x86_64-w64-mingw32/lib/../lib/crt2.o (_amsg_exit)
C:/Program Files/mingw-w64/x86_64-5.3.0-posix-seh-rt_v4-rev0/mingw64/bin/../lib/gcc/x86_64-w64-mingw32/5.3.0/../../../../x86_64-w64-mingw32/lib/../lib/libmsvcrt.a(dkpfs00115.o)
                              C:/Program Files/mingw-w64/x86_64-5.3.0-posix-seh-rt_v4-rev0/mingw64/bin/../lib/gcc/x86_64-w64-mingw32/5.3.0/../../../../x86_64-w64-mingw32/lib/../lib/crt2.o (__imp__acmdln)
C:/Program Files/mingw-w64/x86_64-5.3.0-posix-seh-rt_v4-rev0/mingw64/bin/../lib/gcc/x86_64-w64-mingw32/5.3.0/../../../../x86_64-w64-mingw32/lib/../lib/libmsvcrt.a(dkpfs00098.o)
                              C:/Program Files/mingw-w64/x86_64-5.3.0-posix-seh-rt_v4-rev0/mingw64/bin/../lib/gcc/x86_64-w64-mingw32/5.3.0/../../../../x86_64-w64-mingw32/lib/../lib/libmingw32.a(lib64_libmingw32_a-merr.o) (__setusermatherr)
C:/Program Files/mingw-w64/x86_64-5.3.0-posix-seh-rt_v4-rev0/mingw64/bin/../lib/gcc/x86_64-w64-mingw32/5.3.0/../../../../x86_64-w64-mingw32/lib/../lib/libmsvcrt.a(dkpfs00096.o)
                              C:/Program Files/mingw-w64/x86_64-5.3.0-posix-seh-rt_v4-rev0/mingw64/bin/../lib/gcc/x86_64-w64-mingw32/5.3.0/../../../../x86_64-w64-mingw32/lib/../lib/crt2.o (__set_app_type)
C:/Program Files/mingw-w64/x86_64-5.3.0-posix-seh-rt_v4-rev0/mingw64/bin/../lib/gcc/x86_64-w64-mingw32/5.3.0/../../../../x86_64-w64-mingw32/lib/../lib/libmsvcrt.a(dkpfs00090.o)
                              C:/Program Files/mingw-w64/x86_64-5.3.0-posix-seh-rt_v4-rev0/mingw64/bin/../lib/gcc/x86_64-w64-mingw32/5.3.0/../../../../x86_64-w64-mingw32/lib/../lib/libmingw32.a(lib64_libmingw32_a-charmax.o) (__imp___lconv_init)
C:/Program Files/mingw-w64/x86_64-5.3.0-posix-seh-rt_v4-rev0/mingw64/bin/../lib/gcc/x86_64-w64-mingw32/5.3.0/../../../../x86_64-w64-mingw32/lib/../lib/libmsvcrt.a(dkpfs00083.o)
                              C:/Program Files/mingw-w64/x86_64-5.3.0-posix-seh-rt_v4-rev0/mingw64/bin/../lib/gcc/x86_64-w64-mingw32/5.3.0/../../../../x86_64-w64-mingw32/lib/../lib/libmingw32.a(lib64_libmingw32_a-merr.o) (__iob_func)
C:/Program Files/mingw-w64/x86_64-5.3.0-posix-seh-rt_v4-rev0/mingw64/bin/../lib/gcc/x86_64-w64-mingw32/5.3.0/../../../../x86_64-w64-mingw32/lib/../lib/libmsvcrt.a(dkpfs00082.o)
                              C:/Program Files/mingw-w64/x86_64-5.3.0-posix-seh-rt_v4-rev0/mingw64/bin/../lib/gcc/x86_64-w64-mingw32/5.3.0/../../../../x86_64-w64-mingw32/lib/../lib/crt2.o (__imp___initenv)
C:/Program Files/mingw-w64/x86_64-5.3.0-posix-seh-rt_v4-rev0/mingw64/bin/../lib/gcc/x86_64-w64-mingw32/5.3.0/../../../../x86_64-w64-mingw32/lib/../lib/libmsvcrt.a(dkpfs00081.o)
                              C:/Program Files/mingw-w64/x86_64-5.3.0-posix-seh-rt_v4-rev0/mingw64/bin/../lib/gcc/x86_64-w64-mingw32/5.3.0/../../../../x86_64-w64-mingw32/lib/../lib/crt2.o (__getmainargs)
C:/Program Files/mingw-w64/x86_64-5.3.0-posix-seh-rt_v4-rev0/mingw64/bin/../lib/gcc/x86_64-w64-mingw32/5.3.0/../../../../x86_64-w64-mingw32/lib/../lib/libmsvcrt.a(dkpfs00078.o)
                              C:/Program Files/mingw-w64/x86_64-5.3.0-posix-seh-rt_v4-rev0/mingw64/bin/../lib/gcc/x86_64-w64-mingw32/5.3.0/../../../../x86_64-w64-mingw32/lib/../lib/libmingw32.a(lib64_libmingw32_a-atonexit.o) (__dllonexit)
C:/Program Files/mingw-w64/x86_64-5.3.0-posix-seh-rt_v4-rev0/mingw64/bin/../lib/gcc/x86_64-w64-mingw32/5.3.0/../../../../x86_64-w64-mingw32/lib/../lib/libmsvcrt.a(dkpfs00055.o)
                              C:/Program Files/mingw-w64/x86_64-5.3.0-posix-seh-rt_v4-rev0/mingw64/bin/../lib/gcc/x86_64-w64-mingw32/5.3.0/../../../../x86_64-w64-mingw32/lib/../lib/crt2.o (__C_specific_handler)
C:/Program Files/mingw-w64/x86_64-5.3.0-posix-seh-rt_v4-rev0/mingw64/bin/../lib/gcc/x86_64-w64-mingw32/5.3.0/../../../../x86_64-w64-mingw32/lib/../lib/libmsvcrt.a(lib64_libmsvcrt_a-invalid_parameter_handler.o)
                              C:/Program Files/mingw-w64/x86_64-5.3.0-posix-seh-rt_v4-rev0/mingw64/bin/../lib/gcc/x86_64-w64-mingw32/5.3.0/../../../../x86_64-w64-mingw32/lib/../lib/crt2.o (_set_invalid_parameter_handler)
C:/Program Files/mingw-w64/x86_64-5.3.0-posix-seh-rt_v4-rev0/mingw64/bin/../lib/gcc/x86_64-w64-mingw32/5.3.0/../../../../x86_64-w64-mingw32/lib/../lib/libmsvcrt.a(dkpfh.o)
                              C:/Program Files/mingw-w64/x86_64-5.3.0-posix-seh-rt_v4-rev0/mingw64/bin/../lib/gcc/x86_64-w64-mingw32/5.3.0/../../../../x86_64-w64-mingw32/lib/../lib/libmsvcrt.a(dkpfs01245.o) (_head_lib64_libmsvcrt_a)
C:/Program Files/mingw-w64/x86_64-5.3.0-posix-seh-rt_v4-rev0/mingw64/bin/../lib/gcc/x86_64-w64-mingw32/5.3.0/../../../../x86_64-w64-mingw32/lib/../lib/libmsvcrt.a(dkpft.o)
                              C:/Program Files/mingw-w64/x86_64-5.3.0-posix-seh-rt_v4-rev0/mingw64/bin/../lib/gcc/x86_64-w64-mingw32/5.3.0/../../../../x86_64-w64-mingw32/lib/../lib/libmsvcrt.a(dkpfh.o) (__lib64_libmsvcrt_a_iname)
C:/Program Files/mingw-w64/x86_64-5.3.0-posix-seh-rt_v4-rev0/mingw64/bin/../lib/gcc/x86_64-w64-mingw32/5.3.0/../../../../x86_64-w64-mingw32/lib/../lib/libkernel32.a(dqmfs01266.o)
                              C:/Program Files/mingw-w64/x86_64-5.3.0-posix-seh-rt_v4-rev0/mingw64/bin/../lib/gcc/x86_64-w64-mingw32/5.3.0/../../../../x86_64-w64-mingw32/lib/../lib/libmingw32.a(lib64_libmingw32_a-pseudo-reloc.o) (__imp_VirtualQuery)
C:/Program Files/mingw-w64/x86_64-5.3.0-posix-seh-rt_v4-rev0/mingw64/bin/../lib/gcc/x86_64-w64-mingw32/5.3.0/../../../../x86_64-w64-mingw32/lib/../lib/libkernel32.a(dqmfs01264.o)
                              C:/Program Files/mingw-w64/x86_64-5.3.0-posix-seh-rt_v4-rev0/mingw64/bin/../lib/gcc/x86_64-w64-mingw32/5.3.0/../../../../x86_64-w64-mingw32/lib/../lib/libmingw32.a(lib64_libmingw32_a-pseudo-reloc.o) (__imp_VirtualProtect)
C:/Program Files/mingw-w64/x86_64-5.3.0-posix-seh-rt_v4-rev0/mingw64/bin/../lib/gcc/x86_64-w64-mingw32/5.3.0/../../../../x86_64-w64-mingw32/lib/../lib/libkernel32.a(dqmfs01261.o)
                              MinGW-w64D/memalloc.o (__imp_VirtualFree)
C:/Program Files/mingw-w64/x86_64-5.3.0-posix-seh-rt_v4-rev0/mingw64/bin/../lib/gcc/x86_64-w64-mingw32/5.3.0/../../../../x86_64-w64-mingw32/lib/../lib/libkernel32.a(dqmfs01258.o)
                              MinGW-w64D/memalloc.o (__imp_VirtualAlloc)
C:/Program Files/mingw-w64/x86_64-5.3.0-posix-seh-rt_v4-rev0/mingw64/bin/../lib/gcc/x86_64-w64-mingw32/5.3.0/../../../../x86_64-w64-mingw32/lib/../lib/libkernel32.a(dqmfs01234.o)
                              C:/Program Files/mingw-w64/x86_64-5.3.0-posix-seh-rt_v4-rev0/mingw64/bin/../lib/gcc/x86_64-w64-mingw32/5.3.0/../../../../x86_64-w64-mingw32/lib/../lib/libmingw32.a(lib64_libmingw32_a-gs_support.o) (__imp_UnhandledExceptionFilter)
C:/Program Files/mingw-w64/x86_64-5.3.0-posix-seh-rt_v4-rev0/mingw64/bin/../lib/gcc/x86_64-w64-mingw32/5.3.0/../../../../x86_64-w64-mingw32/lib/../lib/libkernel32.a(dqmfs01221.o)
                              C:/Program Files/mingw-w64/x86_64-5.3.0-posix-seh-rt_v4-rev0/mingw64/bin/../lib/gcc/x86_64-w64-mingw32/5.3.0/../../../../x86_64-w64-mingw32/lib/../lib/libmingw32.a(lib64_libmingw32_a-tlsthrd.o) (__imp_TlsGetValue)
C:/Program Files/mingw-w64/x86_64-5.3.0-posix-seh-rt_v4-rev0/mingw64/bin/../lib/gcc/x86_64-w64-mingw32/5.3.0/../../../../x86_64-w64-mingw32/lib/../lib/libkernel32.a(dqmfs01214.o)
                              C:/Program Files/mingw-w64/x86_64-5.3.0-posix-seh-rt_v4-rev0/mingw64/bin/../lib/gcc/x86_64-w64-mingw32/5.3.0/../../../../x86_64-w64-mingw32/lib/../lib/libmingw32.a(lib64_libmingw32_a-gs_support.o) (__imp_TerminateProcess)
C:/Program Files/mingw-w64/x86_64-5.3.0-posix-seh-rt_v4-rev0/mingw64/bin/../lib/gcc/x86_64-w64-mingw32/5.3.0/../../../../x86_64-w64-mingw32/lib/../lib/libkernel32.a(dqmfs01200.o)
                              C:/Program Files/mingw-w64/x86_64-5.3.0-posix-seh-rt_v4-rev0/mingw64/bin/../lib/gcc/x86_64-w64-mingw32/5.3.0/../../../../x86_64-w64-mingw32/lib/../lib/crt2.o (__imp_Sleep)
C:/Program Files/mingw-w64/x86_64-5.3.0-posix-seh-rt_v4-rev0/mingw64/bin/../lib/gcc/x86_64-w64-mingw32/5.3.0/../../../../x86_64-w64-mingw32/lib/../lib/libkernel32.a(dqmfs01187.o)
                              C:/Program Files/mingw-w64/x86_64-5.3.0-posix-seh-rt_v4-rev0/mingw64/bin/../lib/gcc/x86_64-w64-mingw32/5.3.0/../../../../x86_64-w64-mingw32/lib/../lib/crt2.o (__imp_SetUnhandledExceptionFilter)
C:/Program Files/mingw-w64/x86_64-5.3.0-posix-seh-rt_v4-rev0/mingw64/bin/../lib/gcc/x86_64-w64-mingw32/5.3.0/../../../../x86_64-w64-mingw32/lib/../lib/libkernel32.a(dqmfs01044.o)
                              C:/Program Files/mingw-w64/x86_64-5.3.0-posix-seh-rt_v4-rev0/mingw64/bin/../lib/gcc/x86_64-w64-mingw32/5.3.0/../../../../x86_64-w64-mingw32/lib/../lib/libmingw32.a(lib64_libmingw32_a-gs_support.o) (__imp_RtlVirtualUnwind)
C:/Program Files/mingw-w64/x86_64-5.3.0-posix-seh-rt_v4-rev0/mingw64/bin/../lib/gcc/x86_64-w64-mingw32/5.3.0/../../../../x86_64-w64-mingw32/lib/../lib/libkernel32.a(dqmfs01037.o)
                              C:/Program Files/mingw-w64/x86_64-5.3.0-posix-seh-rt_v4-rev0/mingw64/bin/../lib/gcc/x86_64-w64-mingw32/5.3.0/../../../../x86_64-w64-mingw32/lib/../lib/libmingw32.a(lib64_libmingw32_a-gs_support.o) (__imp_RtlLookupFunctionEntry)
C:/Program Files/mingw-w64/x86_64-5.3.0-posix-seh-rt_v4-rev0/mingw64/bin/../lib/gcc/x86_64-w64-mingw32/5.3.0/../../../../x86_64-w64-mingw32/lib/../lib/libkernel32.a(dqmfs01030.o)
                              C:/Program Files/mingw-w64/x86_64-5.3.0-posix-seh-rt_v4-rev0/mingw64/bin/../lib/gcc/x86_64-w64-mingw32/5.3.0/../../../../x86_64-w64-mingw32/lib/../lib/libmingw32.a(lib64_libmingw32_a-gs_support.o) (__imp_RtlCaptureContext)
C:/Program Files/mingw-w64/x86_64-5.3.0-posix-seh-rt_v4-rev0/mingw64/bin/../lib/gcc/x86_64-w64-mingw32/5.3.0/../../../../x86_64-w64-mingw32/lib/../lib/libkernel32.a(dqmfs01029.o)
                              C:/Program Files/mingw-w64/x86_64-5.3.0-posix-seh-rt_v4-rev0/mingw64/bin/../lib/gcc/x86_64-w64-mingw32/5.3.0/../../../../x86_64-w64-mingw32/lib/../lib/libmingw32.a(lib64_libmingw32_a-crt_handler.o) (__imp_RtlAddFunctionTable)
C:/Program Files/mingw-w64/x86_64-5.3.0-posix-seh-rt_v4-rev0/mingw64/bin/../lib/gcc/x86_64-w64-mingw32/5.3.0/../../../../x86_64-w64-mingw32/lib/../lib/libkernel32.a(dqmfs00958.o)
                              C:/Program Files/mingw-w64/x86_64-5.3.0-posix-seh-rt_v4-rev0/mingw64/bin/../lib/gcc/x86_64-w64-mingw32/5.3.0/../../../../x86_64-w64-mingw32/lib/../lib/libmingw32.a(lib64_libmingw32_a-gs_support.o) (__imp_QueryPerformanceCounter)
C:/Program Files/mingw-w64/x86_64-5.3.0-posix-seh-rt_v4-rev0/mingw64/bin/../lib/gcc/x86_64-w64-mingw32/5.3.0/../../../../x86_64-w64-mingw32/lib/../lib/libkernel32.a(dqmfs00844.o)
                              C:/Program Files/mingw-w64/x86_64-5.3.0-posix-seh-rt_v4-rev0/mingw64/bin/../lib/gcc/x86_64-w64-mingw32/5.3.0/../../../../x86_64-w64-mingw32/lib/../lib/libmingw32.a(lib64_libmingw32_a-tlsthrd.o) (__imp_LeaveCriticalSection)
C:/Program Files/mingw-w64/x86_64-5.3.0-posix-seh-rt_v4-rev0/mingw64/bin/../lib/gcc/x86_64-w64-mingw32/5.3.0/../../../../x86_64-w64-mingw32/lib/../lib/libkernel32.a(dqmfs00762.o)
                              C:/Program Files/mingw-w64/x86_64-5.3.0-posix-seh-rt_v4-rev0/mingw64/bin/../lib/gcc/x86_64-w64-mingw32/5.3.0/../../../../x86_64-w64-mingw32/lib/../lib/libmingw32.a(lib64_libmingw32_a-tlsthrd.o) (__imp_InitializeCriticalSection)
C:/Program Files/mingw-w64/x86_64-5.3.0-posix-seh-rt_v4-rev0/mingw64/bin/../lib/gcc/x86_64-w64-mingw32/5.3.0/../../../../x86_64-w64-mingw32/lib/../lib/libkernel32.a(dqmfs00678.o)
                              C:/Program Files/mingw-w64/x86_64-5.3.0-posix-seh-rt_v4-rev0/mingw64/bin/../lib/gcc/x86_64-w64-mingw32/5.3.0/../../../../x86_64-w64-mingw32/lib/../lib/libmingw32.a(lib64_libmingw32_a-gs_support.o) (__imp_GetTickCount)
C:/Program Files/mingw-w64/x86_64-5.3.0-posix-seh-rt_v4-rev0/mingw64/bin/../lib/gcc/x86_64-w64-mingw32/5.3.0/../../../../x86_64-w64-mingw32/lib/../lib/libkernel32.a(dqmfs00651.o)
                              C:/Program Files/mingw-w64/x86_64-5.3.0-posix-seh-rt_v4-rev0/mingw64/bin/../lib/gcc/x86_64-w64-mingw32/5.3.0/../../../../x86_64-w64-mingw32/lib/../lib/libmingw32.a(lib64_libmingw32_a-gs_support.o) (__imp_GetSystemTimeAsFileTime)
C:/Program Files/mingw-w64/x86_64-5.3.0-posix-seh-rt_v4-rev0/mingw64/bin/../lib/gcc/x86_64-w64-mingw32/5.3.0/../../../../x86_64-w64-mingw32/lib/../lib/libkernel32.a(dqmfs00628.o)
                              C:/Program Files/mingw-w64/x86_64-5.3.0-posix-seh-rt_v4-rev0/mingw64/bin/../lib/gcc/x86_64-w64-mingw32/5.3.0/../../../../x86_64-w64-mingw32/lib/../lib/crt2.o (__imp_GetStartupInfoA)
C:/Program Files/mingw-w64/x86_64-5.3.0-posix-seh-rt_v4-rev0/mingw64/bin/../lib/gcc/x86_64-w64-mingw32/5.3.0/../../../../x86_64-w64-mingw32/lib/../lib/libkernel32.a(dqmfs00599.o)
                              C:/Program Files/mingw-w64/x86_64-5.3.0-posix-seh-rt_v4-rev0/mingw64/bin/../lib/gcc/x86_64-w64-mingw32/5.3.0/crtbegin.o (__imp_GetProcAddress)
C:/Program Files/mingw-w64/x86_64-5.3.0-posix-seh-rt_v4-rev0/mingw64/bin/../lib/gcc/x86_64-w64-mingw32/5.3.0/../../../../x86_64-w64-mingw32/lib/../lib/libkernel32.a(dqmfs00549.o)
                              C:/Program Files/mingw-w64/x86_64-5.3.0-posix-seh-rt_v4-rev0/mingw64/bin/../lib/gcc/x86_64-w64-mingw32/5.3.0/crtbegin.o (__imp_GetModuleHandleA)
C:/Program Files/mingw-w64/x86_64-5.3.0-posix-seh-rt_v4-rev0/mingw64/bin/../lib/gcc/x86_64-w64-mingw32/5.3.0/../../../../x86_64-w64-mingw32/lib/../lib/libkernel32.a(dqmfs00529.o)
                              C:/Program Files/mingw-w64/x86_64-5.3.0-posix-seh-rt_v4-rev0/mingw64/bin/../lib/gcc/x86_64-w64-mingw32/5.3.0/../../../../x86_64-w64-mingw32/lib/../lib/libmingw32.a(lib64_libmingw32_a-pseudo-reloc.o) (__imp_GetLastError)
C:/Program Files/mingw-w64/x86_64-5.3.0-posix-seh-rt_v4-rev0/mingw64/bin/../lib/gcc/x86_64-w64-mingw32/5.3.0/../../../../x86_64-w64-mingw32/lib/../lib/libkernel32.a(dqmfs00467.o)
                              C:/Program Files/mingw-w64/x86_64-5.3.0-posix-seh-rt_v4-rev0/mingw64/bin/../lib/gcc/x86_64-w64-mingw32/5.3.0/../../../../x86_64-w64-mingw32/lib/../lib/libmingw32.a(lib64_libmingw32_a-gs_support.o) (__imp_GetCurrentThreadId)
C:/Program Files/mingw-w64/x86_64-5.3.0-posix-seh-rt_v4-rev0/mingw64/bin/../lib/gcc/x86_64-w64-mingw32/5.3.0/../../../../x86_64-w64-mingw32/lib/../lib/libkernel32.a(dqmfs00463.o)
                              C:/Program Files/mingw-w64/x86_64-5.3.0-posix-seh-rt_v4-rev0/mingw64/bin/../lib/gcc/x86_64-w64-mingw32/5.3.0/../../../../x86_64-w64-mingw32/lib/../lib/libmingw32.a(lib64_libmingw32_a-gs_support.o) (__imp_GetCurrentProcessId)
C:/Program Files/mingw-w64/x86_64-5.3.0-posix-seh-rt_v4-rev0/mingw64/bin/../lib/gcc/x86_64-w64-mingw32/5.3.0/../../../../x86_64-w64-mingw32/lib/../lib/libkernel32.a(dqmfs00462.o)
                              C:/Program Files/mingw-w64/x86_64-5.3.0-posix-seh-rt_v4-rev0/mingw64/bin/../lib/gcc/x86_64-w64-mingw32/5.3.0/../../../../x86_64-w64-mingw32/lib/../lib/libmingw32.a(lib64_libmingw32_a-gs_support.o) (__imp_GetCurrentProcess)
C:/Program Files/mingw-w64/x86_64-5.3.0-posix-seh-rt_v4-rev0/mingw64/bin/../lib/gcc/x86_64-w64-mingw32/5.3.0/../../../../x86_64-w64-mingw32/lib/../lib/libkernel32.a(dqmfs00249.o)
                              C:/Program Files/mingw-w64/x86_64-5.3.0-posix-seh-rt_v4-rev0/mingw64/bin/../lib/gcc/x86_64-w64-mingw32/5.3.0/../../../../x86_64-w64-mingw32/lib/../lib/libmingw32.a(lib64_libmingw32_a-tlsthrd.o) (__imp_EnterCriticalSection)
C:/Program Files/mingw-w64/x86_64-5.3.0-posix-seh-rt_v4-rev0/mingw64/bin/../lib/gcc/x86_64-w64-mingw32/5.3.0/../../../../x86_64-w64-mingw32/lib/../lib/libkernel32.a(dqmfs00216.o)
                              C:/Program Files/mingw-w64/x86_64-5.3.0-posix-seh-rt_v4-rev0/mingw64/bin/../lib/gcc/x86_64-w64-mingw32/5.3.0/../../../../x86_64-w64-mingw32/lib/../lib/libmingw32.a(lib64_libmingw32_a-tlsthrd.o) (__imp_DeleteCriticalSection)
C:/Program Files/mingw-w64/x86_64-5.3.0-posix-seh-rt_v4-rev0/mingw64/bin/../lib/gcc/x86_64-w64-mingw32/5.3.0/../../../../x86_64-w64-mingw32/lib/../lib/libkernel32.a(dqmfh.o)
                              C:/Program Files/mingw-w64/x86_64-5.3.0-posix-seh-rt_v4-rev0/mingw64/bin/../lib/gcc/x86_64-w64-mingw32/5.3.0/../../../../x86_64-w64-mingw32/lib/../lib/libkernel32.a(dqmfs01266.o) (_head_lib64_libkernel32_a)
C:/Program Files/mingw-w64/x86_64-5.3.0-posix-seh-rt_v4-rev0/mingw64/bin/../lib/gcc/x86_64-w64-mingw32/5.3.0/../../../../x86_64-w64-mingw32/lib/../lib/libkernel32.a(dqmft.o)
                              C:/Program Files/mingw-w64/x86_64-5.3.0-posix-seh-rt_v4-rev0/mingw64/bin/../lib/gcc/x86_64-w64-mingw32/5.3.0/../../../../x86_64-w64-mingw32/lib/../lib/libkernel32.a(dqmfh.o) (__lib64_libkernel32_a_iname)

Allocating common symbols
Common symbol       size              file

cnttok1             0x4               MinGW-w64D/tokenize.o
FileCur             0x8               MinGW-w64D/input.o
CurrIfState         0x4               MinGW-w64D/condasm.o
end_stringbuf       0x8               MinGW-w64D/input.o
LinnumQueue         0x10              MinGW-w64D/assemble.o
sym_Cpu             0x8               MinGW-w64D/cpumodel.o
CurrStruct          0x8               MinGW-w64D/types.o
sym_Interface       0x8               MinGW-w64D/cpumodel.o
StackAdjHigh        0x4               MinGW-w64D/proc.o
SegAssumeTable      0x60              MinGW-w64D/assume.o
StackAdj            0x4               MinGW-w64D/proc.o
token_stringbuf     0x8               MinGW-w64D/input.o
__mingw_winmain_lpCmdLine
                    0x8               C:/Program Files/mingw-w64/x86_64-5.3.0-posix-seh-rt_v4-rev0/mingw64/bin/../lib/gcc/x86_64-w64-mingw32/5.3.0/../../../../x86_64-w64-mingw32/lib/../lib/crt2.o
decoflags           0x1               MinGW-w64D/main.o
StdAssumeTable      0x100             MinGW-w64D/assume.o
sym_ReservedStack   0x8               MinGW-w64D/proc.o
SegOverride         0x8               MinGW-w64D/parser.o
cntppl2             0x4               MinGW-w64D/preproc.o
UseSavedState       0x1               MinGW-w64D/fastpass.o
end_tokenarray      0x8               MinGW-w64D/input.o
SymTables           0x60              MinGW-w64D/parser.o
Frame_Type          0x1               MinGW-w64D/fixup.o
LastCodeBufSize     0x4               MinGW-w64D/omf.o
cntppl1             0x4               MinGW-w64D/preproc.o
Parse_Pass          0x4               MinGW-w64D/assemble.o
SymCmpFunc          0x8               MinGW-w64D/symbols.o
__CTOR_LIST__       0x10              C:/Program Files/mingw-w64/x86_64-5.3.0-posix-seh-rt_v4-rev0/mingw64/bin/../lib/gcc/x86_64-w64-mingw32/5.3.0/libgcc.a(_ctors.o)
__native_startup_state
                    0x4               C:/Program Files/mingw-w64/x86_64-5.3.0-posix-seh-rt_v4-rev0/mingw64/bin/../lib/gcc/x86_64-w64-mingw32/5.3.0/../../../../x86_64-w64-mingw32/lib/../lib/libmingw32.a(lib64_libmingw32_a-natstart.o)
__onexitbegin       0x8               C:/Program Files/mingw-w64/x86_64-5.3.0-posix-seh-rt_v4-rev0/mingw64/bin/../lib/gcc/x86_64-w64-mingw32/5.3.0/../../../../x86_64-w64-mingw32/lib/../lib/libmingw32.a(lib64_libmingw32_a-atonexit.o)
write_to_file       0x1               MinGW-w64D/assemble.o
procidx             0x4               MinGW-w64D/proc.o
CurrProc            0x8               MinGW-w64D/proc.o
cntppl0             0x4               MinGW-w64D/preproc.o
LineCur             0x8               MinGW-w64D/input.o
list_pos            0x4               MinGW-w64D/listing.o
__DTOR_LIST__       0x10              C:/Program Files/mingw-w64/x86_64-5.3.0-posix-seh-rt_v4-rev0/mingw64/bin/../lib/gcc/x86_64-w64-mingw32/5.3.0/libgcc.a(_ctors.o)
symCurSeg           0x8               MinGW-w64D/segment.o
__onexitend         0x8               C:/Program Files/mingw-w64/x86_64-5.3.0-posix-seh-rt_v4-rev0/mingw64/bin/../lib/gcc/x86_64-w64-mingw32/5.3.0/../../../../x86_64-w64-mingw32/lib/../lib/libmingw32.a(lib64_libmingw32_a-atonexit.o)
cnttok0             0x4               MinGW-w64D/tokenize.o
commentbuffer       0x8               MinGW-w64D/input.o
LineStoreCurr       0x8               MinGW-w64D/fastpass.o
__native_startup_lock
                    0x8               C:/Program Files/mingw-w64/x86_64-5.3.0-posix-seh-rt_v4-rev0/mingw64/bin/../lib/gcc/x86_64-w64-mingw32/5.3.0/../../../../x86_64-w64-mingw32/lib/../lib/libmingw32.a(lib64_libmingw32_a-natstart.o)
__mingw_winmain_hInstance
                    0x8               C:/Program Files/mingw-w64/x86_64-5.3.0-posix-seh-rt_v4-rev0/mingw64/bin/../lib/gcc/x86_64-w64-mingw32/5.3.0/../../../../x86_64-w64-mingw32/lib/../lib/crt2.o
MacroLevel          0x1               MinGW-w64D/expans.o
ProcStatus          0x4               MinGW-w64D/proc.o
jmpenv              0x100             MinGW-w64D/assemble.o
StoreState          0x1               MinGW-w64D/fastpass.o
broadflags          0x1               MinGW-w64D/main.o
ModuleInfo          0x308             MinGW-w64D/assemble.o
Frame_Datum         0x2               MinGW-w64D/fixup.o
__hexdig_D2A        0x100             C:/Program Files/mingw-w64/x86_64-5.3.0-posix-seh-rt_v4-rev0/mingw64/bin/../lib/gcc/x86_64-w64-mingw32/5.3.0/../../../../x86_64-w64-mingw32/lib/../lib/libmingwex.a(lib64_libmingwex_a-hd_init.o)
MacroLocals         0x4               MinGW-w64D/expans.o

Discarded input sections

 .drectve       0x0000000000000000       0x54 C:/Program Files/mingw-w64/x86_64-5.3.0-posix-seh-rt_v4-rev0/mingw64/bin/../lib/gcc/x86_64-w64-mingw32/5.3.0/../../../../x86_64-w64-mingw32/lib/../lib/crt2.o
 .debug_info    0x0000000000000000     0x2d17 MinGW-w64D/main.o
 .debug_abbrev  0x0000000000000000      0x15a MinGW-w64D/main.o
 .debug_aranges
                0x0000000000000000       0x30 MinGW-w64D/main.o
 .debug_line    0x0000000000000000      0x13a MinGW-w64D/main.o
 .debug_str     0x0000000000000000        0x0 MinGW-w64D/main.o
 .debug_frame   0x0000000000000000       0x68 MinGW-w64D/main.o
 .debug_line    0x0000000000000000        0x0 MinGW-w64D/apiemu.o
 .debug_str     0x0000000000000000        0x0 MinGW-w64D/apiemu.o
 .drectve       0x0000000000000000       0x68 MinGW-w64D/assemble.o
 .debug_info    0x0000000000000000     0x6f1d MinGW-w64D/assemble.o
 .debug_abbrev  0x0000000000000000      0x440 MinGW-w64D/assemble.o
 .debug_aranges
                0x0000000000000000       0x30 MinGW-w64D/assemble.o
 .debug_line    0x0000000000000000      0x870 MinGW-w64D/assemble.o
 .debug_str     0x0000000000000000       0xcd MinGW-w64D/assemble.o
 .rdata$.refptr.Options
                0x0000000000000000       0x10 MinGW-w64D/assemble.o
 .debug_frame   0x0000000000000000      0x460 MinGW-w64D/assemble.o
 .drectve       0x0000000000000000       0x3c MinGW-w64D/assume.o
 .debug_info    0x0000000000000000     0x6e64 MinGW-w64D/assume.o
 .debug_abbrev  0x0000000000000000      0x38b MinGW-w64D/assume.o
 .debug_aranges
                0x0000000000000000       0x30 MinGW-w64D/assume.o
 .debug_line    0x0000000000000000      0x419 MinGW-w64D/assume.o
 .debug_str     0x0000000000000000       0xf9 MinGW-w64D/assume.o
 .rdata$.refptr.Options
                0x0000000000000000       0x10 MinGW-w64D/assume.o
 .rdata$.refptr.UseSavedState
                0x0000000000000000       0x10 MinGW-w64D/assume.o
 .debug_frame   0x0000000000000000      0x220 MinGW-w64D/assume.o
 .debug_info    0x0000000000000000     0x2312 MinGW-w64D/atofloat.o
 .debug_abbrev  0x0000000000000000      0x110 MinGW-w64D/atofloat.o
 .debug_aranges
                0x0000000000000000       0x30 MinGW-w64D/atofloat.o
 .debug_line    0x0000000000000000       0xd8 MinGW-w64D/atofloat.o
 .debug_str     0x0000000000000000        0x0 MinGW-w64D/atofloat.o
 .rdata$.refptr.Parse_Pass
                0x0000000000000000       0x10 MinGW-w64D/atofloat.o
 .debug_frame   0x0000000000000000       0x40 MinGW-w64D/atofloat.o
 .debug_info    0x0000000000000000     0x48d9 MinGW-w64D/backptch.o
 .debug_abbrev  0x0000000000000000      0x2ba MinGW-w64D/backptch.o
 .debug_aranges
                0x0000000000000000       0x30 MinGW-w64D/backptch.o
 .debug_line    0x0000000000000000      0x26d MinGW-w64D/backptch.o
 .debug_str     0x0000000000000000       0x3e MinGW-w64D/backptch.o
 .rdata$.refptr.ModuleInfo
                0x0000000000000000       0x10 MinGW-w64D/backptch.o
 .rdata$.refptr.Parse_Pass
                0x0000000000000000       0x10 MinGW-w64D/backptch.o
 .debug_frame   0x0000000000000000       0x78 MinGW-w64D/backptch.o
 .debug_info    0x0000000000000000     0x7e5b MinGW-w64D/bin.o
 .debug_abbrev  0x0000000000000000      0x3f2 MinGW-w64D/bin.o
 .debug_aranges
                0x0000000000000000       0x30 MinGW-w64D/bin.o
 .debug_ranges  0x0000000000000000       0x60 MinGW-w64D/bin.o
 .debug_line    0x0000000000000000      0xc1f MinGW-w64D/bin.o
 .debug_str     0x0000000000000000      0x31a MinGW-w64D/bin.o
 .rdata$.refptr.Options
                0x0000000000000000       0x10 MinGW-w64D/bin.o
 .rdata$.refptr.Parse_Pass
                0x0000000000000000       0x10 MinGW-w64D/bin.o
 .rdata$.refptr.SymTables
                0x0000000000000000       0x10 MinGW-w64D/bin.o
 .rdata$.refptr.ModuleInfo
                0x0000000000000000       0x10 MinGW-w64D/bin.o
 .debug_frame   0x0000000000000000      0x368 MinGW-w64D/bin.o
 .debug_info    0x0000000000000000     0xbebe MinGW-w64D/branch.o
 .debug_abbrev  0x0000000000000000      0x30a MinGW-w64D/branch.o
 .debug_aranges
                0x0000000000000000       0x30 MinGW-w64D/branch.o
 .debug_line    0x0000000000000000      0x4f7 MinGW-w64D/branch.o
 .debug_str     0x0000000000000000       0x6f MinGW-w64D/branch.o
 .rdata$.refptr.ModuleInfo
                0x0000000000000000       0x10 MinGW-w64D/branch.o
 .rdata$.refptr.Parse_Pass
                0x0000000000000000       0x10 MinGW-w64D/branch.o
 .debug_frame   0x0000000000000000       0xd8 MinGW-w64D/branch.o
 .debug_info    0x0000000000000000     0x6b42 MinGW-w64D/cmdline.o
 .debug_abbrev  0x0000000000000000      0x3f8 MinGW-w64D/cmdline.o
 .debug_aranges
                0x0000000000000000       0x30 MinGW-w64D/cmdline.o
 .debug_line    0x0000000000000000      0x4d9 MinGW-w64D/cmdline.o
 .debug_str     0x0000000000000000       0xc7 MinGW-w64D/cmdline.o
 .rdata$.refptr.ModuleInfo
                0x0000000000000000       0x10 MinGW-w64D/cmdline.o
 .debug_frame   0x0000000000000000      0x7f8 MinGW-w64D/cmdline.o
 .debug_info    0x0000000000000000     0xca89 MinGW-w64D/codegen.o
 .debug_abbrev  0x0000000000000000      0x3d7 MinGW-w64D/codegen.o
 .debug_aranges
                0x0000000000000000       0x30 MinGW-w64D/codegen.o
 .debug_ranges  0x0000000000000000       0x60 MinGW-w64D/codegen.o
 .debug_line    0x0000000000000000     0x1372 MinGW-w64D/codegen.o
 .debug_str     0x0000000000000000       0xf0 MinGW-w64D/codegen.o
 .rdata$.refptr.Parse_Pass
                0x0000000000000000       0x10 MinGW-w64D/codegen.o
 .rdata$.refptr.InstrTable
                0x0000000000000000       0x10 MinGW-w64D/codegen.o
 .rdata$.refptr.optable_idx
                0x0000000000000000       0x10 MinGW-w64D/codegen.o
 .rdata$.refptr.ModuleInfo
                0x0000000000000000       0x10 MinGW-w64D/codegen.o
 .rdata$.refptr.Options
                0x0000000000000000       0x10 MinGW-w64D/codegen.o
 .debug_frame   0x0000000000000000      0x1e0 MinGW-w64D/codegen.o
 .debug_info    0x0000000000000000     0x765e MinGW-w64D/coff.o
 .debug_abbrev  0x0000000000000000      0x3e7 MinGW-w64D/coff.o
 .debug_aranges
                0x0000000000000000       0x30 MinGW-w64D/coff.o
 .debug_line    0x0000000000000000      0xa6f MinGW-w64D/coff.o
 .debug_str     0x0000000000000000      0x14b MinGW-w64D/coff.o
 .rdata$.refptr.Options
                0x0000000000000000       0x10 MinGW-w64D/coff.o
 .rdata$.refptr.ModuleInfo
                0x0000000000000000       0x10 MinGW-w64D/coff.o
 .rdata$.refptr.SymTables
                0x0000000000000000       0x10 MinGW-w64D/coff.o
 .debug_frame   0x0000000000000000      0x2f8 MinGW-w64D/coff.o
 .drectve       0x0000000000000000       0x1c MinGW-w64D/condasm.o
 .debug_info    0x0000000000000000     0x691d MinGW-w64D/condasm.o
 .debug_abbrev  0x0000000000000000      0x40b MinGW-w64D/condasm.o
 .debug_aranges
                0x0000000000000000       0x30 MinGW-w64D/condasm.o
 .debug_line    0x0000000000000000      0x4ec MinGW-w64D/condasm.o
 .debug_str     0x0000000000000000       0xe0 MinGW-w64D/condasm.o
 .rdata$.refptr.Parse_Pass
                0x0000000000000000       0x10 MinGW-w64D/condasm.o
 .rdata$.refptr.Options
                0x0000000000000000       0x10 MinGW-w64D/condasm.o
 .rdata$.refptr.SpecialTable
                0x0000000000000000       0x10 MinGW-w64D/condasm.o
 .rdata$.refptr.MacroLevel
                0x0000000000000000       0x10 MinGW-w64D/condasm.o
 .rdata$.refptr.ModuleInfo
                0x0000000000000000       0x10 MinGW-w64D/condasm.o
 .debug_frame   0x0000000000000000      0x230 MinGW-w64D/condasm.o
 .debug_info    0x0000000000000000     0x63e7 MinGW-w64D/context.o
 .debug_abbrev  0x0000000000000000      0x368 MinGW-w64D/context.o
 .debug_aranges
                0x0000000000000000       0x30 MinGW-w64D/context.o
 .debug_line    0x0000000000000000      0x26c MinGW-w64D/context.o
 .debug_str     0x0000000000000000       0xe7 MinGW-w64D/context.o
 .rdata$.refptr.ModuleInfo
                0x0000000000000000       0x10 MinGW-w64D/context.o
 .rdata$.refptr.Options
                0x0000000000000000       0x10 MinGW-w64D/context.o
 .debug_frame   0x0000000000000000       0xb8 MinGW-w64D/context.o
 .drectve       0x0000000000000000       0x34 MinGW-w64D/cpumodel.o
 .debug_info    0x0000000000000000     0x67e1 MinGW-w64D/cpumodel.o
 .debug_abbrev  0x0000000000000000      0x35b MinGW-w64D/cpumodel.o
 .debug_aranges
                0x0000000000000000       0x30 MinGW-w64D/cpumodel.o
 .debug_line    0x0000000000000000      0x2d2 MinGW-w64D/cpumodel.o
 .debug_str     0x0000000000000000       0xbb MinGW-w64D/cpumodel.o
 .rdata$.refptr.SpecialTable
                0x0000000000000000       0x10 MinGW-w64D/cpumodel.o
 .rdata$.refptr.Parse_Pass
                0x0000000000000000       0x10 MinGW-w64D/cpumodel.o
 .rdata$.refptr.Options
                0x0000000000000000       0x10 MinGW-w64D/cpumodel.o
 .rdata$.refptr.ModuleInfo
                0x0000000000000000       0x10 MinGW-w64D/cpumodel.o
 .debug_frame   0x0000000000000000      0x130 MinGW-w64D/cpumodel.o
 .debug_info    0x0000000000000000     0x730b MinGW-w64D/data.o
 .debug_abbrev  0x0000000000000000      0x3ac MinGW-w64D/data.o
 .debug_aranges
                0x0000000000000000       0x30 MinGW-w64D/data.o
 .debug_ranges  0x0000000000000000       0x30 MinGW-w64D/data.o
 .debug_line    0x0000000000000000      0xa1d MinGW-w64D/data.o
 .debug_str     0x0000000000000000       0xf3 MinGW-w64D/data.o
 .rdata$.refptr.SymTables
                0x0000000000000000       0x10 MinGW-w64D/data.o
 .rdata$.refptr.StoreState
                0x0000000000000000       0x10 MinGW-w64D/data.o
 .rdata$.refptr.SpecialTable
                0x0000000000000000       0x10 MinGW-w64D/data.o
 .rdata$.refptr.UseSavedState
                0x0000000000000000       0x10 MinGW-w64D/data.o
 .rdata$.refptr.SegOverride
                0x0000000000000000       0x10 MinGW-w64D/data.o
 .rdata$.refptr.write_to_file
                0x0000000000000000       0x10 MinGW-w64D/data.o
 .rdata$.refptr.Options
                0x0000000000000000       0x10 MinGW-w64D/data.o
 .rdata$.refptr.Parse_Pass
                0x0000000000000000       0x10 MinGW-w64D/data.o
 .rdata$.refptr.ModuleInfo
                0x0000000000000000       0x10 MinGW-w64D/data.o
 .debug_frame   0x0000000000000000      0x160 MinGW-w64D/data.o
 .debug_info    0x0000000000000000     0x6ba5 MinGW-w64D/dbgcv.o
 .debug_abbrev  0x0000000000000000      0x3f2 MinGW-w64D/dbgcv.o
 .debug_aranges
                0x0000000000000000       0x30 MinGW-w64D/dbgcv.o
 .debug_line    0x0000000000000000      0x972 MinGW-w64D/dbgcv.o
 .debug_str     0x0000000000000000      0x12b MinGW-w64D/dbgcv.o
 .rdata$.refptr.ModuleInfo
                0x0000000000000000       0x10 MinGW-w64D/dbgcv.o
 .rdata$.refptr.SpecialTable
                0x0000000000000000       0x10 MinGW-w64D/dbgcv.o
 .rdata$.refptr.Options
                0x0000000000000000       0x10 MinGW-w64D/dbgcv.o
 .debug_frame   0x0000000000000000      0x2c0 MinGW-w64D/dbgcv.o
 .debug_info    0x0000000000000000     0x6bfd MinGW-w64D/directiv.o
 .debug_abbrev  0x0000000000000000      0x386 MinGW-w64D/directiv.o
 .debug_aranges
                0x0000000000000000       0x30 MinGW-w64D/directiv.o
 .debug_line    0x0000000000000000      0x361 MinGW-w64D/directiv.o
 .debug_str     0x0000000000000000       0xd6 MinGW-w64D/directiv.o
 .rdata$.refptr.SpecialTable
                0x0000000000000000       0x10 MinGW-w64D/directiv.o
 .rdata$.refptr.CurrStruct
                0x0000000000000000       0x10 MinGW-w64D/directiv.o
 .rdata$.refptr.SymTables
                0x0000000000000000       0x10 MinGW-w64D/directiv.o
 .rdata$.refptr.ModuleInfo
                0x0000000000000000       0x10 MinGW-w64D/directiv.o
 .rdata$.refptr.Options
                0x0000000000000000       0x10 MinGW-w64D/directiv.o
 .rdata$.refptr.Parse_Pass
                0x0000000000000000       0x10 MinGW-w64D/directiv.o
 .debug_frame   0x0000000000000000      0x1a8 MinGW-w64D/directiv.o
 .debug_info    0x0000000000000000     0x6e1b MinGW-w64D/elf.o
 .debug_abbrev  0x0000000000000000      0x38f MinGW-w64D/elf.o
 .debug_aranges
                0x0000000000000000       0x30 MinGW-w64D/elf.o
 .debug_line    0x0000000000000000      0x898 MinGW-w64D/elf.o
 .debug_str     0x0000000000000000      0x118 MinGW-w64D/elf.o
 .rdata$.refptr.ModuleInfo
                0x0000000000000000       0x10 MinGW-w64D/elf.o
 .rdata$.refptr.SymTables
                0x0000000000000000       0x10 MinGW-w64D/elf.o
 .debug_frame   0x0000000000000000      0x2b8 MinGW-w64D/elf.o
 .debug_info    0x0000000000000000     0xc5fc MinGW-w64D/end.o
 .debug_abbrev  0x0000000000000000      0x2f0 MinGW-w64D/end.o
 .debug_aranges
                0x0000000000000000       0x30 MinGW-w64D/end.o
 .debug_line    0x0000000000000000      0x286 MinGW-w64D/end.o
 .debug_str     0x0000000000000000       0xce MinGW-w64D/end.o
 .rdata$.refptr.InstrTable
                0x0000000000000000       0x10 MinGW-w64D/end.o
 .rdata$.refptr.optable_idx
                0x0000000000000000       0x10 MinGW-w64D/end.o
 .rdata$.refptr.Options
                0x0000000000000000       0x10 MinGW-w64D/end.o
 .rdata$.refptr.CurrStruct
                0x0000000000000000       0x10 MinGW-w64D/end.o
 .rdata$.refptr.Parse_Pass
                0x0000000000000000       0x10 MinGW-w64D/end.o
 .rdata$.refptr.ModuleInfo
                0x0000000000000000       0x10 MinGW-w64D/end.o
 .debug_frame   0x0000000000000000       0x70 MinGW-w64D/end.o
 .debug_info    0x0000000000000000     0x652d MinGW-w64D/equate.o
 .debug_abbrev  0x0000000000000000      0x36d MinGW-w64D/equate.o
 .debug_aranges
                0x0000000000000000       0x30 MinGW-w64D/equate.o
 .debug_line    0x0000000000000000      0x41b MinGW-w64D/equate.o
 .debug_str     0x0000000000000000       0x5d MinGW-w64D/equate.o
 .rdata$.refptr.SymTables
                0x0000000000000000       0x10 MinGW-w64D/equate.o
 .rdata$.refptr.StoreState
                0x0000000000000000       0x10 MinGW-w64D/equate.o
 .rdata$.refptr.ModuleInfo
                0x0000000000000000       0x10 MinGW-w64D/equate.o
 .rdata$.refptr.Parse_Pass
                0x0000000000000000       0x10 MinGW-w64D/equate.o
 .debug_frame   0x0000000000000000      0x110 MinGW-w64D/equate.o
 .debug_info    0x0000000000000000     0x64e1 MinGW-w64D/errmsg.o
 .debug_abbrev  0x0000000000000000      0x3bb MinGW-w64D/errmsg.o
 .debug_aranges
                0x0000000000000000       0x30 MinGW-w64D/errmsg.o
 .debug_line    0x0000000000000000      0x2a3 MinGW-w64D/errmsg.o
 .debug_str     0x0000000000000000       0xc4 MinGW-w64D/errmsg.o
 .rdata$.refptr.write_to_file
                0x0000000000000000       0x10 MinGW-w64D/errmsg.o
 .rdata$.refptr.Parse_Pass
                0x0000000000000000       0x10 MinGW-w64D/errmsg.o
 .rdata$.refptr.ModuleInfo
                0x0000000000000000       0x10 MinGW-w64D/errmsg.o
 .rdata$.refptr.Options
                0x0000000000000000       0x10 MinGW-w64D/errmsg.o
 .debug_frame   0x0000000000000000      0x270 MinGW-w64D/errmsg.o
 .drectve       0x0000000000000000       0x1c MinGW-w64D/expans.o
 .debug_info    0x0000000000000000     0x7443 MinGW-w64D/expans.o
 .debug_abbrev  0x0000000000000000      0x3b9 MinGW-w64D/expans.o
 .debug_aranges
                0x0000000000000000       0x30 MinGW-w64D/expans.o
 .debug_ranges  0x0000000000000000       0x30 MinGW-w64D/expans.o
 .debug_line    0x0000000000000000      0xc7b MinGW-w64D/expans.o
 .debug_str     0x0000000000000000      0x14e MinGW-w64D/expans.o
 .rdata$.refptr.SpecialTable
                0x0000000000000000       0x10 MinGW-w64D/expans.o
 .rdata$.refptr.Options
                0x0000000000000000       0x10 MinGW-w64D/expans.o
 .rdata$.refptr.ModuleInfo
                0x0000000000000000       0x10 MinGW-w64D/expans.o
 .debug_frame   0x0000000000000000      0x210 MinGW-w64D/expans.o
 .debug_info    0x0000000000000000     0xd3f9 MinGW-w64D/expreval.o
 .debug_abbrev  0x0000000000000000      0x430 MinGW-w64D/expreval.o
 .debug_aranges
                0x0000000000000000       0x30 MinGW-w64D/expreval.o
 .debug_ranges  0x0000000000000000       0x60 MinGW-w64D/expreval.o
 .debug_line    0x0000000000000000     0x18ca MinGW-w64D/expreval.o
 .debug_str     0x0000000000000000       0xe7 MinGW-w64D/expreval.o
 .rdata$.refptr.CurrStruct
                0x0000000000000000       0x10 MinGW-w64D/expreval.o
 .rdata$.refptr.SymTables
                0x0000000000000000       0x10 MinGW-w64D/expreval.o
 .rdata$.refptr.Parse_Pass
                0x0000000000000000       0x10 MinGW-w64D/expreval.o
 .rdata$.refptr.Options
                0x0000000000000000       0x10 MinGW-w64D/expreval.o
 .rdata$.refptr.SpecialTable
                0x0000000000000000       0x10 MinGW-w64D/expreval.o
 .rdata$.refptr.ModuleInfo
                0x0000000000000000       0x10 MinGW-w64D/expreval.o
 .debug_frame   0x0000000000000000      0x908 MinGW-w64D/expreval.o
 .debug_info    0x0000000000000000     0x6d42 MinGW-w64D/extern.o
 .debug_abbrev  0x0000000000000000      0x3a7 MinGW-w64D/extern.o
 .debug_aranges
                0x0000000000000000       0x30 MinGW-w64D/extern.o
 .debug_line    0x0000000000000000      0x5e5 MinGW-w64D/extern.o
 .debug_str     0x0000000000000000       0xdf MinGW-w64D/extern.o
 .rdata$.refptr.Options
                0x0000000000000000       0x10 MinGW-w64D/extern.o
 .rdata$.refptr.Parse_Pass
                0x0000000000000000       0x10 MinGW-w64D/extern.o
 .rdata$.refptr.ModuleInfo
                0x0000000000000000       0x10 MinGW-w64D/extern.o
 .rdata$.refptr.SymTables
                0x0000000000000000       0x10 MinGW-w64D/extern.o
 .debug_frame   0x0000000000000000      0x240 MinGW-w64D/extern.o
 .drectve       0x0000000000000000       0x20 MinGW-w64D/fastpass.o
 .debug_info    0x0000000000000000     0x4309 MinGW-w64D/fastpass.o
 .debug_abbrev  0x0000000000000000      0x335 MinGW-w64D/fastpass.o
 .debug_aranges
                0x0000000000000000       0x30 MinGW-w64D/fastpass.o
 .debug_line    0x0000000000000000      0x241 MinGW-w64D/fastpass.o
 .debug_str     0x0000000000000000       0xc5 MinGW-w64D/fastpass.o
 .rdata$.refptr.MacroLevel
                0x0000000000000000       0x10 MinGW-w64D/fastpass.o
 .rdata$.refptr.Options
                0x0000000000000000       0x10 MinGW-w64D/fastpass.o
 .rdata$.refptr.ModuleInfo
                0x0000000000000000       0x10 MinGW-w64D/fastpass.o
 .debug_frame   0x0000000000000000      0x118 MinGW-w64D/fastpass.o
 .drectve       0x0000000000000000       0x1c MinGW-w64D/fixup.o
 .debug_info    0x0000000000000000     0x443f MinGW-w64D/fixup.o
 .debug_abbrev  0x0000000000000000      0x30d MinGW-w64D/fixup.o
 .debug_aranges
                0x0000000000000000       0x30 MinGW-w64D/fixup.o
 .debug_line    0x0000000000000000      0x1f8 MinGW-w64D/fixup.o
 .debug_str     0x0000000000000000       0xa7 MinGW-w64D/fixup.o
 .rdata$.refptr.ModuleInfo
                0x0000000000000000       0x10 MinGW-w64D/fixup.o
 .rdata$.refptr.Options
                0x0000000000000000       0x10 MinGW-w64D/fixup.o
 .rdata$.refptr.Parse_Pass
                0x0000000000000000       0x10 MinGW-w64D/fixup.o
 .debug_frame   0x0000000000000000       0xb8 MinGW-w64D/fixup.o
 .debug_info    0x0000000000000000     0xa103 MinGW-w64D/fpfixup.o
 .debug_abbrev  0x0000000000000000      0x2af MinGW-w64D/fpfixup.o
 .debug_aranges
                0x0000000000000000       0x30 MinGW-w64D/fpfixup.o
 .debug_line    0x0000000000000000      0x19c MinGW-w64D/fpfixup.o
 .debug_str     0x0000000000000000       0xb8 MinGW-w64D/fpfixup.o
 .rdata$.refptr.ModuleInfo
                0x0000000000000000       0x10 MinGW-w64D/fpfixup.o
 .rdata$.refptr.Options
                0x0000000000000000       0x10 MinGW-w64D/fpfixup.o
 .rdata$.refptr.write_to_file
                0x0000000000000000       0x10 MinGW-w64D/fpfixup.o
 .debug_frame   0x0000000000000000       0x40 MinGW-w64D/fpfixup.o
 .debug_info    0x0000000000000000     0x74cc MinGW-w64D/hll.o
 .debug_abbrev  0x0000000000000000      0x3c8 MinGW-w64D/hll.o
 .debug_aranges
                0x0000000000000000       0x30 MinGW-w64D/hll.o
 .debug_line    0x0000000000000000      0xbbb MinGW-w64D/hll.o
 .debug_str     0x0000000000000000       0xfa MinGW-w64D/hll.o
 .rdata$.refptr.Options
                0x0000000000000000       0x10 MinGW-w64D/hll.o
 .rdata$.refptr.ModuleInfo
                0x0000000000000000       0x10 MinGW-w64D/hll.o
 .debug_frame   0x0000000000000000      0x3e8 MinGW-w64D/hll.o
 .drectve       0x0000000000000000       0xa8 MinGW-w64D/input.o
 .debug_info    0x0000000000000000     0x68c0 MinGW-w64D/input.o
 .debug_abbrev  0x0000000000000000      0x411 MinGW-w64D/input.o
 .debug_aranges
                0x0000000000000000       0x30 MinGW-w64D/input.o
 .debug_ranges  0x0000000000000000       0x60 MinGW-w64D/input.o
 .debug_line    0x0000000000000000      0x4e2 MinGW-w64D/input.o
 .debug_str     0x0000000000000000      0x10b MinGW-w64D/input.o
 .rdata$.refptr.Options
                0x0000000000000000       0x10 MinGW-w64D/input.o
 .rdata$.refptr.Parse_Pass
                0x0000000000000000       0x10 MinGW-w64D/input.o
 .rdata$.refptr.ModuleInfo
                0x0000000000000000       0x10 MinGW-w64D/input.o
 .debug_frame   0x0000000000000000      0x4d0 MinGW-w64D/input.o
 .debug_info    0x0000000000000000     0xcafa MinGW-w64D/invoke.o
 .debug_abbrev  0x0000000000000000      0x3c9 MinGW-w64D/invoke.o
 .debug_aranges
                0x0000000000000000       0x30 MinGW-w64D/invoke.o
 .debug_ranges  0x0000000000000000       0x40 MinGW-w64D/invoke.o
 .debug_line    0x0000000000000000      0xdfb MinGW-w64D/invoke.o
 .debug_str     0x0000000000000000       0xfc MinGW-w64D/invoke.o
 .rdata$.refptr.Parse_Pass
                0x0000000000000000       0x10 MinGW-w64D/invoke.o
 .rdata$.refptr.Options
                0x0000000000000000       0x10 MinGW-w64D/invoke.o
 .rdata$.refptr.sym_ReservedStack
                0x0000000000000000       0x10 MinGW-w64D/invoke.o
 .rdata$.refptr.SpecialTable
                0x0000000000000000       0x10 MinGW-w64D/invoke.o
 .rdata$.refptr.ModuleInfo
                0x0000000000000000       0x10 MinGW-w64D/invoke.o
 .debug_frame   0x0000000000000000      0x248 MinGW-w64D/invoke.o
 .debug_info    0x0000000000000000     0x699e MinGW-w64D/label.o
 .debug_abbrev  0x0000000000000000      0x2f2 MinGW-w64D/label.o
 .debug_aranges
                0x0000000000000000       0x30 MinGW-w64D/label.o
 .debug_line    0x0000000000000000      0x2a2 MinGW-w64D/label.o
 .debug_str     0x0000000000000000       0xd2 MinGW-w64D/label.o
 .rdata$.refptr.Options
                0x0000000000000000       0x10 MinGW-w64D/label.o
 .rdata$.refptr.SymTables
                0x0000000000000000       0x10 MinGW-w64D/label.o
 .rdata$.refptr.CurrProc
                0x0000000000000000       0x10 MinGW-w64D/label.o
 .rdata$.refptr.Parse_Pass
                0x0000000000000000       0x10 MinGW-w64D/label.o
 .rdata$.refptr.ModuleInfo
                0x0000000000000000       0x10 MinGW-w64D/label.o
 .debug_frame   0x0000000000000000       0xb8 MinGW-w64D/label.o
 .debug_info    0x0000000000000000     0x60eb MinGW-w64D/linnum.o
 .debug_abbrev  0x0000000000000000      0x351 MinGW-w64D/linnum.o
 .debug_aranges
                0x0000000000000000       0x30 MinGW-w64D/linnum.o
 .debug_line    0x0000000000000000      0x2b0 MinGW-w64D/linnum.o
 .debug_str     0x0000000000000000       0xb5 MinGW-w64D/linnum.o
 .rdata$.refptr.Parse_Pass
                0x0000000000000000       0x10 MinGW-w64D/linnum.o
 .rdata$.refptr.write_to_file
                0x0000000000000000       0x10 MinGW-w64D/linnum.o
 .rdata$.refptr.CurrProc
                0x0000000000000000       0x10 MinGW-w64D/linnum.o
 .rdata$.refptr.ModuleInfo
                0x0000000000000000       0x10 MinGW-w64D/linnum.o
 .rdata$.refptr.Options
                0x0000000000000000       0x10 MinGW-w64D/linnum.o
 .debug_frame   0x0000000000000000       0xf0 MinGW-w64D/linnum.o
 .drectve       0x0000000000000000       0x18 MinGW-w64D/listing.o
 .debug_info    0x0000000000000000     0x74e0 MinGW-w64D/listing.o
 .debug_abbrev  0x0000000000000000      0x3e4 MinGW-w64D/listing.o
 .debug_aranges
                0x0000000000000000       0x30 MinGW-w64D/listing.o
 .debug_line    0x0000000000000000      0xa55 MinGW-w64D/listing.o
 .debug_str     0x0000000000000000       0xd9 MinGW-w64D/listing.o
 .rdata$.refptr.SpecialTable
                0x0000000000000000       0x10 MinGW-w64D/listing.o
 .rdata$.refptr.CurrStruct
                0x0000000000000000       0x10 MinGW-w64D/listing.o
 .rdata$.refptr.LastCodeBufSize
                0x0000000000000000       0x10 MinGW-w64D/listing.o
 .rdata$.refptr.Options
                0x0000000000000000       0x10 MinGW-w64D/listing.o
 .rdata$.refptr.LineStoreCurr
                0x0000000000000000       0x10 MinGW-w64D/listing.o
 .rdata$.refptr.UseSavedState
                0x0000000000000000       0x10 MinGW-w64D/listing.o
 .rdata$.refptr.Parse_Pass
                0x0000000000000000       0x10 MinGW-w64D/listing.o
 .rdata$.refptr.MacroLevel
                0x0000000000000000       0x10 MinGW-w64D/listing.o
 .rdata$.refptr.ModuleInfo
                0x0000000000000000       0x10 MinGW-w64D/listing.o
 .debug_frame   0x0000000000000000      0x478 MinGW-w64D/listing.o
 .debug_info    0x0000000000000000     0x5f4d MinGW-w64D/loop.o
 .debug_abbrev  0x0000000000000000      0x2af MinGW-w64D/loop.o
 .debug_aranges
                0x0000000000000000       0x30 MinGW-w64D/loop.o
 .debug_line    0x0000000000000000      0x34d MinGW-w64D/loop.o
 .debug_str     0x0000000000000000       0x58 MinGW-w64D/loop.o
 .rdata$.refptr.ModuleInfo
                0x0000000000000000       0x10 MinGW-w64D/loop.o
 .debug_frame   0x0000000000000000       0x50 MinGW-w64D/loop.o
 .debug_info    0x0000000000000000     0x3db5 MinGW-w64D/lqueue.o
 .debug_abbrev  0x0000000000000000      0x2e1 MinGW-w64D/lqueue.o
 .debug_aranges
                0x0000000000000000       0x30 MinGW-w64D/lqueue.o
 .debug_line    0x0000000000000000      0x1cd MinGW-w64D/lqueue.o
 .debug_str     0x0000000000000000       0x80 MinGW-w64D/lqueue.o
 .rdata$.refptr.ResWordTable
                0x0000000000000000       0x10 MinGW-w64D/lqueue.o
 .rdata$.refptr.ModuleInfo
                0x0000000000000000       0x10 MinGW-w64D/lqueue.o
 .debug_frame   0x0000000000000000       0xe8 MinGW-w64D/lqueue.o
 .debug_info    0x0000000000000000     0x6d0c MinGW-w64D/macro.o
 .debug_abbrev  0x0000000000000000      0x3e8 MinGW-w64D/macro.o
 .debug_aranges
                0x0000000000000000       0x30 MinGW-w64D/macro.o
 .debug_ranges  0x0000000000000000       0x60 MinGW-w64D/macro.o
 .debug_line    0x0000000000000000      0x660 MinGW-w64D/macro.o
 .debug_str     0x0000000000000000       0xd6 MinGW-w64D/macro.o
 .rdata$.refptr.MacroLevel
                0x0000000000000000       0x10 MinGW-w64D/macro.o
 .rdata$.refptr.Parse_Pass
                0x0000000000000000       0x10 MinGW-w64D/macro.o
 .rdata$.refptr.SymTables
                0x0000000000000000       0x10 MinGW-w64D/macro.o
 .rdata$.refptr.Options
                0x0000000000000000       0x10 MinGW-w64D/macro.o
 .rdata$.refptr.ModuleInfo
                0x0000000000000000       0x10 MinGW-w64D/macro.o
 .debug_frame   0x0000000000000000      0x258 MinGW-w64D/macro.o
 .debug_info    0x0000000000000000     0x42d3 MinGW-w64D/mangle.o
 .debug_abbrev  0x0000000000000000      0x2ef MinGW-w64D/mangle.o
 .debug_aranges
                0x0000000000000000       0x30 MinGW-w64D/mangle.o
 .debug_line    0x0000000000000000      0x198 MinGW-w64D/mangle.o
 .debug_str     0x0000000000000000       0xbb MinGW-w64D/mangle.o
 .rdata$.refptr.ModuleInfo
                0x0000000000000000       0x10 MinGW-w64D/mangle.o
 .rdata$.refptr.Options
                0x0000000000000000       0x10 MinGW-w64D/mangle.o
 .debug_frame   0x0000000000000000      0x180 MinGW-w64D/mangle.o
 .debug_info    0x0000000000000000     0x2d3c MinGW-w64D/memalloc.o
 .debug_abbrev  0x0000000000000000      0x16d MinGW-w64D/memalloc.o
 .debug_aranges
                0x0000000000000000       0x30 MinGW-w64D/memalloc.o
 .debug_line    0x0000000000000000      0x127 MinGW-w64D/memalloc.o
 .debug_str     0x0000000000000000        0x0 MinGW-w64D/memalloc.o
 .rdata$.refptr.Options
                0x0000000000000000       0x10 MinGW-w64D/memalloc.o
 .debug_frame   0x0000000000000000       0xe0 MinGW-w64D/memalloc.o
 .debug_info    0x0000000000000000     0x3399 MinGW-w64D/msgtext.o
 .debug_abbrev  0x0000000000000000      0x21e MinGW-w64D/msgtext.o
 .debug_aranges
                0x0000000000000000       0x30 MinGW-w64D/msgtext.o
 .debug_line    0x0000000000000000      0x104 MinGW-w64D/msgtext.o
 .debug_str     0x0000000000000000        0x0 MinGW-w64D/msgtext.o
 .rdata$.refptr.ModuleInfo
                0x0000000000000000       0x10 MinGW-w64D/msgtext.o
 .debug_frame   0x0000000000000000       0x68 MinGW-w64D/msgtext.o
 .drectve       0x0000000000000000       0x20 MinGW-w64D/omf.o
 .debug_info    0x0000000000000000     0x8458 MinGW-w64D/omf.o
 .debug_abbrev  0x0000000000000000      0x420 MinGW-w64D/omf.o
 .debug_aranges
                0x0000000000000000       0x30 MinGW-w64D/omf.o
 .debug_ranges  0x0000000000000000       0x30 MinGW-w64D/omf.o
 .debug_line    0x0000000000000000      0x9ad MinGW-w64D/omf.o
 .debug_str     0x0000000000000000      0x119 MinGW-w64D/omf.o
 .rdata$.refptr.Parse_Pass
                0x0000000000000000       0x10 MinGW-w64D/omf.o
 .rdata$.refptr.SymTables
                0x0000000000000000       0x10 MinGW-w64D/omf.o
 .rdata$.refptr.Options
                0x0000000000000000       0x10 MinGW-w64D/omf.o
 .rdata$.refptr.LinnumQueue
                0x0000000000000000       0x10 MinGW-w64D/omf.o
 .rdata$.refptr.write_to_file
                0x0000000000000000       0x10 MinGW-w64D/omf.o
 .rdata$.refptr.ModuleInfo
                0x0000000000000000       0x10 MinGW-w64D/omf.o
 .debug_frame   0x0000000000000000      0x6d8 MinGW-w64D/omf.o
 .debug_info    0x0000000000000000     0x4da1 MinGW-w64D/omffixup.o
 .debug_abbrev  0x0000000000000000      0x337 MinGW-w64D/omffixup.o
 .debug_aranges
                0x0000000000000000       0x30 MinGW-w64D/omffixup.o
 .debug_line    0x0000000000000000      0x32b MinGW-w64D/omffixup.o
 .debug_str     0x0000000000000000       0x55 MinGW-w64D/omffixup.o
 .rdata$.refptr.ModuleInfo
                0x0000000000000000       0x10 MinGW-w64D/omffixup.o
 .rdata$.refptr.szNull
                0x0000000000000000       0x10 MinGW-w64D/omffixup.o
 .debug_frame   0x0000000000000000      0x180 MinGW-w64D/omffixup.o
 .debug_info    0x0000000000000000     0x41d0 MinGW-w64D/omfint.o
 .debug_abbrev  0x0000000000000000      0x2d4 MinGW-w64D/omfint.o
 .debug_aranges
                0x0000000000000000       0x30 MinGW-w64D/omfint.o
 .debug_line    0x0000000000000000      0x2ce MinGW-w64D/omfint.o
 .debug_str     0x0000000000000000       0x1d MinGW-w64D/omfint.o
 .rdata$.refptr.ModuleInfo
                0x0000000000000000       0x10 MinGW-w64D/omfint.o
 .debug_frame   0x0000000000000000      0x390 MinGW-w64D/omfint.o
 .debug_info    0x0000000000000000     0x7518 MinGW-w64D/option.o
 .debug_abbrev  0x0000000000000000      0x37c MinGW-w64D/option.o
 .debug_aranges
                0x0000000000000000       0x30 MinGW-w64D/option.o
 .debug_line    0x0000000000000000      0x500 MinGW-w64D/option.o
 .debug_str     0x0000000000000000       0xcc MinGW-w64D/option.o
 .rdata$.refptr.SpecialTable
                0x0000000000000000       0x10 MinGW-w64D/option.o
 .rdata$.refptr.Options
                0x0000000000000000       0x10 MinGW-w64D/option.o
 .rdata$.refptr.Parse_Pass
                0x0000000000000000       0x10 MinGW-w64D/option.o
 .rdata$.refptr.ModuleInfo
                0x0000000000000000       0x10 MinGW-w64D/option.o
 .debug_frame   0x0000000000000000      0x630 MinGW-w64D/option.o
 .drectve       0x0000000000000000       0x34 MinGW-w64D/parser.o
 .debug_info    0x0000000000000000     0xdc60 MinGW-w64D/parser.o
 .debug_abbrev  0x0000000000000000      0x479 MinGW-w64D/parser.o
 .debug_aranges
                0x0000000000000000       0x30 MinGW-w64D/parser.o
 .debug_ranges  0x0000000000000000       0x30 MinGW-w64D/parser.o
 .debug_line    0x0000000000000000     0x1636 MinGW-w64D/parser.o
 .debug_str     0x0000000000000000      0x11f MinGW-w64D/parser.o
 .rdata$.refptr.vex_flags
                0x0000000000000000       0x10 MinGW-w64D/parser.o
 .rdata$.refptr.Options
                0x0000000000000000       0x10 MinGW-w64D/parser.o
 .rdata$.refptr.InstrTable
                0x0000000000000000       0x10 MinGW-w64D/parser.o
 .rdata$.refptr.optable_idx
                0x0000000000000000       0x10 MinGW-w64D/parser.o
 .rdata$.refptr.UseSavedState
                0x0000000000000000       0x10 MinGW-w64D/parser.o
 .rdata$.refptr.StoreState
                0x0000000000000000       0x10 MinGW-w64D/parser.o
 .rdata$.refptr.CurrStruct
                0x0000000000000000       0x10 MinGW-w64D/parser.o
 .rdata$.refptr.CurrProc
                0x0000000000000000       0x10 MinGW-w64D/parser.o
 .rdata$.refptr.opnd_clstab
                0x0000000000000000       0x10 MinGW-w64D/parser.o
 .rdata$.refptr.Parse_Pass
                0x0000000000000000       0x10 MinGW-w64D/parser.o
 .rdata$.refptr.maxintvalues
                0x0000000000000000       0x10 MinGW-w64D/parser.o
 .rdata$.refptr.minintvalues
                0x0000000000000000       0x10 MinGW-w64D/parser.o
 .rdata$.refptr.SegAssumeTable
                0x0000000000000000       0x10 MinGW-w64D/parser.o
 .rdata$.refptr.ModuleInfo
                0x0000000000000000       0x10 MinGW-w64D/parser.o
 .rdata$.refptr.SpecialTable
                0x0000000000000000       0x10 MinGW-w64D/parser.o
 .debug_frame   0x0000000000000000      0x480 MinGW-w64D/parser.o
 .debug_info    0x0000000000000000     0x691b MinGW-w64D/posndir.o
 .debug_abbrev  0x0000000000000000      0x316 MinGW-w64D/posndir.o
 .debug_aranges
                0x0000000000000000       0x30 MinGW-w64D/posndir.o
 .debug_line    0x0000000000000000      0x294 MinGW-w64D/posndir.o
 .debug_str     0x0000000000000000       0xd9 MinGW-w64D/posndir.o
 .rdata$.refptr.Parse_Pass
                0x0000000000000000       0x10 MinGW-w64D/posndir.o
 .rdata$.refptr.StoreState
                0x0000000000000000       0x10 MinGW-w64D/posndir.o
 .rdata$.refptr.CurrStruct
                0x0000000000000000       0x10 MinGW-w64D/posndir.o
 .rdata$.refptr.ModuleInfo
                0x0000000000000000       0x10 MinGW-w64D/posndir.o
 .rdata$.refptr.Options
                0x0000000000000000       0x10 MinGW-w64D/posndir.o
 .debug_frame   0x0000000000000000       0xb8 MinGW-w64D/posndir.o
 .drectve       0x0000000000000000       0x48 MinGW-w64D/preproc.o
 .debug_info    0x0000000000000000     0x658b MinGW-w64D/preproc.o
 .debug_abbrev  0x0000000000000000      0x2da MinGW-w64D/preproc.o
 .debug_aranges
                0x0000000000000000       0x30 MinGW-w64D/preproc.o
 .debug_line    0x0000000000000000      0x23c MinGW-w64D/preproc.o
 .debug_str     0x0000000000000000       0xac MinGW-w64D/preproc.o
 .rdata$.refptr.Parse_Pass
                0x0000000000000000       0x10 MinGW-w64D/preproc.o
 .rdata$.refptr.StoreState
                0x0000000000000000       0x10 MinGW-w64D/preproc.o
 .rdata$.refptr.directive_tab
                0x0000000000000000       0x10 MinGW-w64D/preproc.o
 .rdata$.refptr.Options
                0x0000000000000000       0x10 MinGW-w64D/preproc.o
 .rdata$.refptr.ModuleInfo
                0x0000000000000000       0x10 MinGW-w64D/preproc.o
 .debug_frame   0x0000000000000000       0x78 MinGW-w64D/preproc.o
 .drectve       0x0000000000000000       0xa0 MinGW-w64D/proc.o
 .debug_info    0x0000000000000000     0xe022 MinGW-w64D/proc.o
 .debug_abbrev  0x0000000000000000      0x4b6 MinGW-w64D/proc.o
 .debug_aranges
                0x0000000000000000       0x30 MinGW-w64D/proc.o
 .debug_line    0x0000000000000000     0x1616 MinGW-w64D/proc.o
 .debug_str     0x0000000000000000      0x14e MinGW-w64D/proc.o
 .rdata$.refptr.LineStoreCurr
                0x0000000000000000       0x10 MinGW-w64D/proc.o
 .rdata$.refptr.list_pos
                0x0000000000000000       0x10 MinGW-w64D/proc.o
 .rdata$.refptr.szDgroup
                0x0000000000000000       0x10 MinGW-w64D/proc.o
 .rdata$.refptr.UseSavedState
                0x0000000000000000       0x10 MinGW-w64D/proc.o
 .rdata$.refptr.SymCmpFunc
                0x0000000000000000       0x10 MinGW-w64D/proc.o
 .rdata$.refptr.SymTables
                0x0000000000000000       0x10 MinGW-w64D/proc.o
 .rdata$.refptr.Options
                0x0000000000000000       0x10 MinGW-w64D/proc.o
 .rdata$.refptr.SpecialTable
                0x0000000000000000       0x10 MinGW-w64D/proc.o
 .rdata$.refptr.Parse_Pass
                0x0000000000000000       0x10 MinGW-w64D/proc.o
 .rdata$.refptr.ModuleInfo
                0x0000000000000000       0x10 MinGW-w64D/proc.o
 .debug_frame   0x0000000000000000      0x6c0 MinGW-w64D/proc.o
 .debug_info    0x0000000000000000      0x240 MinGW-w64D/queue.o
 .debug_abbrev  0x0000000000000000       0xb6 MinGW-w64D/queue.o
 .debug_aranges
                0x0000000000000000       0x30 MinGW-w64D/queue.o
 .debug_line    0x0000000000000000       0x5d MinGW-w64D/queue.o
 .debug_str     0x0000000000000000        0x0 MinGW-w64D/queue.o
 .debug_frame   0x0000000000000000       0x68 MinGW-w64D/queue.o
 .debug_info    0x0000000000000000    0x10942 MinGW-w64D/reswords.o
 .debug_abbrev  0x0000000000000000      0x234 MinGW-w64D/reswords.o
 .debug_aranges
                0x0000000000000000       0x30 MinGW-w64D/reswords.o
 .debug_line    0x0000000000000000      0x463 MinGW-w64D/reswords.o
 .debug_str     0x0000000000000000       0x20 MinGW-w64D/reswords.o
 .rdata$.refptr.Options
                0x0000000000000000       0x10 MinGW-w64D/reswords.o
 .debug_frame   0x0000000000000000      0x268 MinGW-w64D/reswords.o
 .debug_info    0x0000000000000000     0x4ca9 MinGW-w64D/safeseh.o
 .debug_abbrev  0x0000000000000000      0x2af MinGW-w64D/safeseh.o
 .debug_aranges
                0x0000000000000000       0x30 MinGW-w64D/safeseh.o
 .debug_line    0x0000000000000000      0x153 MinGW-w64D/safeseh.o
 .debug_str     0x0000000000000000       0xac MinGW-w64D/safeseh.o
 .rdata$.refptr.ModuleInfo
                0x0000000000000000       0x10 MinGW-w64D/safeseh.o
 .rdata$.refptr.Parse_Pass
                0x0000000000000000       0x10 MinGW-w64D/safeseh.o
 .rdata$.refptr.Options
                0x0000000000000000       0x10 MinGW-w64D/safeseh.o
 .debug_frame   0x0000000000000000       0x40 MinGW-w64D/safeseh.o
 .drectve       0x0000000000000000       0x1c MinGW-w64D/segment.o
 .debug_info    0x0000000000000000     0x76e5 MinGW-w64D/segment.o
 .debug_abbrev  0x0000000000000000      0x467 MinGW-w64D/segment.o
 .debug_aranges
                0x0000000000000000       0x30 MinGW-w64D/segment.o
 .debug_line    0x0000000000000000      0x7e0 MinGW-w64D/segment.o
 .debug_str     0x0000000000000000       0xdb MinGW-w64D/segment.o
 .rdata$.refptr.UseSavedState
                0x0000000000000000       0x10 MinGW-w64D/segment.o
 .rdata$.refptr.write_to_file
                0x0000000000000000       0x10 MinGW-w64D/segment.o
 .rdata$.refptr.SymCmpFunc
                0x0000000000000000       0x10 MinGW-w64D/segment.o
 .rdata$.refptr.Parse_Pass
                0x0000000000000000       0x10 MinGW-w64D/segment.o
 .rdata$.refptr.Options
                0x0000000000000000       0x10 MinGW-w64D/segment.o
 .rdata$.refptr.SymTables
                0x0000000000000000       0x10 MinGW-w64D/segment.o
 .rdata$.refptr.SegAssumeTable
                0x0000000000000000       0x10 MinGW-w64D/segment.o
 .rdata$.refptr.ModuleInfo
                0x0000000000000000       0x10 MinGW-w64D/segment.o
 .rdata$.refptr.CurrStruct
                0x0000000000000000       0x10 MinGW-w64D/segment.o
 .debug_frame   0x0000000000000000      0x5a8 MinGW-w64D/segment.o
 .debug_info    0x0000000000000000     0x67ea MinGW-w64D/simsegm.o
 .debug_abbrev  0x0000000000000000      0x396 MinGW-w64D/simsegm.o
 .debug_aranges
                0x0000000000000000       0x30 MinGW-w64D/simsegm.o
 .debug_line    0x0000000000000000      0x290 MinGW-w64D/simsegm.o
 .debug_str     0x0000000000000000       0xcb MinGW-w64D/simsegm.o
 .rdata$.refptr.SpecialTable
                0x0000000000000000       0x10 MinGW-w64D/simsegm.o
 .rdata$.refptr.Parse_Pass
                0x0000000000000000       0x10 MinGW-w64D/simsegm.o
 .rdata$.refptr.szDgroup
                0x0000000000000000       0x10 MinGW-w64D/simsegm.o
 .rdata$.refptr.ModuleInfo
                0x0000000000000000       0x10 MinGW-w64D/simsegm.o
 .rdata$.refptr.Options
                0x0000000000000000       0x10 MinGW-w64D/simsegm.o
 .debug_frame   0x0000000000000000      0x1c8 MinGW-w64D/simsegm.o
 .debug_info    0x0000000000000000     0x6bd1 MinGW-w64D/string.o
 .debug_abbrev  0x0000000000000000      0x37e MinGW-w64D/string.o
 .debug_aranges
                0x0000000000000000       0x30 MinGW-w64D/string.o
 .debug_line    0x0000000000000000      0x516 MinGW-w64D/string.o
 .debug_str     0x0000000000000000       0xd2 MinGW-w64D/string.o
 .rdata$.refptr.Options
                0x0000000000000000       0x10 MinGW-w64D/string.o
 .rdata$.refptr.SymTables
                0x0000000000000000       0x10 MinGW-w64D/string.o
 .rdata$.refptr.ModuleInfo
                0x0000000000000000       0x10 MinGW-w64D/string.o
 .debug_frame   0x0000000000000000      0x278 MinGW-w64D/string.o
 .drectve       0x0000000000000000       0x1c MinGW-w64D/symbols.o
 .debug_info    0x0000000000000000     0x6bfe MinGW-w64D/symbols.o
 .debug_abbrev  0x0000000000000000      0x43d MinGW-w64D/symbols.o
 .debug_aranges
                0x0000000000000000       0x30 MinGW-w64D/symbols.o
 .debug_line    0x0000000000000000      0x50c MinGW-w64D/symbols.o
 .debug_str     0x0000000000000000       0xb6 MinGW-w64D/symbols.o
 .rdata$.refptr.UseSavedState
                0x0000000000000000       0x10 MinGW-w64D/symbols.o
 .rdata$.refptr.Options
                0x0000000000000000       0x10 MinGW-w64D/symbols.o
 .rdata$.refptr.CurrProc
                0x0000000000000000       0x10 MinGW-w64D/symbols.o
 .rdata$.refptr.ModuleInfo
                0x0000000000000000       0x10 MinGW-w64D/symbols.o
 .debug_frame   0x0000000000000000      0x3d8 MinGW-w64D/symbols.o
 .debug_info    0x0000000000000000      0x8ce MinGW-w64D/tbyte.o
 .debug_abbrev  0x0000000000000000      0x18f MinGW-w64D/tbyte.o
 .debug_aranges
                0x0000000000000000       0x30 MinGW-w64D/tbyte.o
 .debug_line    0x0000000000000000      0x24b MinGW-w64D/tbyte.o
 .debug_str     0x0000000000000000        0x9 MinGW-w64D/tbyte.o
 .debug_frame   0x0000000000000000      0x1a8 MinGW-w64D/tbyte.o
 .drectve       0x0000000000000000       0x30 MinGW-w64D/tokenize.o
 .debug_info    0x0000000000000000     0x6e30 MinGW-w64D/tokenize.o
 .debug_abbrev  0x0000000000000000      0x39f MinGW-w64D/tokenize.o
 .debug_aranges
                0x0000000000000000       0x30 MinGW-w64D/tokenize.o
 .debug_line    0x0000000000000000      0x83c MinGW-w64D/tokenize.o
 .debug_str     0x0000000000000000       0xb2 MinGW-w64D/tokenize.o
 .rdata$.refptr.CurrIfState
                0x0000000000000000       0x10 MinGW-w64D/tokenize.o
 .rdata$.refptr.UseSavedState
                0x0000000000000000       0x10 MinGW-w64D/tokenize.o
 .rdata$.refptr.Parse_Pass
                0x0000000000000000       0x10 MinGW-w64D/tokenize.o
 .rdata$.refptr.Options
                0x0000000000000000       0x10 MinGW-w64D/tokenize.o
 .rdata$.refptr.SpecialTable
                0x0000000000000000       0x10 MinGW-w64D/tokenize.o
 .rdata$.refptr.InstrTable
                0x0000000000000000       0x10 MinGW-w64D/tokenize.o
 .rdata$.refptr.optable_idx
                0x0000000000000000       0x10 MinGW-w64D/tokenize.o
 .rdata$.refptr.ModuleInfo
                0x0000000000000000       0x10 MinGW-w64D/tokenize.o
 .debug_frame   0x0000000000000000      0x240 MinGW-w64D/tokenize.o
 .drectve       0x0000000000000000       0x1c MinGW-w64D/types.o
 .debug_info    0x0000000000000000     0x6d92 MinGW-w64D/types.o
 .debug_abbrev  0x0000000000000000      0x3cf MinGW-w64D/types.o
 .debug_aranges
                0x0000000000000000       0x30 MinGW-w64D/types.o
 .debug_line    0x0000000000000000      0x95d MinGW-w64D/types.o
 .debug_str     0x0000000000000000       0x8d MinGW-w64D/types.o
 .rdata$.refptr.SpecialTable
                0x0000000000000000       0x10 MinGW-w64D/types.o
 .rdata$.refptr.Parse_Pass
                0x0000000000000000       0x10 MinGW-w64D/types.o
 .rdata$.refptr.ModuleInfo
                0x0000000000000000       0x10 MinGW-w64D/types.o
 .rdata$.refptr.SymCmpFunc
                0x0000000000000000       0x10 MinGW-w64D/types.o
 .rdata$.refptr.SymTables
                0x0000000000000000       0x10 MinGW-w64D/types.o
 .debug_frame   0x0000000000000000      0x2a8 MinGW-w64D/types.o
 .drectve       0x0000000000000000       0x38 C:/Program Files/mingw-w64/x86_64-5.3.0-posix-seh-rt_v4-rev0/mingw64/bin/../lib/gcc/x86_64-w64-mingw32/5.3.0/../../../../x86_64-w64-mingw32/lib/../lib/libmingw32.a(lib64_libmingw32_a-atonexit.o)
 .drectve       0x0000000000000000       0x4c C:/Program Files/mingw-w64/x86_64-5.3.0-posix-seh-rt_v4-rev0/mingw64/bin/../lib/gcc/x86_64-w64-mingw32/5.3.0/../../../../x86_64-w64-mingw32/lib/../lib/libmingw32.a(lib64_libmingw32_a-natstart.o)
 .rdata$.refptr.__image_base__
                0x0000000000000000       0x10 C:/Program Files/mingw-w64/x86_64-5.3.0-posix-seh-rt_v4-rev0/mingw64/bin/../lib/gcc/x86_64-w64-mingw32/5.3.0/../../../../x86_64-w64-mingw32/lib/../lib/libmingw32.a(lib64_libmingw32_a-pseudo-reloc.o)
 .rdata$.refptr.__image_base__
                0x0000000000000000       0x10 C:/Program Files/mingw-w64/x86_64-5.3.0-posix-seh-rt_v4-rev0/mingw64/bin/../lib/gcc/x86_64-w64-mingw32/5.3.0/../../../../x86_64-w64-mingw32/lib/../lib/libmingw32.a(lib64_libmingw32_a-pesect.o)
 .debug_line    0x0000000000000000       0x7b C:/Program Files/mingw-w64/x86_64-5.3.0-posix-seh-rt_v4-rev0/mingw64/bin/../lib/gcc/x86_64-w64-mingw32/5.3.0/libgcc.a(_chkstk_ms.o)
 .debug_info    0x0000000000000000       0xbd C:/Program Files/mingw-w64/x86_64-5.3.0-posix-seh-rt_v4-rev0/mingw64/bin/../lib/gcc/x86_64-w64-mingw32/5.3.0/libgcc.a(_chkstk_ms.o)
 .debug_abbrev  0x0000000000000000       0x14 C:/Program Files/mingw-w64/x86_64-5.3.0-posix-seh-rt_v4-rev0/mingw64/bin/../lib/gcc/x86_64-w64-mingw32/5.3.0/libgcc.a(_chkstk_ms.o)
 .debug_aranges
                0x0000000000000000       0x30 C:/Program Files/mingw-w64/x86_64-5.3.0-posix-seh-rt_v4-rev0/mingw64/bin/../lib/gcc/x86_64-w64-mingw32/5.3.0/libgcc.a(_chkstk_ms.o)
 .debug_frame   0x0000000000000000       0x48 C:/Program Files/mingw-w64/x86_64-5.3.0-posix-seh-rt_v4-rev0/mingw64/bin/../lib/gcc/x86_64-w64-mingw32/5.3.0/libgcc.a(_chkstk_ms.o)
 .drectve       0x0000000000000000       0x3c C:/Program Files/mingw-w64/x86_64-5.3.0-posix-seh-rt_v4-rev0/mingw64/bin/../lib/gcc/x86_64-w64-mingw32/5.3.0/libgcc.a(_ctors.o)
 .debug_info    0x0000000000000000      0xd5f C:/Program Files/mingw-w64/x86_64-5.3.0-posix-seh-rt_v4-rev0/mingw64/bin/../lib/gcc/x86_64-w64-mingw32/5.3.0/libgcc.a(_ctors.o)
 .debug_abbrev  0x0000000000000000       0x75 C:/Program Files/mingw-w64/x86_64-5.3.0-posix-seh-rt_v4-rev0/mingw64/bin/../lib/gcc/x86_64-w64-mingw32/5.3.0/libgcc.a(_ctors.o)
 .debug_aranges
                0x0000000000000000       0x20 C:/Program Files/mingw-w64/x86_64-5.3.0-posix-seh-rt_v4-rev0/mingw64/bin/../lib/gcc/x86_64-w64-mingw32/5.3.0/libgcc.a(_ctors.o)
 .debug_line    0x0000000000000000       0xb2 C:/Program Files/mingw-w64/x86_64-5.3.0-posix-seh-rt_v4-rev0/mingw64/bin/../lib/gcc/x86_64-w64-mingw32/5.3.0/libgcc.a(_ctors.o)
 .debug_str     0x0000000000000000        0x0 C:/Program Files/mingw-w64/x86_64-5.3.0-posix-seh-rt_v4-rev0/mingw64/bin/../lib/gcc/x86_64-w64-mingw32/5.3.0/libgcc.a(_ctors.o)
 .drectve       0x0000000000000000       0x1c C:/Program Files/mingw-w64/x86_64-5.3.0-posix-seh-rt_v4-rev0/mingw64/bin/../lib/gcc/x86_64-w64-mingw32/5.3.0/../../../../x86_64-w64-mingw32/lib/../lib/libmingwex.a(lib64_libmingwex_a-hd_init.o)
 .rdata$.refptr.__hexdig_D2A
                0x0000000000000000       0x10 C:/Program Files/mingw-w64/x86_64-5.3.0-posix-seh-rt_v4-rev0/mingw64/bin/../lib/gcc/x86_64-w64-mingw32/5.3.0/../../../../x86_64-w64-mingw32/lib/../lib/libmingwex.a(lib64_libmingwex_a-hexnan.o)

Memory Configuration

Name             Origin             Length             Attributes
*default*        0x0000000000000000 0xffffffffffffffff

Linker script and memory map

                0x0000000000400000                __image_base__ = 0x400000
                0x0000000000000000                __dll__ = 0x0
                0x0000000000400000                __ImageBase = 0x400000
                0x0000000000001000                __section_alignment__ = 0x1000
                0x0000000000000200                __file_alignment__ = 0x200
                0x0000000000000004                __major_os_version__ = 0x4
                0x0000000000000000                __minor_os_version__ = 0x0
                0x0000000000000000                __major_image_version__ = 0x0
                0x0000000000000000                __minor_image_version__ = 0x0
                0x0000000000000005                __major_subsystem_version__ = 0x5
                0x0000000000000002                __minor_subsystem_version__ = 0x2
                0x0000000000000003                __subsystem__ = 0x3
                0x0000000000200000                __size_of_stack_reserve__ = 0x200000
                0x0000000000001000                __size_of_stack_commit__ = 0x1000
                0x0000000000100000                __size_of_heap_reserve__ = 0x100000
                0x0000000000001000                __size_of_heap_commit__ = 0x1000
                0x0000000000000000                __loader_flags__ = 0x0
                0x0000000000000000                __dll_characteristics__ = 0x0
LOAD C:/Program Files/mingw-w64/x86_64-5.3.0-posix-seh-rt_v4-rev0/mingw64/bin/../lib/gcc/x86_64-w64-mingw32/5.3.0/../../../../x86_64-w64-mingw32/lib/../lib/crt2.o
LOAD C:/Program Files/mingw-w64/x86_64-5.3.0-posix-seh-rt_v4-rev0/mingw64/bin/../lib/gcc/x86_64-w64-mingw32/5.3.0/crtbegin.o
LOAD MinGW-w64D/main.o
LOAD MinGW-w64D/apiemu.o
LOAD MinGW-w64D/assemble.o
LOAD MinGW-w64D/assume.o
LOAD MinGW-w64D/atofloat.o
LOAD MinGW-w64D/backptch.o
LOAD MinGW-w64D/bin.o
LOAD MinGW-w64D/branch.o
LOAD MinGW-w64D/cmdline.o
LOAD MinGW-w64D/codegen.o
LOAD MinGW-w64D/coff.o
LOAD MinGW-w64D/condasm.o
LOAD MinGW-w64D/context.o
LOAD MinGW-w64D/cpumodel.o
LOAD MinGW-w64D/data.o
LOAD MinGW-w64D/dbgcv.o
LOAD MinGW-w64D/directiv.o
LOAD MinGW-w64D/elf.o
LOAD MinGW-w64D/end.o
LOAD MinGW-w64D/equate.o
LOAD MinGW-w64D/errmsg.o
LOAD MinGW-w64D/expans.o
LOAD MinGW-w64D/expreval.o
LOAD MinGW-w64D/extern.o
LOAD MinGW-w64D/fastpass.o
LOAD MinGW-w64D/fixup.o
LOAD MinGW-w64D/fpfixup.o
LOAD MinGW-w64D/hll.o
LOAD MinGW-w64D/input.o
LOAD MinGW-w64D/invoke.o
LOAD MinGW-w64D/label.o
LOAD MinGW-w64D/linnum.o
LOAD MinGW-w64D/listing.o
LOAD MinGW-w64D/loop.o
LOAD MinGW-w64D/lqueue.o
LOAD MinGW-w64D/macro.o
LOAD MinGW-w64D/mangle.o
LOAD MinGW-w64D/memalloc.o
LOAD MinGW-w64D/msgtext.o
LOAD MinGW-w64D/omf.o
LOAD MinGW-w64D/omffixup.o
LOAD MinGW-w64D/omfint.o
LOAD MinGW-w64D/option.o
LOAD MinGW-w64D/parser.o
LOAD MinGW-w64D/posndir.o
LOAD MinGW-w64D/preproc.o
LOAD MinGW-w64D/proc.o
LOAD MinGW-w64D/queue.o
LOAD MinGW-w64D/reswords.o
LOAD MinGW-w64D/safeseh.o
LOAD MinGW-w64D/segment.o
LOAD MinGW-w64D/simsegm.o
LOAD MinGW-w64D/string.o
LOAD MinGW-w64D/symbols.o
LOAD MinGW-w64D/tbyte.o
LOAD MinGW-w64D/tokenize.o
LOAD MinGW-w64D/types.o
LOAD C:/Program Files/mingw-w64/x86_64-5.3.0-posix-seh-rt_v4-rev0/mingw64/bin/../lib/gcc/x86_64-w64-mingw32/5.3.0/../../../../x86_64-w64-mingw32/lib/../lib/libmingw32.a
LOAD C:/Program Files/mingw-w64/x86_64-5.3.0-posix-seh-rt_v4-rev0/mingw64/bin/../lib/gcc/x86_64-w64-mingw32/5.3.0/libgcc.a
LOAD C:/Program Files/mingw-w64/x86_64-5.3.0-posix-seh-rt_v4-rev0/mingw64/bin/../lib/gcc/x86_64-w64-mingw32/5.3.0/libgcc_eh.a
LOAD C:/Program Files/mingw-w64/x86_64-5.3.0-posix-seh-rt_v4-rev0/mingw64/bin/../lib/gcc/x86_64-w64-mingw32/5.3.0/../../../../x86_64-w64-mingw32/lib/../lib/libmoldname.a
LOAD C:/Program Files/mingw-w64/x86_64-5.3.0-posix-seh-rt_v4-rev0/mingw64/bin/../lib/gcc/x86_64-w64-mingw32/5.3.0/../../../../x86_64-w64-mingw32/lib/../lib/libmingwex.a
LOAD C:/Program Files/mingw-w64/x86_64-5.3.0-posix-seh-rt_v4-rev0/mingw64/bin/../lib/gcc/x86_64-w64-mingw32/5.3.0/../../../../x86_64-w64-mingw32/lib/../lib/libmsvcrt.a
LOAD C:/Program Files/mingw-w64/x86_64-5.3.0-posix-seh-rt_v4-rev0/mingw64/bin/../lib/gcc/x86_64-w64-mingw32/5.3.0/../../../../x86_64-w64-mingw32/lib/../lib/libpthread.dll.a
LOAD C:/Program Files/mingw-w64/x86_64-5.3.0-posix-seh-rt_v4-rev0/mingw64/bin/../lib/gcc/x86_64-w64-mingw32/5.3.0/../../../../x86_64-w64-mingw32/lib/../lib/libadvapi32.a
LOAD C:/Program Files/mingw-w64/x86_64-5.3.0-posix-seh-rt_v4-rev0/mingw64/bin/../lib/gcc/x86_64-w64-mingw32/5.3.0/../../../../x86_64-w64-mingw32/lib/../lib/libshell32.a
LOAD C:/Program Files/mingw-w64/x86_64-5.3.0-posix-seh-rt_v4-rev0/mingw64/bin/../lib/gcc/x86_64-w64-mingw32/5.3.0/../../../../x86_64-w64-mingw32/lib/../lib/libuser32.a
LOAD C:/Program Files/mingw-w64/x86_64-5.3.0-posix-seh-rt_v4-rev0/mingw64/bin/../lib/gcc/x86_64-w64-mingw32/5.3.0/../../../../x86_64-w64-mingw32/lib/../lib/libkernel32.a
LOAD C:/Program Files/mingw-w64/x86_64-5.3.0-posix-seh-rt_v4-rev0/mingw64/bin/../lib/gcc/x86_64-w64-mingw32/5.3.0/../../../../x86_64-w64-mingw32/lib/../lib/libiconv.a
LOAD C:/Program Files/mingw-w64/x86_64-5.3.0-posix-seh-rt_v4-rev0/mingw64/bin/../lib/gcc/x86_64-w64-mingw32/5.3.0/../../../../x86_64-w64-mingw32/lib/../lib/libmingw32.a
LOAD C:/Program Files/mingw-w64/x86_64-5.3.0-posix-seh-rt_v4-rev0/mingw64/bin/../lib/gcc/x86_64-w64-mingw32/5.3.0/libgcc.a
LOAD C:/Program Files/mingw-w64/x86_64-5.3.0-posix-seh-rt_v4-rev0/mingw64/bin/../lib/gcc/x86_64-w64-mingw32/5.3.0/libgcc_eh.a
LOAD C:/Program Files/mingw-w64/x86_64-5.3.0-posix-seh-rt_v4-rev0/mingw64/bin/../lib/gcc/x86_64-w64-mingw32/5.3.0/../../../../x86_64-w64-mingw32/lib/../lib/libmoldname.a
LOAD C:/Program Files/mingw-w64/x86_64-5.3.0-posix-seh-rt_v4-rev0/mingw64/bin/../lib/gcc/x86_64-w64-mingw32/5.3.0/../../../../x86_64-w64-mingw32/lib/../lib/libmingwex.a
LOAD C:/Program Files/mingw-w64/x86_64-5.3.0-posix-seh-rt_v4-rev0/mingw64/bin/../lib/gcc/x86_64-w64-mingw32/5.3.0/../../../../x86_64-w64-mingw32/lib/../lib/libmsvcrt.a
LOAD C:/Program Files/mingw-w64/x86_64-5.3.0-posix-seh-rt_v4-rev0/mingw64/bin/../lib/gcc/x86_64-w64-mingw32/5.3.0/crtend.o
                0x00000000000002f0                . = SIZEOF_HEADERS
                0x0000000000001000                . = ALIGN (__section_alignment__)

.text           0x0000000000401000    0x74a00
 *(.init)
 *(.text)
 .text          0x0000000000401000      0x530 C:/Program Files/mingw-w64/x86_64-5.3.0-posix-seh-rt_v4-rev0/mingw64/bin/../lib/gcc/x86_64-w64-mingw32/5.3.0/../../../../x86_64-w64-mingw32/lib/../lib/crt2.o
                0x00000000004014d0                WinMainCRTStartup
                0x0000000000401500                mainCRTStartup
 .text          0x0000000000401530       0x80 C:/Program Files/mingw-w64/x86_64-5.3.0-posix-seh-rt_v4-rev0/mingw64/bin/../lib/gcc/x86_64-w64-mingw32/5.3.0/crtbegin.o
                0x0000000000401530                .weak._Jv_RegisterClasses.__gcc_register_frame
                0x0000000000401540                __gcc_register_frame
                0x00000000004015a0                __gcc_deregister_frame
 .text          0x00000000004015b0      0x2a0 MinGW-w64D/main.o
                0x00000000004015db                main
 .text          0x0000000000401850        0x0 MinGW-w64D/apiemu.o
 .text          0x0000000000401850     0x2f50 MinGW-w64D/assemble.o
                0x0000000000401850                ConvertSectionName
                0x0000000000401a91                OutputByte
                0x0000000000401cd4                OutputBinBytes
                0x0000000000401f69                FillDataBytes
                0x0000000000401fb3                OutputBytes
                0x000000000040225e                SetCurrOffset
                0x00000000004029b5                WritePreprocessedLine
                0x0000000000402a47                SetMasm510
                0x0000000000403ce9                close_files
                0x0000000000404279                AssembleModule
 .text          0x00000000004047a0     0x1330 MinGW-w64D/assume.o
                0x00000000004047a0                SetSegAssumeTable
                0x0000000000404828                GetSegAssumeTable
                0x00000000004048b0                SetStdAssumeTable
                0x00000000004049da                GetStdAssumeTable
                0x0000000000404b04                AssumeSaveState
                0x0000000000404b32                AssumeInit
                0x0000000000404c47                ModelAssumeInit
                0x0000000000404df6                GetStdAssume
                0x0000000000404e7b                GetStdAssumeEx
                0x0000000000404e9b                AssumeDirective
                0x0000000000405756                search_assume
                0x0000000000405969                GetOverrideAssume
                0x00000000004059b8                GetAssume
 .text          0x0000000000405ad0      0x280 MinGW-w64D/atofloat.o
                0x0000000000405ad0                atofloat
 .text          0x0000000000405d50      0x650 MinGW-w64D/backptch.o
                0x00000000004062b2                BackPatch
 .text          0x00000000004063a0     0x4690 MinGW-w64D/bin.o
                0x0000000000407a75                pe_create_PE_header
                0x000000000040a9b7                bin_init
 .text          0x000000000040aa30     0x1440 MinGW-w64D/branch.o
                0x000000000040abba                process_branch
 .text          0x000000000040be70     0x1780 MinGW-w64D/cmdline.o
                0x000000000040d053                ParseCmdline
                0x000000000040d46a                CmdlineFini
 .text          0x000000000040d5f0     0x5740 MinGW-w64D/codegen.o
                0x000000000040d5f0                GetByteDisp
                0x000000000040d813                Check4CompDisp8
                0x000000000041288f                codegen
 .text          0x0000000000412d30     0x3b10 MinGW-w64D/coff.o
                0x000000000041681f                coff_init
 .text          0x0000000000416840     0x19d0 MinGW-w64D/condasm.o
                0x0000000000416873                conditional_assembly_prepare
                0x0000000000416bf4                CondAsmDirective
                0x0000000000417756                ErrorDirective
                0x0000000000418196                CondCheckOpen
                0x00000000004181c1                GetIfNestLevel
                0x00000000004181cd                SetIfNestLevel
                0x00000000004181e0                CondInit
 .text          0x0000000000418210      0x950 MinGW-w64D/context.o
                0x0000000000418210                ContextDirective
                0x000000000041896c                ContextSaveState
                0x0000000000418b38                ContextInit
 .text          0x0000000000418b60      0xc70 MinGW-w64D/cpumodel.o
                0x0000000000418f38                ModelDirective
                0x00000000004192e6                SetCPU
                0x0000000000419733                CpuDirective
 .text          0x00000000004197d0     0x34e0 MinGW-w64D/data.o
                0x000000000041c30b                data_dir
 .text          0x000000000041ccb0     0x32c0 MinGW-w64D/dbgcv.o
                0x000000000041f9dd                cv_write_debug_tables
 .text          0x000000000041ff70     0x10f0 MinGW-w64D/directiv.o
                0x000000000041ff70                StubDir
                0x000000000041ff82                EchoDirective
                0x000000000041ffde                IncludeDirective
                0x0000000000420221                IncludeLibDirective
                0x00000000004203a1                IncBinDirective
                0x0000000000420803                AliasDirective
                0x0000000000420c28                NameDirective
                0x0000000000420dab                RadixDirective
                0x0000000000420f1f                SegOrderDirective
 .text          0x0000000000421060     0x2cf0 MinGW-w64D/elf.o
                0x0000000000423d1e                elf_init
 .text          0x0000000000423d50      0x8a0 MinGW-w64D/end.o
                0x0000000000423d50                StartupExitDirective
                0x000000000042410b                EndDirective
 .text          0x00000000004245f0     0x1300 MinGW-w64D/equate.o
                0x0000000000424ded                EqualSgnDirective
                0x0000000000424e72                CreateVariable
                0x0000000000424fcf                CreateConstant
                0x000000000042582d                EquDirective
 .text          0x00000000004258f0      0x980 MinGW-w64D/errmsg.o
                0x00000000004258f0                DoDebugMsg
                0x0000000000425963                DoDebugMsg1
                0x0000000000425a20                write_logo
                0x0000000000425a7c                PrintUsage
                0x0000000000425e69                PrintNote
                0x0000000000425eb2                EmitErr
                0x0000000000425f8c                EmitError
                0x0000000000425fa5                EmitWarn
                0x000000000042609b                ErrnoStr
                0x00000000004260ef                Fatal
                0x0000000000426175                WriteError
                0x00000000004261b9                InternalError
 .text          0x0000000000426270     0x5120 MinGW-w64D/expans.o
                0x0000000000426270                myltoa
                0x00000000004263fe                RunMacro
                0x0000000000428df0                ExpandText
                0x000000000042aaed                ExpandLineItems
                0x000000000042abfe                ExpandLiterals
                0x000000000042ad0e                ExpandLine
 .text          0x000000000042b390     0x8650 MinGW-w64D/expreval.o
                0x000000000042b676                myatoi128
                0x000000000043385e                EvalOperand
                0x000000000043395f                EmitConstError
                0x00000000004339b8                ExprEvalInit
 .text          0x00000000004339e0     0x1ff0 MinGW-w64D/extern.o
                0x0000000000433d8b                ExterndefDirective
                0x0000000000434498                ProtoDirective
                0x0000000000434562                MakeExtern
                0x0000000000434828                ExternDirective
                0x0000000000435176                CommDirective
                0x000000000043564d                AddPublicData
                0x000000000043568b                FreePubQueue
                0x00000000004356a1                PublicDirective
 .text          0x00000000004359d0      0x660 MinGW-w64D/fastpass.o
                0x0000000000435a5f                StoreLine
                0x0000000000435dc1                SkipSavedState
                0x0000000000435de6                SaveVariableState
                0x0000000000435ecd                RestoreState
                0x0000000000435fee                FastpassInit
 .text          0x0000000000436030      0x5e0 MinGW-w64D/fixup.o
                0x0000000000436030                CreateFixup
                0x00000000004361c6                FreeFixup
                0x000000000043626b                SetFixupFrame
                0x00000000004363c0                store_fixup
 .text          0x0000000000436610      0x250 MinGW-w64D/fpfixup.o
                0x0000000000436610                AddFloatingPointEmulationFixup
 .text          0x0000000000436860     0x4cc0 MinGW-w64D/hll.o
                0x00000000004399f2                HllStartDir
                0x000000000043a6c1                HllEndDir
                0x000000000043ae9e                HllExitDir
                0x000000000043b468                HllCheckOpen
                0x000000000043b4cc                HllInit
 .text          0x000000000043b520     0x1c20 MinGW-w64D/input.o
                0x000000000043b520                GetFNamePart
                0x000000000043b57d                GetExtPart
                0x000000000043b7d0                GetFName
                0x000000000043b84e                ClearSrcStack
                0x000000000043b905                UpdateLineNumber
                0x000000000043b960                GetLineNumber
                0x000000000043b992                GetTopLine
                0x000000000043ba31                GetTopSrcName
                0x000000000043bc20                PushMacro
                0x000000000043bc5c                get_curr_srcfile
                0x000000000043bcb6                set_curr_srcfile
                0x000000000043bcf5                SetLineNumber
                0x000000000043bd13                GetCurrSrcPos
                0x000000000043bdbf                print_source_nesting_structure
                0x000000000043c141                SearchFile
                0x000000000043c4dc                GetTextLine
                0x000000000043c78b                AddStringToIncludePath
                0x000000000043c8fd                PushInputStatus
                0x000000000043cad6                PopInputStatus
                0x000000000043cc50                InputInit
                0x000000000043ce28                InputPassInit
                0x000000000043ce96                InputFini
 .text          0x000000000043d140     0x5240 MinGW-w64D/invoke.o
                0x0000000000441626                InvokeDirective
 .text          0x0000000000442380      0x8c0 MinGW-w64D/label.o
                0x0000000000442380                LabelInit
                0x0000000000442398                GetAnonymousLabel
                0x00000000004423d6                CreateLabel
                0x00000000004428d3                LabelDirective
 .text          0x0000000000442c40      0x860 MinGW-w64D/linnum.o
                0x0000000000442d15                AddLinnumDataRef
                0x00000000004433e0                QueueDeleteLinnum
                0x0000000000443424                LinnumFini
                0x0000000000443475                LinnumInit
 .text          0x00000000004434a0     0x3260 MinGW-w64D/listing.o
                0x00000000004434a0                LstWrite
                0x0000000000443fa4                LstWriteSrcLine
                0x0000000000443fc8                LstPrintf
                0x0000000000444033                LstNL
                0x000000000044408c                LstSetPosition
                0x0000000000445c4e                LstWriteCRef
                0x00000000004461cf                ListingDirective
                0x0000000000446558                ListMacroDirective
                0x00000000004465fc                LstInit
 .text          0x0000000000446700     0x10d0 MinGW-w64D/loop.o
                0x0000000000446700                LoopDirective
 .text          0x00000000004477d0      0x580 MinGW-w64D/lqueue.o
                0x00000000004477d0                GetLqLine
                0x00000000004477dc                DeleteLineQueue
                0x0000000000447837                AddLineQueue
                0x000000000044791c                AddLineQueueX
                0x0000000000447bec                RunLineQueue
 .text          0x0000000000447d50     0x2140 MinGW-w64D/macro.o
                0x0000000000447d75                fill_placeholders
                0x0000000000448449                RenderMacroLine
                0x0000000000448541                StoreMacro
                0x0000000000449834                CreateMacro
                0x00000000004498f7                ReleaseMacroData
                0x00000000004499d6                MacroDir
                0x0000000000449b76                PurgeDirective
                0x0000000000449d8e                MacroInit
                0x0000000000449e75                MacroFini
 .text          0x0000000000449e90      0x400 MinGW-w64D/mangle.o
                0x000000000044a16f                Mangle
                0x000000000044a264                SetMangler
 .text          0x000000000044a290      0x2c0 MinGW-w64D/memalloc.o
                0x000000000044a290                MemInit
                0x000000000044a2c2                MemFini
                0x000000000044a378                LclAlloc
                0x000000000044a4a3                MemAlloc
                0x000000000044a506                MemFree
 .text          0x000000000044a550       0xd0 MinGW-w64D/msgtext.o
                0x000000000044a5fc                MsgGetEx
 .text          0x000000000044a620     0x2e60 MinGW-w64D/omf.o
                0x000000000044aa0d                omf_GetGrpIdx
                0x000000000044aa30                omf_OutSelect
                0x000000000044b1cb                omf_FlushCurrSeg
                0x000000000044b2f4                omf_check_flush
                0x000000000044b437                omf_set_filepos
                0x000000000044d404                omf_init
 .text          0x000000000044d480      0xa40 MinGW-w64D/omffixup.o
                0x000000000044d6c9                OmfFixGenFixModend
                0x000000000044dcaa                OmfFixGenFix
 .text          0x000000000044dec0      0xc70 MinGW-w64D/omfint.o
                0x000000000044ea4b                omf_write_record
 .text          0x000000000044eb30     0x1ea0 MinGW-w64D/option.o
                0x000000000045077b                OptionDirective
 .text          0x00000000004509d0     0x8140 MinGW-w64D/parser.o
                0x00000000004509d0                sym_add_table
                0x0000000000450a77                sym_remove_table
                0x0000000000450b1a                sym_ext2int
                0x0000000000450b9b                GetLangType
                0x0000000000450c48                SizeFromRegister
                0x0000000000450d7f                SizeFromMemtype
                0x0000000000450fb4                MemtypeFromSize
                0x0000000000451098                OperandSize
                0x0000000000451638                set_frame
                0x0000000000451677                set_frame2
                0x0000000000451ef1                segm_override
                0x0000000000452469                idata_fixup
                0x00000000004564d3                ParseLine
                0x0000000000458a67                ProcessFile
 .text          0x0000000000458b10      0x7a0 MinGW-w64D/posndir.o
                0x0000000000458b10                OrgDirective
                0x0000000000458f3a                AlignCurrOffset
                0x0000000000458f8d                AlignDirective
 .text          0x00000000004592b0      0x530 MinGW-w64D/preproc.o
                0x00000000004592b0                WriteCodeLabel
                0x00000000004593c9                PreprocessLine
 .text          0x00000000004597e0     0x7c10 MinGW-w64D/proc.o
                0x000000000045a060                LocalDir
                0x000000000045a5e4                UpdateStackBase
                0x000000000045a63b                UpdateProcStatus
                0x000000000045b424                ParseProc
                0x000000000045c2b6                CreateProc
                0x000000000045c4bc                DeleteProc
                0x000000000045c5d6                ProcDir
                0x000000000045ccb8                CopyPrototype
                0x000000000045d692                EndpDir
                0x000000000045d7ad                ExcFrameDirective
                0x000000000045e2c5                ProcCheckOpen
                0x0000000000460095                write_prologue
                0x0000000000460f26                RetInstr
                0x0000000000461326                ProcInit
 .text          0x00000000004613f0       0xd0 MinGW-w64D/queue.o
                0x00000000004613f0                QEnqueue
                0x0000000000461474                QAddItem
 .text          0x00000000004614c0     0x14a0 MinGW-w64D/reswords.o
                0x0000000000461549                FindResWord
                0x000000000046186b                RenameKeyword
                0x0000000000461b3b                Set64Bit
                0x0000000000461f22                DisableKeyword
                0x0000000000461ff9                IsKeywordDisabled
                0x00000000004620a0                GetResWName
                0x0000000000462129                ResWordsInit
                0x0000000000462220                ResWordsFini
                0x00000000004623de                DumpResWords
                0x0000000000462757                DumpInstrStats
 .text          0x0000000000462960      0x270 MinGW-w64D/safeseh.o
                0x0000000000462960                SafeSEHDirective
 .text          0x0000000000462bd0     0x3040 MinGW-w64D/segment.o
                0x0000000000462c29                UpdateCurPC
                0x0000000000462fbb                GetCurrOffset
                0x0000000000462ff0                GetCurrSegAlign
                0x00000000004632c1                DeleteGroup
                0x000000000046333f                GrpDir
                0x0000000000463776                UpdateWordSize
                0x000000000046379d                SetOfssize
                0x0000000000463a64                DefineFlatGroup
                0x0000000000463afd                GetSegIdx
                0x0000000000463b20                GetGroup
                0x0000000000463b57                GetSymOfssize
                0x0000000000463c11                SetSymSegOfs
                0x0000000000463c4b                TypeFromClassName
                0x0000000000463fb6                CreateIntSegment
                0x0000000000464113                EndsDir
                0x00000000004643b5                SegmentDir
                0x0000000000465547                SortSegments
                0x00000000004656fc                SegmentModuleExit
                0x0000000000465789                SegmentFini
                0x00000000004657b5                SegmentInit
                0x0000000000465b72                SegmentSaveState
 .text          0x0000000000465c10      0xb30 MinGW-w64D/simsegm.o
                0x0000000000465c10                SimGetSegName
                0x0000000000465c2f                GetCodeClass
                0x0000000000466032                SimplifiedSegDir
                0x000000000046641c                SetModelDefaultSegNames
                0x00000000004665c7                ModelSimSegmInit
                0x000000000046670f                ModelSimSegmExit
 .text          0x0000000000466740     0x1be0 MinGW-w64D/string.o
                0x0000000000466740                TextItemError
                0x00000000004667ca                CatStrDir
                0x0000000000466bcb                SetTextMacro
                0x0000000000466dd5                AddPredefinedText
                0x0000000000466e65                SubStrDir
                0x0000000000467381                SizeStrDir
                0x00000000004674d3                InStrDir
                0x0000000000467f78                StringInit
                0x00000000004682c0                StringFini
 .text          0x0000000000468320     0x15c0 MinGW-w64D/symbols.o
                0x0000000000468382                SymSetCmpFunc
                0x00000000004683b8                SymClearLocal
                0x00000000004683de                SymGetLocal
                0x000000000046846a                SymSetLocal
                0x0000000000468524                SymAlloc
                0x0000000000468627                SymFind
                0x0000000000468858                SymLookup
                0x0000000000468912                SymLookupLocal
                0x0000000000468bb7                SymFree
                0x0000000000468bd3                SymAddLocal
                0x0000000000468ca0                SymAddGlobal
                0x0000000000468d0f                SymCreate
                0x0000000000468d72                SymLCreate
                0x0000000000468dd7                SymMakeAllSymbolsPublic
                0x0000000000468eaf                SymFini
                0x0000000000468fd1                SymInit
                0x00000000004692d0                SymPassInit
                0x000000000046935c                SymGetCount
                0x0000000000469368                SymGetAll
                0x00000000004693e6                SymEnum
 .text          0x00000000004698e0      0xb70 MinGW-w64D/tbyte.o
                0x000000000046a16c                strtotb
 .text          0x000000000046a450     0x26a0 MinGW-w64D/tokenize.o
                0x000000000046a5d8                get_broads
                0x000000000046a726                get_decos
                0x000000000046c2f0                GetToken
                0x000000000046c546                Tokenize
 .text          0x000000000046caf0     0x3450 MinGW-w64D/types.o
                0x000000000046caf0                TypesInit
                0x000000000046cb10                CreateTypeSymbol
                0x000000000046cbc8                SearchNameInStruct
                0x000000000046cedf                StructDirective
                0x000000000046d65c                EndstructDirective
                0x000000000046dc5e                CreateStructField
                0x000000000046e3d0                AlignInStruct
                0x000000000046e451                UpdateStructSize
                0x000000000046e569                SetStructCurrentOffset
                0x000000000046e5e7                GetQualifiedType
                0x000000000046eec1                TypedefDirective
                0x000000000046f6a1                RecordDirective
                0x000000000046fec2                DeleteType
 .text          0x000000000046ff40       0xd0 C:/Program Files/mingw-w64/x86_64-5.3.0-posix-seh-rt_v4-rev0/mingw64/bin/../lib/gcc/x86_64-w64-mingw32/5.3.0/../../../../x86_64-w64-mingw32/lib/../lib/libmingw32.a(lib64_libmingw32_a-atonexit.o)
                0x000000000046ff40                mingw_onexit
                0x000000000046fff0                atexit
 .text          0x0000000000470010       0xc0 C:/Program Files/mingw-w64/x86_64-5.3.0-posix-seh-rt_v4-rev0/mingw64/bin/../lib/gcc/x86_64-w64-mingw32/5.3.0/../../../../x86_64-w64-mingw32/lib/../lib/libmingw32.a(lib64_libmingw32_a-gccmain.o)
                0x0000000000470010                __do_global_dtors
                0x0000000000470050                __do_global_ctors
                0x00000000004700b0                __main
 .text          0x00000000004700d0        0x0 C:/Program Files/mingw-w64/x86_64-5.3.0-posix-seh-rt_v4-rev0/mingw64/bin/../lib/gcc/x86_64-w64-mingw32/5.3.0/../../../../x86_64-w64-mingw32/lib/../lib/libmingw32.a(lib64_libmingw32_a-natstart.o)
 .text          0x00000000004700d0        0x0 C:/Program Files/mingw-w64/x86_64-5.3.0-posix-seh-rt_v4-rev0/mingw64/bin/../lib/gcc/x86_64-w64-mingw32/5.3.0/../../../../x86_64-w64-mingw32/lib/../lib/libmingw32.a(lib64_libmingw32_a-wildcard.o)
 .text          0x00000000004700d0       0x10 C:/Program Files/mingw-w64/x86_64-5.3.0-posix-seh-rt_v4-rev0/mingw64/bin/../lib/gcc/x86_64-w64-mingw32/5.3.0/../../../../x86_64-w64-mingw32/lib/../lib/libmingw32.a(lib64_libmingw32_a-charmax.o)
 .text          0x00000000004700e0       0x10 C:/Program Files/mingw-w64/x86_64-5.3.0-posix-seh-rt_v4-rev0/mingw64/bin/../lib/gcc/x86_64-w64-mingw32/5.3.0/../../../../x86_64-w64-mingw32/lib/../lib/libmingw32.a(lib64_libmingw32_a-dllargv.o)
                0x00000000004700e0                _setargv
 .text          0x00000000004700f0      0x1e0 C:/Program Files/mingw-w64/x86_64-5.3.0-posix-seh-rt_v4-rev0/mingw64/bin/../lib/gcc/x86_64-w64-mingw32/5.3.0/../../../../x86_64-w64-mingw32/lib/../lib/libmingw32.a(lib64_libmingw32_a-gs_support.o)
                0x00000000004700f0                __security_init_cookie
                0x00000000004701d0                __report_gsfailure
 .text          0x00000000004702d0        0x0 C:/Program Files/mingw-w64/x86_64-5.3.0-posix-seh-rt_v4-rev0/mingw64/bin/../lib/gcc/x86_64-w64-mingw32/5.3.0/../../../../x86_64-w64-mingw32/lib/../lib/libmingw32.a(lib64_libmingw32_a-_newmode.o)
 .text          0x00000000004702d0       0xb0 C:/Program Files/mingw-w64/x86_64-5.3.0-posix-seh-rt_v4-rev0/mingw64/bin/../lib/gcc/x86_64-w64-mingw32/5.3.0/../../../../x86_64-w64-mingw32/lib/../lib/libmingw32.a(lib64_libmingw32_a-tlssup.o)
                0x0000000000470300                __dyn_tls_init
                0x0000000000470370                __tlregdtor
 .text          0x0000000000470380        0x0 C:/Program Files/mingw-w64/x86_64-5.3.0-posix-seh-rt_v4-rev0/mingw64/bin/../lib/gcc/x86_64-w64-mingw32/5.3.0/../../../../x86_64-w64-mingw32/lib/../lib/libmingw32.a(lib64_libmingw32_a-cinitexe.o)
 .text          0x0000000000470380      0x160 C:/Program Files/mingw-w64/x86_64-5.3.0-posix-seh-rt_v4-rev0/mingw64/bin/../lib/gcc/x86_64-w64-mingw32/5.3.0/../../../../x86_64-w64-mingw32/lib/../lib/libmingw32.a(lib64_libmingw32_a-merr.o)
                0x0000000000470380                __mingw_raise_matherr
                0x00000000004703d0                __mingw_setusermatherr
                0x00000000004703e0                _matherr
 .text          0x00000000004704e0       0x10 C:/Program Files/mingw-w64/x86_64-5.3.0-posix-seh-rt_v4-rev0/mingw64/bin/../lib/gcc/x86_64-w64-mingw32/5.3.0/../../../../x86_64-w64-mingw32/lib/../lib/libmingw32.a(lib64_libmingw32_a-CRT_fp10.o)
                0x00000000004704e0                fpreset
                0x00000000004704e0                _fpreset
 .text          0x00000000004704f0       0x20 C:/Program Files/mingw-w64/x86_64-5.3.0-posix-seh-rt_v4-rev0/mingw64/bin/../lib/gcc/x86_64-w64-mingw32/5.3.0/../../../../x86_64-w64-mingw32/lib/../lib/libmingw32.a(lib64_libmingw32_a-mingw_helpers.o)
                0x00000000004704f0                _decode_pointer
                0x0000000000470500                _encode_pointer
 .text          0x0000000000470510      0x4e0 C:/Program Files/mingw-w64/x86_64-5.3.0-posix-seh-rt_v4-rev0/mingw64/bin/../lib/gcc/x86_64-w64-mingw32/5.3.0/../../../../x86_64-w64-mingw32/lib/../lib/libmingw32.a(lib64_libmingw32_a-pseudo-reloc.o)
                0x00000000004706f0                _pei386_runtime_relocator
 .text          0x00000000004709f0        0x0 C:/Program Files/mingw-w64/x86_64-5.3.0-posix-seh-rt_v4-rev0/mingw64/bin/../lib/gcc/x86_64-w64-mingw32/5.3.0/../../../../x86_64-w64-mingw32/lib/../lib/libmingw32.a(lib64_libmingw32_a-xtxtmode.o)
 .text          0x00000000004709f0      0x460 C:/Program Files/mingw-w64/x86_64-5.3.0-posix-seh-rt_v4-rev0/mingw64/bin/../lib/gcc/x86_64-w64-mingw32/5.3.0/../../../../x86_64-w64-mingw32/lib/../lib/libmingw32.a(lib64_libmingw32_a-crt_handler.o)
                0x00000000004709f0                __mingw_SEH_error_handler
                0x0000000000470ba0                __mingw_init_ehandler
                0x0000000000470c90                _gnu_exception_handler
 .text          0x0000000000470e50      0x270 C:/Program Files/mingw-w64/x86_64-5.3.0-posix-seh-rt_v4-rev0/mingw64/bin/../lib/gcc/x86_64-w64-mingw32/5.3.0/../../../../x86_64-w64-mingw32/lib/../lib/libmingw32.a(lib64_libmingw32_a-tlsthrd.o)
                0x0000000000470ec0                ___w64_mingwthr_add_key_dtor
                0x0000000000470f40                ___w64_mingwthr_remove_key_dtor
                0x0000000000470fe0                __mingw_TLScallback
 .text          0x00000000004710c0        0x0 C:/Program Files/mingw-w64/x86_64-5.3.0-posix-seh-rt_v4-rev0/mingw64/bin/../lib/gcc/x86_64-w64-mingw32/5.3.0/../../../../x86_64-w64-mingw32/lib/../lib/libmingw32.a(lib64_libmingw32_a-tlsmcrt.o)
 .text          0x00000000004710c0        0x0 C:/Program Files/mingw-w64/x86_64-5.3.0-posix-seh-rt_v4-rev0/mingw64/bin/../lib/gcc/x86_64-w64-mingw32/5.3.0/../../../../x86_64-w64-mingw32/lib/../lib/libmingw32.a(lib64_libmingw32_a-pseudo-reloc-list.o)
 .text          0x00000000004710c0      0x3a0 C:/Program Files/mingw-w64/x86_64-5.3.0-posix-seh-rt_v4-rev0/mingw64/bin/../lib/gcc/x86_64-w64-mingw32/5.3.0/../../../../x86_64-w64-mingw32/lib/../lib/libmingw32.a(lib64_libmingw32_a-pesect.o)
                0x00000000004710e0                _ValidateImageBase
                0x0000000000471100                _FindPESection
                0x0000000000471150                _FindPESectionByName
                0x00000000004711f0                __mingw_GetSectionForAddress
                0x0000000000471240                __mingw_GetSectionCount
                0x0000000000471280                _FindPESectionExec
                0x0000000000471310                _GetPEImageBase
                0x0000000000471350                _IsNonwritableInCurrentImage
                0x00000000004713b0                __mingw_enum_import_library_names
 .text          0x0000000000471460       0x40 C:/Program Files/mingw-w64/x86_64-5.3.0-posix-seh-rt_v4-rev0/mingw64/bin/../lib/gcc/x86_64-w64-mingw32/5.3.0/libgcc.a(_chkstk_ms.o)
                0x0000000000471460                ___chkstk_ms
 .text          0x00000000004714a0        0x0 C:/Program Files/mingw-w64/x86_64-5.3.0-posix-seh-rt_v4-rev0/mingw64/bin/../lib/gcc/x86_64-w64-mingw32/5.3.0/libgcc.a(_ctors.o)
 .text          0x00000000004714a0       0xe0 C:/Program Files/mingw-w64/x86_64-5.3.0-posix-seh-rt_v4-rev0/mingw64/bin/../lib/gcc/x86_64-w64-mingw32/5.3.0/../../../../x86_64-w64-mingw32/lib/../lib/libmingwex.a(lib64_libmingwex_a-strtodnrp.o)
                0x00000000004714a0                __mingw_strtod
                0x00000000004714a0                __strtod
 .text          0x0000000000471580       0x10 C:/Program Files/mingw-w64/x86_64-5.3.0-posix-seh-rt_v4-rev0/mingw64/bin/../lib/gcc/x86_64-w64-mingw32/5.3.0/../../../../x86_64-w64-mingw32/lib/../lib/libmingwex.a(lib64_libmingwex_a-mingw_getsp.o)
                0x0000000000471580                mingw_getsp
                0x0000000000471586                longjmp
 .text          0x0000000000471590        0x0 C:/Program Files/mingw-w64/x86_64-5.3.0-posix-seh-rt_v4-rev0/mingw64/bin/../lib/gcc/x86_64-w64-mingw32/5.3.0/../../../../x86_64-w64-mingw32/lib/../lib/libmingwex.a(lib64_libmingwex_a-mingw_matherr.o)
 .text          0x0000000000471590       0x80 C:/Program Files/mingw-w64/x86_64-5.3.0-posix-seh-rt_v4-rev0/mingw64/bin/../lib/gcc/x86_64-w64-mingw32/5.3.0/../../../../x86_64-w64-mingw32/lib/../lib/libmingwex.a(lib64_libmingwex_a-_findfirst64i32.o)
                0x0000000000471590                _findfirst64i32
 .text          0x0000000000471610       0x80 C:/Program Files/mingw-w64/x86_64-5.3.0-posix-seh-rt_v4-rev0/mingw64/bin/../lib/gcc/x86_64-w64-mingw32/5.3.0/../../../../x86_64-w64-mingw32/lib/../lib/libmingwex.a(lib64_libmingwex_a-_findnext64i32.o)
                0x0000000000471610                _findnext64i32
 .text          0x0000000000471690       0x90 C:/Program Files/mingw-w64/x86_64-5.3.0-posix-seh-rt_v4-rev0/mingw64/bin/../lib/gcc/x86_64-w64-mingw32/5.3.0/../../../../x86_64-w64-mingw32/lib/../lib/libmingwex.a(lib64_libmingwex_a-_stat64i32.o)
                0x0000000000471690                _stat64i32
 .text          0x0000000000471720     0x20a0 C:/Program Files/mingw-w64/x86_64-5.3.0-posix-seh-rt_v4-rev0/mingw64/bin/../lib/gcc/x86_64-w64-mingw32/5.3.0/../../../../x86_64-w64-mingw32/lib/../lib/libmingwex.a(lib64_libmingwex_a-strtodg.o)
                0x0000000000471720                __increment_D2A
                0x0000000000471b90                __decrement_D2A
                0x0000000000471bd0                __set_ones_D2A
                0x0000000000471c80                __strtodg
 .text          0x00000000004737c0      0x160 C:/Program Files/mingw-w64/x86_64-5.3.0-posix-seh-rt_v4-rev0/mingw64/bin/../lib/gcc/x86_64-w64-mingw32/5.3.0/../../../../x86_64-w64-mingw32/lib/../lib/libmingwex.a(lib64_libmingwex_a-sum.o)
                0x00000000004737c0                __sum_D2A
 .text          0x0000000000473920      0x8d0 C:/Program Files/mingw-w64/x86_64-5.3.0-posix-seh-rt_v4-rev0/mingw64/bin/../lib/gcc/x86_64-w64-mingw32/5.3.0/../../../../x86_64-w64-mingw32/lib/../lib/libmingwex.a(lib64_libmingwex_a-gethex.o)
                0x0000000000473920                __gethex_D2A
 .text          0x00000000004741f0      0x140 C:/Program Files/mingw-w64/x86_64-5.3.0-posix-seh-rt_v4-rev0/mingw64/bin/../lib/gcc/x86_64-w64-mingw32/5.3.0/../../../../x86_64-w64-mingw32/lib/../lib/libmingwex.a(lib64_libmingwex_a-gmisc.o)
                0x00000000004741f0                __rshift_D2A
                0x00000000004742f0                __trailz_D2A
 .text          0x0000000000474330       0x90 C:/Program Files/mingw-w64/x86_64-5.3.0-posix-seh-rt_v4-rev0/mingw64/bin/../lib/gcc/x86_64-w64-mingw32/5.3.0/../../../../x86_64-w64-mingw32/lib/../lib/libmingwex.a(lib64_libmingwex_a-hd_init.o)
                0x0000000000474330                __mingw_hexdig_init_D2A
 .text          0x00000000004743c0      0x3c0 C:/Program Files/mingw-w64/x86_64-5.3.0-posix-seh-rt_v4-rev0/mingw64/bin/../lib/gcc/x86_64-w64-mingw32/5.3.0/../../../../x86_64-w64-mingw32/lib/../lib/libmingwex.a(lib64_libmingwex_a-hexnan.o)
                0x00000000004743c0                __hexnan_D2A
 .text          0x0000000000474780      0xb30 C:/Program Files/mingw-w64/x86_64-5.3.0-posix-seh-rt_v4-rev0/mingw64/bin/../lib/gcc/x86_64-w64-mingw32/5.3.0/../../../../x86_64-w64-mingw32/lib/../lib/libmingwex.a(lib64_libmingwex_a-misc.o)
                0x00000000004748a0                __Balloc_D2A
                0x00000000004749b0                __Bfree_D2A
                0x0000000000474a20                __multadd_D2A
                0x0000000000474ae0                __i2b_D2A
                0x0000000000474b10                __mult_D2A
                0x0000000000474c40                __pow5mult_D2A
                0x0000000000474db0                __lshift_D2A
                0x0000000000474ed0                __cmp_D2A
                0x0000000000474f20                __diff_D2A
                0x0000000000475060                __b2d_D2A
                0x0000000000475180                __d2b_D2A
                0x0000000000475280                __strcp_D2A
 .text          0x00000000004752b0      0x310 C:/Program Files/mingw-w64/x86_64-5.3.0-posix-seh-rt_v4-rev0/mingw64/bin/../lib/gcc/x86_64-w64-mingw32/5.3.0/../../../../x86_64-w64-mingw32/lib/../lib/libmingwex.a(lib64_libmingwex_a-smisc.o)
                0x00000000004752b0                __s2b_D2A
                0x00000000004753b0                __ratio_D2A
                0x0000000000475470                __match_D2A
                0x00000000004754c0                __copybits_D2A
                0x0000000000475530                __any_on_D2A
 .text          0x00000000004755c0        0x8 C:/Program Files/mingw-w64/x86_64-5.3.0-posix-seh-rt_v4-rev0/mingw64/bin/../lib/gcc/x86_64-w64-mingw32/5.3.0/../../../../x86_64-w64-mingw32/lib/../lib/libmsvcrt.a(dkpfs01245.o)
                0x00000000004755c0                vsprintf
 .text          0x00000000004755c8        0x8 C:/Program Files/mingw-w64/x86_64-5.3.0-posix-seh-rt_v4-rev0/mingw64/bin/../lib/gcc/x86_64-w64-mingw32/5.3.0/../../../../x86_64-w64-mingw32/lib/../lib/libmsvcrt.a(dkpfs01243.o)
                0x00000000004755c8                vprintf
 .text          0x00000000004755d0        0x8 C:/Program Files/mingw-w64/x86_64-5.3.0-posix-seh-rt_v4-rev0/mingw64/bin/../lib/gcc/x86_64-w64-mingw32/5.3.0/../../../../x86_64-w64-mingw32/lib/../lib/libmsvcrt.a(dkpfs01239.o)
                0x00000000004755d0                vfprintf
 .text          0x00000000004755d8        0x8 C:/Program Files/mingw-w64/x86_64-5.3.0-posix-seh-rt_v4-rev0/mingw64/bin/../lib/gcc/x86_64-w64-mingw32/5.3.0/../../../../x86_64-w64-mingw32/lib/../lib/libmsvcrt.a(dkpfs01233.o)
                0x00000000004755d8                tolower
 .text          0x00000000004755e0        0x8 C:/Program Files/mingw-w64/x86_64-5.3.0-posix-seh-rt_v4-rev0/mingw64/bin/../lib/gcc/x86_64-w64-mingw32/5.3.0/../../../../x86_64-w64-mingw32/lib/../lib/libmsvcrt.a(dkpfs01215.o)
                0x00000000004755e0                strstr
 .text          0x00000000004755e8        0x8 C:/Program Files/mingw-w64/x86_64-5.3.0-posix-seh-rt_v4-rev0/mingw64/bin/../lib/gcc/x86_64-w64-mingw32/5.3.0/../../../../x86_64-w64-mingw32/lib/../lib/libmsvcrt.a(dkpfs01208.o)
                0x00000000004755e8                strncpy
 .text          0x00000000004755f0        0x8 C:/Program Files/mingw-w64/x86_64-5.3.0-posix-seh-rt_v4-rev0/mingw64/bin/../lib/gcc/x86_64-w64-mingw32/5.3.0/../../../../x86_64-w64-mingw32/lib/../lib/libmsvcrt.a(dkpfs01207.o)
                0x00000000004755f0                strncmp
 .text          0x00000000004755f8        0x8 C:/Program Files/mingw-w64/x86_64-5.3.0-posix-seh-rt_v4-rev0/mingw64/bin/../lib/gcc/x86_64-w64-mingw32/5.3.0/../../../../x86_64-w64-mingw32/lib/../lib/libmsvcrt.a(dkpfs01204.o)
                0x00000000004755f8                strlen
 .text          0x0000000000475600        0x8 C:/Program Files/mingw-w64/x86_64-5.3.0-posix-seh-rt_v4-rev0/mingw64/bin/../lib/gcc/x86_64-w64-mingw32/5.3.0/../../../../x86_64-w64-mingw32/lib/../lib/libmsvcrt.a(dkpfs01199.o)
                0x0000000000475600                strcpy
 .text          0x0000000000475608        0x8 C:/Program Files/mingw-w64/x86_64-5.3.0-posix-seh-rt_v4-rev0/mingw64/bin/../lib/gcc/x86_64-w64-mingw32/5.3.0/../../../../x86_64-w64-mingw32/lib/../lib/libmsvcrt.a(dkpfs01197.o)
                0x0000000000475608                strcmp
 .text          0x0000000000475610        0x8 C:/Program Files/mingw-w64/x86_64-5.3.0-posix-seh-rt_v4-rev0/mingw64/bin/../lib/gcc/x86_64-w64-mingw32/5.3.0/../../../../x86_64-w64-mingw32/lib/../lib/libmsvcrt.a(dkpfs01196.o)
                0x0000000000475610                strchr
 .text          0x0000000000475618        0x8 C:/Program Files/mingw-w64/x86_64-5.3.0-posix-seh-rt_v4-rev0/mingw64/bin/../lib/gcc/x86_64-w64-mingw32/5.3.0/../../../../x86_64-w64-mingw32/lib/../lib/libmsvcrt.a(dkpfs01194.o)
                0x0000000000475618                strcat
 .text          0x0000000000475620        0x8 C:/Program Files/mingw-w64/x86_64-5.3.0-posix-seh-rt_v4-rev0/mingw64/bin/../lib/gcc/x86_64-w64-mingw32/5.3.0/../../../../x86_64-w64-mingw32/lib/../lib/libmsvcrt.a(dkpfs01188.o)
                0x0000000000475620                sprintf
 .text          0x0000000000475628        0x8 C:/Program Files/mingw-w64/x86_64-5.3.0-posix-seh-rt_v4-rev0/mingw64/bin/../lib/gcc/x86_64-w64-mingw32/5.3.0/../../../../x86_64-w64-mingw32/lib/../lib/libmsvcrt.a(dkpfs01183.o)
                0x0000000000475628                signal
 .text          0x0000000000475630        0x8 C:/Program Files/mingw-w64/x86_64-5.3.0-posix-seh-rt_v4-rev0/mingw64/bin/../lib/gcc/x86_64-w64-mingw32/5.3.0/../../../../x86_64-w64-mingw32/lib/../lib/libmsvcrt.a(dkpfs01176.o)
                0x0000000000475630                rewind
 .text          0x0000000000475638        0x8 C:/Program Files/mingw-w64/x86_64-5.3.0-posix-seh-rt_v4-rev0/mingw64/bin/../lib/gcc/x86_64-w64-mingw32/5.3.0/../../../../x86_64-w64-mingw32/lib/../lib/libmsvcrt.a(dkpfs01174.o)
                0x0000000000475638                remove
 .text          0x0000000000475640        0x8 C:/Program Files/mingw-w64/x86_64-5.3.0-posix-seh-rt_v4-rev0/mingw64/bin/../lib/gcc/x86_64-w64-mingw32/5.3.0/../../../../x86_64-w64-mingw32/lib/../lib/libmsvcrt.a(dkpfs01169.o)
                0x0000000000475640                qsort
 .text          0x0000000000475648        0x8 C:/Program Files/mingw-w64/x86_64-5.3.0-posix-seh-rt_v4-rev0/mingw64/bin/../lib/gcc/x86_64-w64-mingw32/5.3.0/../../../../x86_64-w64-mingw32/lib/../lib/libmsvcrt.a(dkpfs01166.o)
                0x0000000000475648                puts
 .text          0x0000000000475650        0x8 C:/Program Files/mingw-w64/x86_64-5.3.0-posix-seh-rt_v4-rev0/mingw64/bin/../lib/gcc/x86_64-w64-mingw32/5.3.0/../../../../x86_64-w64-mingw32/lib/../lib/libmsvcrt.a(dkpfs01165.o)
                0x0000000000475650                putchar
 .text          0x0000000000475658        0x8 C:/Program Files/mingw-w64/x86_64-5.3.0-posix-seh-rt_v4-rev0/mingw64/bin/../lib/gcc/x86_64-w64-mingw32/5.3.0/../../../../x86_64-w64-mingw32/lib/../lib/libmsvcrt.a(dkpfs01162.o)
                0x0000000000475658                printf
 .text          0x0000000000475660        0x8 C:/Program Files/mingw-w64/x86_64-5.3.0-posix-seh-rt_v4-rev0/mingw64/bin/../lib/gcc/x86_64-w64-mingw32/5.3.0/../../../../x86_64-w64-mingw32/lib/../lib/libmsvcrt.a(dkpfs01155.o)
                0x0000000000475660                memset
 .text          0x0000000000475668        0x8 C:/Program Files/mingw-w64/x86_64-5.3.0-posix-seh-rt_v4-rev0/mingw64/bin/../lib/gcc/x86_64-w64-mingw32/5.3.0/../../../../x86_64-w64-mingw32/lib/../lib/libmsvcrt.a(dkpfs01154.o)
                0x0000000000475668                memmove
 .text          0x0000000000475670        0x8 C:/Program Files/mingw-w64/x86_64-5.3.0-posix-seh-rt_v4-rev0/mingw64/bin/../lib/gcc/x86_64-w64-mingw32/5.3.0/../../../../x86_64-w64-mingw32/lib/../lib/libmsvcrt.a(dkpfs01153.o)
                0x0000000000475670                memcpy
 .text          0x0000000000475678        0x8 C:/Program Files/mingw-w64/x86_64-5.3.0-posix-seh-rt_v4-rev0/mingw64/bin/../lib/gcc/x86_64-w64-mingw32/5.3.0/../../../../x86_64-w64-mingw32/lib/../lib/libmsvcrt.a(dkpfs01152.o)
                0x0000000000475678                memcmp
 .text          0x0000000000475680        0x8 C:/Program Files/mingw-w64/x86_64-5.3.0-posix-seh-rt_v4-rev0/mingw64/bin/../lib/gcc/x86_64-w64-mingw32/5.3.0/../../../../x86_64-w64-mingw32/lib/../lib/libmsvcrt.a(dkpfs01145.o)
                0x0000000000475680                malloc
 .text          0x0000000000475688        0x0 C:/Program Files/mingw-w64/x86_64-5.3.0-posix-seh-rt_v4-rev0/mingw64/bin/../lib/gcc/x86_64-w64-mingw32/5.3.0/../../../../x86_64-w64-mingw32/lib/../lib/libmsvcrt.a(dkpfs01144.o)
 .text          0x0000000000475688        0x8 C:/Program Files/mingw-w64/x86_64-5.3.0-posix-seh-rt_v4-rev0/mingw64/bin/../lib/gcc/x86_64-w64-mingw32/5.3.0/../../../../x86_64-w64-mingw32/lib/../lib/libmsvcrt.a(dkpfs01139.o)
                0x0000000000475688                localtime
 .text          0x0000000000475690        0x8 C:/Program Files/mingw-w64/x86_64-5.3.0-posix-seh-rt_v4-rev0/mingw64/bin/../lib/gcc/x86_64-w64-mingw32/5.3.0/../../../../x86_64-w64-mingw32/lib/../lib/libmsvcrt.a(dkpfs01138.o)
                0x0000000000475690                localeconv
 .text          0x0000000000475698        0x8 C:/Program Files/mingw-w64/x86_64-5.3.0-posix-seh-rt_v4-rev0/mingw64/bin/../lib/gcc/x86_64-w64-mingw32/5.3.0/../../../../x86_64-w64-mingw32/lib/../lib/libmsvcrt.a(dkpfs01118.o)
                0x0000000000475698                isspace
 .text          0x00000000004756a0        0x8 C:/Program Files/mingw-w64/x86_64-5.3.0-posix-seh-rt_v4-rev0/mingw64/bin/../lib/gcc/x86_64-w64-mingw32/5.3.0/../../../../x86_64-w64-mingw32/lib/../lib/libmsvcrt.a(dkpfs01110.o)
                0x00000000004756a0                isalpha
 .text          0x00000000004756a8        0x8 C:/Program Files/mingw-w64/x86_64-5.3.0-posix-seh-rt_v4-rev0/mingw64/bin/../lib/gcc/x86_64-w64-mingw32/5.3.0/../../../../x86_64-w64-mingw32/lib/../lib/libmsvcrt.a(dkpfs01109.o)
                0x00000000004756a8                isalnum
 .text          0x00000000004756b0        0x8 C:/Program Files/mingw-w64/x86_64-5.3.0-posix-seh-rt_v4-rev0/mingw64/bin/../lib/gcc/x86_64-w64-mingw32/5.3.0/../../../../x86_64-w64-mingw32/lib/../lib/libmsvcrt.a(dkpfs01102.o)
                0x00000000004756b0                getenv
 .text          0x00000000004756b8        0x8 C:/Program Files/mingw-w64/x86_64-5.3.0-posix-seh-rt_v4-rev0/mingw64/bin/../lib/gcc/x86_64-w64-mingw32/5.3.0/../../../../x86_64-w64-mingw32/lib/../lib/libmsvcrt.a(dkpfs01100.o)
                0x00000000004756b8                getc
 .text          0x00000000004756c0        0x8 C:/Program Files/mingw-w64/x86_64-5.3.0-posix-seh-rt_v4-rev0/mingw64/bin/../lib/gcc/x86_64-w64-mingw32/5.3.0/../../../../x86_64-w64-mingw32/lib/../lib/libmsvcrt.a(dkpfs01097.o)
                0x00000000004756c0                fwrite
 .text          0x00000000004756c8        0x8 C:/Program Files/mingw-w64/x86_64-5.3.0-posix-seh-rt_v4-rev0/mingw64/bin/../lib/gcc/x86_64-w64-mingw32/5.3.0/../../../../x86_64-w64-mingw32/lib/../lib/libmsvcrt.a(dkpfs01094.o)
                0x00000000004756c8                ftell
 .text          0x00000000004756d0        0x8 C:/Program Files/mingw-w64/x86_64-5.3.0-posix-seh-rt_v4-rev0/mingw64/bin/../lib/gcc/x86_64-w64-mingw32/5.3.0/../../../../x86_64-w64-mingw32/lib/../lib/libmsvcrt.a(dkpfs01092.o)
                0x00000000004756d0                fseek
 .text          0x00000000004756d8        0x8 C:/Program Files/mingw-w64/x86_64-5.3.0-posix-seh-rt_v4-rev0/mingw64/bin/../lib/gcc/x86_64-w64-mingw32/5.3.0/../../../../x86_64-w64-mingw32/lib/../lib/libmsvcrt.a(dkpfs01086.o)
                0x00000000004756d8                free
 .text          0x00000000004756e0        0x8 C:/Program Files/mingw-w64/x86_64-5.3.0-posix-seh-rt_v4-rev0/mingw64/bin/../lib/gcc/x86_64-w64-mingw32/5.3.0/../../../../x86_64-w64-mingw32/lib/../lib/libmsvcrt.a(dkpfs01085.o)
                0x00000000004756e0                fread
 .text          0x00000000004756e8        0x8 C:/Program Files/mingw-w64/x86_64-5.3.0-posix-seh-rt_v4-rev0/mingw64/bin/../lib/gcc/x86_64-w64-mingw32/5.3.0/../../../../x86_64-w64-mingw32/lib/../lib/libmsvcrt.a(dkpfs01082.o)
                0x00000000004756e8                fputs
 .text          0x00000000004756f0        0x8 C:/Program Files/mingw-w64/x86_64-5.3.0-posix-seh-rt_v4-rev0/mingw64/bin/../lib/gcc/x86_64-w64-mingw32/5.3.0/../../../../x86_64-w64-mingw32/lib/../lib/libmsvcrt.a(dkpfs01079.o)
                0x00000000004756f0                fprintf
 .text          0x00000000004756f8        0x8 C:/Program Files/mingw-w64/x86_64-5.3.0-posix-seh-rt_v4-rev0/mingw64/bin/../lib/gcc/x86_64-w64-mingw32/5.3.0/../../../../x86_64-w64-mingw32/lib/../lib/libmsvcrt.a(dkpfs01077.o)
                0x00000000004756f8                fopen
 .text          0x0000000000475700        0x8 C:/Program Files/mingw-w64/x86_64-5.3.0-posix-seh-rt_v4-rev0/mingw64/bin/../lib/gcc/x86_64-w64-mingw32/5.3.0/../../../../x86_64-w64-mingw32/lib/../lib/libmsvcrt.a(dkpfs01067.o)
                0x0000000000475700                fflush
 .text          0x0000000000475708        0x8 C:/Program Files/mingw-w64/x86_64-5.3.0-posix-seh-rt_v4-rev0/mingw64/bin/../lib/gcc/x86_64-w64-mingw32/5.3.0/../../../../x86_64-w64-mingw32/lib/../lib/libmsvcrt.a(dkpfs01064.o)
                0x0000000000475708                fclose
 .text          0x0000000000475710        0x8 C:/Program Files/mingw-w64/x86_64-5.3.0-posix-seh-rt_v4-rev0/mingw64/bin/../lib/gcc/x86_64-w64-mingw32/5.3.0/../../../../x86_64-w64-mingw32/lib/../lib/libmsvcrt.a(dkpfs01060.o)
                0x0000000000475710                exit
 .text          0x0000000000475718        0x8 C:/Program Files/mingw-w64/x86_64-5.3.0-posix-seh-rt_v4-rev0/mingw64/bin/../lib/gcc/x86_64-w64-mingw32/5.3.0/../../../../x86_64-w64-mingw32/lib/../lib/libmsvcrt.a(dkpfs01052.o)
                0x0000000000475718                clock
 .text          0x0000000000475720        0x8 C:/Program Files/mingw-w64/x86_64-5.3.0-posix-seh-rt_v4-rev0/mingw64/bin/../lib/gcc/x86_64-w64-mingw32/5.3.0/../../../../x86_64-w64-mingw32/lib/../lib/libmsvcrt.a(dkpfs01047.o)
                0x0000000000475720                calloc
 .text          0x0000000000475728        0x8 C:/Program Files/mingw-w64/x86_64-5.3.0-posix-seh-rt_v4-rev0/mingw64/bin/../lib/gcc/x86_64-w64-mingw32/5.3.0/../../../../x86_64-w64-mingw32/lib/../lib/libmsvcrt.a(dkpfs01043.o)
                0x0000000000475728                atoi
 .text          0x0000000000475730        0x8 C:/Program Files/mingw-w64/x86_64-5.3.0-posix-seh-rt_v4-rev0/mingw64/bin/../lib/gcc/x86_64-w64-mingw32/5.3.0/../../../../x86_64-w64-mingw32/lib/../lib/libmsvcrt.a(dkpfs01030.o)
                0x0000000000475730                abort
 .text          0x0000000000475738        0x8 C:/Program Files/mingw-w64/x86_64-5.3.0-posix-seh-rt_v4-rev0/mingw64/bin/../lib/gcc/x86_64-w64-mingw32/5.3.0/../../../../x86_64-w64-mingw32/lib/../lib/libmsvcrt.a(dkpfs00819.o)
                0x0000000000475738                _unlock
 .text          0x0000000000475740        0x8 C:/Program Files/mingw-w64/x86_64-5.3.0-posix-seh-rt_v4-rev0/mingw64/bin/../lib/gcc/x86_64-w64-mingw32/5.3.0/../../../../x86_64-w64-mingw32/lib/../lib/libmsvcrt.a(dkpfs00807.o)
                0x0000000000475740                time
 .text          0x0000000000475748        0x8 C:/Program Files/mingw-w64/x86_64-5.3.0-posix-seh-rt_v4-rev0/mingw64/bin/../lib/gcc/x86_64-w64-mingw32/5.3.0/../../../../x86_64-w64-mingw32/lib/../lib/libmsvcrt.a(dkpfs00768.o)
                0x0000000000475748                _strupr
 .text          0x0000000000475750        0x8 C:/Program Files/mingw-w64/x86_64-5.3.0-posix-seh-rt_v4-rev0/mingw64/bin/../lib/gcc/x86_64-w64-mingw32/5.3.0/../../../../x86_64-w64-mingw32/lib/../lib/libmsvcrt.a(dkpfs00731.o)
                0x0000000000475750                _stricmp
 .text          0x0000000000475758        0x8 C:/Program Files/mingw-w64/x86_64-5.3.0-posix-seh-rt_v4-rev0/mingw64/bin/../lib/gcc/x86_64-w64-mingw32/5.3.0/../../../../x86_64-w64-mingw32/lib/../lib/libmsvcrt.a(dkpfs00719.o)
                0x0000000000475758                _stat64
 .text          0x0000000000475760        0x8 C:/Program Files/mingw-w64/x86_64-5.3.0-posix-seh-rt_v4-rev0/mingw64/bin/../lib/gcc/x86_64-w64-mingw32/5.3.0/../../../../x86_64-w64-mingw32/lib/../lib/libmsvcrt.a(dkpfs00667.o)
                0x0000000000475760                _setjmp
 .text          0x0000000000475768        0x8 C:/Program Files/mingw-w64/x86_64-5.3.0-posix-seh-rt_v4-rev0/mingw64/bin/../lib/gcc/x86_64-w64-mingw32/5.3.0/../../../../x86_64-w64-mingw32/lib/../lib/libmsvcrt.a(dkpfs00611.o)
                0x0000000000475768                _onexit
 .text          0x0000000000475770        0x8 C:/Program Files/mingw-w64/x86_64-5.3.0-posix-seh-rt_v4-rev0/mingw64/bin/../lib/gcc/x86_64-w64-mingw32/5.3.0/../../../../x86_64-w64-mingw32/lib/../lib/libmsvcrt.a(dkpfs00599.o)
                0x0000000000475770                _memicmp
 .text          0x0000000000475778        0x8 C:/Program Files/mingw-w64/x86_64-5.3.0-posix-seh-rt_v4-rev0/mingw64/bin/../lib/gcc/x86_64-w64-mingw32/5.3.0/../../../../x86_64-w64-mingw32/lib/../lib/libmsvcrt.a(dkpfs00439.o)
                0x0000000000475778                _lock
 .text          0x0000000000475780        0x8 C:/Program Files/mingw-w64/x86_64-5.3.0-posix-seh-rt_v4-rev0/mingw64/bin/../lib/gcc/x86_64-w64-mingw32/5.3.0/../../../../x86_64-w64-mingw32/lib/../lib/libmsvcrt.a(dkpfs00330.o)
                0x0000000000475780                _initterm
 .text          0x0000000000475788        0x0 C:/Program Files/mingw-w64/x86_64-5.3.0-posix-seh-rt_v4-rev0/mingw64/bin/../lib/gcc/x86_64-w64-mingw32/5.3.0/../../../../x86_64-w64-mingw32/lib/../lib/libmsvcrt.a(dkpfs00251.o)
 .text          0x0000000000475788        0x8 C:/Program Files/mingw-w64/x86_64-5.3.0-posix-seh-rt_v4-rev0/mingw64/bin/../lib/gcc/x86_64-w64-mingw32/5.3.0/../../../../x86_64-w64-mingw32/lib/../lib/libmsvcrt.a(dkpfs00242.o)
                0x0000000000475788                _findnext64
 .text          0x0000000000475790        0x8 C:/Program Files/mingw-w64/x86_64-5.3.0-posix-seh-rt_v4-rev0/mingw64/bin/../lib/gcc/x86_64-w64-mingw32/5.3.0/../../../../x86_64-w64-mingw32/lib/../lib/libmsvcrt.a(dkpfs00238.o)
                0x0000000000475790                _findfirst64
 .text          0x0000000000475798        0x8 C:/Program Files/mingw-w64/x86_64-5.3.0-posix-seh-rt_v4-rev0/mingw64/bin/../lib/gcc/x86_64-w64-mingw32/5.3.0/../../../../x86_64-w64-mingw32/lib/../lib/libmsvcrt.a(dkpfs00235.o)
                0x0000000000475798                _findclose
 .text          0x00000000004757a0        0x8 C:/Program Files/mingw-w64/x86_64-5.3.0-posix-seh-rt_v4-rev0/mingw64/bin/../lib/gcc/x86_64-w64-mingw32/5.3.0/../../../../x86_64-w64-mingw32/lib/../lib/libmsvcrt.a(dkpfs00234.o)
                0x00000000004757a0                _fileno
 .text          0x00000000004757a8        0x8 C:/Program Files/mingw-w64/x86_64-5.3.0-posix-seh-rt_v4-rev0/mingw64/bin/../lib/gcc/x86_64-w64-mingw32/5.3.0/../../../../x86_64-w64-mingw32/lib/../lib/libmsvcrt.a(dkpfs00201.o)
                0x00000000004757a8                _errno
 .text          0x00000000004757b0        0x8 C:/Program Files/mingw-w64/x86_64-5.3.0-posix-seh-rt_v4-rev0/mingw64/bin/../lib/gcc/x86_64-w64-mingw32/5.3.0/../../../../x86_64-w64-mingw32/lib/../lib/libmsvcrt.a(dkpfs00149.o)
                0x00000000004757b0                _chsize
 .text          0x00000000004757b8        0x8 C:/Program Files/mingw-w64/x86_64-5.3.0-posix-seh-rt_v4-rev0/mingw64/bin/../lib/gcc/x86_64-w64-mingw32/5.3.0/../../../../x86_64-w64-mingw32/lib/../lib/libmsvcrt.a(dkpfs00140.o)
                0x00000000004757b8                _cexit
 .text          0x00000000004757c0        0x8 C:/Program Files/mingw-w64/x86_64-5.3.0-posix-seh-rt_v4-rev0/mingw64/bin/../lib/gcc/x86_64-w64-mingw32/5.3.0/../../../../x86_64-w64-mingw32/lib/../lib/libmsvcrt.a(dkpfs00122.o)
                0x00000000004757c0                _amsg_exit
 .text          0x00000000004757c8        0x0 C:/Program Files/mingw-w64/x86_64-5.3.0-posix-seh-rt_v4-rev0/mingw64/bin/../lib/gcc/x86_64-w64-mingw32/5.3.0/../../../../x86_64-w64-mingw32/lib/../lib/libmsvcrt.a(dkpfs00115.o)
 .text          0x00000000004757c8        0x8 C:/Program Files/mingw-w64/x86_64-5.3.0-posix-seh-rt_v4-rev0/mingw64/bin/../lib/gcc/x86_64-w64-mingw32/5.3.0/../../../../x86_64-w64-mingw32/lib/../lib/libmsvcrt.a(dkpfs00098.o)
                0x00000000004757c8                __setusermatherr
 .text          0x00000000004757d0        0x8 C:/Program Files/mingw-w64/x86_64-5.3.0-posix-seh-rt_v4-rev0/mingw64/bin/../lib/gcc/x86_64-w64-mingw32/5.3.0/../../../../x86_64-w64-mingw32/lib/../lib/libmsvcrt.a(dkpfs00096.o)
                0x00000000004757d0                __set_app_type
 .text          0x00000000004757d8        0x8 C:/Program Files/mingw-w64/x86_64-5.3.0-posix-seh-rt_v4-rev0/mingw64/bin/../lib/gcc/x86_64-w64-mingw32/5.3.0/../../../../x86_64-w64-mingw32/lib/../lib/libmsvcrt.a(dkpfs00090.o)
                0x00000000004757d8                __lconv_init
 .text          0x00000000004757e0        0x8 C:/Program Files/mingw-w64/x86_64-5.3.0-posix-seh-rt_v4-rev0/mingw64/bin/../lib/gcc/x86_64-w64-mingw32/5.3.0/../../../../x86_64-w64-mingw32/lib/../lib/libmsvcrt.a(dkpfs00083.o)
                0x00000000004757e0                __iob_func
 .text          0x00000000004757e8        0x0 C:/Program Files/mingw-w64/x86_64-5.3.0-posix-seh-rt_v4-rev0/mingw64/bin/../lib/gcc/x86_64-w64-mingw32/5.3.0/../../../../x86_64-w64-mingw32/lib/../lib/libmsvcrt.a(dkpfs00082.o)
 .text          0x00000000004757e8        0x8 C:/Program Files/mingw-w64/x86_64-5.3.0-posix-seh-rt_v4-rev0/mingw64/bin/../lib/gcc/x86_64-w64-mingw32/5.3.0/../../../../x86_64-w64-mingw32/lib/../lib/libmsvcrt.a(dkpfs00081.o)
                0x00000000004757e8                __getmainargs
 .text          0x00000000004757f0        0x8 C:/Program Files/mingw-w64/x86_64-5.3.0-posix-seh-rt_v4-rev0/mingw64/bin/../lib/gcc/x86_64-w64-mingw32/5.3.0/../../../../x86_64-w64-mingw32/lib/../lib/libmsvcrt.a(dkpfs00078.o)
                0x00000000004757f0                __dllonexit
 .text          0x00000000004757f8        0x8 C:/Program Files/mingw-w64/x86_64-5.3.0-posix-seh-rt_v4-rev0/mingw64/bin/../lib/gcc/x86_64-w64-mingw32/5.3.0/../../../../x86_64-w64-mingw32/lib/../lib/libmsvcrt.a(dkpfs00055.o)
                0x00000000004757f8                __C_specific_handler
 .text          0x0000000000475800       0x20 C:/Program Files/mingw-w64/x86_64-5.3.0-posix-seh-rt_v4-rev0/mingw64/bin/../lib/gcc/x86_64-w64-mingw32/5.3.0/../../../../x86_64-w64-mingw32/lib/../lib/libmsvcrt.a(lib64_libmsvcrt_a-invalid_parameter_handler.o)
                0x0000000000475800                _get_invalid_parameter_handler
                0x0000000000475810                _set_invalid_parameter_handler
 .text          0x0000000000475820        0x0 C:/Program Files/mingw-w64/x86_64-5.3.0-posix-seh-rt_v4-rev0/mingw64/bin/../lib/gcc/x86_64-w64-mingw32/5.3.0/../../../../x86_64-w64-mingw32/lib/../lib/libmsvcrt.a(dkpfh.o)
 .text          0x0000000000475820        0x0 C:/Program Files/mingw-w64/x86_64-5.3.0-posix-seh-rt_v4-rev0/mingw64/bin/../lib/gcc/x86_64-w64-mingw32/5.3.0/../../../../x86_64-w64-mingw32/lib/../lib/libmsvcrt.a(dkpft.o)
 .text          0x0000000000475820        0x8 C:/Program Files/mingw-w64/x86_64-5.3.0-posix-seh-rt_v4-rev0/mingw64/bin/../lib/gcc/x86_64-w64-mingw32/5.3.0/../../../../x86_64-w64-mingw32/lib/../lib/libkernel32.a(dqmfs01266.o)
                0x0000000000475820                VirtualQuery
 .text          0x0000000000475828        0x8 C:/Program Files/mingw-w64/x86_64-5.3.0-posix-seh-rt_v4-rev0/mingw64/bin/../lib/gcc/x86_64-w64-mingw32/5.3.0/../../../../x86_64-w64-mingw32/lib/../lib/libkernel32.a(dqmfs01264.o)
                0x0000000000475828                VirtualProtect
 .text          0x0000000000475830        0x8 C:/Program Files/mingw-w64/x86_64-5.3.0-posix-seh-rt_v4-rev0/mingw64/bin/../lib/gcc/x86_64-w64-mingw32/5.3.0/../../../../x86_64-w64-mingw32/lib/../lib/libkernel32.a(dqmfs01261.o)
                0x0000000000475830                VirtualFree
 .text          0x0000000000475838        0x8 C:/Program Files/mingw-w64/x86_64-5.3.0-posix-seh-rt_v4-rev0/mingw64/bin/../lib/gcc/x86_64-w64-mingw32/5.3.0/../../../../x86_64-w64-mingw32/lib/../lib/libkernel32.a(dqmfs01258.o)
                0x0000000000475838                VirtualAlloc
 .text          0x0000000000475840        0x8 C:/Program Files/mingw-w64/x86_64-5.3.0-posix-seh-rt_v4-rev0/mingw64/bin/../lib/gcc/x86_64-w64-mingw32/5.3.0/../../../../x86_64-w64-mingw32/lib/../lib/libkernel32.a(dqmfs01234.o)
                0x0000000000475840                UnhandledExceptionFilter
 .text          0x0000000000475848        0x8 C:/Program Files/mingw-w64/x86_64-5.3.0-posix-seh-rt_v4-rev0/mingw64/bin/../lib/gcc/x86_64-w64-mingw32/5.3.0/../../../../x86_64-w64-mingw32/lib/../lib/libkernel32.a(dqmfs01221.o)
                0x0000000000475848                TlsGetValue
 .text          0x0000000000475850        0x8 C:/Program Files/mingw-w64/x86_64-5.3.0-posix-seh-rt_v4-rev0/mingw64/bin/../lib/gcc/x86_64-w64-mingw32/5.3.0/../../../../x86_64-w64-mingw32/lib/../lib/libkernel32.a(dqmfs01214.o)
                0x0000000000475850                TerminateProcess
 .text          0x0000000000475858        0x8 C:/Program Files/mingw-w64/x86_64-5.3.0-posix-seh-rt_v4-rev0/mingw64/bin/../lib/gcc/x86_64-w64-mingw32/5.3.0/../../../../x86_64-w64-mingw32/lib/../lib/libkernel32.a(dqmfs01200.o)
                0x0000000000475858                Sleep
 .text          0x0000000000475860        0x8 C:/Program Files/mingw-w64/x86_64-5.3.0-posix-seh-rt_v4-rev0/mingw64/bin/../lib/gcc/x86_64-w64-mingw32/5.3.0/../../../../x86_64-w64-mingw32/lib/../lib/libkernel32.a(dqmfs01187.o)
                0x0000000000475860                SetUnhandledExceptionFilter
 .text          0x0000000000475868        0x8 C:/Program Files/mingw-w64/x86_64-5.3.0-posix-seh-rt_v4-rev0/mingw64/bin/../lib/gcc/x86_64-w64-mingw32/5.3.0/../../../../x86_64-w64-mingw32/lib/../lib/libkernel32.a(dqmfs01044.o)
                0x0000000000475868                RtlVirtualUnwind
 .text          0x0000000000475870        0x8 C:/Program Files/mingw-w64/x86_64-5.3.0-posix-seh-rt_v4-rev0/mingw64/bin/../lib/gcc/x86_64-w64-mingw32/5.3.0/../../../../x86_64-w64-mingw32/lib/../lib/libkernel32.a(dqmfs01037.o)
                0x0000000000475870                RtlLookupFunctionEntry
 .text          0x0000000000475878        0x8 C:/Program Files/mingw-w64/x86_64-5.3.0-posix-seh-rt_v4-rev0/mingw64/bin/../lib/gcc/x86_64-w64-mingw32/5.3.0/../../../../x86_64-w64-mingw32/lib/../lib/libkernel32.a(dqmfs01030.o)
                0x0000000000475878                RtlCaptureContext
 .text          0x0000000000475880        0x8 C:/Program Files/mingw-w64/x86_64-5.3.0-posix-seh-rt_v4-rev0/mingw64/bin/../lib/gcc/x86_64-w64-mingw32/5.3.0/../../../../x86_64-w64-mingw32/lib/../lib/libkernel32.a(dqmfs01029.o)
                0x0000000000475880                RtlAddFunctionTable
 .text          0x0000000000475888        0x8 C:/Program Files/mingw-w64/x86_64-5.3.0-posix-seh-rt_v4-rev0/mingw64/bin/../lib/gcc/x86_64-w64-mingw32/5.3.0/../../../../x86_64-w64-mingw32/lib/../lib/libkernel32.a(dqmfs00958.o)
                0x0000000000475888                QueryPerformanceCounter
 .text          0x0000000000475890        0x8 C:/Program Files/mingw-w64/x86_64-5.3.0-posix-seh-rt_v4-rev0/mingw64/bin/../lib/gcc/x86_64-w64-mingw32/5.3.0/../../../../x86_64-w64-mingw32/lib/../lib/libkernel32.a(dqmfs00844.o)
                0x0000000000475890                LeaveCriticalSection
 .text          0x0000000000475898        0x8 C:/Program Files/mingw-w64/x86_64-5.3.0-posix-seh-rt_v4-rev0/mingw64/bin/../lib/gcc/x86_64-w64-mingw32/5.3.0/../../../../x86_64-w64-mingw32/lib/../lib/libkernel32.a(dqmfs00762.o)
                0x0000000000475898                InitializeCriticalSection
 .text          0x00000000004758a0        0x8 C:/Program Files/mingw-w64/x86_64-5.3.0-posix-seh-rt_v4-rev0/mingw64/bin/../lib/gcc/x86_64-w64-mingw32/5.3.0/../../../../x86_64-w64-mingw32/lib/../lib/libkernel32.a(dqmfs00678.o)
                0x00000000004758a0                GetTickCount
 .text          0x00000000004758a8        0x8 C:/Program Files/mingw-w64/x86_64-5.3.0-posix-seh-rt_v4-rev0/mingw64/bin/../lib/gcc/x86_64-w64-mingw32/5.3.0/../../../../x86_64-w64-mingw32/lib/../lib/libkernel32.a(dqmfs00651.o)
                0x00000000004758a8                GetSystemTimeAsFileTime
 .text          0x00000000004758b0        0x8 C:/Program Files/mingw-w64/x86_64-5.3.0-posix-seh-rt_v4-rev0/mingw64/bin/../lib/gcc/x86_64-w64-mingw32/5.3.0/../../../../x86_64-w64-mingw32/lib/../lib/libkernel32.a(dqmfs00628.o)
                0x00000000004758b0                GetStartupInfoA
 .text          0x00000000004758b8        0x8 C:/Program Files/mingw-w64/x86_64-5.3.0-posix-seh-rt_v4-rev0/mingw64/bin/../lib/gcc/x86_64-w64-mingw32/5.3.0/../../../../x86_64-w64-mingw32/lib/../lib/libkernel32.a(dqmfs00599.o)
                0x00000000004758b8                GetProcAddress
 .text          0x00000000004758c0        0x8 C:/Program Files/mingw-w64/x86_64-5.3.0-posix-seh-rt_v4-rev0/mingw64/bin/../lib/gcc/x86_64-w64-mingw32/5.3.0/../../../../x86_64-w64-mingw32/lib/../lib/libkernel32.a(dqmfs00549.o)
                0x00000000004758c0                GetModuleHandleA
 .text          0x00000000004758c8        0x8 C:/Program Files/mingw-w64/x86_64-5.3.0-posix-seh-rt_v4-rev0/mingw64/bin/../lib/gcc/x86_64-w64-mingw32/5.3.0/../../../../x86_64-w64-mingw32/lib/../lib/libkernel32.a(dqmfs00529.o)
                0x00000000004758c8                GetLastError
 .text          0x00000000004758d0        0x8 C:/Program Files/mingw-w64/x86_64-5.3.0-posix-seh-rt_v4-rev0/mingw64/bin/../lib/gcc/x86_64-w64-mingw32/5.3.0/../../../../x86_64-w64-mingw32/lib/../lib/libkernel32.a(dqmfs00467.o)
                0x00000000004758d0                GetCurrentThreadId
 .text          0x00000000004758d8        0x8 C:/Program Files/mingw-w64/x86_64-5.3.0-posix-seh-rt_v4-rev0/mingw64/bin/../lib/gcc/x86_64-w64-mingw32/5.3.0/../../../../x86_64-w64-mingw32/lib/../lib/libkernel32.a(dqmfs00463.o)
                0x00000000004758d8                GetCurrentProcessId
 .text          0x00000000004758e0        0x8 C:/Program Files/mingw-w64/x86_64-5.3.0-posix-seh-rt_v4-rev0/mingw64/bin/../lib/gcc/x86_64-w64-mingw32/5.3.0/../../../../x86_64-w64-mingw32/lib/../lib/libkernel32.a(dqmfs00462.o)
                0x00000000004758e0                GetCurrentProcess
 .text          0x00000000004758e8        0x8 C:/Program Files/mingw-w64/x86_64-5.3.0-posix-seh-rt_v4-rev0/mingw64/bin/../lib/gcc/x86_64-w64-mingw32/5.3.0/../../../../x86_64-w64-mingw32/lib/../lib/libkernel32.a(dqmfs00249.o)
                0x00000000004758e8                EnterCriticalSection
 .text          0x00000000004758f0        0x8 C:/Program Files/mingw-w64/x86_64-5.3.0-posix-seh-rt_v4-rev0/mingw64/bin/../lib/gcc/x86_64-w64-mingw32/5.3.0/../../../../x86_64-w64-mingw32/lib/../lib/libkernel32.a(dqmfs00216.o)
                0x00000000004758f0                DeleteCriticalSection
 *fill*         0x00000000004758f8        0x8 
 .text          0x0000000000475900        0x0 C:/Program Files/mingw-w64/x86_64-5.3.0-posix-seh-rt_v4-rev0/mingw64/bin/../lib/gcc/x86_64-w64-mingw32/5.3.0/../../../../x86_64-w64-mingw32/lib/../lib/libkernel32.a(dqmfh.o)
 .text          0x0000000000475900        0x0 C:/Program Files/mingw-w64/x86_64-5.3.0-posix-seh-rt_v4-rev0/mingw64/bin/../lib/gcc/x86_64-w64-mingw32/5.3.0/../../../../x86_64-w64-mingw32/lib/../lib/libkernel32.a(dqmft.o)
 .text          0x0000000000475900        0x0 C:/Program Files/mingw-w64/x86_64-5.3.0-posix-seh-rt_v4-rev0/mingw64/bin/../lib/gcc/x86_64-w64-mingw32/5.3.0/crtend.o
 *(SORT(.text$*))
 *(.text.*)
 .text.unlikely
                0x0000000000475900        0x0 C:/Program Files/mingw-w64/x86_64-5.3.0-posix-seh-rt_v4-rev0/mingw64/bin/../lib/gcc/x86_64-w64-mingw32/5.3.0/../../../../x86_64-w64-mingw32/lib/../lib/crt2.o
 .text.unlikely
                0x0000000000475900        0x0 C:/Program Files/mingw-w64/x86_64-5.3.0-posix-seh-rt_v4-rev0/mingw64/bin/../lib/gcc/x86_64-w64-mingw32/5.3.0/crtbegin.o
 .text.unlikely
                0x0000000000475900        0x0 C:/Program Files/mingw-w64/x86_64-5.3.0-posix-seh-rt_v4-rev0/mingw64/bin/../lib/gcc/x86_64-w64-mingw32/5.3.0/../../../../x86_64-w64-mingw32/lib/../lib/libmingw32.a(lib64_libmingw32_a-atonexit.o)
 .text.unlikely
                0x0000000000475900        0x0 C:/Program Files/mingw-w64/x86_64-5.3.0-posix-seh-rt_v4-rev0/mingw64/bin/../lib/gcc/x86_64-w64-mingw32/5.3.0/../../../../x86_64-w64-mingw32/lib/../lib/libmingw32.a(lib64_libmingw32_a-gccmain.o)
 .text.unlikely
                0x0000000000475900        0x0 C:/Program Files/mingw-w64/x86_64-5.3.0-posix-seh-rt_v4-rev0/mingw64/bin/../lib/gcc/x86_64-w64-mingw32/5.3.0/../../../../x86_64-w64-mingw32/lib/../lib/libmingw32.a(lib64_libmingw32_a-charmax.o)
 .text.unlikely
                0x0000000000475900        0x0 C:/Program Files/mingw-w64/x86_64-5.3.0-posix-seh-rt_v4-rev0/mingw64/bin/../lib/gcc/x86_64-w64-mingw32/5.3.0/../../../../x86_64-w64-mingw32/lib/../lib/libmingw32.a(lib64_libmingw32_a-dllargv.o)
 .text.unlikely
                0x0000000000475900        0x0 C:/Program Files/mingw-w64/x86_64-5.3.0-posix-seh-rt_v4-rev0/mingw64/bin/../lib/gcc/x86_64-w64-mingw32/5.3.0/../../../../x86_64-w64-mingw32/lib/../lib/libmingw32.a(lib64_libmingw32_a-gs_support.o)
 .text.unlikely
                0x0000000000475900        0x0 C:/Program Files/mingw-w64/x86_64-5.3.0-posix-seh-rt_v4-rev0/mingw64/bin/../lib/gcc/x86_64-w64-mingw32/5.3.0/../../../../x86_64-w64-mingw32/lib/../lib/libmingw32.a(lib64_libmingw32_a-tlssup.o)
 .text.unlikely
                0x0000000000475900        0x0 C:/Program Files/mingw-w64/x86_64-5.3.0-posix-seh-rt_v4-rev0/mingw64/bin/../lib/gcc/x86_64-w64-mingw32/5.3.0/../../../../x86_64-w64-mingw32/lib/../lib/libmingw32.a(lib64_libmingw32_a-merr.o)
 .text.unlikely
                0x0000000000475900        0x0 C:/Program Files/mingw-w64/x86_64-5.3.0-posix-seh-rt_v4-rev0/mingw64/bin/../lib/gcc/x86_64-w64-mingw32/5.3.0/../../../../x86_64-w64-mingw32/lib/../lib/libmingw32.a(lib64_libmingw32_a-CRT_fp10.o)
 .text.unlikely
                0x0000000000475900        0x0 C:/Program Files/mingw-w64/x86_64-5.3.0-posix-seh-rt_v4-rev0/mingw64/bin/../lib/gcc/x86_64-w64-mingw32/5.3.0/../../../../x86_64-w64-mingw32/lib/../lib/libmingw32.a(lib64_libmingw32_a-mingw_helpers.o)
 .text.unlikely
                0x0000000000475900        0x0 C:/Program Files/mingw-w64/x86_64-5.3.0-posix-seh-rt_v4-rev0/mingw64/bin/../lib/gcc/x86_64-w64-mingw32/5.3.0/../../../../x86_64-w64-mingw32/lib/../lib/libmingw32.a(lib64_libmingw32_a-pseudo-reloc.o)
 .text.unlikely
                0x0000000000475900        0x0 C:/Program Files/mingw-w64/x86_64-5.3.0-posix-seh-rt_v4-rev0/mingw64/bin/../lib/gcc/x86_64-w64-mingw32/5.3.0/../../../../x86_64-w64-mingw32/lib/../lib/libmingw32.a(lib64_libmingw32_a-crt_handler.o)
 .text.unlikely
                0x0000000000475900        0x0 C:/Program Files/mingw-w64/x86_64-5.3.0-posix-seh-rt_v4-rev0/mingw64/bin/../lib/gcc/x86_64-w64-mingw32/5.3.0/../../../../x86_64-w64-mingw32/lib/../lib/libmingw32.a(lib64_libmingw32_a-tlsthrd.o)
 .text.unlikely
                0x0000000000475900        0x0 C:/Program Files/mingw-w64/x86_64-5.3.0-posix-seh-rt_v4-rev0/mingw64/bin/../lib/gcc/x86_64-w64-mingw32/5.3.0/../../../../x86_64-w64-mingw32/lib/../lib/libmingw32.a(lib64_libmingw32_a-pesect.o)
 .text.unlikely
                0x0000000000475900        0x0 C:/Program Files/mingw-w64/x86_64-5.3.0-posix-seh-rt_v4-rev0/mingw64/bin/../lib/gcc/x86_64-w64-mingw32/5.3.0/../../../../x86_64-w64-mingw32/lib/../lib/libmingwex.a(lib64_libmingwex_a-strtodnrp.o)
 .text.unlikely
                0x0000000000475900        0x0 C:/Program Files/mingw-w64/x86_64-5.3.0-posix-seh-rt_v4-rev0/mingw64/bin/../lib/gcc/x86_64-w64-mingw32/5.3.0/../../../../x86_64-w64-mingw32/lib/../lib/libmingwex.a(lib64_libmingwex_a-_findfirst64i32.o)
 .text.unlikely
                0x0000000000475900        0x0 C:/Program Files/mingw-w64/x86_64-5.3.0-posix-seh-rt_v4-rev0/mingw64/bin/../lib/gcc/x86_64-w64-mingw32/5.3.0/../../../../x86_64-w64-mingw32/lib/../lib/libmingwex.a(lib64_libmingwex_a-_findnext64i32.o)
 .text.unlikely
                0x0000000000475900        0x0 C:/Program Files/mingw-w64/x86_64-5.3.0-posix-seh-rt_v4-rev0/mingw64/bin/../lib/gcc/x86_64-w64-mingw32/5.3.0/../../../../x86_64-w64-mingw32/lib/../lib/libmingwex.a(lib64_libmingwex_a-_stat64i32.o)
 .text.unlikely
                0x0000000000475900        0x0 C:/Program Files/mingw-w64/x86_64-5.3.0-posix-seh-rt_v4-rev0/mingw64/bin/../lib/gcc/x86_64-w64-mingw32/5.3.0/../../../../x86_64-w64-mingw32/lib/../lib/libmingwex.a(lib64_libmingwex_a-strtodg.o)
 .text.unlikely
                0x0000000000475900        0x0 C:/Program Files/mingw-w64/x86_64-5.3.0-posix-seh-rt_v4-rev0/mingw64/bin/../lib/gcc/x86_64-w64-mingw32/5.3.0/../../../../x86_64-w64-mingw32/lib/../lib/libmingwex.a(lib64_libmingwex_a-sum.o)
 .text.unlikely
                0x0000000000475900        0x0 C:/Program Files/mingw-w64/x86_64-5.3.0-posix-seh-rt_v4-rev0/mingw64/bin/../lib/gcc/x86_64-w64-mingw32/5.3.0/../../../../x86_64-w64-mingw32/lib/../lib/libmingwex.a(lib64_libmingwex_a-gethex.o)
 .text.unlikely
                0x0000000000475900        0x0 C:/Program Files/mingw-w64/x86_64-5.3.0-posix-seh-rt_v4-rev0/mingw64/bin/../lib/gcc/x86_64-w64-mingw32/5.3.0/../../../../x86_64-w64-mingw32/lib/../lib/libmingwex.a(lib64_libmingwex_a-gmisc.o)
 .text.unlikely
                0x0000000000475900        0x0 C:/Program Files/mingw-w64/x86_64-5.3.0-posix-seh-rt_v4-rev0/mingw64/bin/../lib/gcc/x86_64-w64-mingw32/5.3.0/../../../../x86_64-w64-mingw32/lib/../lib/libmingwex.a(lib64_libmingwex_a-hd_init.o)
 .text.unlikely
                0x0000000000475900        0x0 C:/Program Files/mingw-w64/x86_64-5.3.0-posix-seh-rt_v4-rev0/mingw64/bin/../lib/gcc/x86_64-w64-mingw32/5.3.0/../../../../x86_64-w64-mingw32/lib/../lib/libmingwex.a(lib64_libmingwex_a-hexnan.o)
 .text.unlikely
                0x0000000000475900        0x0 C:/Program Files/mingw-w64/x86_64-5.3.0-posix-seh-rt_v4-rev0/mingw64/bin/../lib/gcc/x86_64-w64-mingw32/5.3.0/../../../../x86_64-w64-mingw32/lib/../lib/libmingwex.a(lib64_libmingwex_a-misc.o)
 .text.unlikely
                0x0000000000475900        0x0 C:/Program Files/mingw-w64/x86_64-5.3.0-posix-seh-rt_v4-rev0/mingw64/bin/../lib/gcc/x86_64-w64-mingw32/5.3.0/../../../../x86_64-w64-mingw32/lib/../lib/libmingwex.a(lib64_libmingwex_a-smisc.o)
 .text.unlikely
                0x0000000000475900        0x0 C:/Program Files/mingw-w64/x86_64-5.3.0-posix-seh-rt_v4-rev0/mingw64/bin/../lib/gcc/x86_64-w64-mingw32/5.3.0/../../../../x86_64-w64-mingw32/lib/../lib/libmsvcrt.a(lib64_libmsvcrt_a-invalid_parameter_handler.o)
 .text.unlikely
                0x0000000000475900        0x0 C:/Program Files/mingw-w64/x86_64-5.3.0-posix-seh-rt_v4-rev0/mingw64/bin/../lib/gcc/x86_64-w64-mingw32/5.3.0/crtend.o
 .text.startup  0x0000000000475900       0x10 C:/Program Files/mingw-w64/x86_64-5.3.0-posix-seh-rt_v4-rev0/mingw64/bin/../lib/gcc/x86_64-w64-mingw32/5.3.0/crtend.o
 *(.gnu.linkonce.t.*)
 *(.glue_7t)
 *(.glue_7)
                0x0000000000475910                . = ALIGN (0x8)
                0x0000000000475910                ___CTOR_LIST__ = .
                0x0000000000475910                __CTOR_LIST__ = .
                0x0000000000475910        0x4 LONG 0xffffffffffffffff
                0x0000000000475914        0x4 LONG 0xffffffffffffffff
 *(.ctors)
 *(.ctor)
 *(SORT(.ctors.*))
 .ctors.65535   0x0000000000475918        0x8 C:/Program Files/mingw-w64/x86_64-5.3.0-posix-seh-rt_v4-rev0/mingw64/bin/../lib/gcc/x86_64-w64-mingw32/5.3.0/crtend.o
                0x0000000000475920        0x4 LONG 0x0
                0x0000000000475924        0x4 LONG 0x0
                0x0000000000475928                ___DTOR_LIST__ = .
                0x0000000000475928                __DTOR_LIST__ = .
                0x0000000000475928        0x4 LONG 0xffffffffffffffff
                0x000000000047592c        0x4 LONG 0xffffffffffffffff
 *(.dtors)
 *(.dtor)
 *(SORT(.dtors.*))
                0x0000000000475930        0x4 LONG 0x0
                0x0000000000475934        0x4 LONG 0x0
 *(.fini)
 *(.gcc_exc)
                0x0000000000475938                PROVIDE (etext, .)
 *(.gcc_except_table)

.data           0x0000000000476000     0x9200
                0x0000000000476000                __data_start__ = .
 *(.data)
 .data          0x0000000000476000       0x10 C:/Program Files/mingw-w64/x86_64-5.3.0-posix-seh-rt_v4-rev0/mingw64/bin/../lib/gcc/x86_64-w64-mingw32/5.3.0/../../../../x86_64-w64-mingw32/lib/../lib/crt2.o
                0x0000000000476000                __mingw_winmain_nShowCmd
 .data          0x0000000000476010        0x0 C:/Program Files/mingw-w64/x86_64-5.3.0-posix-seh-rt_v4-rev0/mingw64/bin/../lib/gcc/x86_64-w64-mingw32/5.3.0/crtbegin.o
 .data          0x0000000000476010        0x0 MinGW-w64D/main.o
 .data          0x0000000000476010        0x0 MinGW-w64D/apiemu.o
 .data          0x0000000000476010       0x10 MinGW-w64D/assemble.o
 .data          0x0000000000476020        0x0 MinGW-w64D/assume.o
 .data          0x0000000000476020        0x0 MinGW-w64D/atofloat.o
 .data          0x0000000000476020        0x0 MinGW-w64D/backptch.o
 .data          0x0000000000476020        0x0 MinGW-w64D/bin.o
 .data          0x0000000000476020        0x0 MinGW-w64D/branch.o
 .data          0x0000000000476020       0xc0 MinGW-w64D/cmdline.o
                0x0000000000476020                Options
 .data          0x00000000004760e0        0x0 MinGW-w64D/codegen.o
 .data          0x00000000004760e0        0x0 MinGW-w64D/coff.o
 .data          0x00000000004760e0        0x0 MinGW-w64D/condasm.o
 .data          0x00000000004760e0        0x0 MinGW-w64D/context.o
 .data          0x00000000004760e0        0x0 MinGW-w64D/cpumodel.o
 .data          0x00000000004760e0        0x0 MinGW-w64D/data.o
 .data          0x00000000004760e0        0x0 MinGW-w64D/dbgcv.o
 .data          0x00000000004760e0        0x0 MinGW-w64D/directiv.o
 .data          0x00000000004760e0        0x0 MinGW-w64D/elf.o
 .data          0x00000000004760e0        0x0 MinGW-w64D/end.o
 .data          0x00000000004760e0        0x0 MinGW-w64D/equate.o
 .data          0x00000000004760e0        0x0 MinGW-w64D/errmsg.o
 .data          0x00000000004760e0        0x0 MinGW-w64D/expans.o
 .data          0x00000000004760e0        0x0 MinGW-w64D/expreval.o
 .data          0x00000000004760e0        0x0 MinGW-w64D/extern.o
 .data          0x00000000004760e0        0x0 MinGW-w64D/fastpass.o
 .data          0x00000000004760e0        0x0 MinGW-w64D/fixup.o
 .data          0x00000000004760e0        0x0 MinGW-w64D/fpfixup.o
 .data          0x00000000004760e0        0x0 MinGW-w64D/hll.o
 .data          0x00000000004760e0        0x0 MinGW-w64D/input.o
 .data          0x00000000004760e0        0x0 MinGW-w64D/invoke.o
 .data          0x00000000004760e0        0x0 MinGW-w64D/label.o
 .data          0x00000000004760e0        0x0 MinGW-w64D/linnum.o
 .data          0x00000000004760e0        0x0 MinGW-w64D/listing.o
 .data          0x00000000004760e0        0x0 MinGW-w64D/loop.o
 .data          0x00000000004760e0        0x0 MinGW-w64D/lqueue.o
 .data          0x00000000004760e0        0x0 MinGW-w64D/macro.o
 .data          0x00000000004760e0        0x0 MinGW-w64D/mangle.o
 .data          0x00000000004760e0        0x0 MinGW-w64D/memalloc.o
 .data          0x00000000004760e0        0x0 MinGW-w64D/msgtext.o
 .data          0x00000000004760e0        0x0 MinGW-w64D/omf.o
 .data          0x00000000004760e0        0x0 MinGW-w64D/omffixup.o
 .data          0x00000000004760e0        0x0 MinGW-w64D/omfint.o
 .data          0x00000000004760e0        0x0 MinGW-w64D/option.o
 .data          0x00000000004760e0        0x0 MinGW-w64D/parser.o
 .data          0x00000000004760e0        0x0 MinGW-w64D/posndir.o
 .data          0x00000000004760e0        0x0 MinGW-w64D/preproc.o
 .data          0x00000000004760e0        0x0 MinGW-w64D/proc.o
 .data          0x00000000004760e0        0x0 MinGW-w64D/queue.o
 .data          0x00000000004760e0     0x8ee0 MinGW-w64D/reswords.o
                0x00000000004760e0                optable_idx
                0x0000000000476da0                ResWordTable
 .data          0x000000000047efc0        0x0 MinGW-w64D/safeseh.o
 .data          0x000000000047efc0        0x0 MinGW-w64D/segment.o
 .data          0x000000000047efc0        0x0 MinGW-w64D/simsegm.o
 .data          0x000000000047efc0        0x0 MinGW-w64D/string.o
 .data          0x000000000047efc0        0x0 MinGW-w64D/symbols.o
 .data          0x000000000047efc0        0x0 MinGW-w64D/tbyte.o
 .data          0x000000000047efc0        0x0 MinGW-w64D/tokenize.o
 .data          0x000000000047efc0        0x0 MinGW-w64D/types.o
 .data          0x000000000047efc0        0x0 C:/Program Files/mingw-w64/x86_64-5.3.0-posix-seh-rt_v4-rev0/mingw64/bin/../lib/gcc/x86_64-w64-mingw32/5.3.0/../../../../x86_64-w64-mingw32/lib/../lib/libmingw32.a(lib64_libmingw32_a-atonexit.o)
 .data          0x000000000047efc0       0x10 C:/Program Files/mingw-w64/x86_64-5.3.0-posix-seh-rt_v4-rev0/mingw64/bin/../lib/gcc/x86_64-w64-mingw32/5.3.0/../../../../x86_64-w64-mingw32/lib/../lib/libmingw32.a(lib64_libmingw32_a-gccmain.o)
 .data          0x000000000047efd0       0x10 C:/Program Files/mingw-w64/x86_64-5.3.0-posix-seh-rt_v4-rev0/mingw64/bin/../lib/gcc/x86_64-w64-mingw32/5.3.0/../../../../x86_64-w64-mingw32/lib/../lib/libmingw32.a(lib64_libmingw32_a-natstart.o)
                0x000000000047efd0                __native_vcclrit_reason
                0x000000000047efd4                __native_dllmain_reason
 .data          0x000000000047efe0       0x10 C:/Program Files/mingw-w64/x86_64-5.3.0-posix-seh-rt_v4-rev0/mingw64/bin/../lib/gcc/x86_64-w64-mingw32/5.3.0/../../../../x86_64-w64-mingw32/lib/../lib/libmingw32.a(lib64_libmingw32_a-wildcard.o)
                0x000000000047efe0                _dowildcard
 .data          0x000000000047eff0       0x10 C:/Program Files/mingw-w64/x86_64-5.3.0-posix-seh-rt_v4-rev0/mingw64/bin/../lib/gcc/x86_64-w64-mingw32/5.3.0/../../../../x86_64-w64-mingw32/lib/../lib/libmingw32.a(lib64_libmingw32_a-charmax.o)
                0x000000000047eff0                _charmax
 .data          0x000000000047f000        0x0 C:/Program Files/mingw-w64/x86_64-5.3.0-posix-seh-rt_v4-rev0/mingw64/bin/../lib/gcc/x86_64-w64-mingw32/5.3.0/../../../../x86_64-w64-mingw32/lib/../lib/libmingw32.a(lib64_libmingw32_a-dllargv.o)
 .data          0x000000000047f000        0x0 C:/Program Files/mingw-w64/x86_64-5.3.0-posix-seh-rt_v4-rev0/mingw64/bin/../lib/gcc/x86_64-w64-mingw32/5.3.0/../../../../x86_64-w64-mingw32/lib/../lib/libmingw32.a(lib64_libmingw32_a-gs_support.o)
 .data          0x000000000047f000        0x0 C:/Program Files/mingw-w64/x86_64-5.3.0-posix-seh-rt_v4-rev0/mingw64/bin/../lib/gcc/x86_64-w64-mingw32/5.3.0/../../../../x86_64-w64-mingw32/lib/../lib/libmingw32.a(lib64_libmingw32_a-_newmode.o)
 .data          0x000000000047f000        0x0 C:/Program Files/mingw-w64/x86_64-5.3.0-posix-seh-rt_v4-rev0/mingw64/bin/../lib/gcc/x86_64-w64-mingw32/5.3.0/../../../../x86_64-w64-mingw32/lib/../lib/libmingw32.a(lib64_libmingw32_a-tlssup.o)
 .data          0x000000000047f000        0x0 C:/Program Files/mingw-w64/x86_64-5.3.0-posix-seh-rt_v4-rev0/mingw64/bin/../lib/gcc/x86_64-w64-mingw32/5.3.0/../../../../x86_64-w64-mingw32/lib/../lib/libmingw32.a(lib64_libmingw32_a-cinitexe.o)
 .data          0x000000000047f000        0x0 C:/Program Files/mingw-w64/x86_64-5.3.0-posix-seh-rt_v4-rev0/mingw64/bin/../lib/gcc/x86_64-w64-mingw32/5.3.0/../../../../x86_64-w64-mingw32/lib/../lib/libmingw32.a(lib64_libmingw32_a-merr.o)
 .data          0x000000000047f000        0x0 C:/Program Files/mingw-w64/x86_64-5.3.0-posix-seh-rt_v4-rev0/mingw64/bin/../lib/gcc/x86_64-w64-mingw32/5.3.0/../../../../x86_64-w64-mingw32/lib/../lib/libmingw32.a(lib64_libmingw32_a-CRT_fp10.o)
 .data          0x000000000047f000        0x0 C:/Program Files/mingw-w64/x86_64-5.3.0-posix-seh-rt_v4-rev0/mingw64/bin/../lib/gcc/x86_64-w64-mingw32/5.3.0/../../../../x86_64-w64-mingw32/lib/../lib/libmingw32.a(lib64_libmingw32_a-mingw_helpers.o)
 .data          0x000000000047f000        0x0 C:/Program Files/mingw-w64/x86_64-5.3.0-posix-seh-rt_v4-rev0/mingw64/bin/../lib/gcc/x86_64-w64-mingw32/5.3.0/../../../../x86_64-w64-mingw32/lib/../lib/libmingw32.a(lib64_libmingw32_a-pseudo-reloc.o)
 .data          0x000000000047f000        0x0 C:/Program Files/mingw-w64/x86_64-5.3.0-posix-seh-rt_v4-rev0/mingw64/bin/../lib/gcc/x86_64-w64-mingw32/5.3.0/../../../../x86_64-w64-mingw32/lib/../lib/libmingw32.a(lib64_libmingw32_a-xtxtmode.o)
 .data          0x000000000047f000        0x0 C:/Program Files/mingw-w64/x86_64-5.3.0-posix-seh-rt_v4-rev0/mingw64/bin/../lib/gcc/x86_64-w64-mingw32/5.3.0/../../../../x86_64-w64-mingw32/lib/../lib/libmingw32.a(lib64_libmingw32_a-crt_handler.o)
 .data          0x000000000047f000        0x0 C:/Program Files/mingw-w64/x86_64-5.3.0-posix-seh-rt_v4-rev0/mingw64/bin/../lib/gcc/x86_64-w64-mingw32/5.3.0/../../../../x86_64-w64-mingw32/lib/../lib/libmingw32.a(lib64_libmingw32_a-tlsthrd.o)
 .data          0x000000000047f000       0x10 C:/Program Files/mingw-w64/x86_64-5.3.0-posix-seh-rt_v4-rev0/mingw64/bin/../lib/gcc/x86_64-w64-mingw32/5.3.0/../../../../x86_64-w64-mingw32/lib/../lib/libmingw32.a(lib64_libmingw32_a-tlsmcrt.o)
                0x000000000047f000                _CRT_MT
 .data          0x000000000047f010        0x0 C:/Program Files/mingw-w64/x86_64-5.3.0-posix-seh-rt_v4-rev0/mingw64/bin/../lib/gcc/x86_64-w64-mingw32/5.3.0/../../../../x86_64-w64-mingw32/lib/../lib/libmingw32.a(lib64_libmingw32_a-pseudo-reloc-list.o)
 .data          0x000000000047f010        0x0 C:/Program Files/mingw-w64/x86_64-5.3.0-posix-seh-rt_v4-rev0/mingw64/bin/../lib/gcc/x86_64-w64-mingw32/5.3.0/../../../../x86_64-w64-mingw32/lib/../lib/libmingw32.a(lib64_libmingw32_a-pesect.o)
 .data          0x000000000047f010        0x0 C:/Program Files/mingw-w64/x86_64-5.3.0-posix-seh-rt_v4-rev0/mingw64/bin/../lib/gcc/x86_64-w64-mingw32/5.3.0/libgcc.a(_chkstk_ms.o)
 .data          0x000000000047f010        0x0 C:/Program Files/mingw-w64/x86_64-5.3.0-posix-seh-rt_v4-rev0/mingw64/bin/../lib/gcc/x86_64-w64-mingw32/5.3.0/libgcc.a(_ctors.o)
 .data          0x000000000047f010       0x20 C:/Program Files/mingw-w64/x86_64-5.3.0-posix-seh-rt_v4-rev0/mingw64/bin/../lib/gcc/x86_64-w64-mingw32/5.3.0/../../../../x86_64-w64-mingw32/lib/../lib/libmingwex.a(lib64_libmingwex_a-strtodnrp.o)
 .data          0x000000000047f030        0x0 C:/Program Files/mingw-w64/x86_64-5.3.0-posix-seh-rt_v4-rev0/mingw64/bin/../lib/gcc/x86_64-w64-mingw32/5.3.0/../../../../x86_64-w64-mingw32/lib/../lib/libmingwex.a(lib64_libmingwex_a-mingw_getsp.o)
 .data          0x000000000047f030       0x10 C:/Program Files/mingw-w64/x86_64-5.3.0-posix-seh-rt_v4-rev0/mingw64/bin/../lib/gcc/x86_64-w64-mingw32/5.3.0/../../../../x86_64-w64-mingw32/lib/../lib/libmingwex.a(lib64_libmingwex_a-mingw_matherr.o)
                0x000000000047f030                _MINGW_INSTALL_DEBUG_MATHERR
 .data          0x000000000047f040        0x0 C:/Program Files/mingw-w64/x86_64-5.3.0-posix-seh-rt_v4-rev0/mingw64/bin/../lib/gcc/x86_64-w64-mingw32/5.3.0/../../../../x86_64-w64-mingw32/lib/../lib/libmingwex.a(lib64_libmingwex_a-_findfirst64i32.o)
 .data          0x000000000047f040        0x0 C:/Program Files/mingw-w64/x86_64-5.3.0-posix-seh-rt_v4-rev0/mingw64/bin/../lib/gcc/x86_64-w64-mingw32/5.3.0/../../../../x86_64-w64-mingw32/lib/../lib/libmingwex.a(lib64_libmingwex_a-_findnext64i32.o)
 .data          0x000000000047f040        0x0 C:/Program Files/mingw-w64/x86_64-5.3.0-posix-seh-rt_v4-rev0/mingw64/bin/../lib/gcc/x86_64-w64-mingw32/5.3.0/../../../../x86_64-w64-mingw32/lib/../lib/libmingwex.a(lib64_libmingwex_a-_stat64i32.o)
 .data          0x000000000047f040        0x0 C:/Program Files/mingw-w64/x86_64-5.3.0-posix-seh-rt_v4-rev0/mingw64/bin/../lib/gcc/x86_64-w64-mingw32/5.3.0/../../../../x86_64-w64-mingw32/lib/../lib/libmingwex.a(lib64_libmingwex_a-strtodg.o)
 .data          0x000000000047f040        0x0 C:/Program Files/mingw-w64/x86_64-5.3.0-posix-seh-rt_v4-rev0/mingw64/bin/../lib/gcc/x86_64-w64-mingw32/5.3.0/../../../../x86_64-w64-mingw32/lib/../lib/libmingwex.a(lib64_libmingwex_a-sum.o)
 .data          0x000000000047f040        0x0 C:/Program Files/mingw-w64/x86_64-5.3.0-posix-seh-rt_v4-rev0/mingw64/bin/../lib/gcc/x86_64-w64-mingw32/5.3.0/../../../../x86_64-w64-mingw32/lib/../lib/libmingwex.a(lib64_libmingwex_a-gethex.o)
 .data          0x000000000047f040        0x0 C:/Program Files/mingw-w64/x86_64-5.3.0-posix-seh-rt_v4-rev0/mingw64/bin/../lib/gcc/x86_64-w64-mingw32/5.3.0/../../../../x86_64-w64-mingw32/lib/../lib/libmingwex.a(lib64_libmingwex_a-gmisc.o)
 .data          0x000000000047f040        0x0 C:/Program Files/mingw-w64/x86_64-5.3.0-posix-seh-rt_v4-rev0/mingw64/bin/../lib/gcc/x86_64-w64-mingw32/5.3.0/../../../../x86_64-w64-mingw32/lib/../lib/libmingwex.a(lib64_libmingwex_a-hd_init.o)
 .data          0x000000000047f040        0x0 C:/Program Files/mingw-w64/x86_64-5.3.0-posix-seh-rt_v4-rev0/mingw64/bin/../lib/gcc/x86_64-w64-mingw32/5.3.0/../../../../x86_64-w64-mingw32/lib/../lib/libmingwex.a(lib64_libmingwex_a-hexnan.o)
 .data          0x000000000047f040       0x10 C:/Program Files/mingw-w64/x86_64-5.3.0-posix-seh-rt_v4-rev0/mingw64/bin/../lib/gcc/x86_64-w64-mingw32/5.3.0/../../../../x86_64-w64-mingw32/lib/../lib/libmingwex.a(lib64_libmingwex_a-misc.o)
 .data          0x000000000047f050        0x0 C:/Program Files/mingw-w64/x86_64-5.3.0-posix-seh-rt_v4-rev0/mingw64/bin/../lib/gcc/x86_64-w64-mingw32/5.3.0/../../../../x86_64-w64-mingw32/lib/../lib/libmingwex.a(lib64_libmingwex_a-smisc.o)
 .data          0x000000000047f050        0x0 C:/Program Files/mingw-w64/x86_64-5.3.0-posix-seh-rt_v4-rev0/mingw64/bin/../lib/gcc/x86_64-w64-mingw32/5.3.0/../../../../x86_64-w64-mingw32/lib/../lib/libmsvcrt.a(dkpfs01245.o)
 .data          0x000000000047f050        0x0 C:/Program Files/mingw-w64/x86_64-5.3.0-posix-seh-rt_v4-rev0/mingw64/bin/../lib/gcc/x86_64-w64-mingw32/5.3.0/../../../../x86_64-w64-mingw32/lib/../lib/libmsvcrt.a(dkpfs01243.o)
 .data          0x000000000047f050        0x0 C:/Program Files/mingw-w64/x86_64-5.3.0-posix-seh-rt_v4-rev0/mingw64/bin/../lib/gcc/x86_64-w64-mingw32/5.3.0/../../../../x86_64-w64-mingw32/lib/../lib/libmsvcrt.a(dkpfs01239.o)
 .data          0x000000000047f050        0x0 C:/Program Files/mingw-w64/x86_64-5.3.0-posix-seh-rt_v4-rev0/mingw64/bin/../lib/gcc/x86_64-w64-mingw32/5.3.0/../../../../x86_64-w64-mingw32/lib/../lib/libmsvcrt.a(dkpfs01233.o)
 .data          0x000000000047f050        0x0 C:/Program Files/mingw-w64/x86_64-5.3.0-posix-seh-rt_v4-rev0/mingw64/bin/../lib/gcc/x86_64-w64-mingw32/5.3.0/../../../../x86_64-w64-mingw32/lib/../lib/libmsvcrt.a(dkpfs01215.o)
 .data          0x000000000047f050        0x0 C:/Program Files/mingw-w64/x86_64-5.3.0-posix-seh-rt_v4-rev0/mingw64/bin/../lib/gcc/x86_64-w64-mingw32/5.3.0/../../../../x86_64-w64-mingw32/lib/../lib/libmsvcrt.a(dkpfs01208.o)
 .data          0x000000000047f050        0x0 C:/Program Files/mingw-w64/x86_64-5.3.0-posix-seh-rt_v4-rev0/mingw64/bin/../lib/gcc/x86_64-w64-mingw32/5.3.0/../../../../x86_64-w64-mingw32/lib/../lib/libmsvcrt.a(dkpfs01207.o)
 .data          0x000000000047f050        0x0 C:/Program Files/mingw-w64/x86_64-5.3.0-posix-seh-rt_v4-rev0/mingw64/bin/../lib/gcc/x86_64-w64-mingw32/5.3.0/../../../../x86_64-w64-mingw32/lib/../lib/libmsvcrt.a(dkpfs01204.o)
 .data          0x000000000047f050        0x0 C:/Program Files/mingw-w64/x86_64-5.3.0-posix-seh-rt_v4-rev0/mingw64/bin/../lib/gcc/x86_64-w64-mingw32/5.3.0/../../../../x86_64-w64-mingw32/lib/../lib/libmsvcrt.a(dkpfs01199.o)
 .data          0x000000000047f050        0x0 C:/Program Files/mingw-w64/x86_64-5.3.0-posix-seh-rt_v4-rev0/mingw64/bin/../lib/gcc/x86_64-w64-mingw32/5.3.0/../../../../x86_64-w64-mingw32/lib/../lib/libmsvcrt.a(dkpfs01197.o)
 .data          0x000000000047f050        0x0 C:/Program Files/mingw-w64/x86_64-5.3.0-posix-seh-rt_v4-rev0/mingw64/bin/../lib/gcc/x86_64-w64-mingw32/5.3.0/../../../../x86_64-w64-mingw32/lib/../lib/libmsvcrt.a(dkpfs01196.o)
 .data          0x000000000047f050        0x0 C:/Program Files/mingw-w64/x86_64-5.3.0-posix-seh-rt_v4-rev0/mingw64/bin/../lib/gcc/x86_64-w64-mingw32/5.3.0/../../../../x86_64-w64-mingw32/lib/../lib/libmsvcrt.a(dkpfs01194.o)
 .data          0x000000000047f050        0x0 C:/Program Files/mingw-w64/x86_64-5.3.0-posix-seh-rt_v4-rev0/mingw64/bin/../lib/gcc/x86_64-w64-mingw32/5.3.0/../../../../x86_64-w64-mingw32/lib/../lib/libmsvcrt.a(dkpfs01188.o)
 .data          0x000000000047f050        0x0 C:/Program Files/mingw-w64/x86_64-5.3.0-posix-seh-rt_v4-rev0/mingw64/bin/../lib/gcc/x86_64-w64-mingw32/5.3.0/../../../../x86_64-w64-mingw32/lib/../lib/libmsvcrt.a(dkpfs01183.o)
 .data          0x000000000047f050        0x0 C:/Program Files/mingw-w64/x86_64-5.3.0-posix-seh-rt_v4-rev0/mingw64/bin/../lib/gcc/x86_64-w64-mingw32/5.3.0/../../../../x86_64-w64-mingw32/lib/../lib/libmsvcrt.a(dkpfs01176.o)
 .data          0x000000000047f050        0x0 C:/Program Files/mingw-w64/x86_64-5.3.0-posix-seh-rt_v4-rev0/mingw64/bin/../lib/gcc/x86_64-w64-mingw32/5.3.0/../../../../x86_64-w64-mingw32/lib/../lib/libmsvcrt.a(dkpfs01174.o)
 .data          0x000000000047f050        0x0 C:/Program Files/mingw-w64/x86_64-5.3.0-posix-seh-rt_v4-rev0/mingw64/bin/../lib/gcc/x86_64-w64-mingw32/5.3.0/../../../../x86_64-w64-mingw32/lib/../lib/libmsvcrt.a(dkpfs01169.o)
 .data          0x000000000047f050        0x0 C:/Program Files/mingw-w64/x86_64-5.3.0-posix-seh-rt_v4-rev0/mingw64/bin/../lib/gcc/x86_64-w64-mingw32/5.3.0/../../../../x86_64-w64-mingw32/lib/../lib/libmsvcrt.a(dkpfs01166.o)
 .data          0x000000000047f050        0x0 C:/Program Files/mingw-w64/x86_64-5.3.0-posix-seh-rt_v4-rev0/mingw64/bin/../lib/gcc/x86_64-w64-mingw32/5.3.0/../../../../x86_64-w64-mingw32/lib/../lib/libmsvcrt.a(dkpfs01165.o)
 .data          0x000000000047f050        0x0 C:/Program Files/mingw-w64/x86_64-5.3.0-posix-seh-rt_v4-rev0/mingw64/bin/../lib/gcc/x86_64-w64-mingw32/5.3.0/../../../../x86_64-w64-mingw32/lib/../lib/libmsvcrt.a(dkpfs01162.o)
 .data          0x000000000047f050        0x0 C:/Program Files/mingw-w64/x86_64-5.3.0-posix-seh-rt_v4-rev0/mingw64/bin/../lib/gcc/x86_64-w64-mingw32/5.3.0/../../../../x86_64-w64-mingw32/lib/../lib/libmsvcrt.a(dkpfs01155.o)
 .data          0x000000000047f050        0x0 C:/Program Files/mingw-w64/x86_64-5.3.0-posix-seh-rt_v4-rev0/mingw64/bin/../lib/gcc/x86_64-w64-mingw32/5.3.0/../../../../x86_64-w64-mingw32/lib/../lib/libmsvcrt.a(dkpfs01154.o)
 .data          0x000000000047f050        0x0 C:/Program Files/mingw-w64/x86_64-5.3.0-posix-seh-rt_v4-rev0/mingw64/bin/../lib/gcc/x86_64-w64-mingw32/5.3.0/../../../../x86_64-w64-mingw32/lib/../lib/libmsvcrt.a(dkpfs01153.o)
 .data          0x000000000047f050        0x0 C:/Program Files/mingw-w64/x86_64-5.3.0-posix-seh-rt_v4-rev0/mingw64/bin/../lib/gcc/x86_64-w64-mingw32/5.3.0/../../../../x86_64-w64-mingw32/lib/../lib/libmsvcrt.a(dkpfs01152.o)
 .data          0x000000000047f050        0x0 C:/Program Files/mingw-w64/x86_64-5.3.0-posix-seh-rt_v4-rev0/mingw64/bin/../lib/gcc/x86_64-w64-mingw32/5.3.0/../../../../x86_64-w64-mingw32/lib/../lib/libmsvcrt.a(dkpfs01145.o)
 .data          0x000000000047f050        0x0 C:/Program Files/mingw-w64/x86_64-5.3.0-posix-seh-rt_v4-rev0/mingw64/bin/../lib/gcc/x86_64-w64-mingw32/5.3.0/../../../../x86_64-w64-mingw32/lib/../lib/libmsvcrt.a(dkpfs01144.o)
 .data          0x000000000047f050        0x0 C:/Program Files/mingw-w64/x86_64-5.3.0-posix-seh-rt_v4-rev0/mingw64/bin/../lib/gcc/x86_64-w64-mingw32/5.3.0/../../../../x86_64-w64-mingw32/lib/../lib/libmsvcrt.a(dkpfs01139.o)
 .data          0x000000000047f050        0x0 C:/Program Files/mingw-w64/x86_64-5.3.0-posix-seh-rt_v4-rev0/mingw64/bin/../lib/gcc/x86_64-w64-mingw32/5.3.0/../../../../x86_64-w64-mingw32/lib/../lib/libmsvcrt.a(dkpfs01138.o)
 .data          0x000000000047f050        0x0 C:/Program Files/mingw-w64/x86_64-5.3.0-posix-seh-rt_v4-rev0/mingw64/bin/../lib/gcc/x86_64-w64-mingw32/5.3.0/../../../../x86_64-w64-mingw32/lib/../lib/libmsvcrt.a(dkpfs01118.o)
 .data          0x000000000047f050        0x0 C:/Program Files/mingw-w64/x86_64-5.3.0-posix-seh-rt_v4-rev0/mingw64/bin/../lib/gcc/x86_64-w64-mingw32/5.3.0/../../../../x86_64-w64-mingw32/lib/../lib/libmsvcrt.a(dkpfs01110.o)
 .data          0x000000000047f050        0x0 C:/Program Files/mingw-w64/x86_64-5.3.0-posix-seh-rt_v4-rev0/mingw64/bin/../lib/gcc/x86_64-w64-mingw32/5.3.0/../../../../x86_64-w64-mingw32/lib/../lib/libmsvcrt.a(dkpfs01109.o)
 .data          0x000000000047f050        0x0 C:/Program Files/mingw-w64/x86_64-5.3.0-posix-seh-rt_v4-rev0/mingw64/bin/../lib/gcc/x86_64-w64-mingw32/5.3.0/../../../../x86_64-w64-mingw32/lib/../lib/libmsvcrt.a(dkpfs01102.o)
 .data          0x000000000047f050        0x0 C:/Program Files/mingw-w64/x86_64-5.3.0-posix-seh-rt_v4-rev0/mingw64/bin/../lib/gcc/x86_64-w64-mingw32/5.3.0/../../../../x86_64-w64-mingw32/lib/../lib/libmsvcrt.a(dkpfs01100.o)
 .data          0x000000000047f050        0x0 C:/Program Files/mingw-w64/x86_64-5.3.0-posix-seh-rt_v4-rev0/mingw64/bin/../lib/gcc/x86_64-w64-mingw32/5.3.0/../../../../x86_64-w64-mingw32/lib/../lib/libmsvcrt.a(dkpfs01097.o)
 .data          0x000000000047f050        0x0 C:/Program Files/mingw-w64/x86_64-5.3.0-posix-seh-rt_v4-rev0/mingw64/bin/../lib/gcc/x86_64-w64-mingw32/5.3.0/../../../../x86_64-w64-mingw32/lib/../lib/libmsvcrt.a(dkpfs01094.o)
 .data          0x000000000047f050        0x0 C:/Program Files/mingw-w64/x86_64-5.3.0-posix-seh-rt_v4-rev0/mingw64/bin/../lib/gcc/x86_64-w64-mingw32/5.3.0/../../../../x86_64-w64-mingw32/lib/../lib/libmsvcrt.a(dkpfs01092.o)
 .data          0x000000000047f050        0x0 C:/Program Files/mingw-w64/x86_64-5.3.0-posix-seh-rt_v4-rev0/mingw64/bin/../lib/gcc/x86_64-w64-mingw32/5.3.0/../../../../x86_64-w64-mingw32/lib/../lib/libmsvcrt.a(dkpfs01086.o)
 .data          0x000000000047f050        0x0 C:/Program Files/mingw-w64/x86_64-5.3.0-posix-seh-rt_v4-rev0/mingw64/bin/../lib/gcc/x86_64-w64-mingw32/5.3.0/../../../../x86_64-w64-mingw32/lib/../lib/libmsvcrt.a(dkpfs01085.o)
 .data          0x000000000047f050        0x0 C:/Program Files/mingw-w64/x86_64-5.3.0-posix-seh-rt_v4-rev0/mingw64/bin/../lib/gcc/x86_64-w64-mingw32/5.3.0/../../../../x86_64-w64-mingw32/lib/../lib/libmsvcrt.a(dkpfs01082.o)
 .data          0x000000000047f050        0x0 C:/Program Files/mingw-w64/x86_64-5.3.0-posix-seh-rt_v4-rev0/mingw64/bin/../lib/gcc/x86_64-w64-mingw32/5.3.0/../../../../x86_64-w64-mingw32/lib/../lib/libmsvcrt.a(dkpfs01079.o)
 .data          0x000000000047f050        0x0 C:/Program Files/mingw-w64/x86_64-5.3.0-posix-seh-rt_v4-rev0/mingw64/bin/../lib/gcc/x86_64-w64-mingw32/5.3.0/../../../../x86_64-w64-mingw32/lib/../lib/libmsvcrt.a(dkpfs01077.o)
 .data          0x000000000047f050        0x0 C:/Program Files/mingw-w64/x86_64-5.3.0-posix-seh-rt_v4-rev0/mingw64/bin/../lib/gcc/x86_64-w64-mingw32/5.3.0/../../../../x86_64-w64-mingw32/lib/../lib/libmsvcrt.a(dkpfs01067.o)
 .data          0x000000000047f050        0x0 C:/Program Files/mingw-w64/x86_64-5.3.0-posix-seh-rt_v4-rev0/mingw64/bin/../lib/gcc/x86_64-w64-mingw32/5.3.0/../../../../x86_64-w64-mingw32/lib/../lib/libmsvcrt.a(dkpfs01064.o)
 .data          0x000000000047f050        0x0 C:/Program Files/mingw-w64/x86_64-5.3.0-posix-seh-rt_v4-rev0/mingw64/bin/../lib/gcc/x86_64-w64-mingw32/5.3.0/../../../../x86_64-w64-mingw32/lib/../lib/libmsvcrt.a(dkpfs01060.o)
 .data          0x000000000047f050        0x0 C:/Program Files/mingw-w64/x86_64-5.3.0-posix-seh-rt_v4-rev0/mingw64/bin/../lib/gcc/x86_64-w64-mingw32/5.3.0/../../../../x86_64-w64-mingw32/lib/../lib/libmsvcrt.a(dkpfs01052.o)
 .data          0x000000000047f050        0x0 C:/Program Files/mingw-w64/x86_64-5.3.0-posix-seh-rt_v4-rev0/mingw64/bin/../lib/gcc/x86_64-w64-mingw32/5.3.0/../../../../x86_64-w64-mingw32/lib/../lib/libmsvcrt.a(dkpfs01047.o)
 .data          0x000000000047f050        0x0 C:/Program Files/mingw-w64/x86_64-5.3.0-posix-seh-rt_v4-rev0/mingw64/bin/../lib/gcc/x86_64-w64-mingw32/5.3.0/../../../../x86_64-w64-mingw32/lib/../lib/libmsvcrt.a(dkpfs01043.o)
 .data          0x000000000047f050        0x0 C:/Program Files/mingw-w64/x86_64-5.3.0-posix-seh-rt_v4-rev0/mingw64/bin/../lib/gcc/x86_64-w64-mingw32/5.3.0/../../../../x86_64-w64-mingw32/lib/../lib/libmsvcrt.a(dkpfs01030.o)
 .data          0x000000000047f050        0x0 C:/Program Files/mingw-w64/x86_64-5.3.0-posix-seh-rt_v4-rev0/mingw64/bin/../lib/gcc/x86_64-w64-mingw32/5.3.0/../../../../x86_64-w64-mingw32/lib/../lib/libmsvcrt.a(dkpfs00819.o)
 .data          0x000000000047f050        0x0 C:/Program Files/mingw-w64/x86_64-5.3.0-posix-seh-rt_v4-rev0/mingw64/bin/../lib/gcc/x86_64-w64-mingw32/5.3.0/../../../../x86_64-w64-mingw32/lib/../lib/libmsvcrt.a(dkpfs00807.o)
 .data          0x000000000047f050        0x0 C:/Program Files/mingw-w64/x86_64-5.3.0-posix-seh-rt_v4-rev0/mingw64/bin/../lib/gcc/x86_64-w64-mingw32/5.3.0/../../../../x86_64-w64-mingw32/lib/../lib/libmsvcrt.a(dkpfs00768.o)
 .data          0x000000000047f050        0x0 C:/Program Files/mingw-w64/x86_64-5.3.0-posix-seh-rt_v4-rev0/mingw64/bin/../lib/gcc/x86_64-w64-mingw32/5.3.0/../../../../x86_64-w64-mingw32/lib/../lib/libmsvcrt.a(dkpfs00731.o)
 .data          0x000000000047f050        0x0 C:/Program Files/mingw-w64/x86_64-5.3.0-posix-seh-rt_v4-rev0/mingw64/bin/../lib/gcc/x86_64-w64-mingw32/5.3.0/../../../../x86_64-w64-mingw32/lib/../lib/libmsvcrt.a(dkpfs00719.o)
 .data          0x000000000047f050        0x0 C:/Program Files/mingw-w64/x86_64-5.3.0-posix-seh-rt_v4-rev0/mingw64/bin/../lib/gcc/x86_64-w64-mingw32/5.3.0/../../../../x86_64-w64-mingw32/lib/../lib/libmsvcrt.a(dkpfs00667.o)
 .data          0x000000000047f050        0x0 C:/Program Files/mingw-w64/x86_64-5.3.0-posix-seh-rt_v4-rev0/mingw64/bin/../lib/gcc/x86_64-w64-mingw32/5.3.0/../../../../x86_64-w64-mingw32/lib/../lib/libmsvcrt.a(dkpfs00611.o)
 .data          0x000000000047f050        0x0 C:/Program Files/mingw-w64/x86_64-5.3.0-posix-seh-rt_v4-rev0/mingw64/bin/../lib/gcc/x86_64-w64-mingw32/5.3.0/../../../../x86_64-w64-mingw32/lib/../lib/libmsvcrt.a(dkpfs00599.o)
 .data          0x000000000047f050        0x0 C:/Program Files/mingw-w64/x86_64-5.3.0-posix-seh-rt_v4-rev0/mingw64/bin/../lib/gcc/x86_64-w64-mingw32/5.3.0/../../../../x86_64-w64-mingw32/lib/../lib/libmsvcrt.a(dkpfs00439.o)
 .data          0x000000000047f050        0x0 C:/Program Files/mingw-w64/x86_64-5.3.0-posix-seh-rt_v4-rev0/mingw64/bin/../lib/gcc/x86_64-w64-mingw32/5.3.0/../../../../x86_64-w64-mingw32/lib/../lib/libmsvcrt.a(dkpfs00330.o)
 .data          0x000000000047f050        0x0 C:/Program Files/mingw-w64/x86_64-5.3.0-posix-seh-rt_v4-rev0/mingw64/bin/../lib/gcc/x86_64-w64-mingw32/5.3.0/../../../../x86_64-w64-mingw32/lib/../lib/libmsvcrt.a(dkpfs00251.o)
 .data          0x000000000047f050        0x0 C:/Program Files/mingw-w64/x86_64-5.3.0-posix-seh-rt_v4-rev0/mingw64/bin/../lib/gcc/x86_64-w64-mingw32/5.3.0/../../../../x86_64-w64-mingw32/lib/../lib/libmsvcrt.a(dkpfs00242.o)
 .data          0x000000000047f050        0x0 C:/Program Files/mingw-w64/x86_64-5.3.0-posix-seh-rt_v4-rev0/mingw64/bin/../lib/gcc/x86_64-w64-mingw32/5.3.0/../../../../x86_64-w64-mingw32/lib/../lib/libmsvcrt.a(dkpfs00238.o)
 .data          0x000000000047f050        0x0 C:/Program Files/mingw-w64/x86_64-5.3.0-posix-seh-rt_v4-rev0/mingw64/bin/../lib/gcc/x86_64-w64-mingw32/5.3.0/../../../../x86_64-w64-mingw32/lib/../lib/libmsvcrt.a(dkpfs00235.o)
 .data          0x000000000047f050        0x0 C:/Program Files/mingw-w64/x86_64-5.3.0-posix-seh-rt_v4-rev0/mingw64/bin/../lib/gcc/x86_64-w64-mingw32/5.3.0/../../../../x86_64-w64-mingw32/lib/../lib/libmsvcrt.a(dkpfs00234.o)
 .data          0x000000000047f050        0x0 C:/Program Files/mingw-w64/x86_64-5.3.0-posix-seh-rt_v4-rev0/mingw64/bin/../lib/gcc/x86_64-w64-mingw32/5.3.0/../../../../x86_64-w64-mingw32/lib/../lib/libmsvcrt.a(dkpfs00201.o)
 .data          0x000000000047f050        0x0 C:/Program Files/mingw-w64/x86_64-5.3.0-posix-seh-rt_v4-rev0/mingw64/bin/../lib/gcc/x86_64-w64-mingw32/5.3.0/../../../../x86_64-w64-mingw32/lib/../lib/libmsvcrt.a(dkpfs00149.o)
 .data          0x000000000047f050        0x0 C:/Program Files/mingw-w64/x86_64-5.3.0-posix-seh-rt_v4-rev0/mingw64/bin/../lib/gcc/x86_64-w64-mingw32/5.3.0/../../../../x86_64-w64-mingw32/lib/../lib/libmsvcrt.a(dkpfs00140.o)
 .data          0x000000000047f050        0x0 C:/Program Files/mingw-w64/x86_64-5.3.0-posix-seh-rt_v4-rev0/mingw64/bin/../lib/gcc/x86_64-w64-mingw32/5.3.0/../../../../x86_64-w64-mingw32/lib/../lib/libmsvcrt.a(dkpfs00122.o)
 .data          0x000000000047f050        0x0 C:/Program Files/mingw-w64/x86_64-5.3.0-posix-seh-rt_v4-rev0/mingw64/bin/../lib/gcc/x86_64-w64-mingw32/5.3.0/../../../../x86_64-w64-mingw32/lib/../lib/libmsvcrt.a(dkpfs00115.o)
 .data          0x000000000047f050        0x0 C:/Program Files/mingw-w64/x86_64-5.3.0-posix-seh-rt_v4-rev0/mingw64/bin/../lib/gcc/x86_64-w64-mingw32/5.3.0/../../../../x86_64-w64-mingw32/lib/../lib/libmsvcrt.a(dkpfs00098.o)
 .data          0x000000000047f050        0x0 C:/Program Files/mingw-w64/x86_64-5.3.0-posix-seh-rt_v4-rev0/mingw64/bin/../lib/gcc/x86_64-w64-mingw32/5.3.0/../../../../x86_64-w64-mingw32/lib/../lib/libmsvcrt.a(dkpfs00096.o)
 .data          0x000000000047f050        0x0 C:/Program Files/mingw-w64/x86_64-5.3.0-posix-seh-rt_v4-rev0/mingw64/bin/../lib/gcc/x86_64-w64-mingw32/5.3.0/../../../../x86_64-w64-mingw32/lib/../lib/libmsvcrt.a(dkpfs00090.o)
 .data          0x000000000047f050        0x0 C:/Program Files/mingw-w64/x86_64-5.3.0-posix-seh-rt_v4-rev0/mingw64/bin/../lib/gcc/x86_64-w64-mingw32/5.3.0/../../../../x86_64-w64-mingw32/lib/../lib/libmsvcrt.a(dkpfs00083.o)
 .data          0x000000000047f050        0x0 C:/Program Files/mingw-w64/x86_64-5.3.0-posix-seh-rt_v4-rev0/mingw64/bin/../lib/gcc/x86_64-w64-mingw32/5.3.0/../../../../x86_64-w64-mingw32/lib/../lib/libmsvcrt.a(dkpfs00082.o)
 .data          0x000000000047f050        0x0 C:/Program Files/mingw-w64/x86_64-5.3.0-posix-seh-rt_v4-rev0/mingw64/bin/../lib/gcc/x86_64-w64-mingw32/5.3.0/../../../../x86_64-w64-mingw32/lib/../lib/libmsvcrt.a(dkpfs00081.o)
 .data          0x000000000047f050        0x0 C:/Program Files/mingw-w64/x86_64-5.3.0-posix-seh-rt_v4-rev0/mingw64/bin/../lib/gcc/x86_64-w64-mingw32/5.3.0/../../../../x86_64-w64-mingw32/lib/../lib/libmsvcrt.a(dkpfs00078.o)
 .data          0x000000000047f050        0x0 C:/Program Files/mingw-w64/x86_64-5.3.0-posix-seh-rt_v4-rev0/mingw64/bin/../lib/gcc/x86_64-w64-mingw32/5.3.0/../../../../x86_64-w64-mingw32/lib/../lib/libmsvcrt.a(dkpfs00055.o)
 .data          0x000000000047f050       0x10 C:/Program Files/mingw-w64/x86_64-5.3.0-posix-seh-rt_v4-rev0/mingw64/bin/../lib/gcc/x86_64-w64-mingw32/5.3.0/../../../../x86_64-w64-mingw32/lib/../lib/libmsvcrt.a(lib64_libmsvcrt_a-invalid_parameter_handler.o)
                0x000000000047f050                __imp__get_invalid_parameter_handler
                0x000000000047f058                __imp__set_invalid_parameter_handler
 .data          0x000000000047f060        0x0 C:/Program Files/mingw-w64/x86_64-5.3.0-posix-seh-rt_v4-rev0/mingw64/bin/../lib/gcc/x86_64-w64-mingw32/5.3.0/../../../../x86_64-w64-mingw32/lib/../lib/libmsvcrt.a(dkpfh.o)
 .data          0x000000000047f060        0x0 C:/Program Files/mingw-w64/x86_64-5.3.0-posix-seh-rt_v4-rev0/mingw64/bin/../lib/gcc/x86_64-w64-mingw32/5.3.0/../../../../x86_64-w64-mingw32/lib/../lib/libmsvcrt.a(dkpft.o)
 .data          0x000000000047f060        0x0 C:/Program Files/mingw-w64/x86_64-5.3.0-posix-seh-rt_v4-rev0/mingw64/bin/../lib/gcc/x86_64-w64-mingw32/5.3.0/../../../../x86_64-w64-mingw32/lib/../lib/libkernel32.a(dqmfs01266.o)
 .data          0x000000000047f060        0x0 C:/Program Files/mingw-w64/x86_64-5.3.0-posix-seh-rt_v4-rev0/mingw64/bin/../lib/gcc/x86_64-w64-mingw32/5.3.0/../../../../x86_64-w64-mingw32/lib/../lib/libkernel32.a(dqmfs01264.o)
 .data          0x000000000047f060        0x0 C:/Program Files/mingw-w64/x86_64-5.3.0-posix-seh-rt_v4-rev0/mingw64/bin/../lib/gcc/x86_64-w64-mingw32/5.3.0/../../../../x86_64-w64-mingw32/lib/../lib/libkernel32.a(dqmfs01261.o)
 .data          0x000000000047f060        0x0 C:/Program Files/mingw-w64/x86_64-5.3.0-posix-seh-rt_v4-rev0/mingw64/bin/../lib/gcc/x86_64-w64-mingw32/5.3.0/../../../../x86_64-w64-mingw32/lib/../lib/libkernel32.a(dqmfs01258.o)
 .data          0x000000000047f060        0x0 C:/Program Files/mingw-w64/x86_64-5.3.0-posix-seh-rt_v4-rev0/mingw64/bin/../lib/gcc/x86_64-w64-mingw32/5.3.0/../../../../x86_64-w64-mingw32/lib/../lib/libkernel32.a(dqmfs01234.o)
 .data          0x000000000047f060        0x0 C:/Program Files/mingw-w64/x86_64-5.3.0-posix-seh-rt_v4-rev0/mingw64/bin/../lib/gcc/x86_64-w64-mingw32/5.3.0/../../../../x86_64-w64-mingw32/lib/../lib/libkernel32.a(dqmfs01221.o)
 .data          0x000000000047f060        0x0 C:/Program Files/mingw-w64/x86_64-5.3.0-posix-seh-rt_v4-rev0/mingw64/bin/../lib/gcc/x86_64-w64-mingw32/5.3.0/../../../../x86_64-w64-mingw32/lib/../lib/libkernel32.a(dqmfs01214.o)
 .data          0x000000000047f060        0x0 C:/Program Files/mingw-w64/x86_64-5.3.0-posix-seh-rt_v4-rev0/mingw64/bin/../lib/gcc/x86_64-w64-mingw32/5.3.0/../../../../x86_64-w64-mingw32/lib/../lib/libkernel32.a(dqmfs01200.o)
 .data          0x000000000047f060        0x0 C:/Program Files/mingw-w64/x86_64-5.3.0-posix-seh-rt_v4-rev0/mingw64/bin/../lib/gcc/x86_64-w64-mingw32/5.3.0/../../../../x86_64-w64-mingw32/lib/../lib/libkernel32.a(dqmfs01187.o)
 .data          0x000000000047f060        0x0 C:/Program Files/mingw-w64/x86_64-5.3.0-posix-seh-rt_v4-rev0/mingw64/bin/../lib/gcc/x86_64-w64-mingw32/5.3.0/../../../../x86_64-w64-mingw32/lib/../lib/libkernel32.a(dqmfs01044.o)
 .data          0x000000000047f060        0x0 C:/Program Files/mingw-w64/x86_64-5.3.0-posix-seh-rt_v4-rev0/mingw64/bin/../lib/gcc/x86_64-w64-mingw32/5.3.0/../../../../x86_64-w64-mingw32/lib/../lib/libkernel32.a(dqmfs01037.o)
 .data          0x000000000047f060        0x0 C:/Program Files/mingw-w64/x86_64-5.3.0-posix-seh-rt_v4-rev0/mingw64/bin/../lib/gcc/x86_64-w64-mingw32/5.3.0/../../../../x86_64-w64-mingw32/lib/../lib/libkernel32.a(dqmfs01030.o)
 .data          0x000000000047f060        0x0 C:/Program Files/mingw-w64/x86_64-5.3.0-posix-seh-rt_v4-rev0/mingw64/bin/../lib/gcc/x86_64-w64-mingw32/5.3.0/../../../../x86_64-w64-mingw32/lib/../lib/libkernel32.a(dqmfs01029.o)
 .data          0x000000000047f060        0x0 C:/Program Files/mingw-w64/x86_64-5.3.0-posix-seh-rt_v4-rev0/mingw64/bin/../lib/gcc/x86_64-w64-mingw32/5.3.0/../../../../x86_64-w64-mingw32/lib/../lib/libkernel32.a(dqmfs00958.o)
 .data          0x000000000047f060        0x0 C:/Program Files/mingw-w64/x86_64-5.3.0-posix-seh-rt_v4-rev0/mingw64/bin/../lib/gcc/x86_64-w64-mingw32/5.3.0/../../../../x86_64-w64-mingw32/lib/../lib/libkernel32.a(dqmfs00844.o)
 .data          0x000000000047f060        0x0 C:/Program Files/mingw-w64/x86_64-5.3.0-posix-seh-rt_v4-rev0/mingw64/bin/../lib/gcc/x86_64-w64-mingw32/5.3.0/../../../../x86_64-w64-mingw32/lib/../lib/libkernel32.a(dqmfs00762.o)
 .data          0x000000000047f060        0x0 C:/Program Files/mingw-w64/x86_64-5.3.0-posix-seh-rt_v4-rev0/mingw64/bin/../lib/gcc/x86_64-w64-mingw32/5.3.0/../../../../x86_64-w64-mingw32/lib/../lib/libkernel32.a(dqmfs00678.o)
 .data          0x000000000047f060        0x0 C:/Program Files/mingw-w64/x86_64-5.3.0-posix-seh-rt_v4-rev0/mingw64/bin/../lib/gcc/x86_64-w64-mingw32/5.3.0/../../../../x86_64-w64-mingw32/lib/../lib/libkernel32.a(dqmfs00651.o)
 .data          0x000000000047f060        0x0 C:/Program Files/mingw-w64/x86_64-5.3.0-posix-seh-rt_v4-rev0/mingw64/bin/../lib/gcc/x86_64-w64-mingw32/5.3.0/../../../../x86_64-w64-mingw32/lib/../lib/libkernel32.a(dqmfs00628.o)
 .data          0x000000000047f060        0x0 C:/Program Files/mingw-w64/x86_64-5.3.0-posix-seh-rt_v4-rev0/mingw64/bin/../lib/gcc/x86_64-w64-mingw32/5.3.0/../../../../x86_64-w64-mingw32/lib/../lib/libkernel32.a(dqmfs00599.o)
 .data          0x000000000047f060        0x0 C:/Program Files/mingw-w64/x86_64-5.3.0-posix-seh-rt_v4-rev0/mingw64/bin/../lib/gcc/x86_64-w64-mingw32/5.3.0/../../../../x86_64-w64-mingw32/lib/../lib/libkernel32.a(dqmfs00549.o)
 .data          0x000000000047f060        0x0 C:/Program Files/mingw-w64/x86_64-5.3.0-posix-seh-rt_v4-rev0/mingw64/bin/../lib/gcc/x86_64-w64-mingw32/5.3.0/../../../../x86_64-w64-mingw32/lib/../lib/libkernel32.a(dqmfs00529.o)
 .data          0x000000000047f060        0x0 C:/Program Files/mingw-w64/x86_64-5.3.0-posix-seh-rt_v4-rev0/mingw64/bin/../lib/gcc/x86_64-w64-mingw32/5.3.0/../../../../x86_64-w64-mingw32/lib/../lib/libkernel32.a(dqmfs00467.o)
 .data          0x000000000047f060        0x0 C:/Program Files/mingw-w64/x86_64-5.3.0-posix-seh-rt_v4-rev0/mingw64/bin/../lib/gcc/x86_64-w64-mingw32/5.3.0/../../../../x86_64-w64-mingw32/lib/../lib/libkernel32.a(dqmfs00463.o)
 .data          0x000000000047f060        0x0 C:/Program Files/mingw-w64/x86_64-5.3.0-posix-seh-rt_v4-rev0/mingw64/bin/../lib/gcc/x86_64-w64-mingw32/5.3.0/../../../../x86_64-w64-mingw32/lib/../lib/libkernel32.a(dqmfs00462.o)
 .data          0x000000000047f060        0x0 C:/Program Files/mingw-w64/x86_64-5.3.0-posix-seh-rt_v4-rev0/mingw64/bin/../lib/gcc/x86_64-w64-mingw32/5.3.0/../../../../x86_64-w64-mingw32/lib/../lib/libkernel32.a(dqmfs00249.o)
 .data          0x000000000047f060        0x0 C:/Program Files/mingw-w64/x86_64-5.3.0-posix-seh-rt_v4-rev0/mingw64/bin/../lib/gcc/x86_64-w64-mingw32/5.3.0/../../../../x86_64-w64-mingw32/lib/../lib/libkernel32.a(dqmfs00216.o)
 .data          0x000000000047f060        0x0 C:/Program Files/mingw-w64/x86_64-5.3.0-posix-seh-rt_v4-rev0/mingw64/bin/../lib/gcc/x86_64-w64-mingw32/5.3.0/../../../../x86_64-w64-mingw32/lib/../lib/libkernel32.a(dqmfh.o)
 .data          0x000000000047f060        0x0 C:/Program Files/mingw-w64/x86_64-5.3.0-posix-seh-rt_v4-rev0/mingw64/bin/../lib/gcc/x86_64-w64-mingw32/5.3.0/../../../../x86_64-w64-mingw32/lib/../lib/libkernel32.a(dqmft.o)
 .data          0x000000000047f060        0x0 C:/Program Files/mingw-w64/x86_64-5.3.0-posix-seh-rt_v4-rev0/mingw64/bin/../lib/gcc/x86_64-w64-mingw32/5.3.0/crtend.o
 *(.data2)
 *(SORT(.data$*))
 .data$__security_cookie
                0x000000000047f060       0x10 C:/Program Files/mingw-w64/x86_64-5.3.0-posix-seh-rt_v4-rev0/mingw64/bin/../lib/gcc/x86_64-w64-mingw32/5.3.0/../../../../x86_64-w64-mingw32/lib/../lib/libmingw32.a(lib64_libmingw32_a-gs_support.o)
                0x000000000047f060                __security_cookie
 .data$__security_cookie_complement
                0x000000000047f070       0x10 C:/Program Files/mingw-w64/x86_64-5.3.0-posix-seh-rt_v4-rev0/mingw64/bin/../lib/gcc/x86_64-w64-mingw32/5.3.0/../../../../x86_64-w64-mingw32/lib/../lib/libmingw32.a(lib64_libmingw32_a-gs_support.o)
                0x000000000047f070                __security_cookie_complement
 *(.jcr)
 .jcr           0x000000000047f080        0x0 C:/Program Files/mingw-w64/x86_64-5.3.0-posix-seh-rt_v4-rev0/mingw64/bin/../lib/gcc/x86_64-w64-mingw32/5.3.0/crtbegin.o
 .jcr           0x000000000047f080        0x8 C:/Program Files/mingw-w64/x86_64-5.3.0-posix-seh-rt_v4-rev0/mingw64/bin/../lib/gcc/x86_64-w64-mingw32/5.3.0/crtend.o
                0x000000000047f088                __data_end__ = .
 *(.data_cygwin_nocopy)

.rdata          0x0000000000480000    0x24200
 *(.rdata)
 .rdata         0x0000000000480000       0x30 C:/Program Files/mingw-w64/x86_64-5.3.0-posix-seh-rt_v4-rev0/mingw64/bin/../lib/gcc/x86_64-w64-mingw32/5.3.0/crtbegin.o
 .rdata         0x0000000000480030       0x60 MinGW-w64D/main.o
 *fill*         0x0000000000480090       0x10 
 .rdata         0x00000000004800a0      0x7e0 MinGW-w64D/assemble.o
 .rdata         0x0000000000480880      0x100 MinGW-w64D/assume.o
                0x00000000004808a8                szDgroup
 .rdata         0x0000000000480980       0x90 MinGW-w64D/atofloat.o
 .rdata         0x0000000000480a10      0x2c0 MinGW-w64D/backptch.o
 *fill*         0x0000000000480cd0       0x10 
 .rdata         0x0000000000480ce0     0x16c0 MinGW-w64D/bin.o
 .rdata         0x00000000004823a0      0x510 MinGW-w64D/branch.o
 *fill*         0x00000000004828b0       0x10 
 .rdata         0x00000000004828c0      0xc20 MinGW-w64D/cmdline.o
 .rdata         0x00000000004834e0      0x610 MinGW-w64D/codegen.o
                0x00000000004834e0                szNull
 .rdata         0x0000000000483af0      0x7d0 MinGW-w64D/coff.o
 .rdata         0x00000000004842c0      0x300 MinGW-w64D/condasm.o
 .rdata         0x00000000004845c0      0x1c0 MinGW-w64D/context.o
 .rdata         0x0000000000484780      0x1e0 MinGW-w64D/cpumodel.o
                0x00000000004847c0                ModelToken
                0x0000000000484850                coff64_fmtopt
                0x0000000000484860                elf64_fmtopt
 .rdata         0x0000000000484960      0xb80 MinGW-w64D/data.o
 .rdata         0x00000000004854e0      0x520 MinGW-w64D/dbgcv.o
 .rdata         0x0000000000485a00      0x320 MinGW-w64D/directiv.o
                0x0000000000485a00                directive_tab
 .rdata         0x0000000000485d20      0x840 MinGW-w64D/elf.o
 .rdata         0x0000000000486560      0x3e0 MinGW-w64D/end.o
 .rdata         0x0000000000486940      0x410 MinGW-w64D/equate.o
                0x0000000000486940                maxintvalues
                0x0000000000486960                minintvalues
 *fill*         0x0000000000486d50       0x10 
 .rdata         0x0000000000486d60      0xde0 MinGW-w64D/errmsg.o
 .rdata         0x0000000000487b40      0x9d0 MinGW-w64D/expans.o
 *fill*         0x0000000000488510       0x10 
 .rdata         0x0000000000488520     0x1ce0 MinGW-w64D/expreval.o
 .rdata         0x000000000048a200      0x370 MinGW-w64D/extern.o
 .rdata         0x000000000048a570       0xe0 MinGW-w64D/fastpass.o
 .rdata         0x000000000048a650       0xf0 MinGW-w64D/fixup.o
 .rdata         0x000000000048a740       0x50 MinGW-w64D/fpfixup.o
 .rdata         0x000000000048a790      0x890 MinGW-w64D/hll.o
 .rdata         0x000000000048b020      0x3d0 MinGW-w64D/input.o
 *fill*         0x000000000048b3f0       0x10 
 .rdata         0x000000000048b400      0xde0 MinGW-w64D/invoke.o
 .rdata         0x000000000048c1e0      0x220 MinGW-w64D/label.o
 .rdata         0x000000000048c400      0x210 MinGW-w64D/linnum.o
 *fill*         0x000000000048c610       0x10 
 .rdata         0x000000000048c620      0xc80 MinGW-w64D/listing.o
 .rdata         0x000000000048d2a0      0x200 MinGW-w64D/loop.o
 .rdata         0x000000000048d4a0       0xf0 MinGW-w64D/lqueue.o
 .rdata         0x000000000048d590      0x2d0 MinGW-w64D/macro.o
 .rdata         0x000000000048d860       0x50 MinGW-w64D/mangle.o
 .rdata         0x000000000048d8b0       0xb0 MinGW-w64D/memalloc.o
 .rdata         0x000000000048d960     0x2f20 MinGW-w64D/msgtext.o
                0x0000000000490820                szCVCompiler
 .rdata         0x0000000000490880      0x5a0 MinGW-w64D/omf.o
 .rdata         0x0000000000490e20      0x280 MinGW-w64D/omffixup.o
 .rdata         0x00000000004910a0      0x140 MinGW-w64D/omfint.o
 .rdata         0x00000000004911e0      0x4a0 MinGW-w64D/option.o
 .rdata         0x0000000000491680     0x1380 MinGW-w64D/parser.o
 .rdata         0x0000000000492a00       0xb0 MinGW-w64D/posndir.o
 .rdata         0x0000000000492ab0       0x40 MinGW-w64D/preproc.o
 *fill*         0x0000000000492af0       0x10 
 .rdata         0x0000000000492b00      0xe00 MinGW-w64D/proc.o
                0x0000000000492bb0                stackreg
 .rdata         0x0000000000493900       0x10 MinGW-w64D/queue.o
 *fill*         0x0000000000493910       0x10 
 .rdata         0x0000000000493920     0xc0a0 MinGW-w64D/reswords.o
                0x0000000000493920                InstrTable
                0x0000000000499b20                SpecialTable
                0x000000000049b040                opnd_clstab
                0x000000000049f2a0                vex_flags
 .rdata         0x000000000049f9c0       0x10 MinGW-w64D/safeseh.o
 *fill*         0x000000000049f9d0       0x10 
 .rdata         0x000000000049f9e0      0x740 MinGW-w64D/segment.o
 .rdata         0x00000000004a0120      0x260 MinGW-w64D/simsegm.o
 .rdata         0x00000000004a0380      0x4f0 MinGW-w64D/string.o
 *fill*         0x00000000004a0870       0x10 
 .rdata         0x00000000004a0880      0x6a0 MinGW-w64D/symbols.o
 .rdata         0x00000000004a0f20      0x1c0 MinGW-w64D/tbyte.o
 .rdata         0x00000000004a10e0      0x3b0 MinGW-w64D/tokenize.o
 .rdata         0x00000000004a1490      0x900 MinGW-w64D/types.o
 .rdata         0x00000000004a1d90       0x10 C:/Program Files/mingw-w64/x86_64-5.3.0-posix-seh-rt_v4-rev0/mingw64/bin/../lib/gcc/x86_64-w64-mingw32/5.3.0/../../../../x86_64-w64-mingw32/lib/../lib/libmingw32.a(lib64_libmingw32_a-gs_support.o)
 .rdata         0x00000000004a1da0       0x10 C:/Program Files/mingw-w64/x86_64-5.3.0-posix-seh-rt_v4-rev0/mingw64/bin/../lib/gcc/x86_64-w64-mingw32/5.3.0/../../../../x86_64-w64-mingw32/lib/../lib/libmingw32.a(lib64_libmingw32_a-tlssup.o)
                0x00000000004a1da0                __dyn_tls_init_callback
 .rdata         0x00000000004a1db0      0x140 C:/Program Files/mingw-w64/x86_64-5.3.0-posix-seh-rt_v4-rev0/mingw64/bin/../lib/gcc/x86_64-w64-mingw32/5.3.0/../../../../x86_64-w64-mingw32/lib/../lib/libmingw32.a(lib64_libmingw32_a-merr.o)
 .rdata         0x00000000004a1ef0      0x110 C:/Program Files/mingw-w64/x86_64-5.3.0-posix-seh-rt_v4-rev0/mingw64/bin/../lib/gcc/x86_64-w64-mingw32/5.3.0/../../../../x86_64-w64-mingw32/lib/../lib/libmingw32.a(lib64_libmingw32_a-pseudo-reloc.o)
 .rdata         0x00000000004a2000       0x10 C:/Program Files/mingw-w64/x86_64-5.3.0-posix-seh-rt_v4-rev0/mingw64/bin/../lib/gcc/x86_64-w64-mingw32/5.3.0/../../../../x86_64-w64-mingw32/lib/../lib/libmingw32.a(lib64_libmingw32_a-crt_handler.o)
 .rdata         0x00000000004a2010       0x20 C:/Program Files/mingw-w64/x86_64-5.3.0-posix-seh-rt_v4-rev0/mingw64/bin/../lib/gcc/x86_64-w64-mingw32/5.3.0/../../../../x86_64-w64-mingw32/lib/../lib/libmingwex.a(lib64_libmingwex_a-strtodnrp.o)
 *fill*         0x00000000004a2030       0x10 
 .rdata         0x00000000004a2040      0x1c0 C:/Program Files/mingw-w64/x86_64-5.3.0-posix-seh-rt_v4-rev0/mingw64/bin/../lib/gcc/x86_64-w64-mingw32/5.3.0/../../../../x86_64-w64-mingw32/lib/../lib/libmingwex.a(lib64_libmingwex_a-strtodg.o)
 .rdata         0x00000000004a2200       0x20 C:/Program Files/mingw-w64/x86_64-5.3.0-posix-seh-rt_v4-rev0/mingw64/bin/../lib/gcc/x86_64-w64-mingw32/5.3.0/../../../../x86_64-w64-mingw32/lib/../lib/libmingwex.a(lib64_libmingwex_a-hd_init.o)
 *fill*         0x00000000004a2220       0x20 
 .rdata         0x00000000004a2240      0x180 C:/Program Files/mingw-w64/x86_64-5.3.0-posix-seh-rt_v4-rev0/mingw64/bin/../lib/gcc/x86_64-w64-mingw32/5.3.0/../../../../x86_64-w64-mingw32/lib/../lib/libmingwex.a(lib64_libmingwex_a-misc.o)
                0x00000000004a2280                __tens_D2A
                0x00000000004a2340                __tinytens_D2A
                0x00000000004a2380                __bigtens_D2A
 *(SORT(.rdata$*))
 .rdata$.refptr.CurrIfState
                0x00000000004a23c0       0x10 MinGW-w64D/preproc.o
                0x00000000004a23c0                .refptr.CurrIfState
 .rdata$.refptr.CurrProc
                0x00000000004a23d0       0x10 MinGW-w64D/expreval.o
                0x00000000004a23d0                .refptr.CurrProc
 .rdata$.refptr.CurrStruct
                0x00000000004a23e0       0x10 MinGW-w64D/data.o
                0x00000000004a23e0                .refptr.CurrStruct
 .rdata$.refptr.DefaultDir
                0x00000000004a23f0       0x10 MinGW-w64D/assemble.o
                0x00000000004a23f0                .refptr.DefaultDir
 .rdata$.refptr.EmitErr
                0x00000000004a2400       0x10 MinGW-w64D/expreval.o
                0x00000000004a2400                .refptr.EmitErr
 .rdata$.refptr.Frame_Datum
                0x00000000004a2410       0x10 MinGW-w64D/parser.o
                0x00000000004a2410                .refptr.Frame_Datum
 .rdata$.refptr.Frame_Type
                0x00000000004a2420       0x10 MinGW-w64D/parser.o
                0x00000000004a2420                .refptr.Frame_Type
 .rdata$.refptr.InstrTable
                0x00000000004a2430       0x10 MinGW-w64D/branch.o
                0x00000000004a2430                .refptr.InstrTable
 .rdata$.refptr.LastCodeBufSize
                0x00000000004a2440       0x10 MinGW-w64D/assemble.o
                0x00000000004a2440                .refptr.LastCodeBufSize
 .rdata$.refptr.LineCur
                0x00000000004a2450       0x10 MinGW-w64D/symbols.o
                0x00000000004a2450                .refptr.LineCur
 .rdata$.refptr.LineStoreCurr
                0x00000000004a2460       0x10 MinGW-w64D/assemble.o
                0x00000000004a2460                .refptr.LineStoreCurr
 .rdata$.refptr.LinnumQueue
                0x00000000004a2470       0x10 MinGW-w64D/linnum.o
                0x00000000004a2470                .refptr.LinnumQueue
 .rdata$.refptr.MacroLevel
                0x00000000004a2480       0x10 MinGW-w64D/assemble.o
                0x00000000004a2480                .refptr.MacroLevel
 .rdata$.refptr.MacroLocals
                0x00000000004a2490       0x10 MinGW-w64D/macro.o
                0x00000000004a2490                .refptr.MacroLocals
 .rdata$.refptr.ModelToken
                0x00000000004a24a0       0x10 MinGW-w64D/assemble.o
                0x00000000004a24a0                .refptr.ModelToken
 .rdata$.refptr.ModuleInfo
                0x00000000004a24b0       0x10 MinGW-w64D/assume.o
                0x00000000004a24b0                .refptr.ModuleInfo
 .rdata$.refptr.Options
                0x00000000004a24c0       0x10 MinGW-w64D/main.o
                0x00000000004a24c0                .refptr.Options
 .rdata$.refptr.Parse_Pass
                0x00000000004a24d0       0x10 MinGW-w64D/assume.o
                0x00000000004a24d0                .refptr.Parse_Pass
 .rdata$.refptr.ProcStatus
                0x00000000004a24e0       0x10 MinGW-w64D/parser.o
                0x00000000004a24e0                .refptr.ProcStatus
 .rdata$.refptr.ResWordTable
                0x00000000004a24f0       0x10 MinGW-w64D/codegen.o
                0x00000000004a24f0                .refptr.ResWordTable
 .rdata$.refptr.SegAssumeTable
                0x00000000004a2500       0x10 MinGW-w64D/label.o
                0x00000000004a2500                .refptr.SegAssumeTable
 .rdata$.refptr.SegOverride
                0x00000000004a2510       0x10 MinGW-w64D/branch.o
                0x00000000004a2510                .refptr.SegOverride
 .rdata$.refptr.SpecialTable
                0x00000000004a2520       0x10 MinGW-w64D/assume.o
                0x00000000004a2520                .refptr.SpecialTable
 .rdata$.refptr.StdAssumeTable
                0x00000000004a2530       0x10 MinGW-w64D/parser.o
                0x00000000004a2530                .refptr.StdAssumeTable
 .rdata$.refptr.StoreState
                0x00000000004a2540       0x10 MinGW-w64D/assemble.o
                0x00000000004a2540                .refptr.StoreState
 .rdata$.refptr.SymCmpFunc
                0x00000000004a2550       0x10 MinGW-w64D/macro.o
                0x00000000004a2550                .refptr.SymCmpFunc
 .rdata$.refptr.SymTables
                0x00000000004a2560       0x10 MinGW-w64D/assemble.o
                0x00000000004a2560                .refptr.SymTables
 .rdata$.refptr.UpdateProcStatus
                0x00000000004a2570       0x10 MinGW-w64D/option.o
                0x00000000004a2570                .refptr.UpdateProcStatus
 .rdata$.refptr.UpdateStackBase
                0x00000000004a2580       0x10 MinGW-w64D/option.o
                0x00000000004a2580                .refptr.UpdateStackBase
 .rdata$.refptr.UseSavedState
                0x00000000004a2590       0x10 MinGW-w64D/assemble.o
                0x00000000004a2590                .refptr.UseSavedState
 .rdata$.refptr._CRT_MT
                0x00000000004a25a0       0x10 C:/Program Files/mingw-w64/x86_64-5.3.0-posix-seh-rt_v4-rev0/mingw64/bin/../lib/gcc/x86_64-w64-mingw32/5.3.0/../../../../x86_64-w64-mingw32/lib/../lib/libmingw32.a(lib64_libmingw32_a-tlssup.o)
                0x00000000004a25a0                .refptr._CRT_MT
 .rdata$.refptr._MINGW_INSTALL_DEBUG_MATHERR
                0x00000000004a25b0       0x10 C:/Program Files/mingw-w64/x86_64-5.3.0-posix-seh-rt_v4-rev0/mingw64/bin/../lib/gcc/x86_64-w64-mingw32/5.3.0/../../../../x86_64-w64-mingw32/lib/../lib/crt2.o
                0x00000000004a25b0                .refptr._MINGW_INSTALL_DEBUG_MATHERR
 .rdata$.refptr.__CTOR_LIST__
                0x00000000004a25c0       0x10 C:/Program Files/mingw-w64/x86_64-5.3.0-posix-seh-rt_v4-rev0/mingw64/bin/../lib/gcc/x86_64-w64-mingw32/5.3.0/../../../../x86_64-w64-mingw32/lib/../lib/libmingw32.a(lib64_libmingw32_a-gccmain.o)
                0x00000000004a25c0                .refptr.__CTOR_LIST__
 .rdata$.refptr.__RUNTIME_PSEUDO_RELOC_LIST_END__
                0x00000000004a25d0       0x10 C:/Program Files/mingw-w64/x86_64-5.3.0-posix-seh-rt_v4-rev0/mingw64/bin/../lib/gcc/x86_64-w64-mingw32/5.3.0/../../../../x86_64-w64-mingw32/lib/../lib/libmingw32.a(lib64_libmingw32_a-pseudo-reloc.o)
                0x00000000004a25d0                .refptr.__RUNTIME_PSEUDO_RELOC_LIST_END__
 .rdata$.refptr.__RUNTIME_PSEUDO_RELOC_LIST__
                0x00000000004a25e0       0x10 C:/Program Files/mingw-w64/x86_64-5.3.0-posix-seh-rt_v4-rev0/mingw64/bin/../lib/gcc/x86_64-w64-mingw32/5.3.0/../../../../x86_64-w64-mingw32/lib/../lib/libmingw32.a(lib64_libmingw32_a-pseudo-reloc.o)
                0x00000000004a25e0                .refptr.__RUNTIME_PSEUDO_RELOC_LIST__
 .rdata$.refptr.__bigtens_D2A
                0x00000000004a25f0       0x10 C:/Program Files/mingw-w64/x86_64-5.3.0-posix-seh-rt_v4-rev0/mingw64/bin/../lib/gcc/x86_64-w64-mingw32/5.3.0/../../../../x86_64-w64-mingw32/lib/../lib/libmingwex.a(lib64_libmingwex_a-strtodg.o)
                0x00000000004a25f0                .refptr.__bigtens_D2A
 .rdata$.refptr.__dyn_tls_init_callback
                0x00000000004a2600       0x10 C:/Program Files/mingw-w64/x86_64-5.3.0-posix-seh-rt_v4-rev0/mingw64/bin/../lib/gcc/x86_64-w64-mingw32/5.3.0/../../../../x86_64-w64-mingw32/lib/../lib/crt2.o
                0x00000000004a2600                .refptr.__dyn_tls_init_callback
 .rdata$.refptr.__hexdig_D2A
                0x00000000004a2610       0x10 C:/Program Files/mingw-w64/x86_64-5.3.0-posix-seh-rt_v4-rev0/mingw64/bin/../lib/gcc/x86_64-w64-mingw32/5.3.0/../../../../x86_64-w64-mingw32/lib/../lib/libmingwex.a(lib64_libmingwex_a-gethex.o)
                0x00000000004a2610                .refptr.__hexdig_D2A
 .rdata$.refptr.__image_base__
                0x00000000004a2620       0x10 C:/Program Files/mingw-w64/x86_64-5.3.0-posix-seh-rt_v4-rev0/mingw64/bin/../lib/gcc/x86_64-w64-mingw32/5.3.0/../../../../x86_64-w64-mingw32/lib/../lib/crt2.o
                0x00000000004a2620                .refptr.__image_base__
 .rdata$.refptr.__imp___initenv
                0x00000000004a2630       0x10 C:/Program Files/mingw-w64/x86_64-5.3.0-posix-seh-rt_v4-rev0/mingw64/bin/../lib/gcc/x86_64-w64-mingw32/5.3.0/../../../../x86_64-w64-mingw32/lib/../lib/crt2.o
                0x00000000004a2630                .refptr.__imp___initenv
 .rdata$.refptr.__imp__acmdln
                0x00000000004a2640       0x10 C:/Program Files/mingw-w64/x86_64-5.3.0-posix-seh-rt_v4-rev0/mingw64/bin/../lib/gcc/x86_64-w64-mingw32/5.3.0/../../../../x86_64-w64-mingw32/lib/../lib/crt2.o
                0x00000000004a2640                .refptr.__imp__acmdln
 .rdata$.refptr.__imp__fmode
                0x00000000004a2650       0x10 C:/Program Files/mingw-w64/x86_64-5.3.0-posix-seh-rt_v4-rev0/mingw64/bin/../lib/gcc/x86_64-w64-mingw32/5.3.0/../../../../x86_64-w64-mingw32/lib/../lib/crt2.o
                0x00000000004a2650                .refptr.__imp__fmode
 .rdata$.refptr.__imp__onexit
                0x00000000004a2660       0x10 C:/Program Files/mingw-w64/x86_64-5.3.0-posix-seh-rt_v4-rev0/mingw64/bin/../lib/gcc/x86_64-w64-mingw32/5.3.0/../../../../x86_64-w64-mingw32/lib/../lib/libmingw32.a(lib64_libmingw32_a-atonexit.o)
                0x00000000004a2660                .refptr.__imp__onexit
 .rdata$.refptr.__mingw_oldexcpt_handler
                0x00000000004a2670       0x10 C:/Program Files/mingw-w64/x86_64-5.3.0-posix-seh-rt_v4-rev0/mingw64/bin/../lib/gcc/x86_64-w64-mingw32/5.3.0/../../../../x86_64-w64-mingw32/lib/../lib/crt2.o
                0x00000000004a2670                .refptr.__mingw_oldexcpt_handler
 .rdata$.refptr.__native_startup_lock
                0x00000000004a2680       0x10 C:/Program Files/mingw-w64/x86_64-5.3.0-posix-seh-rt_v4-rev0/mingw64/bin/../lib/gcc/x86_64-w64-mingw32/5.3.0/../../../../x86_64-w64-mingw32/lib/../lib/crt2.o
                0x00000000004a2680                .refptr.__native_startup_lock
 .rdata$.refptr.__native_startup_state
                0x00000000004a2690       0x10 C:/Program Files/mingw-w64/x86_64-5.3.0-posix-seh-rt_v4-rev0/mingw64/bin/../lib/gcc/x86_64-w64-mingw32/5.3.0/../../../../x86_64-w64-mingw32/lib/../lib/crt2.o
                0x00000000004a2690                .refptr.__native_startup_state
 .rdata$.refptr.__onexitbegin
                0x00000000004a26a0       0x10 C:/Program Files/mingw-w64/x86_64-5.3.0-posix-seh-rt_v4-rev0/mingw64/bin/../lib/gcc/x86_64-w64-mingw32/5.3.0/../../../../x86_64-w64-mingw32/lib/../lib/crt2.o
                0x00000000004a26a0                .refptr.__onexitbegin
 .rdata$.refptr.__onexitend
                0x00000000004a26b0       0x10 C:/Program Files/mingw-w64/x86_64-5.3.0-posix-seh-rt_v4-rev0/mingw64/bin/../lib/gcc/x86_64-w64-mingw32/5.3.0/../../../../x86_64-w64-mingw32/lib/../lib/crt2.o
                0x00000000004a26b0                .refptr.__onexitend
 .rdata$.refptr.__tens_D2A
                0x00000000004a26c0       0x10 C:/Program Files/mingw-w64/x86_64-5.3.0-posix-seh-rt_v4-rev0/mingw64/bin/../lib/gcc/x86_64-w64-mingw32/5.3.0/../../../../x86_64-w64-mingw32/lib/../lib/libmingwex.a(lib64_libmingwex_a-strtodg.o)
                0x00000000004a26c0                .refptr.__tens_D2A
 .rdata$.refptr.__tinytens_D2A
                0x00000000004a26d0       0x10 C:/Program Files/mingw-w64/x86_64-5.3.0-posix-seh-rt_v4-rev0/mingw64/bin/../lib/gcc/x86_64-w64-mingw32/5.3.0/../../../../x86_64-w64-mingw32/lib/../lib/libmingwex.a(lib64_libmingwex_a-strtodg.o)
                0x00000000004a26d0                .refptr.__tinytens_D2A
 .rdata$.refptr.__xc_a
                0x00000000004a26e0       0x10 C:/Program Files/mingw-w64/x86_64-5.3.0-posix-seh-rt_v4-rev0/mingw64/bin/../lib/gcc/x86_64-w64-mingw32/5.3.0/../../../../x86_64-w64-mingw32/lib/../lib/crt2.o
                0x00000000004a26e0                .refptr.__xc_a
 .rdata$.refptr.__xc_z
                0x00000000004a26f0       0x10 C:/Program Files/mingw-w64/x86_64-5.3.0-posix-seh-rt_v4-rev0/mingw64/bin/../lib/gcc/x86_64-w64-mingw32/5.3.0/../../../../x86_64-w64-mingw32/lib/../lib/crt2.o
                0x00000000004a26f0                .refptr.__xc_z
 .rdata$.refptr.__xi_a
                0x00000000004a2700       0x10 C:/Program Files/mingw-w64/x86_64-5.3.0-posix-seh-rt_v4-rev0/mingw64/bin/../lib/gcc/x86_64-w64-mingw32/5.3.0/../../../../x86_64-w64-mingw32/lib/../lib/crt2.o
                0x00000000004a2700                .refptr.__xi_a
 .rdata$.refptr.__xi_z
                0x00000000004a2710       0x10 C:/Program Files/mingw-w64/x86_64-5.3.0-posix-seh-rt_v4-rev0/mingw64/bin/../lib/gcc/x86_64-w64-mingw32/5.3.0/../../../../x86_64-w64-mingw32/lib/../lib/crt2.o
                0x00000000004a2710                .refptr.__xi_z
 .rdata$.refptr._dowildcard
                0x00000000004a2720       0x10 C:/Program Files/mingw-w64/x86_64-5.3.0-posix-seh-rt_v4-rev0/mingw64/bin/../lib/gcc/x86_64-w64-mingw32/5.3.0/../../../../x86_64-w64-mingw32/lib/../lib/crt2.o
                0x00000000004a2720                .refptr._dowildcard
 .rdata$.refptr._fmode
                0x00000000004a2730       0x10 C:/Program Files/mingw-w64/x86_64-5.3.0-posix-seh-rt_v4-rev0/mingw64/bin/../lib/gcc/x86_64-w64-mingw32/5.3.0/../../../../x86_64-w64-mingw32/lib/../lib/crt2.o
                0x00000000004a2730                .refptr._fmode
 .rdata$.refptr._gnu_exception_handler
                0x00000000004a2740       0x10 C:/Program Files/mingw-w64/x86_64-5.3.0-posix-seh-rt_v4-rev0/mingw64/bin/../lib/gcc/x86_64-w64-mingw32/5.3.0/../../../../x86_64-w64-mingw32/lib/../lib/crt2.o
                0x00000000004a2740                .refptr._gnu_exception_handler
 .rdata$.refptr._matherr
                0x00000000004a2750       0x10 C:/Program Files/mingw-w64/x86_64-5.3.0-posix-seh-rt_v4-rev0/mingw64/bin/../lib/gcc/x86_64-w64-mingw32/5.3.0/../../../../x86_64-w64-mingw32/lib/../lib/crt2.o
                0x00000000004a2750                .refptr._matherr
 .rdata$.refptr._newmode
                0x00000000004a2760       0x10 C:/Program Files/mingw-w64/x86_64-5.3.0-posix-seh-rt_v4-rev0/mingw64/bin/../lib/gcc/x86_64-w64-mingw32/5.3.0/../../../../x86_64-w64-mingw32/lib/../lib/crt2.o
                0x00000000004a2760                .refptr._newmode
 .rdata$.refptr.banner_printed
                0x00000000004a2770       0x10 MinGW-w64D/cmdline.o
                0x00000000004a2770                .refptr.banner_printed
 .rdata$.refptr.cntppl0
                0x00000000004a2780       0x10 MinGW-w64D/input.o
                0x00000000004a2780                .refptr.cntppl0
 .rdata$.refptr.cntppl1
                0x00000000004a2790       0x10 MinGW-w64D/input.o
                0x00000000004a2790                .refptr.cntppl1
 .rdata$.refptr.cntppl2
                0x00000000004a27a0       0x10 MinGW-w64D/input.o
                0x00000000004a27a0                .refptr.cntppl2
 .rdata$.refptr.cnttok0
                0x00000000004a27b0       0x10 MinGW-w64D/input.o
                0x00000000004a27b0                .refptr.cnttok0
 .rdata$.refptr.cnttok1
                0x00000000004a27c0       0x10 MinGW-w64D/input.o
                0x00000000004a27c0                .refptr.cnttok1
 .rdata$.refptr.commentbuffer
                0x00000000004a27d0       0x10 MinGW-w64D/tokenize.o
                0x00000000004a27d0                .refptr.commentbuffer
 .rdata$.refptr.directive_tab
                0x00000000004a27e0       0x10 MinGW-w64D/parser.o
                0x00000000004a27e0                .refptr.directive_tab
 .rdata$.refptr.jmpenv
                0x00000000004a27f0       0x10 MinGW-w64D/errmsg.o
                0x00000000004a27f0                .refptr.jmpenv
 .rdata$.refptr.list_pos
                0x00000000004a2800       0x10 MinGW-w64D/fastpass.o
                0x00000000004a2800                .refptr.list_pos
 .rdata$.refptr.maxintvalues
                0x00000000004a2810       0x10 MinGW-w64D/invoke.o
                0x00000000004a2810                .refptr.maxintvalues
 .rdata$.refptr.memcmp
                0x00000000004a2820       0x10 MinGW-w64D/symbols.o
                0x00000000004a2820                .refptr.memcmp
 .rdata$.refptr.mingw_app_type
                0x00000000004a2830       0x10 C:/Program Files/mingw-w64/x86_64-5.3.0-posix-seh-rt_v4-rev0/mingw64/bin/../lib/gcc/x86_64-w64-mingw32/5.3.0/../../../../x86_64-w64-mingw32/lib/../lib/crt2.o
                0x00000000004a2830                .refptr.mingw_app_type
 .rdata$.refptr.mingw_initcharmax
                0x00000000004a2840       0x10 C:/Program Files/mingw-w64/x86_64-5.3.0-posix-seh-rt_v4-rev0/mingw64/bin/../lib/gcc/x86_64-w64-mingw32/5.3.0/../../../../x86_64-w64-mingw32/lib/../lib/crt2.o
                0x00000000004a2840                .refptr.mingw_initcharmax
 .rdata$.refptr.mingw_initltsdrot_force
                0x00000000004a2850       0x10 C:/Program Files/mingw-w64/x86_64-5.3.0-posix-seh-rt_v4-rev0/mingw64/bin/../lib/gcc/x86_64-w64-mingw32/5.3.0/../../../../x86_64-w64-mingw32/lib/../lib/crt2.o
                0x00000000004a2850                .refptr.mingw_initltsdrot_force
 .rdata$.refptr.mingw_initltsdyn_force
                0x00000000004a2860       0x10 C:/Program Files/mingw-w64/x86_64-5.3.0-posix-seh-rt_v4-rev0/mingw64/bin/../lib/gcc/x86_64-w64-mingw32/5.3.0/../../../../x86_64-w64-mingw32/lib/../lib/crt2.o
                0x00000000004a2860                .refptr.mingw_initltsdyn_force
 .rdata$.refptr.mingw_initltssuo_force
                0x00000000004a2870       0x10 C:/Program Files/mingw-w64/x86_64-5.3.0-posix-seh-rt_v4-rev0/mingw64/bin/../lib/gcc/x86_64-w64-mingw32/5.3.0/../../../../x86_64-w64-mingw32/lib/../lib/crt2.o
                0x00000000004a2870                .refptr.mingw_initltssuo_force
 .rdata$.refptr.minintvalues
                0x00000000004a2880       0x10 MinGW-w64D/invoke.o
                0x00000000004a2880                .refptr.minintvalues
 .rdata$.refptr.opnd_clstab
                0x00000000004a2890       0x10 MinGW-w64D/codegen.o
                0x00000000004a2890                .refptr.opnd_clstab
 .rdata$.refptr.optable_idx
                0x00000000004a28a0       0x10 MinGW-w64D/branch.o
                0x00000000004a28a0                .refptr.optable_idx
 .rdata$.refptr.procidx
                0x00000000004a28b0       0x10 MinGW-w64D/linnum.o
                0x00000000004a28b0                .refptr.procidx
 .rdata$.refptr.stackreg
                0x00000000004a28c0       0x10 MinGW-w64D/invoke.o
                0x00000000004a28c0                .refptr.stackreg
 .rdata$.refptr.sym_Cpu
                0x00000000004a28d0       0x10 MinGW-w64D/context.o
                0x00000000004a28d0                .refptr.sym_Cpu
 .rdata$.refptr.sym_Interface
                0x00000000004a28e0       0x10 MinGW-w64D/option.o
                0x00000000004a28e0                .refptr.sym_Interface
 .rdata$.refptr.sym_ReservedStack
                0x00000000004a28f0       0x10 MinGW-w64D/cpumodel.o
                0x00000000004a28f0                .refptr.sym_ReservedStack
 .rdata$.refptr.szCVCompiler
                0x00000000004a2900       0x10 MinGW-w64D/dbgcv.o
                0x00000000004a2900                .refptr.szCVCompiler
 .rdata$.refptr.szDgroup
                0x00000000004a2910       0x10 MinGW-w64D/cpumodel.o
                0x00000000004a2910                .refptr.szDgroup
 .rdata$.refptr.szNull
                0x00000000004a2920       0x10 MinGW-w64D/data.o
                0x00000000004a2920                .refptr.szNull
 .rdata$.refptr.token_stringbuf
                0x00000000004a2930       0x10 MinGW-w64D/tokenize.o
                0x00000000004a2930                .refptr.token_stringbuf
 .rdata$.refptr.vex_flags
                0x00000000004a2940       0x10 MinGW-w64D/codegen.o
                0x00000000004a2940                .refptr.vex_flags
 .rdata$.refptr.write_to_file
                0x00000000004a2950       0x10 MinGW-w64D/codegen.o
                0x00000000004a2950                .refptr.write_to_file
 .rdata$zzz     0x00000000004a2960       0x40 C:/Program Files/mingw-w64/x86_64-5.3.0-posix-seh-rt_v4-rev0/mingw64/bin/../lib/gcc/x86_64-w64-mingw32/5.3.0/../../../../x86_64-w64-mingw32/lib/../lib/crt2.o
 .rdata$zzz     0x00000000004a29a0       0x40 C:/Program Files/mingw-w64/x86_64-5.3.0-posix-seh-rt_v4-rev0/mingw64/bin/../lib/gcc/x86_64-w64-mingw32/5.3.0/crtbegin.o
 .rdata$zzz     0x00000000004a29e0       0x40 MinGW-w64D/main.o
 .rdata$zzz     0x00000000004a2a20       0x40 MinGW-w64D/apiemu.o
 .rdata$zzz     0x00000000004a2a60       0x40 MinGW-w64D/assemble.o
 .rdata$zzz     0x00000000004a2aa0       0x40 MinGW-w64D/assume.o
 .rdata$zzz     0x00000000004a2ae0       0x40 MinGW-w64D/atofloat.o
 .rdata$zzz     0x00000000004a2b20       0x40 MinGW-w64D/backptch.o
 .rdata$zzz     0x00000000004a2b60       0x40 MinGW-w64D/bin.o
 .rdata$zzz     0x00000000004a2ba0       0x40 MinGW-w64D/branch.o
 .rdata$zzz     0x00000000004a2be0       0x40 MinGW-w64D/cmdline.o
 .rdata$zzz     0x00000000004a2c20       0x40 MinGW-w64D/codegen.o
 .rdata$zzz     0x00000000004a2c60       0x40 MinGW-w64D/coff.o
 .rdata$zzz     0x00000000004a2ca0       0x40 MinGW-w64D/condasm.o
 .rdata$zzz     0x00000000004a2ce0       0x40 MinGW-w64D/context.o
 .rdata$zzz     0x00000000004a2d20       0x40 MinGW-w64D/cpumodel.o
 .rdata$zzz     0x00000000004a2d60       0x40 MinGW-w64D/data.o
 .rdata$zzz     0x00000000004a2da0       0x40 MinGW-w64D/dbgcv.o
 .rdata$zzz     0x00000000004a2de0       0x40 MinGW-w64D/directiv.o
 .rdata$zzz     0x00000000004a2e20       0x40 MinGW-w64D/elf.o
 .rdata$zzz     0x00000000004a2e60       0x40 MinGW-w64D/end.o
 .rdata$zzz     0x00000000004a2ea0       0x40 MinGW-w64D/equate.o
 .rdata$zzz     0x00000000004a2ee0       0x40 MinGW-w64D/errmsg.o
 .rdata$zzz     0x00000000004a2f20       0x40 MinGW-w64D/expans.o
 .rdata$zzz     0x00000000004a2f60       0x40 MinGW-w64D/expreval.o
 .rdata$zzz     0x00000000004a2fa0       0x40 MinGW-w64D/extern.o
 .rdata$zzz     0x00000000004a2fe0       0x40 MinGW-w64D/fastpass.o
 .rdata$zzz     0x00000000004a3020       0x40 MinGW-w64D/fixup.o
 .rdata$zzz     0x00000000004a3060       0x40 MinGW-w64D/fpfixup.o
 .rdata$zzz     0x00000000004a30a0       0x40 MinGW-w64D/hll.o
 .rdata$zzz     0x00000000004a30e0       0x40 MinGW-w64D/input.o
 .rdata$zzz     0x00000000004a3120       0x40 MinGW-w64D/invoke.o
 .rdata$zzz     0x00000000004a3160       0x40 MinGW-w64D/label.o
 .rdata$zzz     0x00000000004a31a0       0x40 MinGW-w64D/linnum.o
 .rdata$zzz     0x00000000004a31e0       0x40 MinGW-w64D/listing.o
 .rdata$zzz     0x00000000004a3220       0x40 MinGW-w64D/loop.o
 .rdata$zzz     0x00000000004a3260       0x40 MinGW-w64D/lqueue.o
 .rdata$zzz     0x00000000004a32a0       0x40 MinGW-w64D/macro.o
 .rdata$zzz     0x00000000004a32e0       0x40 MinGW-w64D/mangle.o
 .rdata$zzz     0x00000000004a3320       0x40 MinGW-w64D/memalloc.o
 .rdata$zzz     0x00000000004a3360       0x40 MinGW-w64D/msgtext.o
 .rdata$zzz     0x00000000004a33a0       0x40 MinGW-w64D/omf.o
 .rdata$zzz     0x00000000004a33e0       0x40 MinGW-w64D/omffixup.o
 .rdata$zzz     0x00000000004a3420       0x40 MinGW-w64D/omfint.o
 .rdata$zzz     0x00000000004a3460       0x40 MinGW-w64D/option.o
 .rdata$zzz     0x00000000004a34a0       0x40 MinGW-w64D/parser.o
 .rdata$zzz     0x00000000004a34e0       0x40 MinGW-w64D/posndir.o
 .rdata$zzz     0x00000000004a3520       0x40 MinGW-w64D/preproc.o
 .rdata$zzz     0x00000000004a3560       0x40 MinGW-w64D/proc.o
 .rdata$zzz     0x00000000004a35a0       0x40 MinGW-w64D/queue.o
 .rdata$zzz     0x00000000004a35e0       0x40 MinGW-w64D/reswords.o
 .rdata$zzz     0x00000000004a3620       0x40 MinGW-w64D/safeseh.o
 .rdata$zzz     0x00000000004a3660       0x40 MinGW-w64D/segment.o
 .rdata$zzz     0x00000000004a36a0       0x40 MinGW-w64D/simsegm.o
 .rdata$zzz     0x00000000004a36e0       0x40 MinGW-w64D/string.o
 .rdata$zzz     0x00000000004a3720       0x40 MinGW-w64D/symbols.o
 .rdata$zzz     0x00000000004a3760       0x40 MinGW-w64D/tbyte.o
 .rdata$zzz     0x00000000004a37a0       0x40 MinGW-w64D/tokenize.o
 .rdata$zzz     0x00000000004a37e0       0x40 MinGW-w64D/types.o
 .rdata$zzz     0x00000000004a3820       0x40 C:/Program Files/mingw-w64/x86_64-5.3.0-posix-seh-rt_v4-rev0/mingw64/bin/../lib/gcc/x86_64-w64-mingw32/5.3.0/../../../../x86_64-w64-mingw32/lib/../lib/libmingw32.a(lib64_libmingw32_a-atonexit.o)
 .rdata$zzz     0x00000000004a3860       0x40 C:/Program Files/mingw-w64/x86_64-5.3.0-posix-seh-rt_v4-rev0/mingw64/bin/../lib/gcc/x86_64-w64-mingw32/5.3.0/../../../../x86_64-w64-mingw32/lib/../lib/libmingw32.a(lib64_libmingw32_a-gccmain.o)
 .rdata$zzz     0x00000000004a38a0       0x40 C:/Program Files/mingw-w64/x86_64-5.3.0-posix-seh-rt_v4-rev0/mingw64/bin/../lib/gcc/x86_64-w64-mingw32/5.3.0/../../../../x86_64-w64-mingw32/lib/../lib/libmingw32.a(lib64_libmingw32_a-natstart.o)
 .rdata$zzz     0x00000000004a38e0       0x40 C:/Program Files/mingw-w64/x86_64-5.3.0-posix-seh-rt_v4-rev0/mingw64/bin/../lib/gcc/x86_64-w64-mingw32/5.3.0/../../../../x86_64-w64-mingw32/lib/../lib/libmingw32.a(lib64_libmingw32_a-wildcard.o)
 .rdata$zzz     0x00000000004a3920       0x40 C:/Program Files/mingw-w64/x86_64-5.3.0-posix-seh-rt_v4-rev0/mingw64/bin/../lib/gcc/x86_64-w64-mingw32/5.3.0/../../../../x86_64-w64-mingw32/lib/../lib/libmingw32.a(lib64_libmingw32_a-charmax.o)
 .rdata$zzz     0x00000000004a3960       0x40 C:/Program Files/mingw-w64/x86_64-5.3.0-posix-seh-rt_v4-rev0/mingw64/bin/../lib/gcc/x86_64-w64-mingw32/5.3.0/../../../../x86_64-w64-mingw32/lib/../lib/libmingw32.a(lib64_libmingw32_a-dllargv.o)
 .rdata$zzz     0x00000000004a39a0       0x40 C:/Program Files/mingw-w64/x86_64-5.3.0-posix-seh-rt_v4-rev0/mingw64/bin/../lib/gcc/x86_64-w64-mingw32/5.3.0/../../../../x86_64-w64-mingw32/lib/../lib/libmingw32.a(lib64_libmingw32_a-gs_support.o)
 .rdata$zzz     0x00000000004a39e0       0x40 C:/Program Files/mingw-w64/x86_64-5.3.0-posix-seh-rt_v4-rev0/mingw64/bin/../lib/gcc/x86_64-w64-mingw32/5.3.0/../../../../x86_64-w64-mingw32/lib/../lib/libmingw32.a(lib64_libmingw32_a-_newmode.o)
 .rdata$zzz     0x00000000004a3a20       0x40 C:/Program Files/mingw-w64/x86_64-5.3.0-posix-seh-rt_v4-rev0/mingw64/bin/../lib/gcc/x86_64-w64-mingw32/5.3.0/../../../../x86_64-w64-mingw32/lib/../lib/libmingw32.a(lib64_libmingw32_a-tlssup.o)
 .rdata$zzz     0x00000000004a3a60       0x40 C:/Program Files/mingw-w64/x86_64-5.3.0-posix-seh-rt_v4-rev0/mingw64/bin/../lib/gcc/x86_64-w64-mingw32/5.3.0/../../../../x86_64-w64-mingw32/lib/../lib/libmingw32.a(lib64_libmingw32_a-cinitexe.o)
 .rdata$zzz     0x00000000004a3aa0       0x40 C:/Program Files/mingw-w64/x86_64-5.3.0-posix-seh-rt_v4-rev0/mingw64/bin/../lib/gcc/x86_64-w64-mingw32/5.3.0/../../../../x86_64-w64-mingw32/lib/../lib/libmingw32.a(lib64_libmingw32_a-merr.o)
 .rdata$zzz     0x00000000004a3ae0       0x40 C:/Program Files/mingw-w64/x86_64-5.3.0-posix-seh-rt_v4-rev0/mingw64/bin/../lib/gcc/x86_64-w64-mingw32/5.3.0/../../../../x86_64-w64-mingw32/lib/../lib/libmingw32.a(lib64_libmingw32_a-CRT_fp10.o)
 .rdata$zzz     0x00000000004a3b20       0x40 C:/Program Files/mingw-w64/x86_64-5.3.0-posix-seh-rt_v4-rev0/mingw64/bin/../lib/gcc/x86_64-w64-mingw32/5.3.0/../../../../x86_64-w64-mingw32/lib/../lib/libmingw32.a(lib64_libmingw32_a-mingw_helpers.o)
 .rdata$zzz     0x00000000004a3b60       0x40 C:/Program Files/mingw-w64/x86_64-5.3.0-posix-seh-rt_v4-rev0/mingw64/bin/../lib/gcc/x86_64-w64-mingw32/5.3.0/../../../../x86_64-w64-mingw32/lib/../lib/libmingw32.a(lib64_libmingw32_a-pseudo-reloc.o)
 .rdata$zzz     0x00000000004a3ba0       0x40 C:/Program Files/mingw-w64/x86_64-5.3.0-posix-seh-rt_v4-rev0/mingw64/bin/../lib/gcc/x86_64-w64-mingw32/5.3.0/../../../../x86_64-w64-mingw32/lib/../lib/libmingw32.a(lib64_libmingw32_a-xtxtmode.o)
 .rdata$zzz     0x00000000004a3be0       0x40 C:/Program Files/mingw-w64/x86_64-5.3.0-posix-seh-rt_v4-rev0/mingw64/bin/../lib/gcc/x86_64-w64-mingw32/5.3.0/../../../../x86_64-w64-mingw32/lib/../lib/libmingw32.a(lib64_libmingw32_a-crt_handler.o)
 .rdata$zzz     0x00000000004a3c20       0x40 C:/Program Files/mingw-w64/x86_64-5.3.0-posix-seh-rt_v4-rev0/mingw64/bin/../lib/gcc/x86_64-w64-mingw32/5.3.0/../../../../x86_64-w64-mingw32/lib/../lib/libmingw32.a(lib64_libmingw32_a-tlsthrd.o)
 .rdata$zzz     0x00000000004a3c60       0x40 C:/Program Files/mingw-w64/x86_64-5.3.0-posix-seh-rt_v4-rev0/mingw64/bin/../lib/gcc/x86_64-w64-mingw32/5.3.0/../../../../x86_64-w64-mingw32/lib/../lib/libmingw32.a(lib64_libmingw32_a-tlsmcrt.o)
 .rdata$zzz     0x00000000004a3ca0       0x40 C:/Program Files/mingw-w64/x86_64-5.3.0-posix-seh-rt_v4-rev0/mingw64/bin/../lib/gcc/x86_64-w64-mingw32/5.3.0/../../../../x86_64-w64-mingw32/lib/../lib/libmingw32.a(lib64_libmingw32_a-pseudo-reloc-list.o)
 .rdata$zzz     0x00000000004a3ce0       0x40 C:/Program Files/mingw-w64/x86_64-5.3.0-posix-seh-rt_v4-rev0/mingw64/bin/../lib/gcc/x86_64-w64-mingw32/5.3.0/../../../../x86_64-w64-mingw32/lib/../lib/libmingw32.a(lib64_libmingw32_a-pesect.o)
 .rdata$zzz     0x00000000004a3d20       0x40 C:/Program Files/mingw-w64/x86_64-5.3.0-posix-seh-rt_v4-rev0/mingw64/bin/../lib/gcc/x86_64-w64-mingw32/5.3.0/libgcc.a(_ctors.o)
 .rdata$zzz     0x00000000004a3d60       0x40 C:/Program Files/mingw-w64/x86_64-5.3.0-posix-seh-rt_v4-rev0/mingw64/bin/../lib/gcc/x86_64-w64-mingw32/5.3.0/../../../../x86_64-w64-mingw32/lib/../lib/libmingwex.a(lib64_libmingwex_a-strtodnrp.o)
 .rdata$zzz     0x00000000004a3da0       0x40 C:/Program Files/mingw-w64/x86_64-5.3.0-posix-seh-rt_v4-rev0/mingw64/bin/../lib/gcc/x86_64-w64-mingw32/5.3.0/../../../../x86_64-w64-mingw32/lib/../lib/libmingwex.a(lib64_libmingwex_a-mingw_matherr.o)
 .rdata$zzz     0x00000000004a3de0       0x40 C:/Program Files/mingw-w64/x86_64-5.3.0-posix-seh-rt_v4-rev0/mingw64/bin/../lib/gcc/x86_64-w64-mingw32/5.3.0/../../../../x86_64-w64-mingw32/lib/../lib/libmingwex.a(lib64_libmingwex_a-_findfirst64i32.o)
 .rdata$zzz     0x00000000004a3e20       0x40 C:/Program Files/mingw-w64/x86_64-5.3.0-posix-seh-rt_v4-rev0/mingw64/bin/../lib/gcc/x86_64-w64-mingw32/5.3.0/../../../../x86_64-w64-mingw32/lib/../lib/libmingwex.a(lib64_libmingwex_a-_findnext64i32.o)
 .rdata$zzz     0x00000000004a3e60       0x40 C:/Program Files/mingw-w64/x86_64-5.3.0-posix-seh-rt_v4-rev0/mingw64/bin/../lib/gcc/x86_64-w64-mingw32/5.3.0/../../../../x86_64-w64-mingw32/lib/../lib/libmingwex.a(lib64_libmingwex_a-_stat64i32.o)
 .rdata$zzz     0x00000000004a3ea0       0x40 C:/Program Files/mingw-w64/x86_64-5.3.0-posix-seh-rt_v4-rev0/mingw64/bin/../lib/gcc/x86_64-w64-mingw32/5.3.0/../../../../x86_64-w64-mingw32/lib/../lib/libmingwex.a(lib64_libmingwex_a-strtodg.o)
 .rdata$zzz     0x00000000004a3ee0       0x40 C:/Program Files/mingw-w64/x86_64-5.3.0-posix-seh-rt_v4-rev0/mingw64/bin/../lib/gcc/x86_64-w64-mingw32/5.3.0/../../../../x86_64-w64-mingw32/lib/../lib/libmingwex.a(lib64_libmingwex_a-sum.o)
 .rdata$zzz     0x00000000004a3f20       0x40 C:/Program Files/mingw-w64/x86_64-5.3.0-posix-seh-rt_v4-rev0/mingw64/bin/../lib/gcc/x86_64-w64-mingw32/5.3.0/../../../../x86_64-w64-mingw32/lib/../lib/libmingwex.a(lib64_libmingwex_a-gethex.o)
 .rdata$zzz     0x00000000004a3f60       0x40 C:/Program Files/mingw-w64/x86_64-5.3.0-posix-seh-rt_v4-rev0/mingw64/bin/../lib/gcc/x86_64-w64-mingw32/5.3.0/../../../../x86_64-w64-mingw32/lib/../lib/libmingwex.a(lib64_libmingwex_a-gmisc.o)
 .rdata$zzz     0x00000000004a3fa0       0x40 C:/Program Files/mingw-w64/x86_64-5.3.0-posix-seh-rt_v4-rev0/mingw64/bin/../lib/gcc/x86_64-w64-mingw32/5.3.0/../../../../x86_64-w64-mingw32/lib/../lib/libmingwex.a(lib64_libmingwex_a-hd_init.o)
 .rdata$zzz     0x00000000004a3fe0       0x40 C:/Program Files/mingw-w64/x86_64-5.3.0-posix-seh-rt_v4-rev0/mingw64/bin/../lib/gcc/x86_64-w64-mingw32/5.3.0/../../../../x86_64-w64-mingw32/lib/../lib/libmingwex.a(lib64_libmingwex_a-hexnan.o)
 .rdata$zzz     0x00000000004a4020       0x40 C:/Program Files/mingw-w64/x86_64-5.3.0-posix-seh-rt_v4-rev0/mingw64/bin/../lib/gcc/x86_64-w64-mingw32/5.3.0/../../../../x86_64-w64-mingw32/lib/../lib/libmingwex.a(lib64_libmingwex_a-misc.o)
 .rdata$zzz     0x00000000004a4060       0x40 C:/Program Files/mingw-w64/x86_64-5.3.0-posix-seh-rt_v4-rev0/mingw64/bin/../lib/gcc/x86_64-w64-mingw32/5.3.0/../../../../x86_64-w64-mingw32/lib/../lib/libmingwex.a(lib64_libmingwex_a-smisc.o)
 .rdata$zzz     0x00000000004a40a0       0x40 C:/Program Files/mingw-w64/x86_64-5.3.0-posix-seh-rt_v4-rev0/mingw64/bin/../lib/gcc/x86_64-w64-mingw32/5.3.0/../../../../x86_64-w64-mingw32/lib/../lib/libmsvcrt.a(lib64_libmsvcrt_a-invalid_parameter_handler.o)
 .rdata$zzz     0x00000000004a40e0       0x40 C:/Program Files/mingw-w64/x86_64-5.3.0-posix-seh-rt_v4-rev0/mingw64/bin/../lib/gcc/x86_64-w64-mingw32/5.3.0/crtend.o
                0x00000000004a4120                __rt_psrelocs_start = .
 *(.rdata_runtime_pseudo_reloc)
                0x00000000004a4120                __rt_psrelocs_end = .
                0x0000000000000000                __rt_psrelocs_size = (__rt_psrelocs_end - __rt_psrelocs_start)
                0x00000000004a4120                ___RUNTIME_PSEUDO_RELOC_LIST_END__ = .
                0x00000000004a4120                __RUNTIME_PSEUDO_RELOC_LIST_END__ = .
                0x00000000004a4120                ___RUNTIME_PSEUDO_RELOC_LIST__ = (. - __rt_psrelocs_size)
                0x00000000004a4120                __RUNTIME_PSEUDO_RELOC_LIST__ = (. - __rt_psrelocs_size)

.eh_frame
 *(.eh_frame*)

.pdata          0x00000000004a5000     0x2a00
 *(.pdata*)
 .pdata         0x00000000004a5000       0x48 C:/Program Files/mingw-w64/x86_64-5.3.0-posix-seh-rt_v4-rev0/mingw64/bin/../lib/gcc/x86_64-w64-mingw32/5.3.0/../../../../x86_64-w64-mingw32/lib/../lib/crt2.o
 .pdata         0x00000000004a5048       0x24 C:/Program Files/mingw-w64/x86_64-5.3.0-posix-seh-rt_v4-rev0/mingw64/bin/../lib/gcc/x86_64-w64-mingw32/5.3.0/crtbegin.o
 .pdata         0x00000000004a506c       0x18 MinGW-w64D/main.o
 .pdata         0x00000000004a5084      0x138 MinGW-w64D/assemble.o
 .pdata         0x00000000004a51bc       0x9c MinGW-w64D/assume.o
 .pdata         0x00000000004a5258        0xc MinGW-w64D/atofloat.o
 .pdata         0x00000000004a5264       0x18 MinGW-w64D/backptch.o
 .pdata         0x00000000004a527c       0xe4 MinGW-w64D/bin.o
 .pdata         0x00000000004a5360       0x24 MinGW-w64D/branch.o
 .pdata         0x00000000004a5384      0x258 MinGW-w64D/cmdline.o
 .pdata         0x00000000004a55dc       0x6c MinGW-w64D/codegen.o
 .pdata         0x00000000004a5648       0xcc MinGW-w64D/coff.o
 .pdata         0x00000000004a5714       0x90 MinGW-w64D/condasm.o
 .pdata         0x00000000004a57a4       0x30 MinGW-w64D/context.o
 .pdata         0x00000000004a57d4       0x54 MinGW-w64D/cpumodel.o
 .pdata         0x00000000004a5828       0x54 MinGW-w64D/data.o
 .pdata         0x00000000004a587c       0xb4 MinGW-w64D/dbgcv.o
 .pdata         0x00000000004a5930       0x78 MinGW-w64D/directiv.o
 .pdata         0x00000000004a59a8       0xb4 MinGW-w64D/elf.o
 .pdata         0x00000000004a5a5c       0x18 MinGW-w64D/end.o
 .pdata         0x00000000004a5a74       0x48 MinGW-w64D/equate.o
 .pdata         0x00000000004a5abc       0xa8 MinGW-w64D/errmsg.o
 .pdata         0x00000000004a5b64       0x84 MinGW-w64D/expans.o
 .pdata         0x00000000004a5be8      0x258 MinGW-w64D/expreval.o
 .pdata         0x00000000004a5e40       0x9c MinGW-w64D/extern.o
 .pdata         0x00000000004a5edc       0x48 MinGW-w64D/fastpass.o
 .pdata         0x00000000004a5f24       0x30 MinGW-w64D/fixup.o
 .pdata         0x00000000004a5f54        0xc MinGW-w64D/fpfixup.o
 .pdata         0x00000000004a5f60      0x108 MinGW-w64D/hll.o
 .pdata         0x00000000004a6068      0x144 MinGW-w64D/input.o
 .pdata         0x00000000004a61ac       0x9c MinGW-w64D/invoke.o
 .pdata         0x00000000004a6248       0x30 MinGW-w64D/label.o
 .pdata         0x00000000004a6278       0x3c MinGW-w64D/linnum.o
 .pdata         0x00000000004a62b4      0x138 MinGW-w64D/listing.o
 .pdata         0x00000000004a63ec        0xc MinGW-w64D/loop.o
 .pdata         0x00000000004a63f8       0x3c MinGW-w64D/lqueue.o
 .pdata         0x00000000004a6434       0x9c MinGW-w64D/macro.o
 .pdata         0x00000000004a64d0       0x6c MinGW-w64D/mangle.o
 .pdata         0x00000000004a653c       0x3c MinGW-w64D/memalloc.o
 .pdata         0x00000000004a6578       0x18 MinGW-w64D/msgtext.o
 .pdata         0x00000000004a6590      0x1f8 MinGW-w64D/omf.o
 .pdata         0x00000000004a6788       0x6c MinGW-w64D/omffixup.o
 .pdata         0x00000000004a67f4      0x108 MinGW-w64D/omfint.o
 .pdata         0x00000000004a68fc      0x1d4 MinGW-w64D/option.o
 .pdata         0x00000000004a6ad0      0x150 MinGW-w64D/parser.o
 .pdata         0x00000000004a6c20       0x30 MinGW-w64D/posndir.o
 .pdata         0x00000000004a6c50       0x18 MinGW-w64D/preproc.o
 .pdata         0x00000000004a6c68      0x1bc MinGW-w64D/proc.o
 .pdata         0x00000000004a6e24       0x18 MinGW-w64D/queue.o
 .pdata         0x00000000004a6e3c       0x9c MinGW-w64D/reswords.o
 .pdata         0x00000000004a6ed8        0xc MinGW-w64D/safeseh.o
 .pdata         0x00000000004a6ee4      0x1a4 MinGW-w64D/segment.o
 .pdata         0x00000000004a7088       0x78 MinGW-w64D/simsegm.o
 .pdata         0x00000000004a7100       0xa8 MinGW-w64D/string.o
 .pdata         0x00000000004a71a8      0x120 MinGW-w64D/symbols.o
 .pdata         0x00000000004a72c8       0x78 MinGW-w64D/tbyte.o
 .pdata         0x00000000004a7340       0x9c MinGW-w64D/tokenize.o
 .pdata         0x00000000004a73dc       0xb4 MinGW-w64D/types.o
 .pdata         0x00000000004a7490       0x18 C:/Program Files/mingw-w64/x86_64-5.3.0-posix-seh-rt_v4-rev0/mingw64/bin/../lib/gcc/x86_64-w64-mingw32/5.3.0/../../../../x86_64-w64-mingw32/lib/../lib/libmingw32.a(lib64_libmingw32_a-atonexit.o)
 .pdata         0x00000000004a74a8       0x24 C:/Program Files/mingw-w64/x86_64-5.3.0-posix-seh-rt_v4-rev0/mingw64/bin/../lib/gcc/x86_64-w64-mingw32/5.3.0/../../../../x86_64-w64-mingw32/lib/../lib/libmingw32.a(lib64_libmingw32_a-gccmain.o)
 .pdata         0x00000000004a74cc        0xc C:/Program Files/mingw-w64/x86_64-5.3.0-posix-seh-rt_v4-rev0/mingw64/bin/../lib/gcc/x86_64-w64-mingw32/5.3.0/../../../../x86_64-w64-mingw32/lib/../lib/libmingw32.a(lib64_libmingw32_a-charmax.o)
 .pdata         0x00000000004a74d8        0xc C:/Program Files/mingw-w64/x86_64-5.3.0-posix-seh-rt_v4-rev0/mingw64/bin/../lib/gcc/x86_64-w64-mingw32/5.3.0/../../../../x86_64-w64-mingw32/lib/../lib/libmingw32.a(lib64_libmingw32_a-dllargv.o)
 .pdata         0x00000000004a74e4       0x18 C:/Program Files/mingw-w64/x86_64-5.3.0-posix-seh-rt_v4-rev0/mingw64/bin/../lib/gcc/x86_64-w64-mingw32/5.3.0/../../../../x86_64-w64-mingw32/lib/../lib/libmingw32.a(lib64_libmingw32_a-gs_support.o)
 .pdata         0x00000000004a74fc       0x24 C:/Program Files/mingw-w64/x86_64-5.3.0-posix-seh-rt_v4-rev0/mingw64/bin/../lib/gcc/x86_64-w64-mingw32/5.3.0/../../../../x86_64-w64-mingw32/lib/../lib/libmingw32.a(lib64_libmingw32_a-tlssup.o)
 .pdata         0x00000000004a7520       0x24 C:/Program Files/mingw-w64/x86_64-5.3.0-posix-seh-rt_v4-rev0/mingw64/bin/../lib/gcc/x86_64-w64-mingw32/5.3.0/../../../../x86_64-w64-mingw32/lib/../lib/libmingw32.a(lib64_libmingw32_a-merr.o)
 .pdata         0x00000000004a7544        0xc C:/Program Files/mingw-w64/x86_64-5.3.0-posix-seh-rt_v4-rev0/mingw64/bin/../lib/gcc/x86_64-w64-mingw32/5.3.0/../../../../x86_64-w64-mingw32/lib/../lib/libmingw32.a(lib64_libmingw32_a-CRT_fp10.o)
 .pdata         0x00000000004a7550       0x18 C:/Program Files/mingw-w64/x86_64-5.3.0-posix-seh-rt_v4-rev0/mingw64/bin/../lib/gcc/x86_64-w64-mingw32/5.3.0/../../../../x86_64-w64-mingw32/lib/../lib/libmingw32.a(lib64_libmingw32_a-mingw_helpers.o)
 .pdata         0x00000000004a7568       0x24 C:/Program Files/mingw-w64/x86_64-5.3.0-posix-seh-rt_v4-rev0/mingw64/bin/../lib/gcc/x86_64-w64-mingw32/5.3.0/../../../../x86_64-w64-mingw32/lib/../lib/libmingw32.a(lib64_libmingw32_a-pseudo-reloc.o)
 .pdata         0x00000000004a758c       0x24 C:/Program Files/mingw-w64/x86_64-5.3.0-posix-seh-rt_v4-rev0/mingw64/bin/../lib/gcc/x86_64-w64-mingw32/5.3.0/../../../../x86_64-w64-mingw32/lib/../lib/libmingw32.a(lib64_libmingw32_a-crt_handler.o)
 .pdata         0x00000000004a75b0       0x30 C:/Program Files/mingw-w64/x86_64-5.3.0-posix-seh-rt_v4-rev0/mingw64/bin/../lib/gcc/x86_64-w64-mingw32/5.3.0/../../../../x86_64-w64-mingw32/lib/../lib/libmingw32.a(lib64_libmingw32_a-tlsthrd.o)
 .pdata         0x00000000004a75e0       0x78 C:/Program Files/mingw-w64/x86_64-5.3.0-posix-seh-rt_v4-rev0/mingw64/bin/../lib/gcc/x86_64-w64-mingw32/5.3.0/../../../../x86_64-w64-mingw32/lib/../lib/libmingw32.a(lib64_libmingw32_a-pesect.o)
 .pdata         0x00000000004a7658        0xc C:/Program Files/mingw-w64/x86_64-5.3.0-posix-seh-rt_v4-rev0/mingw64/bin/../lib/gcc/x86_64-w64-mingw32/5.3.0/../../../../x86_64-w64-mingw32/lib/../lib/libmingwex.a(lib64_libmingwex_a-strtodnrp.o)
 .pdata         0x00000000004a7664        0xc C:/Program Files/mingw-w64/x86_64-5.3.0-posix-seh-rt_v4-rev0/mingw64/bin/../lib/gcc/x86_64-w64-mingw32/5.3.0/../../../../x86_64-w64-mingw32/lib/../lib/libmingwex.a(lib64_libmingwex_a-_findfirst64i32.o)
 .pdata         0x00000000004a7670        0xc C:/Program Files/mingw-w64/x86_64-5.3.0-posix-seh-rt_v4-rev0/mingw64/bin/../lib/gcc/x86_64-w64-mingw32/5.3.0/../../../../x86_64-w64-mingw32/lib/../lib/libmingwex.a(lib64_libmingwex_a-_findnext64i32.o)
 .pdata         0x00000000004a767c        0xc C:/Program Files/mingw-w64/x86_64-5.3.0-posix-seh-rt_v4-rev0/mingw64/bin/../lib/gcc/x86_64-w64-mingw32/5.3.0/../../../../x86_64-w64-mingw32/lib/../lib/libmingwex.a(lib64_libmingwex_a-_stat64i32.o)
 .pdata         0x00000000004a7688       0x3c C:/Program Files/mingw-w64/x86_64-5.3.0-posix-seh-rt_v4-rev0/mingw64/bin/../lib/gcc/x86_64-w64-mingw32/5.3.0/../../../../x86_64-w64-mingw32/lib/../lib/libmingwex.a(lib64_libmingwex_a-strtodg.o)
 .pdata         0x00000000004a76c4        0xc C:/Program Files/mingw-w64/x86_64-5.3.0-posix-seh-rt_v4-rev0/mingw64/bin/../lib/gcc/x86_64-w64-mingw32/5.3.0/../../../../x86_64-w64-mingw32/lib/../lib/libmingwex.a(lib64_libmingwex_a-sum.o)
 .pdata         0x00000000004a76d0        0xc C:/Program Files/mingw-w64/x86_64-5.3.0-posix-seh-rt_v4-rev0/mingw64/bin/../lib/gcc/x86_64-w64-mingw32/5.3.0/../../../../x86_64-w64-mingw32/lib/../lib/libmingwex.a(lib64_libmingwex_a-gethex.o)
 .pdata         0x00000000004a76dc       0x18 C:/Program Files/mingw-w64/x86_64-5.3.0-posix-seh-rt_v4-rev0/mingw64/bin/../lib/gcc/x86_64-w64-mingw32/5.3.0/../../../../x86_64-w64-mingw32/lib/../lib/libmingwex.a(lib64_libmingwex_a-gmisc.o)
 .pdata         0x00000000004a76f4        0xc C:/Program Files/mingw-w64/x86_64-5.3.0-posix-seh-rt_v4-rev0/mingw64/bin/../lib/gcc/x86_64-w64-mingw32/5.3.0/../../../../x86_64-w64-mingw32/lib/../lib/libmingwex.a(lib64_libmingwex_a-hd_init.o)
 .pdata         0x00000000004a7700        0xc C:/Program Files/mingw-w64/x86_64-5.3.0-posix-seh-rt_v4-rev0/mingw64/bin/../lib/gcc/x86_64-w64-mingw32/5.3.0/../../../../x86_64-w64-mingw32/lib/../lib/libmingwex.a(lib64_libmingwex_a-hexnan.o)
 .pdata         0x00000000004a770c       0xa8 C:/Program Files/mingw-w64/x86_64-5.3.0-posix-seh-rt_v4-rev0/mingw64/bin/../lib/gcc/x86_64-w64-mingw32/5.3.0/../../../../x86_64-w64-mingw32/lib/../lib/libmingwex.a(lib64_libmingwex_a-misc.o)
 .pdata         0x00000000004a77b4       0x3c C:/Program Files/mingw-w64/x86_64-5.3.0-posix-seh-rt_v4-rev0/mingw64/bin/../lib/gcc/x86_64-w64-mingw32/5.3.0/../../../../x86_64-w64-mingw32/lib/../lib/libmingwex.a(lib64_libmingwex_a-smisc.o)
 .pdata         0x00000000004a77f0       0x18 C:/Program Files/mingw-w64/x86_64-5.3.0-posix-seh-rt_v4-rev0/mingw64/bin/../lib/gcc/x86_64-w64-mingw32/5.3.0/../../../../x86_64-w64-mingw32/lib/../lib/libmsvcrt.a(lib64_libmsvcrt_a-invalid_parameter_handler.o)
 .pdata.startup
                0x00000000004a7808        0xc C:/Program Files/mingw-w64/x86_64-5.3.0-posix-seh-rt_v4-rev0/mingw64/bin/../lib/gcc/x86_64-w64-mingw32/5.3.0/crtend.o

.xdata          0x00000000004a8000     0x2800
 *(.xdata*)
 .xdata         0x00000000004a8000       0x68 C:/Program Files/mingw-w64/x86_64-5.3.0-posix-seh-rt_v4-rev0/mingw64/bin/../lib/gcc/x86_64-w64-mingw32/5.3.0/../../../../x86_64-w64-mingw32/lib/../lib/crt2.o
 .xdata         0x00000000004a8068       0x1c C:/Program Files/mingw-w64/x86_64-5.3.0-posix-seh-rt_v4-rev0/mingw64/bin/../lib/gcc/x86_64-w64-mingw32/5.3.0/crtbegin.o
 .xdata         0x00000000004a8084       0x18 MinGW-w64D/main.o
 .xdata         0x00000000004a809c      0x13c MinGW-w64D/assemble.o
 .xdata         0x00000000004a81d8       0x90 MinGW-w64D/assume.o
 .xdata         0x00000000004a8268        0xc MinGW-w64D/atofloat.o
 .xdata         0x00000000004a8274       0x1c MinGW-w64D/backptch.o
 .xdata         0x00000000004a8290       0xe8 MinGW-w64D/bin.o
 .xdata         0x00000000004a8378       0x34 MinGW-w64D/branch.o
 .xdata         0x00000000004a83ac      0x20c MinGW-w64D/cmdline.o
 .xdata         0x00000000004a85b8       0x78 MinGW-w64D/codegen.o
 .xdata         0x00000000004a8630       0xc8 MinGW-w64D/coff.o
 .xdata         0x00000000004a86f8       0x8c MinGW-w64D/condasm.o
 .xdata         0x00000000004a8784       0x30 MinGW-w64D/context.o
 .xdata         0x00000000004a87b4       0x54 MinGW-w64D/cpumodel.o
 .xdata         0x00000000004a8808       0x5c MinGW-w64D/data.o
 .xdata         0x00000000004a8864       0xb4 MinGW-w64D/dbgcv.o
 .xdata         0x00000000004a8918       0x74 MinGW-w64D/directiv.o
 .xdata         0x00000000004a898c       0xb4 MinGW-w64D/elf.o
 .xdata         0x00000000004a8a40       0x18 MinGW-w64D/end.o
 .xdata         0x00000000004a8a58       0x48 MinGW-w64D/equate.o
 .xdata         0x00000000004a8aa0       0xb0 MinGW-w64D/errmsg.o
 .xdata         0x00000000004a8b50       0x8c MinGW-w64D/expans.o
 .xdata         0x00000000004a8bdc      0x264 MinGW-w64D/expreval.o
 .xdata         0x00000000004a8e40       0xa0 MinGW-w64D/extern.o
 .xdata         0x00000000004a8ee0       0x44 MinGW-w64D/fastpass.o
 .xdata         0x00000000004a8f24       0x30 MinGW-w64D/fixup.o
 .xdata         0x00000000004a8f54        0xc MinGW-w64D/fpfixup.o
 .xdata         0x00000000004a8f60      0x108 MinGW-w64D/hll.o
 .xdata         0x00000000004a9068      0x13c MinGW-w64D/input.o
 .xdata         0x00000000004a91a4       0x98 MinGW-w64D/invoke.o
 .xdata         0x00000000004a923c       0x2c MinGW-w64D/label.o
 .xdata         0x00000000004a9268       0x3c MinGW-w64D/linnum.o
 .xdata         0x00000000004a92a4      0x134 MinGW-w64D/listing.o
 .xdata         0x00000000004a93d8       0x10 MinGW-w64D/loop.o
 .xdata         0x00000000004a93e8       0x38 MinGW-w64D/lqueue.o
 .xdata         0x00000000004a9420       0x98 MinGW-w64D/macro.o
 .xdata         0x00000000004a94b8       0x68 MinGW-w64D/mangle.o
 .xdata         0x00000000004a9520       0x38 MinGW-w64D/memalloc.o
 .xdata         0x00000000004a9558       0x18 MinGW-w64D/msgtext.o
 .xdata         0x00000000004a9570      0x1f4 MinGW-w64D/omf.o
 .xdata         0x00000000004a9764       0x60 MinGW-w64D/omffixup.o
 .xdata         0x00000000004a97c4       0xf8 MinGW-w64D/omfint.o
 .xdata         0x00000000004a98bc      0x198 MinGW-w64D/option.o
 .xdata         0x00000000004a9a54      0x140 MinGW-w64D/parser.o
 .xdata         0x00000000004a9b94       0x30 MinGW-w64D/posndir.o
 .xdata         0x00000000004a9bc4       0x18 MinGW-w64D/preproc.o
 .xdata         0x00000000004a9bdc      0x1c8 MinGW-w64D/proc.o
 .xdata         0x00000000004a9da4       0x18 MinGW-w64D/queue.o
 .xdata         0x00000000004a9dbc       0xb0 MinGW-w64D/reswords.o
 .xdata         0x00000000004a9e6c        0xc MinGW-w64D/safeseh.o
 .xdata         0x00000000004a9e78      0x198 MinGW-w64D/segment.o
 .xdata         0x00000000004aa010       0x70 MinGW-w64D/simsegm.o
 .xdata         0x00000000004aa080       0xa8 MinGW-w64D/string.o
 .xdata         0x00000000004aa128      0x114 MinGW-w64D/symbols.o
 .xdata         0x00000000004aa23c       0x74 MinGW-w64D/tbyte.o
 .xdata         0x00000000004aa2b0       0x9c MinGW-w64D/tokenize.o
 .xdata         0x00000000004aa34c       0xc0 MinGW-w64D/types.o
 .xdata         0x00000000004aa40c       0x10 C:/Program Files/mingw-w64/x86_64-5.3.0-posix-seh-rt_v4-rev0/mingw64/bin/../lib/gcc/x86_64-w64-mingw32/5.3.0/../../../../x86_64-w64-mingw32/lib/../lib/libmingw32.a(lib64_libmingw32_a-atonexit.o)
 .xdata         0x00000000004aa41c       0x18 C:/Program Files/mingw-w64/x86_64-5.3.0-posix-seh-rt_v4-rev0/mingw64/bin/../lib/gcc/x86_64-w64-mingw32/5.3.0/../../../../x86_64-w64-mingw32/lib/../lib/libmingw32.a(lib64_libmingw32_a-gccmain.o)
 .xdata         0x00000000004aa434        0x4 C:/Program Files/mingw-w64/x86_64-5.3.0-posix-seh-rt_v4-rev0/mingw64/bin/../lib/gcc/x86_64-w64-mingw32/5.3.0/../../../../x86_64-w64-mingw32/lib/../lib/libmingw32.a(lib64_libmingw32_a-charmax.o)
 .xdata         0x00000000004aa438        0x4 C:/Program Files/mingw-w64/x86_64-5.3.0-posix-seh-rt_v4-rev0/mingw64/bin/../lib/gcc/x86_64-w64-mingw32/5.3.0/../../../../x86_64-w64-mingw32/lib/../lib/libmingw32.a(lib64_libmingw32_a-dllargv.o)
 .xdata         0x00000000004aa43c       0x20 C:/Program Files/mingw-w64/x86_64-5.3.0-posix-seh-rt_v4-rev0/mingw64/bin/../lib/gcc/x86_64-w64-mingw32/5.3.0/../../../../x86_64-w64-mingw32/lib/../lib/libmingw32.a(lib64_libmingw32_a-gs_support.o)
 .xdata         0x00000000004aa45c       0x18 C:/Program Files/mingw-w64/x86_64-5.3.0-posix-seh-rt_v4-rev0/mingw64/bin/../lib/gcc/x86_64-w64-mingw32/5.3.0/../../../../x86_64-w64-mingw32/lib/../lib/libmingw32.a(lib64_libmingw32_a-tlssup.o)
 .xdata         0x00000000004aa474       0x24 C:/Program Files/mingw-w64/x86_64-5.3.0-posix-seh-rt_v4-rev0/mingw64/bin/../lib/gcc/x86_64-w64-mingw32/5.3.0/../../../../x86_64-w64-mingw32/lib/../lib/libmingw32.a(lib64_libmingw32_a-merr.o)
 .xdata         0x00000000004aa498        0x4 C:/Program Files/mingw-w64/x86_64-5.3.0-posix-seh-rt_v4-rev0/mingw64/bin/../lib/gcc/x86_64-w64-mingw32/5.3.0/../../../../x86_64-w64-mingw32/lib/../lib/libmingw32.a(lib64_libmingw32_a-CRT_fp10.o)
 .xdata         0x00000000004aa49c        0x8 C:/Program Files/mingw-w64/x86_64-5.3.0-posix-seh-rt_v4-rev0/mingw64/bin/../lib/gcc/x86_64-w64-mingw32/5.3.0/../../../../x86_64-w64-mingw32/lib/../lib/libmingw32.a(lib64_libmingw32_a-mingw_helpers.o)
 .xdata         0x00000000004aa4a4       0x38 C:/Program Files/mingw-w64/x86_64-5.3.0-posix-seh-rt_v4-rev0/mingw64/bin/../lib/gcc/x86_64-w64-mingw32/5.3.0/../../../../x86_64-w64-mingw32/lib/../lib/libmingw32.a(lib64_libmingw32_a-pseudo-reloc.o)
 .xdata         0x00000000004aa4dc       0x20 C:/Program Files/mingw-w64/x86_64-5.3.0-posix-seh-rt_v4-rev0/mingw64/bin/../lib/gcc/x86_64-w64-mingw32/5.3.0/../../../../x86_64-w64-mingw32/lib/../lib/libmingw32.a(lib64_libmingw32_a-crt_handler.o)
 .xdata         0x00000000004aa4fc       0x2c C:/Program Files/mingw-w64/x86_64-5.3.0-posix-seh-rt_v4-rev0/mingw64/bin/../lib/gcc/x86_64-w64-mingw32/5.3.0/../../../../x86_64-w64-mingw32/lib/../lib/libmingw32.a(lib64_libmingw32_a-tlsthrd.o)
 .xdata         0x00000000004aa528       0x60 C:/Program Files/mingw-w64/x86_64-5.3.0-posix-seh-rt_v4-rev0/mingw64/bin/../lib/gcc/x86_64-w64-mingw32/5.3.0/../../../../x86_64-w64-mingw32/lib/../lib/libmingw32.a(lib64_libmingw32_a-pesect.o)
 .xdata         0x00000000004aa588        0x8 C:/Program Files/mingw-w64/x86_64-5.3.0-posix-seh-rt_v4-rev0/mingw64/bin/../lib/gcc/x86_64-w64-mingw32/5.3.0/../../../../x86_64-w64-mingw32/lib/../lib/libmingwex.a(lib64_libmingwex_a-strtodnrp.o)
 .xdata         0x00000000004aa590       0x10 C:/Program Files/mingw-w64/x86_64-5.3.0-posix-seh-rt_v4-rev0/mingw64/bin/../lib/gcc/x86_64-w64-mingw32/5.3.0/../../../../x86_64-w64-mingw32/lib/../lib/libmingwex.a(lib64_libmingwex_a-_findfirst64i32.o)
 .xdata         0x00000000004aa5a0       0x10 C:/Program Files/mingw-w64/x86_64-5.3.0-posix-seh-rt_v4-rev0/mingw64/bin/../lib/gcc/x86_64-w64-mingw32/5.3.0/../../../../x86_64-w64-mingw32/lib/../lib/libmingwex.a(lib64_libmingwex_a-_findnext64i32.o)
 .xdata         0x00000000004aa5b0        0xc C:/Program Files/mingw-w64/x86_64-5.3.0-posix-seh-rt_v4-rev0/mingw64/bin/../lib/gcc/x86_64-w64-mingw32/5.3.0/../../../../x86_64-w64-mingw32/lib/../lib/libmingwex.a(lib64_libmingwex_a-_stat64i32.o)
 .xdata         0x00000000004aa5bc       0x60 C:/Program Files/mingw-w64/x86_64-5.3.0-posix-seh-rt_v4-rev0/mingw64/bin/../lib/gcc/x86_64-w64-mingw32/5.3.0/../../../../x86_64-w64-mingw32/lib/../lib/libmingwex.a(lib64_libmingwex_a-strtodg.o)
 .xdata         0x00000000004aa61c       0x14 C:/Program Files/mingw-w64/x86_64-5.3.0-posix-seh-rt_v4-rev0/mingw64/bin/../lib/gcc/x86_64-w64-mingw32/5.3.0/../../../../x86_64-w64-mingw32/lib/../lib/libmingwex.a(lib64_libmingwex_a-sum.o)
 .xdata         0x00000000004aa630       0x18 C:/Program Files/mingw-w64/x86_64-5.3.0-posix-seh-rt_v4-rev0/mingw64/bin/../lib/gcc/x86_64-w64-mingw32/5.3.0/../../../../x86_64-w64-mingw32/lib/../lib/libmingwex.a(lib64_libmingwex_a-gethex.o)
 .xdata         0x00000000004aa648       0x10 C:/Program Files/mingw-w64/x86_64-5.3.0-posix-seh-rt_v4-rev0/mingw64/bin/../lib/gcc/x86_64-w64-mingw32/5.3.0/../../../../x86_64-w64-mingw32/lib/../lib/libmingwex.a(lib64_libmingwex_a-gmisc.o)
 .xdata         0x00000000004aa658        0x4 C:/Program Files/mingw-w64/x86_64-5.3.0-posix-seh-rt_v4-rev0/mingw64/bin/../lib/gcc/x86_64-w64-mingw32/5.3.0/../../../../x86_64-w64-mingw32/lib/../lib/libmingwex.a(lib64_libmingwex_a-hd_init.o)
 .xdata         0x00000000004aa65c       0x18 C:/Program Files/mingw-w64/x86_64-5.3.0-posix-seh-rt_v4-rev0/mingw64/bin/../lib/gcc/x86_64-w64-mingw32/5.3.0/../../../../x86_64-w64-mingw32/lib/../lib/libmingwex.a(lib64_libmingwex_a-hexnan.o)
 .xdata         0x00000000004aa674       0xa0 C:/Program Files/mingw-w64/x86_64-5.3.0-posix-seh-rt_v4-rev0/mingw64/bin/../lib/gcc/x86_64-w64-mingw32/5.3.0/../../../../x86_64-w64-mingw32/lib/../lib/libmingwex.a(lib64_libmingwex_a-misc.o)
 .xdata         0x00000000004aa714       0x30 C:/Program Files/mingw-w64/x86_64-5.3.0-posix-seh-rt_v4-rev0/mingw64/bin/../lib/gcc/x86_64-w64-mingw32/5.3.0/../../../../x86_64-w64-mingw32/lib/../lib/libmingwex.a(lib64_libmingwex_a-smisc.o)
 .xdata         0x00000000004aa744        0x8 C:/Program Files/mingw-w64/x86_64-5.3.0-posix-seh-rt_v4-rev0/mingw64/bin/../lib/gcc/x86_64-w64-mingw32/5.3.0/../../../../x86_64-w64-mingw32/lib/../lib/libmsvcrt.a(lib64_libmsvcrt_a-invalid_parameter_handler.o)
 .xdata.startup
                0x00000000004aa74c        0x8 C:/Program Files/mingw-w64/x86_64-5.3.0-posix-seh-rt_v4-rev0/mingw64/bin/../lib/gcc/x86_64-w64-mingw32/5.3.0/crtend.o

.bss            0x00000000004ab000    0x14280
                0x00000000004ab000                __bss_start__ = .
 *(.bss)
 .bss           0x00000000004ab000       0x30 C:/Program Files/mingw-w64/x86_64-5.3.0-posix-seh-rt_v4-rev0/mingw64/bin/../lib/gcc/x86_64-w64-mingw32/5.3.0/../../../../x86_64-w64-mingw32/lib/../lib/crt2.o
 .bss           0x00000000004ab030        0x0 C:/Program Files/mingw-w64/x86_64-5.3.0-posix-seh-rt_v4-rev0/mingw64/bin/../lib/gcc/x86_64-w64-mingw32/5.3.0/crtbegin.o
 .bss           0x00000000004ab030        0x0 MinGW-w64D/main.o
 .bss           0x00000000004ab030        0x0 MinGW-w64D/apiemu.o
 .bss           0x00000000004ab030        0x0 MinGW-w64D/assemble.o
 *fill*         0x00000000004ab030       0x10 
 .bss           0x00000000004ab040      0x360 MinGW-w64D/assume.o
 .bss           0x00000000004ab3a0        0x0 MinGW-w64D/atofloat.o
 .bss           0x00000000004ab3a0        0x0 MinGW-w64D/backptch.o
 .bss           0x00000000004ab3a0        0x0 MinGW-w64D/bin.o
 .bss           0x00000000004ab3a0        0x0 MinGW-w64D/branch.o
 .bss           0x00000000004ab3a0      0x140 MinGW-w64D/cmdline.o
                0x00000000004ab3a0                DefaultDir
 .bss           0x00000000004ab4e0        0x0 MinGW-w64D/codegen.o
 .bss           0x00000000004ab4e0      0x420 MinGW-w64D/coff.o
 .bss           0x00000000004ab900       0x10 MinGW-w64D/condasm.o
 .bss           0x00000000004ab910        0x0 MinGW-w64D/context.o
 .bss           0x00000000004ab910       0x20 MinGW-w64D/cpumodel.o
 .bss           0x00000000004ab930        0x0 MinGW-w64D/data.o
 .bss           0x00000000004ab930        0x0 MinGW-w64D/dbgcv.o
 .bss           0x00000000004ab930        0x0 MinGW-w64D/directiv.o
 .bss           0x00000000004ab930        0x0 MinGW-w64D/elf.o
 .bss           0x00000000004ab930        0x0 MinGW-w64D/end.o
 .bss           0x00000000004ab930        0x0 MinGW-w64D/equate.o
 *fill*         0x00000000004ab930       0x10 
 .bss           0x00000000004ab940       0x40 MinGW-w64D/errmsg.o
                0x00000000004ab940                banner_printed
 .bss           0x00000000004ab980        0x0 MinGW-w64D/expans.o
 .bss           0x00000000004ab980       0x30 MinGW-w64D/expreval.o
 .bss           0x00000000004ab9b0        0x0 MinGW-w64D/extern.o
 *fill*         0x00000000004ab9b0       0x10 
 .bss           0x00000000004ab9c0      0x200 MinGW-w64D/fastpass.o
 .bss           0x00000000004abbc0       0x10 MinGW-w64D/fixup.o
 .bss           0x00000000004abbd0        0x0 MinGW-w64D/fpfixup.o
 .bss           0x00000000004abbd0       0x20 MinGW-w64D/hll.o
 .bss           0x00000000004abbf0       0x20 MinGW-w64D/input.o
 .bss           0x00000000004abc10       0x10 MinGW-w64D/invoke.o
 .bss           0x00000000004abc20        0x0 MinGW-w64D/label.o
 .bss           0x00000000004abc20       0x10 MinGW-w64D/linnum.o
 .bss           0x00000000004abc30       0x10 MinGW-w64D/listing.o
 .bss           0x00000000004abc40        0x0 MinGW-w64D/loop.o
 .bss           0x00000000004abc40       0x10 MinGW-w64D/lqueue.o
 *fill*         0x00000000004abc50       0x10 
 .bss           0x00000000004abc60      0x260 MinGW-w64D/macro.o
 .bss           0x00000000004abec0        0x0 MinGW-w64D/mangle.o
 .bss           0x00000000004abec0       0x20 MinGW-w64D/memalloc.o
 .bss           0x00000000004abee0        0x0 MinGW-w64D/msgtext.o
 .bss           0x00000000004abee0       0x40 MinGW-w64D/omf.o
 .bss           0x00000000004abf20        0x0 MinGW-w64D/omffixup.o
 .bss           0x00000000004abf20        0x0 MinGW-w64D/omfint.o
 .bss           0x00000000004abf20        0x0 MinGW-w64D/option.o
 .bss           0x00000000004abf20       0x10 MinGW-w64D/parser.o
 .bss           0x00000000004abf30        0x0 MinGW-w64D/posndir.o
 .bss           0x00000000004abf30        0x0 MinGW-w64D/preproc.o
 *fill*         0x00000000004abf30       0x10 
 .bss           0x00000000004abf40      0x2a0 MinGW-w64D/proc.o
 .bss           0x00000000004ac1e0        0x0 MinGW-w64D/queue.o
 .bss           0x00000000004ac1e0     0x1000 MinGW-w64D/reswords.o
 .bss           0x00000000004ad1e0        0x0 MinGW-w64D/safeseh.o
 .bss           0x00000000004ad1e0      0x500 MinGW-w64D/segment.o
 .bss           0x00000000004ad6e0       0x40 MinGW-w64D/simsegm.o
 .bss           0x00000000004ad720       0x20 MinGW-w64D/string.o
 .bss           0x00000000004ad740     0xfea0 MinGW-w64D/symbols.o
 .bss           0x00000000004bd5e0        0x0 MinGW-w64D/tbyte.o
 .bss           0x00000000004bd5e0        0x0 MinGW-w64D/tokenize.o
 .bss           0x00000000004bd5e0       0x10 MinGW-w64D/types.o
 .bss           0x00000000004bd5f0        0x0 C:/Program Files/mingw-w64/x86_64-5.3.0-posix-seh-rt_v4-rev0/mingw64/bin/../lib/gcc/x86_64-w64-mingw32/5.3.0/../../../../x86_64-w64-mingw32/lib/../lib/libmingw32.a(lib64_libmingw32_a-atonexit.o)
 .bss           0x00000000004bd5f0       0x10 C:/Program Files/mingw-w64/x86_64-5.3.0-posix-seh-rt_v4-rev0/mingw64/bin/../lib/gcc/x86_64-w64-mingw32/5.3.0/../../../../x86_64-w64-mingw32/lib/../lib/libmingw32.a(lib64_libmingw32_a-gccmain.o)
 .bss           0x00000000004bd600        0x0 C:/Program Files/mingw-w64/x86_64-5.3.0-posix-seh-rt_v4-rev0/mingw64/bin/../lib/gcc/x86_64-w64-mingw32/5.3.0/../../../../x86_64-w64-mingw32/lib/../lib/libmingw32.a(lib64_libmingw32_a-natstart.o)
 .bss           0x00000000004bd600        0x0 C:/Program Files/mingw-w64/x86_64-5.3.0-posix-seh-rt_v4-rev0/mingw64/bin/../lib/gcc/x86_64-w64-mingw32/5.3.0/../../../../x86_64-w64-mingw32/lib/../lib/libmingw32.a(lib64_libmingw32_a-wildcard.o)
 .bss           0x00000000004bd600       0x10 C:/Program Files/mingw-w64/x86_64-5.3.0-posix-seh-rt_v4-rev0/mingw64/bin/../lib/gcc/x86_64-w64-mingw32/5.3.0/../../../../x86_64-w64-mingw32/lib/../lib/libmingw32.a(lib64_libmingw32_a-charmax.o)
                0x00000000004bd600                mingw_initcharmax
 .bss           0x00000000004bd610        0x0 C:/Program Files/mingw-w64/x86_64-5.3.0-posix-seh-rt_v4-rev0/mingw64/bin/../lib/gcc/x86_64-w64-mingw32/5.3.0/../../../../x86_64-w64-mingw32/lib/../lib/libmingw32.a(lib64_libmingw32_a-dllargv.o)
 *fill*         0x00000000004bd610       0x30 
 .bss           0x00000000004bd640      0x5c0 C:/Program Files/mingw-w64/x86_64-5.3.0-posix-seh-rt_v4-rev0/mingw64/bin/../lib/gcc/x86_64-w64-mingw32/5.3.0/../../../../x86_64-w64-mingw32/lib/../lib/libmingw32.a(lib64_libmingw32_a-gs_support.o)
 .bss           0x00000000004bdc00       0x10 C:/Program Files/mingw-w64/x86_64-5.3.0-posix-seh-rt_v4-rev0/mingw64/bin/../lib/gcc/x86_64-w64-mingw32/5.3.0/../../../../x86_64-w64-mingw32/lib/../lib/libmingw32.a(lib64_libmingw32_a-_newmode.o)
                0x00000000004bdc00                _newmode
 .bss           0x00000000004bdc10       0x10 C:/Program Files/mingw-w64/x86_64-5.3.0-posix-seh-rt_v4-rev0/mingw64/bin/../lib/gcc/x86_64-w64-mingw32/5.3.0/../../../../x86_64-w64-mingw32/lib/../lib/libmingw32.a(lib64_libmingw32_a-tlssup.o)
                0x00000000004bdc10                mingw_initltssuo_force
                0x00000000004bdc14                mingw_initltsdyn_force
                0x00000000004bdc18                mingw_initltsdrot_force
                0x00000000004bdc1c                _tls_index
 .bss           0x00000000004bdc20        0x0 C:/Program Files/mingw-w64/x86_64-5.3.0-posix-seh-rt_v4-rev0/mingw64/bin/../lib/gcc/x86_64-w64-mingw32/5.3.0/../../../../x86_64-w64-mingw32/lib/../lib/libmingw32.a(lib64_libmingw32_a-cinitexe.o)
 .bss           0x00000000004bdc20       0x10 C:/Program Files/mingw-w64/x86_64-5.3.0-posix-seh-rt_v4-rev0/mingw64/bin/../lib/gcc/x86_64-w64-mingw32/5.3.0/../../../../x86_64-w64-mingw32/lib/../lib/libmingw32.a(lib64_libmingw32_a-merr.o)
 .bss           0x00000000004bdc30        0x0 C:/Program Files/mingw-w64/x86_64-5.3.0-posix-seh-rt_v4-rev0/mingw64/bin/../lib/gcc/x86_64-w64-mingw32/5.3.0/../../../../x86_64-w64-mingw32/lib/../lib/libmingw32.a(lib64_libmingw32_a-CRT_fp10.o)
 .bss           0x00000000004bdc30       0x10 C:/Program Files/mingw-w64/x86_64-5.3.0-posix-seh-rt_v4-rev0/mingw64/bin/../lib/gcc/x86_64-w64-mingw32/5.3.0/../../../../x86_64-w64-mingw32/lib/../lib/libmingw32.a(lib64_libmingw32_a-mingw_helpers.o)
                0x00000000004bdc30                mingw_app_type
 .bss           0x00000000004bdc40       0x10 C:/Program Files/mingw-w64/x86_64-5.3.0-posix-seh-rt_v4-rev0/mingw64/bin/../lib/gcc/x86_64-w64-mingw32/5.3.0/../../../../x86_64-w64-mingw32/lib/../lib/libmingw32.a(lib64_libmingw32_a-pseudo-reloc.o)
 .bss           0x00000000004bdc50       0x10 C:/Program Files/mingw-w64/x86_64-5.3.0-posix-seh-rt_v4-rev0/mingw64/bin/../lib/gcc/x86_64-w64-mingw32/5.3.0/../../../../x86_64-w64-mingw32/lib/../lib/libmingw32.a(lib64_libmingw32_a-xtxtmode.o)
                0x00000000004bdc50                _fmode
 *fill*         0x00000000004bdc60       0x20 
 .bss           0x00000000004bdc80      0x2c0 C:/Program Files/mingw-w64/x86_64-5.3.0-posix-seh-rt_v4-rev0/mingw64/bin/../lib/gcc/x86_64-w64-mingw32/5.3.0/../../../../x86_64-w64-mingw32/lib/../lib/libmingw32.a(lib64_libmingw32_a-crt_handler.o)
                0x00000000004bdc80                __mingw_oldexcpt_handler
 .bss           0x00000000004bdf40       0x60 C:/Program Files/mingw-w64/x86_64-5.3.0-posix-seh-rt_v4-rev0/mingw64/bin/../lib/gcc/x86_64-w64-mingw32/5.3.0/../../../../x86_64-w64-mingw32/lib/../lib/libmingw32.a(lib64_libmingw32_a-tlsthrd.o)
 .bss           0x00000000004bdfa0        0x0 C:/Program Files/mingw-w64/x86_64-5.3.0-posix-seh-rt_v4-rev0/mingw64/bin/../lib/gcc/x86_64-w64-mingw32/5.3.0/../../../../x86_64-w64-mingw32/lib/../lib/libmingw32.a(lib64_libmingw32_a-tlsmcrt.o)
 .bss           0x00000000004bdfa0       0x10 C:/Program Files/mingw-w64/x86_64-5.3.0-posix-seh-rt_v4-rev0/mingw64/bin/../lib/gcc/x86_64-w64-mingw32/5.3.0/../../../../x86_64-w64-mingw32/lib/../lib/libmingw32.a(lib64_libmingw32_a-pseudo-reloc-list.o)
 .bss           0x00000000004bdfb0        0x0 C:/Program Files/mingw-w64/x86_64-5.3.0-posix-seh-rt_v4-rev0/mingw64/bin/../lib/gcc/x86_64-w64-mingw32/5.3.0/../../../../x86_64-w64-mingw32/lib/../lib/libmingw32.a(lib64_libmingw32_a-pesect.o)
 .bss           0x00000000004bdfb0        0x0 C:/Program Files/mingw-w64/x86_64-5.3.0-posix-seh-rt_v4-rev0/mingw64/bin/../lib/gcc/x86_64-w64-mingw32/5.3.0/libgcc.a(_chkstk_ms.o)
 .bss           0x00000000004bdfb0        0x0 C:/Program Files/mingw-w64/x86_64-5.3.0-posix-seh-rt_v4-rev0/mingw64/bin/../lib/gcc/x86_64-w64-mingw32/5.3.0/libgcc.a(_ctors.o)
 .bss           0x00000000004bdfb0        0x0 C:/Program Files/mingw-w64/x86_64-5.3.0-posix-seh-rt_v4-rev0/mingw64/bin/../lib/gcc/x86_64-w64-mingw32/5.3.0/../../../../x86_64-w64-mingw32/lib/../lib/libmingwex.a(lib64_libmingwex_a-strtodnrp.o)
 .bss           0x00000000004bdfb0        0x0 C:/Program Files/mingw-w64/x86_64-5.3.0-posix-seh-rt_v4-rev0/mingw64/bin/../lib/gcc/x86_64-w64-mingw32/5.3.0/../../../../x86_64-w64-mingw32/lib/../lib/libmingwex.a(lib64_libmingwex_a-mingw_getsp.o)
 .bss           0x00000000004bdfb0        0x0 C:/Program Files/mingw-w64/x86_64-5.3.0-posix-seh-rt_v4-rev0/mingw64/bin/../lib/gcc/x86_64-w64-mingw32/5.3.0/../../../../x86_64-w64-mingw32/lib/../lib/libmingwex.a(lib64_libmingwex_a-mingw_matherr.o)
 .bss           0x00000000004bdfb0        0x0 C:/Program Files/mingw-w64/x86_64-5.3.0-posix-seh-rt_v4-rev0/mingw64/bin/../lib/gcc/x86_64-w64-mingw32/5.3.0/../../../../x86_64-w64-mingw32/lib/../lib/libmingwex.a(lib64_libmingwex_a-_findfirst64i32.o)
 .bss           0x00000000004bdfb0        0x0 C:/Program Files/mingw-w64/x86_64-5.3.0-posix-seh-rt_v4-rev0/mingw64/bin/../lib/gcc/x86_64-w64-mingw32/5.3.0/../../../../x86_64-w64-mingw32/lib/../lib/libmingwex.a(lib64_libmingwex_a-_findnext64i32.o)
 .bss           0x00000000004bdfb0        0x0 C:/Program Files/mingw-w64/x86_64-5.3.0-posix-seh-rt_v4-rev0/mingw64/bin/../lib/gcc/x86_64-w64-mingw32/5.3.0/../../../../x86_64-w64-mingw32/lib/../lib/libmingwex.a(lib64_libmingwex_a-_stat64i32.o)
 .bss           0x00000000004bdfb0        0x0 C:/Program Files/mingw-w64/x86_64-5.3.0-posix-seh-rt_v4-rev0/mingw64/bin/../lib/gcc/x86_64-w64-mingw32/5.3.0/../../../../x86_64-w64-mingw32/lib/../lib/libmingwex.a(lib64_libmingwex_a-strtodg.o)
 .bss           0x00000000004bdfb0        0x0 C:/Program Files/mingw-w64/x86_64-5.3.0-posix-seh-rt_v4-rev0/mingw64/bin/../lib/gcc/x86_64-w64-mingw32/5.3.0/../../../../x86_64-w64-mingw32/lib/../lib/libmingwex.a(lib64_libmingwex_a-sum.o)
 .bss           0x00000000004bdfb0        0x0 C:/Program Files/mingw-w64/x86_64-5.3.0-posix-seh-rt_v4-rev0/mingw64/bin/../lib/gcc/x86_64-w64-mingw32/5.3.0/../../../../x86_64-w64-mingw32/lib/../lib/libmingwex.a(lib64_libmingwex_a-gethex.o)
 .bss           0x00000000004bdfb0        0x0 C:/Program Files/mingw-w64/x86_64-5.3.0-posix-seh-rt_v4-rev0/mingw64/bin/../lib/gcc/x86_64-w64-mingw32/5.3.0/../../../../x86_64-w64-mingw32/lib/../lib/libmingwex.a(lib64_libmingwex_a-gmisc.o)
 .bss           0x00000000004bdfb0        0x0 C:/Program Files/mingw-w64/x86_64-5.3.0-posix-seh-rt_v4-rev0/mingw64/bin/../lib/gcc/x86_64-w64-mingw32/5.3.0/../../../../x86_64-w64-mingw32/lib/../lib/libmingwex.a(lib64_libmingwex_a-hd_init.o)
 .bss           0x00000000004bdfb0        0x0 C:/Program Files/mingw-w64/x86_64-5.3.0-posix-seh-rt_v4-rev0/mingw64/bin/../lib/gcc/x86_64-w64-mingw32/5.3.0/../../../../x86_64-w64-mingw32/lib/../lib/libmingwex.a(lib64_libmingwex_a-hexnan.o)
 *fill*         0x00000000004bdfb0       0x10 
 .bss           0x00000000004bdfc0      0xa40 C:/Program Files/mingw-w64/x86_64-5.3.0-posix-seh-rt_v4-rev0/mingw64/bin/../lib/gcc/x86_64-w64-mingw32/5.3.0/../../../../x86_64-w64-mingw32/lib/../lib/libmingwex.a(lib64_libmingwex_a-misc.o)
 .bss           0x00000000004bea00        0x0 C:/Program Files/mingw-w64/x86_64-5.3.0-posix-seh-rt_v4-rev0/mingw64/bin/../lib/gcc/x86_64-w64-mingw32/5.3.0/../../../../x86_64-w64-mingw32/lib/../lib/libmingwex.a(lib64_libmingwex_a-smisc.o)
 .bss           0x00000000004bea00        0x0 C:/Program Files/mingw-w64/x86_64-5.3.0-posix-seh-rt_v4-rev0/mingw64/bin/../lib/gcc/x86_64-w64-mingw32/5.3.0/../../../../x86_64-w64-mingw32/lib/../lib/libmsvcrt.a(dkpfs01245.o)
 .bss           0x00000000004bea00        0x0 C:/Program Files/mingw-w64/x86_64-5.3.0-posix-seh-rt_v4-rev0/mingw64/bin/../lib/gcc/x86_64-w64-mingw32/5.3.0/../../../../x86_64-w64-mingw32/lib/../lib/libmsvcrt.a(dkpfs01243.o)
 .bss           0x00000000004bea00        0x0 C:/Program Files/mingw-w64/x86_64-5.3.0-posix-seh-rt_v4-rev0/mingw64/bin/../lib/gcc/x86_64-w64-mingw32/5.3.0/../../../../x86_64-w64-mingw32/lib/../lib/libmsvcrt.a(dkpfs01239.o)
 .bss           0x00000000004bea00        0x0 C:/Program Files/mingw-w64/x86_64-5.3.0-posix-seh-rt_v4-rev0/mingw64/bin/../lib/gcc/x86_64-w64-mingw32/5.3.0/../../../../x86_64-w64-mingw32/lib/../lib/libmsvcrt.a(dkpfs01233.o)
 .bss           0x00000000004bea00        0x0 C:/Program Files/mingw-w64/x86_64-5.3.0-posix-seh-rt_v4-rev0/mingw64/bin/../lib/gcc/x86_64-w64-mingw32/5.3.0/../../../../x86_64-w64-mingw32/lib/../lib/libmsvcrt.a(dkpfs01215.o)
 .bss           0x00000000004bea00        0x0 C:/Program Files/mingw-w64/x86_64-5.3.0-posix-seh-rt_v4-rev0/mingw64/bin/../lib/gcc/x86_64-w64-mingw32/5.3.0/../../../../x86_64-w64-mingw32/lib/../lib/libmsvcrt.a(dkpfs01208.o)
 .bss           0x00000000004bea00        0x0 C:/Program Files/mingw-w64/x86_64-5.3.0-posix-seh-rt_v4-rev0/mingw64/bin/../lib/gcc/x86_64-w64-mingw32/5.3.0/../../../../x86_64-w64-mingw32/lib/../lib/libmsvcrt.a(dkpfs01207.o)
 .bss           0x00000000004bea00        0x0 C:/Program Files/mingw-w64/x86_64-5.3.0-posix-seh-rt_v4-rev0/mingw64/bin/../lib/gcc/x86_64-w64-mingw32/5.3.0/../../../../x86_64-w64-mingw32/lib/../lib/libmsvcrt.a(dkpfs01204.o)
 .bss           0x00000000004bea00        0x0 C:/Program Files/mingw-w64/x86_64-5.3.0-posix-seh-rt_v4-rev0/mingw64/bin/../lib/gcc/x86_64-w64-mingw32/5.3.0/../../../../x86_64-w64-mingw32/lib/../lib/libmsvcrt.a(dkpfs01199.o)
 .bss           0x00000000004bea00        0x0 C:/Program Files/mingw-w64/x86_64-5.3.0-posix-seh-rt_v4-rev0/mingw64/bin/../lib/gcc/x86_64-w64-mingw32/5.3.0/../../../../x86_64-w64-mingw32/lib/../lib/libmsvcrt.a(dkpfs01197.o)
 .bss           0x00000000004bea00        0x0 C:/Program Files/mingw-w64/x86_64-5.3.0-posix-seh-rt_v4-rev0/mingw64/bin/../lib/gcc/x86_64-w64-mingw32/5.3.0/../../../../x86_64-w64-mingw32/lib/../lib/libmsvcrt.a(dkpfs01196.o)
 .bss           0x00000000004bea00        0x0 C:/Program Files/mingw-w64/x86_64-5.3.0-posix-seh-rt_v4-rev0/mingw64/bin/../lib/gcc/x86_64-w64-mingw32/5.3.0/../../../../x86_64-w64-mingw32/lib/../lib/libmsvcrt.a(dkpfs01194.o)
 .bss           0x00000000004bea00        0x0 C:/Program Files/mingw-w64/x86_64-5.3.0-posix-seh-rt_v4-rev0/mingw64/bin/../lib/gcc/x86_64-w64-mingw32/5.3.0/../../../../x86_64-w64-mingw32/lib/../lib/libmsvcrt.a(dkpfs01188.o)
 .bss           0x00000000004bea00        0x0 C:/Program Files/mingw-w64/x86_64-5.3.0-posix-seh-rt_v4-rev0/mingw64/bin/../lib/gcc/x86_64-w64-mingw32/5.3.0/../../../../x86_64-w64-mingw32/lib/../lib/libmsvcrt.a(dkpfs01183.o)
 .bss           0x00000000004bea00        0x0 C:/Program Files/mingw-w64/x86_64-5.3.0-posix-seh-rt_v4-rev0/mingw64/bin/../lib/gcc/x86_64-w64-mingw32/5.3.0/../../../../x86_64-w64-mingw32/lib/../lib/libmsvcrt.a(dkpfs01176.o)
 .bss           0x00000000004bea00        0x0 C:/Program Files/mingw-w64/x86_64-5.3.0-posix-seh-rt_v4-rev0/mingw64/bin/../lib/gcc/x86_64-w64-mingw32/5.3.0/../../../../x86_64-w64-mingw32/lib/../lib/libmsvcrt.a(dkpfs01174.o)
 .bss           0x00000000004bea00        0x0 C:/Program Files/mingw-w64/x86_64-5.3.0-posix-seh-rt_v4-rev0/mingw64/bin/../lib/gcc/x86_64-w64-mingw32/5.3.0/../../../../x86_64-w64-mingw32/lib/../lib/libmsvcrt.a(dkpfs01169.o)
 .bss           0x00000000004bea00        0x0 C:/Program Files/mingw-w64/x86_64-5.3.0-posix-seh-rt_v4-rev0/mingw64/bin/../lib/gcc/x86_64-w64-mingw32/5.3.0/../../../../x86_64-w64-mingw32/lib/../lib/libmsvcrt.a(dkpfs01166.o)
 .bss           0x00000000004bea00        0x0 C:/Program Files/mingw-w64/x86_64-5.3.0-posix-seh-rt_v4-rev0/mingw64/bin/../lib/gcc/x86_64-w64-mingw32/5.3.0/../../../../x86_64-w64-mingw32/lib/../lib/libmsvcrt.a(dkpfs01165.o)
 .bss           0x00000000004bea00        0x0 C:/Program Files/mingw-w64/x86_64-5.3.0-posix-seh-rt_v4-rev0/mingw64/bin/../lib/gcc/x86_64-w64-mingw32/5.3.0/../../../../x86_64-w64-mingw32/lib/../lib/libmsvcrt.a(dkpfs01162.o)
 .bss           0x00000000004bea00        0x0 C:/Program Files/mingw-w64/x86_64-5.3.0-posix-seh-rt_v4-rev0/mingw64/bin/../lib/gcc/x86_64-w64-mingw32/5.3.0/../../../../x86_64-w64-mingw32/lib/../lib/libmsvcrt.a(dkpfs01155.o)
 .bss           0x00000000004bea00        0x0 C:/Program Files/mingw-w64/x86_64-5.3.0-posix-seh-rt_v4-rev0/mingw64/bin/../lib/gcc/x86_64-w64-mingw32/5.3.0/../../../../x86_64-w64-mingw32/lib/../lib/libmsvcrt.a(dkpfs01154.o)
 .bss           0x00000000004bea00        0x0 C:/Program Files/mingw-w64/x86_64-5.3.0-posix-seh-rt_v4-rev0/mingw64/bin/../lib/gcc/x86_64-w64-mingw32/5.3.0/../../../../x86_64-w64-mingw32/lib/../lib/libmsvcrt.a(dkpfs01153.o)
 .bss           0x00000000004bea00        0x0 C:/Program Files/mingw-w64/x86_64-5.3.0-posix-seh-rt_v4-rev0/mingw64/bin/../lib/gcc/x86_64-w64-mingw32/5.3.0/../../../../x86_64-w64-mingw32/lib/../lib/libmsvcrt.a(dkpfs01152.o)
 .bss           0x00000000004bea00        0x0 C:/Program Files/mingw-w64/x86_64-5.3.0-posix-seh-rt_v4-rev0/mingw64/bin/../lib/gcc/x86_64-w64-mingw32/5.3.0/../../../../x86_64-w64-mingw32/lib/../lib/libmsvcrt.a(dkpfs01145.o)
 .bss           0x00000000004bea00        0x0 C:/Program Files/mingw-w64/x86_64-5.3.0-posix-seh-rt_v4-rev0/mingw64/bin/../lib/gcc/x86_64-w64-mingw32/5.3.0/../../../../x86_64-w64-mingw32/lib/../lib/libmsvcrt.a(dkpfs01144.o)
 .bss           0x00000000004bea00        0x0 C:/Program Files/mingw-w64/x86_64-5.3.0-posix-seh-rt_v4-rev0/mingw64/bin/../lib/gcc/x86_64-w64-mingw32/5.3.0/../../../../x86_64-w64-mingw32/lib/../lib/libmsvcrt.a(dkpfs01139.o)
 .bss           0x00000000004bea00        0x0 C:/Program Files/mingw-w64/x86_64-5.3.0-posix-seh-rt_v4-rev0/mingw64/bin/../lib/gcc/x86_64-w64-mingw32/5.3.0/../../../../x86_64-w64-mingw32/lib/../lib/libmsvcrt.a(dkpfs01138.o)
 .bss           0x00000000004bea00        0x0 C:/Program Files/mingw-w64/x86_64-5.3.0-posix-seh-rt_v4-rev0/mingw64/bin/../lib/gcc/x86_64-w64-mingw32/5.3.0/../../../../x86_64-w64-mingw32/lib/../lib/libmsvcrt.a(dkpfs01118.o)
 .bss           0x00000000004bea00        0x0 C:/Program Files/mingw-w64/x86_64-5.3.0-posix-seh-rt_v4-rev0/mingw64/bin/../lib/gcc/x86_64-w64-mingw32/5.3.0/../../../../x86_64-w64-mingw32/lib/../lib/libmsvcrt.a(dkpfs01110.o)
 .bss           0x00000000004bea00        0x0 C:/Program Files/mingw-w64/x86_64-5.3.0-posix-seh-rt_v4-rev0/mingw64/bin/../lib/gcc/x86_64-w64-mingw32/5.3.0/../../../../x86_64-w64-mingw32/lib/../lib/libmsvcrt.a(dkpfs01109.o)
 .bss           0x00000000004bea00        0x0 C:/Program Files/mingw-w64/x86_64-5.3.0-posix-seh-rt_v4-rev0/mingw64/bin/../lib/gcc/x86_64-w64-mingw32/5.3.0/../../../../x86_64-w64-mingw32/lib/../lib/libmsvcrt.a(dkpfs01102.o)
 .bss           0x00000000004bea00        0x0 C:/Program Files/mingw-w64/x86_64-5.3.0-posix-seh-rt_v4-rev0/mingw64/bin/../lib/gcc/x86_64-w64-mingw32/5.3.0/../../../../x86_64-w64-mingw32/lib/../lib/libmsvcrt.a(dkpfs01100.o)
 .bss           0x00000000004bea00        0x0 C:/Program Files/mingw-w64/x86_64-5.3.0-posix-seh-rt_v4-rev0/mingw64/bin/../lib/gcc/x86_64-w64-mingw32/5.3.0/../../../../x86_64-w64-mingw32/lib/../lib/libmsvcrt.a(dkpfs01097.o)
 .bss           0x00000000004bea00        0x0 C:/Program Files/mingw-w64/x86_64-5.3.0-posix-seh-rt_v4-rev0/mingw64/bin/../lib/gcc/x86_64-w64-mingw32/5.3.0/../../../../x86_64-w64-mingw32/lib/../lib/libmsvcrt.a(dkpfs01094.o)
 .bss           0x00000000004bea00        0x0 C:/Program Files/mingw-w64/x86_64-5.3.0-posix-seh-rt_v4-rev0/mingw64/bin/../lib/gcc/x86_64-w64-mingw32/5.3.0/../../../../x86_64-w64-mingw32/lib/../lib/libmsvcrt.a(dkpfs01092.o)
 .bss           0x00000000004bea00        0x0 C:/Program Files/mingw-w64/x86_64-5.3.0-posix-seh-rt_v4-rev0/mingw64/bin/../lib/gcc/x86_64-w64-mingw32/5.3.0/../../../../x86_64-w64-mingw32/lib/../lib/libmsvcrt.a(dkpfs01086.o)
 .bss           0x00000000004bea00        0x0 C:/Program Files/mingw-w64/x86_64-5.3.0-posix-seh-rt_v4-rev0/mingw64/bin/../lib/gcc/x86_64-w64-mingw32/5.3.0/../../../../x86_64-w64-mingw32/lib/../lib/libmsvcrt.a(dkpfs01085.o)
 .bss           0x00000000004bea00        0x0 C:/Program Files/mingw-w64/x86_64-5.3.0-posix-seh-rt_v4-rev0/mingw64/bin/../lib/gcc/x86_64-w64-mingw32/5.3.0/../../../../x86_64-w64-mingw32/lib/../lib/libmsvcrt.a(dkpfs01082.o)
 .bss           0x00000000004bea00        0x0 C:/Program Files/mingw-w64/x86_64-5.3.0-posix-seh-rt_v4-rev0/mingw64/bin/../lib/gcc/x86_64-w64-mingw32/5.3.0/../../../../x86_64-w64-mingw32/lib/../lib/libmsvcrt.a(dkpfs01079.o)
 .bss           0x00000000004bea00        0x0 C:/Program Files/mingw-w64/x86_64-5.3.0-posix-seh-rt_v4-rev0/mingw64/bin/../lib/gcc/x86_64-w64-mingw32/5.3.0/../../../../x86_64-w64-mingw32/lib/../lib/libmsvcrt.a(dkpfs01077.o)
 .bss           0x00000000004bea00        0x0 C:/Program Files/mingw-w64/x86_64-5.3.0-posix-seh-rt_v4-rev0/mingw64/bin/../lib/gcc/x86_64-w64-mingw32/5.3.0/../../../../x86_64-w64-mingw32/lib/../lib/libmsvcrt.a(dkpfs01067.o)
 .bss           0x00000000004bea00        0x0 C:/Program Files/mingw-w64/x86_64-5.3.0-posix-seh-rt_v4-rev0/mingw64/bin/../lib/gcc/x86_64-w64-mingw32/5.3.0/../../../../x86_64-w64-mingw32/lib/../lib/libmsvcrt.a(dkpfs01064.o)
 .bss           0x00000000004bea00        0x0 C:/Program Files/mingw-w64/x86_64-5.3.0-posix-seh-rt_v4-rev0/mingw64/bin/../lib/gcc/x86_64-w64-mingw32/5.3.0/../../../../x86_64-w64-mingw32/lib/../lib/libmsvcrt.a(dkpfs01060.o)
 .bss           0x00000000004bea00        0x0 C:/Program Files/mingw-w64/x86_64-5.3.0-posix-seh-rt_v4-rev0/mingw64/bin/../lib/gcc/x86_64-w64-mingw32/5.3.0/../../../../x86_64-w64-mingw32/lib/../lib/libmsvcrt.a(dkpfs01052.o)
 .bss           0x00000000004bea00        0x0 C:/Program Files/mingw-w64/x86_64-5.3.0-posix-seh-rt_v4-rev0/mingw64/bin/../lib/gcc/x86_64-w64-mingw32/5.3.0/../../../../x86_64-w64-mingw32/lib/../lib/libmsvcrt.a(dkpfs01047.o)
 .bss           0x00000000004bea00        0x0 C:/Program Files/mingw-w64/x86_64-5.3.0-posix-seh-rt_v4-rev0/mingw64/bin/../lib/gcc/x86_64-w64-mingw32/5.3.0/../../../../x86_64-w64-mingw32/lib/../lib/libmsvcrt.a(dkpfs01043.o)
 .bss           0x00000000004bea00        0x0 C:/Program Files/mingw-w64/x86_64-5.3.0-posix-seh-rt_v4-rev0/mingw64/bin/../lib/gcc/x86_64-w64-mingw32/5.3.0/../../../../x86_64-w64-mingw32/lib/../lib/libmsvcrt.a(dkpfs01030.o)
 .bss           0x00000000004bea00        0x0 C:/Program Files/mingw-w64/x86_64-5.3.0-posix-seh-rt_v4-rev0/mingw64/bin/../lib/gcc/x86_64-w64-mingw32/5.3.0/../../../../x86_64-w64-mingw32/lib/../lib/libmsvcrt.a(dkpfs00819.o)
 .bss           0x00000000004bea00        0x0 C:/Program Files/mingw-w64/x86_64-5.3.0-posix-seh-rt_v4-rev0/mingw64/bin/../lib/gcc/x86_64-w64-mingw32/5.3.0/../../../../x86_64-w64-mingw32/lib/../lib/libmsvcrt.a(dkpfs00807.o)
 .bss           0x00000000004bea00        0x0 C:/Program Files/mingw-w64/x86_64-5.3.0-posix-seh-rt_v4-rev0/mingw64/bin/../lib/gcc/x86_64-w64-mingw32/5.3.0/../../../../x86_64-w64-mingw32/lib/../lib/libmsvcrt.a(dkpfs00768.o)
 .bss           0x00000000004bea00        0x0 C:/Program Files/mingw-w64/x86_64-5.3.0-posix-seh-rt_v4-rev0/mingw64/bin/../lib/gcc/x86_64-w64-mingw32/5.3.0/../../../../x86_64-w64-mingw32/lib/../lib/libmsvcrt.a(dkpfs00731.o)
 .bss           0x00000000004bea00        0x0 C:/Program Files/mingw-w64/x86_64-5.3.0-posix-seh-rt_v4-rev0/mingw64/bin/../lib/gcc/x86_64-w64-mingw32/5.3.0/../../../../x86_64-w64-mingw32/lib/../lib/libmsvcrt.a(dkpfs00719.o)
 .bss           0x00000000004bea00        0x0 C:/Program Files/mingw-w64/x86_64-5.3.0-posix-seh-rt_v4-rev0/mingw64/bin/../lib/gcc/x86_64-w64-mingw32/5.3.0/../../../../x86_64-w64-mingw32/lib/../lib/libmsvcrt.a(dkpfs00667.o)
 .bss           0x00000000004bea00        0x0 C:/Program Files/mingw-w64/x86_64-5.3.0-posix-seh-rt_v4-rev0/mingw64/bin/../lib/gcc/x86_64-w64-mingw32/5.3.0/../../../../x86_64-w64-mingw32/lib/../lib/libmsvcrt.a(dkpfs00611.o)
 .bss           0x00000000004bea00        0x0 C:/Program Files/mingw-w64/x86_64-5.3.0-posix-seh-rt_v4-rev0/mingw64/bin/../lib/gcc/x86_64-w64-mingw32/5.3.0/../../../../x86_64-w64-mingw32/lib/../lib/libmsvcrt.a(dkpfs00599.o)
 .bss           0x00000000004bea00        0x0 C:/Program Files/mingw-w64/x86_64-5.3.0-posix-seh-rt_v4-rev0/mingw64/bin/../lib/gcc/x86_64-w64-mingw32/5.3.0/../../../../x86_64-w64-mingw32/lib/../lib/libmsvcrt.a(dkpfs00439.o)
 .bss           0x00000000004bea00        0x0 C:/Program Files/mingw-w64/x86_64-5.3.0-posix-seh-rt_v4-rev0/mingw64/bin/../lib/gcc/x86_64-w64-mingw32/5.3.0/../../../../x86_64-w64-mingw32/lib/../lib/libmsvcrt.a(dkpfs00330.o)
 .bss           0x00000000004bea00        0x0 C:/Program Files/mingw-w64/x86_64-5.3.0-posix-seh-rt_v4-rev0/mingw64/bin/../lib/gcc/x86_64-w64-mingw32/5.3.0/../../../../x86_64-w64-mingw32/lib/../lib/libmsvcrt.a(dkpfs00251.o)
 .bss           0x00000000004bea00        0x0 C:/Program Files/mingw-w64/x86_64-5.3.0-posix-seh-rt_v4-rev0/mingw64/bin/../lib/gcc/x86_64-w64-mingw32/5.3.0/../../../../x86_64-w64-mingw32/lib/../lib/libmsvcrt.a(dkpfs00242.o)
 .bss           0x00000000004bea00        0x0 C:/Program Files/mingw-w64/x86_64-5.3.0-posix-seh-rt_v4-rev0/mingw64/bin/../lib/gcc/x86_64-w64-mingw32/5.3.0/../../../../x86_64-w64-mingw32/lib/../lib/libmsvcrt.a(dkpfs00238.o)
 .bss           0x00000000004bea00        0x0 C:/Program Files/mingw-w64/x86_64-5.3.0-posix-seh-rt_v4-rev0/mingw64/bin/../lib/gcc/x86_64-w64-mingw32/5.3.0/../../../../x86_64-w64-mingw32/lib/../lib/libmsvcrt.a(dkpfs00235.o)
 .bss           0x00000000004bea00        0x0 C:/Program Files/mingw-w64/x86_64-5.3.0-posix-seh-rt_v4-rev0/mingw64/bin/../lib/gcc/x86_64-w64-mingw32/5.3.0/../../../../x86_64-w64-mingw32/lib/../lib/libmsvcrt.a(dkpfs00234.o)
 .bss           0x00000000004bea00        0x0 C:/Program Files/mingw-w64/x86_64-5.3.0-posix-seh-rt_v4-rev0/mingw64/bin/../lib/gcc/x86_64-w64-mingw32/5.3.0/../../../../x86_64-w64-mingw32/lib/../lib/libmsvcrt.a(dkpfs00201.o)
 .bss           0x00000000004bea00        0x0 C:/Program Files/mingw-w64/x86_64-5.3.0-posix-seh-rt_v4-rev0/mingw64/bin/../lib/gcc/x86_64-w64-mingw32/5.3.0/../../../../x86_64-w64-mingw32/lib/../lib/libmsvcrt.a(dkpfs00149.o)
 .bss           0x00000000004bea00        0x0 C:/Program Files/mingw-w64/x86_64-5.3.0-posix-seh-rt_v4-rev0/mingw64/bin/../lib/gcc/x86_64-w64-mingw32/5.3.0/../../../../x86_64-w64-mingw32/lib/../lib/libmsvcrt.a(dkpfs00140.o)
 .bss           0x00000000004bea00        0x0 C:/Program Files/mingw-w64/x86_64-5.3.0-posix-seh-rt_v4-rev0/mingw64/bin/../lib/gcc/x86_64-w64-mingw32/5.3.0/../../../../x86_64-w64-mingw32/lib/../lib/libmsvcrt.a(dkpfs00122.o)
 .bss           0x00000000004bea00        0x0 C:/Program Files/mingw-w64/x86_64-5.3.0-posix-seh-rt_v4-rev0/mingw64/bin/../lib/gcc/x86_64-w64-mingw32/5.3.0/../../../../x86_64-w64-mingw32/lib/../lib/libmsvcrt.a(dkpfs00115.o)
 .bss           0x00000000004bea00        0x0 C:/Program Files/mingw-w64/x86_64-5.3.0-posix-seh-rt_v4-rev0/mingw64/bin/../lib/gcc/x86_64-w64-mingw32/5.3.0/../../../../x86_64-w64-mingw32/lib/../lib/libmsvcrt.a(dkpfs00098.o)
 .bss           0x00000000004bea00        0x0 C:/Program Files/mingw-w64/x86_64-5.3.0-posix-seh-rt_v4-rev0/mingw64/bin/../lib/gcc/x86_64-w64-mingw32/5.3.0/../../../../x86_64-w64-mingw32/lib/../lib/libmsvcrt.a(dkpfs00096.o)
 .bss           0x00000000004bea00        0x0 C:/Program Files/mingw-w64/x86_64-5.3.0-posix-seh-rt_v4-rev0/mingw64/bin/../lib/gcc/x86_64-w64-mingw32/5.3.0/../../../../x86_64-w64-mingw32/lib/../lib/libmsvcrt.a(dkpfs00090.o)
 .bss           0x00000000004bea00        0x0 C:/Program Files/mingw-w64/x86_64-5.3.0-posix-seh-rt_v4-rev0/mingw64/bin/../lib/gcc/x86_64-w64-mingw32/5.3.0/../../../../x86_64-w64-mingw32/lib/../lib/libmsvcrt.a(dkpfs00083.o)
 .bss           0x00000000004bea00        0x0 C:/Program Files/mingw-w64/x86_64-5.3.0-posix-seh-rt_v4-rev0/mingw64/bin/../lib/gcc/x86_64-w64-mingw32/5.3.0/../../../../x86_64-w64-mingw32/lib/../lib/libmsvcrt.a(dkpfs00082.o)
 .bss           0x00000000004bea00        0x0 C:/Program Files/mingw-w64/x86_64-5.3.0-posix-seh-rt_v4-rev0/mingw64/bin/../lib/gcc/x86_64-w64-mingw32/5.3.0/../../../../x86_64-w64-mingw32/lib/../lib/libmsvcrt.a(dkpfs00081.o)
 .bss           0x00000000004bea00        0x0 C:/Program Files/mingw-w64/x86_64-5.3.0-posix-seh-rt_v4-rev0/mingw64/bin/../lib/gcc/x86_64-w64-mingw32/5.3.0/../../../../x86_64-w64-mingw32/lib/../lib/libmsvcrt.a(dkpfs00078.o)
 .bss           0x00000000004bea00        0x0 C:/Program Files/mingw-w64/x86_64-5.3.0-posix-seh-rt_v4-rev0/mingw64/bin/../lib/gcc/x86_64-w64-mingw32/5.3.0/../../../../x86_64-w64-mingw32/lib/../lib/libmsvcrt.a(dkpfs00055.o)
 .bss           0x00000000004bea00       0x10 C:/Program Files/mingw-w64/x86_64-5.3.0-posix-seh-rt_v4-rev0/mingw64/bin/../lib/gcc/x86_64-w64-mingw32/5.3.0/../../../../x86_64-w64-mingw32/lib/../lib/libmsvcrt.a(lib64_libmsvcrt_a-invalid_parameter_handler.o)
 .bss           0x00000000004bea10        0x0 C:/Program Files/mingw-w64/x86_64-5.3.0-posix-seh-rt_v4-rev0/mingw64/bin/../lib/gcc/x86_64-w64-mingw32/5.3.0/../../../../x86_64-w64-mingw32/lib/../lib/libmsvcrt.a(dkpfh.o)
 .bss           0x00000000004bea10        0x0 C:/Program Files/mingw-w64/x86_64-5.3.0-posix-seh-rt_v4-rev0/mingw64/bin/../lib/gcc/x86_64-w64-mingw32/5.3.0/../../../../x86_64-w64-mingw32/lib/../lib/libmsvcrt.a(dkpft.o)
 .bss           0x00000000004bea10        0x0 C:/Program Files/mingw-w64/x86_64-5.3.0-posix-seh-rt_v4-rev0/mingw64/bin/../lib/gcc/x86_64-w64-mingw32/5.3.0/../../../../x86_64-w64-mingw32/lib/../lib/libkernel32.a(dqmfs01266.o)
 .bss           0x00000000004bea10        0x0 C:/Program Files/mingw-w64/x86_64-5.3.0-posix-seh-rt_v4-rev0/mingw64/bin/../lib/gcc/x86_64-w64-mingw32/5.3.0/../../../../x86_64-w64-mingw32/lib/../lib/libkernel32.a(dqmfs01264.o)
 .bss           0x00000000004bea10        0x0 C:/Program Files/mingw-w64/x86_64-5.3.0-posix-seh-rt_v4-rev0/mingw64/bin/../lib/gcc/x86_64-w64-mingw32/5.3.0/../../../../x86_64-w64-mingw32/lib/../lib/libkernel32.a(dqmfs01261.o)
 .bss           0x00000000004bea10        0x0 C:/Program Files/mingw-w64/x86_64-5.3.0-posix-seh-rt_v4-rev0/mingw64/bin/../lib/gcc/x86_64-w64-mingw32/5.3.0/../../../../x86_64-w64-mingw32/lib/../lib/libkernel32.a(dqmfs01258.o)
 .bss           0x00000000004bea10        0x0 C:/Program Files/mingw-w64/x86_64-5.3.0-posix-seh-rt_v4-rev0/mingw64/bin/../lib/gcc/x86_64-w64-mingw32/5.3.0/../../../../x86_64-w64-mingw32/lib/../lib/libkernel32.a(dqmfs01234.o)
 .bss           0x00000000004bea10        0x0 C:/Program Files/mingw-w64/x86_64-5.3.0-posix-seh-rt_v4-rev0/mingw64/bin/../lib/gcc/x86_64-w64-mingw32/5.3.0/../../../../x86_64-w64-mingw32/lib/../lib/libkernel32.a(dqmfs01221.o)
 .bss           0x00000000004bea10        0x0 C:/Program Files/mingw-w64/x86_64-5.3.0-posix-seh-rt_v4-rev0/mingw64/bin/../lib/gcc/x86_64-w64-mingw32/5.3.0/../../../../x86_64-w64-mingw32/lib/../lib/libkernel32.a(dqmfs01214.o)
 .bss           0x00000000004bea10        0x0 C:/Program Files/mingw-w64/x86_64-5.3.0-posix-seh-rt_v4-rev0/mingw64/bin/../lib/gcc/x86_64-w64-mingw32/5.3.0/../../../../x86_64-w64-mingw32/lib/../lib/libkernel32.a(dqmfs01200.o)
 .bss           0x00000000004bea10        0x0 C:/Program Files/mingw-w64/x86_64-5.3.0-posix-seh-rt_v4-rev0/mingw64/bin/../lib/gcc/x86_64-w64-mingw32/5.3.0/../../../../x86_64-w64-mingw32/lib/../lib/libkernel32.a(dqmfs01187.o)
 .bss           0x00000000004bea10        0x0 C:/Program Files/mingw-w64/x86_64-5.3.0-posix-seh-rt_v4-rev0/mingw64/bin/../lib/gcc/x86_64-w64-mingw32/5.3.0/../../../../x86_64-w64-mingw32/lib/../lib/libkernel32.a(dqmfs01044.o)
 .bss           0x00000000004bea10        0x0 C:/Program Files/mingw-w64/x86_64-5.3.0-posix-seh-rt_v4-rev0/mingw64/bin/../lib/gcc/x86_64-w64-mingw32/5.3.0/../../../../x86_64-w64-mingw32/lib/../lib/libkernel32.a(dqmfs01037.o)
 .bss           0x00000000004bea10        0x0 C:/Program Files/mingw-w64/x86_64-5.3.0-posix-seh-rt_v4-rev0/mingw64/bin/../lib/gcc/x86_64-w64-mingw32/5.3.0/../../../../x86_64-w64-mingw32/lib/../lib/libkernel32.a(dqmfs01030.o)
 .bss           0x00000000004bea10        0x0 C:/Program Files/mingw-w64/x86_64-5.3.0-posix-seh-rt_v4-rev0/mingw64/bin/../lib/gcc/x86_64-w64-mingw32/5.3.0/../../../../x86_64-w64-mingw32/lib/../lib/libkernel32.a(dqmfs01029.o)
 .bss           0x00000000004bea10        0x0 C:/Program Files/mingw-w64/x86_64-5.3.0-posix-seh-rt_v4-rev0/mingw64/bin/../lib/gcc/x86_64-w64-mingw32/5.3.0/../../../../x86_64-w64-mingw32/lib/../lib/libkernel32.a(dqmfs00958.o)
 .bss           0x00000000004bea10        0x0 C:/Program Files/mingw-w64/x86_64-5.3.0-posix-seh-rt_v4-rev0/mingw64/bin/../lib/gcc/x86_64-w64-mingw32/5.3.0/../../../../x86_64-w64-mingw32/lib/../lib/libkernel32.a(dqmfs00844.o)
 .bss           0x00000000004bea10        0x0 C:/Program Files/mingw-w64/x86_64-5.3.0-posix-seh-rt_v4-rev0/mingw64/bin/../lib/gcc/x86_64-w64-mingw32/5.3.0/../../../../x86_64-w64-mingw32/lib/../lib/libkernel32.a(dqmfs00762.o)
 .bss           0x00000000004bea10        0x0 C:/Program Files/mingw-w64/x86_64-5.3.0-posix-seh-rt_v4-rev0/mingw64/bin/../lib/gcc/x86_64-w64-mingw32/5.3.0/../../../../x86_64-w64-mingw32/lib/../lib/libkernel32.a(dqmfs00678.o)
 .bss           0x00000000004bea10        0x0 C:/Program Files/mingw-w64/x86_64-5.3.0-posix-seh-rt_v4-rev0/mingw64/bin/../lib/gcc/x86_64-w64-mingw32/5.3.0/../../../../x86_64-w64-mingw32/lib/../lib/libkernel32.a(dqmfs00651.o)
 .bss           0x00000000004bea10        0x0 C:/Program Files/mingw-w64/x86_64-5.3.0-posix-seh-rt_v4-rev0/mingw64/bin/../lib/gcc/x86_64-w64-mingw32/5.3.0/../../../../x86_64-w64-mingw32/lib/../lib/libkernel32.a(dqmfs00628.o)
 .bss           0x00000000004bea10        0x0 C:/Program Files/mingw-w64/x86_64-5.3.0-posix-seh-rt_v4-rev0/mingw64/bin/../lib/gcc/x86_64-w64-mingw32/5.3.0/../../../../x86_64-w64-mingw32/lib/../lib/libkernel32.a(dqmfs00599.o)
 .bss           0x00000000004bea10        0x0 C:/Program Files/mingw-w64/x86_64-5.3.0-posix-seh-rt_v4-rev0/mingw64/bin/../lib/gcc/x86_64-w64-mingw32/5.3.0/../../../../x86_64-w64-mingw32/lib/../lib/libkernel32.a(dqmfs00549.o)
 .bss           0x00000000004bea10        0x0 C:/Program Files/mingw-w64/x86_64-5.3.0-posix-seh-rt_v4-rev0/mingw64/bin/../lib/gcc/x86_64-w64-mingw32/5.3.0/../../../../x86_64-w64-mingw32/lib/../lib/libkernel32.a(dqmfs00529.o)
 .bss           0x00000000004bea10        0x0 C:/Program Files/mingw-w64/x86_64-5.3.0-posix-seh-rt_v4-rev0/mingw64/bin/../lib/gcc/x86_64-w64-mingw32/5.3.0/../../../../x86_64-w64-mingw32/lib/../lib/libkernel32.a(dqmfs00467.o)
 .bss           0x00000000004bea10        0x0 C:/Program Files/mingw-w64/x86_64-5.3.0-posix-seh-rt_v4-rev0/mingw64/bin/../lib/gcc/x86_64-w64-mingw32/5.3.0/../../../../x86_64-w64-mingw32/lib/../lib/libkernel32.a(dqmfs00463.o)
 .bss           0x00000000004bea10        0x0 C:/Program Files/mingw-w64/x86_64-5.3.0-posix-seh-rt_v4-rev0/mingw64/bin/../lib/gcc/x86_64-w64-mingw32/5.3.0/../../../../x86_64-w64-mingw32/lib/../lib/libkernel32.a(dqmfs00462.o)
 .bss           0x00000000004bea10        0x0 C:/Program Files/mingw-w64/x86_64-5.3.0-posix-seh-rt_v4-rev0/mingw64/bin/../lib/gcc/x86_64-w64-mingw32/5.3.0/../../../../x86_64-w64-mingw32/lib/../lib/libkernel32.a(dqmfs00249.o)
 .bss           0x00000000004bea10        0x0 C:/Program Files/mingw-w64/x86_64-5.3.0-posix-seh-rt_v4-rev0/mingw64/bin/../lib/gcc/x86_64-w64-mingw32/5.3.0/../../../../x86_64-w64-mingw32/lib/../lib/libkernel32.a(dqmfs00216.o)
 .bss           0x00000000004bea10        0x0 C:/Program Files/mingw-w64/x86_64-5.3.0-posix-seh-rt_v4-rev0/mingw64/bin/../lib/gcc/x86_64-w64-mingw32/5.3.0/../../../../x86_64-w64-mingw32/lib/../lib/libkernel32.a(dqmfh.o)
 .bss           0x00000000004bea10        0x0 C:/Program Files/mingw-w64/x86_64-5.3.0-posix-seh-rt_v4-rev0/mingw64/bin/../lib/gcc/x86_64-w64-mingw32/5.3.0/../../../../x86_64-w64-mingw32/lib/../lib/libkernel32.a(dqmft.o)
 .bss           0x00000000004bea10        0x0 C:/Program Files/mingw-w64/x86_64-5.3.0-posix-seh-rt_v4-rev0/mingw64/bin/../lib/gcc/x86_64-w64-mingw32/5.3.0/crtend.o
 *(COMMON)
 COMMON         0x00000000004bea10       0x10 C:/Program Files/mingw-w64/x86_64-5.3.0-posix-seh-rt_v4-rev0/mingw64/bin/../lib/gcc/x86_64-w64-mingw32/5.3.0/../../../../x86_64-w64-mingw32/lib/../lib/crt2.o
                0x00000000004bea10                __mingw_winmain_lpCmdLine
                0x00000000004bea18                __mingw_winmain_hInstance
 COMMON         0x00000000004bea20        0x2 MinGW-w64D/main.o
                0x00000000004bea20                decoflags
                0x00000000004bea21                broadflags
 *fill*         0x00000000004bea22       0x1e 
 COMMON         0x00000000004bea40      0x428 MinGW-w64D/assemble.o
                0x00000000004bea40                LinnumQueue
                0x00000000004bea50                Parse_Pass
                0x00000000004bea54                write_to_file
                0x00000000004bea60                jmpenv
                0x00000000004beb60                ModuleInfo
 *fill*         0x00000000004bee68       0x18 
 COMMON         0x00000000004bee80      0x160 MinGW-w64D/assume.o
                0x00000000004bee80                SegAssumeTable
                0x00000000004beee0                StdAssumeTable
 COMMON         0x00000000004befe0        0x4 MinGW-w64D/condasm.o
                0x00000000004befe0                CurrIfState
 *fill*         0x00000000004befe4        0x4 
 COMMON         0x00000000004befe8       0x10 MinGW-w64D/cpumodel.o
                0x00000000004befe8                sym_Cpu
                0x00000000004beff0                sym_Interface
 COMMON         0x00000000004beff8        0x8 MinGW-w64D/expans.o
                0x00000000004beff8                MacroLevel
                0x00000000004beffc                MacroLocals
 COMMON         0x00000000004bf000       0x11 MinGW-w64D/fastpass.o
                0x00000000004bf000                UseSavedState
                0x00000000004bf008                LineStoreCurr
                0x00000000004bf010                StoreState
 *fill*         0x00000000004bf011        0x3 
 COMMON         0x00000000004bf014        0x4 MinGW-w64D/fixup.o
                0x00000000004bf014                Frame_Type
                0x00000000004bf016                Frame_Datum
 COMMON         0x00000000004bf018       0x30 MinGW-w64D/input.o
                0x00000000004bf018                FileCur
                0x00000000004bf020                end_stringbuf
                0x00000000004bf028                token_stringbuf
                0x00000000004bf030                end_tokenarray
                0x00000000004bf038                LineCur
                0x00000000004bf040                commentbuffer
 COMMON         0x00000000004bf048        0x4 MinGW-w64D/listing.o
                0x00000000004bf048                list_pos
 COMMON         0x00000000004bf04c        0x4 MinGW-w64D/omf.o
                0x00000000004bf04c                LastCodeBufSize
 *fill*         0x00000000004bf050       0x10 
 COMMON         0x00000000004bf060       0x80 MinGW-w64D/parser.o
                0x00000000004bf060                SegOverride
                0x00000000004bf080                SymTables
 COMMON         0x00000000004bf0e0        0xc MinGW-w64D/preproc.o
                0x00000000004bf0e0                cntppl2
                0x00000000004bf0e4                cntppl1
                0x00000000004bf0e8                cntppl0
 *fill*         0x00000000004bf0ec        0x4 
 COMMON         0x00000000004bf0f0       0x24 MinGW-w64D/proc.o
                0x00000000004bf0f0                StackAdjHigh
                0x00000000004bf0f4                StackAdj
                0x00000000004bf0f8                sym_ReservedStack
                0x00000000004bf100                procidx
                0x00000000004bf108                CurrProc
                0x00000000004bf110                ProcStatus
 *fill*         0x00000000004bf114        0x4 
 COMMON         0x00000000004bf118        0x8 MinGW-w64D/segment.o
                0x00000000004bf118                symCurSeg
 COMMON         0x00000000004bf120        0x8 MinGW-w64D/symbols.o
                0x00000000004bf120                SymCmpFunc
 COMMON         0x00000000004bf128        0x8 MinGW-w64D/tokenize.o
                0x00000000004bf128                cnttok1
                0x00000000004bf12c                cnttok0
 COMMON         0x00000000004bf130        0x8 MinGW-w64D/types.o
                0x00000000004bf130                CurrStruct
 COMMON         0x00000000004bf138       0x10 C:/Program Files/mingw-w64/x86_64-5.3.0-posix-seh-rt_v4-rev0/mingw64/bin/../lib/gcc/x86_64-w64-mingw32/5.3.0/../../../../x86_64-w64-mingw32/lib/../lib/libmingw32.a(lib64_libmingw32_a-atonexit.o)
                0x00000000004bf138                __onexitbegin
                0x00000000004bf140                __onexitend
 COMMON         0x00000000004bf148       0x10 C:/Program Files/mingw-w64/x86_64-5.3.0-posix-seh-rt_v4-rev0/mingw64/bin/../lib/gcc/x86_64-w64-mingw32/5.3.0/../../../../x86_64-w64-mingw32/lib/../lib/libmingw32.a(lib64_libmingw32_a-natstart.o)
                0x00000000004bf148                __native_startup_state
                0x00000000004bf150                __native_startup_lock
 *fill*         0x00000000004bf158        0x8 
 COMMON         0x00000000004bf160       0x20 C:/Program Files/mingw-w64/x86_64-5.3.0-posix-seh-rt_v4-rev0/mingw64/bin/../lib/gcc/x86_64-w64-mingw32/5.3.0/libgcc.a(_ctors.o)
 COMMON         0x00000000004bf180      0x100 C:/Program Files/mingw-w64/x86_64-5.3.0-posix-seh-rt_v4-rev0/mingw64/bin/../lib/gcc/x86_64-w64-mingw32/5.3.0/../../../../x86_64-w64-mingw32/lib/../lib/libmingwex.a(lib64_libmingwex_a-hd_init.o)
                0x00000000004bf180                __hexdig_D2A
                0x00000000004bf280                __bss_end__ = .

.edata
 *(.edata)

/DISCARD/
 *(.debug$S)
 *(.debug$T)
 *(.debug$F)
 *(.drectve)
 *(.note.GNU-stack)
 *(.gnu.lto_*)

.idata          0x00000000004c0000      0xe00
 SORT(*)(.idata$2)
 .idata$2       0x00000000004c0000       0x14 C:/Program Files/mingw-w64/x86_64-5.3.0-posix-seh-rt_v4-rev0/mingw64/bin/../lib/gcc/x86_64-w64-mingw32/5.3.0/../../../../x86_64-w64-mingw32/lib/../lib/libkernel32.a(dqmfh.o)
                0x00000000004c0000                _head_lib64_libkernel32_a
 .idata$2       0x00000000004c0014       0x14 C:/Program Files/mingw-w64/x86_64-5.3.0-posix-seh-rt_v4-rev0/mingw64/bin/../lib/gcc/x86_64-w64-mingw32/5.3.0/../../../../x86_64-w64-mingw32/lib/../lib/libmsvcrt.a(dkpfh.o)
                0x00000000004c0014                _head_lib64_libmsvcrt_a
 SORT(*)(.idata$3)
                0x00000000004c0028        0x4 LONG 0x0
                0x00000000004c002c        0x4 LONG 0x0
                0x00000000004c0030        0x4 LONG 0x0
                0x00000000004c0034        0x4 LONG 0x0
                0x00000000004c0038        0x4 LONG 0x0
 SORT(*)(.idata$4)
 .idata$4       0x00000000004c003c        0x0 C:/Program Files/mingw-w64/x86_64-5.3.0-posix-seh-rt_v4-rev0/mingw64/bin/../lib/gcc/x86_64-w64-mingw32/5.3.0/../../../../x86_64-w64-mingw32/lib/../lib/libkernel32.a(dqmfh.o)
 .idata$4       0x00000000004c003c        0x8 C:/Program Files/mingw-w64/x86_64-5.3.0-posix-seh-rt_v4-rev0/mingw64/bin/../lib/gcc/x86_64-w64-mingw32/5.3.0/../../../../x86_64-w64-mingw32/lib/../lib/libkernel32.a(dqmfs00216.o)
 .idata$4       0x00000000004c0044        0x8 C:/Program Files/mingw-w64/x86_64-5.3.0-posix-seh-rt_v4-rev0/mingw64/bin/../lib/gcc/x86_64-w64-mingw32/5.3.0/../../../../x86_64-w64-mingw32/lib/../lib/libkernel32.a(dqmfs00249.o)
 .idata$4       0x00000000004c004c        0x8 C:/Program Files/mingw-w64/x86_64-5.3.0-posix-seh-rt_v4-rev0/mingw64/bin/../lib/gcc/x86_64-w64-mingw32/5.3.0/../../../../x86_64-w64-mingw32/lib/../lib/libkernel32.a(dqmfs00462.o)
 .idata$4       0x00000000004c0054        0x8 C:/Program Files/mingw-w64/x86_64-5.3.0-posix-seh-rt_v4-rev0/mingw64/bin/../lib/gcc/x86_64-w64-mingw32/5.3.0/../../../../x86_64-w64-mingw32/lib/../lib/libkernel32.a(dqmfs00463.o)
 .idata$4       0x00000000004c005c        0x8 C:/Program Files/mingw-w64/x86_64-5.3.0-posix-seh-rt_v4-rev0/mingw64/bin/../lib/gcc/x86_64-w64-mingw32/5.3.0/../../../../x86_64-w64-mingw32/lib/../lib/libkernel32.a(dqmfs00467.o)
 .idata$4       0x00000000004c0064        0x8 C:/Program Files/mingw-w64/x86_64-5.3.0-posix-seh-rt_v4-rev0/mingw64/bin/../lib/gcc/x86_64-w64-mingw32/5.3.0/../../../../x86_64-w64-mingw32/lib/../lib/libkernel32.a(dqmfs00529.o)
 .idata$4       0x00000000004c006c        0x8 C:/Program Files/mingw-w64/x86_64-5.3.0-posix-seh-rt_v4-rev0/mingw64/bin/../lib/gcc/x86_64-w64-mingw32/5.3.0/../../../../x86_64-w64-mingw32/lib/../lib/libkernel32.a(dqmfs00549.o)
 .idata$4       0x00000000004c0074        0x8 C:/Program Files/mingw-w64/x86_64-5.3.0-posix-seh-rt_v4-rev0/mingw64/bin/../lib/gcc/x86_64-w64-mingw32/5.3.0/../../../../x86_64-w64-mingw32/lib/../lib/libkernel32.a(dqmfs00599.o)
 .idata$4       0x00000000004c007c        0x8 C:/Program Files/mingw-w64/x86_64-5.3.0-posix-seh-rt_v4-rev0/mingw64/bin/../lib/gcc/x86_64-w64-mingw32/5.3.0/../../../../x86_64-w64-mingw32/lib/../lib/libkernel32.a(dqmfs00628.o)
 .idata$4       0x00000000004c0084        0x8 C:/Program Files/mingw-w64/x86_64-5.3.0-posix-seh-rt_v4-rev0/mingw64/bin/../lib/gcc/x86_64-w64-mingw32/5.3.0/../../../../x86_64-w64-mingw32/lib/../lib/libkernel32.a(dqmfs00651.o)
 .idata$4       0x00000000004c008c        0x8 C:/Program Files/mingw-w64/x86_64-5.3.0-posix-seh-rt_v4-rev0/mingw64/bin/../lib/gcc/x86_64-w64-mingw32/5.3.0/../../../../x86_64-w64-mingw32/lib/../lib/libkernel32.a(dqmfs00678.o)
 .idata$4       0x00000000004c0094        0x8 C:/Program Files/mingw-w64/x86_64-5.3.0-posix-seh-rt_v4-rev0/mingw64/bin/../lib/gcc/x86_64-w64-mingw32/5.3.0/../../../../x86_64-w64-mingw32/lib/../lib/libkernel32.a(dqmfs00762.o)
 .idata$4       0x00000000004c009c        0x8 C:/Program Files/mingw-w64/x86_64-5.3.0-posix-seh-rt_v4-rev0/mingw64/bin/../lib/gcc/x86_64-w64-mingw32/5.3.0/../../../../x86_64-w64-mingw32/lib/../lib/libkernel32.a(dqmfs00844.o)
 .idata$4       0x00000000004c00a4        0x8 C:/Program Files/mingw-w64/x86_64-5.3.0-posix-seh-rt_v4-rev0/mingw64/bin/../lib/gcc/x86_64-w64-mingw32/5.3.0/../../../../x86_64-w64-mingw32/lib/../lib/libkernel32.a(dqmfs00958.o)
 .idata$4       0x00000000004c00ac        0x8 C:/Program Files/mingw-w64/x86_64-5.3.0-posix-seh-rt_v4-rev0/mingw64/bin/../lib/gcc/x86_64-w64-mingw32/5.3.0/../../../../x86_64-w64-mingw32/lib/../lib/libkernel32.a(dqmfs01029.o)
 .idata$4       0x00000000004c00b4        0x8 C:/Program Files/mingw-w64/x86_64-5.3.0-posix-seh-rt_v4-rev0/mingw64/bin/../lib/gcc/x86_64-w64-mingw32/5.3.0/../../../../x86_64-w64-mingw32/lib/../lib/libkernel32.a(dqmfs01030.o)
 .idata$4       0x00000000004c00bc        0x8 C:/Program Files/mingw-w64/x86_64-5.3.0-posix-seh-rt_v4-rev0/mingw64/bin/../lib/gcc/x86_64-w64-mingw32/5.3.0/../../../../x86_64-w64-mingw32/lib/../lib/libkernel32.a(dqmfs01037.o)
 .idata$4       0x00000000004c00c4        0x8 C:/Program Files/mingw-w64/x86_64-5.3.0-posix-seh-rt_v4-rev0/mingw64/bin/../lib/gcc/x86_64-w64-mingw32/5.3.0/../../../../x86_64-w64-mingw32/lib/../lib/libkernel32.a(dqmfs01044.o)
 .idata$4       0x00000000004c00cc        0x8 C:/Program Files/mingw-w64/x86_64-5.3.0-posix-seh-rt_v4-rev0/mingw64/bin/../lib/gcc/x86_64-w64-mingw32/5.3.0/../../../../x86_64-w64-mingw32/lib/../lib/libkernel32.a(dqmfs01187.o)
 .idata$4       0x00000000004c00d4        0x8 C:/Program Files/mingw-w64/x86_64-5.3.0-posix-seh-rt_v4-rev0/mingw64/bin/../lib/gcc/x86_64-w64-mingw32/5.3.0/../../../../x86_64-w64-mingw32/lib/../lib/libkernel32.a(dqmfs01200.o)
 .idata$4       0x00000000004c00dc        0x8 C:/Program Files/mingw-w64/x86_64-5.3.0-posix-seh-rt_v4-rev0/mingw64/bin/../lib/gcc/x86_64-w64-mingw32/5.3.0/../../../../x86_64-w64-mingw32/lib/../lib/libkernel32.a(dqmfs01214.o)
 .idata$4       0x00000000004c00e4        0x8 C:/Program Files/mingw-w64/x86_64-5.3.0-posix-seh-rt_v4-rev0/mingw64/bin/../lib/gcc/x86_64-w64-mingw32/5.3.0/../../../../x86_64-w64-mingw32/lib/../lib/libkernel32.a(dqmfs01221.o)
 .idata$4       0x00000000004c00ec        0x8 C:/Program Files/mingw-w64/x86_64-5.3.0-posix-seh-rt_v4-rev0/mingw64/bin/../lib/gcc/x86_64-w64-mingw32/5.3.0/../../../../x86_64-w64-mingw32/lib/../lib/libkernel32.a(dqmfs01234.o)
 .idata$4       0x00000000004c00f4        0x8 C:/Program Files/mingw-w64/x86_64-5.3.0-posix-seh-rt_v4-rev0/mingw64/bin/../lib/gcc/x86_64-w64-mingw32/5.3.0/../../../../x86_64-w64-mingw32/lib/../lib/libkernel32.a(dqmfs01258.o)
 .idata$4       0x00000000004c00fc        0x8 C:/Program Files/mingw-w64/x86_64-5.3.0-posix-seh-rt_v4-rev0/mingw64/bin/../lib/gcc/x86_64-w64-mingw32/5.3.0/../../../../x86_64-w64-mingw32/lib/../lib/libkernel32.a(dqmfs01261.o)
 .idata$4       0x00000000004c0104        0x8 C:/Program Files/mingw-w64/x86_64-5.3.0-posix-seh-rt_v4-rev0/mingw64/bin/../lib/gcc/x86_64-w64-mingw32/5.3.0/../../../../x86_64-w64-mingw32/lib/../lib/libkernel32.a(dqmfs01264.o)
 .idata$4       0x00000000004c010c        0x8 C:/Program Files/mingw-w64/x86_64-5.3.0-posix-seh-rt_v4-rev0/mingw64/bin/../lib/gcc/x86_64-w64-mingw32/5.3.0/../../../../x86_64-w64-mingw32/lib/../lib/libkernel32.a(dqmfs01266.o)
 .idata$4       0x00000000004c0114        0x8 C:/Program Files/mingw-w64/x86_64-5.3.0-posix-seh-rt_v4-rev0/mingw64/bin/../lib/gcc/x86_64-w64-mingw32/5.3.0/../../../../x86_64-w64-mingw32/lib/../lib/libkernel32.a(dqmft.o)
 .idata$4       0x00000000004c011c        0x0 C:/Program Files/mingw-w64/x86_64-5.3.0-posix-seh-rt_v4-rev0/mingw64/bin/../lib/gcc/x86_64-w64-mingw32/5.3.0/../../../../x86_64-w64-mingw32/lib/../lib/libmsvcrt.a(dkpfh.o)
 .idata$4       0x00000000004c011c        0x8 C:/Program Files/mingw-w64/x86_64-5.3.0-posix-seh-rt_v4-rev0/mingw64/bin/../lib/gcc/x86_64-w64-mingw32/5.3.0/../../../../x86_64-w64-mingw32/lib/../lib/libmsvcrt.a(dkpfs00055.o)
 .idata$4       0x00000000004c0124        0x8 C:/Program Files/mingw-w64/x86_64-5.3.0-posix-seh-rt_v4-rev0/mingw64/bin/../lib/gcc/x86_64-w64-mingw32/5.3.0/../../../../x86_64-w64-mingw32/lib/../lib/libmsvcrt.a(dkpfs00078.o)
 .idata$4       0x00000000004c012c        0x8 C:/Program Files/mingw-w64/x86_64-5.3.0-posix-seh-rt_v4-rev0/mingw64/bin/../lib/gcc/x86_64-w64-mingw32/5.3.0/../../../../x86_64-w64-mingw32/lib/../lib/libmsvcrt.a(dkpfs00081.o)
 .idata$4       0x00000000004c0134        0x8 C:/Program Files/mingw-w64/x86_64-5.3.0-posix-seh-rt_v4-rev0/mingw64/bin/../lib/gcc/x86_64-w64-mingw32/5.3.0/../../../../x86_64-w64-mingw32/lib/../lib/libmsvcrt.a(dkpfs00082.o)
 .idata$4       0x00000000004c013c        0x8 C:/Program Files/mingw-w64/x86_64-5.3.0-posix-seh-rt_v4-rev0/mingw64/bin/../lib/gcc/x86_64-w64-mingw32/5.3.0/../../../../x86_64-w64-mingw32/lib/../lib/libmsvcrt.a(dkpfs00083.o)
 .idata$4       0x00000000004c0144        0x8 C:/Program Files/mingw-w64/x86_64-5.3.0-posix-seh-rt_v4-rev0/mingw64/bin/../lib/gcc/x86_64-w64-mingw32/5.3.0/../../../../x86_64-w64-mingw32/lib/../lib/libmsvcrt.a(dkpfs00090.o)
 .idata$4       0x00000000004c014c        0x8 C:/Program Files/mingw-w64/x86_64-5.3.0-posix-seh-rt_v4-rev0/mingw64/bin/../lib/gcc/x86_64-w64-mingw32/5.3.0/../../../../x86_64-w64-mingw32/lib/../lib/libmsvcrt.a(dkpfs00096.o)
 .idata$4       0x00000000004c0154        0x8 C:/Program Files/mingw-w64/x86_64-5.3.0-posix-seh-rt_v4-rev0/mingw64/bin/../lib/gcc/x86_64-w64-mingw32/5.3.0/../../../../x86_64-w64-mingw32/lib/../lib/libmsvcrt.a(dkpfs00098.o)
 .idata$4       0x00000000004c015c        0x8 C:/Program Files/mingw-w64/x86_64-5.3.0-posix-seh-rt_v4-rev0/mingw64/bin/../lib/gcc/x86_64-w64-mingw32/5.3.0/../../../../x86_64-w64-mingw32/lib/../lib/libmsvcrt.a(dkpfs00115.o)
 .idata$4       0x00000000004c0164        0x8 C:/Program Files/mingw-w64/x86_64-5.3.0-posix-seh-rt_v4-rev0/mingw64/bin/../lib/gcc/x86_64-w64-mingw32/5.3.0/../../../../x86_64-w64-mingw32/lib/../lib/libmsvcrt.a(dkpfs00122.o)
 .idata$4       0x00000000004c016c        0x8 C:/Program Files/mingw-w64/x86_64-5.3.0-posix-seh-rt_v4-rev0/mingw64/bin/../lib/gcc/x86_64-w64-mingw32/5.3.0/../../../../x86_64-w64-mingw32/lib/../lib/libmsvcrt.a(dkpfs00140.o)
 .idata$4       0x00000000004c0174        0x8 C:/Program Files/mingw-w64/x86_64-5.3.0-posix-seh-rt_v4-rev0/mingw64/bin/../lib/gcc/x86_64-w64-mingw32/5.3.0/../../../../x86_64-w64-mingw32/lib/../lib/libmsvcrt.a(dkpfs00149.o)
 .idata$4       0x00000000004c017c        0x8 C:/Program Files/mingw-w64/x86_64-5.3.0-posix-seh-rt_v4-rev0/mingw64/bin/../lib/gcc/x86_64-w64-mingw32/5.3.0/../../../../x86_64-w64-mingw32/lib/../lib/libmsvcrt.a(dkpfs00201.o)
 .idata$4       0x00000000004c0184        0x8 C:/Program Files/mingw-w64/x86_64-5.3.0-posix-seh-rt_v4-rev0/mingw64/bin/../lib/gcc/x86_64-w64-mingw32/5.3.0/../../../../x86_64-w64-mingw32/lib/../lib/libmsvcrt.a(dkpfs00234.o)
 .idata$4       0x00000000004c018c        0x8 C:/Program Files/mingw-w64/x86_64-5.3.0-posix-seh-rt_v4-rev0/mingw64/bin/../lib/gcc/x86_64-w64-mingw32/5.3.0/../../../../x86_64-w64-mingw32/lib/../lib/libmsvcrt.a(dkpfs00235.o)
 .idata$4       0x00000000004c0194        0x8 C:/Program Files/mingw-w64/x86_64-5.3.0-posix-seh-rt_v4-rev0/mingw64/bin/../lib/gcc/x86_64-w64-mingw32/5.3.0/../../../../x86_64-w64-mingw32/lib/../lib/libmsvcrt.a(dkpfs00238.o)
 .idata$4       0x00000000004c019c        0x8 C:/Program Files/mingw-w64/x86_64-5.3.0-posix-seh-rt_v4-rev0/mingw64/bin/../lib/gcc/x86_64-w64-mingw32/5.3.0/../../../../x86_64-w64-mingw32/lib/../lib/libmsvcrt.a(dkpfs00242.o)
 .idata$4       0x00000000004c01a4        0x8 C:/Program Files/mingw-w64/x86_64-5.3.0-posix-seh-rt_v4-rev0/mingw64/bin/../lib/gcc/x86_64-w64-mingw32/5.3.0/../../../../x86_64-w64-mingw32/lib/../lib/libmsvcrt.a(dkpfs00251.o)
 .idata$4       0x00000000004c01ac        0x8 C:/Program Files/mingw-w64/x86_64-5.3.0-posix-seh-rt_v4-rev0/mingw64/bin/../lib/gcc/x86_64-w64-mingw32/5.3.0/../../../../x86_64-w64-mingw32/lib/../lib/libmsvcrt.a(dkpfs00330.o)
 .idata$4       0x00000000004c01b4        0x8 C:/Program Files/mingw-w64/x86_64-5.3.0-posix-seh-rt_v4-rev0/mingw64/bin/../lib/gcc/x86_64-w64-mingw32/5.3.0/../../../../x86_64-w64-mingw32/lib/../lib/libmsvcrt.a(dkpfs00439.o)
 .idata$4       0x00000000004c01bc        0x8 C:/Program Files/mingw-w64/x86_64-5.3.0-posix-seh-rt_v4-rev0/mingw64/bin/../lib/gcc/x86_64-w64-mingw32/5.3.0/../../../../x86_64-w64-mingw32/lib/../lib/libmsvcrt.a(dkpfs00599.o)
 .idata$4       0x00000000004c01c4        0x8 C:/Program Files/mingw-w64/x86_64-5.3.0-posix-seh-rt_v4-rev0/mingw64/bin/../lib/gcc/x86_64-w64-mingw32/5.3.0/../../../../x86_64-w64-mingw32/lib/../lib/libmsvcrt.a(dkpfs00611.o)
 .idata$4       0x00000000004c01cc        0x8 C:/Program Files/mingw-w64/x86_64-5.3.0-posix-seh-rt_v4-rev0/mingw64/bin/../lib/gcc/x86_64-w64-mingw32/5.3.0/../../../../x86_64-w64-mingw32/lib/../lib/libmsvcrt.a(dkpfs00667.o)
 .idata$4       0x00000000004c01d4        0x8 C:/Program Files/mingw-w64/x86_64-5.3.0-posix-seh-rt_v4-rev0/mingw64/bin/../lib/gcc/x86_64-w64-mingw32/5.3.0/../../../../x86_64-w64-mingw32/lib/../lib/libmsvcrt.a(dkpfs00719.o)
 .idata$4       0x00000000004c01dc        0x8 C:/Program Files/mingw-w64/x86_64-5.3.0-posix-seh-rt_v4-rev0/mingw64/bin/../lib/gcc/x86_64-w64-mingw32/5.3.0/../../../../x86_64-w64-mingw32/lib/../lib/libmsvcrt.a(dkpfs00731.o)
 .idata$4       0x00000000004c01e4        0x8 C:/Program Files/mingw-w64/x86_64-5.3.0-posix-seh-rt_v4-rev0/mingw64/bin/../lib/gcc/x86_64-w64-mingw32/5.3.0/../../../../x86_64-w64-mingw32/lib/../lib/libmsvcrt.a(dkpfs00768.o)
 .idata$4       0x00000000004c01ec        0x8 C:/Program Files/mingw-w64/x86_64-5.3.0-posix-seh-rt_v4-rev0/mingw64/bin/../lib/gcc/x86_64-w64-mingw32/5.3.0/../../../../x86_64-w64-mingw32/lib/../lib/libmsvcrt.a(dkpfs00807.o)
 .idata$4       0x00000000004c01f4        0x8 C:/Program Files/mingw-w64/x86_64-5.3.0-posix-seh-rt_v4-rev0/mingw64/bin/../lib/gcc/x86_64-w64-mingw32/5.3.0/../../../../x86_64-w64-mingw32/lib/../lib/libmsvcrt.a(dkpfs00819.o)
 .idata$4       0x00000000004c01fc        0x8 C:/Program Files/mingw-w64/x86_64-5.3.0-posix-seh-rt_v4-rev0/mingw64/bin/../lib/gcc/x86_64-w64-mingw32/5.3.0/../../../../x86_64-w64-mingw32/lib/../lib/libmsvcrt.a(dkpfs01030.o)
 .idata$4       0x00000000004c0204        0x8 C:/Program Files/mingw-w64/x86_64-5.3.0-posix-seh-rt_v4-rev0/mingw64/bin/../lib/gcc/x86_64-w64-mingw32/5.3.0/../../../../x86_64-w64-mingw32/lib/../lib/libmsvcrt.a(dkpfs01043.o)
 .idata$4       0x00000000004c020c        0x8 C:/Program Files/mingw-w64/x86_64-5.3.0-posix-seh-rt_v4-rev0/mingw64/bin/../lib/gcc/x86_64-w64-mingw32/5.3.0/../../../../x86_64-w64-mingw32/lib/../lib/libmsvcrt.a(dkpfs01047.o)
 .idata$4       0x00000000004c0214        0x8 C:/Program Files/mingw-w64/x86_64-5.3.0-posix-seh-rt_v4-rev0/mingw64/bin/../lib/gcc/x86_64-w64-mingw32/5.3.0/../../../../x86_64-w64-mingw32/lib/../lib/libmsvcrt.a(dkpfs01052.o)
 .idata$4       0x00000000004c021c        0x8 C:/Program Files/mingw-w64/x86_64-5.3.0-posix-seh-rt_v4-rev0/mingw64/bin/../lib/gcc/x86_64-w64-mingw32/5.3.0/../../../../x86_64-w64-mingw32/lib/../lib/libmsvcrt.a(dkpfs01060.o)
 .idata$4       0x00000000004c0224        0x8 C:/Program Files/mingw-w64/x86_64-5.3.0-posix-seh-rt_v4-rev0/mingw64/bin/../lib/gcc/x86_64-w64-mingw32/5.3.0/../../../../x86_64-w64-mingw32/lib/../lib/libmsvcrt.a(dkpfs01064.o)
 .idata$4       0x00000000004c022c        0x8 C:/Program Files/mingw-w64/x86_64-5.3.0-posix-seh-rt_v4-rev0/mingw64/bin/../lib/gcc/x86_64-w64-mingw32/5.3.0/../../../../x86_64-w64-mingw32/lib/../lib/libmsvcrt.a(dkpfs01067.o)
 .idata$4       0x00000000004c0234        0x8 C:/Program Files/mingw-w64/x86_64-5.3.0-posix-seh-rt_v4-rev0/mingw64/bin/../lib/gcc/x86_64-w64-mingw32/5.3.0/../../../../x86_64-w64-mingw32/lib/../lib/libmsvcrt.a(dkpfs01077.o)
 .idata$4       0x00000000004c023c        0x8 C:/Program Files/mingw-w64/x86_64-5.3.0-posix-seh-rt_v4-rev0/mingw64/bin/../lib/gcc/x86_64-w64-mingw32/5.3.0/../../../../x86_64-w64-mingw32/lib/../lib/libmsvcrt.a(dkpfs01079.o)
 .idata$4       0x00000000004c0244        0x8 C:/Program Files/mingw-w64/x86_64-5.3.0-posix-seh-rt_v4-rev0/mingw64/bin/../lib/gcc/x86_64-w64-mingw32/5.3.0/../../../../x86_64-w64-mingw32/lib/../lib/libmsvcrt.a(dkpfs01082.o)
 .idata$4       0x00000000004c024c        0x8 C:/Program Files/mingw-w64/x86_64-5.3.0-posix-seh-rt_v4-rev0/mingw64/bin/../lib/gcc/x86_64-w64-mingw32/5.3.0/../../../../x86_64-w64-mingw32/lib/../lib/libmsvcrt.a(dkpfs01085.o)
 .idata$4       0x00000000004c0254        0x8 C:/Program Files/mingw-w64/x86_64-5.3.0-posix-seh-rt_v4-rev0/mingw64/bin/../lib/gcc/x86_64-w64-mingw32/5.3.0/../../../../x86_64-w64-mingw32/lib/../lib/libmsvcrt.a(dkpfs01086.o)
 .idata$4       0x00000000004c025c        0x8 C:/Program Files/mingw-w64/x86_64-5.3.0-posix-seh-rt_v4-rev0/mingw64/bin/../lib/gcc/x86_64-w64-mingw32/5.3.0/../../../../x86_64-w64-mingw32/lib/../lib/libmsvcrt.a(dkpfs01092.o)
 .idata$4       0x00000000004c0264        0x8 C:/Program Files/mingw-w64/x86_64-5.3.0-posix-seh-rt_v4-rev0/mingw64/bin/../lib/gcc/x86_64-w64-mingw32/5.3.0/../../../../x86_64-w64-mingw32/lib/../lib/libmsvcrt.a(dkpfs01094.o)
 .idata$4       0x00000000004c026c        0x8 C:/Program Files/mingw-w64/x86_64-5.3.0-posix-seh-rt_v4-rev0/mingw64/bin/../lib/gcc/x86_64-w64-mingw32/5.3.0/../../../../x86_64-w64-mingw32/lib/../lib/libmsvcrt.a(dkpfs01097.o)
 .idata$4       0x00000000004c0274        0x8 C:/Program Files/mingw-w64/x86_64-5.3.0-posix-seh-rt_v4-rev0/mingw64/bin/../lib/gcc/x86_64-w64-mingw32/5.3.0/../../../../x86_64-w64-mingw32/lib/../lib/libmsvcrt.a(dkpfs01100.o)
 .idata$4       0x00000000004c027c        0x8 C:/Program Files/mingw-w64/x86_64-5.3.0-posix-seh-rt_v4-rev0/mingw64/bin/../lib/gcc/x86_64-w64-mingw32/5.3.0/../../../../x86_64-w64-mingw32/lib/../lib/libmsvcrt.a(dkpfs01102.o)
 .idata$4       0x00000000004c0284        0x8 C:/Program Files/mingw-w64/x86_64-5.3.0-posix-seh-rt_v4-rev0/mingw64/bin/../lib/gcc/x86_64-w64-mingw32/5.3.0/../../../../x86_64-w64-mingw32/lib/../lib/libmsvcrt.a(dkpfs01109.o)
 .idata$4       0x00000000004c028c        0x8 C:/Program Files/mingw-w64/x86_64-5.3.0-posix-seh-rt_v4-rev0/mingw64/bin/../lib/gcc/x86_64-w64-mingw32/5.3.0/../../../../x86_64-w64-mingw32/lib/../lib/libmsvcrt.a(dkpfs01110.o)
 .idata$4       0x00000000004c0294        0x8 C:/Program Files/mingw-w64/x86_64-5.3.0-posix-seh-rt_v4-rev0/mingw64/bin/../lib/gcc/x86_64-w64-mingw32/5.3.0/../../../../x86_64-w64-mingw32/lib/../lib/libmsvcrt.a(dkpfs01118.o)
 .idata$4       0x00000000004c029c        0x8 C:/Program Files/mingw-w64/x86_64-5.3.0-posix-seh-rt_v4-rev0/mingw64/bin/../lib/gcc/x86_64-w64-mingw32/5.3.0/../../../../x86_64-w64-mingw32/lib/../lib/libmsvcrt.a(dkpfs01138.o)
 .idata$4       0x00000000004c02a4        0x8 C:/Program Files/mingw-w64/x86_64-5.3.0-posix-seh-rt_v4-rev0/mingw64/bin/../lib/gcc/x86_64-w64-mingw32/5.3.0/../../../../x86_64-w64-mingw32/lib/../lib/libmsvcrt.a(dkpfs01139.o)
 .idata$4       0x00000000004c02ac        0x8 C:/Program Files/mingw-w64/x86_64-5.3.0-posix-seh-rt_v4-rev0/mingw64/bin/../lib/gcc/x86_64-w64-mingw32/5.3.0/../../../../x86_64-w64-mingw32/lib/../lib/libmsvcrt.a(dkpfs01144.o)
 .idata$4       0x00000000004c02b4        0x8 C:/Program Files/mingw-w64/x86_64-5.3.0-posix-seh-rt_v4-rev0/mingw64/bin/../lib/gcc/x86_64-w64-mingw32/5.3.0/../../../../x86_64-w64-mingw32/lib/../lib/libmsvcrt.a(dkpfs01145.o)
 .idata$4       0x00000000004c02bc        0x8 C:/Program Files/mingw-w64/x86_64-5.3.0-posix-seh-rt_v4-rev0/mingw64/bin/../lib/gcc/x86_64-w64-mingw32/5.3.0/../../../../x86_64-w64-mingw32/lib/../lib/libmsvcrt.a(dkpfs01152.o)
 .idata$4       0x00000000004c02c4        0x8 C:/Program Files/mingw-w64/x86_64-5.3.0-posix-seh-rt_v4-rev0/mingw64/bin/../lib/gcc/x86_64-w64-mingw32/5.3.0/../../../../x86_64-w64-mingw32/lib/../lib/libmsvcrt.a(dkpfs01153.o)
 .idata$4       0x00000000004c02cc        0x8 C:/Program Files/mingw-w64/x86_64-5.3.0-posix-seh-rt_v4-rev0/mingw64/bin/../lib/gcc/x86_64-w64-mingw32/5.3.0/../../../../x86_64-w64-mingw32/lib/../lib/libmsvcrt.a(dkpfs01154.o)
 .idata$4       0x00000000004c02d4        0x8 C:/Program Files/mingw-w64/x86_64-5.3.0-posix-seh-rt_v4-rev0/mingw64/bin/../lib/gcc/x86_64-w64-mingw32/5.3.0/../../../../x86_64-w64-mingw32/lib/../lib/libmsvcrt.a(dkpfs01155.o)
 .idata$4       0x00000000004c02dc        0x8 C:/Program Files/mingw-w64/x86_64-5.3.0-posix-seh-rt_v4-rev0/mingw64/bin/../lib/gcc/x86_64-w64-mingw32/5.3.0/../../../../x86_64-w64-mingw32/lib/../lib/libmsvcrt.a(dkpfs01162.o)
 .idata$4       0x00000000004c02e4        0x8 C:/Program Files/mingw-w64/x86_64-5.3.0-posix-seh-rt_v4-rev0/mingw64/bin/../lib/gcc/x86_64-w64-mingw32/5.3.0/../../../../x86_64-w64-mingw32/lib/../lib/libmsvcrt.a(dkpfs01165.o)
 .idata$4       0x00000000004c02ec        0x8 C:/Program Files/mingw-w64/x86_64-5.3.0-posix-seh-rt_v4-rev0/mingw64/bin/../lib/gcc/x86_64-w64-mingw32/5.3.0/../../../../x86_64-w64-mingw32/lib/../lib/libmsvcrt.a(dkpfs01166.o)
 .idata$4       0x00000000004c02f4        0x8 C:/Program Files/mingw-w64/x86_64-5.3.0-posix-seh-rt_v4-rev0/mingw64/bin/../lib/gcc/x86_64-w64-mingw32/5.3.0/../../../../x86_64-w64-mingw32/lib/../lib/libmsvcrt.a(dkpfs01169.o)
 .idata$4       0x00000000004c02fc        0x8 C:/Program Files/mingw-w64/x86_64-5.3.0-posix-seh-rt_v4-rev0/mingw64/bin/../lib/gcc/x86_64-w64-mingw32/5.3.0/../../../../x86_64-w64-mingw32/lib/../lib/libmsvcrt.a(dkpfs01174.o)
 .idata$4       0x00000000004c0304        0x8 C:/Program Files/mingw-w64/x86_64-5.3.0-posix-seh-rt_v4-rev0/mingw64/bin/../lib/gcc/x86_64-w64-mingw32/5.3.0/../../../../x86_64-w64-mingw32/lib/../lib/libmsvcrt.a(dkpfs01176.o)
 .idata$4       0x00000000004c030c        0x8 C:/Program Files/mingw-w64/x86_64-5.3.0-posix-seh-rt_v4-rev0/mingw64/bin/../lib/gcc/x86_64-w64-mingw32/5.3.0/../../../../x86_64-w64-mingw32/lib/../lib/libmsvcrt.a(dkpfs01183.o)
 .idata$4       0x00000000004c0314        0x8 C:/Program Files/mingw-w64/x86_64-5.3.0-posix-seh-rt_v4-rev0/mingw64/bin/../lib/gcc/x86_64-w64-mingw32/5.3.0/../../../../x86_64-w64-mingw32/lib/../lib/libmsvcrt.a(dkpfs01188.o)
 .idata$4       0x00000000004c031c        0x8 C:/Program Files/mingw-w64/x86_64-5.3.0-posix-seh-rt_v4-rev0/mingw64/bin/../lib/gcc/x86_64-w64-mingw32/5.3.0/../../../../x86_64-w64-mingw32/lib/../lib/libmsvcrt.a(dkpfs01194.o)
 .idata$4       0x00000000004c0324        0x8 C:/Program Files/mingw-w64/x86_64-5.3.0-posix-seh-rt_v4-rev0/mingw64/bin/../lib/gcc/x86_64-w64-mingw32/5.3.0/../../../../x86_64-w64-mingw32/lib/../lib/libmsvcrt.a(dkpfs01196.o)
 .idata$4       0x00000000004c032c        0x8 C:/Program Files/mingw-w64/x86_64-5.3.0-posix-seh-rt_v4-rev0/mingw64/bin/../lib/gcc/x86_64-w64-mingw32/5.3.0/../../../../x86_64-w64-mingw32/lib/../lib/libmsvcrt.a(dkpfs01197.o)
 .idata$4       0x00000000004c0334        0x8 C:/Program Files/mingw-w64/x86_64-5.3.0-posix-seh-rt_v4-rev0/mingw64/bin/../lib/gcc/x86_64-w64-mingw32/5.3.0/../../../../x86_64-w64-mingw32/lib/../lib/libmsvcrt.a(dkpfs01199.o)
 .idata$4       0x00000000004c033c        0x8 C:/Program Files/mingw-w64/x86_64-5.3.0-posix-seh-rt_v4-rev0/mingw64/bin/../lib/gcc/x86_64-w64-mingw32/5.3.0/../../../../x86_64-w64-mingw32/lib/../lib/libmsvcrt.a(dkpfs01204.o)
 .idata$4       0x00000000004c0344        0x8 C:/Program Files/mingw-w64/x86_64-5.3.0-posix-seh-rt_v4-rev0/mingw64/bin/../lib/gcc/x86_64-w64-mingw32/5.3.0/../../../../x86_64-w64-mingw32/lib/../lib/libmsvcrt.a(dkpfs01207.o)
 .idata$4       0x00000000004c034c        0x8 C:/Program Files/mingw-w64/x86_64-5.3.0-posix-seh-rt_v4-rev0/mingw64/bin/../lib/gcc/x86_64-w64-mingw32/5.3.0/../../../../x86_64-w64-mingw32/lib/../lib/libmsvcrt.a(dkpfs01208.o)
 .idata$4       0x00000000004c0354        0x8 C:/Program Files/mingw-w64/x86_64-5.3.0-posix-seh-rt_v4-rev0/mingw64/bin/../lib/gcc/x86_64-w64-mingw32/5.3.0/../../../../x86_64-w64-mingw32/lib/../lib/libmsvcrt.a(dkpfs01215.o)
 .idata$4       0x00000000004c035c        0x8 C:/Program Files/mingw-w64/x86_64-5.3.0-posix-seh-rt_v4-rev0/mingw64/bin/../lib/gcc/x86_64-w64-mingw32/5.3.0/../../../../x86_64-w64-mingw32/lib/../lib/libmsvcrt.a(dkpfs01233.o)
 .idata$4       0x00000000004c0364        0x8 C:/Program Files/mingw-w64/x86_64-5.3.0-posix-seh-rt_v4-rev0/mingw64/bin/../lib/gcc/x86_64-w64-mingw32/5.3.0/../../../../x86_64-w64-mingw32/lib/../lib/libmsvcrt.a(dkpfs01239.o)
 .idata$4       0x00000000004c036c        0x8 C:/Program Files/mingw-w64/x86_64-5.3.0-posix-seh-rt_v4-rev0/mingw64/bin/../lib/gcc/x86_64-w64-mingw32/5.3.0/../../../../x86_64-w64-mingw32/lib/../lib/libmsvcrt.a(dkpfs01243.o)
 .idata$4       0x00000000004c0374        0x8 C:/Program Files/mingw-w64/x86_64-5.3.0-posix-seh-rt_v4-rev0/mingw64/bin/../lib/gcc/x86_64-w64-mingw32/5.3.0/../../../../x86_64-w64-mingw32/lib/../lib/libmsvcrt.a(dkpfs01245.o)
 .idata$4       0x00000000004c037c        0x8 C:/Program Files/mingw-w64/x86_64-5.3.0-posix-seh-rt_v4-rev0/mingw64/bin/../lib/gcc/x86_64-w64-mingw32/5.3.0/../../../../x86_64-w64-mingw32/lib/../lib/libmsvcrt.a(dkpft.o)
                0x00000000004c0384                __IAT_start__ = .
 SORT(*)(.idata$5)
 .idata$5       0x00000000004c0384        0x0 C:/Program Files/mingw-w64/x86_64-5.3.0-posix-seh-rt_v4-rev0/mingw64/bin/../lib/gcc/x86_64-w64-mingw32/5.3.0/../../../../x86_64-w64-mingw32/lib/../lib/libkernel32.a(dqmfh.o)
 .idata$5       0x00000000004c0384        0x8 C:/Program Files/mingw-w64/x86_64-5.3.0-posix-seh-rt_v4-rev0/mingw64/bin/../lib/gcc/x86_64-w64-mingw32/5.3.0/../../../../x86_64-w64-mingw32/lib/../lib/libkernel32.a(dqmfs00216.o)
                0x00000000004c0384                __imp_DeleteCriticalSection
 .idata$5       0x00000000004c038c        0x8 C:/Program Files/mingw-w64/x86_64-5.3.0-posix-seh-rt_v4-rev0/mingw64/bin/../lib/gcc/x86_64-w64-mingw32/5.3.0/../../../../x86_64-w64-mingw32/lib/../lib/libkernel32.a(dqmfs00249.o)
                0x00000000004c038c                __imp_EnterCriticalSection
 .idata$5       0x00000000004c0394        0x8 C:/Program Files/mingw-w64/x86_64-5.3.0-posix-seh-rt_v4-rev0/mingw64/bin/../lib/gcc/x86_64-w64-mingw32/5.3.0/../../../../x86_64-w64-mingw32/lib/../lib/libkernel32.a(dqmfs00462.o)
                0x00000000004c0394                __imp_GetCurrentProcess
 .idata$5       0x00000000004c039c        0x8 C:/Program Files/mingw-w64/x86_64-5.3.0-posix-seh-rt_v4-rev0/mingw64/bin/../lib/gcc/x86_64-w64-mingw32/5.3.0/../../../../x86_64-w64-mingw32/lib/../lib/libkernel32.a(dqmfs00463.o)
                0x00000000004c039c                __imp_GetCurrentProcessId
 .idata$5       0x00000000004c03a4        0x8 C:/Program Files/mingw-w64/x86_64-5.3.0-posix-seh-rt_v4-rev0/mingw64/bin/../lib/gcc/x86_64-w64-mingw32/5.3.0/../../../../x86_64-w64-mingw32/lib/../lib/libkernel32.a(dqmfs00467.o)
                0x00000000004c03a4                __imp_GetCurrentThreadId
 .idata$5       0x00000000004c03ac        0x8 C:/Program Files/mingw-w64/x86_64-5.3.0-posix-seh-rt_v4-rev0/mingw64/bin/../lib/gcc/x86_64-w64-mingw32/5.3.0/../../../../x86_64-w64-mingw32/lib/../lib/libkernel32.a(dqmfs00529.o)
                0x00000000004c03ac                __imp_GetLastError
 .idata$5       0x00000000004c03b4        0x8 C:/Program Files/mingw-w64/x86_64-5.3.0-posix-seh-rt_v4-rev0/mingw64/bin/../lib/gcc/x86_64-w64-mingw32/5.3.0/../../../../x86_64-w64-mingw32/lib/../lib/libkernel32.a(dqmfs00549.o)
                0x00000000004c03b4                __imp_GetModuleHandleA
 .idata$5       0x00000000004c03bc        0x8 C:/Program Files/mingw-w64/x86_64-5.3.0-posix-seh-rt_v4-rev0/mingw64/bin/../lib/gcc/x86_64-w64-mingw32/5.3.0/../../../../x86_64-w64-mingw32/lib/../lib/libkernel32.a(dqmfs00599.o)
                0x00000000004c03bc                __imp_GetProcAddress
 .idata$5       0x00000000004c03c4        0x8 C:/Program Files/mingw-w64/x86_64-5.3.0-posix-seh-rt_v4-rev0/mingw64/bin/../lib/gcc/x86_64-w64-mingw32/5.3.0/../../../../x86_64-w64-mingw32/lib/../lib/libkernel32.a(dqmfs00628.o)
                0x00000000004c03c4                __imp_GetStartupInfoA
 .idata$5       0x00000000004c03cc        0x8 C:/Program Files/mingw-w64/x86_64-5.3.0-posix-seh-rt_v4-rev0/mingw64/bin/../lib/gcc/x86_64-w64-mingw32/5.3.0/../../../../x86_64-w64-mingw32/lib/../lib/libkernel32.a(dqmfs00651.o)
                0x00000000004c03cc                __imp_GetSystemTimeAsFileTime
 .idata$5       0x00000000004c03d4        0x8 C:/Program Files/mingw-w64/x86_64-5.3.0-posix-seh-rt_v4-rev0/mingw64/bin/../lib/gcc/x86_64-w64-mingw32/5.3.0/../../../../x86_64-w64-mingw32/lib/../lib/libkernel32.a(dqmfs00678.o)
                0x00000000004c03d4                __imp_GetTickCount
 .idata$5       0x00000000004c03dc        0x8 C:/Program Files/mingw-w64/x86_64-5.3.0-posix-seh-rt_v4-rev0/mingw64/bin/../lib/gcc/x86_64-w64-mingw32/5.3.0/../../../../x86_64-w64-mingw32/lib/../lib/libkernel32.a(dqmfs00762.o)
                0x00000000004c03dc                __imp_InitializeCriticalSection
 .idata$5       0x00000000004c03e4        0x8 C:/Program Files/mingw-w64/x86_64-5.3.0-posix-seh-rt_v4-rev0/mingw64/bin/../lib/gcc/x86_64-w64-mingw32/5.3.0/../../../../x86_64-w64-mingw32/lib/../lib/libkernel32.a(dqmfs00844.o)
                0x00000000004c03e4                __imp_LeaveCriticalSection
 .idata$5       0x00000000004c03ec        0x8 C:/Program Files/mingw-w64/x86_64-5.3.0-posix-seh-rt_v4-rev0/mingw64/bin/../lib/gcc/x86_64-w64-mingw32/5.3.0/../../../../x86_64-w64-mingw32/lib/../lib/libkernel32.a(dqmfs00958.o)
                0x00000000004c03ec                __imp_QueryPerformanceCounter
 .idata$5       0x00000000004c03f4        0x8 C:/Program Files/mingw-w64/x86_64-5.3.0-posix-seh-rt_v4-rev0/mingw64/bin/../lib/gcc/x86_64-w64-mingw32/5.3.0/../../../../x86_64-w64-mingw32/lib/../lib/libkernel32.a(dqmfs01029.o)
                0x00000000004c03f4                __imp_RtlAddFunctionTable
 .idata$5       0x00000000004c03fc        0x8 C:/Program Files/mingw-w64/x86_64-5.3.0-posix-seh-rt_v4-rev0/mingw64/bin/../lib/gcc/x86_64-w64-mingw32/5.3.0/../../../../x86_64-w64-mingw32/lib/../lib/libkernel32.a(dqmfs01030.o)
                0x00000000004c03fc                __imp_RtlCaptureContext
 .idata$5       0x00000000004c0404        0x8 C:/Program Files/mingw-w64/x86_64-5.3.0-posix-seh-rt_v4-rev0/mingw64/bin/../lib/gcc/x86_64-w64-mingw32/5.3.0/../../../../x86_64-w64-mingw32/lib/../lib/libkernel32.a(dqmfs01037.o)
                0x00000000004c0404                __imp_RtlLookupFunctionEntry
 .idata$5       0x00000000004c040c        0x8 C:/Program Files/mingw-w64/x86_64-5.3.0-posix-seh-rt_v4-rev0/mingw64/bin/../lib/gcc/x86_64-w64-mingw32/5.3.0/../../../../x86_64-w64-mingw32/lib/../lib/libkernel32.a(dqmfs01044.o)
                0x00000000004c040c                __imp_RtlVirtualUnwind
 .idata$5       0x00000000004c0414        0x8 C:/Program Files/mingw-w64/x86_64-5.3.0-posix-seh-rt_v4-rev0/mingw64/bin/../lib/gcc/x86_64-w64-mingw32/5.3.0/../../../../x86_64-w64-mingw32/lib/../lib/libkernel32.a(dqmfs01187.o)
                0x00000000004c0414                __imp_SetUnhandledExceptionFilter
 .idata$5       0x00000000004c041c        0x8 C:/Program Files/mingw-w64/x86_64-5.3.0-posix-seh-rt_v4-rev0/mingw64/bin/../lib/gcc/x86_64-w64-mingw32/5.3.0/../../../../x86_64-w64-mingw32/lib/../lib/libkernel32.a(dqmfs01200.o)
                0x00000000004c041c                __imp_Sleep
 .idata$5       0x00000000004c0424        0x8 C:/Program Files/mingw-w64/x86_64-5.3.0-posix-seh-rt_v4-rev0/mingw64/bin/../lib/gcc/x86_64-w64-mingw32/5.3.0/../../../../x86_64-w64-mingw32/lib/../lib/libkernel32.a(dqmfs01214.o)
                0x00000000004c0424                __imp_TerminateProcess
 .idata$5       0x00000000004c042c        0x8 C:/Program Files/mingw-w64/x86_64-5.3.0-posix-seh-rt_v4-rev0/mingw64/bin/../lib/gcc/x86_64-w64-mingw32/5.3.0/../../../../x86_64-w64-mingw32/lib/../lib/libkernel32.a(dqmfs01221.o)
                0x00000000004c042c                __imp_TlsGetValue
 .idata$5       0x00000000004c0434        0x8 C:/Program Files/mingw-w64/x86_64-5.3.0-posix-seh-rt_v4-rev0/mingw64/bin/../lib/gcc/x86_64-w64-mingw32/5.3.0/../../../../x86_64-w64-mingw32/lib/../lib/libkernel32.a(dqmfs01234.o)
                0x00000000004c0434                __imp_UnhandledExceptionFilter
 .idata$5       0x00000000004c043c        0x8 C:/Program Files/mingw-w64/x86_64-5.3.0-posix-seh-rt_v4-rev0/mingw64/bin/../lib/gcc/x86_64-w64-mingw32/5.3.0/../../../../x86_64-w64-mingw32/lib/../lib/libkernel32.a(dqmfs01258.o)
                0x00000000004c043c                __imp_VirtualAlloc
 .idata$5       0x00000000004c0444        0x8 C:/Program Files/mingw-w64/x86_64-5.3.0-posix-seh-rt_v4-rev0/mingw64/bin/../lib/gcc/x86_64-w64-mingw32/5.3.0/../../../../x86_64-w64-mingw32/lib/../lib/libkernel32.a(dqmfs01261.o)
                0x00000000004c0444                __imp_VirtualFree
 .idata$5       0x00000000004c044c        0x8 C:/Program Files/mingw-w64/x86_64-5.3.0-posix-seh-rt_v4-rev0/mingw64/bin/../lib/gcc/x86_64-w64-mingw32/5.3.0/../../../../x86_64-w64-mingw32/lib/../lib/libkernel32.a(dqmfs01264.o)
                0x00000000004c044c                __imp_VirtualProtect
 .idata$5       0x00000000004c0454        0x8 C:/Program Files/mingw-w64/x86_64-5.3.0-posix-seh-rt_v4-rev0/mingw64/bin/../lib/gcc/x86_64-w64-mingw32/5.3.0/../../../../x86_64-w64-mingw32/lib/../lib/libkernel32.a(dqmfs01266.o)
                0x00000000004c0454                __imp_VirtualQuery
 .idata$5       0x00000000004c045c        0x8 C:/Program Files/mingw-w64/x86_64-5.3.0-posix-seh-rt_v4-rev0/mingw64/bin/../lib/gcc/x86_64-w64-mingw32/5.3.0/../../../../x86_64-w64-mingw32/lib/../lib/libkernel32.a(dqmft.o)
 .idata$5       0x00000000004c0464        0x0 C:/Program Files/mingw-w64/x86_64-5.3.0-posix-seh-rt_v4-rev0/mingw64/bin/../lib/gcc/x86_64-w64-mingw32/5.3.0/../../../../x86_64-w64-mingw32/lib/../lib/libmsvcrt.a(dkpfh.o)
 .idata$5       0x00000000004c0464        0x8 C:/Program Files/mingw-w64/x86_64-5.3.0-posix-seh-rt_v4-rev0/mingw64/bin/../lib/gcc/x86_64-w64-mingw32/5.3.0/../../../../x86_64-w64-mingw32/lib/../lib/libmsvcrt.a(dkpfs00055.o)
                0x00000000004c0464                __imp___C_specific_handler
 .idata$5       0x00000000004c046c        0x8 C:/Program Files/mingw-w64/x86_64-5.3.0-posix-seh-rt_v4-rev0/mingw64/bin/../lib/gcc/x86_64-w64-mingw32/5.3.0/../../../../x86_64-w64-mingw32/lib/../lib/libmsvcrt.a(dkpfs00078.o)
                0x00000000004c046c                __imp___dllonexit
 .idata$5       0x00000000004c0474        0x8 C:/Program Files/mingw-w64/x86_64-5.3.0-posix-seh-rt_v4-rev0/mingw64/bin/../lib/gcc/x86_64-w64-mingw32/5.3.0/../../../../x86_64-w64-mingw32/lib/../lib/libmsvcrt.a(dkpfs00081.o)
                0x00000000004c0474                __imp___getmainargs
 .idata$5       0x00000000004c047c        0x8 C:/Program Files/mingw-w64/x86_64-5.3.0-posix-seh-rt_v4-rev0/mingw64/bin/../lib/gcc/x86_64-w64-mingw32/5.3.0/../../../../x86_64-w64-mingw32/lib/../lib/libmsvcrt.a(dkpfs00082.o)
                0x00000000004c047c                __imp___initenv
 .idata$5       0x00000000004c0484        0x8 C:/Program Files/mingw-w64/x86_64-5.3.0-posix-seh-rt_v4-rev0/mingw64/bin/../lib/gcc/x86_64-w64-mingw32/5.3.0/../../../../x86_64-w64-mingw32/lib/../lib/libmsvcrt.a(dkpfs00083.o)
                0x00000000004c0484                __imp___iob_func
 .idata$5       0x00000000004c048c        0x8 C:/Program Files/mingw-w64/x86_64-5.3.0-posix-seh-rt_v4-rev0/mingw64/bin/../lib/gcc/x86_64-w64-mingw32/5.3.0/../../../../x86_64-w64-mingw32/lib/../lib/libmsvcrt.a(dkpfs00090.o)
                0x00000000004c048c                __imp___lconv_init
 .idata$5       0x00000000004c0494        0x8 C:/Program Files/mingw-w64/x86_64-5.3.0-posix-seh-rt_v4-rev0/mingw64/bin/../lib/gcc/x86_64-w64-mingw32/5.3.0/../../../../x86_64-w64-mingw32/lib/../lib/libmsvcrt.a(dkpfs00096.o)
                0x00000000004c0494                __imp___set_app_type
 .idata$5       0x00000000004c049c        0x8 C:/Program Files/mingw-w64/x86_64-5.3.0-posix-seh-rt_v4-rev0/mingw64/bin/../lib/gcc/x86_64-w64-mingw32/5.3.0/../../../../x86_64-w64-mingw32/lib/../lib/libmsvcrt.a(dkpfs00098.o)
                0x00000000004c049c                __imp___setusermatherr
 .idata$5       0x00000000004c04a4        0x8 C:/Program Files/mingw-w64/x86_64-5.3.0-posix-seh-rt_v4-rev0/mingw64/bin/../lib/gcc/x86_64-w64-mingw32/5.3.0/../../../../x86_64-w64-mingw32/lib/../lib/libmsvcrt.a(dkpfs00115.o)
                0x00000000004c04a4                __imp__acmdln
 .idata$5       0x00000000004c04ac        0x8 C:/Program Files/mingw-w64/x86_64-5.3.0-posix-seh-rt_v4-rev0/mingw64/bin/../lib/gcc/x86_64-w64-mingw32/5.3.0/../../../../x86_64-w64-mingw32/lib/../lib/libmsvcrt.a(dkpfs00122.o)
                0x00000000004c04ac                __imp__amsg_exit
 .idata$5       0x00000000004c04b4        0x8 C:/Program Files/mingw-w64/x86_64-5.3.0-posix-seh-rt_v4-rev0/mingw64/bin/../lib/gcc/x86_64-w64-mingw32/5.3.0/../../../../x86_64-w64-mingw32/lib/../lib/libmsvcrt.a(dkpfs00140.o)
                0x00000000004c04b4                __imp__cexit
 .idata$5       0x00000000004c04bc        0x8 C:/Program Files/mingw-w64/x86_64-5.3.0-posix-seh-rt_v4-rev0/mingw64/bin/../lib/gcc/x86_64-w64-mingw32/5.3.0/../../../../x86_64-w64-mingw32/lib/../lib/libmsvcrt.a(dkpfs00149.o)
                0x00000000004c04bc                __imp__chsize
 .idata$5       0x00000000004c04c4        0x8 C:/Program Files/mingw-w64/x86_64-5.3.0-posix-seh-rt_v4-rev0/mingw64/bin/../lib/gcc/x86_64-w64-mingw32/5.3.0/../../../../x86_64-w64-mingw32/lib/../lib/libmsvcrt.a(dkpfs00201.o)
                0x00000000004c04c4                __imp__errno
 .idata$5       0x00000000004c04cc        0x8 C:/Program Files/mingw-w64/x86_64-5.3.0-posix-seh-rt_v4-rev0/mingw64/bin/../lib/gcc/x86_64-w64-mingw32/5.3.0/../../../../x86_64-w64-mingw32/lib/../lib/libmsvcrt.a(dkpfs00234.o)
                0x00000000004c04cc                __imp__fileno
 .idata$5       0x00000000004c04d4        0x8 C:/Program Files/mingw-w64/x86_64-5.3.0-posix-seh-rt_v4-rev0/mingw64/bin/../lib/gcc/x86_64-w64-mingw32/5.3.0/../../../../x86_64-w64-mingw32/lib/../lib/libmsvcrt.a(dkpfs00235.o)
                0x00000000004c04d4                __imp__findclose
 .idata$5       0x00000000004c04dc        0x8 C:/Program Files/mingw-w64/x86_64-5.3.0-posix-seh-rt_v4-rev0/mingw64/bin/../lib/gcc/x86_64-w64-mingw32/5.3.0/../../../../x86_64-w64-mingw32/lib/../lib/libmsvcrt.a(dkpfs00238.o)
                0x00000000004c04dc                __imp__findfirst64
 .idata$5       0x00000000004c04e4        0x8 C:/Program Files/mingw-w64/x86_64-5.3.0-posix-seh-rt_v4-rev0/mingw64/bin/../lib/gcc/x86_64-w64-mingw32/5.3.0/../../../../x86_64-w64-mingw32/lib/../lib/libmsvcrt.a(dkpfs00242.o)
                0x00000000004c04e4                __imp__findnext64
 .idata$5       0x00000000004c04ec        0x8 C:/Program Files/mingw-w64/x86_64-5.3.0-posix-seh-rt_v4-rev0/mingw64/bin/../lib/gcc/x86_64-w64-mingw32/5.3.0/../../../../x86_64-w64-mingw32/lib/../lib/libmsvcrt.a(dkpfs00251.o)
                0x00000000004c04ec                __imp__fmode
 .idata$5       0x00000000004c04f4        0x8 C:/Program Files/mingw-w64/x86_64-5.3.0-posix-seh-rt_v4-rev0/mingw64/bin/../lib/gcc/x86_64-w64-mingw32/5.3.0/../../../../x86_64-w64-mingw32/lib/../lib/libmsvcrt.a(dkpfs00330.o)
                0x00000000004c04f4                __imp__initterm
 .idata$5       0x00000000004c04fc        0x8 C:/Program Files/mingw-w64/x86_64-5.3.0-posix-seh-rt_v4-rev0/mingw64/bin/../lib/gcc/x86_64-w64-mingw32/5.3.0/../../../../x86_64-w64-mingw32/lib/../lib/libmsvcrt.a(dkpfs00439.o)
                0x00000000004c04fc                __imp__lock
 .idata$5       0x00000000004c0504        0x8 C:/Program Files/mingw-w64/x86_64-5.3.0-posix-seh-rt_v4-rev0/mingw64/bin/../lib/gcc/x86_64-w64-mingw32/5.3.0/../../../../x86_64-w64-mingw32/lib/../lib/libmsvcrt.a(dkpfs00599.o)
                0x00000000004c0504                __imp__memicmp
 .idata$5       0x00000000004c050c        0x8 C:/Program Files/mingw-w64/x86_64-5.3.0-posix-seh-rt_v4-rev0/mingw64/bin/../lib/gcc/x86_64-w64-mingw32/5.3.0/../../../../x86_64-w64-mingw32/lib/../lib/libmsvcrt.a(dkpfs00611.o)
                0x00000000004c050c                __imp__onexit
 .idata$5       0x00000000004c0514        0x8 C:/Program Files/mingw-w64/x86_64-5.3.0-posix-seh-rt_v4-rev0/mingw64/bin/../lib/gcc/x86_64-w64-mingw32/5.3.0/../../../../x86_64-w64-mingw32/lib/../lib/libmsvcrt.a(dkpfs00667.o)
                0x00000000004c0514                __imp__setjmp
 .idata$5       0x00000000004c051c        0x8 C:/Program Files/mingw-w64/x86_64-5.3.0-posix-seh-rt_v4-rev0/mingw64/bin/../lib/gcc/x86_64-w64-mingw32/5.3.0/../../../../x86_64-w64-mingw32/lib/../lib/libmsvcrt.a(dkpfs00719.o)
                0x00000000004c051c                __imp__stat64
 .idata$5       0x00000000004c0524        0x8 C:/Program Files/mingw-w64/x86_64-5.3.0-posix-seh-rt_v4-rev0/mingw64/bin/../lib/gcc/x86_64-w64-mingw32/5.3.0/../../../../x86_64-w64-mingw32/lib/../lib/libmsvcrt.a(dkpfs00731.o)
                0x00000000004c0524                __imp__stricmp
 .idata$5       0x00000000004c052c        0x8 C:/Program Files/mingw-w64/x86_64-5.3.0-posix-seh-rt_v4-rev0/mingw64/bin/../lib/gcc/x86_64-w64-mingw32/5.3.0/../../../../x86_64-w64-mingw32/lib/../lib/libmsvcrt.a(dkpfs00768.o)
                0x00000000004c052c                __imp__strupr
 .idata$5       0x00000000004c0534        0x8 C:/Program Files/mingw-w64/x86_64-5.3.0-posix-seh-rt_v4-rev0/mingw64/bin/../lib/gcc/x86_64-w64-mingw32/5.3.0/../../../../x86_64-w64-mingw32/lib/../lib/libmsvcrt.a(dkpfs00807.o)
                0x00000000004c0534                __imp_time
 .idata$5       0x00000000004c053c        0x8 C:/Program Files/mingw-w64/x86_64-5.3.0-posix-seh-rt_v4-rev0/mingw64/bin/../lib/gcc/x86_64-w64-mingw32/5.3.0/../../../../x86_64-w64-mingw32/lib/../lib/libmsvcrt.a(dkpfs00819.o)
                0x00000000004c053c                __imp__unlock
 .idata$5       0x00000000004c0544        0x8 C:/Program Files/mingw-w64/x86_64-5.3.0-posix-seh-rt_v4-rev0/mingw64/bin/../lib/gcc/x86_64-w64-mingw32/5.3.0/../../../../x86_64-w64-mingw32/lib/../lib/libmsvcrt.a(dkpfs01030.o)
                0x00000000004c0544                __imp_abort
 .idata$5       0x00000000004c054c        0x8 C:/Program Files/mingw-w64/x86_64-5.3.0-posix-seh-rt_v4-rev0/mingw64/bin/../lib/gcc/x86_64-w64-mingw32/5.3.0/../../../../x86_64-w64-mingw32/lib/../lib/libmsvcrt.a(dkpfs01043.o)
                0x00000000004c054c                __imp_atoi
 .idata$5       0x00000000004c0554        0x8 C:/Program Files/mingw-w64/x86_64-5.3.0-posix-seh-rt_v4-rev0/mingw64/bin/../lib/gcc/x86_64-w64-mingw32/5.3.0/../../../../x86_64-w64-mingw32/lib/../lib/libmsvcrt.a(dkpfs01047.o)
                0x00000000004c0554                __imp_calloc
 .idata$5       0x00000000004c055c        0x8 C:/Program Files/mingw-w64/x86_64-5.3.0-posix-seh-rt_v4-rev0/mingw64/bin/../lib/gcc/x86_64-w64-mingw32/5.3.0/../../../../x86_64-w64-mingw32/lib/../lib/libmsvcrt.a(dkpfs01052.o)
                0x00000000004c055c                __imp_clock
 .idata$5       0x00000000004c0564        0x8 C:/Program Files/mingw-w64/x86_64-5.3.0-posix-seh-rt_v4-rev0/mingw64/bin/../lib/gcc/x86_64-w64-mingw32/5.3.0/../../../../x86_64-w64-mingw32/lib/../lib/libmsvcrt.a(dkpfs01060.o)
                0x00000000004c0564                __imp_exit
 .idata$5       0x00000000004c056c        0x8 C:/Program Files/mingw-w64/x86_64-5.3.0-posix-seh-rt_v4-rev0/mingw64/bin/../lib/gcc/x86_64-w64-mingw32/5.3.0/../../../../x86_64-w64-mingw32/lib/../lib/libmsvcrt.a(dkpfs01064.o)
                0x00000000004c056c                __imp_fclose
 .idata$5       0x00000000004c0574        0x8 C:/Program Files/mingw-w64/x86_64-5.3.0-posix-seh-rt_v4-rev0/mingw64/bin/../lib/gcc/x86_64-w64-mingw32/5.3.0/../../../../x86_64-w64-mingw32/lib/../lib/libmsvcrt.a(dkpfs01067.o)
                0x00000000004c0574                __imp_fflush
 .idata$5       0x00000000004c057c        0x8 C:/Program Files/mingw-w64/x86_64-5.3.0-posix-seh-rt_v4-rev0/mingw64/bin/../lib/gcc/x86_64-w64-mingw32/5.3.0/../../../../x86_64-w64-mingw32/lib/../lib/libmsvcrt.a(dkpfs01077.o)
                0x00000000004c057c                __imp_fopen
 .idata$5       0x00000000004c0584        0x8 C:/Program Files/mingw-w64/x86_64-5.3.0-posix-seh-rt_v4-rev0/mingw64/bin/../lib/gcc/x86_64-w64-mingw32/5.3.0/../../../../x86_64-w64-mingw32/lib/../lib/libmsvcrt.a(dkpfs01079.o)
                0x00000000004c0584                __imp_fprintf
 .idata$5       0x00000000004c058c        0x8 C:/Program Files/mingw-w64/x86_64-5.3.0-posix-seh-rt_v4-rev0/mingw64/bin/../lib/gcc/x86_64-w64-mingw32/5.3.0/../../../../x86_64-w64-mingw32/lib/../lib/libmsvcrt.a(dkpfs01082.o)
                0x00000000004c058c                __imp_fputs
 .idata$5       0x00000000004c0594        0x8 C:/Program Files/mingw-w64/x86_64-5.3.0-posix-seh-rt_v4-rev0/mingw64/bin/../lib/gcc/x86_64-w64-mingw32/5.3.0/../../../../x86_64-w64-mingw32/lib/../lib/libmsvcrt.a(dkpfs01085.o)
                0x00000000004c0594                __imp_fread
 .idata$5       0x00000000004c059c        0x8 C:/Program Files/mingw-w64/x86_64-5.3.0-posix-seh-rt_v4-rev0/mingw64/bin/../lib/gcc/x86_64-w64-mingw32/5.3.0/../../../../x86_64-w64-mingw32/lib/../lib/libmsvcrt.a(dkpfs01086.o)
                0x00000000004c059c                __imp_free
 .idata$5       0x00000000004c05a4        0x8 C:/Program Files/mingw-w64/x86_64-5.3.0-posix-seh-rt_v4-rev0/mingw64/bin/../lib/gcc/x86_64-w64-mingw32/5.3.0/../../../../x86_64-w64-mingw32/lib/../lib/libmsvcrt.a(dkpfs01092.o)
                0x00000000004c05a4                __imp_fseek
 .idata$5       0x00000000004c05ac        0x8 C:/Program Files/mingw-w64/x86_64-5.3.0-posix-seh-rt_v4-rev0/mingw64/bin/../lib/gcc/x86_64-w64-mingw32/5.3.0/../../../../x86_64-w64-mingw32/lib/../lib/libmsvcrt.a(dkpfs01094.o)
                0x00000000004c05ac                __imp_ftell
 .idata$5       0x00000000004c05b4        0x8 C:/Program Files/mingw-w64/x86_64-5.3.0-posix-seh-rt_v4-rev0/mingw64/bin/../lib/gcc/x86_64-w64-mingw32/5.3.0/../../../../x86_64-w64-mingw32/lib/../lib/libmsvcrt.a(dkpfs01097.o)
                0x00000000004c05b4                __imp_fwrite
 .idata$5       0x00000000004c05bc        0x8 C:/Program Files/mingw-w64/x86_64-5.3.0-posix-seh-rt_v4-rev0/mingw64/bin/../lib/gcc/x86_64-w64-mingw32/5.3.0/../../../../x86_64-w64-mingw32/lib/../lib/libmsvcrt.a(dkpfs01100.o)
                0x00000000004c05bc                __imp_getc
 .idata$5       0x00000000004c05c4        0x8 C:/Program Files/mingw-w64/x86_64-5.3.0-posix-seh-rt_v4-rev0/mingw64/bin/../lib/gcc/x86_64-w64-mingw32/5.3.0/../../../../x86_64-w64-mingw32/lib/../lib/libmsvcrt.a(dkpfs01102.o)
                0x00000000004c05c4                __imp_getenv
 .idata$5       0x00000000004c05cc        0x8 C:/Program Files/mingw-w64/x86_64-5.3.0-posix-seh-rt_v4-rev0/mingw64/bin/../lib/gcc/x86_64-w64-mingw32/5.3.0/../../../../x86_64-w64-mingw32/lib/../lib/libmsvcrt.a(dkpfs01109.o)
                0x00000000004c05cc                __imp_isalnum
 .idata$5       0x00000000004c05d4        0x8 C:/Program Files/mingw-w64/x86_64-5.3.0-posix-seh-rt_v4-rev0/mingw64/bin/../lib/gcc/x86_64-w64-mingw32/5.3.0/../../../../x86_64-w64-mingw32/lib/../lib/libmsvcrt.a(dkpfs01110.o)
                0x00000000004c05d4                __imp_isalpha
 .idata$5       0x00000000004c05dc        0x8 C:/Program Files/mingw-w64/x86_64-5.3.0-posix-seh-rt_v4-rev0/mingw64/bin/../lib/gcc/x86_64-w64-mingw32/5.3.0/../../../../x86_64-w64-mingw32/lib/../lib/libmsvcrt.a(dkpfs01118.o)
                0x00000000004c05dc                __imp_isspace
 .idata$5       0x00000000004c05e4        0x8 C:/Program Files/mingw-w64/x86_64-5.3.0-posix-seh-rt_v4-rev0/mingw64/bin/../lib/gcc/x86_64-w64-mingw32/5.3.0/../../../../x86_64-w64-mingw32/lib/../lib/libmsvcrt.a(dkpfs01138.o)
                0x00000000004c05e4                __imp_localeconv
 .idata$5       0x00000000004c05ec        0x8 C:/Program Files/mingw-w64/x86_64-5.3.0-posix-seh-rt_v4-rev0/mingw64/bin/../lib/gcc/x86_64-w64-mingw32/5.3.0/../../../../x86_64-w64-mingw32/lib/../lib/libmsvcrt.a(dkpfs01139.o)
                0x00000000004c05ec                __imp_localtime
 .idata$5       0x00000000004c05f4        0x8 C:/Program Files/mingw-w64/x86_64-5.3.0-posix-seh-rt_v4-rev0/mingw64/bin/../lib/gcc/x86_64-w64-mingw32/5.3.0/../../../../x86_64-w64-mingw32/lib/../lib/libmsvcrt.a(dkpfs01144.o)
                0x00000000004c05f4                __imp_longjmp
 .idata$5       0x00000000004c05fc        0x8 C:/Program Files/mingw-w64/x86_64-5.3.0-posix-seh-rt_v4-rev0/mingw64/bin/../lib/gcc/x86_64-w64-mingw32/5.3.0/../../../../x86_64-w64-mingw32/lib/../lib/libmsvcrt.a(dkpfs01145.o)
                0x00000000004c05fc                __imp_malloc
 .idata$5       0x00000000004c0604        0x8 C:/Program Files/mingw-w64/x86_64-5.3.0-posix-seh-rt_v4-rev0/mingw64/bin/../lib/gcc/x86_64-w64-mingw32/5.3.0/../../../../x86_64-w64-mingw32/lib/../lib/libmsvcrt.a(dkpfs01152.o)
                0x00000000004c0604                __imp_memcmp
 .idata$5       0x00000000004c060c        0x8 C:/Program Files/mingw-w64/x86_64-5.3.0-posix-seh-rt_v4-rev0/mingw64/bin/../lib/gcc/x86_64-w64-mingw32/5.3.0/../../../../x86_64-w64-mingw32/lib/../lib/libmsvcrt.a(dkpfs01153.o)
                0x00000000004c060c                __imp_memcpy
 .idata$5       0x00000000004c0614        0x8 C:/Program Files/mingw-w64/x86_64-5.3.0-posix-seh-rt_v4-rev0/mingw64/bin/../lib/gcc/x86_64-w64-mingw32/5.3.0/../../../../x86_64-w64-mingw32/lib/../lib/libmsvcrt.a(dkpfs01154.o)
                0x00000000004c0614                __imp_memmove
 .idata$5       0x00000000004c061c        0x8 C:/Program Files/mingw-w64/x86_64-5.3.0-posix-seh-rt_v4-rev0/mingw64/bin/../lib/gcc/x86_64-w64-mingw32/5.3.0/../../../../x86_64-w64-mingw32/lib/../lib/libmsvcrt.a(dkpfs01155.o)
                0x00000000004c061c                __imp_memset
 .idata$5       0x00000000004c0624        0x8 C:/Program Files/mingw-w64/x86_64-5.3.0-posix-seh-rt_v4-rev0/mingw64/bin/../lib/gcc/x86_64-w64-mingw32/5.3.0/../../../../x86_64-w64-mingw32/lib/../lib/libmsvcrt.a(dkpfs01162.o)
                0x00000000004c0624                __imp_printf
 .idata$5       0x00000000004c062c        0x8 C:/Program Files/mingw-w64/x86_64-5.3.0-posix-seh-rt_v4-rev0/mingw64/bin/../lib/gcc/x86_64-w64-mingw32/5.3.0/../../../../x86_64-w64-mingw32/lib/../lib/libmsvcrt.a(dkpfs01165.o)
                0x00000000004c062c                __imp_putchar
 .idata$5       0x00000000004c0634        0x8 C:/Program Files/mingw-w64/x86_64-5.3.0-posix-seh-rt_v4-rev0/mingw64/bin/../lib/gcc/x86_64-w64-mingw32/5.3.0/../../../../x86_64-w64-mingw32/lib/../lib/libmsvcrt.a(dkpfs01166.o)
                0x00000000004c0634                __imp_puts
 .idata$5       0x00000000004c063c        0x8 C:/Program Files/mingw-w64/x86_64-5.3.0-posix-seh-rt_v4-rev0/mingw64/bin/../lib/gcc/x86_64-w64-mingw32/5.3.0/../../../../x86_64-w64-mingw32/lib/../lib/libmsvcrt.a(dkpfs01169.o)
                0x00000000004c063c                __imp_qsort
 .idata$5       0x00000000004c0644        0x8 C:/Program Files/mingw-w64/x86_64-5.3.0-posix-seh-rt_v4-rev0/mingw64/bin/../lib/gcc/x86_64-w64-mingw32/5.3.0/../../../../x86_64-w64-mingw32/lib/../lib/libmsvcrt.a(dkpfs01174.o)
                0x00000000004c0644                __imp_remove
 .idata$5       0x00000000004c064c        0x8 C:/Program Files/mingw-w64/x86_64-5.3.0-posix-seh-rt_v4-rev0/mingw64/bin/../lib/gcc/x86_64-w64-mingw32/5.3.0/../../../../x86_64-w64-mingw32/lib/../lib/libmsvcrt.a(dkpfs01176.o)
                0x00000000004c064c                __imp_rewind
 .idata$5       0x00000000004c0654        0x8 C:/Program Files/mingw-w64/x86_64-5.3.0-posix-seh-rt_v4-rev0/mingw64/bin/../lib/gcc/x86_64-w64-mingw32/5.3.0/../../../../x86_64-w64-mingw32/lib/../lib/libmsvcrt.a(dkpfs01183.o)
                0x00000000004c0654                __imp_signal
 .idata$5       0x00000000004c065c        0x8 C:/Program Files/mingw-w64/x86_64-5.3.0-posix-seh-rt_v4-rev0/mingw64/bin/../lib/gcc/x86_64-w64-mingw32/5.3.0/../../../../x86_64-w64-mingw32/lib/../lib/libmsvcrt.a(dkpfs01188.o)
                0x00000000004c065c                __imp_sprintf
 .idata$5       0x00000000004c0664        0x8 C:/Program Files/mingw-w64/x86_64-5.3.0-posix-seh-rt_v4-rev0/mingw64/bin/../lib/gcc/x86_64-w64-mingw32/5.3.0/../../../../x86_64-w64-mingw32/lib/../lib/libmsvcrt.a(dkpfs01194.o)
                0x00000000004c0664                __imp_strcat
 .idata$5       0x00000000004c066c        0x8 C:/Program Files/mingw-w64/x86_64-5.3.0-posix-seh-rt_v4-rev0/mingw64/bin/../lib/gcc/x86_64-w64-mingw32/5.3.0/../../../../x86_64-w64-mingw32/lib/../lib/libmsvcrt.a(dkpfs01196.o)
                0x00000000004c066c                __imp_strchr
 .idata$5       0x00000000004c0674        0x8 C:/Program Files/mingw-w64/x86_64-5.3.0-posix-seh-rt_v4-rev0/mingw64/bin/../lib/gcc/x86_64-w64-mingw32/5.3.0/../../../../x86_64-w64-mingw32/lib/../lib/libmsvcrt.a(dkpfs01197.o)
                0x00000000004c0674                __imp_strcmp
 .idata$5       0x00000000004c067c        0x8 C:/Program Files/mingw-w64/x86_64-5.3.0-posix-seh-rt_v4-rev0/mingw64/bin/../lib/gcc/x86_64-w64-mingw32/5.3.0/../../../../x86_64-w64-mingw32/lib/../lib/libmsvcrt.a(dkpfs01199.o)
                0x00000000004c067c                __imp_strcpy
 .idata$5       0x00000000004c0684        0x8 C:/Program Files/mingw-w64/x86_64-5.3.0-posix-seh-rt_v4-rev0/mingw64/bin/../lib/gcc/x86_64-w64-mingw32/5.3.0/../../../../x86_64-w64-mingw32/lib/../lib/libmsvcrt.a(dkpfs01204.o)
                0x00000000004c0684                __imp_strlen
 .idata$5       0x00000000004c068c        0x8 C:/Program Files/mingw-w64/x86_64-5.3.0-posix-seh-rt_v4-rev0/mingw64/bin/../lib/gcc/x86_64-w64-mingw32/5.3.0/../../../../x86_64-w64-mingw32/lib/../lib/libmsvcrt.a(dkpfs01207.o)
                0x00000000004c068c                __imp_strncmp
 .idata$5       0x00000000004c0694        0x8 C:/Program Files/mingw-w64/x86_64-5.3.0-posix-seh-rt_v4-rev0/mingw64/bin/../lib/gcc/x86_64-w64-mingw32/5.3.0/../../../../x86_64-w64-mingw32/lib/../lib/libmsvcrt.a(dkpfs01208.o)
                0x00000000004c0694                __imp_strncpy
 .idata$5       0x00000000004c069c        0x8 C:/Program Files/mingw-w64/x86_64-5.3.0-posix-seh-rt_v4-rev0/mingw64/bin/../lib/gcc/x86_64-w64-mingw32/5.3.0/../../../../x86_64-w64-mingw32/lib/../lib/libmsvcrt.a(dkpfs01215.o)
                0x00000000004c069c                __imp_strstr
 .idata$5       0x00000000004c06a4        0x8 C:/Program Files/mingw-w64/x86_64-5.3.0-posix-seh-rt_v4-rev0/mingw64/bin/../lib/gcc/x86_64-w64-mingw32/5.3.0/../../../../x86_64-w64-mingw32/lib/../lib/libmsvcrt.a(dkpfs01233.o)
                0x00000000004c06a4                __imp_tolower
 .idata$5       0x00000000004c06ac        0x8 C:/Program Files/mingw-w64/x86_64-5.3.0-posix-seh-rt_v4-rev0/mingw64/bin/../lib/gcc/x86_64-w64-mingw32/5.3.0/../../../../x86_64-w64-mingw32/lib/../lib/libmsvcrt.a(dkpfs01239.o)
                0x00000000004c06ac                __imp_vfprintf
 .idata$5       0x00000000004c06b4        0x8 C:/Program Files/mingw-w64/x86_64-5.3.0-posix-seh-rt_v4-rev0/mingw64/bin/../lib/gcc/x86_64-w64-mingw32/5.3.0/../../../../x86_64-w64-mingw32/lib/../lib/libmsvcrt.a(dkpfs01243.o)
                0x00000000004c06b4                __imp_vprintf
 .idata$5       0x00000000004c06bc        0x8 C:/Program Files/mingw-w64/x86_64-5.3.0-posix-seh-rt_v4-rev0/mingw64/bin/../lib/gcc/x86_64-w64-mingw32/5.3.0/../../../../x86_64-w64-mingw32/lib/../lib/libmsvcrt.a(dkpfs01245.o)
                0x00000000004c06bc                __imp_vsprintf
 .idata$5       0x00000000004c06c4        0x8 C:/Program Files/mingw-w64/x86_64-5.3.0-posix-seh-rt_v4-rev0/mingw64/bin/../lib/gcc/x86_64-w64-mingw32/5.3.0/../../../../x86_64-w64-mingw32/lib/../lib/libmsvcrt.a(dkpft.o)
                0x00000000004c06cc                __IAT_end__ = .
 SORT(*)(.idata$6)
 .idata$6       0x00000000004c06cc       0x18 C:/Program Files/mingw-w64/x86_64-5.3.0-posix-seh-rt_v4-rev0/mingw64/bin/../lib/gcc/x86_64-w64-mingw32/5.3.0/../../../../x86_64-w64-mingw32/lib/../lib/libkernel32.a(dqmfs00216.o)
 .idata$6       0x00000000004c06e4       0x18 C:/Program Files/mingw-w64/x86_64-5.3.0-posix-seh-rt_v4-rev0/mingw64/bin/../lib/gcc/x86_64-w64-mingw32/5.3.0/../../../../x86_64-w64-mingw32/lib/../lib/libkernel32.a(dqmfs00249.o)
 .idata$6       0x00000000004c06fc       0x14 C:/Program Files/mingw-w64/x86_64-5.3.0-posix-seh-rt_v4-rev0/mingw64/bin/../lib/gcc/x86_64-w64-mingw32/5.3.0/../../../../x86_64-w64-mingw32/lib/../lib/libkernel32.a(dqmfs00462.o)
 .idata$6       0x00000000004c0710       0x16 C:/Program Files/mingw-w64/x86_64-5.3.0-posix-seh-rt_v4-rev0/mingw64/bin/../lib/gcc/x86_64-w64-mingw32/5.3.0/../../../../x86_64-w64-mingw32/lib/../lib/libkernel32.a(dqmfs00463.o)
 .idata$6       0x00000000004c0726       0x16 C:/Program Files/mingw-w64/x86_64-5.3.0-posix-seh-rt_v4-rev0/mingw64/bin/../lib/gcc/x86_64-w64-mingw32/5.3.0/../../../../x86_64-w64-mingw32/lib/../lib/libkernel32.a(dqmfs00467.o)
 .idata$6       0x00000000004c073c       0x10 C:/Program Files/mingw-w64/x86_64-5.3.0-posix-seh-rt_v4-rev0/mingw64/bin/../lib/gcc/x86_64-w64-mingw32/5.3.0/../../../../x86_64-w64-mingw32/lib/../lib/libkernel32.a(dqmfs00529.o)
 .idata$6       0x00000000004c074c       0x14 C:/Program Files/mingw-w64/x86_64-5.3.0-posix-seh-rt_v4-rev0/mingw64/bin/../lib/gcc/x86_64-w64-mingw32/5.3.0/../../../../x86_64-w64-mingw32/lib/../lib/libkernel32.a(dqmfs00549.o)
 .idata$6       0x00000000004c0760       0x12 C:/Program Files/mingw-w64/x86_64-5.3.0-posix-seh-rt_v4-rev0/mingw64/bin/../lib/gcc/x86_64-w64-mingw32/5.3.0/../../../../x86_64-w64-mingw32/lib/../lib/libkernel32.a(dqmfs00599.o)
 .idata$6       0x00000000004c0772       0x12 C:/Program Files/mingw-w64/x86_64-5.3.0-posix-seh-rt_v4-rev0/mingw64/bin/../lib/gcc/x86_64-w64-mingw32/5.3.0/../../../../x86_64-w64-mingw32/lib/../lib/libkernel32.a(dqmfs00628.o)
 .idata$6       0x00000000004c0784       0x1a C:/Program Files/mingw-w64/x86_64-5.3.0-posix-seh-rt_v4-rev0/mingw64/bin/../lib/gcc/x86_64-w64-mingw32/5.3.0/../../../../x86_64-w64-mingw32/lib/../lib/libkernel32.a(dqmfs00651.o)
 .idata$6       0x00000000004c079e       0x10 C:/Program Files/mingw-w64/x86_64-5.3.0-posix-seh-rt_v4-rev0/mingw64/bin/../lib/gcc/x86_64-w64-mingw32/5.3.0/../../../../x86_64-w64-mingw32/lib/../lib/libkernel32.a(dqmfs00678.o)
 .idata$6       0x00000000004c07ae       0x1c C:/Program Files/mingw-w64/x86_64-5.3.0-posix-seh-rt_v4-rev0/mingw64/bin/../lib/gcc/x86_64-w64-mingw32/5.3.0/../../../../x86_64-w64-mingw32/lib/../lib/libkernel32.a(dqmfs00762.o)
 .idata$6       0x00000000004c07ca       0x18 C:/Program Files/mingw-w64/x86_64-5.3.0-posix-seh-rt_v4-rev0/mingw64/bin/../lib/gcc/x86_64-w64-mingw32/5.3.0/../../../../x86_64-w64-mingw32/lib/../lib/libkernel32.a(dqmfs00844.o)
 .idata$6       0x00000000004c07e2       0x1a C:/Program Files/mingw-w64/x86_64-5.3.0-posix-seh-rt_v4-rev0/mingw64/bin/../lib/gcc/x86_64-w64-mingw32/5.3.0/../../../../x86_64-w64-mingw32/lib/../lib/libkernel32.a(dqmfs00958.o)
 .idata$6       0x00000000004c07fc       0x16 C:/Program Files/mingw-w64/x86_64-5.3.0-posix-seh-rt_v4-rev0/mingw64/bin/../lib/gcc/x86_64-w64-mingw32/5.3.0/../../../../x86_64-w64-mingw32/lib/../lib/libkernel32.a(dqmfs01029.o)
 .idata$6       0x00000000004c0812       0x14 C:/Program Files/mingw-w64/x86_64-5.3.0-posix-seh-rt_v4-rev0/mingw64/bin/../lib/gcc/x86_64-w64-mingw32/5.3.0/../../../../x86_64-w64-mingw32/lib/../lib/libkernel32.a(dqmfs01030.o)
 .idata$6       0x00000000004c0826       0x1a C:/Program Files/mingw-w64/x86_64-5.3.0-posix-seh-rt_v4-rev0/mingw64/bin/../lib/gcc/x86_64-w64-mingw32/5.3.0/../../../../x86_64-w64-mingw32/lib/../lib/libkernel32.a(dqmfs01037.o)
 .idata$6       0x00000000004c0840       0x14 C:/Program Files/mingw-w64/x86_64-5.3.0-posix-seh-rt_v4-rev0/mingw64/bin/../lib/gcc/x86_64-w64-mingw32/5.3.0/../../../../x86_64-w64-mingw32/lib/../lib/libkernel32.a(dqmfs01044.o)
 .idata$6       0x00000000004c0854       0x1e C:/Program Files/mingw-w64/x86_64-5.3.0-posix-seh-rt_v4-rev0/mingw64/bin/../lib/gcc/x86_64-w64-mingw32/5.3.0/../../../../x86_64-w64-mingw32/lib/../lib/libkernel32.a(dqmfs01187.o)
 .idata$6       0x00000000004c0872        0x8 C:/Program Files/mingw-w64/x86_64-5.3.0-posix-seh-rt_v4-rev0/mingw64/bin/../lib/gcc/x86_64-w64-mingw32/5.3.0/../../../../x86_64-w64-mingw32/lib/../lib/libkernel32.a(dqmfs01200.o)
 .idata$6       0x00000000004c087a       0x14 C:/Program Files/mingw-w64/x86_64-5.3.0-posix-seh-rt_v4-rev0/mingw64/bin/../lib/gcc/x86_64-w64-mingw32/5.3.0/../../../../x86_64-w64-mingw32/lib/../lib/libkernel32.a(dqmfs01214.o)
 .idata$6       0x00000000004c088e        0xe C:/Program Files/mingw-w64/x86_64-5.3.0-posix-seh-rt_v4-rev0/mingw64/bin/../lib/gcc/x86_64-w64-mingw32/5.3.0/../../../../x86_64-w64-mingw32/lib/../lib/libkernel32.a(dqmfs01221.o)
 .idata$6       0x00000000004c089c       0x1c C:/Program Files/mingw-w64/x86_64-5.3.0-posix-seh-rt_v4-rev0/mingw64/bin/../lib/gcc/x86_64-w64-mingw32/5.3.0/../../../../x86_64-w64-mingw32/lib/../lib/libkernel32.a(dqmfs01234.o)
 .idata$6       0x00000000004c08b8       0x10 C:/Program Files/mingw-w64/x86_64-5.3.0-posix-seh-rt_v4-rev0/mingw64/bin/../lib/gcc/x86_64-w64-mingw32/5.3.0/../../../../x86_64-w64-mingw32/lib/../lib/libkernel32.a(dqmfs01258.o)
 .idata$6       0x00000000004c08c8        0xe C:/Program Files/mingw-w64/x86_64-5.3.0-posix-seh-rt_v4-rev0/mingw64/bin/../lib/gcc/x86_64-w64-mingw32/5.3.0/../../../../x86_64-w64-mingw32/lib/../lib/libkernel32.a(dqmfs01261.o)
 .idata$6       0x00000000004c08d6       0x12 C:/Program Files/mingw-w64/x86_64-5.3.0-posix-seh-rt_v4-rev0/mingw64/bin/../lib/gcc/x86_64-w64-mingw32/5.3.0/../../../../x86_64-w64-mingw32/lib/../lib/libkernel32.a(dqmfs01264.o)
 .idata$6       0x00000000004c08e8       0x10 C:/Program Files/mingw-w64/x86_64-5.3.0-posix-seh-rt_v4-rev0/mingw64/bin/../lib/gcc/x86_64-w64-mingw32/5.3.0/../../../../x86_64-w64-mingw32/lib/../lib/libkernel32.a(dqmfs01266.o)
 .idata$6       0x00000000004c08f8       0x18 C:/Program Files/mingw-w64/x86_64-5.3.0-posix-seh-rt_v4-rev0/mingw64/bin/../lib/gcc/x86_64-w64-mingw32/5.3.0/../../../../x86_64-w64-mingw32/lib/../lib/libmsvcrt.a(dkpfs00055.o)
 .idata$6       0x00000000004c0910        0xe C:/Program Files/mingw-w64/x86_64-5.3.0-posix-seh-rt_v4-rev0/mingw64/bin/../lib/gcc/x86_64-w64-mingw32/5.3.0/../../../../x86_64-w64-mingw32/lib/../lib/libmsvcrt.a(dkpfs00078.o)
 .idata$6       0x00000000004c091e       0x10 C:/Program Files/mingw-w64/x86_64-5.3.0-posix-seh-rt_v4-rev0/mingw64/bin/../lib/gcc/x86_64-w64-mingw32/5.3.0/../../../../x86_64-w64-mingw32/lib/../lib/libmsvcrt.a(dkpfs00081.o)
 .idata$6       0x00000000004c092e        0xc C:/Program Files/mingw-w64/x86_64-5.3.0-posix-seh-rt_v4-rev0/mingw64/bin/../lib/gcc/x86_64-w64-mingw32/5.3.0/../../../../x86_64-w64-mingw32/lib/../lib/libmsvcrt.a(dkpfs00082.o)
 .idata$6       0x00000000004c093a        0xe C:/Program Files/mingw-w64/x86_64-5.3.0-posix-seh-rt_v4-rev0/mingw64/bin/../lib/gcc/x86_64-w64-mingw32/5.3.0/../../../../x86_64-w64-mingw32/lib/../lib/libmsvcrt.a(dkpfs00083.o)
 .idata$6       0x00000000004c0948       0x10 C:/Program Files/mingw-w64/x86_64-5.3.0-posix-seh-rt_v4-rev0/mingw64/bin/../lib/gcc/x86_64-w64-mingw32/5.3.0/../../../../x86_64-w64-mingw32/lib/../lib/libmsvcrt.a(dkpfs00090.o)
 .idata$6       0x00000000004c0958       0x12 C:/Program Files/mingw-w64/x86_64-5.3.0-posix-seh-rt_v4-rev0/mingw64/bin/../lib/gcc/x86_64-w64-mingw32/5.3.0/../../../../x86_64-w64-mingw32/lib/../lib/libmsvcrt.a(dkpfs00096.o)
 .idata$6       0x00000000004c096a       0x14 C:/Program Files/mingw-w64/x86_64-5.3.0-posix-seh-rt_v4-rev0/mingw64/bin/../lib/gcc/x86_64-w64-mingw32/5.3.0/../../../../x86_64-w64-mingw32/lib/../lib/libmsvcrt.a(dkpfs00098.o)
 .idata$6       0x00000000004c097e        0xa C:/Program Files/mingw-w64/x86_64-5.3.0-posix-seh-rt_v4-rev0/mingw64/bin/../lib/gcc/x86_64-w64-mingw32/5.3.0/../../../../x86_64-w64-mingw32/lib/../lib/libmsvcrt.a(dkpfs00115.o)
 .idata$6       0x00000000004c0988        0xe C:/Program Files/mingw-w64/x86_64-5.3.0-posix-seh-rt_v4-rev0/mingw64/bin/../lib/gcc/x86_64-w64-mingw32/5.3.0/../../../../x86_64-w64-mingw32/lib/../lib/libmsvcrt.a(dkpfs00122.o)
 .idata$6       0x00000000004c0996        0xa C:/Program Files/mingw-w64/x86_64-5.3.0-posix-seh-rt_v4-rev0/mingw64/bin/../lib/gcc/x86_64-w64-mingw32/5.3.0/../../../../x86_64-w64-mingw32/lib/../lib/libmsvcrt.a(dkpfs00140.o)
 .idata$6       0x00000000004c09a0        0xa C:/Program Files/mingw-w64/x86_64-5.3.0-posix-seh-rt_v4-rev0/mingw64/bin/../lib/gcc/x86_64-w64-mingw32/5.3.0/../../../../x86_64-w64-mingw32/lib/../lib/libmsvcrt.a(dkpfs00149.o)
 .idata$6       0x00000000004c09aa        0xa C:/Program Files/mingw-w64/x86_64-5.3.0-posix-seh-rt_v4-rev0/mingw64/bin/../lib/gcc/x86_64-w64-mingw32/5.3.0/../../../../x86_64-w64-mingw32/lib/../lib/libmsvcrt.a(dkpfs00201.o)
 .idata$6       0x00000000004c09b4        0xa C:/Program Files/mingw-w64/x86_64-5.3.0-posix-seh-rt_v4-rev0/mingw64/bin/../lib/gcc/x86_64-w64-mingw32/5.3.0/../../../../x86_64-w64-mingw32/lib/../lib/libmsvcrt.a(dkpfs00234.o)
 .idata$6       0x00000000004c09be        0xe C:/Program Files/mingw-w64/x86_64-5.3.0-posix-seh-rt_v4-rev0/mingw64/bin/../lib/gcc/x86_64-w64-mingw32/5.3.0/../../../../x86_64-w64-mingw32/lib/../lib/libmsvcrt.a(dkpfs00235.o)
 .idata$6       0x00000000004c09cc       0x10 C:/Program Files/mingw-w64/x86_64-5.3.0-posix-seh-rt_v4-rev0/mingw64/bin/../lib/gcc/x86_64-w64-mingw32/5.3.0/../../../../x86_64-w64-mingw32/lib/../lib/libmsvcrt.a(dkpfs00238.o)
 .idata$6       0x00000000004c09dc        0xe C:/Program Files/mingw-w64/x86_64-5.3.0-posix-seh-rt_v4-rev0/mingw64/bin/../lib/gcc/x86_64-w64-mingw32/5.3.0/../../../../x86_64-w64-mingw32/lib/../lib/libmsvcrt.a(dkpfs00242.o)
 .idata$6       0x00000000004c09ea        0xa C:/Program Files/mingw-w64/x86_64-5.3.0-posix-seh-rt_v4-rev0/mingw64/bin/../lib/gcc/x86_64-w64-mingw32/5.3.0/../../../../x86_64-w64-mingw32/lib/../lib/libmsvcrt.a(dkpfs00251.o)
 .idata$6       0x00000000004c09f4        0xc C:/Program Files/mingw-w64/x86_64-5.3.0-posix-seh-rt_v4-rev0/mingw64/bin/../lib/gcc/x86_64-w64-mingw32/5.3.0/../../../../x86_64-w64-mingw32/lib/../lib/libmsvcrt.a(dkpfs00330.o)
 .idata$6       0x00000000004c0a00        0x8 C:/Program Files/mingw-w64/x86_64-5.3.0-posix-seh-rt_v4-rev0/mingw64/bin/../lib/gcc/x86_64-w64-mingw32/5.3.0/../../../../x86_64-w64-mingw32/lib/../lib/libmsvcrt.a(dkpfs00439.o)
 .idata$6       0x00000000004c0a08        0xc C:/Program Files/mingw-w64/x86_64-5.3.0-posix-seh-rt_v4-rev0/mingw64/bin/../lib/gcc/x86_64-w64-mingw32/5.3.0/../../../../x86_64-w64-mingw32/lib/../lib/libmsvcrt.a(dkpfs00599.o)
 .idata$6       0x00000000004c0a14        0xa C:/Program Files/mingw-w64/x86_64-5.3.0-posix-seh-rt_v4-rev0/mingw64/bin/../lib/gcc/x86_64-w64-mingw32/5.3.0/../../../../x86_64-w64-mingw32/lib/../lib/libmsvcrt.a(dkpfs00611.o)
 .idata$6       0x00000000004c0a1e        0xa C:/Program Files/mingw-w64/x86_64-5.3.0-posix-seh-rt_v4-rev0/mingw64/bin/../lib/gcc/x86_64-w64-mingw32/5.3.0/../../../../x86_64-w64-mingw32/lib/../lib/libmsvcrt.a(dkpfs00667.o)
 .idata$6       0x00000000004c0a28        0xa C:/Program Files/mingw-w64/x86_64-5.3.0-posix-seh-rt_v4-rev0/mingw64/bin/../lib/gcc/x86_64-w64-mingw32/5.3.0/../../../../x86_64-w64-mingw32/lib/../lib/libmsvcrt.a(dkpfs00719.o)
 .idata$6       0x00000000004c0a32        0xc C:/Program Files/mingw-w64/x86_64-5.3.0-posix-seh-rt_v4-rev0/mingw64/bin/../lib/gcc/x86_64-w64-mingw32/5.3.0/../../../../x86_64-w64-mingw32/lib/../lib/libmsvcrt.a(dkpfs00731.o)
 .idata$6       0x00000000004c0a3e        0xa C:/Program Files/mingw-w64/x86_64-5.3.0-posix-seh-rt_v4-rev0/mingw64/bin/../lib/gcc/x86_64-w64-mingw32/5.3.0/../../../../x86_64-w64-mingw32/lib/../lib/libmsvcrt.a(dkpfs00768.o)
 .idata$6       0x00000000004c0a48        0xa C:/Program Files/mingw-w64/x86_64-5.3.0-posix-seh-rt_v4-rev0/mingw64/bin/../lib/gcc/x86_64-w64-mingw32/5.3.0/../../../../x86_64-w64-mingw32/lib/../lib/libmsvcrt.a(dkpfs00807.o)
 .idata$6       0x00000000004c0a52        0xa C:/Program Files/mingw-w64/x86_64-5.3.0-posix-seh-rt_v4-rev0/mingw64/bin/../lib/gcc/x86_64-w64-mingw32/5.3.0/../../../../x86_64-w64-mingw32/lib/../lib/libmsvcrt.a(dkpfs00819.o)
 .idata$6       0x00000000004c0a5c        0x8 C:/Program Files/mingw-w64/x86_64-5.3.0-posix-seh-rt_v4-rev0/mingw64/bin/../lib/gcc/x86_64-w64-mingw32/5.3.0/../../../../x86_64-w64-mingw32/lib/../lib/libmsvcrt.a(dkpfs01030.o)
 .idata$6       0x00000000004c0a64        0x8 C:/Program Files/mingw-w64/x86_64-5.3.0-posix-seh-rt_v4-rev0/mingw64/bin/../lib/gcc/x86_64-w64-mingw32/5.3.0/../../../../x86_64-w64-mingw32/lib/../lib/libmsvcrt.a(dkpfs01043.o)
 .idata$6       0x00000000004c0a6c        0xa C:/Program Files/mingw-w64/x86_64-5.3.0-posix-seh-rt_v4-rev0/mingw64/bin/../lib/gcc/x86_64-w64-mingw32/5.3.0/../../../../x86_64-w64-mingw32/lib/../lib/libmsvcrt.a(dkpfs01047.o)
 .idata$6       0x00000000004c0a76        0x8 C:/Program Files/mingw-w64/x86_64-5.3.0-posix-seh-rt_v4-rev0/mingw64/bin/../lib/gcc/x86_64-w64-mingw32/5.3.0/../../../../x86_64-w64-mingw32/lib/../lib/libmsvcrt.a(dkpfs01052.o)
 .idata$6       0x00000000004c0a7e        0x8 C:/Program Files/mingw-w64/x86_64-5.3.0-posix-seh-rt_v4-rev0/mingw64/bin/../lib/gcc/x86_64-w64-mingw32/5.3.0/../../../../x86_64-w64-mingw32/lib/../lib/libmsvcrt.a(dkpfs01060.o)
 .idata$6       0x00000000004c0a86        0xa C:/Program Files/mingw-w64/x86_64-5.3.0-posix-seh-rt_v4-rev0/mingw64/bin/../lib/gcc/x86_64-w64-mingw32/5.3.0/../../../../x86_64-w64-mingw32/lib/../lib/libmsvcrt.a(dkpfs01064.o)
 .idata$6       0x00000000004c0a90        0xa C:/Program Files/mingw-w64/x86_64-5.3.0-posix-seh-rt_v4-rev0/mingw64/bin/../lib/gcc/x86_64-w64-mingw32/5.3.0/../../../../x86_64-w64-mingw32/lib/../lib/libmsvcrt.a(dkpfs01067.o)
 .idata$6       0x00000000004c0a9a        0x8 C:/Program Files/mingw-w64/x86_64-5.3.0-posix-seh-rt_v4-rev0/mingw64/bin/../lib/gcc/x86_64-w64-mingw32/5.3.0/../../../../x86_64-w64-mingw32/lib/../lib/libmsvcrt.a(dkpfs01077.o)
 .idata$6       0x00000000004c0aa2        0xa C:/Program Files/mingw-w64/x86_64-5.3.0-posix-seh-rt_v4-rev0/mingw64/bin/../lib/gcc/x86_64-w64-mingw32/5.3.0/../../../../x86_64-w64-mingw32/lib/../lib/libmsvcrt.a(dkpfs01079.o)
 .idata$6       0x00000000004c0aac        0x8 C:/Program Files/mingw-w64/x86_64-5.3.0-posix-seh-rt_v4-rev0/mingw64/bin/../lib/gcc/x86_64-w64-mingw32/5.3.0/../../../../x86_64-w64-mingw32/lib/../lib/libmsvcrt.a(dkpfs01082.o)
 .idata$6       0x00000000004c0ab4        0x8 C:/Program Files/mingw-w64/x86_64-5.3.0-posix-seh-rt_v4-rev0/mingw64/bin/../lib/gcc/x86_64-w64-mingw32/5.3.0/../../../../x86_64-w64-mingw32/lib/../lib/libmsvcrt.a(dkpfs01085.o)
 .idata$6       0x00000000004c0abc        0x8 C:/Program Files/mingw-w64/x86_64-5.3.0-posix-seh-rt_v4-rev0/mingw64/bin/../lib/gcc/x86_64-w64-mingw32/5.3.0/../../../../x86_64-w64-mingw32/lib/../lib/libmsvcrt.a(dkpfs01086.o)
 .idata$6       0x00000000004c0ac4        0x8 C:/Program Files/mingw-w64/x86_64-5.3.0-posix-seh-rt_v4-rev0/mingw64/bin/../lib/gcc/x86_64-w64-mingw32/5.3.0/../../../../x86_64-w64-mingw32/lib/../lib/libmsvcrt.a(dkpfs01092.o)
 .idata$6       0x00000000004c0acc        0x8 C:/Program Files/mingw-w64/x86_64-5.3.0-posix-seh-rt_v4-rev0/mingw64/bin/../lib/gcc/x86_64-w64-mingw32/5.3.0/../../../../x86_64-w64-mingw32/lib/../lib/libmsvcrt.a(dkpfs01094.o)
 .idata$6       0x00000000004c0ad4        0xa C:/Program Files/mingw-w64/x86_64-5.3.0-posix-seh-rt_v4-rev0/mingw64/bin/../lib/gcc/x86_64-w64-mingw32/5.3.0/../../../../x86_64-w64-mingw32/lib/../lib/libmsvcrt.a(dkpfs01097.o)
 .idata$6       0x00000000004c0ade        0x8 C:/Program Files/mingw-w64/x86_64-5.3.0-posix-seh-rt_v4-rev0/mingw64/bin/../lib/gcc/x86_64-w64-mingw32/5.3.0/../../../../x86_64-w64-mingw32/lib/../lib/libmsvcrt.a(dkpfs01100.o)
 .idata$6       0x00000000004c0ae6        0xa C:/Program Files/mingw-w64/x86_64-5.3.0-posix-seh-rt_v4-rev0/mingw64/bin/../lib/gcc/x86_64-w64-mingw32/5.3.0/../../../../x86_64-w64-mingw32/lib/../lib/libmsvcrt.a(dkpfs01102.o)
 .idata$6       0x00000000004c0af0        0xa C:/Program Files/mingw-w64/x86_64-5.3.0-posix-seh-rt_v4-rev0/mingw64/bin/../lib/gcc/x86_64-w64-mingw32/5.3.0/../../../../x86_64-w64-mingw32/lib/../lib/libmsvcrt.a(dkpfs01109.o)
 .idata$6       0x00000000004c0afa        0xa C:/Program Files/mingw-w64/x86_64-5.3.0-posix-seh-rt_v4-rev0/mingw64/bin/../lib/gcc/x86_64-w64-mingw32/5.3.0/../../../../x86_64-w64-mingw32/lib/../lib/libmsvcrt.a(dkpfs01110.o)
 .idata$6       0x00000000004c0b04        0xa C:/Program Files/mingw-w64/x86_64-5.3.0-posix-seh-rt_v4-rev0/mingw64/bin/../lib/gcc/x86_64-w64-mingw32/5.3.0/../../../../x86_64-w64-mingw32/lib/../lib/libmsvcrt.a(dkpfs01118.o)
 .idata$6       0x00000000004c0b0e        0xe C:/Program Files/mingw-w64/x86_64-5.3.0-posix-seh-rt_v4-rev0/mingw64/bin/../lib/gcc/x86_64-w64-mingw32/5.3.0/../../../../x86_64-w64-mingw32/lib/../lib/libmsvcrt.a(dkpfs01138.o)
 .idata$6       0x00000000004c0b1c        0xc C:/Program Files/mingw-w64/x86_64-5.3.0-posix-seh-rt_v4-rev0/mingw64/bin/../lib/gcc/x86_64-w64-mingw32/5.3.0/../../../../x86_64-w64-mingw32/lib/../lib/libmsvcrt.a(dkpfs01139.o)
 .idata$6       0x00000000004c0b28        0xa C:/Program Files/mingw-w64/x86_64-5.3.0-posix-seh-rt_v4-rev0/mingw64/bin/../lib/gcc/x86_64-w64-mingw32/5.3.0/../../../../x86_64-w64-mingw32/lib/../lib/libmsvcrt.a(dkpfs01144.o)
 .idata$6       0x00000000004c0b32        0xa C:/Program Files/mingw-w64/x86_64-5.3.0-posix-seh-rt_v4-rev0/mingw64/bin/../lib/gcc/x86_64-w64-mingw32/5.3.0/../../../../x86_64-w64-mingw32/lib/../lib/libmsvcrt.a(dkpfs01145.o)
 .idata$6       0x00000000004c0b3c        0xa C:/Program Files/mingw-w64/x86_64-5.3.0-posix-seh-rt_v4-rev0/mingw64/bin/../lib/gcc/x86_64-w64-mingw32/5.3.0/../../../../x86_64-w64-mingw32/lib/../lib/libmsvcrt.a(dkpfs01152.o)
 .idata$6       0x00000000004c0b46        0xa C:/Program Files/mingw-w64/x86_64-5.3.0-posix-seh-rt_v4-rev0/mingw64/bin/../lib/gcc/x86_64-w64-mingw32/5.3.0/../../../../x86_64-w64-mingw32/lib/../lib/libmsvcrt.a(dkpfs01153.o)
 .idata$6       0x00000000004c0b50        0xa C:/Program Files/mingw-w64/x86_64-5.3.0-posix-seh-rt_v4-rev0/mingw64/bin/../lib/gcc/x86_64-w64-mingw32/5.3.0/../../../../x86_64-w64-mingw32/lib/../lib/libmsvcrt.a(dkpfs01154.o)
 .idata$6       0x00000000004c0b5a        0xa C:/Program Files/mingw-w64/x86_64-5.3.0-posix-seh-rt_v4-rev0/mingw64/bin/../lib/gcc/x86_64-w64-mingw32/5.3.0/../../../../x86_64-w64-mingw32/lib/../lib/libmsvcrt.a(dkpfs01155.o)
 .idata$6       0x00000000004c0b64        0xa C:/Program Files/mingw-w64/x86_64-5.3.0-posix-seh-rt_v4-rev0/mingw64/bin/../lib/gcc/x86_64-w64-mingw32/5.3.0/../../../../x86_64-w64-mingw32/lib/../lib/libmsvcrt.a(dkpfs01162.o)
 .idata$6       0x00000000004c0b6e        0xa C:/Program Files/mingw-w64/x86_64-5.3.0-posix-seh-rt_v4-rev0/mingw64/bin/../lib/gcc/x86_64-w64-mingw32/5.3.0/../../../../x86_64-w64-mingw32/lib/../lib/libmsvcrt.a(dkpfs01165.o)
 .idata$6       0x00000000004c0b78        0x8 C:/Program Files/mingw-w64/x86_64-5.3.0-posix-seh-rt_v4-rev0/mingw64/bin/../lib/gcc/x86_64-w64-mingw32/5.3.0/../../../../x86_64-w64-mingw32/lib/../lib/libmsvcrt.a(dkpfs01166.o)
 .idata$6       0x00000000004c0b80        0x8 C:/Program Files/mingw-w64/x86_64-5.3.0-posix-seh-rt_v4-rev0/mingw64/bin/../lib/gcc/x86_64-w64-mingw32/5.3.0/../../../../x86_64-w64-mingw32/lib/../lib/libmsvcrt.a(dkpfs01169.o)
 .idata$6       0x00000000004c0b88        0xa C:/Program Files/mingw-w64/x86_64-5.3.0-posix-seh-rt_v4-rev0/mingw64/bin/../lib/gcc/x86_64-w64-mingw32/5.3.0/../../../../x86_64-w64-mingw32/lib/../lib/libmsvcrt.a(dkpfs01174.o)
 .idata$6       0x00000000004c0b92        0xa C:/Program Files/mingw-w64/x86_64-5.3.0-posix-seh-rt_v4-rev0/mingw64/bin/../lib/gcc/x86_64-w64-mingw32/5.3.0/../../../../x86_64-w64-mingw32/lib/../lib/libmsvcrt.a(dkpfs01176.o)
 .idata$6       0x00000000004c0b9c        0xa C:/Program Files/mingw-w64/x86_64-5.3.0-posix-seh-rt_v4-rev0/mingw64/bin/../lib/gcc/x86_64-w64-mingw32/5.3.0/../../../../x86_64-w64-mingw32/lib/../lib/libmsvcrt.a(dkpfs01183.o)
 .idata$6       0x00000000004c0ba6        0xa C:/Program Files/mingw-w64/x86_64-5.3.0-posix-seh-rt_v4-rev0/mingw64/bin/../lib/gcc/x86_64-w64-mingw32/5.3.0/../../../../x86_64-w64-mingw32/lib/../lib/libmsvcrt.a(dkpfs01188.o)
 .idata$6       0x00000000004c0bb0        0xa C:/Program Files/mingw-w64/x86_64-5.3.0-posix-seh-rt_v4-rev0/mingw64/bin/../lib/gcc/x86_64-w64-mingw32/5.3.0/../../../../x86_64-w64-mingw32/lib/../lib/libmsvcrt.a(dkpfs01194.o)
 .idata$6       0x00000000004c0bba        0xa C:/Program Files/mingw-w64/x86_64-5.3.0-posix-seh-rt_v4-rev0/mingw64/bin/../lib/gcc/x86_64-w64-mingw32/5.3.0/../../../../x86_64-w64-mingw32/lib/../lib/libmsvcrt.a(dkpfs01196.o)
 .idata$6       0x00000000004c0bc4        0xa C:/Program Files/mingw-w64/x86_64-5.3.0-posix-seh-rt_v4-rev0/mingw64/bin/../lib/gcc/x86_64-w64-mingw32/5.3.0/../../../../x86_64-w64-mingw32/lib/../lib/libmsvcrt.a(dkpfs01197.o)
 .idata$6       0x00000000004c0bce        0xa C:/Program Files/mingw-w64/x86_64-5.3.0-posix-seh-rt_v4-rev0/mingw64/bin/../lib/gcc/x86_64-w64-mingw32/5.3.0/../../../../x86_64-w64-mingw32/lib/../lib/libmsvcrt.a(dkpfs01199.o)
 .idata$6       0x00000000004c0bd8        0xa C:/Program Files/mingw-w64/x86_64-5.3.0-posix-seh-rt_v4-rev0/mingw64/bin/../lib/gcc/x86_64-w64-mingw32/5.3.0/../../../../x86_64-w64-mingw32/lib/../lib/libmsvcrt.a(dkpfs01204.o)
 .idata$6       0x00000000004c0be2        0xa C:/Program Files/mingw-w64/x86_64-5.3.0-posix-seh-rt_v4-rev0/mingw64/bin/../lib/gcc/x86_64-w64-mingw32/5.3.0/../../../../x86_64-w64-mingw32/lib/../lib/libmsvcrt.a(dkpfs01207.o)
 .idata$6       0x00000000004c0bec        0xa C:/Program Files/mingw-w64/x86_64-5.3.0-posix-seh-rt_v4-rev0/mingw64/bin/../lib/gcc/x86_64-w64-mingw32/5.3.0/../../../../x86_64-w64-mingw32/lib/../lib/libmsvcrt.a(dkpfs01208.o)
 .idata$6       0x00000000004c0bf6        0xa C:/Program Files/mingw-w64/x86_64-5.3.0-posix-seh-rt_v4-rev0/mingw64/bin/../lib/gcc/x86_64-w64-mingw32/5.3.0/../../../../x86_64-w64-mingw32/lib/../lib/libmsvcrt.a(dkpfs01215.o)
 .idata$6       0x00000000004c0c00        0xa C:/Program Files/mingw-w64/x86_64-5.3.0-posix-seh-rt_v4-rev0/mingw64/bin/../lib/gcc/x86_64-w64-mingw32/5.3.0/../../../../x86_64-w64-mingw32/lib/../lib/libmsvcrt.a(dkpfs01233.o)
 .idata$6       0x00000000004c0c0a        0xc C:/Program Files/mingw-w64/x86_64-5.3.0-posix-seh-rt_v4-rev0/mingw64/bin/../lib/gcc/x86_64-w64-mingw32/5.3.0/../../../../x86_64-w64-mingw32/lib/../lib/libmsvcrt.a(dkpfs01239.o)
 .idata$6       0x00000000004c0c16        0xa C:/Program Files/mingw-w64/x86_64-5.3.0-posix-seh-rt_v4-rev0/mingw64/bin/../lib/gcc/x86_64-w64-mingw32/5.3.0/../../../../x86_64-w64-mingw32/lib/../lib/libmsvcrt.a(dkpfs01243.o)
 .idata$6       0x00000000004c0c20        0xc C:/Program Files/mingw-w64/x86_64-5.3.0-posix-seh-rt_v4-rev0/mingw64/bin/../lib/gcc/x86_64-w64-mingw32/5.3.0/../../../../x86_64-w64-mingw32/lib/../lib/libmsvcrt.a(dkpfs01245.o)
 SORT(*)(.idata$7)
 .idata$7       0x00000000004c0c2c        0x4 C:/Program Files/mingw-w64/x86_64-5.3.0-posix-seh-rt_v4-rev0/mingw64/bin/../lib/gcc/x86_64-w64-mingw32/5.3.0/../../../../x86_64-w64-mingw32/lib/../lib/libkernel32.a(dqmfs00216.o)
 .idata$7       0x00000000004c0c30        0x4 C:/Program Files/mingw-w64/x86_64-5.3.0-posix-seh-rt_v4-rev0/mingw64/bin/../lib/gcc/x86_64-w64-mingw32/5.3.0/../../../../x86_64-w64-mingw32/lib/../lib/libkernel32.a(dqmfs00249.o)
 .idata$7       0x00000000004c0c34        0x4 C:/Program Files/mingw-w64/x86_64-5.3.0-posix-seh-rt_v4-rev0/mingw64/bin/../lib/gcc/x86_64-w64-mingw32/5.3.0/../../../../x86_64-w64-mingw32/lib/../lib/libkernel32.a(dqmfs00462.o)
 .idata$7       0x00000000004c0c38        0x4 C:/Program Files/mingw-w64/x86_64-5.3.0-posix-seh-rt_v4-rev0/mingw64/bin/../lib/gcc/x86_64-w64-mingw32/5.3.0/../../../../x86_64-w64-mingw32/lib/../lib/libkernel32.a(dqmfs00463.o)
 .idata$7       0x00000000004c0c3c        0x4 C:/Program Files/mingw-w64/x86_64-5.3.0-posix-seh-rt_v4-rev0/mingw64/bin/../lib/gcc/x86_64-w64-mingw32/5.3.0/../../../../x86_64-w64-mingw32/lib/../lib/libkernel32.a(dqmfs00467.o)
 .idata$7       0x00000000004c0c40        0x4 C:/Program Files/mingw-w64/x86_64-5.3.0-posix-seh-rt_v4-rev0/mingw64/bin/../lib/gcc/x86_64-w64-mingw32/5.3.0/../../../../x86_64-w64-mingw32/lib/../lib/libkernel32.a(dqmfs00529.o)
 .idata$7       0x00000000004c0c44        0x4 C:/Program Files/mingw-w64/x86_64-5.3.0-posix-seh-rt_v4-rev0/mingw64/bin/../lib/gcc/x86_64-w64-mingw32/5.3.0/../../../../x86_64-w64-mingw32/lib/../lib/libkernel32.a(dqmfs00549.o)
 .idata$7       0x00000000004c0c48        0x4 C:/Program Files/mingw-w64/x86_64-5.3.0-posix-seh-rt_v4-rev0/mingw64/bin/../lib/gcc/x86_64-w64-mingw32/5.3.0/../../../../x86_64-w64-mingw32/lib/../lib/libkernel32.a(dqmfs00599.o)
 .idata$7       0x00000000004c0c4c        0x4 C:/Program Files/mingw-w64/x86_64-5.3.0-posix-seh-rt_v4-rev0/mingw64/bin/../lib/gcc/x86_64-w64-mingw32/5.3.0/../../../../x86_64-w64-mingw32/lib/../lib/libkernel32.a(dqmfs00628.o)
 .idata$7       0x00000000004c0c50        0x4 C:/Program Files/mingw-w64/x86_64-5.3.0-posix-seh-rt_v4-rev0/mingw64/bin/../lib/gcc/x86_64-w64-mingw32/5.3.0/../../../../x86_64-w64-mingw32/lib/../lib/libkernel32.a(dqmfs00651.o)
 .idata$7       0x00000000004c0c54        0x4 C:/Program Files/mingw-w64/x86_64-5.3.0-posix-seh-rt_v4-rev0/mingw64/bin/../lib/gcc/x86_64-w64-mingw32/5.3.0/../../../../x86_64-w64-mingw32/lib/../lib/libkernel32.a(dqmfs00678.o)
 .idata$7       0x00000000004c0c58        0x4 C:/Program Files/mingw-w64/x86_64-5.3.0-posix-seh-rt_v4-rev0/mingw64/bin/../lib/gcc/x86_64-w64-mingw32/5.3.0/../../../../x86_64-w64-mingw32/lib/../lib/libkernel32.a(dqmfs00762.o)
 .idata$7       0x00000000004c0c5c        0x4 C:/Program Files/mingw-w64/x86_64-5.3.0-posix-seh-rt_v4-rev0/mingw64/bin/../lib/gcc/x86_64-w64-mingw32/5.3.0/../../../../x86_64-w64-mingw32/lib/../lib/libkernel32.a(dqmfs00844.o)
 .idata$7       0x00000000004c0c60        0x4 C:/Program Files/mingw-w64/x86_64-5.3.0-posix-seh-rt_v4-rev0/mingw64/bin/../lib/gcc/x86_64-w64-mingw32/5.3.0/../../../../x86_64-w64-mingw32/lib/../lib/libkernel32.a(dqmfs00958.o)
 .idata$7       0x00000000004c0c64        0x4 C:/Program Files/mingw-w64/x86_64-5.3.0-posix-seh-rt_v4-rev0/mingw64/bin/../lib/gcc/x86_64-w64-mingw32/5.3.0/../../../../x86_64-w64-mingw32/lib/../lib/libkernel32.a(dqmfs01029.o)
 .idata$7       0x00000000004c0c68        0x4 C:/Program Files/mingw-w64/x86_64-5.3.0-posix-seh-rt_v4-rev0/mingw64/bin/../lib/gcc/x86_64-w64-mingw32/5.3.0/../../../../x86_64-w64-mingw32/lib/../lib/libkernel32.a(dqmfs01030.o)
 .idata$7       0x00000000004c0c6c        0x4 C:/Program Files/mingw-w64/x86_64-5.3.0-posix-seh-rt_v4-rev0/mingw64/bin/../lib/gcc/x86_64-w64-mingw32/5.3.0/../../../../x86_64-w64-mingw32/lib/../lib/libkernel32.a(dqmfs01037.o)
 .idata$7       0x00000000004c0c70        0x4 C:/Program Files/mingw-w64/x86_64-5.3.0-posix-seh-rt_v4-rev0/mingw64/bin/../lib/gcc/x86_64-w64-mingw32/5.3.0/../../../../x86_64-w64-mingw32/lib/../lib/libkernel32.a(dqmfs01044.o)
 .idata$7       0x00000000004c0c74        0x4 C:/Program Files/mingw-w64/x86_64-5.3.0-posix-seh-rt_v4-rev0/mingw64/bin/../lib/gcc/x86_64-w64-mingw32/5.3.0/../../../../x86_64-w64-mingw32/lib/../lib/libkernel32.a(dqmfs01187.o)
 .idata$7       0x00000000004c0c78        0x4 C:/Program Files/mingw-w64/x86_64-5.3.0-posix-seh-rt_v4-rev0/mingw64/bin/../lib/gcc/x86_64-w64-mingw32/5.3.0/../../../../x86_64-w64-mingw32/lib/../lib/libkernel32.a(dqmfs01200.o)
 .idata$7       0x00000000004c0c7c        0x4 C:/Program Files/mingw-w64/x86_64-5.3.0-posix-seh-rt_v4-rev0/mingw64/bin/../lib/gcc/x86_64-w64-mingw32/5.3.0/../../../../x86_64-w64-mingw32/lib/../lib/libkernel32.a(dqmfs01214.o)
 .idata$7       0x00000000004c0c80        0x4 C:/Program Files/mingw-w64/x86_64-5.3.0-posix-seh-rt_v4-rev0/mingw64/bin/../lib/gcc/x86_64-w64-mingw32/5.3.0/../../../../x86_64-w64-mingw32/lib/../lib/libkernel32.a(dqmfs01221.o)
 .idata$7       0x00000000004c0c84        0x4 C:/Program Files/mingw-w64/x86_64-5.3.0-posix-seh-rt_v4-rev0/mingw64/bin/../lib/gcc/x86_64-w64-mingw32/5.3.0/../../../../x86_64-w64-mingw32/lib/../lib/libkernel32.a(dqmfs01234.o)
 .idata$7       0x00000000004c0c88        0x4 C:/Program Files/mingw-w64/x86_64-5.3.0-posix-seh-rt_v4-rev0/mingw64/bin/../lib/gcc/x86_64-w64-mingw32/5.3.0/../../../../x86_64-w64-mingw32/lib/../lib/libkernel32.a(dqmfs01258.o)
 .idata$7       0x00000000004c0c8c        0x4 C:/Program Files/mingw-w64/x86_64-5.3.0-posix-seh-rt_v4-rev0/mingw64/bin/../lib/gcc/x86_64-w64-mingw32/5.3.0/../../../../x86_64-w64-mingw32/lib/../lib/libkernel32.a(dqmfs01261.o)
 .idata$7       0x00000000004c0c90        0x4 C:/Program Files/mingw-w64/x86_64-5.3.0-posix-seh-rt_v4-rev0/mingw64/bin/../lib/gcc/x86_64-w64-mingw32/5.3.0/../../../../x86_64-w64-mingw32/lib/../lib/libkernel32.a(dqmfs01264.o)
 .idata$7       0x00000000004c0c94        0x4 C:/Program Files/mingw-w64/x86_64-5.3.0-posix-seh-rt_v4-rev0/mingw64/bin/../lib/gcc/x86_64-w64-mingw32/5.3.0/../../../../x86_64-w64-mingw32/lib/../lib/libkernel32.a(dqmfs01266.o)
 .idata$7       0x00000000004c0c98       0x10 C:/Program Files/mingw-w64/x86_64-5.3.0-posix-seh-rt_v4-rev0/mingw64/bin/../lib/gcc/x86_64-w64-mingw32/5.3.0/../../../../x86_64-w64-mingw32/lib/../lib/libkernel32.a(dqmft.o)
                0x00000000004c0c98                __lib64_libkernel32_a_iname
 .idata$7       0x00000000004c0ca8        0x4 C:/Program Files/mingw-w64/x86_64-5.3.0-posix-seh-rt_v4-rev0/mingw64/bin/../lib/gcc/x86_64-w64-mingw32/5.3.0/../../../../x86_64-w64-mingw32/lib/../lib/libmsvcrt.a(dkpfs00055.o)
 .idata$7       0x00000000004c0cac        0x4 C:/Program Files/mingw-w64/x86_64-5.3.0-posix-seh-rt_v4-rev0/mingw64/bin/../lib/gcc/x86_64-w64-mingw32/5.3.0/../../../../x86_64-w64-mingw32/lib/../lib/libmsvcrt.a(dkpfs00078.o)
 .idata$7       0x00000000004c0cb0        0x4 C:/Program Files/mingw-w64/x86_64-5.3.0-posix-seh-rt_v4-rev0/mingw64/bin/../lib/gcc/x86_64-w64-mingw32/5.3.0/../../../../x86_64-w64-mingw32/lib/../lib/libmsvcrt.a(dkpfs00081.o)
 .idata$7       0x00000000004c0cb4        0x4 C:/Program Files/mingw-w64/x86_64-5.3.0-posix-seh-rt_v4-rev0/mingw64/bin/../lib/gcc/x86_64-w64-mingw32/5.3.0/../../../../x86_64-w64-mingw32/lib/../lib/libmsvcrt.a(dkpfs00082.o)
 .idata$7       0x00000000004c0cb8        0x4 C:/Program Files/mingw-w64/x86_64-5.3.0-posix-seh-rt_v4-rev0/mingw64/bin/../lib/gcc/x86_64-w64-mingw32/5.3.0/../../../../x86_64-w64-mingw32/lib/../lib/libmsvcrt.a(dkpfs00083.o)
 .idata$7       0x00000000004c0cbc        0x4 C:/Program Files/mingw-w64/x86_64-5.3.0-posix-seh-rt_v4-rev0/mingw64/bin/../lib/gcc/x86_64-w64-mingw32/5.3.0/../../../../x86_64-w64-mingw32/lib/../lib/libmsvcrt.a(dkpfs00090.o)
 .idata$7       0x00000000004c0cc0        0x4 C:/Program Files/mingw-w64/x86_64-5.3.0-posix-seh-rt_v4-rev0/mingw64/bin/../lib/gcc/x86_64-w64-mingw32/5.3.0/../../../../x86_64-w64-mingw32/lib/../lib/libmsvcrt.a(dkpfs00096.o)
 .idata$7       0x00000000004c0cc4        0x4 C:/Program Files/mingw-w64/x86_64-5.3.0-posix-seh-rt_v4-rev0/mingw64/bin/../lib/gcc/x86_64-w64-mingw32/5.3.0/../../../../x86_64-w64-mingw32/lib/../lib/libmsvcrt.a(dkpfs00098.o)
 .idata$7       0x00000000004c0cc8        0x4 C:/Program Files/mingw-w64/x86_64-5.3.0-posix-seh-rt_v4-rev0/mingw64/bin/../lib/gcc/x86_64-w64-mingw32/5.3.0/../../../../x86_64-w64-mingw32/lib/../lib/libmsvcrt.a(dkpfs00115.o)
 .idata$7       0x00000000004c0ccc        0x4 C:/Program Files/mingw-w64/x86_64-5.3.0-posix-seh-rt_v4-rev0/mingw64/bin/../lib/gcc/x86_64-w64-mingw32/5.3.0/../../../../x86_64-w64-mingw32/lib/../lib/libmsvcrt.a(dkpfs00122.o)
 .idata$7       0x00000000004c0cd0        0x4 C:/Program Files/mingw-w64/x86_64-5.3.0-posix-seh-rt_v4-rev0/mingw64/bin/../lib/gcc/x86_64-w64-mingw32/5.3.0/../../../../x86_64-w64-mingw32/lib/../lib/libmsvcrt.a(dkpfs00140.o)
 .idata$7       0x00000000004c0cd4        0x4 C:/Program Files/mingw-w64/x86_64-5.3.0-posix-seh-rt_v4-rev0/mingw64/bin/../lib/gcc/x86_64-w64-mingw32/5.3.0/../../../../x86_64-w64-mingw32/lib/../lib/libmsvcrt.a(dkpfs00149.o)
 .idata$7       0x00000000004c0cd8        0x4 C:/Program Files/mingw-w64/x86_64-5.3.0-posix-seh-rt_v4-rev0/mingw64/bin/../lib/gcc/x86_64-w64-mingw32/5.3.0/../../../../x86_64-w64-mingw32/lib/../lib/libmsvcrt.a(dkpfs00201.o)
 .idata$7       0x00000000004c0cdc        0x4 C:/Program Files/mingw-w64/x86_64-5.3.0-posix-seh-rt_v4-rev0/mingw64/bin/../lib/gcc/x86_64-w64-mingw32/5.3.0/../../../../x86_64-w64-mingw32/lib/../lib/libmsvcrt.a(dkpfs00234.o)
 .idata$7       0x00000000004c0ce0        0x4 C:/Program Files/mingw-w64/x86_64-5.3.0-posix-seh-rt_v4-rev0/mingw64/bin/../lib/gcc/x86_64-w64-mingw32/5.3.0/../../../../x86_64-w64-mingw32/lib/../lib/libmsvcrt.a(dkpfs00235.o)
 .idata$7       0x00000000004c0ce4        0x4 C:/Program Files/mingw-w64/x86_64-5.3.0-posix-seh-rt_v4-rev0/mingw64/bin/../lib/gcc/x86_64-w64-mingw32/5.3.0/../../../../x86_64-w64-mingw32/lib/../lib/libmsvcrt.a(dkpfs00238.o)
 .idata$7       0x00000000004c0ce8        0x4 C:/Program Files/mingw-w64/x86_64-5.3.0-posix-seh-rt_v4-rev0/mingw64/bin/../lib/gcc/x86_64-w64-mingw32/5.3.0/../../../../x86_64-w64-mingw32/lib/../lib/libmsvcrt.a(dkpfs00242.o)
 .idata$7       0x00000000004c0cec        0x4 C:/Program Files/mingw-w64/x86_64-5.3.0-posix-seh-rt_v4-rev0/mingw64/bin/../lib/gcc/x86_64-w64-mingw32/5.3.0/../../../../x86_64-w64-mingw32/lib/../lib/libmsvcrt.a(dkpfs00251.o)
 .idata$7       0x00000000004c0cf0        0x4 C:/Program Files/mingw-w64/x86_64-5.3.0-posix-seh-rt_v4-rev0/mingw64/bin/../lib/gcc/x86_64-w64-mingw32/5.3.0/../../../../x86_64-w64-mingw32/lib/../lib/libmsvcrt.a(dkpfs00330.o)
 .idata$7       0x00000000004c0cf4        0x4 C:/Program Files/mingw-w64/x86_64-5.3.0-posix-seh-rt_v4-rev0/mingw64/bin/../lib/gcc/x86_64-w64-mingw32/5.3.0/../../../../x86_64-w64-mingw32/lib/../lib/libmsvcrt.a(dkpfs00439.o)
 .idata$7       0x00000000004c0cf8        0x4 C:/Program Files/mingw-w64/x86_64-5.3.0-posix-seh-rt_v4-rev0/mingw64/bin/../lib/gcc/x86_64-w64-mingw32/5.3.0/../../../../x86_64-w64-mingw32/lib/../lib/libmsvcrt.a(dkpfs00599.o)
 .idata$7       0x00000000004c0cfc        0x4 C:/Program Files/mingw-w64/x86_64-5.3.0-posix-seh-rt_v4-rev0/mingw64/bin/../lib/gcc/x86_64-w64-mingw32/5.3.0/../../../../x86_64-w64-mingw32/lib/../lib/libmsvcrt.a(dkpfs00611.o)
 .idata$7       0x00000000004c0d00        0x4 C:/Program Files/mingw-w64/x86_64-5.3.0-posix-seh-rt_v4-rev0/mingw64/bin/../lib/gcc/x86_64-w64-mingw32/5.3.0/../../../../x86_64-w64-mingw32/lib/../lib/libmsvcrt.a(dkpfs00667.o)
 .idata$7       0x00000000004c0d04        0x4 C:/Program Files/mingw-w64/x86_64-5.3.0-posix-seh-rt_v4-rev0/mingw64/bin/../lib/gcc/x86_64-w64-mingw32/5.3.0/../../../../x86_64-w64-mingw32/lib/../lib/libmsvcrt.a(dkpfs00719.o)
 .idata$7       0x00000000004c0d08        0x4 C:/Program Files/mingw-w64/x86_64-5.3.0-posix-seh-rt_v4-rev0/mingw64/bin/../lib/gcc/x86_64-w64-mingw32/5.3.0/../../../../x86_64-w64-mingw32/lib/../lib/libmsvcrt.a(dkpfs00731.o)
 .idata$7       0x00000000004c0d0c        0x4 C:/Program Files/mingw-w64/x86_64-5.3.0-posix-seh-rt_v4-rev0/mingw64/bin/../lib/gcc/x86_64-w64-mingw32/5.3.0/../../../../x86_64-w64-mingw32/lib/../lib/libmsvcrt.a(dkpfs00768.o)
 .idata$7       0x00000000004c0d10        0x4 C:/Program Files/mingw-w64/x86_64-5.3.0-posix-seh-rt_v4-rev0/mingw64/bin/../lib/gcc/x86_64-w64-mingw32/5.3.0/../../../../x86_64-w64-mingw32/lib/../lib/libmsvcrt.a(dkpfs00807.o)
 .idata$7       0x00000000004c0d14        0x4 C:/Program Files/mingw-w64/x86_64-5.3.0-posix-seh-rt_v4-rev0/mingw64/bin/../lib/gcc/x86_64-w64-mingw32/5.3.0/../../../../x86_64-w64-mingw32/lib/../lib/libmsvcrt.a(dkpfs00819.o)
 .idata$7       0x00000000004c0d18        0x4 C:/Program Files/mingw-w64/x86_64-5.3.0-posix-seh-rt_v4-rev0/mingw64/bin/../lib/gcc/x86_64-w64-mingw32/5.3.0/../../../../x86_64-w64-mingw32/lib/../lib/libmsvcrt.a(dkpfs01030.o)
 .idata$7       0x00000000004c0d1c        0x4 C:/Program Files/mingw-w64/x86_64-5.3.0-posix-seh-rt_v4-rev0/mingw64/bin/../lib/gcc/x86_64-w64-mingw32/5.3.0/../../../../x86_64-w64-mingw32/lib/../lib/libmsvcrt.a(dkpfs01043.o)
 .idata$7       0x00000000004c0d20        0x4 C:/Program Files/mingw-w64/x86_64-5.3.0-posix-seh-rt_v4-rev0/mingw64/bin/../lib/gcc/x86_64-w64-mingw32/5.3.0/../../../../x86_64-w64-mingw32/lib/../lib/libmsvcrt.a(dkpfs01047.o)
 .idata$7       0x00000000004c0d24        0x4 C:/Program Files/mingw-w64/x86_64-5.3.0-posix-seh-rt_v4-rev0/mingw64/bin/../lib/gcc/x86_64-w64-mingw32/5.3.0/../../../../x86_64-w64-mingw32/lib/../lib/libmsvcrt.a(dkpfs01052.o)
 .idata$7       0x00000000004c0d28        0x4 C:/Program Files/mingw-w64/x86_64-5.3.0-posix-seh-rt_v4-rev0/mingw64/bin/../lib/gcc/x86_64-w64-mingw32/5.3.0/../../../../x86_64-w64-mingw32/lib/../lib/libmsvcrt.a(dkpfs01060.o)
 .idata$7       0x00000000004c0d2c        0x4 C:/Program Files/mingw-w64/x86_64-5.3.0-posix-seh-rt_v4-rev0/mingw64/bin/../lib/gcc/x86_64-w64-mingw32/5.3.0/../../../../x86_64-w64-mingw32/lib/../lib/libmsvcrt.a(dkpfs01064.o)
 .idata$7       0x00000000004c0d30        0x4 C:/Program Files/mingw-w64/x86_64-5.3.0-posix-seh-rt_v4-rev0/mingw64/bin/../lib/gcc/x86_64-w64-mingw32/5.3.0/../../../../x86_64-w64-mingw32/lib/../lib/libmsvcrt.a(dkpfs01067.o)
 .idata$7       0x00000000004c0d34        0x4 C:/Program Files/mingw-w64/x86_64-5.3.0-posix-seh-rt_v4-rev0/mingw64/bin/../lib/gcc/x86_64-w64-mingw32/5.3.0/../../../../x86_64-w64-mingw32/lib/../lib/libmsvcrt.a(dkpfs01077.o)
 .idata$7       0x00000000004c0d38        0x4 C:/Program Files/mingw-w64/x86_64-5.3.0-posix-seh-rt_v4-rev0/mingw64/bin/../lib/gcc/x86_64-w64-mingw32/5.3.0/../../../../x86_64-w64-mingw32/lib/../lib/libmsvcrt.a(dkpfs01079.o)
 .idata$7       0x00000000004c0d3c        0x4 C:/Program Files/mingw-w64/x86_64-5.3.0-posix-seh-rt_v4-rev0/mingw64/bin/../lib/gcc/x86_64-w64-mingw32/5.3.0/../../../../x86_64-w64-mingw32/lib/../lib/libmsvcrt.a(dkpfs01082.o)
 .idata$7       0x00000000004c0d40        0x4 C:/Program Files/mingw-w64/x86_64-5.3.0-posix-seh-rt_v4-rev0/mingw64/bin/../lib/gcc/x86_64-w64-mingw32/5.3.0/../../../../x86_64-w64-mingw32/lib/../lib/libmsvcrt.a(dkpfs01085.o)
 .idata$7       0x00000000004c0d44        0x4 C:/Program Files/mingw-w64/x86_64-5.3.0-posix-seh-rt_v4-rev0/mingw64/bin/../lib/gcc/x86_64-w64-mingw32/5.3.0/../../../../x86_64-w64-mingw32/lib/../lib/libmsvcrt.a(dkpfs01086.o)
 .idata$7       0x00000000004c0d48        0x4 C:/Program Files/mingw-w64/x86_64-5.3.0-posix-seh-rt_v4-rev0/mingw64/bin/../lib/gcc/x86_64-w64-mingw32/5.3.0/../../../../x86_64-w64-mingw32/lib/../lib/libmsvcrt.a(dkpfs01092.o)
 .idata$7       0x00000000004c0d4c        0x4 C:/Program Files/mingw-w64/x86_64-5.3.0-posix-seh-rt_v4-rev0/mingw64/bin/../lib/gcc/x86_64-w64-mingw32/5.3.0/../../../../x86_64-w64-mingw32/lib/../lib/libmsvcrt.a(dkpfs01094.o)
 .idata$7       0x00000000004c0d50        0x4 C:/Program Files/mingw-w64/x86_64-5.3.0-posix-seh-rt_v4-rev0/mingw64/bin/../lib/gcc/x86_64-w64-mingw32/5.3.0/../../../../x86_64-w64-mingw32/lib/../lib/libmsvcrt.a(dkpfs01097.o)
 .idata$7       0x00000000004c0d54        0x4 C:/Program Files/mingw-w64/x86_64-5.3.0-posix-seh-rt_v4-rev0/mingw64/bin/../lib/gcc/x86_64-w64-mingw32/5.3.0/../../../../x86_64-w64-mingw32/lib/../lib/libmsvcrt.a(dkpfs01100.o)
 .idata$7       0x00000000004c0d58        0x4 C:/Program Files/mingw-w64/x86_64-5.3.0-posix-seh-rt_v4-rev0/mingw64/bin/../lib/gcc/x86_64-w64-mingw32/5.3.0/../../../../x86_64-w64-mingw32/lib/../lib/libmsvcrt.a(dkpfs01102.o)
 .idata$7       0x00000000004c0d5c        0x4 C:/Program Files/mingw-w64/x86_64-5.3.0-posix-seh-rt_v4-rev0/mingw64/bin/../lib/gcc/x86_64-w64-mingw32/5.3.0/../../../../x86_64-w64-mingw32/lib/../lib/libmsvcrt.a(dkpfs01109.o)
 .idata$7       0x00000000004c0d60        0x4 C:/Program Files/mingw-w64/x86_64-5.3.0-posix-seh-rt_v4-rev0/mingw64/bin/../lib/gcc/x86_64-w64-mingw32/5.3.0/../../../../x86_64-w64-mingw32/lib/../lib/libmsvcrt.a(dkpfs01110.o)
 .idata$7       0x00000000004c0d64        0x4 C:/Program Files/mingw-w64/x86_64-5.3.0-posix-seh-rt_v4-rev0/mingw64/bin/../lib/gcc/x86_64-w64-mingw32/5.3.0/../../../../x86_64-w64-mingw32/lib/../lib/libmsvcrt.a(dkpfs01118.o)
 .idata$7       0x00000000004c0d68        0x4 C:/Program Files/mingw-w64/x86_64-5.3.0-posix-seh-rt_v4-rev0/mingw64/bin/../lib/gcc/x86_64-w64-mingw32/5.3.0/../../../../x86_64-w64-mingw32/lib/../lib/libmsvcrt.a(dkpfs01138.o)
 .idata$7       0x00000000004c0d6c        0x4 C:/Program Files/mingw-w64/x86_64-5.3.0-posix-seh-rt_v4-rev0/mingw64/bin/../lib/gcc/x86_64-w64-mingw32/5.3.0/../../../../x86_64-w64-mingw32/lib/../lib/libmsvcrt.a(dkpfs01139.o)
 .idata$7       0x00000000004c0d70        0x4 C:/Program Files/mingw-w64/x86_64-5.3.0-posix-seh-rt_v4-rev0/mingw64/bin/../lib/gcc/x86_64-w64-mingw32/5.3.0/../../../../x86_64-w64-mingw32/lib/../lib/libmsvcrt.a(dkpfs01144.o)
 .idata$7       0x00000000004c0d74        0x4 C:/Program Files/mingw-w64/x86_64-5.3.0-posix-seh-rt_v4-rev0/mingw64/bin/../lib/gcc/x86_64-w64-mingw32/5.3.0/../../../../x86_64-w64-mingw32/lib/../lib/libmsvcrt.a(dkpfs01145.o)
 .idata$7       0x00000000004c0d78        0x4 C:/Program Files/mingw-w64/x86_64-5.3.0-posix-seh-rt_v4-rev0/mingw64/bin/../lib/gcc/x86_64-w64-mingw32/5.3.0/../../../../x86_64-w64-mingw32/lib/../lib/libmsvcrt.a(dkpfs01152.o)
 .idata$7       0x00000000004c0d7c        0x4 C:/Program Files/mingw-w64/x86_64-5.3.0-posix-seh-rt_v4-rev0/mingw64/bin/../lib/gcc/x86_64-w64-mingw32/5.3.0/../../../../x86_64-w64-mingw32/lib/../lib/libmsvcrt.a(dkpfs01153.o)
 .idata$7       0x00000000004c0d80        0x4 C:/Program Files/mingw-w64/x86_64-5.3.0-posix-seh-rt_v4-rev0/mingw64/bin/../lib/gcc/x86_64-w64-mingw32/5.3.0/../../../../x86_64-w64-mingw32/lib/../lib/libmsvcrt.a(dkpfs01154.o)
 .idata$7       0x00000000004c0d84        0x4 C:/Program Files/mingw-w64/x86_64-5.3.0-posix-seh-rt_v4-rev0/mingw64/bin/../lib/gcc/x86_64-w64-mingw32/5.3.0/../../../../x86_64-w64-mingw32/lib/../lib/libmsvcrt.a(dkpfs01155.o)
 .idata$7       0x00000000004c0d88        0x4 C:/Program Files/mingw-w64/x86_64-5.3.0-posix-seh-rt_v4-rev0/mingw64/bin/../lib/gcc/x86_64-w64-mingw32/5.3.0/../../../../x86_64-w64-mingw32/lib/../lib/libmsvcrt.a(dkpfs01162.o)
 .idata$7       0x00000000004c0d8c        0x4 C:/Program Files/mingw-w64/x86_64-5.3.0-posix-seh-rt_v4-rev0/mingw64/bin/../lib/gcc/x86_64-w64-mingw32/5.3.0/../../../../x86_64-w64-mingw32/lib/../lib/libmsvcrt.a(dkpfs01165.o)
 .idata$7       0x00000000004c0d90        0x4 C:/Program Files/mingw-w64/x86_64-5.3.0-posix-seh-rt_v4-rev0/mingw64/bin/../lib/gcc/x86_64-w64-mingw32/5.3.0/../../../../x86_64-w64-mingw32/lib/../lib/libmsvcrt.a(dkpfs01166.o)
 .idata$7       0x00000000004c0d94        0x4 C:/Program Files/mingw-w64/x86_64-5.3.0-posix-seh-rt_v4-rev0/mingw64/bin/../lib/gcc/x86_64-w64-mingw32/5.3.0/../../../../x86_64-w64-mingw32/lib/../lib/libmsvcrt.a(dkpfs01169.o)
 .idata$7       0x00000000004c0d98        0x4 C:/Program Files/mingw-w64/x86_64-5.3.0-posix-seh-rt_v4-rev0/mingw64/bin/../lib/gcc/x86_64-w64-mingw32/5.3.0/../../../../x86_64-w64-mingw32/lib/../lib/libmsvcrt.a(dkpfs01174.o)
 .idata$7       0x00000000004c0d9c        0x4 C:/Program Files/mingw-w64/x86_64-5.3.0-posix-seh-rt_v4-rev0/mingw64/bin/../lib/gcc/x86_64-w64-mingw32/5.3.0/../../../../x86_64-w64-mingw32/lib/../lib/libmsvcrt.a(dkpfs01176.o)
 .idata$7       0x00000000004c0da0        0x4 C:/Program Files/mingw-w64/x86_64-5.3.0-posix-seh-rt_v4-rev0/mingw64/bin/../lib/gcc/x86_64-w64-mingw32/5.3.0/../../../../x86_64-w64-mingw32/lib/../lib/libmsvcrt.a(dkpfs01183.o)
 .idata$7       0x00000000004c0da4        0x4 C:/Program Files/mingw-w64/x86_64-5.3.0-posix-seh-rt_v4-rev0/mingw64/bin/../lib/gcc/x86_64-w64-mingw32/5.3.0/../../../../x86_64-w64-mingw32/lib/../lib/libmsvcrt.a(dkpfs01188.o)
 .idata$7       0x00000000004c0da8        0x4 C:/Program Files/mingw-w64/x86_64-5.3.0-posix-seh-rt_v4-rev0/mingw64/bin/../lib/gcc/x86_64-w64-mingw32/5.3.0/../../../../x86_64-w64-mingw32/lib/../lib/libmsvcrt.a(dkpfs01194.o)
 .idata$7       0x00000000004c0dac        0x4 C:/Program Files/mingw-w64/x86_64-5.3.0-posix-seh-rt_v4-rev0/mingw64/bin/../lib/gcc/x86_64-w64-mingw32/5.3.0/../../../../x86_64-w64-mingw32/lib/../lib/libmsvcrt.a(dkpfs01196.o)
 .idata$7       0x00000000004c0db0        0x4 C:/Program Files/mingw-w64/x86_64-5.3.0-posix-seh-rt_v4-rev0/mingw64/bin/../lib/gcc/x86_64-w64-mingw32/5.3.0/../../../../x86_64-w64-mingw32/lib/../lib/libmsvcrt.a(dkpfs01197.o)
 .idata$7       0x00000000004c0db4        0x4 C:/Program Files/mingw-w64/x86_64-5.3.0-posix-seh-rt_v4-rev0/mingw64/bin/../lib/gcc/x86_64-w64-mingw32/5.3.0/../../../../x86_64-w64-mingw32/lib/../lib/libmsvcrt.a(dkpfs01199.o)
 .idata$7       0x00000000004c0db8        0x4 C:/Program Files/mingw-w64/x86_64-5.3.0-posix-seh-rt_v4-rev0/mingw64/bin/../lib/gcc/x86_64-w64-mingw32/5.3.0/../../../../x86_64-w64-mingw32/lib/../lib/libmsvcrt.a(dkpfs01204.o)
 .idata$7       0x00000000004c0dbc        0x4 C:/Program Files/mingw-w64/x86_64-5.3.0-posix-seh-rt_v4-rev0/mingw64/bin/../lib/gcc/x86_64-w64-mingw32/5.3.0/../../../../x86_64-w64-mingw32/lib/../lib/libmsvcrt.a(dkpfs01207.o)
 .idata$7       0x00000000004c0dc0        0x4 C:/Program Files/mingw-w64/x86_64-5.3.0-posix-seh-rt_v4-rev0/mingw64/bin/../lib/gcc/x86_64-w64-mingw32/5.3.0/../../../../x86_64-w64-mingw32/lib/../lib/libmsvcrt.a(dkpfs01208.o)
 .idata$7       0x00000000004c0dc4        0x4 C:/Program Files/mingw-w64/x86_64-5.3.0-posix-seh-rt_v4-rev0/mingw64/bin/../lib/gcc/x86_64-w64-mingw32/5.3.0/../../../../x86_64-w64-mingw32/lib/../lib/libmsvcrt.a(dkpfs01215.o)
 .idata$7       0x00000000004c0dc8        0x4 C:/Program Files/mingw-w64/x86_64-5.3.0-posix-seh-rt_v4-rev0/mingw64/bin/../lib/gcc/x86_64-w64-mingw32/5.3.0/../../../../x86_64-w64-mingw32/lib/../lib/libmsvcrt.a(dkpfs01233.o)
 .idata$7       0x00000000004c0dcc        0x4 C:/Program Files/mingw-w64/x86_64-5.3.0-posix-seh-rt_v4-rev0/mingw64/bin/../lib/gcc/x86_64-w64-mingw32/5.3.0/../../../../x86_64-w64-mingw32/lib/../lib/libmsvcrt.a(dkpfs01239.o)
 .idata$7       0x00000000004c0dd0        0x4 C:/Program Files/mingw-w64/x86_64-5.3.0-posix-seh-rt_v4-rev0/mingw64/bin/../lib/gcc/x86_64-w64-mingw32/5.3.0/../../../../x86_64-w64-mingw32/lib/../lib/libmsvcrt.a(dkpfs01243.o)
 .idata$7       0x00000000004c0dd4        0x4 C:/Program Files/mingw-w64/x86_64-5.3.0-posix-seh-rt_v4-rev0/mingw64/bin/../lib/gcc/x86_64-w64-mingw32/5.3.0/../../../../x86_64-w64-mingw32/lib/../lib/libmsvcrt.a(dkpfs01245.o)
 .idata$7       0x00000000004c0dd8        0xc C:/Program Files/mingw-w64/x86_64-5.3.0-posix-seh-rt_v4-rev0/mingw64/bin/../lib/gcc/x86_64-w64-mingw32/5.3.0/../../../../x86_64-w64-mingw32/lib/../lib/libmsvcrt.a(dkpft.o)
                0x00000000004c0dd8                __lib64_libmsvcrt_a_iname

.CRT            0x00000000004c1000      0x200
                0x00000000004c1000                ___crt_xc_start__ = .
 *(SORT(.CRT$XC*))
 .CRT$XCA       0x00000000004c1000        0x8 C:/Program Files/mingw-w64/x86_64-5.3.0-posix-seh-rt_v4-rev0/mingw64/bin/../lib/gcc/x86_64-w64-mingw32/5.3.0/../../../../x86_64-w64-mingw32/lib/../lib/libmingw32.a(lib64_libmingw32_a-cinitexe.o)
                0x00000000004c1000                __xc_a
 .CRT$XCAA      0x00000000004c1008        0x8 C:/Program Files/mingw-w64/x86_64-5.3.0-posix-seh-rt_v4-rev0/mingw64/bin/../lib/gcc/x86_64-w64-mingw32/5.3.0/../../../../x86_64-w64-mingw32/lib/../lib/crt2.o
                0x00000000004c1008                mingw_pcppinit
 .CRT$XCZ       0x00000000004c1010        0x8 C:/Program Files/mingw-w64/x86_64-5.3.0-posix-seh-rt_v4-rev0/mingw64/bin/../lib/gcc/x86_64-w64-mingw32/5.3.0/../../../../x86_64-w64-mingw32/lib/../lib/libmingw32.a(lib64_libmingw32_a-cinitexe.o)
                0x00000000004c1010                __xc_z
                0x00000000004c1018                ___crt_xc_end__ = .
                0x00000000004c1018                ___crt_xi_start__ = .
 *(SORT(.CRT$XI*))
 .CRT$XIA       0x00000000004c1018        0x8 C:/Program Files/mingw-w64/x86_64-5.3.0-posix-seh-rt_v4-rev0/mingw64/bin/../lib/gcc/x86_64-w64-mingw32/5.3.0/../../../../x86_64-w64-mingw32/lib/../lib/libmingw32.a(lib64_libmingw32_a-cinitexe.o)
                0x00000000004c1018                __xi_a
 .CRT$XIAA      0x00000000004c1020        0x8 C:/Program Files/mingw-w64/x86_64-5.3.0-posix-seh-rt_v4-rev0/mingw64/bin/../lib/gcc/x86_64-w64-mingw32/5.3.0/../../../../x86_64-w64-mingw32/lib/../lib/crt2.o
                0x00000000004c1020                mingw_pcinit
 .CRT$XIC       0x00000000004c1028        0x8 C:/Program Files/mingw-w64/x86_64-5.3.0-posix-seh-rt_v4-rev0/mingw64/bin/../lib/gcc/x86_64-w64-mingw32/5.3.0/../../../../x86_64-w64-mingw32/lib/../lib/libmingw32.a(lib64_libmingw32_a-charmax.o)
                0x00000000004c1028                __mingw_pinit
 .CRT$XIZ       0x00000000004c1030        0x8 C:/Program Files/mingw-w64/x86_64-5.3.0-posix-seh-rt_v4-rev0/mingw64/bin/../lib/gcc/x86_64-w64-mingw32/5.3.0/../../../../x86_64-w64-mingw32/lib/../lib/libmingw32.a(lib64_libmingw32_a-cinitexe.o)
                0x00000000004c1030                __xi_z
                0x00000000004c1038                ___crt_xi_end__ = .
                0x00000000004c1038                ___crt_xl_start__ = .
 *(SORT(.CRT$XL*))
 .CRT$XLA       0x00000000004c1038        0x8 C:/Program Files/mingw-w64/x86_64-5.3.0-posix-seh-rt_v4-rev0/mingw64/bin/../lib/gcc/x86_64-w64-mingw32/5.3.0/../../../../x86_64-w64-mingw32/lib/../lib/libmingw32.a(lib64_libmingw32_a-tlssup.o)
                0x00000000004c1038                __xl_a
 .CRT$XLC       0x00000000004c1040        0x8 C:/Program Files/mingw-w64/x86_64-5.3.0-posix-seh-rt_v4-rev0/mingw64/bin/../lib/gcc/x86_64-w64-mingw32/5.3.0/../../../../x86_64-w64-mingw32/lib/../lib/libmingw32.a(lib64_libmingw32_a-tlssup.o)
                0x00000000004c1040                __xl_c
 .CRT$XLD       0x00000000004c1048        0x8 C:/Program Files/mingw-w64/x86_64-5.3.0-posix-seh-rt_v4-rev0/mingw64/bin/../lib/gcc/x86_64-w64-mingw32/5.3.0/../../../../x86_64-w64-mingw32/lib/../lib/libmingw32.a(lib64_libmingw32_a-tlssup.o)
                0x00000000004c1048                __xl_d
 .CRT$XLZ       0x00000000004c1050        0x8 C:/Program Files/mingw-w64/x86_64-5.3.0-posix-seh-rt_v4-rev0/mingw64/bin/../lib/gcc/x86_64-w64-mingw32/5.3.0/../../../../x86_64-w64-mingw32/lib/../lib/libmingw32.a(lib64_libmingw32_a-tlssup.o)
                0x00000000004c1050                __xl_z
                0x00000000004c1058                ___crt_xp_start__ = .
 *(SORT(.CRT$XP*))
                0x00000000004c1058                ___crt_xp_end__ = .
                0x00000000004c1058                ___crt_xt_start__ = .
 *(SORT(.CRT$XT*))
                0x00000000004c1058                ___crt_xt_end__ = .
 .CRT$XDA       0x00000000004c1058        0x8 C:/Program Files/mingw-w64/x86_64-5.3.0-posix-seh-rt_v4-rev0/mingw64/bin/../lib/gcc/x86_64-w64-mingw32/5.3.0/../../../../x86_64-w64-mingw32/lib/../lib/libmingw32.a(lib64_libmingw32_a-tlssup.o)
 .CRT$XDZ       0x00000000004c1060        0x8 C:/Program Files/mingw-w64/x86_64-5.3.0-posix-seh-rt_v4-rev0/mingw64/bin/../lib/gcc/x86_64-w64-mingw32/5.3.0/../../../../x86_64-w64-mingw32/lib/../lib/libmingw32.a(lib64_libmingw32_a-tlssup.o)

.tls            0x00000000004c2000      0x200
                0x00000000004c2000                ___tls_start__ = .
 *(.tls$AAA)
 .tls$AAA       0x00000000004c2000        0x8 C:/Program Files/mingw-w64/x86_64-5.3.0-posix-seh-rt_v4-rev0/mingw64/bin/../lib/gcc/x86_64-w64-mingw32/5.3.0/../../../../x86_64-w64-mingw32/lib/../lib/libmingw32.a(lib64_libmingw32_a-tlssup.o)
                0x00000000004c2000                _tls_start
 *(.tls)
 *fill*         0x00000000004c2008       0x18 
 .tls           0x00000000004c2020       0x40 C:/Program Files/mingw-w64/x86_64-5.3.0-posix-seh-rt_v4-rev0/mingw64/bin/../lib/gcc/x86_64-w64-mingw32/5.3.0/../../../../x86_64-w64-mingw32/lib/../lib/libmingw32.a(lib64_libmingw32_a-tlssup.o)
                0x00000000004c2020                _tls_used
 *(.tls$)
 *(SORT(.tls$*))
 .tls$ZZZ       0x00000000004c2060        0x8 C:/Program Files/mingw-w64/x86_64-5.3.0-posix-seh-rt_v4-rev0/mingw64/bin/../lib/gcc/x86_64-w64-mingw32/5.3.0/../../../../x86_64-w64-mingw32/lib/../lib/libmingw32.a(lib64_libmingw32_a-tlssup.o)
                0x00000000004c2060                _tls_end
 *(.tls$ZZZ)
                0x00000000004c2068                ___tls_end__ = .

.endjunk        0x00000000004c3000        0x0
                0x00000000004c3000                PROVIDE (end, .)
                0x00000000004c3000                PROVIDE (_end, .)
                0x00000000004c3000                __end__ = .

.rsrc
 *(.rsrc)
 *(.rsrc$*)

.reloc
 *(.reloc)

.stab
 *(.stab)

.stabstr
 *(.stabstr)

.debug_aranges
 *(.debug_aranges)

.zdebug_aranges
 *(.zdebug_aranges)

.debug_pubnames
 *(.debug_pubnames)

.zdebug_pubnames
 *(.zdebug_pubnames)

.debug_pubtypes
 *(.debug_pubtypes)

.zdebug_pubtypes
 *(.zdebug_pubtypes)

.debug_info
 *(.debug_info .gnu.linkonce.wi.*)

.zdebug_info
 *(.zdebug_info .zdebug.gnu.linkonce.wi.*)

.debug_abbrev
 *(.debug_abbrev)

.zdebug_abbrev
 *(.zdebug_abbrev)

.debug_line
 *(.debug_line)

.zdebug_line
 *(.zdebug_line)

.debug_frame
 *(.debug_frame)

.zdebug_frame
 *(.zdebug_frame)

.debug_str
 *(.debug_str)

.zdebug_str
 *(.zdebug_str)

.debug_loc
 *(.debug_loc)

.zdebug_loc
 *(.zdebug_loc)

.debug_macinfo
 *(.debug_macinfo)

.zdebug_macinfo
 *(.zdebug_macinfo)

.debug_weaknames
 *(.debug_weaknames)

.zdebug_weaknames
 *(.zdebug_weaknames)

.debug_funcnames
 *(.debug_funcnames)

.zdebug_funcnames
 *(.zdebug_funcnames)

.debug_typenames
 *(.debug_typenames)

.zdebug_typenames
 *(.zdebug_typenames)

.debug_varnames
 *(.debug_varnames)

.zdebug_varnames
 *(.zdebug_varnames)

.debug_macro
 *(.debug_macro)

.zdebug_macro
 *(.zdebug_macro)

.debug_ranges
 *(.debug_ranges)

.zdebug_ranges
 *(.zdebug_ranges)

.debug_types
 *(.debug_types .gnu.linkonce.wt.*)

.zdebug_types
 *(.zdebug_types .zdebug.gnu.linkonce.wt.*)
OUTPUT(MinGW-w64D/hjwasm.exe pei-x86-64)
